	.file	"CommandTask.cpp"
	.text
	.section	.text._ZNK8opendnp311IMasterTask10IsAuthTaskEv,"axG",@progbits,_ZNK8opendnp311IMasterTask10IsAuthTaskEv,comdat
	.align 2
	.p2align 4
	.weak	_ZNK8opendnp311IMasterTask10IsAuthTaskEv
	.type	_ZNK8opendnp311IMasterTask10IsAuthTaskEv, @function
_ZNK8opendnp311IMasterTask10IsAuthTaskEv:
.LFB2400:
	.cfi_startproc
	endbr64
	xorl	%eax, %eax
	ret
	.cfi_endproc
.LFE2400:
	.size	_ZNK8opendnp311IMasterTask10IsAuthTaskEv, .-_ZNK8opendnp311IMasterTask10IsAuthTaskEv
	.section	.rodata._ZNK8opendnp311CommandTask4NameEv.str1.1,"aMS",@progbits,1
.LC0:
	.string	"Command Task"
	.section	.text._ZNK8opendnp311CommandTask4NameEv,"axG",@progbits,_ZNK8opendnp311CommandTask4NameEv,comdat
	.align 2
	.p2align 4
	.weak	_ZNK8opendnp311CommandTask4NameEv
	.type	_ZNK8opendnp311CommandTask4NameEv, @function
_ZNK8opendnp311CommandTask4NameEv:
.LFB2932:
	.cfi_startproc
	endbr64
	leaq	.LC0(%rip), %rax
	ret
	.cfi_endproc
.LFE2932:
	.size	_ZNK8opendnp311CommandTask4NameEv, .-_ZNK8opendnp311CommandTask4NameEv
	.section	.text._ZNK8opendnp311CommandTask8PriorityEv,"axG",@progbits,_ZNK8opendnp311CommandTask8PriorityEv,comdat
	.align 2
	.p2align 4
	.weak	_ZNK8opendnp311CommandTask8PriorityEv
	.type	_ZNK8opendnp311CommandTask8PriorityEv, @function
_ZNK8opendnp311CommandTask8PriorityEv:
.LFB2933:
	.cfi_startproc
	endbr64
	movl	$100, %eax
	ret
	.cfi_endproc
.LFE2933:
	.size	_ZNK8opendnp311CommandTask8PriorityEv, .-_ZNK8opendnp311CommandTask8PriorityEv
	.section	.text._ZNK8opendnp311CommandTask19BlocksLowerPriorityEv,"axG",@progbits,_ZNK8opendnp311CommandTask19BlocksLowerPriorityEv,comdat
	.align 2
	.p2align 4
	.weak	_ZNK8opendnp311CommandTask19BlocksLowerPriorityEv
	.type	_ZNK8opendnp311CommandTask19BlocksLowerPriorityEv, @function
_ZNK8opendnp311CommandTask19BlocksLowerPriorityEv:
.LFB2934:
	.cfi_startproc
	endbr64
	xorl	%eax, %eax
	ret
	.cfi_endproc
.LFE2934:
	.size	_ZNK8opendnp311CommandTask19BlocksLowerPriorityEv, .-_ZNK8opendnp311CommandTask19BlocksLowerPriorityEv
	.section	.text._ZNK8opendnp311CommandTask11IsRecurringEv,"axG",@progbits,_ZNK8opendnp311CommandTask11IsRecurringEv,comdat
	.align 2
	.p2align 4
	.weak	_ZNK8opendnp311CommandTask11IsRecurringEv
	.type	_ZNK8opendnp311CommandTask11IsRecurringEv, @function
_ZNK8opendnp311CommandTask11IsRecurringEv:
.LFB2935:
	.cfi_startproc
	endbr64
	xorl	%eax, %eax
	ret
	.cfi_endproc
.LFE2935:
	.size	_ZNK8opendnp311CommandTask11IsRecurringEv, .-_ZNK8opendnp311CommandTask11IsRecurringEv
	.section	.text._ZNK8opendnp311CommandTask9IsEnabledEv,"axG",@progbits,_ZNK8opendnp311CommandTask9IsEnabledEv,comdat
	.align 2
	.p2align 4
	.weak	_ZNK8opendnp311CommandTask9IsEnabledEv
	.type	_ZNK8opendnp311CommandTask9IsEnabledEv, @function
_ZNK8opendnp311CommandTask9IsEnabledEv:
.LFB2936:
	.cfi_startproc
	endbr64
	movl	$1, %eax
	ret
	.cfi_endproc
.LFE2936:
	.size	_ZNK8opendnp311CommandTask9IsEnabledEv, .-_ZNK8opendnp311CommandTask9IsEnabledEv
	.section	.text._ZNK8opendnp311CommandTask11GetTaskTypeEv,"axG",@progbits,_ZNK8opendnp311CommandTask11GetTaskTypeEv,comdat
	.align 2
	.p2align 4
	.weak	_ZNK8opendnp311CommandTask11GetTaskTypeEv
	.type	_ZNK8opendnp311CommandTask11GetTaskTypeEv, @function
_ZNK8opendnp311CommandTask11GetTaskTypeEv:
.LFB2937:
	.cfi_startproc
	endbr64
	movl	$7, %eax
	ret
	.cfi_endproc
.LFE2937:
	.size	_ZNK8opendnp311CommandTask11GetTaskTypeEv, .-_ZNK8opendnp311CommandTask11GetTaskTypeEv
	.text
	.align 2
	.p2align 4
	.globl	_ZN8opendnp311CommandTask10InitializeEv
	.type	_ZN8opendnp311CommandTask10InitializeEv, @function
_ZN8opendnp311CommandTask10InitializeEv:
.LFB3139:
	.cfi_startproc
	endbr64
	movb	$127, 168(%rdi)
	ret
	.cfi_endproc
.LFE3139:
	.size	_ZN8opendnp311CommandTask10InitializeEv, .-_ZN8opendnp311CommandTask10InitializeEv
	.section	.text._ZNSt23_Sp_counted_ptr_inplaceIN8opendnp311CommandTaskESaIS1_ELN9__gnu_cxx12_Lock_policyE2EED2Ev,"axG",@progbits,_ZNSt23_Sp_counted_ptr_inplaceIN8opendnp311CommandTaskESaIS1_ELN9__gnu_cxx12_Lock_policyE2EED5Ev,comdat
	.align 2
	.p2align 4
	.weak	_ZNSt23_Sp_counted_ptr_inplaceIN8opendnp311CommandTaskESaIS1_ELN9__gnu_cxx12_Lock_policyE2EED2Ev
	.type	_ZNSt23_Sp_counted_ptr_inplaceIN8opendnp311CommandTaskESaIS1_ELN9__gnu_cxx12_Lock_policyE2EED2Ev, @function
_ZNSt23_Sp_counted_ptr_inplaceIN8opendnp311CommandTaskESaIS1_ELN9__gnu_cxx12_Lock_policyE2EED2Ev:
.LFB4077:
	.cfi_startproc
	endbr64
	ret
	.cfi_endproc
.LFE4077:
	.size	_ZNSt23_Sp_counted_ptr_inplaceIN8opendnp311CommandTaskESaIS1_ELN9__gnu_cxx12_Lock_policyE2EED2Ev, .-_ZNSt23_Sp_counted_ptr_inplaceIN8opendnp311CommandTaskESaIS1_ELN9__gnu_cxx12_Lock_policyE2EED2Ev
	.weak	_ZNSt23_Sp_counted_ptr_inplaceIN8opendnp311CommandTaskESaIS1_ELN9__gnu_cxx12_Lock_policyE2EED1Ev
	.set	_ZNSt23_Sp_counted_ptr_inplaceIN8opendnp311CommandTaskESaIS1_ELN9__gnu_cxx12_Lock_policyE2EED1Ev,_ZNSt23_Sp_counted_ptr_inplaceIN8opendnp311CommandTaskESaIS1_ELN9__gnu_cxx12_Lock_policyE2EED2Ev
	.section	.text._ZNSt23_Sp_counted_ptr_inplaceIN8opendnp311CommandTaskESaIS1_ELN9__gnu_cxx12_Lock_policyE2EE10_M_disposeEv,"axG",@progbits,_ZNSt23_Sp_counted_ptr_inplaceIN8opendnp311CommandTaskESaIS1_ELN9__gnu_cxx12_Lock_policyE2EE10_M_disposeEv,comdat
	.align 2
	.p2align 4
	.weak	_ZNSt23_Sp_counted_ptr_inplaceIN8opendnp311CommandTaskESaIS1_ELN9__gnu_cxx12_Lock_policyE2EE10_M_disposeEv
	.type	_ZNSt23_Sp_counted_ptr_inplaceIN8opendnp311CommandTaskESaIS1_ELN9__gnu_cxx12_Lock_policyE2EE10_M_disposeEv, @function
_ZNSt23_Sp_counted_ptr_inplaceIN8opendnp311CommandTaskESaIS1_ELN9__gnu_cxx12_Lock_policyE2EE10_M_disposeEv:
.LFB4080:
	.cfi_startproc
	endbr64
	movq	16(%rdi), %rax
	leaq	16(%rdi), %r8
	movq	%r8, %rdi
	movq	(%rax), %rax
	jmp	*%rax
	.cfi_endproc
.LFE4080:
	.size	_ZNSt23_Sp_counted_ptr_inplaceIN8opendnp311CommandTaskESaIS1_ELN9__gnu_cxx12_Lock_policyE2EE10_M_disposeEv, .-_ZNSt23_Sp_counted_ptr_inplaceIN8opendnp311CommandTaskESaIS1_ELN9__gnu_cxx12_Lock_policyE2EE10_M_disposeEv
	.section	.text._ZNSt23_Sp_counted_ptr_inplaceIN8opendnp311CommandTaskESaIS1_ELN9__gnu_cxx12_Lock_policyE2EE14_M_get_deleterERKSt9type_info,"axG",@progbits,_ZNSt23_Sp_counted_ptr_inplaceIN8opendnp311CommandTaskESaIS1_ELN9__gnu_cxx12_Lock_policyE2EE14_M_get_deleterERKSt9type_info,comdat
	.align 2
	.p2align 4
	.weak	_ZNSt23_Sp_counted_ptr_inplaceIN8opendnp311CommandTaskESaIS1_ELN9__gnu_cxx12_Lock_policyE2EE14_M_get_deleterERKSt9type_info
	.type	_ZNSt23_Sp_counted_ptr_inplaceIN8opendnp311CommandTaskESaIS1_ELN9__gnu_cxx12_Lock_policyE2EE14_M_get_deleterERKSt9type_info, @function
_ZNSt23_Sp_counted_ptr_inplaceIN8opendnp311CommandTaskESaIS1_ELN9__gnu_cxx12_Lock_policyE2EE14_M_get_deleterERKSt9type_info:
.LFB4082:
	.cfi_startproc
	endbr64
	pushq	%r12
	.cfi_def_cfa_offset 16
	.cfi_offset 12, -16
	pushq	%rbx
	.cfi_def_cfa_offset 24
	.cfi_offset 3, -24
	movq	%rdi, %rbx
	subq	$8, %rsp
	.cfi_def_cfa_offset 32
	cmpq	_ZZNSt19_Sp_make_shared_tag5_S_tiEvE5__tag@GOTPCREL(%rip), %rsi
	je	.L13
	movq	8(%rsi), %rdi
	movq	_ZTSSt19_Sp_make_shared_tag@GOTPCREL(%rip), %rsi
	cmpq	%rsi, %rdi
	je	.L13
	xorl	%r12d, %r12d
	cmpb	$42, (%rdi)
	je	.L12
	call	strcmp@PLT
	testl	%eax, %eax
	jne	.L12
.L13:
	leaq	16(%rbx), %r12
.L12:
	addq	$8, %rsp
	.cfi_def_cfa_offset 24
	movq	%r12, %rax
	popq	%rbx
	.cfi_def_cfa_offset 16
	popq	%r12
	.cfi_def_cfa_offset 8
	ret
	.cfi_endproc
.LFE4082:
	.size	_ZNSt23_Sp_counted_ptr_inplaceIN8opendnp311CommandTaskESaIS1_ELN9__gnu_cxx12_Lock_policyE2EE14_M_get_deleterERKSt9type_info, .-_ZNSt23_Sp_counted_ptr_inplaceIN8opendnp311CommandTaskESaIS1_ELN9__gnu_cxx12_Lock_policyE2EE14_M_get_deleterERKSt9type_info
	.section	.text._ZNSt23_Sp_counted_ptr_inplaceIN8opendnp311CommandTaskESaIS1_ELN9__gnu_cxx12_Lock_policyE2EE10_M_destroyEv,"axG",@progbits,_ZNSt23_Sp_counted_ptr_inplaceIN8opendnp311CommandTaskESaIS1_ELN9__gnu_cxx12_Lock_policyE2EE10_M_destroyEv,comdat
	.align 2
	.p2align 4
	.weak	_ZNSt23_Sp_counted_ptr_inplaceIN8opendnp311CommandTaskESaIS1_ELN9__gnu_cxx12_Lock_policyE2EE10_M_destroyEv
	.type	_ZNSt23_Sp_counted_ptr_inplaceIN8opendnp311CommandTaskESaIS1_ELN9__gnu_cxx12_Lock_policyE2EE10_M_destroyEv, @function
_ZNSt23_Sp_counted_ptr_inplaceIN8opendnp311CommandTaskESaIS1_ELN9__gnu_cxx12_Lock_policyE2EE10_M_destroyEv:
.LFB4081:
	.cfi_startproc
	endbr64
	jmp	_ZdlPv@PLT
	.cfi_endproc
.LFE4081:
	.size	_ZNSt23_Sp_counted_ptr_inplaceIN8opendnp311CommandTaskESaIS1_ELN9__gnu_cxx12_Lock_policyE2EE10_M_destroyEv, .-_ZNSt23_Sp_counted_ptr_inplaceIN8opendnp311CommandTaskESaIS1_ELN9__gnu_cxx12_Lock_policyE2EE10_M_destroyEv
	.section	.text._ZNSt23_Sp_counted_ptr_inplaceIN8opendnp311CommandTaskESaIS1_ELN9__gnu_cxx12_Lock_policyE2EED0Ev,"axG",@progbits,_ZNSt23_Sp_counted_ptr_inplaceIN8opendnp311CommandTaskESaIS1_ELN9__gnu_cxx12_Lock_policyE2EED5Ev,comdat
	.align 2
	.p2align 4
	.weak	_ZNSt23_Sp_counted_ptr_inplaceIN8opendnp311CommandTaskESaIS1_ELN9__gnu_cxx12_Lock_policyE2EED0Ev
	.type	_ZNSt23_Sp_counted_ptr_inplaceIN8opendnp311CommandTaskESaIS1_ELN9__gnu_cxx12_Lock_policyE2EED0Ev, @function
_ZNSt23_Sp_counted_ptr_inplaceIN8opendnp311CommandTaskESaIS1_ELN9__gnu_cxx12_Lock_policyE2EED0Ev:
.LFB4079:
	.cfi_startproc
	endbr64
	movl	$248, %esi
	jmp	_ZdlPvm@PLT
	.cfi_endproc
.LFE4079:
	.size	_ZNSt23_Sp_counted_ptr_inplaceIN8opendnp311CommandTaskESaIS1_ELN9__gnu_cxx12_Lock_policyE2EED0Ev, .-_ZNSt23_Sp_counted_ptr_inplaceIN8opendnp311CommandTaskESaIS1_ELN9__gnu_cxx12_Lock_policyE2EED0Ev
	.text
	.align 2
	.p2align 4
	.globl	_ZN8opendnp311CommandTask14OnTaskCompleteENS_14TaskCompletionEN7openpal18MonotonicTimestampE
	.type	_ZN8opendnp311CommandTask14OnTaskCompleteENS_14TaskCompletionEN7openpal18MonotonicTimestampE, @function
_ZN8opendnp311CommandTask14OnTaskCompleteENS_14TaskCompletionEN7openpal18MonotonicTimestampE:
.LFB3138:
	.cfi_startproc
	endbr64
	leaq	176(%rdi), %rdx
	subq	$8, %rsp
	.cfi_def_cfa_offset 16
	addq	$208, %rdi
	call	_ZN8opendnp313CommandSetOps14InvokeCallbackERKNS_10CommandSetENS_14TaskCompletionERSt8functionIFvRKNS_18ICommandTaskResultEEE@PLT
	call	_ZN7openpal18MonotonicTimestamp3MaxEv@PLT
	addq	$8, %rsp
	.cfi_def_cfa_offset 8
	movq	%rax, %rdx
	xorl	%eax, %eax
	ret
	.cfi_endproc
.LFE3138:
	.size	_ZN8opendnp311CommandTask14OnTaskCompleteENS_14TaskCompletionEN7openpal18MonotonicTimestampE, .-_ZN8opendnp311CommandTask14OnTaskCompleteENS_14TaskCompletionEN7openpal18MonotonicTimestampE
	.align 2
	.p2align 4
	.globl	_ZN8opendnp311CommandTask12BuildRequestERNS_11APDURequestEh
	.type	_ZN8opendnp311CommandTask12BuildRequestERNS_11APDURequestEh, @function
_ZN8opendnp311CommandTask12BuildRequestERNS_11APDURequestEh:
.LFB3136:
	.cfi_startproc
	endbr64
	pushq	%r12
	.cfi_def_cfa_offset 16
	.cfi_offset 12, -16
	movl	%edx, %r12d
	pushq	%rbp
	.cfi_def_cfa_offset 24
	.cfi_offset 6, -24
	pushq	%rbx
	.cfi_def_cfa_offset 32
	.cfi_offset 3, -32
	subq	$64, %rsp
	.cfi_def_cfa_offset 96
	movq	104(%rdi), %rdx
	movq	%fs:40, %rax
	movq	%rax, 56(%rsp)
	xorl	%eax, %eax
	cmpq	136(%rdi), %rdx
	je	.L22
	movq	%rsi, %rbp
	movzbl	(%rdx), %esi
	movq	%rdi, %rbx
	movq	%rbp, %rdi
	call	_ZN8opendnp311APDUWrapper11SetFunctionENS_12FunctionCodeE@PLT
	movq	120(%rbx), %rcx
	movq	104(%rbx), %rax
	leaq	-1(%rcx), %rdx
	cmpq	%rdx, %rax
	je	.L24
	addq	$1, %rax
	movq	%rax, 104(%rbx)
.L25:
	movzbl	%r12b, %edi
	leaq	16(%rsp), %r12
	call	_ZN8opendnp315AppControlField7RequestEh@PLT
	movq	%rbp, %rdi
	movabsq	$1099511627775, %rsi
	andq	%rax, %rsi
	call	_ZN8opendnp311APDUWrapper10SetControlENS_15AppControlFieldE@PLT
	movq	%rbp, %rsi
	movq	%r12, %rdi
	call	_ZN8opendnp311APDUWrapper9GetWriterEv@PLT
	leaq	208(%rbx), %rdi
	movq	%r12, %rsi
	call	_ZN8opendnp313CommandSetOps5WriteERKNS_10CommandSetERNS_12HeaderWriterE@PLT
.L22:
	movq	56(%rsp), %rcx
	xorq	%fs:40, %rcx
	jne	.L29
	addq	$64, %rsp
	.cfi_remember_state
	.cfi_def_cfa_offset 32
	popq	%rbx
	.cfi_def_cfa_offset 24
	popq	%rbp
	.cfi_def_cfa_offset 16
	popq	%r12
	.cfi_def_cfa_offset 8
	ret
	.p2align 4,,10
	.p2align 3
.L24:
	.cfi_restore_state
	movq	112(%rbx), %rdi
	call	_ZdlPv@PLT
	movq	128(%rbx), %rdx
	movq	8(%rdx), %rax
	addq	$8, %rdx
	movq	%rdx, %xmm1
	movq	%rax, %xmm0
	addq	$512, %rax
	punpcklqdq	%xmm0, %xmm0
	movups	%xmm0, 104(%rbx)
	movq	%rax, %xmm0
	punpcklqdq	%xmm1, %xmm0
	movups	%xmm0, 120(%rbx)
	jmp	.L25
.L29:
	call	__stack_chk_fail@PLT
	.cfi_endproc
.LFE3136:
	.size	_ZN8opendnp311CommandTask12BuildRequestERNS_11APDURequestEh, .-_ZN8opendnp311CommandTask12BuildRequestERNS_11APDURequestEh
	.section	.text._ZN8opendnp311CommandTaskD0Ev,"axG",@progbits,_ZN8opendnp311CommandTaskD5Ev,comdat
	.align 2
	.p2align 4
	.weak	_ZN8opendnp311CommandTaskD0Ev
	.type	_ZN8opendnp311CommandTaskD0Ev, @function
_ZN8opendnp311CommandTaskD0Ev:
.LFB4059:
	.cfi_startproc
	.cfi_personality 0x9b,DW.ref.__gxx_personality_v0
	.cfi_lsda 0x1b,.LLSDA4059
	endbr64
	movq	_ZTVN8opendnp311CommandTaskE@GOTPCREL(%rip), %rax
	pushq	%r12
	.cfi_def_cfa_offset 16
	.cfi_offset 12, -16
	pushq	%rbp
	.cfi_def_cfa_offset 24
	.cfi_offset 6, -24
	movq	%rdi, %rbp
	addq	$208, %rdi
	addq	$16, %rax
	pushq	%rbx
	.cfi_def_cfa_offset 32
	.cfi_offset 3, -32
	movq	%rax, -208(%rdi)
	call	_ZN8opendnp310CommandSetD1Ev@PLT
	movq	192(%rbp), %rax
	testq	%rax, %rax
	je	.L31
	leaq	176(%rbp), %rdi
	movl	$3, %edx
	movq	%rdi, %rsi
	call	*%rax
.L31:
	movq	88(%rbp), %rdi
	testq	%rdi, %rdi
	je	.L32
	movq	160(%rbp), %rax
	movq	128(%rbp), %rbx
	leaq	8(%rax), %r12
	cmpq	%rbx, %r12
	jbe	.L33
	.p2align 4,,10
	.p2align 3
.L34:
	movq	(%rbx), %rdi
	addq	$8, %rbx
	call	_ZdlPv@PLT
	cmpq	%rbx, %r12
	ja	.L34
	movq	88(%rbp), %rdi
.L33:
	call	_ZdlPv@PLT
.L32:
	movq	%rbp, %rdi
	call	_ZN8opendnp311IMasterTaskD2Ev@PLT
	popq	%rbx
	.cfi_def_cfa_offset 24
	movq	%rbp, %rdi
	movl	$232, %esi
	popq	%rbp
	.cfi_def_cfa_offset 16
	popq	%r12
	.cfi_def_cfa_offset 8
	jmp	_ZdlPvm@PLT
	.cfi_endproc
.LFE4059:
	.globl	__gxx_personality_v0
	.section	.gcc_except_table._ZN8opendnp311CommandTaskD0Ev,"aG",@progbits,_ZN8opendnp311CommandTaskD5Ev,comdat
.LLSDA4059:
	.byte	0xff
	.byte	0xff
	.byte	0x1
	.uleb128 .LLSDACSE4059-.LLSDACSB4059
.LLSDACSB4059:
.LLSDACSE4059:
	.section	.text._ZN8opendnp311CommandTaskD0Ev,"axG",@progbits,_ZN8opendnp311CommandTaskD5Ev,comdat
	.size	_ZN8opendnp311CommandTaskD0Ev, .-_ZN8opendnp311CommandTaskD0Ev
	.section	.text._ZN8opendnp311CommandTaskD2Ev,"axG",@progbits,_ZN8opendnp311CommandTaskD5Ev,comdat
	.align 2
	.p2align 4
	.weak	_ZN8opendnp311CommandTaskD2Ev
	.type	_ZN8opendnp311CommandTaskD2Ev, @function
_ZN8opendnp311CommandTaskD2Ev:
.LFB4057:
	.cfi_startproc
	.cfi_personality 0x9b,DW.ref.__gxx_personality_v0
	.cfi_lsda 0x1b,.LLSDA4057
	endbr64
	movq	_ZTVN8opendnp311CommandTaskE@GOTPCREL(%rip), %rax
	pushq	%r12
	.cfi_def_cfa_offset 16
	.cfi_offset 12, -16
	pushq	%rbp
	.cfi_def_cfa_offset 24
	.cfi_offset 6, -24
	movq	%rdi, %rbp
	addq	$208, %rdi
	addq	$16, %rax
	pushq	%rbx
	.cfi_def_cfa_offset 32
	.cfi_offset 3, -32
	movq	%rax, -208(%rdi)
	call	_ZN8opendnp310CommandSetD1Ev@PLT
	movq	192(%rbp), %rax
	testq	%rax, %rax
	je	.L44
	leaq	176(%rbp), %rdi
	movl	$3, %edx
	movq	%rdi, %rsi
	call	*%rax
.L44:
	movq	88(%rbp), %rdi
	testq	%rdi, %rdi
	je	.L45
	movq	160(%rbp), %rax
	movq	128(%rbp), %rbx
	leaq	8(%rax), %r12
	cmpq	%rbx, %r12
	jbe	.L46
	.p2align 4,,10
	.p2align 3
.L47:
	movq	(%rbx), %rdi
	addq	$8, %rbx
	call	_ZdlPv@PLT
	cmpq	%rbx, %r12
	ja	.L47
	movq	88(%rbp), %rdi
.L46:
	call	_ZdlPv@PLT
.L45:
	popq	%rbx
	.cfi_def_cfa_offset 24
	movq	%rbp, %rdi
	popq	%rbp
	.cfi_def_cfa_offset 16
	popq	%r12
	.cfi_def_cfa_offset 8
	jmp	_ZN8opendnp311IMasterTaskD2Ev@PLT
	.cfi_endproc
.LFE4057:
	.section	.gcc_except_table._ZN8opendnp311CommandTaskD2Ev,"aG",@progbits,_ZN8opendnp311CommandTaskD5Ev,comdat
.LLSDA4057:
	.byte	0xff
	.byte	0xff
	.byte	0x1
	.uleb128 .LLSDACSE4057-.LLSDACSB4057
.LLSDACSB4057:
.LLSDACSE4057:
	.section	.text._ZN8opendnp311CommandTaskD2Ev,"axG",@progbits,_ZN8opendnp311CommandTaskD5Ev,comdat
	.size	_ZN8opendnp311CommandTaskD2Ev, .-_ZN8opendnp311CommandTaskD2Ev
	.weak	_ZN8opendnp311CommandTaskD1Ev
	.set	_ZN8opendnp311CommandTaskD1Ev,_ZN8opendnp311CommandTaskD2Ev
	.section	.text._ZN7openpal6LoggerD2Ev,"axG",@progbits,_ZN7openpal6LoggerD5Ev,comdat
	.align 2
	.p2align 4
	.weak	_ZN7openpal6LoggerD2Ev
	.type	_ZN7openpal6LoggerD2Ev, @function
_ZN7openpal6LoggerD2Ev:
.LFB2005:
	.cfi_startproc
	endbr64
	pushq	%r12
	.cfi_def_cfa_offset 16
	.cfi_offset 12, -16
	pushq	%rbp
	.cfi_def_cfa_offset 24
	.cfi_offset 6, -24
	pushq	%rbx
	.cfi_def_cfa_offset 32
	.cfi_offset 3, -32
	movq	24(%rdi), %rbp
	movq	%rdi, %rbx
	testq	%rbp, %rbp
	je	.L58
	movq	_ZL28__gthrw___pthread_key_createPjPFvPvE@GOTPCREL(%rip), %r12
	testq	%r12, %r12
	je	.L59
	movl	$-1, %eax
	lock xaddl	%eax, 8(%rbp)
	cmpl	$1, %eax
	je	.L72
	.p2align 4,,10
	.p2align 3
.L58:
	movq	8(%rbx), %rbp
	testq	%rbp, %rbp
	je	.L56
	movq	_ZL28__gthrw___pthread_key_createPjPFvPvE@GOTPCREL(%rip), %r12
	testq	%r12, %r12
	je	.L66
	movl	$-1, %eax
	lock xaddl	%eax, 8(%rbp)
	cmpl	$1, %eax
	je	.L73
.L56:
	popq	%rbx
	.cfi_remember_state
	.cfi_def_cfa_offset 24
	popq	%rbp
	.cfi_def_cfa_offset 16
	popq	%r12
	.cfi_def_cfa_offset 8
	ret
	.p2align 4,,10
	.p2align 3
.L59:
	.cfi_restore_state
	movl	8(%rbp), %eax
	leal	-1(%rax), %edx
	movl	%edx, 8(%rbp)
	cmpl	$1, %eax
	jne	.L58
.L72:
	movq	0(%rbp), %rax
	movq	%rbp, %rdi
	call	*16(%rax)
	testq	%r12, %r12
	je	.L62
	movl	$-1, %eax
	lock xaddl	%eax, 12(%rbp)
.L63:
	cmpl	$1, %eax
	jne	.L58
	movq	0(%rbp), %rax
	movq	%rbp, %rdi
	call	*24(%rax)
	jmp	.L58
	.p2align 4,,10
	.p2align 3
.L66:
	movl	8(%rbp), %eax
	leal	-1(%rax), %edx
	movl	%edx, 8(%rbp)
	cmpl	$1, %eax
	jne	.L56
.L73:
	movq	0(%rbp), %rax
	movq	%rbp, %rdi
	call	*16(%rax)
	testq	%r12, %r12
	je	.L69
	movl	$-1, %eax
	lock xaddl	%eax, 12(%rbp)
.L70:
	cmpl	$1, %eax
	jne	.L56
	movq	0(%rbp), %rax
	popq	%rbx
	.cfi_remember_state
	.cfi_def_cfa_offset 24
	movq	%rbp, %rdi
	popq	%rbp
	.cfi_def_cfa_offset 16
	popq	%r12
	.cfi_def_cfa_offset 8
	movq	24(%rax), %rax
	jmp	*%rax
	.p2align 4,,10
	.p2align 3
.L62:
	.cfi_restore_state
	movl	12(%rbp), %eax
	leal	-1(%rax), %edx
	movl	%edx, 12(%rbp)
	jmp	.L63
	.p2align 4,,10
	.p2align 3
.L69:
	movl	12(%rbp), %eax
	leal	-1(%rax), %edx
	movl	%edx, 12(%rbp)
	jmp	.L70
	.cfi_endproc
.LFE2005:
	.size	_ZN7openpal6LoggerD2Ev, .-_ZN7openpal6LoggerD2Ev
	.weak	_ZN7openpal6LoggerD1Ev
	.set	_ZN7openpal6LoggerD1Ev,_ZN7openpal6LoggerD2Ev
	.section	.text.unlikely,"ax",@progbits
	.align 2
.LCOLDB1:
	.text
.LHOTB1:
	.align 2
	.p2align 4
	.globl	_ZN8opendnp311CommandTaskC2EONS_10CommandSetERNS_18IMasterApplicationERKSt8functionIFvRKNS_18ICommandTaskResultEEERKNS_10TaskConfigEN7openpal6LoggerE
	.type	_ZN8opendnp311CommandTaskC2EONS_10CommandSetERNS_18IMasterApplicationERKSt8functionIFvRKNS_18ICommandTaskResultEEERKNS_10TaskConfigEN7openpal6LoggerE, @function
_ZN8opendnp311CommandTaskC2EONS_10CommandSetERNS_18IMasterApplicationERKSt8functionIFvRKNS_18ICommandTaskResultEEERKNS_10TaskConfigEN7openpal6LoggerE:
.LFB3132:
	.cfi_startproc
	.cfi_personality 0x9b,DW.ref.__gxx_personality_v0
	.cfi_lsda 0x1b,.LLSDA3132
	endbr64
	pushq	%r15
	.cfi_def_cfa_offset 16
	.cfi_offset 15, -16
	pushq	%r14
	.cfi_def_cfa_offset 24
	.cfi_offset 14, -24
	movq	%rdx, %r14
	pushq	%r13
	.cfi_def_cfa_offset 32
	.cfi_offset 13, -32
	movq	%rsi, %r13
	pushq	%r12
	.cfi_def_cfa_offset 40
	.cfi_offset 12, -40
	movq	%rcx, %r12
	pushq	%rbp
	.cfi_def_cfa_offset 48
	.cfi_offset 6, -48
	movq	%rdi, %rbp
	pushq	%rbx
	.cfi_def_cfa_offset 56
	.cfi_offset 3, -56
	movq	%r8, %rbx
	subq	$56, %rsp
	.cfi_def_cfa_offset 112
	movdqu	(%r9), %xmm1
	movq	%fs:40, %rax
	movq	%rax, 40(%rsp)
	xorl	%eax, %eax
	movq	8(%r9), %rax
	movaps	%xmm1, (%rsp)
	testq	%rax, %rax
	je	.L75
	cmpq	$0, _ZL28__gthrw___pthread_key_createPjPFvPvE@GOTPCREL(%rip)
	je	.L76
	lock addl	$1, 8(%rax)
.L75:
	movdqu	16(%r9), %xmm2
	movq	24(%r9), %rax
	movaps	%xmm2, 16(%rsp)
	testq	%rax, %rax
	je	.L77
	cmpq	$0, _ZL28__gthrw___pthread_key_createPjPFvPvE@GOTPCREL(%rip)
	je	.L78
	lock addl	$1, 8(%rax)
.L77:
	movq	%rsp, %r15
.LEHB0:
	call	_ZN7openpal18MonotonicTimestamp3MinEv@PLT
	movq	%rsp, %r15
	movq	(%rbx), %r8
	movq	8(%rbx), %r9
	movq	%rax, %rdx
	movq	%r15, %rcx
	movq	%r14, %rsi
	movq	%rbp, %rdi
	call	_ZN8opendnp311IMasterTaskC2ERNS_18IMasterApplicationEN7openpal18MonotonicTimestampENS3_6LoggerENS_10TaskConfigE@PLT
.LEHE0:
	movq	24(%rsp), %r14
	testq	%r14, %r14
	je	.L80
	movq	_ZL28__gthrw___pthread_key_createPjPFvPvE@GOTPCREL(%rip), %rbx
	testq	%rbx, %rbx
	je	.L81
	movl	$-1, %eax
	lock xaddl	%eax, 8(%r14)
	cmpl	$1, %eax
	je	.L131
	.p2align 4,,10
	.p2align 3
.L80:
	movq	8(%rsp), %r14
	testq	%r14, %r14
	je	.L87
	movq	_ZL28__gthrw___pthread_key_createPjPFvPvE@GOTPCREL(%rip), %rbx
	testq	%rbx, %rbx
	je	.L88
	movl	$-1, %eax
	lock xaddl	%eax, 8(%r14)
	cmpl	$1, %eax
	je	.L132
	.p2align 4,,10
	.p2align 3
.L87:
	movq	_ZTVN8opendnp311CommandTaskE@GOTPCREL(%rip), %rax
	movq	$0, 88(%rbp)
	pxor	%xmm0, %xmm0
	movl	$64, %edi
	movq	$8, 96(%rbp)
	addq	$16, %rax
	movups	%xmm0, 104(%rbp)
	movq	%rax, 0(%rbp)
	movups	%xmm0, 120(%rbp)
	movups	%xmm0, 136(%rbp)
	movups	%xmm0, 152(%rbp)
.LEHB1:
	call	_Znwm@PLT
.LEHE1:
	movq	96(%rbp), %rdx
	movq	%rax, 88(%rbp)
	movl	$512, %edi
	leaq	-4(,%rdx,4), %rbx
	andq	$-8, %rbx
	addq	%rax, %rbx
.LEHB2:
	call	_Znwm@PLT
.LEHE2:
	leaq	512(%rax), %rdx
	movq	%rax, %xmm0
	movq	%rax, (%rbx)
	leaq	176(%rbp), %r14
	movq	%rax, 144(%rbp)
	punpcklqdq	%xmm0, %xmm0
	movq	%rax, 136(%rbp)
	movq	$0, 192(%rbp)
	movq	16(%r12), %rax
	movq	%rbx, 128(%rbp)
	movq	%rdx, 120(%rbp)
	movq	%rbx, 160(%rbp)
	movq	%rdx, 152(%rbp)
	movb	$127, 168(%rbp)
	movups	%xmm0, 104(%rbp)
	testq	%rax, %rax
	je	.L94
	movl	$2, %edx
	movq	%r12, %rsi
	movq	%r14, %rdi
.LEHB3:
	call	*%rax
.LEHE3:
	movdqu	16(%r12), %xmm3
	movups	%xmm3, 192(%rbp)
.L94:
	leaq	208(%rbp), %rdi
	movq	%r13, %rsi
.LEHB4:
	call	_ZN8opendnp310CommandSetC1EOS0_@PLT
.LEHE4:
	movq	40(%rsp), %rax
	xorq	%fs:40, %rax
	jne	.L133
	addq	$56, %rsp
	.cfi_remember_state
	.cfi_def_cfa_offset 56
	popq	%rbx
	.cfi_def_cfa_offset 48
	popq	%rbp
	.cfi_def_cfa_offset 40
	popq	%r12
	.cfi_def_cfa_offset 32
	popq	%r13
	.cfi_def_cfa_offset 24
	popq	%r14
	.cfi_def_cfa_offset 16
	popq	%r15
	.cfi_def_cfa_offset 8
	ret
	.p2align 4,,10
	.p2align 3
.L76:
	.cfi_restore_state
	addl	$1, 8(%rax)
	jmp	.L75
	.p2align 4,,10
	.p2align 3
.L78:
	addl	$1, 8(%rax)
	jmp	.L77
	.p2align 4,,10
	.p2align 3
.L81:
	movl	8(%r14), %eax
	leal	-1(%rax), %edx
	movl	%edx, 8(%r14)
	cmpl	$1, %eax
	jne	.L80
.L131:
	movq	(%r14), %rax
	movq	%r14, %rdi
	call	*16(%rax)
	testq	%rbx, %rbx
	je	.L84
	movl	$-1, %eax
	lock xaddl	%eax, 12(%r14)
.L85:
	cmpl	$1, %eax
	jne	.L80
	movq	(%r14), %rax
	movq	%r14, %rdi
	call	*24(%rax)
	jmp	.L80
	.p2align 4,,10
	.p2align 3
.L88:
	movl	8(%r14), %eax
	leal	-1(%rax), %edx
	movl	%edx, 8(%r14)
	cmpl	$1, %eax
	jne	.L87
.L132:
	movq	(%r14), %rax
	movq	%r14, %rdi
	call	*16(%rax)
	testq	%rbx, %rbx
	je	.L91
	movl	$-1, %eax
	lock xaddl	%eax, 12(%r14)
.L92:
	cmpl	$1, %eax
	jne	.L87
	movq	(%r14), %rax
	movq	%r14, %rdi
	call	*24(%rax)
	jmp	.L87
	.p2align 4,,10
	.p2align 3
.L91:
	movl	12(%r14), %eax
	leal	-1(%rax), %edx
	movl	%edx, 12(%r14)
	jmp	.L92
	.p2align 4,,10
	.p2align 3
.L84:
	movl	12(%r14), %eax
	leal	-1(%rax), %edx
	movl	%edx, 12(%r14)
	jmp	.L85
.L133:
	call	__stack_chk_fail@PLT
.L115:
	endbr64
	movq	%rax, %rdi
	jmp	.L95
.L111:
	endbr64
	movq	%rax, %r12
	jmp	.L98
.L116:
	endbr64
	movq	%rax, %r12
	jmp	.L100
.L112:
	endbr64
	movq	%rax, %r12
	jmp	.L104
.L110:
	endbr64
	movq	%rax, %rbp
	jmp	.L103
	.section	.gcc_except_table,"a",@progbits
	.align 4
.LLSDA3132:
	.byte	0xff
	.byte	0x9b
	.uleb128 .LLSDATT3132-.LLSDATTD3132
.LLSDATTD3132:
	.byte	0x1
	.uleb128 .LLSDACSE3132-.LLSDACSB3132
.LLSDACSB3132:
	.uleb128 .LEHB0-.LFB3132
	.uleb128 .LEHE0-.LEHB0
	.uleb128 .L110-.LFB3132
	.uleb128 0
	.uleb128 .LEHB1-.LFB3132
	.uleb128 .LEHE1-.LEHB1
	.uleb128 .L111-.LFB3132
	.uleb128 0
	.uleb128 .LEHB2-.LFB3132
	.uleb128 .LEHE2-.LEHB2
	.uleb128 .L115-.LFB3132
	.uleb128 0x1
	.uleb128 .LEHB3-.LFB3132
	.uleb128 .LEHE3-.LEHB3
	.uleb128 .L116-.LFB3132
	.uleb128 0
	.uleb128 .LEHB4-.LFB3132
	.uleb128 .LEHE4-.LEHB4
	.uleb128 .L112-.LFB3132
	.uleb128 0
.LLSDACSE3132:
	.byte	0x1
	.byte	0
	.align 4
	.long	0

.LLSDATT3132:
	.text
	.cfi_endproc
	.section	.text.unlikely
	.cfi_startproc
	.cfi_personality 0x9b,DW.ref.__gxx_personality_v0
	.cfi_lsda 0x1b,.LLSDAC3132
	.type	_ZN8opendnp311CommandTaskC2EONS_10CommandSetERNS_18IMasterApplicationERKSt8functionIFvRKNS_18ICommandTaskResultEEERKNS_10TaskConfigEN7openpal6LoggerE.cold, @function
_ZN8opendnp311CommandTaskC2EONS_10CommandSetERNS_18IMasterApplicationERKSt8functionIFvRKNS_18ICommandTaskResultEEERKNS_10TaskConfigEN7openpal6LoggerE.cold:
.LFSB3132:
.L95:
	.cfi_def_cfa_offset 112
	.cfi_offset 3, -56
	.cfi_offset 6, -48
	.cfi_offset 12, -40
	.cfi_offset 13, -32
	.cfi_offset 14, -24
	.cfi_offset 15, -16
	call	__cxa_begin_catch@PLT
.LEHB5:
	call	__cxa_rethrow@PLT
.LEHE5:
.L113:
	endbr64
	movq	%rax, %r12
	call	__cxa_end_catch@PLT
.L98:
	movq	%rbp, %rdi
	call	_ZN8opendnp311IMasterTaskD2Ev@PLT
	movq	%r12, %rdi
.LEHB6:
	call	_Unwind_Resume@PLT
.LEHE6:
.L100:
	movq	192(%rbp), %rax
	testq	%rax, %rax
	je	.L102
	movl	$3, %edx
	movq	%r14, %rsi
	movq	%r14, %rdi
	call	*%rax
.L102:
	cmpq	$0, 88(%rbp)
	je	.L98
	movq	160(%rbp), %rax
	movq	128(%rbp), %rbx
	leaq	8(%rax), %r13
.L108:
	cmpq	%rbx, %r13
	ja	.L134
	movq	88(%rbp), %rdi
	call	_ZdlPv@PLT
	jmp	.L98
.L103:
	movq	%r15, %rdi
	call	_ZN7openpal6LoggerD1Ev@PLT
	movq	%rbp, %rdi
.LEHB7:
	call	_Unwind_Resume@PLT
.LEHE7:
.L104:
	movq	192(%rbp), %rax
	testq	%rax, %rax
	je	.L102
	movl	$3, %edx
	movq	%r14, %rsi
	movq	%r14, %rdi
	call	*%rax
	jmp	.L102
.L114:
	endbr64
	movq	%rax, %r12
	call	__cxa_end_catch@PLT
	movq	%r12, %rdi
	call	__cxa_begin_catch@PLT
	movq	88(%rbp), %rdi
	call	_ZdlPv@PLT
	movq	$0, 88(%rbp)
	movq	$0, 96(%rbp)
.LEHB8:
	call	__cxa_rethrow@PLT
.LEHE8:
.L134:
	movq	(%rbx), %rdi
	addq	$8, %rbx
	call	_ZdlPv@PLT
	jmp	.L108
	.cfi_endproc
.LFE3132:
	.section	.gcc_except_table
	.align 4
.LLSDAC3132:
	.byte	0xff
	.byte	0x9b
	.uleb128 .LLSDATTC3132-.LLSDATTDC3132
.LLSDATTDC3132:
	.byte	0x1
	.uleb128 .LLSDACSEC3132-.LLSDACSBC3132
.LLSDACSBC3132:
	.uleb128 .LEHB5-.LCOLDB1
	.uleb128 .LEHE5-.LEHB5
	.uleb128 .L114-.LCOLDB1
	.uleb128 0x1
	.uleb128 .LEHB6-.LCOLDB1
	.uleb128 .LEHE6-.LEHB6
	.uleb128 0
	.uleb128 0
	.uleb128 .LEHB7-.LCOLDB1
	.uleb128 .LEHE7-.LEHB7
	.uleb128 0
	.uleb128 0
	.uleb128 .LEHB8-.LCOLDB1
	.uleb128 .LEHE8-.LEHB8
	.uleb128 .L113-.LCOLDB1
	.uleb128 0
.LLSDACSEC3132:
	.byte	0x1
	.byte	0
	.align 4
	.long	0

.LLSDATTC3132:
	.section	.text.unlikely
	.text
	.size	_ZN8opendnp311CommandTaskC2EONS_10CommandSetERNS_18IMasterApplicationERKSt8functionIFvRKNS_18ICommandTaskResultEEERKNS_10TaskConfigEN7openpal6LoggerE, .-_ZN8opendnp311CommandTaskC2EONS_10CommandSetERNS_18IMasterApplicationERKSt8functionIFvRKNS_18ICommandTaskResultEEERKNS_10TaskConfigEN7openpal6LoggerE
	.section	.text.unlikely
	.size	_ZN8opendnp311CommandTaskC2EONS_10CommandSetERNS_18IMasterApplicationERKSt8functionIFvRKNS_18ICommandTaskResultEEERKNS_10TaskConfigEN7openpal6LoggerE.cold, .-_ZN8opendnp311CommandTaskC2EONS_10CommandSetERNS_18IMasterApplicationERKSt8functionIFvRKNS_18ICommandTaskResultEEERKNS_10TaskConfigEN7openpal6LoggerE.cold
.LCOLDE1:
	.text
.LHOTE1:
	.globl	_ZN8opendnp311CommandTaskC1EONS_10CommandSetERNS_18IMasterApplicationERKSt8functionIFvRKNS_18ICommandTaskResultEEERKNS_10TaskConfigEN7openpal6LoggerE
	.set	_ZN8opendnp311CommandTaskC1EONS_10CommandSetERNS_18IMasterApplicationERKSt8functionIFvRKNS_18ICommandTaskResultEEERKNS_10TaskConfigEN7openpal6LoggerE,_ZN8opendnp311CommandTaskC2EONS_10CommandSetERNS_18IMasterApplicationERKSt8functionIFvRKNS_18ICommandTaskResultEEERKNS_10TaskConfigEN7openpal6LoggerE
	.align 2
	.p2align 4
	.globl	_ZN8opendnp311CommandTask15ProcessResponseERKN7openpal6RSliceE
	.type	_ZN8opendnp311CommandTask15ProcessResponseERKN7openpal6RSliceE, @function
_ZN8opendnp311CommandTask15ProcessResponseERKN7openpal6RSliceE:
.LFB3140:
	.cfi_startproc
	endbr64
	subq	$8, %rsp
	.cfi_def_cfa_offset 16
	leaq	208(%rdi), %r8
	movq	104(%rdi), %rax
	leaq	16(%rdi), %rdx
	cmpq	%rax, 136(%rdi)
	movq	%r8, %rdi
	je	.L142
	call	_ZN8opendnp313CommandSetOps21ProcessSelectResponseERNS_10CommandSetERKN7openpal6RSliceEPNS3_6LoggerE@PLT
	testb	%al, %al
	je	.L139
	cmpb	$2, %al
	movl	$0, %edx
	cmovne	%edx, %eax
	addq	$8, %rsp
	.cfi_remember_state
	.cfi_def_cfa_offset 8
	ret
	.p2align 4,,10
	.p2align 3
.L139:
	.cfi_restore_state
	movl	$3, %eax
	addq	$8, %rsp
	.cfi_remember_state
	.cfi_def_cfa_offset 8
	ret
	.p2align 4,,10
	.p2align 3
.L142:
	.cfi_restore_state
	call	_ZN8opendnp313CommandSetOps22ProcessOperateResponseERNS_10CommandSetERKN7openpal6RSliceEPNS3_6LoggerE@PLT
	cmpb	$1, %al
	setne	%al
	addq	$8, %rsp
	.cfi_def_cfa_offset 8
	addl	%eax, %eax
	ret
	.cfi_endproc
.LFE3140:
	.size	_ZN8opendnp311CommandTask15ProcessResponseERKN7openpal6RSliceE, .-_ZN8opendnp311CommandTask15ProcessResponseERKN7openpal6RSliceE
	.align 2
	.p2align 4
	.globl	_ZN8opendnp311CommandTask15ProcessResponseERKNS_18APDUResponseHeaderERKN7openpal6RSliceE
	.type	_ZN8opendnp311CommandTask15ProcessResponseERKNS_18APDUResponseHeaderERKN7openpal6RSliceE, @function
_ZN8opendnp311CommandTask15ProcessResponseERKNS_18APDUResponseHeaderERKN7openpal6RSliceE:
.LFB3137:
	.cfi_startproc
	endbr64
	pushq	%r12
	.cfi_def_cfa_offset 16
	.cfi_offset 12, -16
	movq	%rdx, %r12
	pushq	%rbp
	.cfi_def_cfa_offset 24
	.cfi_offset 6, -24
	movq	%rdi, %rbp
	subq	$8, %rsp
	.cfi_def_cfa_offset 32
	call	_ZN8opendnp311IMasterTask22ValidateSingleResponseERKNS_18APDUResponseHeaderE@PLT
	testb	%al, %al
	jne	.L146
	addq	$8, %rsp
	.cfi_remember_state
	.cfi_def_cfa_offset 24
	xorl	%eax, %eax
	popq	%rbp
	.cfi_def_cfa_offset 16
	popq	%r12
	.cfi_def_cfa_offset 8
	ret
	.p2align 4,,10
	.p2align 3
.L146:
	.cfi_restore_state
	addq	$8, %rsp
	.cfi_def_cfa_offset 24
	movq	%r12, %rsi
	movq	%rbp, %rdi
	popq	%rbp
	.cfi_def_cfa_offset 16
	popq	%r12
	.cfi_def_cfa_offset 8
	jmp	_ZN8opendnp311CommandTask15ProcessResponseERKN7openpal6RSliceE@PLT
	.cfi_endproc
.LFE3137:
	.size	_ZN8opendnp311CommandTask15ProcessResponseERKNS_18APDUResponseHeaderERKN7openpal6RSliceE, .-_ZN8opendnp311CommandTask15ProcessResponseERKNS_18APDUResponseHeaderERKN7openpal6RSliceE
	.section	.text._ZNSt16_Sp_counted_baseILN9__gnu_cxx12_Lock_policyE2EE10_M_releaseEv,"axG",@progbits,_ZNSt16_Sp_counted_baseILN9__gnu_cxx12_Lock_policyE2EE10_M_releaseEv,comdat
	.align 2
	.p2align 4
	.weak	_ZNSt16_Sp_counted_baseILN9__gnu_cxx12_Lock_policyE2EE10_M_releaseEv
	.type	_ZNSt16_Sp_counted_baseILN9__gnu_cxx12_Lock_policyE2EE10_M_releaseEv, @function
_ZNSt16_Sp_counted_baseILN9__gnu_cxx12_Lock_policyE2EE10_M_releaseEv:
.LFB3581:
	.cfi_startproc
	endbr64
	pushq	%rbp
	.cfi_def_cfa_offset 16
	.cfi_offset 6, -16
	movq	%rdi, %rbp
	pushq	%rbx
	.cfi_def_cfa_offset 24
	.cfi_offset 3, -24
	subq	$8, %rsp
	.cfi_def_cfa_offset 32
	movq	_ZL28__gthrw___pthread_key_createPjPFvPvE@GOTPCREL(%rip), %rbx
	testq	%rbx, %rbx
	je	.L148
	movl	$-1, %eax
	lock xaddl	%eax, 8(%rdi)
	cmpl	$1, %eax
	je	.L156
.L147:
	addq	$8, %rsp
	.cfi_remember_state
	.cfi_def_cfa_offset 24
	popq	%rbx
	.cfi_def_cfa_offset 16
	popq	%rbp
	.cfi_def_cfa_offset 8
	ret
	.p2align 4,,10
	.p2align 3
.L148:
	.cfi_restore_state
	movl	8(%rdi), %eax
	leal	-1(%rax), %edx
	movl	%edx, 8(%rdi)
	cmpl	$1, %eax
	jne	.L147
.L156:
	movq	0(%rbp), %rax
	movq	%rbp, %rdi
	call	*16(%rax)
	testq	%rbx, %rbx
	je	.L152
	movl	$-1, %eax
	lock xaddl	%eax, 12(%rbp)
.L153:
	cmpl	$1, %eax
	jne	.L147
	movq	0(%rbp), %rax
	movq	%rbp, %rdi
	movq	24(%rax), %rax
	addq	$8, %rsp
	.cfi_remember_state
	.cfi_def_cfa_offset 24
	popq	%rbx
	.cfi_def_cfa_offset 16
	popq	%rbp
	.cfi_def_cfa_offset 8
	jmp	*%rax
	.p2align 4,,10
	.p2align 3
.L152:
	.cfi_restore_state
	movl	12(%rbp), %eax
	leal	-1(%rax), %edx
	movl	%edx, 12(%rbp)
	jmp	.L153
	.cfi_endproc
.LFE3581:
	.size	_ZNSt16_Sp_counted_baseILN9__gnu_cxx12_Lock_policyE2EE10_M_releaseEv, .-_ZNSt16_Sp_counted_baseILN9__gnu_cxx12_Lock_policyE2EE10_M_releaseEv
	.section	.rodata._ZNSt5dequeIN8opendnp312FunctionCodeESaIS1_EE16_M_push_back_auxIJS1_EEEvDpOT_.str1.8,"aMS",@progbits,1
	.align 8
.LC2:
	.string	"cannot create std::deque larger than max_size()"
	.section	.text._ZNSt5dequeIN8opendnp312FunctionCodeESaIS1_EE16_M_push_back_auxIJS1_EEEvDpOT_,"axG",@progbits,_ZNSt5dequeIN8opendnp312FunctionCodeESaIS1_EE16_M_push_back_auxIJS1_EEEvDpOT_,comdat
	.align 2
	.p2align 4
	.weak	_ZNSt5dequeIN8opendnp312FunctionCodeESaIS1_EE16_M_push_back_auxIJS1_EEEvDpOT_
	.type	_ZNSt5dequeIN8opendnp312FunctionCodeESaIS1_EE16_M_push_back_auxIJS1_EEEvDpOT_, @function
_ZNSt5dequeIN8opendnp312FunctionCodeESaIS1_EE16_M_push_back_auxIJS1_EEEvDpOT_:
.LFB3741:
	.cfi_startproc
	endbr64
	pushq	%r15
	.cfi_def_cfa_offset 16
	.cfi_offset 15, -16
	pushq	%r14
	.cfi_def_cfa_offset 24
	.cfi_offset 14, -24
	pushq	%r13
	.cfi_def_cfa_offset 32
	.cfi_offset 13, -32
	pushq	%r12
	.cfi_def_cfa_offset 40
	.cfi_offset 12, -40
	pushq	%rbp
	.cfi_def_cfa_offset 48
	.cfi_offset 6, -48
	movq	%rsi, %rbp
	pushq	%rbx
	.cfi_def_cfa_offset 56
	.cfi_offset 3, -56
	movq	%rdi, %rbx
	subq	$8, %rsp
	.cfi_def_cfa_offset 64
	movq	72(%rdi), %r12
	movq	40(%rdi), %rsi
	movq	48(%rbx), %rdx
	movq	%r12, %r13
	subq	%rsi, %r13
	movq	%rdx, %rcx
	subq	56(%rbx), %rcx
	movq	%r13, %rdi
	sarq	$3, %rdi
	leaq	-1(%rdi), %rax
	salq	$9, %rax
	leaq	(%rcx,%rax), %rdx
	movq	32(%rbx), %rax
	subq	16(%rbx), %rax
	addq	%rdx, %rax
	movabsq	$9223372036854775807, %rdx
	cmpq	%rdx, %rax
	je	.L166
	movq	(%rbx), %rcx
	movq	8(%rbx), %rdx
	movq	%r12, %rax
	subq	%rcx, %rax
	movq	%rdx, %r8
	sarq	$3, %rax
	subq	%rax, %r8
	cmpq	$1, %r8
	jbe	.L167
.L159:
	movl	$512, %edi
	call	_Znwm@PLT
	movzbl	0(%rbp), %edx
	movq	%rax, 8(%r12)
	movq	48(%rbx), %rax
	movb	%dl, (%rax)
	movq	72(%rbx), %rdx
	movq	8(%rdx), %rax
	addq	$8, %rdx
	movq	%rdx, %xmm1
	movq	%rax, %xmm0
	addq	$512, %rax
	punpcklqdq	%xmm0, %xmm0
	movups	%xmm0, 48(%rbx)
	movq	%rax, %xmm0
	punpcklqdq	%xmm1, %xmm0
	movups	%xmm0, 64(%rbx)
	addq	$8, %rsp
	.cfi_remember_state
	.cfi_def_cfa_offset 56
	popq	%rbx
	.cfi_def_cfa_offset 48
	popq	%rbp
	.cfi_def_cfa_offset 40
	popq	%r12
	.cfi_def_cfa_offset 32
	popq	%r13
	.cfi_def_cfa_offset 24
	popq	%r14
	.cfi_def_cfa_offset 16
	popq	%r15
	.cfi_def_cfa_offset 8
	ret
	.p2align 4,,10
	.p2align 3
.L167:
	.cfi_restore_state
	leaq	2(%rdi), %r14
	leaq	(%r14,%r14), %rax
	cmpq	%rax, %rdx
	ja	.L168
	testq	%rdx, %rdx
	movl	$1, %eax
	cmovne	%rdx, %rax
	leaq	2(%rdx,%rax), %r12
	movabsq	$1152921504606846975, %rax
	cmpq	%rax, %r12
	ja	.L169
	leaq	0(,%r12,8), %rdi
	call	_Znwm@PLT
	movq	40(%rbx), %rsi
	movq	%rax, %r15
	movq	%r12, %rax
	subq	%r14, %rax
	shrq	%rax
	leaq	(%r15,%rax,8), %r14
	movq	72(%rbx), %rax
	leaq	8(%rax), %rdx
	cmpq	%rsi, %rdx
	je	.L164
	subq	%rsi, %rdx
	movq	%r14, %rdi
	call	memmove@PLT
.L164:
	movq	(%rbx), %rdi
	call	_ZdlPv@PLT
	movq	%r15, (%rbx)
	movq	%r12, 8(%rbx)
.L162:
	movq	(%r14), %rax
	movq	(%r14), %xmm0
	leaq	(%r14,%r13), %r12
	movq	%r14, 40(%rbx)
	movq	%r12, 72(%rbx)
	addq	$512, %rax
	movq	%rax, %xmm2
	punpcklqdq	%xmm2, %xmm0
	movups	%xmm0, 24(%rbx)
	movq	(%r12), %rax
	movq	%rax, 56(%rbx)
	addq	$512, %rax
	movq	%rax, 64(%rbx)
	jmp	.L159
	.p2align 4,,10
	.p2align 3
.L168:
	subq	%r14, %rdx
	addq	$8, %r12
	shrq	%rdx
	leaq	(%rcx,%rdx,8), %r14
	movq	%r12, %rdx
	subq	%rsi, %rdx
	cmpq	%r14, %rsi
	jbe	.L161
	cmpq	%r12, %rsi
	je	.L162
	movq	%r14, %rdi
	call	memmove@PLT
	jmp	.L162
	.p2align 4,,10
	.p2align 3
.L161:
	cmpq	%r12, %rsi
	je	.L162
	leaq	8(%r13), %rdi
	subq	%rdx, %rdi
	addq	%r14, %rdi
	call	memmove@PLT
	jmp	.L162
.L166:
	leaq	.LC2(%rip), %rdi
	call	_ZSt20__throw_length_errorPKc@PLT
.L169:
	call	_ZSt17__throw_bad_allocv@PLT
	.cfi_endproc
.LFE3741:
	.size	_ZNSt5dequeIN8opendnp312FunctionCodeESaIS1_EE16_M_push_back_auxIJS1_EEEvDpOT_, .-_ZNSt5dequeIN8opendnp312FunctionCodeESaIS1_EE16_M_push_back_auxIJS1_EEEvDpOT_
	.text
	.align 2
	.p2align 4
	.globl	_ZN8opendnp311CommandTask20LoadSelectAndOperateEv
	.type	_ZN8opendnp311CommandTask20LoadSelectAndOperateEv, @function
_ZN8opendnp311CommandTask20LoadSelectAndOperateEv:
.LFB3134:
	.cfi_startproc
	endbr64
	pushq	%r15
	.cfi_def_cfa_offset 16
	.cfi_offset 15, -16
	pushq	%r14
	.cfi_def_cfa_offset 24
	.cfi_offset 14, -24
	pushq	%r13
	.cfi_def_cfa_offset 32
	.cfi_offset 13, -32
	leaq	88(%rdi), %r13
	pushq	%r12
	.cfi_def_cfa_offset 40
	.cfi_offset 12, -40
	pushq	%rbp
	.cfi_def_cfa_offset 48
	.cfi_offset 6, -48
	pushq	%rbx
	.cfi_def_cfa_offset 56
	.cfi_offset 3, -56
	movq	%rdi, %rbx
	subq	$40, %rsp
	.cfi_def_cfa_offset 96
	movq	160(%rdi), %rdx
	movq	104(%rdi), %rbp
	movq	%fs:40, %rax
	movq	%rax, 24(%rsp)
	xorl	%eax, %eax
	movq	112(%rdi), %rax
	movq	120(%rdi), %r12
	leaq	8(%rdx), %r14
	movq	%rax, (%rsp)
	movq	128(%rdi), %rax
	leaq	8(%rax), %r15
	movq	%rax, 8(%rsp)
	cmpq	%r15, %r14
	jbe	.L174
	.p2align 4,,10
	.p2align 3
.L171:
	movq	(%r15), %rdi
	addq	$8, %r15
	call	_ZdlPv@PLT
	cmpq	%r15, %r14
	ja	.L171
.L174:
	movq	%rbp, %xmm0
	leaq	-1(%r12), %rax
	movb	$3, 23(%rsp)
	movhps	(%rsp), %xmm0
	movups	%xmm0, 136(%rbx)
	movq	%r12, %xmm0
	movhps	8(%rsp), %xmm0
	movups	%xmm0, 152(%rbx)
	cmpq	%rbp, %rax
	je	.L182
	movb	$3, 0(%rbp)
	addq	$1, %rbp
	movq	%rbp, 136(%rbx)
	movb	$4, 23(%rsp)
	cmpq	%rbp, %rax
	je	.L176
.L184:
	movb	$4, 0(%rbp)
	addq	$1, %rbp
	movq	%rbp, 136(%rbx)
.L170:
	movq	24(%rsp), %rax
	xorq	%fs:40, %rax
	jne	.L183
	addq	$40, %rsp
	.cfi_remember_state
	.cfi_def_cfa_offset 56
	popq	%rbx
	.cfi_def_cfa_offset 48
	popq	%rbp
	.cfi_def_cfa_offset 40
	popq	%r12
	.cfi_def_cfa_offset 32
	popq	%r13
	.cfi_def_cfa_offset 24
	popq	%r14
	.cfi_def_cfa_offset 16
	popq	%r15
	.cfi_def_cfa_offset 8
	ret
	.p2align 4,,10
	.p2align 3
.L182:
	.cfi_restore_state
	leaq	23(%rsp), %rsi
	movq	%r13, %rdi
	call	_ZNSt5dequeIN8opendnp312FunctionCodeESaIS1_EE16_M_push_back_auxIJS1_EEEvDpOT_@PLT
	movq	152(%rbx), %rax
	movb	$4, 23(%rsp)
	movq	136(%rbx), %rbp
	subq	$1, %rax
	cmpq	%rbp, %rax
	jne	.L184
	.p2align 4,,10
	.p2align 3
.L176:
	leaq	23(%rsp), %rsi
	movq	%r13, %rdi
	call	_ZNSt5dequeIN8opendnp312FunctionCodeESaIS1_EE16_M_push_back_auxIJS1_EEEvDpOT_@PLT
	jmp	.L170
.L183:
	call	__stack_chk_fail@PLT
	.cfi_endproc
.LFE3134:
	.size	_ZN8opendnp311CommandTask20LoadSelectAndOperateEv, .-_ZN8opendnp311CommandTask20LoadSelectAndOperateEv
	.section	.text.unlikely
	.align 2
.LCOLDB3:
	.text
.LHOTB3:
	.align 2
	.p2align 4
	.globl	_ZN8opendnp311CommandTask22CreateSelectAndOperateEONS_10CommandSetERNS_18IMasterApplicationERKSt8functionIFvRKNS_18ICommandTaskResultEEERKNS_10TaskConfigEN7openpal6LoggerE
	.type	_ZN8opendnp311CommandTask22CreateSelectAndOperateEONS_10CommandSetERNS_18IMasterApplicationERKSt8functionIFvRKNS_18ICommandTaskResultEEERKNS_10TaskConfigEN7openpal6LoggerE, @function
_ZN8opendnp311CommandTask22CreateSelectAndOperateEONS_10CommandSetERNS_18IMasterApplicationERKSt8functionIFvRKNS_18ICommandTaskResultEEERKNS_10TaskConfigEN7openpal6LoggerE:
.LFB3127:
	.cfi_startproc
	.cfi_personality 0x9b,DW.ref.__gxx_personality_v0
	.cfi_lsda 0x1b,.LLSDA3127
	endbr64
	pushq	%r15
	.cfi_def_cfa_offset 16
	.cfi_offset 15, -16
	movq	%rdx, %r15
	pushq	%r14
	.cfi_def_cfa_offset 24
	.cfi_offset 14, -24
	movq	%rsi, %r14
	pushq	%r13
	.cfi_def_cfa_offset 32
	.cfi_offset 13, -32
	movq	%rdi, %r13
	movl	$248, %edi
	pushq	%r12
	.cfi_def_cfa_offset 40
	.cfi_offset 12, -40
	pushq	%rbp
	.cfi_def_cfa_offset 48
	.cfi_offset 6, -48
	pushq	%rbx
	.cfi_def_cfa_offset 56
	.cfi_offset 3, -56
	movq	%r9, %rbx
	subq	$72, %rsp
	.cfi_def_cfa_offset 128
	movq	%rcx, 8(%rsp)
	movq	%r8, (%rsp)
	movq	%fs:40, %rax
	movq	%rax, 56(%rsp)
	xorl	%eax, %eax
.LEHB9:
	call	_Znwm@PLT
.LEHE9:
	movdqu	(%rbx), %xmm1
	movq	(%rsp), %r8
	movq	%rax, %rbp
	movq	8(%rsp), %rcx
	movabsq	$4294967297, %rax
	movq	%rax, 8(%rbp)
	movq	_ZTVSt23_Sp_counted_ptr_inplaceIN8opendnp311CommandTaskESaIS1_ELN9__gnu_cxx12_Lock_policyE2EE@GOTPCREL(%rip), %rax
	leaq	16(%rbp), %r12
	movaps	%xmm1, 16(%rsp)
	addq	$16, %rax
	movq	%rax, 0(%rbp)
	movq	8(%rbx), %rax
	testq	%rax, %rax
	je	.L186
	cmpq	$0, _ZL28__gthrw___pthread_key_createPjPFvPvE@GOTPCREL(%rip)
	je	.L187
	lock addl	$1, 8(%rax)
.L186:
	movdqu	16(%rbx), %xmm2
	movq	24(%rbx), %rax
	movaps	%xmm2, 32(%rsp)
	testq	%rax, %rax
	je	.L188
	cmpq	$0, _ZL28__gthrw___pthread_key_createPjPFvPvE@GOTPCREL(%rip)
	je	.L189
	lock addl	$1, 8(%rax)
.L188:
	leaq	16(%rsp), %rbx
	movq	%r15, %rdx
	movq	%r14, %rsi
	movq	%r12, %rdi
	movq	%rbx, %r9
.LEHB10:
	call	_ZN8opendnp311CommandTaskC1EONS_10CommandSetERNS_18IMasterApplicationERKSt8functionIFvRKNS_18ICommandTaskResultEEERKNS_10TaskConfigEN7openpal6LoggerE@PLT
.LEHE10:
	movq	40(%rsp), %r14
	testq	%r14, %r14
	je	.L191
	movq	_ZL28__gthrw___pthread_key_createPjPFvPvE@GOTPCREL(%rip), %rbx
	testq	%rbx, %rbx
	je	.L192
	movl	$-1, %eax
	lock xaddl	%eax, 8(%r14)
	cmpl	$1, %eax
	je	.L219
	.p2align 4,,10
	.p2align 3
.L191:
	movq	24(%rsp), %r14
	testq	%r14, %r14
	je	.L198
	movq	_ZL28__gthrw___pthread_key_createPjPFvPvE@GOTPCREL(%rip), %rbx
	testq	%rbx, %rbx
	je	.L199
	movl	$-1, %eax
	lock xaddl	%eax, 8(%r14)
	cmpl	$1, %eax
	je	.L220
	.p2align 4,,10
	.p2align 3
.L198:
	movq	%r12, %rdi
.LEHB11:
	call	_ZN8opendnp311CommandTask20LoadSelectAndOperateEv@PLT
.LEHE11:
	movq	%r12, %xmm0
	movq	%rbp, %xmm3
	punpcklqdq	%xmm3, %xmm0
	movups	%xmm0, 0(%r13)
	movq	56(%rsp), %rax
	xorq	%fs:40, %rax
	jne	.L221
	addq	$72, %rsp
	.cfi_remember_state
	.cfi_def_cfa_offset 56
	movq	%r13, %rax
	popq	%rbx
	.cfi_def_cfa_offset 48
	popq	%rbp
	.cfi_def_cfa_offset 40
	popq	%r12
	.cfi_def_cfa_offset 32
	popq	%r13
	.cfi_def_cfa_offset 24
	popq	%r14
	.cfi_def_cfa_offset 16
	popq	%r15
	.cfi_def_cfa_offset 8
	ret
	.p2align 4,,10
	.p2align 3
.L187:
	.cfi_restore_state
	addl	$1, 8(%rax)
	jmp	.L186
	.p2align 4,,10
	.p2align 3
.L189:
	addl	$1, 8(%rax)
	jmp	.L188
	.p2align 4,,10
	.p2align 3
.L199:
	movl	8(%r14), %eax
	leal	-1(%rax), %edx
	movl	%edx, 8(%r14)
	cmpl	$1, %eax
	jne	.L198
.L220:
	movq	(%r14), %rax
	movq	%r14, %rdi
	call	*16(%rax)
	testq	%rbx, %rbx
	je	.L202
	movl	$-1, %eax
	lock xaddl	%eax, 12(%r14)
.L203:
	cmpl	$1, %eax
	jne	.L198
	movq	(%r14), %rax
	movq	%r14, %rdi
	call	*24(%rax)
	jmp	.L198
	.p2align 4,,10
	.p2align 3
.L192:
	movl	8(%r14), %eax
	leal	-1(%rax), %edx
	movl	%edx, 8(%r14)
	cmpl	$1, %eax
	jne	.L191
.L219:
	movq	(%r14), %rax
	movq	%r14, %rdi
	call	*16(%rax)
	testq	%rbx, %rbx
	je	.L195
	movl	$-1, %eax
	lock xaddl	%eax, 12(%r14)
.L196:
	cmpl	$1, %eax
	jne	.L191
	movq	(%r14), %rax
	movq	%r14, %rdi
	call	*24(%rax)
	jmp	.L191
	.p2align 4,,10
	.p2align 3
.L202:
	movl	12(%r14), %eax
	leal	-1(%rax), %edx
	movl	%edx, 12(%r14)
	jmp	.L203
	.p2align 4,,10
	.p2align 3
.L195:
	movl	12(%r14), %eax
	leal	-1(%rax), %edx
	movl	%edx, 12(%r14)
	jmp	.L196
.L221:
	call	__stack_chk_fail@PLT
.L209:
	endbr64
	movq	%rax, %r12
	jmp	.L205
.L208:
	endbr64
	movq	%rax, %r12
	jmp	.L206
	.section	.gcc_except_table
.LLSDA3127:
	.byte	0xff
	.byte	0xff
	.byte	0x1
	.uleb128 .LLSDACSE3127-.LLSDACSB3127
.LLSDACSB3127:
	.uleb128 .LEHB9-.LFB3127
	.uleb128 .LEHE9-.LEHB9
	.uleb128 0
	.uleb128 0
	.uleb128 .LEHB10-.LFB3127
	.uleb128 .LEHE10-.LEHB10
	.uleb128 .L209-.LFB3127
	.uleb128 0
	.uleb128 .LEHB11-.LFB3127
	.uleb128 .LEHE11-.LEHB11
	.uleb128 .L208-.LFB3127
	.uleb128 0
.LLSDACSE3127:
	.text
	.cfi_endproc
	.section	.text.unlikely
	.cfi_startproc
	.cfi_personality 0x9b,DW.ref.__gxx_personality_v0
	.cfi_lsda 0x1b,.LLSDAC3127
	.type	_ZN8opendnp311CommandTask22CreateSelectAndOperateEONS_10CommandSetERNS_18IMasterApplicationERKSt8functionIFvRKNS_18ICommandTaskResultEEERKNS_10TaskConfigEN7openpal6LoggerE.cold, @function
_ZN8opendnp311CommandTask22CreateSelectAndOperateEONS_10CommandSetERNS_18IMasterApplicationERKSt8functionIFvRKNS_18ICommandTaskResultEEERKNS_10TaskConfigEN7openpal6LoggerE.cold:
.LFSB3127:
.L205:
	.cfi_def_cfa_offset 128
	.cfi_offset 3, -56
	.cfi_offset 6, -48
	.cfi_offset 12, -40
	.cfi_offset 13, -32
	.cfi_offset 14, -24
	.cfi_offset 15, -16
	movq	%rbx, %rdi
	call	_ZN7openpal6LoggerD1Ev@PLT
	movq	%rbp, %rdi
	call	_ZdlPv@PLT
	movq	%r12, %rdi
.LEHB12:
	call	_Unwind_Resume@PLT
.L206:
	movq	%rbp, %rdi
	call	_ZNSt16_Sp_counted_baseILN9__gnu_cxx12_Lock_policyE2EE10_M_releaseEv@PLT
	movq	%r12, %rdi
	call	_Unwind_Resume@PLT
.LEHE12:
	.cfi_endproc
.LFE3127:
	.section	.gcc_except_table
.LLSDAC3127:
	.byte	0xff
	.byte	0xff
	.byte	0x1
	.uleb128 .LLSDACSEC3127-.LLSDACSBC3127
.LLSDACSBC3127:
	.uleb128 .LEHB12-.LCOLDB3
	.uleb128 .LEHE12-.LEHB12
	.uleb128 0
	.uleb128 0
.LLSDACSEC3127:
	.section	.text.unlikely
	.text
	.size	_ZN8opendnp311CommandTask22CreateSelectAndOperateEONS_10CommandSetERNS_18IMasterApplicationERKSt8functionIFvRKNS_18ICommandTaskResultEEERKNS_10TaskConfigEN7openpal6LoggerE, .-_ZN8opendnp311CommandTask22CreateSelectAndOperateEONS_10CommandSetERNS_18IMasterApplicationERKSt8functionIFvRKNS_18ICommandTaskResultEEERKNS_10TaskConfigEN7openpal6LoggerE
	.section	.text.unlikely
	.size	_ZN8opendnp311CommandTask22CreateSelectAndOperateEONS_10CommandSetERNS_18IMasterApplicationERKSt8functionIFvRKNS_18ICommandTaskResultEEERKNS_10TaskConfigEN7openpal6LoggerE.cold, .-_ZN8opendnp311CommandTask22CreateSelectAndOperateEONS_10CommandSetERNS_18IMasterApplicationERKSt8functionIFvRKNS_18ICommandTaskResultEEERKNS_10TaskConfigEN7openpal6LoggerE.cold
.LCOLDE3:
	.text
.LHOTE3:
	.align 2
	.p2align 4
	.globl	_ZN8opendnp311CommandTask17LoadDirectOperateEv
	.type	_ZN8opendnp311CommandTask17LoadDirectOperateEv, @function
_ZN8opendnp311CommandTask17LoadDirectOperateEv:
.LFB3135:
	.cfi_startproc
	endbr64
	pushq	%r15
	.cfi_def_cfa_offset 16
	.cfi_offset 15, -16
	pushq	%r14
	.cfi_def_cfa_offset 24
	.cfi_offset 14, -24
	pushq	%r13
	.cfi_def_cfa_offset 32
	.cfi_offset 13, -32
	pushq	%r12
	.cfi_def_cfa_offset 40
	.cfi_offset 12, -40
	pushq	%rbp
	.cfi_def_cfa_offset 48
	.cfi_offset 6, -48
	pushq	%rbx
	.cfi_def_cfa_offset 56
	.cfi_offset 3, -56
	movq	%rdi, %rbx
	subq	$40, %rsp
	.cfi_def_cfa_offset 96
	movq	128(%rdi), %r14
	movq	104(%rdi), %rbp
	movq	%fs:40, %rax
	movq	%rax, 24(%rsp)
	xorl	%eax, %eax
	movq	112(%rdi), %rax
	movq	120(%rdi), %r13
	leaq	8(%r14), %r12
	movq	%rax, 8(%rsp)
	movq	160(%rdi), %rax
	leaq	8(%rax), %r15
	cmpq	%r12, %r15
	jbe	.L226
	.p2align 4,,10
	.p2align 3
.L223:
	movq	(%r12), %rdi
	addq	$8, %r12
	call	_ZdlPv@PLT
	cmpq	%r12, %r15
	ja	.L223
.L226:
	movq	%rbp, %xmm0
	movq	%r14, %xmm1
	movb	$5, 23(%rsp)
	movhps	8(%rsp), %xmm0
	movups	%xmm0, 136(%rbx)
	movq	%r13, %xmm0
	subq	$1, %r13
	punpcklqdq	%xmm1, %xmm0
	movups	%xmm0, 152(%rbx)
	cmpq	%r13, %rbp
	je	.L232
	movb	$5, 0(%rbp)
	addq	$1, %rbp
	movq	%rbp, 136(%rbx)
.L222:
	movq	24(%rsp), %rax
	xorq	%fs:40, %rax
	jne	.L233
	addq	$40, %rsp
	.cfi_remember_state
	.cfi_def_cfa_offset 56
	popq	%rbx
	.cfi_def_cfa_offset 48
	popq	%rbp
	.cfi_def_cfa_offset 40
	popq	%r12
	.cfi_def_cfa_offset 32
	popq	%r13
	.cfi_def_cfa_offset 24
	popq	%r14
	.cfi_def_cfa_offset 16
	popq	%r15
	.cfi_def_cfa_offset 8
	ret
	.p2align 4,,10
	.p2align 3
.L232:
	.cfi_restore_state
	leaq	23(%rsp), %rsi
	leaq	88(%rbx), %rdi
	call	_ZNSt5dequeIN8opendnp312FunctionCodeESaIS1_EE16_M_push_back_auxIJS1_EEEvDpOT_@PLT
	jmp	.L222
.L233:
	call	__stack_chk_fail@PLT
	.cfi_endproc
.LFE3135:
	.size	_ZN8opendnp311CommandTask17LoadDirectOperateEv, .-_ZN8opendnp311CommandTask17LoadDirectOperateEv
	.section	.text.unlikely
	.align 2
.LCOLDB4:
	.text
.LHOTB4:
	.align 2
	.p2align 4
	.globl	_ZN8opendnp311CommandTask19CreateDirectOperateEONS_10CommandSetERNS_18IMasterApplicationERKSt8functionIFvRKNS_18ICommandTaskResultEEERKNS_10TaskConfigEN7openpal6LoggerE
	.type	_ZN8opendnp311CommandTask19CreateDirectOperateEONS_10CommandSetERNS_18IMasterApplicationERKSt8functionIFvRKNS_18ICommandTaskResultEEERKNS_10TaskConfigEN7openpal6LoggerE, @function
_ZN8opendnp311CommandTask19CreateDirectOperateEONS_10CommandSetERNS_18IMasterApplicationERKSt8functionIFvRKNS_18ICommandTaskResultEEERKNS_10TaskConfigEN7openpal6LoggerE:
.LFB3113:
	.cfi_startproc
	.cfi_personality 0x9b,DW.ref.__gxx_personality_v0
	.cfi_lsda 0x1b,.LLSDA3113
	endbr64
	pushq	%r15
	.cfi_def_cfa_offset 16
	.cfi_offset 15, -16
	movq	%rdx, %r15
	pushq	%r14
	.cfi_def_cfa_offset 24
	.cfi_offset 14, -24
	movq	%rsi, %r14
	pushq	%r13
	.cfi_def_cfa_offset 32
	.cfi_offset 13, -32
	movq	%rdi, %r13
	movl	$248, %edi
	pushq	%r12
	.cfi_def_cfa_offset 40
	.cfi_offset 12, -40
	pushq	%rbp
	.cfi_def_cfa_offset 48
	.cfi_offset 6, -48
	pushq	%rbx
	.cfi_def_cfa_offset 56
	.cfi_offset 3, -56
	movq	%r9, %rbx
	subq	$72, %rsp
	.cfi_def_cfa_offset 128
	movq	%rcx, 8(%rsp)
	movq	%r8, (%rsp)
	movq	%fs:40, %rax
	movq	%rax, 56(%rsp)
	xorl	%eax, %eax
.LEHB13:
	call	_Znwm@PLT
.LEHE13:
	movdqu	(%rbx), %xmm1
	movq	(%rsp), %r8
	movq	%rax, %rbp
	movq	8(%rsp), %rcx
	movabsq	$4294967297, %rax
	movq	%rax, 8(%rbp)
	movq	_ZTVSt23_Sp_counted_ptr_inplaceIN8opendnp311CommandTaskESaIS1_ELN9__gnu_cxx12_Lock_policyE2EE@GOTPCREL(%rip), %rax
	leaq	16(%rbp), %r12
	movaps	%xmm1, 16(%rsp)
	addq	$16, %rax
	movq	%rax, 0(%rbp)
	movq	8(%rbx), %rax
	testq	%rax, %rax
	je	.L235
	cmpq	$0, _ZL28__gthrw___pthread_key_createPjPFvPvE@GOTPCREL(%rip)
	je	.L236
	lock addl	$1, 8(%rax)
.L235:
	movdqu	16(%rbx), %xmm2
	movq	24(%rbx), %rax
	movaps	%xmm2, 32(%rsp)
	testq	%rax, %rax
	je	.L237
	cmpq	$0, _ZL28__gthrw___pthread_key_createPjPFvPvE@GOTPCREL(%rip)
	je	.L238
	lock addl	$1, 8(%rax)
.L237:
	leaq	16(%rsp), %rbx
	movq	%r15, %rdx
	movq	%r14, %rsi
	movq	%r12, %rdi
	movq	%rbx, %r9
.LEHB14:
	call	_ZN8opendnp311CommandTaskC1EONS_10CommandSetERNS_18IMasterApplicationERKSt8functionIFvRKNS_18ICommandTaskResultEEERKNS_10TaskConfigEN7openpal6LoggerE@PLT
.LEHE14:
	movq	40(%rsp), %r14
	testq	%r14, %r14
	je	.L240
	movq	_ZL28__gthrw___pthread_key_createPjPFvPvE@GOTPCREL(%rip), %rbx
	testq	%rbx, %rbx
	je	.L241
	movl	$-1, %eax
	lock xaddl	%eax, 8(%r14)
	cmpl	$1, %eax
	je	.L268
	.p2align 4,,10
	.p2align 3
.L240:
	movq	24(%rsp), %r14
	testq	%r14, %r14
	je	.L247
	movq	_ZL28__gthrw___pthread_key_createPjPFvPvE@GOTPCREL(%rip), %rbx
	testq	%rbx, %rbx
	je	.L248
	movl	$-1, %eax
	lock xaddl	%eax, 8(%r14)
	cmpl	$1, %eax
	je	.L269
	.p2align 4,,10
	.p2align 3
.L247:
	movq	%r12, %rdi
.LEHB15:
	call	_ZN8opendnp311CommandTask17LoadDirectOperateEv@PLT
.LEHE15:
	movq	%r12, %xmm0
	movq	%rbp, %xmm3
	punpcklqdq	%xmm3, %xmm0
	movups	%xmm0, 0(%r13)
	movq	56(%rsp), %rax
	xorq	%fs:40, %rax
	jne	.L270
	addq	$72, %rsp
	.cfi_remember_state
	.cfi_def_cfa_offset 56
	movq	%r13, %rax
	popq	%rbx
	.cfi_def_cfa_offset 48
	popq	%rbp
	.cfi_def_cfa_offset 40
	popq	%r12
	.cfi_def_cfa_offset 32
	popq	%r13
	.cfi_def_cfa_offset 24
	popq	%r14
	.cfi_def_cfa_offset 16
	popq	%r15
	.cfi_def_cfa_offset 8
	ret
	.p2align 4,,10
	.p2align 3
.L236:
	.cfi_restore_state
	addl	$1, 8(%rax)
	jmp	.L235
	.p2align 4,,10
	.p2align 3
.L238:
	addl	$1, 8(%rax)
	jmp	.L237
	.p2align 4,,10
	.p2align 3
.L248:
	movl	8(%r14), %eax
	leal	-1(%rax), %edx
	movl	%edx, 8(%r14)
	cmpl	$1, %eax
	jne	.L247
.L269:
	movq	(%r14), %rax
	movq	%r14, %rdi
	call	*16(%rax)
	testq	%rbx, %rbx
	je	.L251
	movl	$-1, %eax
	lock xaddl	%eax, 12(%r14)
.L252:
	cmpl	$1, %eax
	jne	.L247
	movq	(%r14), %rax
	movq	%r14, %rdi
	call	*24(%rax)
	jmp	.L247
	.p2align 4,,10
	.p2align 3
.L241:
	movl	8(%r14), %eax
	leal	-1(%rax), %edx
	movl	%edx, 8(%r14)
	cmpl	$1, %eax
	jne	.L240
.L268:
	movq	(%r14), %rax
	movq	%r14, %rdi
	call	*16(%rax)
	testq	%rbx, %rbx
	je	.L244
	movl	$-1, %eax
	lock xaddl	%eax, 12(%r14)
.L245:
	cmpl	$1, %eax
	jne	.L240
	movq	(%r14), %rax
	movq	%r14, %rdi
	call	*24(%rax)
	jmp	.L240
	.p2align 4,,10
	.p2align 3
.L251:
	movl	12(%r14), %eax
	leal	-1(%rax), %edx
	movl	%edx, 12(%r14)
	jmp	.L252
	.p2align 4,,10
	.p2align 3
.L244:
	movl	12(%r14), %eax
	leal	-1(%rax), %edx
	movl	%edx, 12(%r14)
	jmp	.L245
.L270:
	call	__stack_chk_fail@PLT
.L258:
	endbr64
	movq	%rax, %r12
	jmp	.L254
.L257:
	endbr64
	movq	%rax, %r12
	jmp	.L255
	.section	.gcc_except_table
.LLSDA3113:
	.byte	0xff
	.byte	0xff
	.byte	0x1
	.uleb128 .LLSDACSE3113-.LLSDACSB3113
.LLSDACSB3113:
	.uleb128 .LEHB13-.LFB3113
	.uleb128 .LEHE13-.LEHB13
	.uleb128 0
	.uleb128 0
	.uleb128 .LEHB14-.LFB3113
	.uleb128 .LEHE14-.LEHB14
	.uleb128 .L258-.LFB3113
	.uleb128 0
	.uleb128 .LEHB15-.LFB3113
	.uleb128 .LEHE15-.LEHB15
	.uleb128 .L257-.LFB3113
	.uleb128 0
.LLSDACSE3113:
	.text
	.cfi_endproc
	.section	.text.unlikely
	.cfi_startproc
	.cfi_personality 0x9b,DW.ref.__gxx_personality_v0
	.cfi_lsda 0x1b,.LLSDAC3113
	.type	_ZN8opendnp311CommandTask19CreateDirectOperateEONS_10CommandSetERNS_18IMasterApplicationERKSt8functionIFvRKNS_18ICommandTaskResultEEERKNS_10TaskConfigEN7openpal6LoggerE.cold, @function
_ZN8opendnp311CommandTask19CreateDirectOperateEONS_10CommandSetERNS_18IMasterApplicationERKSt8functionIFvRKNS_18ICommandTaskResultEEERKNS_10TaskConfigEN7openpal6LoggerE.cold:
.LFSB3113:
.L254:
	.cfi_def_cfa_offset 128
	.cfi_offset 3, -56
	.cfi_offset 6, -48
	.cfi_offset 12, -40
	.cfi_offset 13, -32
	.cfi_offset 14, -24
	.cfi_offset 15, -16
	movq	%rbx, %rdi
	call	_ZN7openpal6LoggerD1Ev@PLT
	movq	%rbp, %rdi
	call	_ZdlPv@PLT
	movq	%r12, %rdi
.LEHB16:
	call	_Unwind_Resume@PLT
.L255:
	movq	%rbp, %rdi
	call	_ZNSt16_Sp_counted_baseILN9__gnu_cxx12_Lock_policyE2EE10_M_releaseEv@PLT
	movq	%r12, %rdi
	call	_Unwind_Resume@PLT
.LEHE16:
	.cfi_endproc
.LFE3113:
	.section	.gcc_except_table
.LLSDAC3113:
	.byte	0xff
	.byte	0xff
	.byte	0x1
	.uleb128 .LLSDACSEC3113-.LLSDACSBC3113
.LLSDACSBC3113:
	.uleb128 .LEHB16-.LCOLDB4
	.uleb128 .LEHE16-.LEHB16
	.uleb128 0
	.uleb128 0
.LLSDACSEC3113:
	.section	.text.unlikely
	.text
	.size	_ZN8opendnp311CommandTask19CreateDirectOperateEONS_10CommandSetERNS_18IMasterApplicationERKSt8functionIFvRKNS_18ICommandTaskResultEEERKNS_10TaskConfigEN7openpal6LoggerE, .-_ZN8opendnp311CommandTask19CreateDirectOperateEONS_10CommandSetERNS_18IMasterApplicationERKSt8functionIFvRKNS_18ICommandTaskResultEEERKNS_10TaskConfigEN7openpal6LoggerE
	.section	.text.unlikely
	.size	_ZN8opendnp311CommandTask19CreateDirectOperateEONS_10CommandSetERNS_18IMasterApplicationERKSt8functionIFvRKNS_18ICommandTaskResultEEERKNS_10TaskConfigEN7openpal6LoggerE.cold, .-_ZN8opendnp311CommandTask19CreateDirectOperateEONS_10CommandSetERNS_18IMasterApplicationERKSt8functionIFvRKNS_18ICommandTaskResultEEERKNS_10TaskConfigEN7openpal6LoggerE.cold
.LCOLDE4:
	.text
.LHOTE4:
	.weak	_ZTSSt11_Mutex_baseILN9__gnu_cxx12_Lock_policyE2EE
	.section	.rodata._ZTSSt11_Mutex_baseILN9__gnu_cxx12_Lock_policyE2EE,"aG",@progbits,_ZTSSt11_Mutex_baseILN9__gnu_cxx12_Lock_policyE2EE,comdat
	.align 32
	.type	_ZTSSt11_Mutex_baseILN9__gnu_cxx12_Lock_policyE2EE, @object
	.size	_ZTSSt11_Mutex_baseILN9__gnu_cxx12_Lock_policyE2EE, 47
_ZTSSt11_Mutex_baseILN9__gnu_cxx12_Lock_policyE2EE:
	.string	"St11_Mutex_baseILN9__gnu_cxx12_Lock_policyE2EE"
	.weak	_ZTISt11_Mutex_baseILN9__gnu_cxx12_Lock_policyE2EE
	.section	.data.rel.ro._ZTISt11_Mutex_baseILN9__gnu_cxx12_Lock_policyE2EE,"awG",@progbits,_ZTISt11_Mutex_baseILN9__gnu_cxx12_Lock_policyE2EE,comdat
	.align 8
	.type	_ZTISt11_Mutex_baseILN9__gnu_cxx12_Lock_policyE2EE, @object
	.size	_ZTISt11_Mutex_baseILN9__gnu_cxx12_Lock_policyE2EE, 16
_ZTISt11_Mutex_baseILN9__gnu_cxx12_Lock_policyE2EE:
	.quad	_ZTVN10__cxxabiv117__class_type_infoE+16
	.quad	_ZTSSt11_Mutex_baseILN9__gnu_cxx12_Lock_policyE2EE
	.weak	_ZTSSt19_Sp_make_shared_tag
	.section	.rodata._ZTSSt19_Sp_make_shared_tag,"aG",@progbits,_ZTSSt19_Sp_make_shared_tag,comdat
	.align 16
	.type	_ZTSSt19_Sp_make_shared_tag, @object
	.size	_ZTSSt19_Sp_make_shared_tag, 24
_ZTSSt19_Sp_make_shared_tag:
	.string	"St19_Sp_make_shared_tag"
	.weak	_ZTSSt16_Sp_counted_baseILN9__gnu_cxx12_Lock_policyE2EE
	.section	.rodata._ZTSSt16_Sp_counted_baseILN9__gnu_cxx12_Lock_policyE2EE,"aG",@progbits,_ZTSSt16_Sp_counted_baseILN9__gnu_cxx12_Lock_policyE2EE,comdat
	.align 32
	.type	_ZTSSt16_Sp_counted_baseILN9__gnu_cxx12_Lock_policyE2EE, @object
	.size	_ZTSSt16_Sp_counted_baseILN9__gnu_cxx12_Lock_policyE2EE, 52
_ZTSSt16_Sp_counted_baseILN9__gnu_cxx12_Lock_policyE2EE:
	.string	"St16_Sp_counted_baseILN9__gnu_cxx12_Lock_policyE2EE"
	.weak	_ZTISt16_Sp_counted_baseILN9__gnu_cxx12_Lock_policyE2EE
	.section	.data.rel.ro._ZTISt16_Sp_counted_baseILN9__gnu_cxx12_Lock_policyE2EE,"awG",@progbits,_ZTISt16_Sp_counted_baseILN9__gnu_cxx12_Lock_policyE2EE,comdat
	.align 8
	.type	_ZTISt16_Sp_counted_baseILN9__gnu_cxx12_Lock_policyE2EE, @object
	.size	_ZTISt16_Sp_counted_baseILN9__gnu_cxx12_Lock_policyE2EE, 24
_ZTISt16_Sp_counted_baseILN9__gnu_cxx12_Lock_policyE2EE:
	.quad	_ZTVN10__cxxabiv120__si_class_type_infoE+16
	.quad	_ZTSSt16_Sp_counted_baseILN9__gnu_cxx12_Lock_policyE2EE
	.quad	_ZTISt11_Mutex_baseILN9__gnu_cxx12_Lock_policyE2EE
	.weak	_ZTSN8opendnp311CommandTaskE
	.section	.rodata._ZTSN8opendnp311CommandTaskE,"aG",@progbits,_ZTSN8opendnp311CommandTaskE,comdat
	.align 16
	.type	_ZTSN8opendnp311CommandTaskE, @object
	.size	_ZTSN8opendnp311CommandTaskE, 25
_ZTSN8opendnp311CommandTaskE:
	.string	"N8opendnp311CommandTaskE"
	.weak	_ZTIN8opendnp311CommandTaskE
	.section	.data.rel.ro._ZTIN8opendnp311CommandTaskE,"awG",@progbits,_ZTIN8opendnp311CommandTaskE,comdat
	.align 8
	.type	_ZTIN8opendnp311CommandTaskE, @object
	.size	_ZTIN8opendnp311CommandTaskE, 24
_ZTIN8opendnp311CommandTaskE:
	.quad	_ZTVN10__cxxabiv120__si_class_type_infoE+16
	.quad	_ZTSN8opendnp311CommandTaskE
	.quad	_ZTIN8opendnp311IMasterTaskE
	.weak	_ZTSSt23_Sp_counted_ptr_inplaceIN8opendnp311CommandTaskESaIS1_ELN9__gnu_cxx12_Lock_policyE2EE
	.section	.rodata._ZTSSt23_Sp_counted_ptr_inplaceIN8opendnp311CommandTaskESaIS1_ELN9__gnu_cxx12_Lock_policyE2EE,"aG",@progbits,_ZTSSt23_Sp_counted_ptr_inplaceIN8opendnp311CommandTaskESaIS1_ELN9__gnu_cxx12_Lock_policyE2EE,comdat
	.align 32
	.type	_ZTSSt23_Sp_counted_ptr_inplaceIN8opendnp311CommandTaskESaIS1_ELN9__gnu_cxx12_Lock_policyE2EE, @object
	.size	_ZTSSt23_Sp_counted_ptr_inplaceIN8opendnp311CommandTaskESaIS1_ELN9__gnu_cxx12_Lock_policyE2EE, 90
_ZTSSt23_Sp_counted_ptr_inplaceIN8opendnp311CommandTaskESaIS1_ELN9__gnu_cxx12_Lock_policyE2EE:
	.string	"St23_Sp_counted_ptr_inplaceIN8opendnp311CommandTaskESaIS1_ELN9__gnu_cxx12_Lock_policyE2EE"
	.weak	_ZTISt23_Sp_counted_ptr_inplaceIN8opendnp311CommandTaskESaIS1_ELN9__gnu_cxx12_Lock_policyE2EE
	.section	.data.rel.ro._ZTISt23_Sp_counted_ptr_inplaceIN8opendnp311CommandTaskESaIS1_ELN9__gnu_cxx12_Lock_policyE2EE,"awG",@progbits,_ZTISt23_Sp_counted_ptr_inplaceIN8opendnp311CommandTaskESaIS1_ELN9__gnu_cxx12_Lock_policyE2EE,comdat
	.align 8
	.type	_ZTISt23_Sp_counted_ptr_inplaceIN8opendnp311CommandTaskESaIS1_ELN9__gnu_cxx12_Lock_policyE2EE, @object
	.size	_ZTISt23_Sp_counted_ptr_inplaceIN8opendnp311CommandTaskESaIS1_ELN9__gnu_cxx12_Lock_policyE2EE, 24
_ZTISt23_Sp_counted_ptr_inplaceIN8opendnp311CommandTaskESaIS1_ELN9__gnu_cxx12_Lock_policyE2EE:
	.quad	_ZTVN10__cxxabiv120__si_class_type_infoE+16
	.quad	_ZTSSt23_Sp_counted_ptr_inplaceIN8opendnp311CommandTaskESaIS1_ELN9__gnu_cxx12_Lock_policyE2EE
	.quad	_ZTISt16_Sp_counted_baseILN9__gnu_cxx12_Lock_policyE2EE
	.weak	_ZTVN8opendnp311CommandTaskE
	.section	.data.rel.ro._ZTVN8opendnp311CommandTaskE,"awG",@progbits,_ZTVN8opendnp311CommandTaskE,comdat
	.align 8
	.type	_ZTVN8opendnp311CommandTaskE, @object
	.size	_ZTVN8opendnp311CommandTaskE, 120
_ZTVN8opendnp311CommandTaskE:
	.quad	0
	.quad	_ZTIN8opendnp311CommandTaskE
	.quad	_ZN8opendnp311CommandTaskD1Ev
	.quad	_ZN8opendnp311CommandTaskD0Ev
	.quad	_ZNK8opendnp311IMasterTask10IsAuthTaskEv
	.quad	_ZNK8opendnp311CommandTask4NameEv
	.quad	_ZNK8opendnp311CommandTask8PriorityEv
	.quad	_ZNK8opendnp311CommandTask19BlocksLowerPriorityEv
	.quad	_ZNK8opendnp311CommandTask11IsRecurringEv
	.quad	_ZN8opendnp311CommandTask12BuildRequestERNS_11APDURequestEh
	.quad	_ZN8opendnp311CommandTask10InitializeEv
	.quad	_ZN8opendnp311CommandTask15ProcessResponseERKNS_18APDUResponseHeaderERKN7openpal6RSliceE
	.quad	_ZN8opendnp311CommandTask14OnTaskCompleteENS_14TaskCompletionEN7openpal18MonotonicTimestampE
	.quad	_ZNK8opendnp311CommandTask9IsEnabledEv
	.quad	_ZNK8opendnp311CommandTask11GetTaskTypeEv
	.weak	_ZTVSt23_Sp_counted_ptr_inplaceIN8opendnp311CommandTaskESaIS1_ELN9__gnu_cxx12_Lock_policyE2EE
	.section	.data.rel.ro._ZTVSt23_Sp_counted_ptr_inplaceIN8opendnp311CommandTaskESaIS1_ELN9__gnu_cxx12_Lock_policyE2EE,"awG",@progbits,_ZTVSt23_Sp_counted_ptr_inplaceIN8opendnp311CommandTaskESaIS1_ELN9__gnu_cxx12_Lock_policyE2EE,comdat
	.align 8
	.type	_ZTVSt23_Sp_counted_ptr_inplaceIN8opendnp311CommandTaskESaIS1_ELN9__gnu_cxx12_Lock_policyE2EE, @object
	.size	_ZTVSt23_Sp_counted_ptr_inplaceIN8opendnp311CommandTaskESaIS1_ELN9__gnu_cxx12_Lock_policyE2EE, 56
_ZTVSt23_Sp_counted_ptr_inplaceIN8opendnp311CommandTaskESaIS1_ELN9__gnu_cxx12_Lock_policyE2EE:
	.quad	0
	.quad	_ZTISt23_Sp_counted_ptr_inplaceIN8opendnp311CommandTaskESaIS1_ELN9__gnu_cxx12_Lock_policyE2EE
	.quad	_ZNSt23_Sp_counted_ptr_inplaceIN8opendnp311CommandTaskESaIS1_ELN9__gnu_cxx12_Lock_policyE2EED1Ev
	.quad	_ZNSt23_Sp_counted_ptr_inplaceIN8opendnp311CommandTaskESaIS1_ELN9__gnu_cxx12_Lock_policyE2EED0Ev
	.quad	_ZNSt23_Sp_counted_ptr_inplaceIN8opendnp311CommandTaskESaIS1_ELN9__gnu_cxx12_Lock_policyE2EE10_M_disposeEv
	.quad	_ZNSt23_Sp_counted_ptr_inplaceIN8opendnp311CommandTaskESaIS1_ELN9__gnu_cxx12_Lock_policyE2EE10_M_destroyEv
	.quad	_ZNSt23_Sp_counted_ptr_inplaceIN8opendnp311CommandTaskESaIS1_ELN9__gnu_cxx12_Lock_policyE2EE14_M_get_deleterERKSt9type_info
	.weak	_ZZNSt19_Sp_make_shared_tag5_S_tiEvE5__tag
	.section	.rodata._ZZNSt19_Sp_make_shared_tag5_S_tiEvE5__tag,"aG",@progbits,_ZZNSt19_Sp_make_shared_tag5_S_tiEvE5__tag,comdat
	.align 8
	.type	_ZZNSt19_Sp_make_shared_tag5_S_tiEvE5__tag, @gnu_unique_object
	.size	_ZZNSt19_Sp_make_shared_tag5_S_tiEvE5__tag, 16
_ZZNSt19_Sp_make_shared_tag5_S_tiEvE5__tag:
	.zero	16
	.weakref	_ZL28__gthrw___pthread_key_createPjPFvPvE,__pthread_key_create
	.hidden	DW.ref.__gxx_personality_v0
	.weak	DW.ref.__gxx_personality_v0
	.section	.data.rel.local.DW.ref.__gxx_personality_v0,"awG",@progbits,DW.ref.__gxx_personality_v0,comdat
	.align 8
	.type	DW.ref.__gxx_personality_v0, @object
	.size	DW.ref.__gxx_personality_v0, 8
DW.ref.__gxx_personality_v0:
	.quad	__gxx_personality_v0
	.ident	"GCC: (Ubuntu 9.4.0-1ubuntu1~20.04.1) 9.4.0"
	.section	.note.GNU-stack,"",@progbits
	.section	.note.gnu.property,"a"
	.align 8
	.long	 1f - 0f
	.long	 4f - 1f
	.long	 5
0:
	.string	 "GNU"
1:
	.align 8
	.long	 0xc0000002
	.long	 3f - 2f
2:
	.long	 0x3
3:
	.align 8
4:
