	.file	"CommandSetOps.cpp"
	.text
	.section	.text._ZN8opendnp312IAPDUHandler14OnHeaderResultERKNS_12HeaderRecordERKNS_8IINFieldE,"axG",@progbits,_ZN8opendnp312IAPDUHandler14OnHeaderResultERKNS_12HeaderRecordERKNS_8IINFieldE,comdat
	.align 2
	.p2align 4
	.weak	_ZN8opendnp312IAPDUHandler14OnHeaderResultERKNS_12HeaderRecordERKNS_8IINFieldE
	.type	_ZN8opendnp312IAPDUHandler14OnHeaderResultERKNS_12HeaderRecordERKNS_8IINFieldE, @function
_ZN8opendnp312IAPDUHandler14OnHeaderResultERKNS_12HeaderRecordERKNS_8IINFieldE:
.LFB2168:
	.cfi_startproc
	endbr64
	ret
	.cfi_endproc
.LFE2168:
	.size	_ZN8opendnp312IAPDUHandler14OnHeaderResultERKNS_12HeaderRecordERKNS_8IINFieldE, .-_ZN8opendnp312IAPDUHandler14OnHeaderResultERKNS_12HeaderRecordERKNS_8IINFieldE
	.section	.text._ZN8opendnp314ICommandHeader19ApplySelectResponseERKNS_11ICollectionINS_7IndexedINS_23ControlRelayOutputBlockEEEEE,"axG",@progbits,_ZN8opendnp314ICommandHeader19ApplySelectResponseERKNS_11ICollectionINS_7IndexedINS_23ControlRelayOutputBlockEEEEE,comdat
	.align 2
	.p2align 4
	.weak	_ZN8opendnp314ICommandHeader19ApplySelectResponseERKNS_11ICollectionINS_7IndexedINS_23ControlRelayOutputBlockEEEEE
	.type	_ZN8opendnp314ICommandHeader19ApplySelectResponseERKNS_11ICollectionINS_7IndexedINS_23ControlRelayOutputBlockEEEEE, @function
_ZN8opendnp314ICommandHeader19ApplySelectResponseERKNS_11ICollectionINS_7IndexedINS_23ControlRelayOutputBlockEEEEE:
.LFB2812:
	.cfi_startproc
	endbr64
	ret
	.cfi_endproc
.LFE2812:
	.size	_ZN8opendnp314ICommandHeader19ApplySelectResponseERKNS_11ICollectionINS_7IndexedINS_23ControlRelayOutputBlockEEEEE, .-_ZN8opendnp314ICommandHeader19ApplySelectResponseERKNS_11ICollectionINS_7IndexedINS_23ControlRelayOutputBlockEEEEE
	.section	.text._ZN8opendnp314ICommandHeader19ApplySelectResponseERKNS_11ICollectionINS_7IndexedINS_17AnalogOutputInt16EEEEE,"axG",@progbits,_ZN8opendnp314ICommandHeader19ApplySelectResponseERKNS_11ICollectionINS_7IndexedINS_17AnalogOutputInt16EEEEE,comdat
	.align 2
	.p2align 4
	.weak	_ZN8opendnp314ICommandHeader19ApplySelectResponseERKNS_11ICollectionINS_7IndexedINS_17AnalogOutputInt16EEEEE
	.type	_ZN8opendnp314ICommandHeader19ApplySelectResponseERKNS_11ICollectionINS_7IndexedINS_17AnalogOutputInt16EEEEE, @function
_ZN8opendnp314ICommandHeader19ApplySelectResponseERKNS_11ICollectionINS_7IndexedINS_17AnalogOutputInt16EEEEE:
.LFB2813:
	.cfi_startproc
	endbr64
	ret
	.cfi_endproc
.LFE2813:
	.size	_ZN8opendnp314ICommandHeader19ApplySelectResponseERKNS_11ICollectionINS_7IndexedINS_17AnalogOutputInt16EEEEE, .-_ZN8opendnp314ICommandHeader19ApplySelectResponseERKNS_11ICollectionINS_7IndexedINS_17AnalogOutputInt16EEEEE
	.section	.text._ZN8opendnp314ICommandHeader19ApplySelectResponseERKNS_11ICollectionINS_7IndexedINS_17AnalogOutputInt32EEEEE,"axG",@progbits,_ZN8opendnp314ICommandHeader19ApplySelectResponseERKNS_11ICollectionINS_7IndexedINS_17AnalogOutputInt32EEEEE,comdat
	.align 2
	.p2align 4
	.weak	_ZN8opendnp314ICommandHeader19ApplySelectResponseERKNS_11ICollectionINS_7IndexedINS_17AnalogOutputInt32EEEEE
	.type	_ZN8opendnp314ICommandHeader19ApplySelectResponseERKNS_11ICollectionINS_7IndexedINS_17AnalogOutputInt32EEEEE, @function
_ZN8opendnp314ICommandHeader19ApplySelectResponseERKNS_11ICollectionINS_7IndexedINS_17AnalogOutputInt32EEEEE:
.LFB2814:
	.cfi_startproc
	endbr64
	ret
	.cfi_endproc
.LFE2814:
	.size	_ZN8opendnp314ICommandHeader19ApplySelectResponseERKNS_11ICollectionINS_7IndexedINS_17AnalogOutputInt32EEEEE, .-_ZN8opendnp314ICommandHeader19ApplySelectResponseERKNS_11ICollectionINS_7IndexedINS_17AnalogOutputInt32EEEEE
	.section	.text._ZN8opendnp314ICommandHeader19ApplySelectResponseERKNS_11ICollectionINS_7IndexedINS_19AnalogOutputFloat32EEEEE,"axG",@progbits,_ZN8opendnp314ICommandHeader19ApplySelectResponseERKNS_11ICollectionINS_7IndexedINS_19AnalogOutputFloat32EEEEE,comdat
	.align 2
	.p2align 4
	.weak	_ZN8opendnp314ICommandHeader19ApplySelectResponseERKNS_11ICollectionINS_7IndexedINS_19AnalogOutputFloat32EEEEE
	.type	_ZN8opendnp314ICommandHeader19ApplySelectResponseERKNS_11ICollectionINS_7IndexedINS_19AnalogOutputFloat32EEEEE, @function
_ZN8opendnp314ICommandHeader19ApplySelectResponseERKNS_11ICollectionINS_7IndexedINS_19AnalogOutputFloat32EEEEE:
.LFB2815:
	.cfi_startproc
	endbr64
	ret
	.cfi_endproc
.LFE2815:
	.size	_ZN8opendnp314ICommandHeader19ApplySelectResponseERKNS_11ICollectionINS_7IndexedINS_19AnalogOutputFloat32EEEEE, .-_ZN8opendnp314ICommandHeader19ApplySelectResponseERKNS_11ICollectionINS_7IndexedINS_19AnalogOutputFloat32EEEEE
	.section	.text._ZN8opendnp314ICommandHeader19ApplySelectResponseERKNS_11ICollectionINS_7IndexedINS_20AnalogOutputDouble64EEEEE,"axG",@progbits,_ZN8opendnp314ICommandHeader19ApplySelectResponseERKNS_11ICollectionINS_7IndexedINS_20AnalogOutputDouble64EEEEE,comdat
	.align 2
	.p2align 4
	.weak	_ZN8opendnp314ICommandHeader19ApplySelectResponseERKNS_11ICollectionINS_7IndexedINS_20AnalogOutputDouble64EEEEE
	.type	_ZN8opendnp314ICommandHeader19ApplySelectResponseERKNS_11ICollectionINS_7IndexedINS_20AnalogOutputDouble64EEEEE, @function
_ZN8opendnp314ICommandHeader19ApplySelectResponseERKNS_11ICollectionINS_7IndexedINS_20AnalogOutputDouble64EEEEE:
.LFB2816:
	.cfi_startproc
	endbr64
	ret
	.cfi_endproc
.LFE2816:
	.size	_ZN8opendnp314ICommandHeader19ApplySelectResponseERKNS_11ICollectionINS_7IndexedINS_20AnalogOutputDouble64EEEEE, .-_ZN8opendnp314ICommandHeader19ApplySelectResponseERKNS_11ICollectionINS_7IndexedINS_20AnalogOutputDouble64EEEEE
	.section	.text._ZN8opendnp314ICommandHeader20ApplyOperateResponseERKNS_11ICollectionINS_7IndexedINS_23ControlRelayOutputBlockEEEEE,"axG",@progbits,_ZN8opendnp314ICommandHeader20ApplyOperateResponseERKNS_11ICollectionINS_7IndexedINS_23ControlRelayOutputBlockEEEEE,comdat
	.align 2
	.p2align 4
	.weak	_ZN8opendnp314ICommandHeader20ApplyOperateResponseERKNS_11ICollectionINS_7IndexedINS_23ControlRelayOutputBlockEEEEE
	.type	_ZN8opendnp314ICommandHeader20ApplyOperateResponseERKNS_11ICollectionINS_7IndexedINS_23ControlRelayOutputBlockEEEEE, @function
_ZN8opendnp314ICommandHeader20ApplyOperateResponseERKNS_11ICollectionINS_7IndexedINS_23ControlRelayOutputBlockEEEEE:
.LFB2817:
	.cfi_startproc
	endbr64
	ret
	.cfi_endproc
.LFE2817:
	.size	_ZN8opendnp314ICommandHeader20ApplyOperateResponseERKNS_11ICollectionINS_7IndexedINS_23ControlRelayOutputBlockEEEEE, .-_ZN8opendnp314ICommandHeader20ApplyOperateResponseERKNS_11ICollectionINS_7IndexedINS_23ControlRelayOutputBlockEEEEE
	.section	.text._ZN8opendnp314ICommandHeader20ApplyOperateResponseERKNS_11ICollectionINS_7IndexedINS_17AnalogOutputInt16EEEEE,"axG",@progbits,_ZN8opendnp314ICommandHeader20ApplyOperateResponseERKNS_11ICollectionINS_7IndexedINS_17AnalogOutputInt16EEEEE,comdat
	.align 2
	.p2align 4
	.weak	_ZN8opendnp314ICommandHeader20ApplyOperateResponseERKNS_11ICollectionINS_7IndexedINS_17AnalogOutputInt16EEEEE
	.type	_ZN8opendnp314ICommandHeader20ApplyOperateResponseERKNS_11ICollectionINS_7IndexedINS_17AnalogOutputInt16EEEEE, @function
_ZN8opendnp314ICommandHeader20ApplyOperateResponseERKNS_11ICollectionINS_7IndexedINS_17AnalogOutputInt16EEEEE:
.LFB2818:
	.cfi_startproc
	endbr64
	ret
	.cfi_endproc
.LFE2818:
	.size	_ZN8opendnp314ICommandHeader20ApplyOperateResponseERKNS_11ICollectionINS_7IndexedINS_17AnalogOutputInt16EEEEE, .-_ZN8opendnp314ICommandHeader20ApplyOperateResponseERKNS_11ICollectionINS_7IndexedINS_17AnalogOutputInt16EEEEE
	.section	.text._ZN8opendnp314ICommandHeader20ApplyOperateResponseERKNS_11ICollectionINS_7IndexedINS_17AnalogOutputInt32EEEEE,"axG",@progbits,_ZN8opendnp314ICommandHeader20ApplyOperateResponseERKNS_11ICollectionINS_7IndexedINS_17AnalogOutputInt32EEEEE,comdat
	.align 2
	.p2align 4
	.weak	_ZN8opendnp314ICommandHeader20ApplyOperateResponseERKNS_11ICollectionINS_7IndexedINS_17AnalogOutputInt32EEEEE
	.type	_ZN8opendnp314ICommandHeader20ApplyOperateResponseERKNS_11ICollectionINS_7IndexedINS_17AnalogOutputInt32EEEEE, @function
_ZN8opendnp314ICommandHeader20ApplyOperateResponseERKNS_11ICollectionINS_7IndexedINS_17AnalogOutputInt32EEEEE:
.LFB2819:
	.cfi_startproc
	endbr64
	ret
	.cfi_endproc
.LFE2819:
	.size	_ZN8opendnp314ICommandHeader20ApplyOperateResponseERKNS_11ICollectionINS_7IndexedINS_17AnalogOutputInt32EEEEE, .-_ZN8opendnp314ICommandHeader20ApplyOperateResponseERKNS_11ICollectionINS_7IndexedINS_17AnalogOutputInt32EEEEE
	.section	.text._ZN8opendnp314ICommandHeader20ApplyOperateResponseERKNS_11ICollectionINS_7IndexedINS_19AnalogOutputFloat32EEEEE,"axG",@progbits,_ZN8opendnp314ICommandHeader20ApplyOperateResponseERKNS_11ICollectionINS_7IndexedINS_19AnalogOutputFloat32EEEEE,comdat
	.align 2
	.p2align 4
	.weak	_ZN8opendnp314ICommandHeader20ApplyOperateResponseERKNS_11ICollectionINS_7IndexedINS_19AnalogOutputFloat32EEEEE
	.type	_ZN8opendnp314ICommandHeader20ApplyOperateResponseERKNS_11ICollectionINS_7IndexedINS_19AnalogOutputFloat32EEEEE, @function
_ZN8opendnp314ICommandHeader20ApplyOperateResponseERKNS_11ICollectionINS_7IndexedINS_19AnalogOutputFloat32EEEEE:
.LFB2820:
	.cfi_startproc
	endbr64
	ret
	.cfi_endproc
.LFE2820:
	.size	_ZN8opendnp314ICommandHeader20ApplyOperateResponseERKNS_11ICollectionINS_7IndexedINS_19AnalogOutputFloat32EEEEE, .-_ZN8opendnp314ICommandHeader20ApplyOperateResponseERKNS_11ICollectionINS_7IndexedINS_19AnalogOutputFloat32EEEEE
	.section	.text._ZN8opendnp314ICommandHeader20ApplyOperateResponseERKNS_11ICollectionINS_7IndexedINS_20AnalogOutputDouble64EEEEE,"axG",@progbits,_ZN8opendnp314ICommandHeader20ApplyOperateResponseERKNS_11ICollectionINS_7IndexedINS_20AnalogOutputDouble64EEEEE,comdat
	.align 2
	.p2align 4
	.weak	_ZN8opendnp314ICommandHeader20ApplyOperateResponseERKNS_11ICollectionINS_7IndexedINS_20AnalogOutputDouble64EEEEE
	.type	_ZN8opendnp314ICommandHeader20ApplyOperateResponseERKNS_11ICollectionINS_7IndexedINS_20AnalogOutputDouble64EEEEE, @function
_ZN8opendnp314ICommandHeader20ApplyOperateResponseERKNS_11ICollectionINS_7IndexedINS_20AnalogOutputDouble64EEEEE:
.LFB2821:
	.cfi_startproc
	endbr64
	ret
	.cfi_endproc
.LFE2821:
	.size	_ZN8opendnp314ICommandHeader20ApplyOperateResponseERKNS_11ICollectionINS_7IndexedINS_20AnalogOutputDouble64EEEEE, .-_ZN8opendnp314ICommandHeader20ApplyOperateResponseERKNS_11ICollectionINS_7IndexedINS_20AnalogOutputDouble64EEEEE
	.text
	.align 2
	.p2align 4
	.globl	_ZN8opendnp313CommandSetOps9IsAllowedEjNS_14GroupVariationENS_13QualifierCodeE
	.type	_ZN8opendnp313CommandSetOps9IsAllowedEjNS_14GroupVariationENS_13QualifierCodeE, @function
_ZN8opendnp313CommandSetOps9IsAllowedEjNS_14GroupVariationENS_13QualifierCodeE:
.LFB3250:
	.cfi_startproc
	endbr64
	xorl	%eax, %eax
	cmpb	$40, %cl
	jne	.L13
	movl	$1, %eax
	cmpw	$3073, %dx
	je	.L13
	subw	$10497, %dx
	cmpw	$3, %dx
	setbe	%al
.L13:
	ret
	.cfi_endproc
.LFE3250:
	.size	_ZN8opendnp313CommandSetOps9IsAllowedEjNS_14GroupVariationENS_13QualifierCodeE, .-_ZN8opendnp313CommandSetOps9IsAllowedEjNS_14GroupVariationENS_13QualifierCodeE
	.align 2
	.p2align 4
	.globl	_ZN8opendnp313CommandSetOps13ProcessHeaderERKNS_12PrefixHeaderERKNS_11ICollectionINS_7IndexedINS_23ControlRelayOutputBlockEEEEE
	.type	_ZN8opendnp313CommandSetOps13ProcessHeaderERKNS_12PrefixHeaderERKNS_11ICollectionINS_7IndexedINS_23ControlRelayOutputBlockEEEEE, @function
_ZN8opendnp313CommandSetOps13ProcessHeaderERKNS_12PrefixHeaderERKNS_11ICollectionINS_7IndexedINS_23ControlRelayOutputBlockEEEEE:
.LFB3251:
	.cfi_startproc
	endbr64
	pushq	%r12
	.cfi_def_cfa_offset 16
	.cfi_offset 12, -16
	movq	%rdi, %r12
	movq	%rsi, %rdi
	pushq	%rbp
	.cfi_def_cfa_offset 24
	.cfi_offset 6, -24
	movq	%rdx, %rbp
	pushq	%rbx
	.cfi_def_cfa_offset 32
	.cfi_offset 3, -32
	movq	%rsi, %rbx
	subq	$16, %rsp
	.cfi_def_cfa_offset 48
	movq	%fs:40, %rax
	movq	%rax, 8(%rsp)
	xorl	%eax, %eax
	call	_ZNK8opendnp312HeaderRecord16GetQualifierCodeEv@PLT
	cmpb	$40, %al
	jne	.L26
	movq	24(%r12), %rax
	movl	12(%rbx), %ecx
	movq	(%rax), %rdx
	movq	8(%rax), %rax
	subq	%rdx, %rax
	sarq	$3, %rax
	cmpq	%rax, %rcx
	jnb	.L26
	movq	(%rdx,%rcx,8), %rdi
	cmpb	$0, 20(%r12)
	movq	(%rdi), %rax
	je	.L27
	movq	88(%rax), %rax
	cmpq	_ZN8opendnp314ICommandHeader20ApplyOperateResponseERKNS_11ICollectionINS_7IndexedINS_23ControlRelayOutputBlockEEEEE@GOTPCREL(%rip), %rax
	jne	.L25
.L22:
	xorl	%edx, %edx
	xorl	%ecx, %ecx
	jmp	.L19
	.p2align 4,,10
	.p2align 3
.L26:
	xorl	%eax, %eax
	leaq	6(%rsp), %rdi
	movl	$10, %esi
	movw	%ax, 6(%rsp)
	call	_ZN8opendnp38IINField6SetBitENS_6IINBitE@PLT
	movzbl	6(%rsp), %ecx
	movzbl	7(%rsp), %edx
.L19:
	xorl	%eax, %eax
	movq	8(%rsp), %rbx
	xorq	%fs:40, %rbx
	movb	%cl, %al
	movb	%dl, %ah
	jne	.L28
	addq	$16, %rsp
	.cfi_remember_state
	.cfi_def_cfa_offset 32
	popq	%rbx
	.cfi_def_cfa_offset 24
	popq	%rbp
	.cfi_def_cfa_offset 16
	popq	%r12
	.cfi_def_cfa_offset 8
	ret
	.p2align 4,,10
	.p2align 3
.L27:
	.cfi_restore_state
	movq	48(%rax), %rax
	cmpq	_ZN8opendnp314ICommandHeader19ApplySelectResponseERKNS_11ICollectionINS_7IndexedINS_23ControlRelayOutputBlockEEEEE@GOTPCREL(%rip), %rax
	je	.L22
.L25:
	movq	%rbp, %rsi
	call	*%rax
	jmp	.L22
.L28:
	call	__stack_chk_fail@PLT
	.cfi_endproc
.LFE3251:
	.size	_ZN8opendnp313CommandSetOps13ProcessHeaderERKNS_12PrefixHeaderERKNS_11ICollectionINS_7IndexedINS_23ControlRelayOutputBlockEEEEE, .-_ZN8opendnp313CommandSetOps13ProcessHeaderERKNS_12PrefixHeaderERKNS_11ICollectionINS_7IndexedINS_23ControlRelayOutputBlockEEEEE
	.align 2
	.p2align 4
	.globl	_ZN8opendnp313CommandSetOps13ProcessHeaderERKNS_12PrefixHeaderERKNS_11ICollectionINS_7IndexedINS_17AnalogOutputInt16EEEEE
	.type	_ZN8opendnp313CommandSetOps13ProcessHeaderERKNS_12PrefixHeaderERKNS_11ICollectionINS_7IndexedINS_17AnalogOutputInt16EEEEE, @function
_ZN8opendnp313CommandSetOps13ProcessHeaderERKNS_12PrefixHeaderERKNS_11ICollectionINS_7IndexedINS_17AnalogOutputInt16EEEEE:
.LFB3252:
	.cfi_startproc
	endbr64
	pushq	%r12
	.cfi_def_cfa_offset 16
	.cfi_offset 12, -16
	movq	%rdi, %r12
	movq	%rsi, %rdi
	pushq	%rbp
	.cfi_def_cfa_offset 24
	.cfi_offset 6, -24
	movq	%rdx, %rbp
	pushq	%rbx
	.cfi_def_cfa_offset 32
	.cfi_offset 3, -32
	movq	%rsi, %rbx
	subq	$16, %rsp
	.cfi_def_cfa_offset 48
	movq	%fs:40, %rax
	movq	%rax, 8(%rsp)
	xorl	%eax, %eax
	call	_ZNK8opendnp312HeaderRecord16GetQualifierCodeEv@PLT
	cmpb	$40, %al
	jne	.L38
	movq	24(%r12), %rax
	movl	12(%rbx), %ecx
	movq	(%rax), %rdx
	movq	8(%rax), %rax
	subq	%rdx, %rax
	sarq	$3, %rax
	cmpq	%rax, %rcx
	jnb	.L38
	movq	(%rdx,%rcx,8), %rdi
	cmpb	$0, 20(%r12)
	movq	(%rdi), %rax
	je	.L39
	movq	96(%rax), %rax
	cmpq	_ZN8opendnp314ICommandHeader20ApplyOperateResponseERKNS_11ICollectionINS_7IndexedINS_17AnalogOutputInt16EEEEE@GOTPCREL(%rip), %rax
	jne	.L37
.L34:
	xorl	%edx, %edx
	xorl	%ecx, %ecx
	jmp	.L31
	.p2align 4,,10
	.p2align 3
.L38:
	xorl	%eax, %eax
	leaq	6(%rsp), %rdi
	movl	$10, %esi
	movw	%ax, 6(%rsp)
	call	_ZN8opendnp38IINField6SetBitENS_6IINBitE@PLT
	movzbl	6(%rsp), %ecx
	movzbl	7(%rsp), %edx
.L31:
	xorl	%eax, %eax
	movq	8(%rsp), %rbx
	xorq	%fs:40, %rbx
	movb	%cl, %al
	movb	%dl, %ah
	jne	.L40
	addq	$16, %rsp
	.cfi_remember_state
	.cfi_def_cfa_offset 32
	popq	%rbx
	.cfi_def_cfa_offset 24
	popq	%rbp
	.cfi_def_cfa_offset 16
	popq	%r12
	.cfi_def_cfa_offset 8
	ret
	.p2align 4,,10
	.p2align 3
.L39:
	.cfi_restore_state
	movq	56(%rax), %rax
	cmpq	_ZN8opendnp314ICommandHeader19ApplySelectResponseERKNS_11ICollectionINS_7IndexedINS_17AnalogOutputInt16EEEEE@GOTPCREL(%rip), %rax
	je	.L34
.L37:
	movq	%rbp, %rsi
	call	*%rax
	jmp	.L34
.L40:
	call	__stack_chk_fail@PLT
	.cfi_endproc
.LFE3252:
	.size	_ZN8opendnp313CommandSetOps13ProcessHeaderERKNS_12PrefixHeaderERKNS_11ICollectionINS_7IndexedINS_17AnalogOutputInt16EEEEE, .-_ZN8opendnp313CommandSetOps13ProcessHeaderERKNS_12PrefixHeaderERKNS_11ICollectionINS_7IndexedINS_17AnalogOutputInt16EEEEE
	.align 2
	.p2align 4
	.globl	_ZN8opendnp313CommandSetOps13ProcessHeaderERKNS_12PrefixHeaderERKNS_11ICollectionINS_7IndexedINS_17AnalogOutputInt32EEEEE
	.type	_ZN8opendnp313CommandSetOps13ProcessHeaderERKNS_12PrefixHeaderERKNS_11ICollectionINS_7IndexedINS_17AnalogOutputInt32EEEEE, @function
_ZN8opendnp313CommandSetOps13ProcessHeaderERKNS_12PrefixHeaderERKNS_11ICollectionINS_7IndexedINS_17AnalogOutputInt32EEEEE:
.LFB3253:
	.cfi_startproc
	endbr64
	pushq	%r12
	.cfi_def_cfa_offset 16
	.cfi_offset 12, -16
	movq	%rdi, %r12
	movq	%rsi, %rdi
	pushq	%rbp
	.cfi_def_cfa_offset 24
	.cfi_offset 6, -24
	movq	%rdx, %rbp
	pushq	%rbx
	.cfi_def_cfa_offset 32
	.cfi_offset 3, -32
	movq	%rsi, %rbx
	subq	$16, %rsp
	.cfi_def_cfa_offset 48
	movq	%fs:40, %rax
	movq	%rax, 8(%rsp)
	xorl	%eax, %eax
	call	_ZNK8opendnp312HeaderRecord16GetQualifierCodeEv@PLT
	cmpb	$40, %al
	jne	.L50
	movq	24(%r12), %rax
	movl	12(%rbx), %ecx
	movq	(%rax), %rdx
	movq	8(%rax), %rax
	subq	%rdx, %rax
	sarq	$3, %rax
	cmpq	%rax, %rcx
	jnb	.L50
	movq	(%rdx,%rcx,8), %rdi
	cmpb	$0, 20(%r12)
	movq	(%rdi), %rax
	je	.L51
	movq	104(%rax), %rax
	cmpq	_ZN8opendnp314ICommandHeader20ApplyOperateResponseERKNS_11ICollectionINS_7IndexedINS_17AnalogOutputInt32EEEEE@GOTPCREL(%rip), %rax
	jne	.L49
.L46:
	xorl	%edx, %edx
	xorl	%ecx, %ecx
	jmp	.L43
	.p2align 4,,10
	.p2align 3
.L50:
	xorl	%eax, %eax
	leaq	6(%rsp), %rdi
	movl	$10, %esi
	movw	%ax, 6(%rsp)
	call	_ZN8opendnp38IINField6SetBitENS_6IINBitE@PLT
	movzbl	6(%rsp), %ecx
	movzbl	7(%rsp), %edx
.L43:
	xorl	%eax, %eax
	movq	8(%rsp), %rbx
	xorq	%fs:40, %rbx
	movb	%cl, %al
	movb	%dl, %ah
	jne	.L52
	addq	$16, %rsp
	.cfi_remember_state
	.cfi_def_cfa_offset 32
	popq	%rbx
	.cfi_def_cfa_offset 24
	popq	%rbp
	.cfi_def_cfa_offset 16
	popq	%r12
	.cfi_def_cfa_offset 8
	ret
	.p2align 4,,10
	.p2align 3
.L51:
	.cfi_restore_state
	movq	64(%rax), %rax
	cmpq	_ZN8opendnp314ICommandHeader19ApplySelectResponseERKNS_11ICollectionINS_7IndexedINS_17AnalogOutputInt32EEEEE@GOTPCREL(%rip), %rax
	je	.L46
.L49:
	movq	%rbp, %rsi
	call	*%rax
	jmp	.L46
.L52:
	call	__stack_chk_fail@PLT
	.cfi_endproc
.LFE3253:
	.size	_ZN8opendnp313CommandSetOps13ProcessHeaderERKNS_12PrefixHeaderERKNS_11ICollectionINS_7IndexedINS_17AnalogOutputInt32EEEEE, .-_ZN8opendnp313CommandSetOps13ProcessHeaderERKNS_12PrefixHeaderERKNS_11ICollectionINS_7IndexedINS_17AnalogOutputInt32EEEEE
	.align 2
	.p2align 4
	.globl	_ZN8opendnp313CommandSetOps13ProcessHeaderERKNS_12PrefixHeaderERKNS_11ICollectionINS_7IndexedINS_19AnalogOutputFloat32EEEEE
	.type	_ZN8opendnp313CommandSetOps13ProcessHeaderERKNS_12PrefixHeaderERKNS_11ICollectionINS_7IndexedINS_19AnalogOutputFloat32EEEEE, @function
_ZN8opendnp313CommandSetOps13ProcessHeaderERKNS_12PrefixHeaderERKNS_11ICollectionINS_7IndexedINS_19AnalogOutputFloat32EEEEE:
.LFB3254:
	.cfi_startproc
	endbr64
	pushq	%r12
	.cfi_def_cfa_offset 16
	.cfi_offset 12, -16
	movq	%rdi, %r12
	movq	%rsi, %rdi
	pushq	%rbp
	.cfi_def_cfa_offset 24
	.cfi_offset 6, -24
	movq	%rdx, %rbp
	pushq	%rbx
	.cfi_def_cfa_offset 32
	.cfi_offset 3, -32
	movq	%rsi, %rbx
	subq	$16, %rsp
	.cfi_def_cfa_offset 48
	movq	%fs:40, %rax
	movq	%rax, 8(%rsp)
	xorl	%eax, %eax
	call	_ZNK8opendnp312HeaderRecord16GetQualifierCodeEv@PLT
	cmpb	$40, %al
	jne	.L62
	movq	24(%r12), %rax
	movl	12(%rbx), %ecx
	movq	(%rax), %rdx
	movq	8(%rax), %rax
	subq	%rdx, %rax
	sarq	$3, %rax
	cmpq	%rax, %rcx
	jnb	.L62
	movq	(%rdx,%rcx,8), %rdi
	cmpb	$0, 20(%r12)
	movq	(%rdi), %rax
	je	.L63
	movq	112(%rax), %rax
	cmpq	_ZN8opendnp314ICommandHeader20ApplyOperateResponseERKNS_11ICollectionINS_7IndexedINS_19AnalogOutputFloat32EEEEE@GOTPCREL(%rip), %rax
	jne	.L61
.L58:
	xorl	%edx, %edx
	xorl	%ecx, %ecx
	jmp	.L55
	.p2align 4,,10
	.p2align 3
.L62:
	xorl	%eax, %eax
	leaq	6(%rsp), %rdi
	movl	$10, %esi
	movw	%ax, 6(%rsp)
	call	_ZN8opendnp38IINField6SetBitENS_6IINBitE@PLT
	movzbl	6(%rsp), %ecx
	movzbl	7(%rsp), %edx
.L55:
	xorl	%eax, %eax
	movq	8(%rsp), %rbx
	xorq	%fs:40, %rbx
	movb	%cl, %al
	movb	%dl, %ah
	jne	.L64
	addq	$16, %rsp
	.cfi_remember_state
	.cfi_def_cfa_offset 32
	popq	%rbx
	.cfi_def_cfa_offset 24
	popq	%rbp
	.cfi_def_cfa_offset 16
	popq	%r12
	.cfi_def_cfa_offset 8
	ret
	.p2align 4,,10
	.p2align 3
.L63:
	.cfi_restore_state
	movq	72(%rax), %rax
	cmpq	_ZN8opendnp314ICommandHeader19ApplySelectResponseERKNS_11ICollectionINS_7IndexedINS_19AnalogOutputFloat32EEEEE@GOTPCREL(%rip), %rax
	je	.L58
.L61:
	movq	%rbp, %rsi
	call	*%rax
	jmp	.L58
.L64:
	call	__stack_chk_fail@PLT
	.cfi_endproc
.LFE3254:
	.size	_ZN8opendnp313CommandSetOps13ProcessHeaderERKNS_12PrefixHeaderERKNS_11ICollectionINS_7IndexedINS_19AnalogOutputFloat32EEEEE, .-_ZN8opendnp313CommandSetOps13ProcessHeaderERKNS_12PrefixHeaderERKNS_11ICollectionINS_7IndexedINS_19AnalogOutputFloat32EEEEE
	.align 2
	.p2align 4
	.globl	_ZN8opendnp313CommandSetOps13ProcessHeaderERKNS_12PrefixHeaderERKNS_11ICollectionINS_7IndexedINS_20AnalogOutputDouble64EEEEE
	.type	_ZN8opendnp313CommandSetOps13ProcessHeaderERKNS_12PrefixHeaderERKNS_11ICollectionINS_7IndexedINS_20AnalogOutputDouble64EEEEE, @function
_ZN8opendnp313CommandSetOps13ProcessHeaderERKNS_12PrefixHeaderERKNS_11ICollectionINS_7IndexedINS_20AnalogOutputDouble64EEEEE:
.LFB3255:
	.cfi_startproc
	endbr64
	pushq	%r12
	.cfi_def_cfa_offset 16
	.cfi_offset 12, -16
	movq	%rdi, %r12
	movq	%rsi, %rdi
	pushq	%rbp
	.cfi_def_cfa_offset 24
	.cfi_offset 6, -24
	movq	%rdx, %rbp
	pushq	%rbx
	.cfi_def_cfa_offset 32
	.cfi_offset 3, -32
	movq	%rsi, %rbx
	subq	$16, %rsp
	.cfi_def_cfa_offset 48
	movq	%fs:40, %rax
	movq	%rax, 8(%rsp)
	xorl	%eax, %eax
	call	_ZNK8opendnp312HeaderRecord16GetQualifierCodeEv@PLT
	cmpb	$40, %al
	jne	.L74
	movq	24(%r12), %rax
	movl	12(%rbx), %ecx
	movq	(%rax), %rdx
	movq	8(%rax), %rax
	subq	%rdx, %rax
	sarq	$3, %rax
	cmpq	%rax, %rcx
	jnb	.L74
	movq	(%rdx,%rcx,8), %rdi
	cmpb	$0, 20(%r12)
	movq	(%rdi), %rax
	je	.L75
	movq	120(%rax), %rax
	cmpq	_ZN8opendnp314ICommandHeader20ApplyOperateResponseERKNS_11ICollectionINS_7IndexedINS_20AnalogOutputDouble64EEEEE@GOTPCREL(%rip), %rax
	jne	.L73
.L70:
	xorl	%edx, %edx
	xorl	%ecx, %ecx
	jmp	.L67
	.p2align 4,,10
	.p2align 3
.L74:
	xorl	%eax, %eax
	leaq	6(%rsp), %rdi
	movl	$10, %esi
	movw	%ax, 6(%rsp)
	call	_ZN8opendnp38IINField6SetBitENS_6IINBitE@PLT
	movzbl	6(%rsp), %ecx
	movzbl	7(%rsp), %edx
.L67:
	xorl	%eax, %eax
	movq	8(%rsp), %rbx
	xorq	%fs:40, %rbx
	movb	%cl, %al
	movb	%dl, %ah
	jne	.L76
	addq	$16, %rsp
	.cfi_remember_state
	.cfi_def_cfa_offset 32
	popq	%rbx
	.cfi_def_cfa_offset 24
	popq	%rbp
	.cfi_def_cfa_offset 16
	popq	%r12
	.cfi_def_cfa_offset 8
	ret
	.p2align 4,,10
	.p2align 3
.L75:
	.cfi_restore_state
	movq	80(%rax), %rax
	cmpq	_ZN8opendnp314ICommandHeader19ApplySelectResponseERKNS_11ICollectionINS_7IndexedINS_20AnalogOutputDouble64EEEEE@GOTPCREL(%rip), %rax
	je	.L70
.L73:
	movq	%rbp, %rsi
	call	*%rax
	jmp	.L70
.L76:
	call	__stack_chk_fail@PLT
	.cfi_endproc
.LFE3255:
	.size	_ZN8opendnp313CommandSetOps13ProcessHeaderERKNS_12PrefixHeaderERKNS_11ICollectionINS_7IndexedINS_20AnalogOutputDouble64EEEEE, .-_ZN8opendnp313CommandSetOps13ProcessHeaderERKNS_12PrefixHeaderERKNS_11ICollectionINS_7IndexedINS_20AnalogOutputDouble64EEEEE
	.align 2
	.p2align 4
	.globl	_ZN8opendnp313CommandSetOpsC2ENS0_4ModeERNS_10CommandSetE
	.type	_ZN8opendnp313CommandSetOpsC2ENS0_4ModeERNS_10CommandSetE, @function
_ZN8opendnp313CommandSetOpsC2ENS0_4ModeERNS_10CommandSetE:
.LFB3235:
	.cfi_startproc
	endbr64
	pushq	%r12
	.cfi_def_cfa_offset 16
	.cfi_offset 12, -16
	movl	%esi, %r12d
	pushq	%rbp
	.cfi_def_cfa_offset 24
	.cfi_offset 6, -24
	movq	%rdx, %rbp
	pushq	%rbx
	.cfi_def_cfa_offset 32
	.cfi_offset 3, -32
	movq	%rdi, %rbx
	call	_ZN8opendnp312IAPDUHandlerC2Ev@PLT
	movq	_ZTVN8opendnp313CommandSetOpsE@GOTPCREL(%rip), %rax
	movb	%r12b, 20(%rbx)
	movq	%rbp, 24(%rbx)
	addq	$16, %rax
	movq	%rax, (%rbx)
	popq	%rbx
	.cfi_def_cfa_offset 24
	popq	%rbp
	.cfi_def_cfa_offset 16
	popq	%r12
	.cfi_def_cfa_offset 8
	ret
	.cfi_endproc
.LFE3235:
	.size	_ZN8opendnp313CommandSetOpsC2ENS0_4ModeERNS_10CommandSetE, .-_ZN8opendnp313CommandSetOpsC2ENS0_4ModeERNS_10CommandSetE
	.globl	_ZN8opendnp313CommandSetOpsC1ENS0_4ModeERNS_10CommandSetE
	.set	_ZN8opendnp313CommandSetOpsC1ENS0_4ModeERNS_10CommandSetE,_ZN8opendnp313CommandSetOpsC2ENS0_4ModeERNS_10CommandSetE
	.align 2
	.p2align 4
	.globl	_ZN8opendnp313CommandSetOps5WriteERKNS_10CommandSetERNS_12HeaderWriterE
	.type	_ZN8opendnp313CommandSetOps5WriteERKNS_10CommandSetERNS_12HeaderWriterE, @function
_ZN8opendnp313CommandSetOps5WriteERKNS_10CommandSetERNS_12HeaderWriterE:
.LFB3237:
	.cfi_startproc
	endbr64
	pushq	%r12
	.cfi_def_cfa_offset 16
	.cfi_offset 12, -16
	pushq	%rbp
	.cfi_def_cfa_offset 24
	.cfi_offset 6, -24
	pushq	%rbx
	.cfi_def_cfa_offset 32
	.cfi_offset 3, -32
	movq	(%rdi), %rbx
	movq	8(%rdi), %r12
	cmpq	%r12, %rbx
	je	.L80
	movq	%rsi, %rbp
	jmp	.L82
	.p2align 4,,10
	.p2align 3
.L88:
	addq	$8, %rbx
	cmpq	%rbx, %r12
	je	.L80
.L82:
	movq	(%rbx), %rdi
	movq	%rbp, %rsi
	movq	(%rdi), %rax
	call	*32(%rax)
	testb	%al, %al
	jne	.L88
	popq	%rbx
	.cfi_remember_state
	.cfi_def_cfa_offset 24
	popq	%rbp
	.cfi_def_cfa_offset 16
	popq	%r12
	.cfi_def_cfa_offset 8
	ret
	.p2align 4,,10
	.p2align 3
.L80:
	.cfi_restore_state
	popq	%rbx
	.cfi_def_cfa_offset 24
	movl	$1, %eax
	popq	%rbp
	.cfi_def_cfa_offset 16
	popq	%r12
	.cfi_def_cfa_offset 8
	ret
	.cfi_endproc
.LFE3237:
	.size	_ZN8opendnp313CommandSetOps5WriteERKNS_10CommandSetERNS_12HeaderWriterE, .-_ZN8opendnp313CommandSetOps5WriteERKNS_10CommandSetERNS_12HeaderWriterE
	.align 2
	.p2align 4
	.globl	_ZN8opendnp313CommandSetOps14InvokeCallbackERKNS_10CommandSetENS_14TaskCompletionERSt8functionIFvRKNS_18ICommandTaskResultEEE
	.type	_ZN8opendnp313CommandSetOps14InvokeCallbackERKNS_10CommandSetENS_14TaskCompletionERSt8functionIFvRKNS_18ICommandTaskResultEEE, @function
_ZN8opendnp313CommandSetOps14InvokeCallbackERKNS_10CommandSetENS_14TaskCompletionERSt8functionIFvRKNS_18ICommandTaskResultEEE:
.LFB3238:
	.cfi_startproc
	endbr64
	pushq	%rbp
	.cfi_def_cfa_offset 16
	.cfi_offset 6, -16
	pushq	%rbx
	.cfi_def_cfa_offset 24
	.cfi_offset 3, -24
	movq	%rdx, %rbx
	movq	%rdi, %rdx
	subq	$40, %rsp
	.cfi_def_cfa_offset 64
	movq	%fs:40, %rax
	movq	%rax, 24(%rsp)
	xorl	%eax, %eax
	movq	%rsp, %rbp
	movq	%rbp, %rdi
	call	_ZN8opendnp317CommandTaskResultC1ENS_14TaskCompletionERKSt6vectorIPNS_14ICommandHeaderESaIS4_EE@PLT
	cmpq	$0, 16(%rbx)
	je	.L93
	movq	%rbp, %rsi
	movq	%rbx, %rdi
	call	*24(%rbx)
	movq	24(%rsp), %rax
	xorq	%fs:40, %rax
	jne	.L94
	addq	$40, %rsp
	.cfi_remember_state
	.cfi_def_cfa_offset 24
	popq	%rbx
	.cfi_def_cfa_offset 16
	popq	%rbp
	.cfi_def_cfa_offset 8
	ret
.L93:
	.cfi_restore_state
	call	_ZSt25__throw_bad_function_callv@PLT
.L94:
	call	__stack_chk_fail@PLT
	.cfi_endproc
.LFE3238:
	.size	_ZN8opendnp313CommandSetOps14InvokeCallbackERKNS_10CommandSetENS_14TaskCompletionERSt8functionIFvRKNS_18ICommandTaskResultEEE, .-_ZN8opendnp313CommandSetOps14InvokeCallbackERKNS_10CommandSetENS_14TaskCompletionERSt8functionIFvRKNS_18ICommandTaskResultEEE
	.align 2
	.p2align 4
	.globl	_ZN8opendnp313CommandSetOps21ProcessSelectResponseERNS_10CommandSetERKN7openpal6RSliceEPNS3_6LoggerE
	.type	_ZN8opendnp313CommandSetOps21ProcessSelectResponseERNS_10CommandSetERKN7openpal6RSliceEPNS3_6LoggerE, @function
_ZN8opendnp313CommandSetOps21ProcessSelectResponseERNS_10CommandSetERKN7openpal6RSliceEPNS3_6LoggerE:
.LFB3242:
	.cfi_startproc
	endbr64
	pushq	%r13
	.cfi_def_cfa_offset 16
	.cfi_offset 13, -16
	pushq	%r12
	.cfi_def_cfa_offset 24
	.cfi_offset 12, -24
	movq	%rdx, %r12
	movq	%rdi, %rdx
	pushq	%rbp
	.cfi_def_cfa_offset 32
	.cfi_offset 6, -32
	movq	%rsi, %rbp
	xorl	%esi, %esi
	pushq	%rbx
	.cfi_def_cfa_offset 40
	.cfi_offset 3, -40
	movq	%rdi, %rbx
	subq	$56, %rsp
	.cfi_def_cfa_offset 96
	movq	%fs:40, %rax
	movq	%rax, 40(%rsp)
	xorl	%eax, %eax
	movq	%rsp, %r13
	movq	%r13, %rdi
	call	_ZN8opendnp313CommandSetOpsC1ENS0_4ModeERNS_10CommandSetE@PLT
	movq	%r12, %rdx
	movq	%r13, %rsi
	movq	%rbp, %rdi
	movabsq	$35184372088833, %rcx
	movl	$1, %r12d
	call	_ZN8opendnp310APDUParser5ParseERKN7openpal6RSliceERNS_12IAPDUHandlerEPNS1_6LoggerENS_14ParserSettingsE@PLT
	testb	%al, %al
	je	.L129
.L95:
	movq	40(%rsp), %rax
	xorq	%fs:40, %rax
	jne	.L130
	addq	$56, %rsp
	.cfi_remember_state
	.cfi_def_cfa_offset 40
	movl	%r12d, %eax
	popq	%rbx
	.cfi_def_cfa_offset 32
	popq	%rbp
	.cfi_def_cfa_offset 24
	popq	%r12
	.cfi_def_cfa_offset 16
	popq	%r13
	.cfi_def_cfa_offset 8
	ret
	.p2align 4,,10
	.p2align 3
.L129:
	.cfi_restore_state
	movq	8(%rbx), %r13
	movq	(%rbx), %rbx
	movl	%eax, %r12d
	movq	%r13, %rbp
	subq	%rbx, %rbp
	movq	%rbp, %rax
	sarq	$5, %rbp
	sarq	$3, %rax
	testq	%rbp, %rbp
	jle	.L97
	salq	$5, %rbp
	addq	%rbx, %rbp
	jmp	.L102
	.p2align 4,,10
	.p2align 3
.L135:
	movq	8(%rbx), %rdi
	movq	(%rdi), %rax
	call	*40(%rax)
	testb	%al, %al
	je	.L131
	movq	16(%rbx), %rdi
	movq	(%rdi), %rax
	call	*40(%rax)
	testb	%al, %al
	je	.L132
	movq	24(%rbx), %rdi
	movq	(%rdi), %rax
	call	*40(%rax)
	testb	%al, %al
	je	.L133
	addq	$32, %rbx
	cmpq	%rbx, %rbp
	je	.L134
.L102:
	movq	(%rbx), %rdi
	movq	(%rdi), %rax
	call	*40(%rax)
	testb	%al, %al
	jne	.L135
.L98:
	cmpq	%rbx, %r13
	movl	$2, %eax
	cmovne	%eax, %r12d
	jmp	.L95
	.p2align 4,,10
	.p2align 3
.L134:
	movq	%r13, %rax
	subq	%rbx, %rax
	sarq	$3, %rax
.L97:
	cmpq	$2, %rax
	je	.L103
	cmpq	$3, %rax
	je	.L104
	cmpq	$1, %rax
	jne	.L95
.L105:
	movq	(%rbx), %rdi
	movq	(%rdi), %rax
	call	*40(%rax)
	testb	%al, %al
	jne	.L95
	jmp	.L98
	.p2align 4,,10
	.p2align 3
.L131:
	addq	$8, %rbx
	jmp	.L98
	.p2align 4,,10
	.p2align 3
.L132:
	addq	$16, %rbx
	jmp	.L98
	.p2align 4,,10
	.p2align 3
.L133:
	addq	$24, %rbx
	jmp	.L98
	.p2align 4,,10
	.p2align 3
.L104:
	movq	(%rbx), %rdi
	movq	(%rdi), %rax
	call	*40(%rax)
	testb	%al, %al
	je	.L98
	addq	$8, %rbx
.L103:
	movq	(%rbx), %rdi
	movq	(%rdi), %rax
	call	*40(%rax)
	testb	%al, %al
	je	.L98
	addq	$8, %rbx
	jmp	.L105
.L130:
	call	__stack_chk_fail@PLT
	.cfi_endproc
.LFE3242:
	.size	_ZN8opendnp313CommandSetOps21ProcessSelectResponseERNS_10CommandSetERKN7openpal6RSliceEPNS3_6LoggerE, .-_ZN8opendnp313CommandSetOps21ProcessSelectResponseERNS_10CommandSetERKN7openpal6RSliceEPNS3_6LoggerE
	.align 2
	.p2align 4
	.globl	_ZN8opendnp313CommandSetOps22ProcessOperateResponseERNS_10CommandSetERKN7openpal6RSliceEPNS3_6LoggerE
	.type	_ZN8opendnp313CommandSetOps22ProcessOperateResponseERNS_10CommandSetERKN7openpal6RSliceEPNS3_6LoggerE, @function
_ZN8opendnp313CommandSetOps22ProcessOperateResponseERNS_10CommandSetERKN7openpal6RSliceEPNS3_6LoggerE:
.LFB3249:
	.cfi_startproc
	endbr64
	pushq	%r13
	.cfi_def_cfa_offset 16
	.cfi_offset 13, -16
	pushq	%r12
	.cfi_def_cfa_offset 24
	.cfi_offset 12, -24
	movq	%rdx, %r12
	movq	%rdi, %rdx
	pushq	%rbp
	.cfi_def_cfa_offset 32
	.cfi_offset 6, -32
	movq	%rsi, %rbp
	movl	$1, %esi
	subq	$48, %rsp
	.cfi_def_cfa_offset 80
	movq	%fs:40, %rax
	movq	%rax, 40(%rsp)
	xorl	%eax, %eax
	movq	%rsp, %r13
	movq	%r13, %rdi
	call	_ZN8opendnp313CommandSetOpsC1ENS0_4ModeERNS_10CommandSetE@PLT
	movq	%r12, %rdx
	movq	%r13, %rsi
	movq	%rbp, %rdi
	movabsq	$35184372088833, %rcx
	call	_ZN8opendnp310APDUParser5ParseERKN7openpal6RSliceERNS_12IAPDUHandlerEPNS1_6LoggerENS_14ParserSettingsE@PLT
	testb	%al, %al
	setne	%al
	movq	40(%rsp), %rcx
	xorq	%fs:40, %rcx
	jne	.L139
	addq	$48, %rsp
	.cfi_remember_state
	.cfi_def_cfa_offset 32
	popq	%rbp
	.cfi_def_cfa_offset 24
	popq	%r12
	.cfi_def_cfa_offset 16
	popq	%r13
	.cfi_def_cfa_offset 8
	ret
.L139:
	.cfi_restore_state
	call	__stack_chk_fail@PLT
	.cfi_endproc
.LFE3249:
	.size	_ZN8opendnp313CommandSetOps22ProcessOperateResponseERNS_10CommandSetERKN7openpal6RSliceEPNS3_6LoggerE, .-_ZN8opendnp313CommandSetOps22ProcessOperateResponseERNS_10CommandSetERKN7openpal6RSliceEPNS3_6LoggerE
	.weak	_ZTSN7openpal10UncopyableE
	.section	.rodata._ZTSN7openpal10UncopyableE,"aG",@progbits,_ZTSN7openpal10UncopyableE,comdat
	.align 16
	.type	_ZTSN7openpal10UncopyableE, @object
	.size	_ZTSN7openpal10UncopyableE, 23
_ZTSN7openpal10UncopyableE:
	.string	"N7openpal10UncopyableE"
	.weak	_ZTIN7openpal10UncopyableE
	.section	.data.rel.ro._ZTIN7openpal10UncopyableE,"awG",@progbits,_ZTIN7openpal10UncopyableE,comdat
	.align 8
	.type	_ZTIN7openpal10UncopyableE, @object
	.size	_ZTIN7openpal10UncopyableE, 16
_ZTIN7openpal10UncopyableE:
	.quad	_ZTVN10__cxxabiv117__class_type_infoE+16
	.quad	_ZTSN7openpal10UncopyableE
	.weak	_ZTSN8opendnp313CommandSetOpsE
	.section	.rodata._ZTSN8opendnp313CommandSetOpsE,"aG",@progbits,_ZTSN8opendnp313CommandSetOpsE,comdat
	.align 16
	.type	_ZTSN8opendnp313CommandSetOpsE, @object
	.size	_ZTSN8opendnp313CommandSetOpsE, 27
_ZTSN8opendnp313CommandSetOpsE:
	.string	"N8opendnp313CommandSetOpsE"
	.weak	_ZTIN8opendnp313CommandSetOpsE
	.section	.data.rel.ro._ZTIN8opendnp313CommandSetOpsE,"awG",@progbits,_ZTIN8opendnp313CommandSetOpsE,comdat
	.align 8
	.type	_ZTIN8opendnp313CommandSetOpsE, @object
	.size	_ZTIN8opendnp313CommandSetOpsE, 56
_ZTIN8opendnp313CommandSetOpsE:
	.quad	_ZTVN10__cxxabiv121__vmi_class_type_infoE+16
	.quad	_ZTSN8opendnp313CommandSetOpsE
	.long	0
	.long	2
	.quad	_ZTIN8opendnp312IAPDUHandlerE
	.quad	2
	.quad	_ZTIN7openpal10UncopyableE
	.quad	0
	.weak	_ZTVN8opendnp313CommandSetOpsE
	.section	.data.rel.ro._ZTVN8opendnp313CommandSetOpsE,"awG",@progbits,_ZTVN8opendnp313CommandSetOpsE,comdat
	.align 8
	.type	_ZTVN8opendnp313CommandSetOpsE, @object
	.size	_ZTVN8opendnp313CommandSetOpsE, 448
_ZTVN8opendnp313CommandSetOpsE:
	.quad	0
	.quad	_ZTIN8opendnp313CommandSetOpsE
	.quad	_ZN8opendnp313CommandSetOps9IsAllowedEjNS_14GroupVariationENS_13QualifierCodeE
	.quad	_ZN8opendnp312IAPDUHandler13ProcessHeaderERKNS_16AllObjectsHeaderE
	.quad	_ZN8opendnp312IAPDUHandler13ProcessHeaderERKNS_11RangeHeaderE
	.quad	_ZN8opendnp312IAPDUHandler13ProcessHeaderERKNS_11CountHeaderE
	.quad	_ZN8opendnp312IAPDUHandler13ProcessHeaderERKNS_16FreeFormatHeaderERKNS_12Group120Var1ERKN7openpal6RSliceE
	.quad	_ZN8opendnp312IAPDUHandler13ProcessHeaderERKNS_16FreeFormatHeaderERKNS_12Group120Var2ERKN7openpal6RSliceE
	.quad	_ZN8opendnp312IAPDUHandler13ProcessHeaderERKNS_16FreeFormatHeaderERKNS_12Group120Var5ERKN7openpal6RSliceE
	.quad	_ZN8opendnp312IAPDUHandler13ProcessHeaderERKNS_16FreeFormatHeaderERKNS_12Group120Var6ERKN7openpal6RSliceE
	.quad	_ZN8opendnp312IAPDUHandler13ProcessHeaderERKNS_16FreeFormatHeaderERKNS_12Group120Var8ERKN7openpal6RSliceE
	.quad	_ZN8opendnp312IAPDUHandler13ProcessHeaderERKNS_16FreeFormatHeaderERKNS_12Group120Var7ERKN7openpal6RSliceE
	.quad	_ZN8opendnp312IAPDUHandler13ProcessHeaderERKNS_16FreeFormatHeaderERKNS_12Group120Var9ERKN7openpal6RSliceE
	.quad	_ZN8opendnp312IAPDUHandler13ProcessHeaderERKNS_16FreeFormatHeaderERKNS_13Group120Var10ERKN7openpal6RSliceE
	.quad	_ZN8opendnp312IAPDUHandler13ProcessHeaderERKNS_16FreeFormatHeaderERKNS_13Group120Var11ERKN7openpal6RSliceE
	.quad	_ZN8opendnp312IAPDUHandler13ProcessHeaderERKNS_16FreeFormatHeaderERKNS_13Group120Var12ERKN7openpal6RSliceE
	.quad	_ZN8opendnp312IAPDUHandler13ProcessHeaderERKNS_16FreeFormatHeaderERKNS_13Group120Var13ERKN7openpal6RSliceE
	.quad	_ZN8opendnp312IAPDUHandler13ProcessHeaderERKNS_16FreeFormatHeaderERKNS_13Group120Var14ERKN7openpal6RSliceE
	.quad	_ZN8opendnp312IAPDUHandler13ProcessHeaderERKNS_16FreeFormatHeaderERKNS_13Group120Var15ERKN7openpal6RSliceE
	.quad	_ZN8opendnp312IAPDUHandler13ProcessHeaderERKNS_11CountHeaderERKNS_11ICollectionINS_11Group50Var1EEE
	.quad	_ZN8opendnp312IAPDUHandler13ProcessHeaderERKNS_11CountHeaderERKNS_11ICollectionINS_11Group51Var1EEE
	.quad	_ZN8opendnp312IAPDUHandler13ProcessHeaderERKNS_11CountHeaderERKNS_11ICollectionINS_11Group51Var2EEE
	.quad	_ZN8opendnp312IAPDUHandler13ProcessHeaderERKNS_11CountHeaderERKNS_11ICollectionINS_11Group52Var1EEE
	.quad	_ZN8opendnp312IAPDUHandler13ProcessHeaderERKNS_11CountHeaderERKNS_11ICollectionINS_11Group52Var2EEE
	.quad	_ZN8opendnp312IAPDUHandler13ProcessHeaderERKNS_11CountHeaderERKNS_11ICollectionINS_12Group120Var3EEE
	.quad	_ZN8opendnp312IAPDUHandler13ProcessHeaderERKNS_11CountHeaderERKNS_11ICollectionINS_12Group120Var4EEE
	.quad	_ZN8opendnp312IAPDUHandler13ProcessHeaderERKNS_11RangeHeaderERKNS_11ICollectionINS_7IndexedINS_8IINValueEEEEE
	.quad	_ZN8opendnp312IAPDUHandler13ProcessHeaderERKNS_11RangeHeaderERKNS_11ICollectionINS_7IndexedINS_6BinaryEEEEE
	.quad	_ZN8opendnp312IAPDUHandler13ProcessHeaderERKNS_11RangeHeaderERKNS_11ICollectionINS_7IndexedINS_15DoubleBitBinaryEEEEE
	.quad	_ZN8opendnp312IAPDUHandler13ProcessHeaderERKNS_11RangeHeaderERKNS_11ICollectionINS_7IndexedINS_18BinaryOutputStatusEEEEE
	.quad	_ZN8opendnp312IAPDUHandler13ProcessHeaderERKNS_11RangeHeaderERKNS_11ICollectionINS_7IndexedINS_7CounterEEEEE
	.quad	_ZN8opendnp312IAPDUHandler13ProcessHeaderERKNS_11RangeHeaderERKNS_11ICollectionINS_7IndexedINS_13FrozenCounterEEEEE
	.quad	_ZN8opendnp312IAPDUHandler13ProcessHeaderERKNS_11RangeHeaderERKNS_11ICollectionINS_7IndexedINS_6AnalogEEEEE
	.quad	_ZN8opendnp312IAPDUHandler13ProcessHeaderERKNS_11RangeHeaderERKNS_11ICollectionINS_7IndexedINS_18AnalogOutputStatusEEEEE
	.quad	_ZN8opendnp312IAPDUHandler13ProcessHeaderERKNS_11RangeHeaderERKNS_11ICollectionINS_7IndexedINS_11OctetStringEEEEE
	.quad	_ZN8opendnp312IAPDUHandler13ProcessHeaderERKNS_11RangeHeaderERKNS_11ICollectionINS_7IndexedINS_15TimeAndIntervalEEEEE
	.quad	_ZN8opendnp312IAPDUHandler13ProcessHeaderERKNS_11RangeHeaderERKNS_11ICollectionINS_7IndexedINS_12Group121Var1EEEEE
	.quad	_ZN8opendnp312IAPDUHandler13ProcessHeaderERKNS_12PrefixHeaderERKNS_11ICollectionINS_7IndexedINS_6BinaryEEEEE
	.quad	_ZN8opendnp312IAPDUHandler13ProcessHeaderERKNS_12PrefixHeaderERKNS_11ICollectionINS_7IndexedINS_18BinaryOutputStatusEEEEE
	.quad	_ZN8opendnp312IAPDUHandler13ProcessHeaderERKNS_12PrefixHeaderERKNS_11ICollectionINS_7IndexedINS_15DoubleBitBinaryEEEEE
	.quad	_ZN8opendnp312IAPDUHandler13ProcessHeaderERKNS_12PrefixHeaderERKNS_11ICollectionINS_7IndexedINS_7CounterEEEEE
	.quad	_ZN8opendnp312IAPDUHandler13ProcessHeaderERKNS_12PrefixHeaderERKNS_11ICollectionINS_7IndexedINS_13FrozenCounterEEEEE
	.quad	_ZN8opendnp312IAPDUHandler13ProcessHeaderERKNS_12PrefixHeaderERKNS_11ICollectionINS_7IndexedINS_6AnalogEEEEE
	.quad	_ZN8opendnp312IAPDUHandler13ProcessHeaderERKNS_12PrefixHeaderERKNS_11ICollectionINS_7IndexedINS_18AnalogOutputStatusEEEEE
	.quad	_ZN8opendnp312IAPDUHandler13ProcessHeaderERKNS_12PrefixHeaderERKNS_11ICollectionINS_7IndexedINS_11OctetStringEEEEE
	.quad	_ZN8opendnp312IAPDUHandler13ProcessHeaderERKNS_12PrefixHeaderERKNS_11ICollectionINS_7IndexedINS_15TimeAndIntervalEEEEE
	.quad	_ZN8opendnp312IAPDUHandler13ProcessHeaderERKNS_12PrefixHeaderERKNS_11ICollectionINS_7IndexedINS_18BinaryCommandEventEEEEE
	.quad	_ZN8opendnp312IAPDUHandler13ProcessHeaderERKNS_12PrefixHeaderERKNS_11ICollectionINS_7IndexedINS_18AnalogCommandEventEEEEE
	.quad	_ZN8opendnp312IAPDUHandler13ProcessHeaderERKNS_12PrefixHeaderERKNS_11ICollectionINS_7IndexedINS_12Group122Var1EEEEE
	.quad	_ZN8opendnp312IAPDUHandler13ProcessHeaderERKNS_12PrefixHeaderERKNS_11ICollectionINS_7IndexedINS_12Group122Var2EEEEE
	.quad	_ZN8opendnp313CommandSetOps13ProcessHeaderERKNS_12PrefixHeaderERKNS_11ICollectionINS_7IndexedINS_23ControlRelayOutputBlockEEEEE
	.quad	_ZN8opendnp313CommandSetOps13ProcessHeaderERKNS_12PrefixHeaderERKNS_11ICollectionINS_7IndexedINS_17AnalogOutputInt16EEEEE
	.quad	_ZN8opendnp313CommandSetOps13ProcessHeaderERKNS_12PrefixHeaderERKNS_11ICollectionINS_7IndexedINS_17AnalogOutputInt32EEEEE
	.quad	_ZN8opendnp313CommandSetOps13ProcessHeaderERKNS_12PrefixHeaderERKNS_11ICollectionINS_7IndexedINS_19AnalogOutputFloat32EEEEE
	.quad	_ZN8opendnp313CommandSetOps13ProcessHeaderERKNS_12PrefixHeaderERKNS_11ICollectionINS_7IndexedINS_20AnalogOutputDouble64EEEEE
	.quad	_ZN8opendnp312IAPDUHandler14OnHeaderResultERKNS_12HeaderRecordERKNS_8IINFieldE
	.ident	"GCC: (Ubuntu 9.4.0-1ubuntu1~20.04.1) 9.4.0"
	.section	.note.GNU-stack,"",@progbits
	.section	.note.gnu.property,"a"
	.align 8
	.long	 1f - 0f
	.long	 4f - 1f
	.long	 5
0:
	.string	 "GNU"
1:
	.align 8
	.long	 0xc0000002
	.long	 3f - 2f
2:
	.long	 0x3
3:
	.align 8
4:
