	.file	"EmptyResponseTask.cpp"
	.text
	.section	.text._ZNK8opendnp311IMasterTask10IsAuthTaskEv,"axG",@progbits,_ZNK8opendnp311IMasterTask10IsAuthTaskEv,comdat
	.align 2
	.p2align 4
	.weak	_ZNK8opendnp311IMasterTask10IsAuthTaskEv
	.type	_ZNK8opendnp311IMasterTask10IsAuthTaskEv, @function
_ZNK8opendnp311IMasterTask10IsAuthTaskEv:
.LFB2400:
	.cfi_startproc
	endbr64
	xorl	%eax, %eax
	ret
	.cfi_endproc
.LFE2400:
	.size	_ZNK8opendnp311IMasterTask10IsAuthTaskEv, .-_ZNK8opendnp311IMasterTask10IsAuthTaskEv
	.section	.text._ZN8opendnp311IMasterTask10InitializeEv,"axG",@progbits,_ZN8opendnp311IMasterTask10InitializeEv,comdat
	.align 2
	.p2align 4
	.weak	_ZN8opendnp311IMasterTask10InitializeEv
	.type	_ZN8opendnp311IMasterTask10InitializeEv, @function
_ZN8opendnp311IMasterTask10InitializeEv:
.LFB2401:
	.cfi_startproc
	endbr64
	ret
	.cfi_endproc
.LFE2401:
	.size	_ZN8opendnp311IMasterTask10InitializeEv, .-_ZN8opendnp311IMasterTask10InitializeEv
	.section	.text._ZNK8opendnp321SimpleRequestTaskBase11IsRecurringEv,"axG",@progbits,_ZNK8opendnp321SimpleRequestTaskBase11IsRecurringEv,comdat
	.align 2
	.p2align 4
	.weak	_ZNK8opendnp321SimpleRequestTaskBase11IsRecurringEv
	.type	_ZNK8opendnp321SimpleRequestTaskBase11IsRecurringEv, @function
_ZNK8opendnp321SimpleRequestTaskBase11IsRecurringEv:
.LFB2402:
	.cfi_startproc
	endbr64
	xorl	%eax, %eax
	ret
	.cfi_endproc
.LFE2402:
	.size	_ZNK8opendnp321SimpleRequestTaskBase11IsRecurringEv, .-_ZNK8opendnp321SimpleRequestTaskBase11IsRecurringEv
	.section	.text._ZNK8opendnp321SimpleRequestTaskBase8PriorityEv,"axG",@progbits,_ZNK8opendnp321SimpleRequestTaskBase8PriorityEv,comdat
	.align 2
	.p2align 4
	.weak	_ZNK8opendnp321SimpleRequestTaskBase8PriorityEv
	.type	_ZNK8opendnp321SimpleRequestTaskBase8PriorityEv, @function
_ZNK8opendnp321SimpleRequestTaskBase8PriorityEv:
.LFB2403:
	.cfi_startproc
	endbr64
	movl	92(%rdi), %eax
	ret
	.cfi_endproc
.LFE2403:
	.size	_ZNK8opendnp321SimpleRequestTaskBase8PriorityEv, .-_ZNK8opendnp321SimpleRequestTaskBase8PriorityEv
	.section	.text._ZNK8opendnp321SimpleRequestTaskBase19BlocksLowerPriorityEv,"axG",@progbits,_ZNK8opendnp321SimpleRequestTaskBase19BlocksLowerPriorityEv,comdat
	.align 2
	.p2align 4
	.weak	_ZNK8opendnp321SimpleRequestTaskBase19BlocksLowerPriorityEv
	.type	_ZNK8opendnp321SimpleRequestTaskBase19BlocksLowerPriorityEv, @function
_ZNK8opendnp321SimpleRequestTaskBase19BlocksLowerPriorityEv:
.LFB2404:
	.cfi_startproc
	endbr64
	xorl	%eax, %eax
	ret
	.cfi_endproc
.LFE2404:
	.size	_ZNK8opendnp321SimpleRequestTaskBase19BlocksLowerPriorityEv, .-_ZNK8opendnp321SimpleRequestTaskBase19BlocksLowerPriorityEv
	.section	.text._ZNK8opendnp321SimpleRequestTaskBase9IsEnabledEv,"axG",@progbits,_ZNK8opendnp321SimpleRequestTaskBase9IsEnabledEv,comdat
	.align 2
	.p2align 4
	.weak	_ZNK8opendnp321SimpleRequestTaskBase9IsEnabledEv
	.type	_ZNK8opendnp321SimpleRequestTaskBase9IsEnabledEv, @function
_ZNK8opendnp321SimpleRequestTaskBase9IsEnabledEv:
.LFB2405:
	.cfi_startproc
	endbr64
	movl	$1, %eax
	ret
	.cfi_endproc
.LFE2405:
	.size	_ZNK8opendnp321SimpleRequestTaskBase9IsEnabledEv, .-_ZNK8opendnp321SimpleRequestTaskBase9IsEnabledEv
	.section	.text._ZNK8opendnp321SimpleRequestTaskBase11GetTaskTypeEv,"axG",@progbits,_ZNK8opendnp321SimpleRequestTaskBase11GetTaskTypeEv,comdat
	.align 2
	.p2align 4
	.weak	_ZNK8opendnp321SimpleRequestTaskBase11GetTaskTypeEv
	.type	_ZNK8opendnp321SimpleRequestTaskBase11GetTaskTypeEv, @function
_ZNK8opendnp321SimpleRequestTaskBase11GetTaskTypeEv:
.LFB2406:
	.cfi_startproc
	endbr64
	movl	$7, %eax
	ret
	.cfi_endproc
.LFE2406:
	.size	_ZNK8opendnp321SimpleRequestTaskBase11GetTaskTypeEv, .-_ZNK8opendnp321SimpleRequestTaskBase11GetTaskTypeEv
	.section	.text._ZNK8opendnp317EmptyResponseTask4NameEv,"axG",@progbits,_ZNK8opendnp317EmptyResponseTask4NameEv,comdat
	.align 2
	.p2align 4
	.weak	_ZNK8opendnp317EmptyResponseTask4NameEv
	.type	_ZNK8opendnp317EmptyResponseTask4NameEv, @function
_ZNK8opendnp317EmptyResponseTask4NameEv:
.LFB2407:
	.cfi_startproc
	endbr64
	movq	128(%rdi), %rax
	ret
	.cfi_endproc
.LFE2407:
	.size	_ZNK8opendnp317EmptyResponseTask4NameEv, .-_ZNK8opendnp317EmptyResponseTask4NameEv
	.text
	.align 2
	.p2align 4
	.globl	_ZN8opendnp317EmptyResponseTask15ProcessResponseERKNS_18APDUResponseHeaderERKN7openpal6RSliceE
	.type	_ZN8opendnp317EmptyResponseTask15ProcessResponseERKNS_18APDUResponseHeaderERKN7openpal6RSliceE, @function
_ZN8opendnp317EmptyResponseTask15ProcessResponseERKNS_18APDUResponseHeaderERKN7openpal6RSliceE:
.LFB2419:
	.cfi_startproc
	endbr64
	subq	$8, %rsp
	.cfi_def_cfa_offset 16
	call	_ZN8opendnp311IMasterTask20ValidateNullResponseERKNS_18APDUResponseHeaderERKN7openpal6RSliceE@PLT
	testb	%al, %al
	setne	%al
	addq	$8, %rsp
	.cfi_def_cfa_offset 8
	addl	%eax, %eax
	ret
	.cfi_endproc
.LFE2419:
	.size	_ZN8opendnp317EmptyResponseTask15ProcessResponseERKNS_18APDUResponseHeaderERKN7openpal6RSliceE, .-_ZN8opendnp317EmptyResponseTask15ProcessResponseERKNS_18APDUResponseHeaderERKN7openpal6RSliceE
	.section	.text._ZN8opendnp317EmptyResponseTask14OnTaskCompleteENS_14TaskCompletionEN7openpal18MonotonicTimestampE,"axG",@progbits,_ZN8opendnp317EmptyResponseTask14OnTaskCompleteENS_14TaskCompletionEN7openpal18MonotonicTimestampE,comdat
	.align 2
	.p2align 4
	.weak	_ZN8opendnp317EmptyResponseTask14OnTaskCompleteENS_14TaskCompletionEN7openpal18MonotonicTimestampE
	.type	_ZN8opendnp317EmptyResponseTask14OnTaskCompleteENS_14TaskCompletionEN7openpal18MonotonicTimestampE, @function
_ZN8opendnp317EmptyResponseTask14OnTaskCompleteENS_14TaskCompletionEN7openpal18MonotonicTimestampE:
.LFB2408:
	.cfi_startproc
	endbr64
	subq	$8, %rsp
	.cfi_def_cfa_offset 16
	call	_ZN7openpal18MonotonicTimestamp3MaxEv@PLT
	addq	$8, %rsp
	.cfi_def_cfa_offset 8
	movq	%rax, %rdx
	xorl	%eax, %eax
	ret
	.cfi_endproc
.LFE2408:
	.size	_ZN8opendnp317EmptyResponseTask14OnTaskCompleteENS_14TaskCompletionEN7openpal18MonotonicTimestampE, .-_ZN8opendnp317EmptyResponseTask14OnTaskCompleteENS_14TaskCompletionEN7openpal18MonotonicTimestampE
	.section	.text._ZN8opendnp317EmptyResponseTaskD0Ev,"axG",@progbits,_ZN8opendnp317EmptyResponseTaskD5Ev,comdat
	.align 2
	.p2align 4
	.weak	_ZN8opendnp317EmptyResponseTaskD0Ev
	.type	_ZN8opendnp317EmptyResponseTaskD0Ev, @function
_ZN8opendnp317EmptyResponseTaskD0Ev:
.LFB3044:
	.cfi_startproc
	.cfi_personality 0x9b,DW.ref.__gxx_personality_v0
	.cfi_lsda 0x1b,.LLSDA3044
	endbr64
	movq	_ZTVN8opendnp317EmptyResponseTaskE@GOTPCREL(%rip), %rax
	pushq	%rbp
	.cfi_def_cfa_offset 16
	.cfi_offset 6, -16
	movq	%rdi, %rbp
	addq	$16, %rax
	movq	%rax, (%rdi)
	movq	128(%rdi), %rdi
	leaq	144(%rbp), %rax
	cmpq	%rax, %rdi
	je	.L17
	call	_ZdlPv@PLT
.L17:
	movq	_ZTVN8opendnp321SimpleRequestTaskBaseE@GOTPCREL(%rip), %rax
	addq	$16, %rax
	movq	%rax, 0(%rbp)
	movq	112(%rbp), %rax
	testq	%rax, %rax
	je	.L18
	leaq	96(%rbp), %rdi
	movl	$3, %edx
	movq	%rdi, %rsi
	call	*%rax
.L18:
	movq	%rbp, %rdi
	call	_ZN8opendnp311IMasterTaskD2Ev@PLT
	movq	%rbp, %rdi
	movl	$160, %esi
	popq	%rbp
	.cfi_def_cfa_offset 8
	jmp	_ZdlPvm@PLT
	.cfi_endproc
.LFE3044:
	.globl	__gxx_personality_v0
	.section	.gcc_except_table._ZN8opendnp317EmptyResponseTaskD0Ev,"aG",@progbits,_ZN8opendnp317EmptyResponseTaskD5Ev,comdat
.LLSDA3044:
	.byte	0xff
	.byte	0xff
	.byte	0x1
	.uleb128 .LLSDACSE3044-.LLSDACSB3044
.LLSDACSB3044:
.LLSDACSE3044:
	.section	.text._ZN8opendnp317EmptyResponseTaskD0Ev,"axG",@progbits,_ZN8opendnp317EmptyResponseTaskD5Ev,comdat
	.size	_ZN8opendnp317EmptyResponseTaskD0Ev, .-_ZN8opendnp317EmptyResponseTaskD0Ev
	.section	.text._ZN8opendnp317EmptyResponseTaskD2Ev,"axG",@progbits,_ZN8opendnp317EmptyResponseTaskD5Ev,comdat
	.align 2
	.p2align 4
	.weak	_ZN8opendnp317EmptyResponseTaskD2Ev
	.type	_ZN8opendnp317EmptyResponseTaskD2Ev, @function
_ZN8opendnp317EmptyResponseTaskD2Ev:
.LFB3042:
	.cfi_startproc
	.cfi_personality 0x9b,DW.ref.__gxx_personality_v0
	.cfi_lsda 0x1b,.LLSDA3042
	endbr64
	movq	_ZTVN8opendnp317EmptyResponseTaskE@GOTPCREL(%rip), %rax
	pushq	%rbp
	.cfi_def_cfa_offset 16
	.cfi_offset 6, -16
	movq	%rdi, %rbp
	addq	$16, %rax
	movq	%rax, (%rdi)
	movq	128(%rdi), %rdi
	leaq	144(%rbp), %rax
	cmpq	%rax, %rdi
	je	.L24
	call	_ZdlPv@PLT
.L24:
	movq	_ZTVN8opendnp321SimpleRequestTaskBaseE@GOTPCREL(%rip), %rax
	addq	$16, %rax
	movq	%rax, 0(%rbp)
	movq	112(%rbp), %rax
	testq	%rax, %rax
	je	.L25
	leaq	96(%rbp), %rdi
	movl	$3, %edx
	movq	%rdi, %rsi
	call	*%rax
.L25:
	movq	%rbp, %rdi
	popq	%rbp
	.cfi_def_cfa_offset 8
	jmp	_ZN8opendnp311IMasterTaskD2Ev@PLT
	.cfi_endproc
.LFE3042:
	.section	.gcc_except_table._ZN8opendnp317EmptyResponseTaskD2Ev,"aG",@progbits,_ZN8opendnp317EmptyResponseTaskD5Ev,comdat
.LLSDA3042:
	.byte	0xff
	.byte	0xff
	.byte	0x1
	.uleb128 .LLSDACSE3042-.LLSDACSB3042
.LLSDACSB3042:
.LLSDACSE3042:
	.section	.text._ZN8opendnp317EmptyResponseTaskD2Ev,"axG",@progbits,_ZN8opendnp317EmptyResponseTaskD5Ev,comdat
	.size	_ZN8opendnp317EmptyResponseTaskD2Ev, .-_ZN8opendnp317EmptyResponseTaskD2Ev
	.weak	_ZN8opendnp317EmptyResponseTaskD1Ev
	.set	_ZN8opendnp317EmptyResponseTaskD1Ev,_ZN8opendnp317EmptyResponseTaskD2Ev
	.section	.text._ZN7openpal6LoggerD2Ev,"axG",@progbits,_ZN7openpal6LoggerD5Ev,comdat
	.align 2
	.p2align 4
	.weak	_ZN7openpal6LoggerD2Ev
	.type	_ZN7openpal6LoggerD2Ev, @function
_ZN7openpal6LoggerD2Ev:
.LFB2005:
	.cfi_startproc
	endbr64
	pushq	%r12
	.cfi_def_cfa_offset 16
	.cfi_offset 12, -16
	pushq	%rbp
	.cfi_def_cfa_offset 24
	.cfi_offset 6, -24
	pushq	%rbx
	.cfi_def_cfa_offset 32
	.cfi_offset 3, -32
	movq	24(%rdi), %rbp
	movq	%rdi, %rbx
	testq	%rbp, %rbp
	je	.L32
	movq	_ZL28__gthrw___pthread_key_createPjPFvPvE@GOTPCREL(%rip), %r12
	testq	%r12, %r12
	je	.L33
	movl	$-1, %eax
	lock xaddl	%eax, 8(%rbp)
	cmpl	$1, %eax
	je	.L46
	.p2align 4,,10
	.p2align 3
.L32:
	movq	8(%rbx), %rbp
	testq	%rbp, %rbp
	je	.L30
	movq	_ZL28__gthrw___pthread_key_createPjPFvPvE@GOTPCREL(%rip), %r12
	testq	%r12, %r12
	je	.L40
	movl	$-1, %eax
	lock xaddl	%eax, 8(%rbp)
	cmpl	$1, %eax
	je	.L47
.L30:
	popq	%rbx
	.cfi_remember_state
	.cfi_def_cfa_offset 24
	popq	%rbp
	.cfi_def_cfa_offset 16
	popq	%r12
	.cfi_def_cfa_offset 8
	ret
	.p2align 4,,10
	.p2align 3
.L33:
	.cfi_restore_state
	movl	8(%rbp), %eax
	leal	-1(%rax), %edx
	movl	%edx, 8(%rbp)
	cmpl	$1, %eax
	jne	.L32
.L46:
	movq	0(%rbp), %rax
	movq	%rbp, %rdi
	call	*16(%rax)
	testq	%r12, %r12
	je	.L36
	movl	$-1, %eax
	lock xaddl	%eax, 12(%rbp)
.L37:
	cmpl	$1, %eax
	jne	.L32
	movq	0(%rbp), %rax
	movq	%rbp, %rdi
	call	*24(%rax)
	jmp	.L32
	.p2align 4,,10
	.p2align 3
.L40:
	movl	8(%rbp), %eax
	leal	-1(%rax), %edx
	movl	%edx, 8(%rbp)
	cmpl	$1, %eax
	jne	.L30
.L47:
	movq	0(%rbp), %rax
	movq	%rbp, %rdi
	call	*16(%rax)
	testq	%r12, %r12
	je	.L43
	movl	$-1, %eax
	lock xaddl	%eax, 12(%rbp)
.L44:
	cmpl	$1, %eax
	jne	.L30
	movq	0(%rbp), %rax
	popq	%rbx
	.cfi_remember_state
	.cfi_def_cfa_offset 24
	movq	%rbp, %rdi
	popq	%rbp
	.cfi_def_cfa_offset 16
	popq	%r12
	.cfi_def_cfa_offset 8
	movq	24(%rax), %rax
	jmp	*%rax
	.p2align 4,,10
	.p2align 3
.L36:
	.cfi_restore_state
	movl	12(%rbp), %eax
	leal	-1(%rax), %edx
	movl	%edx, 12(%rbp)
	jmp	.L37
	.p2align 4,,10
	.p2align 3
.L43:
	movl	12(%rbp), %eax
	leal	-1(%rax), %edx
	movl	%edx, 12(%rbp)
	jmp	.L44
	.cfi_endproc
.LFE2005:
	.size	_ZN7openpal6LoggerD2Ev, .-_ZN7openpal6LoggerD2Ev
	.weak	_ZN7openpal6LoggerD1Ev
	.set	_ZN7openpal6LoggerD1Ev,_ZN7openpal6LoggerD2Ev
	.section	.rodata.str1.8,"aMS",@progbits,1
	.align 8
.LC0:
	.string	"basic_string::_M_construct null not valid"
	.section	.text.unlikely,"ax",@progbits
	.align 2
.LCOLDB1:
	.text
.LHOTB1:
	.align 2
	.p2align 4
	.globl	_ZN8opendnp317EmptyResponseTaskC2ERNS_18IMasterApplicationERKNSt7__cxx1112basic_stringIcSt11char_traitsIcESaIcEEENS_12FunctionCodeERKSt8functionIFbRNS_12HeaderWriterEEEN7openpal6LoggerERKNS_10TaskConfigE
	.type	_ZN8opendnp317EmptyResponseTaskC2ERNS_18IMasterApplicationERKNSt7__cxx1112basic_stringIcSt11char_traitsIcESaIcEEENS_12FunctionCodeERKSt8functionIFbRNS_12HeaderWriterEEEN7openpal6LoggerERKNS_10TaskConfigE, @function
_ZN8opendnp317EmptyResponseTaskC2ERNS_18IMasterApplicationERKNSt7__cxx1112basic_stringIcSt11char_traitsIcESaIcEEENS_12FunctionCodeERKSt8functionIFbRNS_12HeaderWriterEEEN7openpal6LoggerERKNS_10TaskConfigE:
.LFB2417:
	.cfi_startproc
	.cfi_personality 0x9b,DW.ref.__gxx_personality_v0
	.cfi_lsda 0x1b,.LLSDA2417
	endbr64
	pushq	%rbp
	.cfi_def_cfa_offset 16
	.cfi_offset 6, -16
	movq	%rsp, %rbp
	.cfi_def_cfa_register 6
	pushq	%r15
	.cfi_offset 15, -24
	movq	%rdi, %r15
	pushq	%r14
	pushq	%r13
	pushq	%r12
	.cfi_offset 14, -32
	.cfi_offset 13, -40
	.cfi_offset 12, -48
	movq	%rdx, %r12
	movl	%ecx, %edx
	pushq	%rbx
	subq	$56, %rsp
	.cfi_offset 3, -56
	movdqu	(%r9), %xmm0
	movq	16(%rbp), %rcx
	movq	%fs:40, %rax
	movq	%rax, -56(%rbp)
	xorl	%eax, %eax
	movq	8(%r9), %rax
	movaps	%xmm0, -96(%rbp)
	testq	%rax, %rax
	je	.L49
	cmpq	$0, _ZL28__gthrw___pthread_key_createPjPFvPvE@GOTPCREL(%rip)
	je	.L50
	lock addl	$1, 8(%rax)
.L49:
	movdqu	16(%r9), %xmm1
	movq	24(%r9), %rax
	movaps	%xmm1, -80(%rbp)
	testq	%rax, %rax
	je	.L51
	cmpq	$0, _ZL28__gthrw___pthread_key_createPjPFvPvE@GOTPCREL(%rip)
	je	.L52
	lock addl	$1, 8(%rax)
.L51:
	subq	$8, %rsp
	leaq	-96(%rbp), %r14
	movq	%r15, %rdi
	pushq	%rcx
	movq	%r14, %r9
	movl	$110, %ecx
.LEHB0:
	.cfi_escape 0x2e,0x10
	call	_ZN8opendnp321SimpleRequestTaskBaseC2ERNS_18IMasterApplicationENS_12FunctionCodeEiRKSt8functionIFbRNS_12HeaderWriterEEEN7openpal6LoggerERKNS_10TaskConfigE@PLT
.LEHE0:
	movq	-72(%rbp), %r13
	popq	%rax
	popq	%rdx
	testq	%r13, %r13
	je	.L54
	movq	_ZL28__gthrw___pthread_key_createPjPFvPvE@GOTPCREL(%rip), %rbx
	testq	%rbx, %rbx
	je	.L55
	movl	$-1, %eax
	lock xaddl	%eax, 8(%r13)
	cmpl	$1, %eax
	je	.L98
	.p2align 4,,10
	.p2align 3
.L54:
	movq	-88(%rbp), %r13
	testq	%r13, %r13
	je	.L61
	movq	_ZL28__gthrw___pthread_key_createPjPFvPvE@GOTPCREL(%rip), %rbx
	testq	%rbx, %rbx
	je	.L62
	movl	$-1, %eax
	lock xaddl	%eax, 8(%r13)
	cmpl	$1, %eax
	je	.L99
	.p2align 4,,10
	.p2align 3
.L61:
	movq	_ZTVN8opendnp317EmptyResponseTaskE@GOTPCREL(%rip), %rax
	leaq	144(%r15), %rdi
	movq	%rdi, 128(%r15)
	movq	(%r12), %r13
	addq	$16, %rax
	movq	8(%r12), %r12
	movq	%rax, (%r15)
	movq	%r13, %rax
	addq	%r12, %rax
	je	.L67
	testq	%r13, %r13
	je	.L100
.L67:
	movq	%r12, -96(%rbp)
	cmpq	$15, %r12
	ja	.L101
	cmpq	$1, %r12
	jne	.L70
	movzbl	0(%r13), %eax
	movb	%al, 144(%r15)
.L71:
	movq	%r12, 136(%r15)
	movb	$0, (%rdi,%r12)
	movq	-56(%rbp), %rax
	xorq	%fs:40, %rax
	jne	.L102
	leaq	-40(%rbp), %rsp
	popq	%rbx
	popq	%r12
	popq	%r13
	popq	%r14
	popq	%r15
	popq	%rbp
	.cfi_remember_state
	.cfi_def_cfa 7, 8
	ret
	.p2align 4,,10
	.p2align 3
.L70:
	.cfi_restore_state
	testq	%r12, %r12
	je	.L71
	jmp	.L69
	.p2align 4,,10
	.p2align 3
.L50:
	addl	$1, 8(%rax)
	jmp	.L49
	.p2align 4,,10
	.p2align 3
.L52:
	addl	$1, 8(%rax)
	jmp	.L51
	.p2align 4,,10
	.p2align 3
.L55:
	movl	8(%r13), %eax
	leal	-1(%rax), %edx
	movl	%edx, 8(%r13)
	cmpl	$1, %eax
	jne	.L54
.L98:
	movq	0(%r13), %rax
	movq	%r13, %rdi
	call	*16(%rax)
	testq	%rbx, %rbx
	je	.L58
	movl	$-1, %eax
	lock xaddl	%eax, 12(%r13)
.L59:
	cmpl	$1, %eax
	jne	.L54
	movq	0(%r13), %rax
	movq	%r13, %rdi
	call	*24(%rax)
	jmp	.L54
	.p2align 4,,10
	.p2align 3
.L62:
	movl	8(%r13), %eax
	leal	-1(%rax), %edx
	movl	%edx, 8(%r13)
	cmpl	$1, %eax
	jne	.L61
.L99:
	movq	0(%r13), %rax
	movq	%r13, %rdi
	call	*16(%rax)
	testq	%rbx, %rbx
	je	.L65
	movl	$-1, %eax
	lock xaddl	%eax, 12(%r13)
.L66:
	cmpl	$1, %eax
	jne	.L61
	movq	0(%r13), %rax
	movq	%r13, %rdi
	call	*24(%rax)
	jmp	.L61
	.p2align 4,,10
	.p2align 3
.L101:
	leaq	128(%r15), %rdi
	xorl	%edx, %edx
	movq	%r14, %rsi
.LEHB1:
	.cfi_escape 0x2e,0
	call	_ZNSt7__cxx1112basic_stringIcSt11char_traitsIcESaIcEE9_M_createERmm@PLT
	movq	%rax, 128(%r15)
	movq	%rax, %rdi
	movq	-96(%rbp), %rax
	movq	%rax, 144(%r15)
.L69:
	movq	%r12, %rdx
	movq	%r13, %rsi
	call	memcpy@PLT
	movq	-96(%rbp), %r12
	movq	128(%r15), %rdi
	jmp	.L71
	.p2align 4,,10
	.p2align 3
.L65:
	movl	12(%r13), %eax
	leal	-1(%rax), %edx
	movl	%edx, 12(%r13)
	jmp	.L66
	.p2align 4,,10
	.p2align 3
.L58:
	movl	12(%r13), %eax
	leal	-1(%rax), %edx
	movl	%edx, 12(%r13)
	jmp	.L59
.L100:
	leaq	.LC0(%rip), %rdi
	call	_ZSt19__throw_logic_errorPKc@PLT
.LEHE1:
.L102:
	call	__stack_chk_fail@PLT
.L76:
	endbr64
	movq	%rax, %rbx
	jmp	.L72
.L77:
	endbr64
	movq	%rax, %r12
	jmp	.L73
	.section	.gcc_except_table,"a",@progbits
.LLSDA2417:
	.byte	0xff
	.byte	0xff
	.byte	0x1
	.uleb128 .LLSDACSE2417-.LLSDACSB2417
.LLSDACSB2417:
	.uleb128 .LEHB0-.LFB2417
	.uleb128 .LEHE0-.LEHB0
	.uleb128 .L76-.LFB2417
	.uleb128 0
	.uleb128 .LEHB1-.LFB2417
	.uleb128 .LEHE1-.LEHB1
	.uleb128 .L77-.LFB2417
	.uleb128 0
.LLSDACSE2417:
	.text
	.cfi_endproc
	.section	.text.unlikely
	.cfi_startproc
	.cfi_personality 0x9b,DW.ref.__gxx_personality_v0
	.cfi_lsda 0x1b,.LLSDAC2417
	.type	_ZN8opendnp317EmptyResponseTaskC2ERNS_18IMasterApplicationERKNSt7__cxx1112basic_stringIcSt11char_traitsIcESaIcEEENS_12FunctionCodeERKSt8functionIFbRNS_12HeaderWriterEEEN7openpal6LoggerERKNS_10TaskConfigE.cold, @function
_ZN8opendnp317EmptyResponseTaskC2ERNS_18IMasterApplicationERKNSt7__cxx1112basic_stringIcSt11char_traitsIcESaIcEEENS_12FunctionCodeERKSt8functionIFbRNS_12HeaderWriterEEEN7openpal6LoggerERKNS_10TaskConfigE.cold:
.LFSB2417:
.L72:
	.cfi_def_cfa 6, 16
	.cfi_offset 3, -56
	.cfi_offset 6, -16
	.cfi_offset 12, -48
	.cfi_offset 13, -40
	.cfi_offset 14, -32
	.cfi_offset 15, -24
	movq	%r14, %rdi
	call	_ZN7openpal6LoggerD1Ev@PLT
	movq	%rbx, %rdi
.LEHB2:
	call	_Unwind_Resume@PLT
.LEHE2:
.L73:
	movq	_ZTVN8opendnp321SimpleRequestTaskBaseE@GOTPCREL(%rip), %rax
	addq	$16, %rax
	movq	%rax, (%r15)
	movq	112(%r15), %rax
	testq	%rax, %rax
	je	.L74
	leaq	96(%r15), %rdi
	movl	$3, %edx
	movq	%rdi, %rsi
	call	*%rax
.L74:
	movq	%r15, %rdi
	call	_ZN8opendnp311IMasterTaskD2Ev@PLT
	movq	%r12, %rdi
.LEHB3:
	call	_Unwind_Resume@PLT
.LEHE3:
	.cfi_endproc
.LFE2417:
	.section	.gcc_except_table
.LLSDAC2417:
	.byte	0xff
	.byte	0xff
	.byte	0x1
	.uleb128 .LLSDACSEC2417-.LLSDACSBC2417
.LLSDACSBC2417:
	.uleb128 .LEHB2-.LCOLDB1
	.uleb128 .LEHE2-.LEHB2
	.uleb128 0
	.uleb128 0
	.uleb128 .LEHB3-.LCOLDB1
	.uleb128 .LEHE3-.LEHB3
	.uleb128 0
	.uleb128 0
.LLSDACSEC2417:
	.section	.text.unlikely
	.text
	.size	_ZN8opendnp317EmptyResponseTaskC2ERNS_18IMasterApplicationERKNSt7__cxx1112basic_stringIcSt11char_traitsIcESaIcEEENS_12FunctionCodeERKSt8functionIFbRNS_12HeaderWriterEEEN7openpal6LoggerERKNS_10TaskConfigE, .-_ZN8opendnp317EmptyResponseTaskC2ERNS_18IMasterApplicationERKNSt7__cxx1112basic_stringIcSt11char_traitsIcESaIcEEENS_12FunctionCodeERKSt8functionIFbRNS_12HeaderWriterEEEN7openpal6LoggerERKNS_10TaskConfigE
	.section	.text.unlikely
	.size	_ZN8opendnp317EmptyResponseTaskC2ERNS_18IMasterApplicationERKNSt7__cxx1112basic_stringIcSt11char_traitsIcESaIcEEENS_12FunctionCodeERKSt8functionIFbRNS_12HeaderWriterEEEN7openpal6LoggerERKNS_10TaskConfigE.cold, .-_ZN8opendnp317EmptyResponseTaskC2ERNS_18IMasterApplicationERKNSt7__cxx1112basic_stringIcSt11char_traitsIcESaIcEEENS_12FunctionCodeERKSt8functionIFbRNS_12HeaderWriterEEEN7openpal6LoggerERKNS_10TaskConfigE.cold
.LCOLDE1:
	.text
.LHOTE1:
	.globl	_ZN8opendnp317EmptyResponseTaskC1ERNS_18IMasterApplicationERKNSt7__cxx1112basic_stringIcSt11char_traitsIcESaIcEEENS_12FunctionCodeERKSt8functionIFbRNS_12HeaderWriterEEEN7openpal6LoggerERKNS_10TaskConfigE
	.set	_ZN8opendnp317EmptyResponseTaskC1ERNS_18IMasterApplicationERKNSt7__cxx1112basic_stringIcSt11char_traitsIcESaIcEEENS_12FunctionCodeERKSt8functionIFbRNS_12HeaderWriterEEEN7openpal6LoggerERKNS_10TaskConfigE,_ZN8opendnp317EmptyResponseTaskC2ERNS_18IMasterApplicationERKNSt7__cxx1112basic_stringIcSt11char_traitsIcESaIcEEENS_12FunctionCodeERKSt8functionIFbRNS_12HeaderWriterEEEN7openpal6LoggerERKNS_10TaskConfigE
	.weak	_ZTSN8opendnp317EmptyResponseTaskE
	.section	.rodata._ZTSN8opendnp317EmptyResponseTaskE,"aG",@progbits,_ZTSN8opendnp317EmptyResponseTaskE,comdat
	.align 16
	.type	_ZTSN8opendnp317EmptyResponseTaskE, @object
	.size	_ZTSN8opendnp317EmptyResponseTaskE, 31
_ZTSN8opendnp317EmptyResponseTaskE:
	.string	"N8opendnp317EmptyResponseTaskE"
	.weak	_ZTIN8opendnp317EmptyResponseTaskE
	.section	.data.rel.ro._ZTIN8opendnp317EmptyResponseTaskE,"awG",@progbits,_ZTIN8opendnp317EmptyResponseTaskE,comdat
	.align 8
	.type	_ZTIN8opendnp317EmptyResponseTaskE, @object
	.size	_ZTIN8opendnp317EmptyResponseTaskE, 24
_ZTIN8opendnp317EmptyResponseTaskE:
	.quad	_ZTVN10__cxxabiv120__si_class_type_infoE+16
	.quad	_ZTSN8opendnp317EmptyResponseTaskE
	.quad	_ZTIN8opendnp321SimpleRequestTaskBaseE
	.weak	_ZTVN8opendnp317EmptyResponseTaskE
	.section	.data.rel.ro._ZTVN8opendnp317EmptyResponseTaskE,"awG",@progbits,_ZTVN8opendnp317EmptyResponseTaskE,comdat
	.align 8
	.type	_ZTVN8opendnp317EmptyResponseTaskE, @object
	.size	_ZTVN8opendnp317EmptyResponseTaskE, 120
_ZTVN8opendnp317EmptyResponseTaskE:
	.quad	0
	.quad	_ZTIN8opendnp317EmptyResponseTaskE
	.quad	_ZN8opendnp317EmptyResponseTaskD1Ev
	.quad	_ZN8opendnp317EmptyResponseTaskD0Ev
	.quad	_ZNK8opendnp311IMasterTask10IsAuthTaskEv
	.quad	_ZNK8opendnp317EmptyResponseTask4NameEv
	.quad	_ZNK8opendnp321SimpleRequestTaskBase8PriorityEv
	.quad	_ZNK8opendnp321SimpleRequestTaskBase19BlocksLowerPriorityEv
	.quad	_ZNK8opendnp321SimpleRequestTaskBase11IsRecurringEv
	.quad	_ZN8opendnp321SimpleRequestTaskBase12BuildRequestERNS_11APDURequestEh
	.quad	_ZN8opendnp311IMasterTask10InitializeEv
	.quad	_ZN8opendnp317EmptyResponseTask15ProcessResponseERKNS_18APDUResponseHeaderERKN7openpal6RSliceE
	.quad	_ZN8opendnp317EmptyResponseTask14OnTaskCompleteENS_14TaskCompletionEN7openpal18MonotonicTimestampE
	.quad	_ZNK8opendnp321SimpleRequestTaskBase9IsEnabledEv
	.quad	_ZNK8opendnp321SimpleRequestTaskBase11GetTaskTypeEv
	.weakref	_ZL28__gthrw___pthread_key_createPjPFvPvE,__pthread_key_create
	.hidden	DW.ref.__gxx_personality_v0
	.weak	DW.ref.__gxx_personality_v0
	.section	.data.rel.local.DW.ref.__gxx_personality_v0,"awG",@progbits,DW.ref.__gxx_personality_v0,comdat
	.align 8
	.type	DW.ref.__gxx_personality_v0, @object
	.size	DW.ref.__gxx_personality_v0, 8
DW.ref.__gxx_personality_v0:
	.quad	__gxx_personality_v0
	.ident	"GCC: (Ubuntu 9.4.0-1ubuntu1~20.04.1) 9.4.0"
	.section	.note.GNU-stack,"",@progbits
	.section	.note.gnu.property,"a"
	.align 8
	.long	 1f - 0f
	.long	 4f - 1f
	.long	 5
0:
	.string	 "GNU"
1:
	.align 8
	.long	 0xc0000002
	.long	 3f - 2f
2:
	.long	 0x3
3:
	.align 8
4:
