	.file	"Executor.cpp"
	.text
	.section	.rodata._ZNK4asio6detail15system_category4nameEv.str1.1,"aMS",@progbits,1
.LC0:
	.string	"asio.system"
	.section	.text._ZNK4asio6detail15system_category4nameEv,"axG",@progbits,_ZNK4asio6detail15system_category4nameEv,comdat
	.align 2
	.p2align 4
	.weak	_ZNK4asio6detail15system_category4nameEv
	.type	_ZNK4asio6detail15system_category4nameEv, @function
_ZNK4asio6detail15system_category4nameEv:
.LFB2343:
	.cfi_startproc
	endbr64
	leaq	.LC0(%rip), %rax
	ret
	.cfi_endproc
.LFE2343:
	.size	_ZNK4asio6detail15system_category4nameEv, .-_ZNK4asio6detail15system_category4nameEv
	.section	.rodata._ZNK4asio5error6detail14netdb_category4nameEv.str1.1,"aMS",@progbits,1
.LC1:
	.string	"asio.netdb"
	.section	.text._ZNK4asio5error6detail14netdb_category4nameEv,"axG",@progbits,_ZNK4asio5error6detail14netdb_category4nameEv,comdat
	.align 2
	.p2align 4
	.weak	_ZNK4asio5error6detail14netdb_category4nameEv
	.type	_ZNK4asio5error6detail14netdb_category4nameEv, @function
_ZNK4asio5error6detail14netdb_category4nameEv:
.LFB2383:
	.cfi_startproc
	endbr64
	leaq	.LC1(%rip), %rax
	ret
	.cfi_endproc
.LFE2383:
	.size	_ZNK4asio5error6detail14netdb_category4nameEv, .-_ZNK4asio5error6detail14netdb_category4nameEv
	.section	.rodata._ZNK4asio5error6detail17addrinfo_category4nameEv.str1.1,"aMS",@progbits,1
.LC2:
	.string	"asio.addrinfo"
	.section	.text._ZNK4asio5error6detail17addrinfo_category4nameEv,"axG",@progbits,_ZNK4asio5error6detail17addrinfo_category4nameEv,comdat
	.align 2
	.p2align 4
	.weak	_ZNK4asio5error6detail17addrinfo_category4nameEv
	.type	_ZNK4asio5error6detail17addrinfo_category4nameEv, @function
_ZNK4asio5error6detail17addrinfo_category4nameEv:
.LFB2389:
	.cfi_startproc
	endbr64
	leaq	.LC2(%rip), %rax
	ret
	.cfi_endproc
.LFE2389:
	.size	_ZNK4asio5error6detail17addrinfo_category4nameEv, .-_ZNK4asio5error6detail17addrinfo_category4nameEv
	.section	.rodata._ZNK4asio5error6detail13misc_category4nameEv.str1.1,"aMS",@progbits,1
.LC3:
	.string	"asio.misc"
	.section	.text._ZNK4asio5error6detail13misc_category4nameEv,"axG",@progbits,_ZNK4asio5error6detail13misc_category4nameEv,comdat
	.align 2
	.p2align 4
	.weak	_ZNK4asio5error6detail13misc_category4nameEv
	.type	_ZNK4asio5error6detail13misc_category4nameEv, @function
_ZNK4asio5error6detail13misc_category4nameEv:
.LFB2395:
	.cfi_startproc
	endbr64
	leaq	.LC3(%rip), %rax
	ret
	.cfi_endproc
.LFE2395:
	.size	_ZNK4asio5error6detail13misc_category4nameEv, .-_ZNK4asio5error6detail13misc_category4nameEv
	.section	.text._ZN4asio10io_service7service12fork_serviceENS0_10fork_eventE,"axG",@progbits,_ZN4asio10io_service7service12fork_serviceENS0_10fork_eventE,comdat
	.align 2
	.p2align 4
	.weak	_ZN4asio10io_service7service12fork_serviceENS0_10fork_eventE
	.type	_ZN4asio10io_service7service12fork_serviceENS0_10fork_eventE, @function
_ZN4asio10io_service7service12fork_serviceENS0_10fork_eventE:
.LFB3356:
	.cfi_startproc
	endbr64
	ret
	.cfi_endproc
.LFE3356:
	.size	_ZN4asio10io_service7service12fork_serviceENS0_10fork_eventE, .-_ZN4asio10io_service7service12fork_serviceENS0_10fork_eventE
	.section	.text._ZNSt13__future_base13_State_baseV217_M_complete_asyncEv,"axG",@progbits,_ZNSt13__future_base13_State_baseV217_M_complete_asyncEv,comdat
	.align 2
	.p2align 4
	.weak	_ZNSt13__future_base13_State_baseV217_M_complete_asyncEv
	.type	_ZNSt13__future_base13_State_baseV217_M_complete_asyncEv, @function
_ZNSt13__future_base13_State_baseV217_M_complete_asyncEv:
.LFB6625:
	.cfi_startproc
	endbr64
	ret
	.cfi_endproc
.LFE6625:
	.size	_ZNSt13__future_base13_State_baseV217_M_complete_asyncEv, .-_ZNSt13__future_base13_State_baseV217_M_complete_asyncEv
	.section	.text._ZNKSt13__future_base13_State_baseV221_M_is_deferred_futureEv,"axG",@progbits,_ZNKSt13__future_base13_State_baseV221_M_is_deferred_futureEv,comdat
	.align 2
	.p2align 4
	.weak	_ZNKSt13__future_base13_State_baseV221_M_is_deferred_futureEv
	.type	_ZNKSt13__future_base13_State_baseV221_M_is_deferred_futureEv, @function
_ZNKSt13__future_base13_State_baseV221_M_is_deferred_futureEv:
.LFB6626:
	.cfi_startproc
	endbr64
	xorl	%eax, %eax
	ret
	.cfi_endproc
.LFE6626:
	.size	_ZNKSt13__future_base13_State_baseV221_M_is_deferred_futureEv, .-_ZNKSt13__future_base13_State_baseV221_M_is_deferred_futureEv
	.section	.text._ZZSt9call_onceIMNSt13__future_base13_State_baseV2EFvPSt8functionIFSt10unique_ptrINS0_12_Result_baseENS4_8_DeleterEEvEEPbEJPS1_S9_SA_EEvRSt9once_flagOT_DpOT0_ENUlvE0_4_FUNEv,"axG",@progbits,_ZZSt9call_onceIMNSt13__future_base13_State_baseV2EFvPSt8functionIFSt10unique_ptrINS0_12_Result_baseENS4_8_DeleterEEvEEPbEJPS1_S9_SA_EEvRSt9once_flagOT_DpOT0_ENUlvE0_4_FUNEv,comdat
	.p2align 4
	.weak	_ZZSt9call_onceIMNSt13__future_base13_State_baseV2EFvPSt8functionIFSt10unique_ptrINS0_12_Result_baseENS4_8_DeleterEEvEEPbEJPS1_S9_SA_EEvRSt9once_flagOT_DpOT0_ENUlvE0_4_FUNEv
	.type	_ZZSt9call_onceIMNSt13__future_base13_State_baseV2EFvPSt8functionIFSt10unique_ptrINS0_12_Result_baseENS4_8_DeleterEEvEEPbEJPS1_S9_SA_EEvRSt9once_flagOT_DpOT0_ENUlvE0_4_FUNEv, @function
_ZZSt9call_onceIMNSt13__future_base13_State_baseV2EFvPSt8functionIFSt10unique_ptrINS0_12_Result_baseENS4_8_DeleterEEvEEPbEJPS1_S9_SA_EEvRSt9once_flagOT_DpOT0_ENUlvE0_4_FUNEv:
.LFB7558:
	.cfi_startproc
	endbr64
	subq	$8, %rsp
	.cfi_def_cfa_offset 16
	data16	leaq	_ZSt15__once_callable@tlsgd(%rip), %rdi
	.value	0x6666
	rex64
	call	__tls_get_addr@PLT
	movq	(%rax), %rax
	movq	16(%rax), %rcx
	movq	(%rax), %rdx
	movq	(%rcx), %rsi
	movq	24(%rax), %rcx
	movq	8(%rax), %rax
	movq	8(%rdx), %rdi
	movq	(%rcx), %r8
	addq	(%rax), %rdi
	movq	(%rdx), %rax
	testb	$1, %al
	je	.L10
	movq	(%rdi), %rdx
	movq	-1(%rdx,%rax), %rax
.L10:
	movq	%r8, %rdx
	addq	$8, %rsp
	.cfi_def_cfa_offset 8
	jmp	*%rax
	.cfi_endproc
.LFE7558:
	.size	_ZZSt9call_onceIMNSt13__future_base13_State_baseV2EFvPSt8functionIFSt10unique_ptrINS0_12_Result_baseENS4_8_DeleterEEvEEPbEJPS1_S9_SA_EEvRSt9once_flagOT_DpOT0_ENUlvE0_4_FUNEv, .-_ZZSt9call_onceIMNSt13__future_base13_State_baseV2EFvPSt8functionIFSt10unique_ptrINS0_12_Result_baseENS4_8_DeleterEEvEEPbEJPS1_S9_SA_EEvRSt9once_flagOT_DpOT0_ENUlvE0_4_FUNEv
	.section	.text._ZNSt15__exception_ptr12__dest_thunkISt12future_errorEEvPv,"axG",@progbits,_ZNSt15__exception_ptr12__dest_thunkISt12future_errorEEvPv,comdat
	.p2align 4
	.weak	_ZNSt15__exception_ptr12__dest_thunkISt12future_errorEEvPv
	.type	_ZNSt15__exception_ptr12__dest_thunkISt12future_errorEEvPv, @function
_ZNSt15__exception_ptr12__dest_thunkISt12future_errorEEvPv:
.LFB7993:
	.cfi_startproc
	endbr64
	movq	(%rdi), %rax
	jmp	*(%rax)
	.cfi_endproc
.LFE7993:
	.size	_ZNSt15__exception_ptr12__dest_thunkISt12future_errorEEvPv, .-_ZNSt15__exception_ptr12__dest_thunkISt12future_errorEEvPv
	.text
	.p2align 4
	.type	_ZNSt17_Function_handlerIFvvEZN7asiopal8Executor18BlockUntilAndFlushERKSt8functionIS0_EEUlvE_E9_M_invokeERKSt9_Any_data, @function
_ZNSt17_Function_handlerIFvvEZN7asiopal8Executor18BlockUntilAndFlushERKSt8functionIS0_EEUlvE_E9_M_invokeERKSt9_Any_data:
.LFB8134:
	.cfi_startproc
	endbr64
	ret
	.cfi_endproc
.LFE8134:
	.size	_ZNSt17_Function_handlerIFvvEZN7asiopal8Executor18BlockUntilAndFlushERKSt8functionIS0_EEUlvE_E9_M_invokeERKSt9_Any_data, .-_ZNSt17_Function_handlerIFvvEZN7asiopal8Executor18BlockUntilAndFlushERKSt8functionIS0_EEUlvE_E9_M_invokeERKSt9_Any_data
	.p2align 4
	.type	_ZNSt14_Function_base13_Base_managerIZN7asiopal8Executor18BlockUntilAndFlushERKSt8functionIFvvEEEUlvE_E10_M_managerERSt9_Any_dataRKSA_St18_Manager_operation, @function
_ZNSt14_Function_base13_Base_managerIZN7asiopal8Executor18BlockUntilAndFlushERKSt8functionIFvvEEEUlvE_E10_M_managerERSt9_Any_dataRKSA_St18_Manager_operation:
.LFB8135:
	.cfi_startproc
	endbr64
	cmpl	$1, %edx
	je	.L18
	cmpl	$3, %edx
	je	.L19
	testl	%edx, %edx
	je	.L23
.L19:
	xorl	%eax, %eax
	ret
	.p2align 4,,10
	.p2align 3
.L18:
	movq	%rsi, (%rdi)
	xorl	%eax, %eax
	ret
	.p2align 4,,10
	.p2align 3
.L23:
	leaq	_ZTIZN7asiopal8Executor18BlockUntilAndFlushERKSt8functionIFvvEEEUlvE_(%rip), %rax
	movq	%rax, (%rdi)
	xorl	%eax, %eax
	ret
	.cfi_endproc
.LFE8135:
	.size	_ZNSt14_Function_base13_Base_managerIZN7asiopal8Executor18BlockUntilAndFlushERKSt8functionIFvvEEEUlvE_E10_M_managerERSt9_Any_dataRKSA_St18_Manager_operation, .-_ZNSt14_Function_base13_Base_managerIZN7asiopal8Executor18BlockUntilAndFlushERKSt8functionIFvvEEEUlvE_E10_M_managerERSt9_Any_dataRKSA_St18_Manager_operation
	.section	.text._ZNSt17_Function_handlerIFSt10unique_ptrINSt13__future_base12_Result_baseENS2_8_DeleterEEvENS1_13_State_baseV27_SetterIbObEEE9_M_invokeERKSt9_Any_data,"axG",@progbits,_ZNSt17_Function_handlerIFSt10unique_ptrINSt13__future_base12_Result_baseENS2_8_DeleterEEvENS1_13_State_baseV27_SetterIbObEEE9_M_invokeERKSt9_Any_data,comdat
	.p2align 4
	.weak	_ZNSt17_Function_handlerIFSt10unique_ptrINSt13__future_base12_Result_baseENS2_8_DeleterEEvENS1_13_State_baseV27_SetterIbObEEE9_M_invokeERKSt9_Any_data
	.type	_ZNSt17_Function_handlerIFSt10unique_ptrINSt13__future_base12_Result_baseENS2_8_DeleterEEvENS1_13_State_baseV27_SetterIbObEEE9_M_invokeERKSt9_Any_data, @function
_ZNSt17_Function_handlerIFSt10unique_ptrINSt13__future_base12_Result_baseENS2_8_DeleterEEvENS1_13_State_baseV27_SetterIbObEEE9_M_invokeERKSt9_Any_data:
.LFB8403:
	.cfi_startproc
	endbr64
	movq	(%rsi), %rcx
	movq	8(%rsi), %rsi
	movq	%rdi, %rax
	movq	16(%rcx), %rdx
	movzbl	(%rsi), %esi
	movb	$1, 17(%rdx)
	movb	%sil, 16(%rdx)
	movq	$0, 16(%rcx)
	movq	%rdx, (%rdi)
	ret
	.cfi_endproc
.LFE8403:
	.size	_ZNSt17_Function_handlerIFSt10unique_ptrINSt13__future_base12_Result_baseENS2_8_DeleterEEvENS1_13_State_baseV27_SetterIbObEEE9_M_invokeERKSt9_Any_data, .-_ZNSt17_Function_handlerIFSt10unique_ptrINSt13__future_base12_Result_baseENS2_8_DeleterEEvENS1_13_State_baseV27_SetterIbObEEE9_M_invokeERKSt9_Any_data
	.section	.text._ZNSt14_Function_base13_Base_managerINSt13__future_base13_State_baseV27_SetterIbObEEE10_M_managerERSt9_Any_dataRKS7_St18_Manager_operation,"axG",@progbits,_ZNSt14_Function_base13_Base_managerINSt13__future_base13_State_baseV27_SetterIbObEEE10_M_managerERSt9_Any_dataRKS7_St18_Manager_operation,comdat
	.p2align 4
	.weak	_ZNSt14_Function_base13_Base_managerINSt13__future_base13_State_baseV27_SetterIbObEEE10_M_managerERSt9_Any_dataRKS7_St18_Manager_operation
	.type	_ZNSt14_Function_base13_Base_managerINSt13__future_base13_State_baseV27_SetterIbObEEE10_M_managerERSt9_Any_dataRKS7_St18_Manager_operation, @function
_ZNSt14_Function_base13_Base_managerINSt13__future_base13_State_baseV27_SetterIbObEEE10_M_managerERSt9_Any_dataRKS7_St18_Manager_operation:
.LFB8404:
	.cfi_startproc
	endbr64
	cmpl	$2, %edx
	je	.L26
	ja	.L27
	testl	%edx, %edx
	je	.L29
	movq	%rsi, (%rdi)
.L27:
	xorl	%eax, %eax
	ret
	.p2align 4,,10
	.p2align 3
.L26:
	movdqu	(%rsi), %xmm0
	xorl	%eax, %eax
	movups	%xmm0, (%rdi)
	ret
	.p2align 4,,10
	.p2align 3
.L29:
	movq	_ZTINSt13__future_base13_State_baseV27_SetterIbObEE@GOTPCREL(%rip), %rax
	movq	%rax, (%rdi)
	xorl	%eax, %eax
	ret
	.cfi_endproc
.LFE8404:
	.size	_ZNSt14_Function_base13_Base_managerINSt13__future_base13_State_baseV27_SetterIbObEEE10_M_managerERSt9_Any_dataRKS7_St18_Manager_operation, .-_ZNSt14_Function_base13_Base_managerINSt13__future_base13_State_baseV27_SetterIbObEEE10_M_managerERSt9_Any_dataRKS7_St18_Manager_operation
	.section	.text._ZNSt13__future_base13_State_baseV2D2Ev,"axG",@progbits,_ZNSt13__future_base13_State_baseV2D5Ev,comdat
	.align 2
	.p2align 4
	.weak	_ZNSt13__future_base13_State_baseV2D2Ev
	.type	_ZNSt13__future_base13_State_baseV2D2Ev, @function
_ZNSt13__future_base13_State_baseV2D2Ev:
.LFB9248:
	.cfi_startproc
	.cfi_personality 0x9b,DW.ref.__gxx_personality_v0
	.cfi_lsda 0x1b,.LLSDA9248
	endbr64
	movq	_ZTVNSt13__future_base13_State_baseV2E@GOTPCREL(%rip), %rax
	addq	$16, %rax
	movq	%rax, (%rdi)
	movq	8(%rdi), %rdi
	testq	%rdi, %rdi
	je	.L36
	subq	$8, %rsp
	.cfi_def_cfa_offset 16
	movq	(%rdi), %rax
	call	*(%rax)
	addq	$8, %rsp
	.cfi_def_cfa_offset 8
	ret
	.p2align 4,,10
	.p2align 3
.L36:
	ret
	.cfi_endproc
.LFE9248:
	.globl	__gxx_personality_v0
	.section	.gcc_except_table._ZNSt13__future_base13_State_baseV2D2Ev,"aG",@progbits,_ZNSt13__future_base13_State_baseV2D5Ev,comdat
.LLSDA9248:
	.byte	0xff
	.byte	0xff
	.byte	0x1
	.uleb128 .LLSDACSE9248-.LLSDACSB9248
.LLSDACSB9248:
.LLSDACSE9248:
	.section	.text._ZNSt13__future_base13_State_baseV2D2Ev,"axG",@progbits,_ZNSt13__future_base13_State_baseV2D5Ev,comdat
	.size	_ZNSt13__future_base13_State_baseV2D2Ev, .-_ZNSt13__future_base13_State_baseV2D2Ev
	.weak	_ZNSt13__future_base13_State_baseV2D1Ev
	.set	_ZNSt13__future_base13_State_baseV2D1Ev,_ZNSt13__future_base13_State_baseV2D2Ev
	.section	.text._ZN4asio6detail7tss_ptrINS0_10call_stackINS0_15task_io_serviceENS0_27task_io_service_thread_infoEE7contextEED2Ev,"axG",@progbits,_ZN4asio6detail7tss_ptrINS0_10call_stackINS0_15task_io_serviceENS0_27task_io_service_thread_infoEE7contextEED5Ev,comdat
	.align 2
	.p2align 4
	.weak	_ZN4asio6detail7tss_ptrINS0_10call_stackINS0_15task_io_serviceENS0_27task_io_service_thread_infoEE7contextEED2Ev
	.type	_ZN4asio6detail7tss_ptrINS0_10call_stackINS0_15task_io_serviceENS0_27task_io_service_thread_infoEE7contextEED2Ev, @function
_ZN4asio6detail7tss_ptrINS0_10call_stackINS0_15task_io_serviceENS0_27task_io_service_thread_infoEE7contextEED2Ev:
.LFB9313:
	.cfi_startproc
	endbr64
	ret
	.cfi_endproc
.LFE9313:
	.size	_ZN4asio6detail7tss_ptrINS0_10call_stackINS0_15task_io_serviceENS0_27task_io_service_thread_infoEE7contextEED2Ev, .-_ZN4asio6detail7tss_ptrINS0_10call_stackINS0_15task_io_serviceENS0_27task_io_service_thread_infoEE7contextEED2Ev
	.weak	_ZN4asio6detail7tss_ptrINS0_10call_stackINS0_15task_io_serviceENS0_27task_io_service_thread_infoEE7contextEED1Ev
	.set	_ZN4asio6detail7tss_ptrINS0_10call_stackINS0_15task_io_serviceENS0_27task_io_service_thread_infoEE7contextEED1Ev,_ZN4asio6detail7tss_ptrINS0_10call_stackINS0_15task_io_serviceENS0_27task_io_service_thread_infoEE7contextEED2Ev
	.section	.text._ZN4asio6detail10service_idINS0_13epoll_reactorEED2Ev,"axG",@progbits,_ZN4asio6detail10service_idINS0_13epoll_reactorEED5Ev,comdat
	.align 2
	.p2align 4
	.weak	_ZN4asio6detail10service_idINS0_13epoll_reactorEED2Ev
	.type	_ZN4asio6detail10service_idINS0_13epoll_reactorEED2Ev, @function
_ZN4asio6detail10service_idINS0_13epoll_reactorEED2Ev:
.LFB9316:
	.cfi_startproc
	endbr64
	ret
	.cfi_endproc
.LFE9316:
	.size	_ZN4asio6detail10service_idINS0_13epoll_reactorEED2Ev, .-_ZN4asio6detail10service_idINS0_13epoll_reactorEED2Ev
	.weak	_ZN4asio6detail10service_idINS0_13epoll_reactorEED1Ev
	.set	_ZN4asio6detail10service_idINS0_13epoll_reactorEED1Ev,_ZN4asio6detail10service_idINS0_13epoll_reactorEED2Ev
	.section	.text._ZN4asio6detail10service_idINS0_15task_io_serviceEED2Ev,"axG",@progbits,_ZN4asio6detail10service_idINS0_15task_io_serviceEED5Ev,comdat
	.align 2
	.p2align 4
	.weak	_ZN4asio6detail10service_idINS0_15task_io_serviceEED2Ev
	.type	_ZN4asio6detail10service_idINS0_15task_io_serviceEED2Ev, @function
_ZN4asio6detail10service_idINS0_15task_io_serviceEED2Ev:
.LFB9319:
	.cfi_startproc
	endbr64
	ret
	.cfi_endproc
.LFE9319:
	.size	_ZN4asio6detail10service_idINS0_15task_io_serviceEED2Ev, .-_ZN4asio6detail10service_idINS0_15task_io_serviceEED2Ev
	.weak	_ZN4asio6detail10service_idINS0_15task_io_serviceEED1Ev
	.set	_ZN4asio6detail10service_idINS0_15task_io_serviceEED1Ev,_ZN4asio6detail10service_idINS0_15task_io_serviceEED2Ev
	.section	.text._ZN4asio6detail7tss_ptrINS0_10call_stackINS0_14strand_service11strand_implEhE7contextEED2Ev,"axG",@progbits,_ZN4asio6detail7tss_ptrINS0_10call_stackINS0_14strand_service11strand_implEhE7contextEED5Ev,comdat
	.align 2
	.p2align 4
	.weak	_ZN4asio6detail7tss_ptrINS0_10call_stackINS0_14strand_service11strand_implEhE7contextEED2Ev
	.type	_ZN4asio6detail7tss_ptrINS0_10call_stackINS0_14strand_service11strand_implEhE7contextEED2Ev, @function
_ZN4asio6detail7tss_ptrINS0_10call_stackINS0_14strand_service11strand_implEhE7contextEED2Ev:
.LFB9322:
	.cfi_startproc
	endbr64
	ret
	.cfi_endproc
.LFE9322:
	.size	_ZN4asio6detail7tss_ptrINS0_10call_stackINS0_14strand_service11strand_implEhE7contextEED2Ev, .-_ZN4asio6detail7tss_ptrINS0_10call_stackINS0_14strand_service11strand_implEhE7contextEED2Ev
	.weak	_ZN4asio6detail7tss_ptrINS0_10call_stackINS0_14strand_service11strand_implEhE7contextEED1Ev
	.set	_ZN4asio6detail7tss_ptrINS0_10call_stackINS0_14strand_service11strand_implEhE7contextEED1Ev,_ZN4asio6detail7tss_ptrINS0_10call_stackINS0_14strand_service11strand_implEhE7contextEED2Ev
	.section	.text._ZN4asio6detail10service_idINS0_14strand_serviceEED2Ev,"axG",@progbits,_ZN4asio6detail10service_idINS0_14strand_serviceEED5Ev,comdat
	.align 2
	.p2align 4
	.weak	_ZN4asio6detail10service_idINS0_14strand_serviceEED2Ev
	.type	_ZN4asio6detail10service_idINS0_14strand_serviceEED2Ev, @function
_ZN4asio6detail10service_idINS0_14strand_serviceEED2Ev:
.LFB9325:
	.cfi_startproc
	endbr64
	ret
	.cfi_endproc
.LFE9325:
	.size	_ZN4asio6detail10service_idINS0_14strand_serviceEED2Ev, .-_ZN4asio6detail10service_idINS0_14strand_serviceEED2Ev
	.weak	_ZN4asio6detail10service_idINS0_14strand_serviceEED1Ev
	.set	_ZN4asio6detail10service_idINS0_14strand_serviceEED1Ev,_ZN4asio6detail10service_idINS0_14strand_serviceEED2Ev
	.section	.text._ZNSt23_Sp_counted_ptr_inplaceIN7asiopal5TimerESaIS1_ELN9__gnu_cxx12_Lock_policyE2EED2Ev,"axG",@progbits,_ZNSt23_Sp_counted_ptr_inplaceIN7asiopal5TimerESaIS1_ELN9__gnu_cxx12_Lock_policyE2EED5Ev,comdat
	.align 2
	.p2align 4
	.weak	_ZNSt23_Sp_counted_ptr_inplaceIN7asiopal5TimerESaIS1_ELN9__gnu_cxx12_Lock_policyE2EED2Ev
	.type	_ZNSt23_Sp_counted_ptr_inplaceIN7asiopal5TimerESaIS1_ELN9__gnu_cxx12_Lock_policyE2EED2Ev, @function
_ZNSt23_Sp_counted_ptr_inplaceIN7asiopal5TimerESaIS1_ELN9__gnu_cxx12_Lock_policyE2EED2Ev:
.LFB9328:
	.cfi_startproc
	endbr64
	ret
	.cfi_endproc
.LFE9328:
	.size	_ZNSt23_Sp_counted_ptr_inplaceIN7asiopal5TimerESaIS1_ELN9__gnu_cxx12_Lock_policyE2EED2Ev, .-_ZNSt23_Sp_counted_ptr_inplaceIN7asiopal5TimerESaIS1_ELN9__gnu_cxx12_Lock_policyE2EED2Ev
	.weak	_ZNSt23_Sp_counted_ptr_inplaceIN7asiopal5TimerESaIS1_ELN9__gnu_cxx12_Lock_policyE2EED1Ev
	.set	_ZNSt23_Sp_counted_ptr_inplaceIN7asiopal5TimerESaIS1_ELN9__gnu_cxx12_Lock_policyE2EED1Ev,_ZNSt23_Sp_counted_ptr_inplaceIN7asiopal5TimerESaIS1_ELN9__gnu_cxx12_Lock_policyE2EED2Ev
	.section	.text._ZNSt23_Sp_counted_ptr_inplaceINSt13__future_base13_State_baseV2ESaIS1_ELN9__gnu_cxx12_Lock_policyE2EED2Ev,"axG",@progbits,_ZNSt23_Sp_counted_ptr_inplaceINSt13__future_base13_State_baseV2ESaIS1_ELN9__gnu_cxx12_Lock_policyE2EED5Ev,comdat
	.align 2
	.p2align 4
	.weak	_ZNSt23_Sp_counted_ptr_inplaceINSt13__future_base13_State_baseV2ESaIS1_ELN9__gnu_cxx12_Lock_policyE2EED2Ev
	.type	_ZNSt23_Sp_counted_ptr_inplaceINSt13__future_base13_State_baseV2ESaIS1_ELN9__gnu_cxx12_Lock_policyE2EED2Ev, @function
_ZNSt23_Sp_counted_ptr_inplaceINSt13__future_base13_State_baseV2ESaIS1_ELN9__gnu_cxx12_Lock_policyE2EED2Ev:
.LFB9342:
	.cfi_startproc
	endbr64
	ret
	.cfi_endproc
.LFE9342:
	.size	_ZNSt23_Sp_counted_ptr_inplaceINSt13__future_base13_State_baseV2ESaIS1_ELN9__gnu_cxx12_Lock_policyE2EED2Ev, .-_ZNSt23_Sp_counted_ptr_inplaceINSt13__future_base13_State_baseV2ESaIS1_ELN9__gnu_cxx12_Lock_policyE2EED2Ev
	.weak	_ZNSt23_Sp_counted_ptr_inplaceINSt13__future_base13_State_baseV2ESaIS1_ELN9__gnu_cxx12_Lock_policyE2EED1Ev
	.set	_ZNSt23_Sp_counted_ptr_inplaceINSt13__future_base13_State_baseV2ESaIS1_ELN9__gnu_cxx12_Lock_policyE2EED1Ev,_ZNSt23_Sp_counted_ptr_inplaceINSt13__future_base13_State_baseV2ESaIS1_ELN9__gnu_cxx12_Lock_policyE2EED2Ev
	.section	.text._ZNSt23_Sp_counted_ptr_inplaceINSt13__future_base13_State_baseV2ESaIS1_ELN9__gnu_cxx12_Lock_policyE2EE10_M_disposeEv,"axG",@progbits,_ZNSt23_Sp_counted_ptr_inplaceINSt13__future_base13_State_baseV2ESaIS1_ELN9__gnu_cxx12_Lock_policyE2EE10_M_disposeEv,comdat
	.align 2
	.p2align 4
	.weak	_ZNSt23_Sp_counted_ptr_inplaceINSt13__future_base13_State_baseV2ESaIS1_ELN9__gnu_cxx12_Lock_policyE2EE10_M_disposeEv
	.type	_ZNSt23_Sp_counted_ptr_inplaceINSt13__future_base13_State_baseV2ESaIS1_ELN9__gnu_cxx12_Lock_policyE2EE10_M_disposeEv, @function
_ZNSt23_Sp_counted_ptr_inplaceINSt13__future_base13_State_baseV2ESaIS1_ELN9__gnu_cxx12_Lock_policyE2EE10_M_disposeEv:
.LFB9345:
	.cfi_startproc
	endbr64
	movq	16(%rdi), %rax
	leaq	16(%rdi), %r8
	movq	%r8, %rdi
	movq	(%rax), %rax
	jmp	*%rax
	.cfi_endproc
.LFE9345:
	.size	_ZNSt23_Sp_counted_ptr_inplaceINSt13__future_base13_State_baseV2ESaIS1_ELN9__gnu_cxx12_Lock_policyE2EE10_M_disposeEv, .-_ZNSt23_Sp_counted_ptr_inplaceINSt13__future_base13_State_baseV2ESaIS1_ELN9__gnu_cxx12_Lock_policyE2EE10_M_disposeEv
	.section	.text._ZNSt13__future_base13_State_baseV2D0Ev,"axG",@progbits,_ZNSt13__future_base13_State_baseV2D5Ev,comdat
	.align 2
	.p2align 4
	.weak	_ZNSt13__future_base13_State_baseV2D0Ev
	.type	_ZNSt13__future_base13_State_baseV2D0Ev, @function
_ZNSt13__future_base13_State_baseV2D0Ev:
.LFB9250:
	.cfi_startproc
	.cfi_personality 0x9b,DW.ref.__gxx_personality_v0
	.cfi_lsda 0x1b,.LLSDA9250
	endbr64
	movq	_ZTVNSt13__future_base13_State_baseV2E@GOTPCREL(%rip), %rax
	pushq	%rbp
	.cfi_def_cfa_offset 16
	.cfi_offset 6, -16
	movq	%rdi, %rbp
	addq	$16, %rax
	movq	%rax, (%rdi)
	movq	8(%rdi), %rdi
	testq	%rdi, %rdi
	je	.L48
	movq	(%rdi), %rax
	call	*(%rax)
.L48:
	movq	%rbp, %rdi
	movl	$32, %esi
	popq	%rbp
	.cfi_def_cfa_offset 8
	jmp	_ZdlPvm@PLT
	.cfi_endproc
.LFE9250:
	.section	.gcc_except_table._ZNSt13__future_base13_State_baseV2D0Ev,"aG",@progbits,_ZNSt13__future_base13_State_baseV2D5Ev,comdat
.LLSDA9250:
	.byte	0xff
	.byte	0xff
	.byte	0x1
	.uleb128 .LLSDACSE9250-.LLSDACSB9250
.LLSDACSB9250:
.LLSDACSE9250:
	.section	.text._ZNSt13__future_base13_State_baseV2D0Ev,"axG",@progbits,_ZNSt13__future_base13_State_baseV2D5Ev,comdat
	.size	_ZNSt13__future_base13_State_baseV2D0Ev, .-_ZNSt13__future_base13_State_baseV2D0Ev
	.section	.text._ZNSt23_Sp_counted_ptr_inplaceINSt13__future_base13_State_baseV2ESaIS1_ELN9__gnu_cxx12_Lock_policyE2EED0Ev,"axG",@progbits,_ZNSt23_Sp_counted_ptr_inplaceINSt13__future_base13_State_baseV2ESaIS1_ELN9__gnu_cxx12_Lock_policyE2EED5Ev,comdat
	.align 2
	.p2align 4
	.weak	_ZNSt23_Sp_counted_ptr_inplaceINSt13__future_base13_State_baseV2ESaIS1_ELN9__gnu_cxx12_Lock_policyE2EED0Ev
	.type	_ZNSt23_Sp_counted_ptr_inplaceINSt13__future_base13_State_baseV2ESaIS1_ELN9__gnu_cxx12_Lock_policyE2EED0Ev, @function
_ZNSt23_Sp_counted_ptr_inplaceINSt13__future_base13_State_baseV2ESaIS1_ELN9__gnu_cxx12_Lock_policyE2EED0Ev:
.LFB9344:
	.cfi_startproc
	endbr64
	movl	$48, %esi
	jmp	_ZdlPvm@PLT
	.cfi_endproc
.LFE9344:
	.size	_ZNSt23_Sp_counted_ptr_inplaceINSt13__future_base13_State_baseV2ESaIS1_ELN9__gnu_cxx12_Lock_policyE2EED0Ev, .-_ZNSt23_Sp_counted_ptr_inplaceINSt13__future_base13_State_baseV2ESaIS1_ELN9__gnu_cxx12_Lock_policyE2EED0Ev
	.section	.text._ZNSt23_Sp_counted_ptr_inplaceIN7asiopal5TimerESaIS1_ELN9__gnu_cxx12_Lock_policyE2EED0Ev,"axG",@progbits,_ZNSt23_Sp_counted_ptr_inplaceIN7asiopal5TimerESaIS1_ELN9__gnu_cxx12_Lock_policyE2EED5Ev,comdat
	.align 2
	.p2align 4
	.weak	_ZNSt23_Sp_counted_ptr_inplaceIN7asiopal5TimerESaIS1_ELN9__gnu_cxx12_Lock_policyE2EED0Ev
	.type	_ZNSt23_Sp_counted_ptr_inplaceIN7asiopal5TimerESaIS1_ELN9__gnu_cxx12_Lock_policyE2EED0Ev, @function
_ZNSt23_Sp_counted_ptr_inplaceIN7asiopal5TimerESaIS1_ELN9__gnu_cxx12_Lock_policyE2EED0Ev:
.LFB9330:
	.cfi_startproc
	endbr64
	movl	$88, %esi
	jmp	_ZdlPvm@PLT
	.cfi_endproc
.LFE9330:
	.size	_ZNSt23_Sp_counted_ptr_inplaceIN7asiopal5TimerESaIS1_ELN9__gnu_cxx12_Lock_policyE2EED0Ev, .-_ZNSt23_Sp_counted_ptr_inplaceIN7asiopal5TimerESaIS1_ELN9__gnu_cxx12_Lock_policyE2EED0Ev
	.section	.text._ZN4asio6detail15system_categoryD2Ev,"axG",@progbits,_ZN4asio6detail15system_categoryD5Ev,comdat
	.align 2
	.p2align 4
	.weak	_ZN4asio6detail15system_categoryD2Ev
	.type	_ZN4asio6detail15system_categoryD2Ev, @function
_ZN4asio6detail15system_categoryD2Ev:
.LFB9292:
	.cfi_startproc
	endbr64
	movq	_ZTVN4asio6detail15system_categoryE@GOTPCREL(%rip), %rax
	addq	$16, %rax
	movq	%rax, (%rdi)
	jmp	_ZNSt3_V214error_categoryD2Ev@PLT
	.cfi_endproc
.LFE9292:
	.size	_ZN4asio6detail15system_categoryD2Ev, .-_ZN4asio6detail15system_categoryD2Ev
	.weak	_ZN4asio6detail15system_categoryD1Ev
	.set	_ZN4asio6detail15system_categoryD1Ev,_ZN4asio6detail15system_categoryD2Ev
	.section	.text._ZN4asio6detail15system_categoryD0Ev,"axG",@progbits,_ZN4asio6detail15system_categoryD5Ev,comdat
	.align 2
	.p2align 4
	.weak	_ZN4asio6detail15system_categoryD0Ev
	.type	_ZN4asio6detail15system_categoryD0Ev, @function
_ZN4asio6detail15system_categoryD0Ev:
.LFB9294:
	.cfi_startproc
	endbr64
	movq	_ZTVN4asio6detail15system_categoryE@GOTPCREL(%rip), %rax
	pushq	%rbp
	.cfi_def_cfa_offset 16
	.cfi_offset 6, -16
	movq	%rdi, %rbp
	addq	$16, %rax
	movq	%rax, (%rdi)
	call	_ZNSt3_V214error_categoryD2Ev@PLT
	movq	%rbp, %rdi
	movl	$8, %esi
	popq	%rbp
	.cfi_def_cfa_offset 8
	jmp	_ZdlPvm@PLT
	.cfi_endproc
.LFE9294:
	.size	_ZN4asio6detail15system_categoryD0Ev, .-_ZN4asio6detail15system_categoryD0Ev
	.section	.text._ZN4asio5error6detail14netdb_categoryD2Ev,"axG",@progbits,_ZN4asio5error6detail14netdb_categoryD5Ev,comdat
	.align 2
	.p2align 4
	.weak	_ZN4asio5error6detail14netdb_categoryD2Ev
	.type	_ZN4asio5error6detail14netdb_categoryD2Ev, @function
_ZN4asio5error6detail14netdb_categoryD2Ev:
.LFB9280:
	.cfi_startproc
	endbr64
	movq	_ZTVN4asio5error6detail14netdb_categoryE@GOTPCREL(%rip), %rax
	addq	$16, %rax
	movq	%rax, (%rdi)
	jmp	_ZNSt3_V214error_categoryD2Ev@PLT
	.cfi_endproc
.LFE9280:
	.size	_ZN4asio5error6detail14netdb_categoryD2Ev, .-_ZN4asio5error6detail14netdb_categoryD2Ev
	.weak	_ZN4asio5error6detail14netdb_categoryD1Ev
	.set	_ZN4asio5error6detail14netdb_categoryD1Ev,_ZN4asio5error6detail14netdb_categoryD2Ev
	.section	.text._ZN4asio5error6detail14netdb_categoryD0Ev,"axG",@progbits,_ZN4asio5error6detail14netdb_categoryD5Ev,comdat
	.align 2
	.p2align 4
	.weak	_ZN4asio5error6detail14netdb_categoryD0Ev
	.type	_ZN4asio5error6detail14netdb_categoryD0Ev, @function
_ZN4asio5error6detail14netdb_categoryD0Ev:
.LFB9282:
	.cfi_startproc
	endbr64
	movq	_ZTVN4asio5error6detail14netdb_categoryE@GOTPCREL(%rip), %rax
	pushq	%rbp
	.cfi_def_cfa_offset 16
	.cfi_offset 6, -16
	movq	%rdi, %rbp
	addq	$16, %rax
	movq	%rax, (%rdi)
	call	_ZNSt3_V214error_categoryD2Ev@PLT
	movq	%rbp, %rdi
	movl	$8, %esi
	popq	%rbp
	.cfi_def_cfa_offset 8
	jmp	_ZdlPvm@PLT
	.cfi_endproc
.LFE9282:
	.size	_ZN4asio5error6detail14netdb_categoryD0Ev, .-_ZN4asio5error6detail14netdb_categoryD0Ev
	.section	.text._ZN4asio5error6detail17addrinfo_categoryD2Ev,"axG",@progbits,_ZN4asio5error6detail17addrinfo_categoryD5Ev,comdat
	.align 2
	.p2align 4
	.weak	_ZN4asio5error6detail17addrinfo_categoryD2Ev
	.type	_ZN4asio5error6detail17addrinfo_categoryD2Ev, @function
_ZN4asio5error6detail17addrinfo_categoryD2Ev:
.LFB9276:
	.cfi_startproc
	endbr64
	movq	_ZTVN4asio5error6detail17addrinfo_categoryE@GOTPCREL(%rip), %rax
	addq	$16, %rax
	movq	%rax, (%rdi)
	jmp	_ZNSt3_V214error_categoryD2Ev@PLT
	.cfi_endproc
.LFE9276:
	.size	_ZN4asio5error6detail17addrinfo_categoryD2Ev, .-_ZN4asio5error6detail17addrinfo_categoryD2Ev
	.weak	_ZN4asio5error6detail17addrinfo_categoryD1Ev
	.set	_ZN4asio5error6detail17addrinfo_categoryD1Ev,_ZN4asio5error6detail17addrinfo_categoryD2Ev
	.section	.text._ZN4asio5error6detail17addrinfo_categoryD0Ev,"axG",@progbits,_ZN4asio5error6detail17addrinfo_categoryD5Ev,comdat
	.align 2
	.p2align 4
	.weak	_ZN4asio5error6detail17addrinfo_categoryD0Ev
	.type	_ZN4asio5error6detail17addrinfo_categoryD0Ev, @function
_ZN4asio5error6detail17addrinfo_categoryD0Ev:
.LFB9278:
	.cfi_startproc
	endbr64
	movq	_ZTVN4asio5error6detail17addrinfo_categoryE@GOTPCREL(%rip), %rax
	pushq	%rbp
	.cfi_def_cfa_offset 16
	.cfi_offset 6, -16
	movq	%rdi, %rbp
	addq	$16, %rax
	movq	%rax, (%rdi)
	call	_ZNSt3_V214error_categoryD2Ev@PLT
	movq	%rbp, %rdi
	movl	$8, %esi
	popq	%rbp
	.cfi_def_cfa_offset 8
	jmp	_ZdlPvm@PLT
	.cfi_endproc
.LFE9278:
	.size	_ZN4asio5error6detail17addrinfo_categoryD0Ev, .-_ZN4asio5error6detail17addrinfo_categoryD0Ev
	.section	.text._ZN4asio5error6detail13misc_categoryD2Ev,"axG",@progbits,_ZN4asio5error6detail13misc_categoryD5Ev,comdat
	.align 2
	.p2align 4
	.weak	_ZN4asio5error6detail13misc_categoryD2Ev
	.type	_ZN4asio5error6detail13misc_categoryD2Ev, @function
_ZN4asio5error6detail13misc_categoryD2Ev:
.LFB9272:
	.cfi_startproc
	endbr64
	movq	_ZTVN4asio5error6detail13misc_categoryE@GOTPCREL(%rip), %rax
	addq	$16, %rax
	movq	%rax, (%rdi)
	jmp	_ZNSt3_V214error_categoryD2Ev@PLT
	.cfi_endproc
.LFE9272:
	.size	_ZN4asio5error6detail13misc_categoryD2Ev, .-_ZN4asio5error6detail13misc_categoryD2Ev
	.weak	_ZN4asio5error6detail13misc_categoryD1Ev
	.set	_ZN4asio5error6detail13misc_categoryD1Ev,_ZN4asio5error6detail13misc_categoryD2Ev
	.section	.text._ZN4asio5error6detail13misc_categoryD0Ev,"axG",@progbits,_ZN4asio5error6detail13misc_categoryD5Ev,comdat
	.align 2
	.p2align 4
	.weak	_ZN4asio5error6detail13misc_categoryD0Ev
	.type	_ZN4asio5error6detail13misc_categoryD0Ev, @function
_ZN4asio5error6detail13misc_categoryD0Ev:
.LFB9274:
	.cfi_startproc
	endbr64
	movq	_ZTVN4asio5error6detail13misc_categoryE@GOTPCREL(%rip), %rax
	pushq	%rbp
	.cfi_def_cfa_offset 16
	.cfi_offset 6, -16
	movq	%rdi, %rbp
	addq	$16, %rax
	movq	%rax, (%rdi)
	call	_ZNSt3_V214error_categoryD2Ev@PLT
	movq	%rbp, %rdi
	movl	$8, %esi
	popq	%rbp
	.cfi_def_cfa_offset 8
	jmp	_ZdlPvm@PLT
	.cfi_endproc
.LFE9274:
	.size	_ZN4asio5error6detail13misc_categoryD0Ev, .-_ZN4asio5error6detail13misc_categoryD0Ev
	.section	.text._ZNSt23_Sp_counted_ptr_inplaceIN7asiopal5TimerESaIS1_ELN9__gnu_cxx12_Lock_policyE2EE10_M_destroyEv,"axG",@progbits,_ZNSt23_Sp_counted_ptr_inplaceIN7asiopal5TimerESaIS1_ELN9__gnu_cxx12_Lock_policyE2EE10_M_destroyEv,comdat
	.align 2
	.p2align 4
	.weak	_ZNSt23_Sp_counted_ptr_inplaceIN7asiopal5TimerESaIS1_ELN9__gnu_cxx12_Lock_policyE2EE10_M_destroyEv
	.type	_ZNSt23_Sp_counted_ptr_inplaceIN7asiopal5TimerESaIS1_ELN9__gnu_cxx12_Lock_policyE2EE10_M_destroyEv, @function
_ZNSt23_Sp_counted_ptr_inplaceIN7asiopal5TimerESaIS1_ELN9__gnu_cxx12_Lock_policyE2EE10_M_destroyEv:
.LFB9332:
	.cfi_startproc
	endbr64
	jmp	_ZdlPv@PLT
	.cfi_endproc
.LFE9332:
	.size	_ZNSt23_Sp_counted_ptr_inplaceIN7asiopal5TimerESaIS1_ELN9__gnu_cxx12_Lock_policyE2EE10_M_destroyEv, .-_ZNSt23_Sp_counted_ptr_inplaceIN7asiopal5TimerESaIS1_ELN9__gnu_cxx12_Lock_policyE2EE10_M_destroyEv
	.section	.text._ZNSt23_Sp_counted_ptr_inplaceINSt13__future_base13_State_baseV2ESaIS1_ELN9__gnu_cxx12_Lock_policyE2EE10_M_destroyEv,"axG",@progbits,_ZNSt23_Sp_counted_ptr_inplaceINSt13__future_base13_State_baseV2ESaIS1_ELN9__gnu_cxx12_Lock_policyE2EE10_M_destroyEv,comdat
	.align 2
	.p2align 4
	.weak	_ZNSt23_Sp_counted_ptr_inplaceINSt13__future_base13_State_baseV2ESaIS1_ELN9__gnu_cxx12_Lock_policyE2EE10_M_destroyEv
	.type	_ZNSt23_Sp_counted_ptr_inplaceINSt13__future_base13_State_baseV2ESaIS1_ELN9__gnu_cxx12_Lock_policyE2EE10_M_destroyEv, @function
_ZNSt23_Sp_counted_ptr_inplaceINSt13__future_base13_State_baseV2ESaIS1_ELN9__gnu_cxx12_Lock_policyE2EE10_M_destroyEv:
.LFB9346:
	.cfi_startproc
	endbr64
	jmp	_ZdlPv@PLT
	.cfi_endproc
.LFE9346:
	.size	_ZNSt23_Sp_counted_ptr_inplaceINSt13__future_base13_State_baseV2ESaIS1_ELN9__gnu_cxx12_Lock_policyE2EE10_M_destroyEv, .-_ZNSt23_Sp_counted_ptr_inplaceINSt13__future_base13_State_baseV2ESaIS1_ELN9__gnu_cxx12_Lock_policyE2EE10_M_destroyEv
	.section	.text._ZNSt23_Sp_counted_ptr_inplaceINSt13__future_base13_State_baseV2ESaIS1_ELN9__gnu_cxx12_Lock_policyE2EE14_M_get_deleterERKSt9type_info,"axG",@progbits,_ZNSt23_Sp_counted_ptr_inplaceINSt13__future_base13_State_baseV2ESaIS1_ELN9__gnu_cxx12_Lock_policyE2EE14_M_get_deleterERKSt9type_info,comdat
	.align 2
	.p2align 4
	.weak	_ZNSt23_Sp_counted_ptr_inplaceINSt13__future_base13_State_baseV2ESaIS1_ELN9__gnu_cxx12_Lock_policyE2EE14_M_get_deleterERKSt9type_info
	.type	_ZNSt23_Sp_counted_ptr_inplaceINSt13__future_base13_State_baseV2ESaIS1_ELN9__gnu_cxx12_Lock_policyE2EE14_M_get_deleterERKSt9type_info, @function
_ZNSt23_Sp_counted_ptr_inplaceINSt13__future_base13_State_baseV2ESaIS1_ELN9__gnu_cxx12_Lock_policyE2EE14_M_get_deleterERKSt9type_info:
.LFB9347:
	.cfi_startproc
	endbr64
	pushq	%r12
	.cfi_def_cfa_offset 16
	.cfi_offset 12, -16
	pushq	%rbx
	.cfi_def_cfa_offset 24
	.cfi_offset 3, -24
	movq	%rdi, %rbx
	subq	$8, %rsp
	.cfi_def_cfa_offset 32
	cmpq	_ZZNSt19_Sp_make_shared_tag5_S_tiEvE5__tag@GOTPCREL(%rip), %rsi
	je	.L70
	movq	8(%rsi), %rdi
	movq	_ZTSSt19_Sp_make_shared_tag@GOTPCREL(%rip), %rsi
	cmpq	%rsi, %rdi
	je	.L70
	xorl	%r12d, %r12d
	cmpb	$42, (%rdi)
	je	.L69
	call	strcmp@PLT
	testl	%eax, %eax
	jne	.L69
.L70:
	leaq	16(%rbx), %r12
.L69:
	addq	$8, %rsp
	.cfi_def_cfa_offset 24
	movq	%r12, %rax
	popq	%rbx
	.cfi_def_cfa_offset 16
	popq	%r12
	.cfi_def_cfa_offset 8
	ret
	.cfi_endproc
.LFE9347:
	.size	_ZNSt23_Sp_counted_ptr_inplaceINSt13__future_base13_State_baseV2ESaIS1_ELN9__gnu_cxx12_Lock_policyE2EE14_M_get_deleterERKSt9type_info, .-_ZNSt23_Sp_counted_ptr_inplaceINSt13__future_base13_State_baseV2ESaIS1_ELN9__gnu_cxx12_Lock_policyE2EE14_M_get_deleterERKSt9type_info
	.section	.text._ZNSt23_Sp_counted_ptr_inplaceIN7asiopal5TimerESaIS1_ELN9__gnu_cxx12_Lock_policyE2EE14_M_get_deleterERKSt9type_info,"axG",@progbits,_ZNSt23_Sp_counted_ptr_inplaceIN7asiopal5TimerESaIS1_ELN9__gnu_cxx12_Lock_policyE2EE14_M_get_deleterERKSt9type_info,comdat
	.align 2
	.p2align 4
	.weak	_ZNSt23_Sp_counted_ptr_inplaceIN7asiopal5TimerESaIS1_ELN9__gnu_cxx12_Lock_policyE2EE14_M_get_deleterERKSt9type_info
	.type	_ZNSt23_Sp_counted_ptr_inplaceIN7asiopal5TimerESaIS1_ELN9__gnu_cxx12_Lock_policyE2EE14_M_get_deleterERKSt9type_info, @function
_ZNSt23_Sp_counted_ptr_inplaceIN7asiopal5TimerESaIS1_ELN9__gnu_cxx12_Lock_policyE2EE14_M_get_deleterERKSt9type_info:
.LFB9333:
	.cfi_startproc
	endbr64
	pushq	%r12
	.cfi_def_cfa_offset 16
	.cfi_offset 12, -16
	pushq	%rbx
	.cfi_def_cfa_offset 24
	.cfi_offset 3, -24
	movq	%rdi, %rbx
	subq	$8, %rsp
	.cfi_def_cfa_offset 32
	cmpq	_ZZNSt19_Sp_make_shared_tag5_S_tiEvE5__tag@GOTPCREL(%rip), %rsi
	je	.L76
	movq	8(%rsi), %rdi
	movq	_ZTSSt19_Sp_make_shared_tag@GOTPCREL(%rip), %rsi
	cmpq	%rsi, %rdi
	je	.L76
	xorl	%r12d, %r12d
	cmpb	$42, (%rdi)
	je	.L75
	call	strcmp@PLT
	testl	%eax, %eax
	jne	.L75
.L76:
	leaq	16(%rbx), %r12
.L75:
	addq	$8, %rsp
	.cfi_def_cfa_offset 24
	movq	%r12, %rax
	popq	%rbx
	.cfi_def_cfa_offset 16
	popq	%r12
	.cfi_def_cfa_offset 8
	ret
	.cfi_endproc
.LFE9333:
	.size	_ZNSt23_Sp_counted_ptr_inplaceIN7asiopal5TimerESaIS1_ELN9__gnu_cxx12_Lock_policyE2EE14_M_get_deleterERKSt9type_info, .-_ZNSt23_Sp_counted_ptr_inplaceIN7asiopal5TimerESaIS1_ELN9__gnu_cxx12_Lock_policyE2EE14_M_get_deleterERKSt9type_info
	.section	.text._ZNSt13__future_base7_ResultIbED2Ev,"axG",@progbits,_ZNSt13__future_base7_ResultIbED5Ev,comdat
	.align 2
	.p2align 4
	.weak	_ZNSt13__future_base7_ResultIbED2Ev
	.type	_ZNSt13__future_base7_ResultIbED2Ev, @function
_ZNSt13__future_base7_ResultIbED2Ev:
.LFB9364:
	.cfi_startproc
	endbr64
	movq	_ZTVNSt13__future_base7_ResultIbEE@GOTPCREL(%rip), %rax
	addq	$16, %rax
	movq	%rax, (%rdi)
	jmp	_ZNSt13__future_base12_Result_baseD2Ev@PLT
	.cfi_endproc
.LFE9364:
	.size	_ZNSt13__future_base7_ResultIbED2Ev, .-_ZNSt13__future_base7_ResultIbED2Ev
	.weak	_ZNSt13__future_base7_ResultIbED1Ev
	.set	_ZNSt13__future_base7_ResultIbED1Ev,_ZNSt13__future_base7_ResultIbED2Ev
	.section	.text._ZNSt13__future_base7_ResultIbED0Ev,"axG",@progbits,_ZNSt13__future_base7_ResultIbED5Ev,comdat
	.align 2
	.p2align 4
	.weak	_ZNSt13__future_base7_ResultIbED0Ev
	.type	_ZNSt13__future_base7_ResultIbED0Ev, @function
_ZNSt13__future_base7_ResultIbED0Ev:
.LFB9366:
	.cfi_startproc
	endbr64
	movq	_ZTVNSt13__future_base7_ResultIbEE@GOTPCREL(%rip), %rax
	pushq	%rbp
	.cfi_def_cfa_offset 16
	.cfi_offset 6, -16
	movq	%rdi, %rbp
	addq	$16, %rax
	movq	%rax, (%rdi)
	call	_ZNSt13__future_base12_Result_baseD2Ev@PLT
	movq	%rbp, %rdi
	movl	$24, %esi
	popq	%rbp
	.cfi_def_cfa_offset 8
	jmp	_ZdlPvm@PLT
	.cfi_endproc
.LFE9366:
	.size	_ZNSt13__future_base7_ResultIbED0Ev, .-_ZNSt13__future_base7_ResultIbED0Ev
	.text
	.align 2
	.p2align 4
	.globl	_ZN7asiopal8Executor7GetTimeEv
	.type	_ZN7asiopal8Executor7GetTimeEv, @function
_ZN7asiopal8Executor7GetTimeEv:
.LFB6870:
	.cfi_startproc
	endbr64
	subq	$24, %rsp
	.cfi_def_cfa_offset 32
	movq	%fs:40, %rax
	movq	%rax, 8(%rsp)
	xorl	%eax, %eax
	call	_ZNSt6chrono3_V212steady_clock3nowEv@PLT
	movq	%rsp, %rdi
	movq	%rax, (%rsp)
	call	_ZN7asiopal15TimeConversions7ConvertERKNSt6chrono10time_pointINS1_3_V212steady_clockENS1_8durationIlSt5ratioILl1ELl1000000000EEEEEE@PLT
	movq	8(%rsp), %rdx
	xorq	%fs:40, %rdx
	jne	.L87
	addq	$24, %rsp
	.cfi_remember_state
	.cfi_def_cfa_offset 8
	ret
.L87:
	.cfi_restore_state
	call	__stack_chk_fail@PLT
	.cfi_endproc
.LFE6870:
	.size	_ZN7asiopal8Executor7GetTimeEv, .-_ZN7asiopal8Executor7GetTimeEv
	.section	.text._ZNSt13__future_base13_State_baseV29_M_do_setEPSt8functionIFSt10unique_ptrINS_12_Result_baseENS3_8_DeleterEEvEEPb,"axG",@progbits,_ZNSt13__future_base13_State_baseV29_M_do_setEPSt8functionIFSt10unique_ptrINS_12_Result_baseENS3_8_DeleterEEvEEPb,comdat
	.align 2
	.p2align 4
	.weak	_ZNSt13__future_base13_State_baseV29_M_do_setEPSt8functionIFSt10unique_ptrINS_12_Result_baseENS3_8_DeleterEEvEEPb
	.type	_ZNSt13__future_base13_State_baseV29_M_do_setEPSt8functionIFSt10unique_ptrINS_12_Result_baseENS3_8_DeleterEEvEEPb, @function
_ZNSt13__future_base13_State_baseV29_M_do_setEPSt8functionIFSt10unique_ptrINS_12_Result_baseENS3_8_DeleterEEvEEPb:
.LFB6624:
	.cfi_startproc
	.cfi_personality 0x9b,DW.ref.__gxx_personality_v0
	.cfi_lsda 0x1b,.LLSDA6624
	endbr64
	pushq	%rbp
	.cfi_def_cfa_offset 16
	.cfi_offset 6, -16
	pushq	%rbx
	.cfi_def_cfa_offset 24
	.cfi_offset 3, -24
	subq	$24, %rsp
	.cfi_def_cfa_offset 48
	movq	%fs:40, %rax
	movq	%rax, 8(%rsp)
	xorl	%eax, %eax
	cmpq	$0, 16(%rsi)
	je	.L96
	movq	%rdi, %rbx
	movq	%rdx, %rbp
	movq	%rsp, %rdi
.LEHB0:
	call	*24(%rsi)
.LEHE0:
	movq	8(%rbx), %rdi
	movq	(%rsp), %rax
	movb	$1, 0(%rbp)
	movq	%rdi, (%rsp)
	movq	%rax, 8(%rbx)
	testq	%rdi, %rdi
	je	.L88
	movq	(%rdi), %rax
	call	*(%rax)
.L88:
	movq	8(%rsp), %rax
	xorq	%fs:40, %rax
	jne	.L97
	addq	$24, %rsp
	.cfi_remember_state
	.cfi_def_cfa_offset 24
	popq	%rbx
	.cfi_def_cfa_offset 16
	popq	%rbp
	.cfi_def_cfa_offset 8
	ret
.L96:
	.cfi_restore_state
.LEHB1:
	call	_ZSt25__throw_bad_function_callv@PLT
.LEHE1:
.L97:
	call	__stack_chk_fail@PLT
	.cfi_endproc
.LFE6624:
	.section	.gcc_except_table._ZNSt13__future_base13_State_baseV29_M_do_setEPSt8functionIFSt10unique_ptrINS_12_Result_baseENS3_8_DeleterEEvEEPb,"aG",@progbits,_ZNSt13__future_base13_State_baseV29_M_do_setEPSt8functionIFSt10unique_ptrINS_12_Result_baseENS3_8_DeleterEEvEEPb,comdat
.LLSDA6624:
	.byte	0xff
	.byte	0xff
	.byte	0x1
	.uleb128 .LLSDACSE6624-.LLSDACSB6624
.LLSDACSB6624:
	.uleb128 .LEHB0-.LFB6624
	.uleb128 .LEHE0-.LEHB0
	.uleb128 0
	.uleb128 0
	.uleb128 .LEHB1-.LFB6624
	.uleb128 .LEHE1-.LEHB1
	.uleb128 0
	.uleb128 0
.LLSDACSE6624:
	.section	.text._ZNSt13__future_base13_State_baseV29_M_do_setEPSt8functionIFSt10unique_ptrINS_12_Result_baseENS3_8_DeleterEEvEEPb,"axG",@progbits,_ZNSt13__future_base13_State_baseV29_M_do_setEPSt8functionIFSt10unique_ptrINS_12_Result_baseENS3_8_DeleterEEvEEPb,comdat
	.size	_ZNSt13__future_base13_State_baseV29_M_do_setEPSt8functionIFSt10unique_ptrINS_12_Result_baseENS3_8_DeleterEEvEEPb, .-_ZNSt13__future_base13_State_baseV29_M_do_setEPSt8functionIFSt10unique_ptrINS_12_Result_baseENS3_8_DeleterEEvEEPb
	.section	.text._ZN4asio6detail14strand_serviceD2Ev,"axG",@progbits,_ZN4asio6detail14strand_serviceD5Ev,comdat
	.align 2
	.p2align 4
	.weak	_ZN4asio6detail14strand_serviceD2Ev
	.type	_ZN4asio6detail14strand_serviceD2Ev, @function
_ZN4asio6detail14strand_serviceD2Ev:
.LFB9252:
	.cfi_startproc
	.cfi_personality 0x9b,DW.ref.__gxx_personality_v0
	.cfi_lsda 0x1b,.LLSDA9252
	endbr64
	pushq	%r15
	.cfi_def_cfa_offset 16
	.cfi_offset 15, -16
	movq	%rdi, %r15
	pushq	%r14
	.cfi_def_cfa_offset 24
	.cfi_offset 14, -24
	leaq	80(%rdi), %r14
	pushq	%r13
	.cfi_def_cfa_offset 32
	.cfi_offset 13, -32
	pushq	%r12
	.cfi_def_cfa_offset 40
	.cfi_offset 12, -40
	leaq	1624(%rdi), %r12
	pushq	%rbp
	.cfi_def_cfa_offset 48
	.cfi_offset 6, -48
	pushq	%rbx
	.cfi_def_cfa_offset 56
	.cfi_offset 3, -56
	subq	$56, %rsp
	.cfi_def_cfa_offset 112
	movq	%fs:40, %rax
	movq	%rax, 40(%rsp)
	xorl	%eax, %eax
	movq	_ZTVN4asio6detail14strand_serviceE@GOTPCREL(%rip), %rax
	leaq	16(%rsp), %rbx
	addq	$16, %rax
	movq	%rax, (%rdi)
	.p2align 4,,10
	.p2align 3
.L108:
	movq	(%r12), %rbp
	testq	%rbp, %rbp
	je	.L99
	movq	88(%rbp), %rsi
	testq	%rsi, %rsi
	movq	%rsi, 8(%rsp)
	je	.L100
	call	_ZNSt3_V215system_categoryEv@PLT
	movq	8(%rsp), %rsi
	movq	%rax, %r13
	jmp	.L103
	.p2align 4,,10
	.p2align 3
.L101:
	movq	$0, (%rsi)
	movq	8(%rsi), %rax
	xorl	%ecx, %ecx
	movq	%rbx, %rdx
	movl	$0, 16(%rsp)
	xorl	%edi, %edi
	movq	%r13, 24(%rsp)
	call	*%rax
	movq	88(%rbp), %rsi
	testq	%rsi, %rsi
	je	.L100
.L103:
	movq	(%rsi), %rax
	movq	%rax, 88(%rbp)
	testq	%rax, %rax
	jne	.L101
	movq	$0, 96(%rbp)
	jmp	.L101
	.p2align 4,,10
	.p2align 3
.L104:
	leaq	24(%rbp), %rdi
	call	pthread_mutex_destroy@PLT
	movl	$104, %esi
	movq	%rbp, %rdi
	call	_ZdlPvm@PLT
.L99:
	subq	$8, %r12
	cmpq	%r12, %r14
	jne	.L108
	leaq	48(%r15), %rdi
	call	pthread_mutex_destroy@PLT
	movq	40(%rsp), %rax
	xorq	%fs:40, %rax
	jne	.L135
	addq	$56, %rsp
	.cfi_remember_state
	.cfi_def_cfa_offset 56
	popq	%rbx
	.cfi_def_cfa_offset 48
	popq	%rbp
	.cfi_def_cfa_offset 40
	popq	%r12
	.cfi_def_cfa_offset 32
	popq	%r13
	.cfi_def_cfa_offset 24
	popq	%r14
	.cfi_def_cfa_offset 16
	popq	%r15
	.cfi_def_cfa_offset 8
	ret
	.p2align 4,,10
	.p2align 3
.L100:
	.cfi_restore_state
	movq	72(%rbp), %rsi
	testq	%rsi, %rsi
	movq	%rsi, 8(%rsp)
	je	.L104
	call	_ZNSt3_V215system_categoryEv@PLT
	movq	8(%rsp), %rsi
	movq	%rax, %r13
	jmp	.L107
	.p2align 4,,10
	.p2align 3
.L105:
	movq	$0, (%rsi)
	movq	8(%rsi), %rax
	xorl	%ecx, %ecx
	movq	%rbx, %rdx
	movl	$0, 16(%rsp)
	xorl	%edi, %edi
	movq	%r13, 24(%rsp)
	call	*%rax
	movq	72(%rbp), %rsi
	testq	%rsi, %rsi
	je	.L104
.L107:
	movq	(%rsi), %rax
	movq	%rax, 72(%rbp)
	testq	%rax, %rax
	jne	.L105
	movq	$0, 80(%rbp)
	jmp	.L105
.L135:
	call	__stack_chk_fail@PLT
	.cfi_endproc
.LFE9252:
	.section	.gcc_except_table._ZN4asio6detail14strand_serviceD2Ev,"aG",@progbits,_ZN4asio6detail14strand_serviceD5Ev,comdat
.LLSDA9252:
	.byte	0xff
	.byte	0xff
	.byte	0x1
	.uleb128 .LLSDACSE9252-.LLSDACSB9252
.LLSDACSB9252:
.LLSDACSE9252:
	.section	.text._ZN4asio6detail14strand_serviceD2Ev,"axG",@progbits,_ZN4asio6detail14strand_serviceD5Ev,comdat
	.size	_ZN4asio6detail14strand_serviceD2Ev, .-_ZN4asio6detail14strand_serviceD2Ev
	.weak	_ZN4asio6detail14strand_serviceD1Ev
	.set	_ZN4asio6detail14strand_serviceD1Ev,_ZN4asio6detail14strand_serviceD2Ev
	.section	.text._ZNSt13__future_base7_ResultIbE10_M_destroyEv,"axG",@progbits,_ZNSt13__future_base7_ResultIbE10_M_destroyEv,comdat
	.align 2
	.p2align 4
	.weak	_ZNSt13__future_base7_ResultIbE10_M_destroyEv
	.type	_ZNSt13__future_base7_ResultIbE10_M_destroyEv, @function
_ZNSt13__future_base7_ResultIbE10_M_destroyEv:
.LFB9362:
	.cfi_startproc
	endbr64
	pushq	%rbp
	.cfi_def_cfa_offset 16
	.cfi_offset 6, -16
	movq	(%rdi), %rax
	movq	%rdi, %rbp
	movq	16(%rax), %rax
	cmpq	_ZNSt13__future_base7_ResultIbED0Ev@GOTPCREL(%rip), %rax
	jne	.L137
	movq	_ZTVNSt13__future_base7_ResultIbEE@GOTPCREL(%rip), %rax
	addq	$16, %rax
	movq	%rax, (%rdi)
	call	_ZNSt13__future_base12_Result_baseD2Ev@PLT
	movq	%rbp, %rdi
	movl	$24, %esi
	popq	%rbp
	.cfi_remember_state
	.cfi_def_cfa_offset 8
	jmp	_ZdlPvm@PLT
	.p2align 4,,10
	.p2align 3
.L137:
	.cfi_restore_state
	popq	%rbp
	.cfi_def_cfa_offset 8
	jmp	*%rax
	.cfi_endproc
.LFE9362:
	.size	_ZNSt13__future_base7_ResultIbE10_M_destroyEv, .-_ZNSt13__future_base7_ResultIbE10_M_destroyEv
	.section	.text._ZN4asio6detail14strand_serviceD0Ev,"axG",@progbits,_ZN4asio6detail14strand_serviceD5Ev,comdat
	.align 2
	.p2align 4
	.weak	_ZN4asio6detail14strand_serviceD0Ev
	.type	_ZN4asio6detail14strand_serviceD0Ev, @function
_ZN4asio6detail14strand_serviceD0Ev:
.LFB9254:
	.cfi_startproc
	.cfi_personality 0x9b,DW.ref.__gxx_personality_v0
	.cfi_lsda 0x1b,.LLSDA9254
	endbr64
	pushq	%r15
	.cfi_def_cfa_offset 16
	.cfi_offset 15, -16
	leaq	80(%rdi), %r15
	pushq	%r14
	.cfi_def_cfa_offset 24
	.cfi_offset 14, -24
	pushq	%r13
	.cfi_def_cfa_offset 32
	.cfi_offset 13, -32
	leaq	1624(%rdi), %r13
	pushq	%r12
	.cfi_def_cfa_offset 40
	.cfi_offset 12, -40
	movq	%rdi, %r12
	pushq	%rbp
	.cfi_def_cfa_offset 48
	.cfi_offset 6, -48
	pushq	%rbx
	.cfi_def_cfa_offset 56
	.cfi_offset 3, -56
	subq	$56, %rsp
	.cfi_def_cfa_offset 112
	movq	%fs:40, %rax
	movq	%rax, 40(%rsp)
	xorl	%eax, %eax
	movq	_ZTVN4asio6detail14strand_serviceE@GOTPCREL(%rip), %rax
	leaq	16(%rsp), %rbx
	addq	$16, %rax
	movq	%rax, (%rdi)
	.p2align 4,,10
	.p2align 3
.L149:
	movq	0(%r13), %rbp
	testq	%rbp, %rbp
	je	.L140
	movq	88(%rbp), %rsi
	testq	%rsi, %rsi
	movq	%rsi, 8(%rsp)
	je	.L141
	call	_ZNSt3_V215system_categoryEv@PLT
	movq	8(%rsp), %rsi
	movq	%rax, %r14
	jmp	.L144
	.p2align 4,,10
	.p2align 3
.L142:
	movq	$0, (%rsi)
	movq	8(%rsi), %rax
	xorl	%ecx, %ecx
	movq	%rbx, %rdx
	movl	$0, 16(%rsp)
	xorl	%edi, %edi
	movq	%r14, 24(%rsp)
	call	*%rax
	movq	88(%rbp), %rsi
	testq	%rsi, %rsi
	je	.L141
.L144:
	movq	(%rsi), %rax
	movq	%rax, 88(%rbp)
	testq	%rax, %rax
	jne	.L142
	movq	$0, 96(%rbp)
	jmp	.L142
	.p2align 4,,10
	.p2align 3
.L141:
	movq	72(%rbp), %rsi
	testq	%rsi, %rsi
	movq	%rsi, 8(%rsp)
	je	.L145
	call	_ZNSt3_V215system_categoryEv@PLT
	movq	8(%rsp), %rsi
	movq	%rax, %r14
	jmp	.L148
	.p2align 4,,10
	.p2align 3
.L146:
	movq	$0, (%rsi)
	movq	8(%rsi), %rax
	xorl	%ecx, %ecx
	movq	%rbx, %rdx
	movl	$0, 16(%rsp)
	xorl	%edi, %edi
	movq	%r14, 24(%rsp)
	call	*%rax
	movq	72(%rbp), %rsi
	testq	%rsi, %rsi
	je	.L145
.L148:
	movq	(%rsi), %rax
	movq	%rax, 72(%rbp)
	testq	%rax, %rax
	jne	.L146
	movq	$0, 80(%rbp)
	jmp	.L146
	.p2align 4,,10
	.p2align 3
.L145:
	leaq	24(%rbp), %rdi
	call	pthread_mutex_destroy@PLT
	movl	$104, %esi
	movq	%rbp, %rdi
	call	_ZdlPvm@PLT
.L140:
	subq	$8, %r13
	cmpq	%r13, %r15
	jne	.L149
	leaq	48(%r12), %rdi
	call	pthread_mutex_destroy@PLT
	movl	$1640, %esi
	movq	%r12, %rdi
	call	_ZdlPvm@PLT
	movq	40(%rsp), %rax
	xorq	%fs:40, %rax
	jne	.L176
	addq	$56, %rsp
	.cfi_remember_state
	.cfi_def_cfa_offset 56
	popq	%rbx
	.cfi_def_cfa_offset 48
	popq	%rbp
	.cfi_def_cfa_offset 40
	popq	%r12
	.cfi_def_cfa_offset 32
	popq	%r13
	.cfi_def_cfa_offset 24
	popq	%r14
	.cfi_def_cfa_offset 16
	popq	%r15
	.cfi_def_cfa_offset 8
	ret
.L176:
	.cfi_restore_state
	call	__stack_chk_fail@PLT
	.cfi_endproc
.LFE9254:
	.section	.gcc_except_table._ZN4asio6detail14strand_serviceD0Ev,"aG",@progbits,_ZN4asio6detail14strand_serviceD5Ev,comdat
.LLSDA9254:
	.byte	0xff
	.byte	0xff
	.byte	0x1
	.uleb128 .LLSDACSE9254-.LLSDACSB9254
.LLSDACSB9254:
.LLSDACSE9254:
	.section	.text._ZN4asio6detail14strand_serviceD0Ev,"axG",@progbits,_ZN4asio6detail14strand_serviceD5Ev,comdat
	.size	_ZN4asio6detail14strand_serviceD0Ev, .-_ZN4asio6detail14strand_serviceD0Ev
	.text
	.align 2
	.p2align 4
	.type	_ZN4asio6detail13epoll_reactor12cancel_timerINS0_18chrono_time_traitsINSt6chrono3_V212steady_clockENS_11wait_traitsIS6_EEEEEEmRNS0_11timer_queueIT_EERNSC_14per_timer_dataEm.constprop.0, @function
_ZN4asio6detail13epoll_reactor12cancel_timerINS0_18chrono_time_traitsINSt6chrono3_V212steady_clockENS_11wait_traitsIS6_EEEEEEmRNS0_11timer_queueIT_EERNSC_14per_timer_dataEm.constprop.0:
.LFB9665:
	.cfi_startproc
	pushq	%r15
	.cfi_def_cfa_offset 16
	.cfi_offset 15, -16
	pushq	%r14
	.cfi_def_cfa_offset 24
	.cfi_offset 14, -24
	leaq	48(%rdi), %r14
	pushq	%r13
	.cfi_def_cfa_offset 32
	.cfi_offset 13, -32
	movq	%rdx, %r13
	pushq	%r12
	.cfi_def_cfa_offset 40
	.cfi_offset 12, -40
	pushq	%rbp
	.cfi_def_cfa_offset 48
	.cfi_offset 6, -48
	pushq	%rbx
	.cfi_def_cfa_offset 56
	.cfi_offset 3, -56
	subq	$72, %rsp
	.cfi_def_cfa_offset 128
	movq	%rdi, 16(%rsp)
	movq	%r14, %rdi
	movq	%rsi, 24(%rsp)
	movq	%fs:40, %rax
	movq	%rax, 56(%rsp)
	xorl	%eax, %eax
	call	pthread_mutex_lock@PLT
	cmpq	$0, 32(%r13)
	je	.L260
.L178:
	xorl	%r12d, %r12d
	movq	%r14, 8(%rsp)
	movq	0(%r13), %r15
	movq	%r13, %r14
	movq	$0, (%rsp)
	xorl	%ebx, %ebx
	movq	%r12, %r13
	jmp	.L187
	.p2align 4,,10
	.p2align 3
.L259:
	movq	_ZZN4asio15system_categoryEvE8instance@GOTPCREL(%rip), %rbp
.L182:
	movq	(%r14), %rax
	movl	$125, 24(%r15)
	movq	%rbp, 32(%r15)
	testq	%rax, %rax
	je	.L184
	movq	(%rax), %rdx
	movq	%rdx, (%r14)
	testq	%rdx, %rdx
	je	.L261
.L185:
	movq	$0, (%rax)
	movq	%rdx, %rax
.L184:
	movq	$0, (%r15)
	testq	%rbx, %rbx
	je	.L214
	addq	$1, %r13
	movq	%r15, (%rbx)
	movq	%r15, %rbx
	cmpq	$-1, %r13
	je	.L262
.L215:
	movq	%rax, %r15
.L187:
	testq	%r15, %r15
	je	.L254
	movq	_ZGVZN4asio15system_categoryEvE8instance@GOTPCREL(%rip), %r12
	movzbl	(%r12), %eax
	testb	%al, %al
	jne	.L259
	movq	%r12, %rdi
	call	__cxa_guard_acquire@PLT
	testl	%eax, %eax
	je	.L259
	movq	_ZZN4asio15system_categoryEvE8instance@GOTPCREL(%rip), %rbp
	movq	_ZN4asio6detail15system_categoryD1Ev@GOTPCREL(%rip), %rdi
	leaq	__dso_handle(%rip), %rdx
	movq	%rbp, %rsi
	call	__cxa_atexit@PLT
	movq	%r12, %rdi
	call	__cxa_guard_release@PLT
	jmp	.L182
	.p2align 4,,10
	.p2align 3
.L261:
	movq	$0, 8(%r14)
	jmp	.L185
	.p2align 4,,10
	.p2align 3
.L214:
	addq	$1, %r13
	movq	%r15, (%rsp)
	movq	%r15, %rbx
	cmpq	$-1, %r13
	jne	.L215
.L262:
	movq	%r13, %r12
	movq	%r14, %r13
	movq	8(%rsp), %r14
	testq	%rax, %rax
	je	.L180
.L188:
	movq	%r14, %rdi
	call	pthread_mutex_unlock@PLT
	movq	16(%rsp), %rax
	cmpq	$0, (%rsp)
	movq	40(%rax), %rbx
	je	.L177
	cmpb	$0, 40(%rbx)
	je	.L202
	data16	leaq	_ZN4asio6detail15keyword_tss_ptrINS0_10call_stackINS0_15task_io_serviceENS0_27task_io_service_thread_infoEE7contextEE6value_E@tlsgd(%rip), %rdi
	.value	0x6666
	rex64
	call	__tls_get_addr@PLT
	movq	(%rax), %rax
	testq	%rax, %rax
	jne	.L205
	jmp	.L202
	.p2align 4,,10
	.p2align 3
.L203:
	movq	16(%rax), %rax
	testq	%rax, %rax
	je	.L202
.L205:
	cmpq	(%rax), %rbx
	jne	.L203
	movq	8(%rax), %rax
	testq	%rax, %rax
	je	.L202
	movq	16(%rax), %rdx
	movq	(%rsp), %rcx
	testq	%rdx, %rdx
	je	.L206
	movq	%rcx, (%rdx)
.L207:
	movq	%r15, 16(%rax)
.L177:
	movq	56(%rsp), %rax
	xorq	%fs:40, %rax
	jne	.L263
	addq	$72, %rsp
	.cfi_remember_state
	.cfi_def_cfa_offset 56
	movq	%r12, %rax
	popq	%rbx
	.cfi_def_cfa_offset 48
	popq	%rbp
	.cfi_def_cfa_offset 40
	popq	%r12
	.cfi_def_cfa_offset 32
	popq	%r13
	.cfi_def_cfa_offset 24
	popq	%r14
	.cfi_def_cfa_offset 16
	popq	%r15
	.cfi_def_cfa_offset 8
	ret
	.p2align 4,,10
	.p2align 3
.L202:
	.cfi_restore_state
	leaq	48(%rbx), %rbp
	movq	%rbp, %rdi
	call	pthread_mutex_lock@PLT
	movq	200(%rbx), %rax
	testq	%rax, %rax
	je	.L208
	movq	(%rsp), %rcx
	movq	%rcx, (%rax)
.L209:
	movq	136(%rbx), %rax
	movq	%r15, 200(%rbx)
	orq	$1, %rax
	movq	%rax, 136(%rbx)
	cmpq	$1, %rax
	je	.L210
	movq	%rbp, %rdi
	call	pthread_mutex_unlock@PLT
	leaq	88(%rbx), %rdi
	call	pthread_cond_signal@PLT
	jmp	.L177
	.p2align 4,,10
	.p2align 3
.L254:
	movq	%r13, %r12
	movq	%r14, %r13
	movq	8(%rsp), %r14
.L180:
	movq	24(%rsp), %rcx
	movq	32(%rcx), %rax
	movq	24(%rcx), %rdx
	cmpq	%rdx, %rax
	je	.L190
	movq	%rax, %r9
	movq	16(%r13), %rdi
	subq	%rdx, %r9
	movq	%r9, %rsi
	sarq	$4, %rsi
	cmpq	%rsi, %rdi
	jnb	.L190
	subq	$1, %rsi
	leaq	-16(%rax), %r10
	cmpq	%rsi, %rdi
	je	.L264
	movq	%rdi, %rax
	leaq	-16(%rdx,%r9), %r9
	salq	$4, %rax
	movdqu	(%r9), %xmm3
	addq	%rdx, %rax
	movq	(%rax), %r11
	movq	8(%rax), %rbp
	movups	%xmm3, (%rax)
	movq	%r11, (%r9)
	movq	%rbp, 8(%r9)
	movq	8(%rax), %r11
	movq	%rdi, 16(%r11)
	movq	%rsi, 16(%rbp)
	movq	%r10, 32(%rcx)
	testq	%rdi, %rdi
	je	.L193
	leaq	-1(%rdi), %r9
	movq	(%rax), %rbp
	shrq	%r9
	movq	%r9, %rsi
	salq	$4, %rsi
	addq	%rdx, %rsi
	cmpq	%rbp, (%rsi)
	jg	.L194
.L193:
	subq	%rdx, %r10
	leaq	1(%rdi,%rdi), %r9
	movq	%r10, %rcx
	sarq	$4, %rcx
	cmpq	%rcx, %r9
	jnb	.L190
	movq	(%rax), %r15
	jmp	.L196
	.p2align 4,,10
	.p2align 3
.L265:
	leaq	16(%rdx,%rax), %rax
	movq	(%rax), %r11
	cmpq	%r10, %r11
	jg	.L217
	movq	%r11, %r10
	movq	%rax, %r8
.L195:
	movq	%rdi, %rax
	salq	$4, %rax
	addq	%rdx, %rax
	cmpq	%r10, %r15
	jl	.L190
	movq	8(%rax), %r9
	movdqu	(%r8), %xmm1
	movups	%xmm1, (%rax)
	movq	%r9, 8(%r8)
	movq	%r15, (%r8)
	movq	8(%rax), %rax
	movq	%rdi, 16(%rax)
	movq	%rsi, 16(%r9)
	leaq	1(%rsi,%rsi), %r9
	cmpq	%rcx, %r9
	jnb	.L190
	movq	%rsi, %rdi
.L196:
	movq	%r9, %rax
	leaq	1(%r9), %rsi
	salq	$4, %rax
	leaq	(%rdx,%rax), %r8
	movq	(%r8), %r10
	cmpq	%rcx, %rsi
	jne	.L265
.L217:
	movq	%r9, %rsi
	jmp	.L195
	.p2align 4,,10
	.p2align 3
.L210:
	cmpb	$0, 176(%rbx)
	jne	.L212
	movq	144(%rbx), %rax
	testq	%rax, %rax
	je	.L212
	leaq	88(%rax), %rdx
	movb	$1, 176(%rbx)
	movl	96(%rax), %edi
	leaq	44(%rsp), %rcx
	movq	%rdx, 48(%rsp)
	movl	88(%rax), %edx
	movl	$3, %esi
	movl	$-2147483639, 44(%rsp)
	call	epoll_ctl@PLT
.L212:
	movq	%rbp, %rdi
	call	pthread_mutex_unlock@PLT
	jmp	.L177
	.p2align 4,,10
	.p2align 3
.L260:
	movq	24(%rsp), %rax
	cmpq	16(%rax), %r13
	je	.L178
	movq	%r14, %rdi
	xorl	%r12d, %r12d
	call	pthread_mutex_unlock@PLT
	jmp	.L177
	.p2align 4,,10
	.p2align 3
.L206:
	movq	%rcx, 8(%rax)
	jmp	.L207
	.p2align 4,,10
	.p2align 3
.L264:
	movq	%r10, 32(%rcx)
	.p2align 4,,10
	.p2align 3
.L190:
	movq	24(%rsp), %rcx
	movq	24(%r13), %rax
	cmpq	16(%rcx), %r13
	je	.L266
.L198:
	movq	32(%r13), %rdx
	testq	%rdx, %rdx
	je	.L199
	movq	%rax, 24(%rdx)
	movq	24(%r13), %rax
.L199:
	testq	%rax, %rax
	je	.L200
	movq	%rdx, 32(%rax)
.L200:
	pxor	%xmm0, %xmm0
	movq	%rbx, %r15
	movups	%xmm0, 24(%r13)
	jmp	.L188
	.p2align 4,,10
	.p2align 3
.L208:
	movq	(%rsp), %rax
	movq	%rax, 192(%rbx)
	jmp	.L209
	.p2align 4,,10
	.p2align 3
.L267:
	movq	8(%rax), %r11
	movq	%r9, %rdi
	movq	%rcx, %r9
.L194:
	movdqu	(%rsi), %xmm2
	movups	%xmm2, (%rax)
	movq	%rbp, (%rsi)
	movq	%r11, 8(%rsi)
	movq	8(%rax), %rax
	movq	%rdi, 16(%rax)
	movq	%r9, 16(%r11)
	testq	%r9, %r9
	je	.L190
	leaq	-1(%r9), %rcx
	movq	%r9, %rax
	shrq	%rcx
	salq	$4, %rax
	movq	%rcx, %rsi
	addq	%rdx, %rax
	salq	$4, %rsi
	movq	(%rax), %rbp
	addq	%rdx, %rsi
	cmpq	%rbp, (%rsi)
	jg	.L267
	jmp	.L190
	.p2align 4,,10
	.p2align 3
.L266:
	movq	%rax, 16(%rcx)
	jmp	.L198
.L263:
	call	__stack_chk_fail@PLT
	.cfi_endproc
.LFE9665:
	.size	_ZN4asio6detail13epoll_reactor12cancel_timerINS0_18chrono_time_traitsINSt6chrono3_V212steady_clockENS_11wait_traitsIS6_EEEEEEmRNS0_11timer_queueIT_EERNSC_14per_timer_dataEm.constprop.0, .-_ZN4asio6detail13epoll_reactor12cancel_timerINS0_18chrono_time_traitsINSt6chrono3_V212steady_clockENS_11wait_traitsIS6_EEEEEEmRNS0_11timer_queueIT_EERNSC_14per_timer_dataEm.constprop.0
	.section	.text._ZNSt23_Sp_counted_ptr_inplaceIN7asiopal5TimerESaIS1_ELN9__gnu_cxx12_Lock_policyE2EE10_M_disposeEv,"axG",@progbits,_ZNSt23_Sp_counted_ptr_inplaceIN7asiopal5TimerESaIS1_ELN9__gnu_cxx12_Lock_policyE2EE10_M_disposeEv,comdat
	.align 2
	.p2align 4
	.weak	_ZNSt23_Sp_counted_ptr_inplaceIN7asiopal5TimerESaIS1_ELN9__gnu_cxx12_Lock_policyE2EE10_M_disposeEv
	.type	_ZNSt23_Sp_counted_ptr_inplaceIN7asiopal5TimerESaIS1_ELN9__gnu_cxx12_Lock_policyE2EE10_M_disposeEv, @function
_ZNSt23_Sp_counted_ptr_inplaceIN7asiopal5TimerESaIS1_ELN9__gnu_cxx12_Lock_policyE2EE10_M_disposeEv:
.LFB9331:
	.cfi_startproc
	.cfi_personality 0x9b,DW.ref.__gxx_personality_v0
	.cfi_lsda 0x1b,.LLSDA9331
	endbr64
	pushq	%r12
	.cfi_def_cfa_offset 16
	.cfi_offset 12, -16
	pushq	%rbp
	.cfi_def_cfa_offset 24
	.cfi_offset 6, -24
	pushq	%rbx
	.cfi_def_cfa_offset 32
	.cfi_offset 3, -32
	movq	%rdi, %rbx
	subq	$32, %rsp
	.cfi_def_cfa_offset 64
	movq	24(%rdi), %rbp
	movq	%fs:40, %rax
	movq	%rax, 24(%rsp)
	xorl	%eax, %eax
	movq	_ZTVN7asiopal5TimerE@GOTPCREL(%rip), %rax
	addq	$16, %rax
	movq	%rax, 16(%rdi)
	call	_ZNSt3_V215system_categoryEv@PLT
	cmpb	$0, 40(%rbx)
	movq	%rax, %r12
	je	.L269
	movq	88(%rbp), %rdi
	leaq	48(%rbx), %rdx
	leaq	40(%rbp), %rsi
	call	_ZN4asio6detail13epoll_reactor12cancel_timerINS0_18chrono_time_traitsINSt6chrono3_V212steady_clockENS_11wait_traitsIS6_EEEEEEmRNS0_11timer_queueIT_EERNSC_14per_timer_dataEm.constprop.0
	movb	$0, 40(%rbx)
.L269:
	movq	48(%rbx), %rsi
	testq	%rsi, %rsi
	je	.L268
	movq	%rsp, %rbp
	jmp	.L273
	.p2align 4,,10
	.p2align 3
.L271:
	movq	$0, (%rsi)
	movq	8(%rsi), %rax
	xorl	%ecx, %ecx
	movq	%rbp, %rdx
	movl	$0, (%rsp)
	xorl	%edi, %edi
	movq	%r12, 8(%rsp)
	call	*%rax
	movq	48(%rbx), %rsi
	testq	%rsi, %rsi
	je	.L268
.L273:
	movq	(%rsi), %rax
	movq	%rax, 48(%rbx)
	testq	%rax, %rax
	jne	.L271
	movq	$0, 56(%rbx)
	jmp	.L271
	.p2align 4,,10
	.p2align 3
.L268:
	movq	24(%rsp), %rax
	xorq	%fs:40, %rax
	jne	.L286
	addq	$32, %rsp
	.cfi_remember_state
	.cfi_def_cfa_offset 32
	popq	%rbx
	.cfi_def_cfa_offset 24
	popq	%rbp
	.cfi_def_cfa_offset 16
	popq	%r12
	.cfi_def_cfa_offset 8
	ret
.L286:
	.cfi_restore_state
	call	__stack_chk_fail@PLT
	.cfi_endproc
.LFE9331:
	.section	.gcc_except_table._ZNSt23_Sp_counted_ptr_inplaceIN7asiopal5TimerESaIS1_ELN9__gnu_cxx12_Lock_policyE2EE10_M_disposeEv,"aG",@progbits,_ZNSt23_Sp_counted_ptr_inplaceIN7asiopal5TimerESaIS1_ELN9__gnu_cxx12_Lock_policyE2EE10_M_disposeEv,comdat
.LLSDA9331:
	.byte	0xff
	.byte	0xff
	.byte	0x1
	.uleb128 .LLSDACSE9331-.LLSDACSB9331
.LLSDACSB9331:
.LLSDACSE9331:
	.section	.text._ZNSt23_Sp_counted_ptr_inplaceIN7asiopal5TimerESaIS1_ELN9__gnu_cxx12_Lock_policyE2EE10_M_disposeEv,"axG",@progbits,_ZNSt23_Sp_counted_ptr_inplaceIN7asiopal5TimerESaIS1_ELN9__gnu_cxx12_Lock_policyE2EE10_M_disposeEv,comdat
	.size	_ZNSt23_Sp_counted_ptr_inplaceIN7asiopal5TimerESaIS1_ELN9__gnu_cxx12_Lock_policyE2EE10_M_disposeEv, .-_ZNSt23_Sp_counted_ptr_inplaceIN7asiopal5TimerESaIS1_ELN9__gnu_cxx12_Lock_policyE2EE10_M_disposeEv
	.section	.text._ZN4asio6detail14strand_service16shutdown_serviceEv,"axG",@progbits,_ZN4asio6detail14strand_service16shutdown_serviceEv,comdat
	.align 2
	.p2align 4
	.weak	_ZN4asio6detail14strand_service16shutdown_serviceEv
	.type	_ZN4asio6detail14strand_service16shutdown_serviceEv, @function
_ZN4asio6detail14strand_service16shutdown_serviceEv:
.LFB6342:
	.cfi_startproc
	.cfi_personality 0x9b,DW.ref.__gxx_personality_v0
	.cfi_lsda 0x1b,.LLSDA6342
	endbr64
	pushq	%r12
	.cfi_def_cfa_offset 16
	.cfi_offset 12, -16
	pushq	%rbp
	.cfi_def_cfa_offset 24
	.cfi_offset 6, -24
	leaq	48(%rdi), %rbp
	pushq	%rbx
	.cfi_def_cfa_offset 32
	.cfi_offset 3, -32
	movq	%rdi, %rbx
	movq	%rbp, %rdi
	subq	$32, %rsp
	.cfi_def_cfa_offset 64
	movq	%fs:40, %rax
	movq	%rax, 24(%rsp)
	xorl	%eax, %eax
	call	pthread_mutex_lock@PLT
	leaq	88(%rbx), %rdx
	xorl	%ecx, %ecx
	pxor	%xmm0, %xmm0
	leaq	1632(%rbx), %rdi
	xorl	%ebx, %ebx
	jmp	.L292
	.p2align 4,,10
	.p2align 3
.L314:
	movq	%rsi, (%rcx)
.L290:
	movq	80(%rax), %rcx
	movups	%xmm0, 72(%rax)
.L289:
	movq	88(%rax), %rsi
	testq	%rsi, %rsi
	je	.L288
	testq	%rcx, %rcx
	je	.L297
	movq	%rsi, (%rcx)
.L291:
	movq	96(%rax), %rcx
	movups	%xmm0, 88(%rax)
.L288:
	addq	$8, %rdx
	cmpq	%rdx, %rdi
	je	.L313
.L292:
	movq	(%rdx), %rax
	testq	%rax, %rax
	je	.L288
	movq	72(%rax), %rsi
	testq	%rsi, %rsi
	je	.L289
	testq	%rcx, %rcx
	jne	.L314
	movq	%rsi, %rbx
	jmp	.L290
	.p2align 4,,10
	.p2align 3
.L297:
	movq	%rsi, %rbx
	jmp	.L291
.L313:
	movq	%rbp, %rdi
	call	pthread_mutex_unlock@PLT
	testq	%rbx, %rbx
	je	.L287
	call	_ZNSt3_V215system_categoryEv@PLT
	movq	%rsp, %r12
	movq	%rax, %rbp
	.p2align 4,,10
	.p2align 3
.L294:
	movq	%rbx, %rsi
	movq	(%rbx), %rbx
	xorl	%ecx, %ecx
	xorl	%edi, %edi
	movq	$0, (%rsi)
	movq	8(%rsi), %rax
	movq	%r12, %rdx
	movl	$0, (%rsp)
	movq	%rbp, 8(%rsp)
	call	*%rax
	testq	%rbx, %rbx
	jne	.L294
.L287:
	movq	24(%rsp), %rax
	xorq	%fs:40, %rax
	jne	.L315
	addq	$32, %rsp
	.cfi_remember_state
	.cfi_def_cfa_offset 32
	popq	%rbx
	.cfi_def_cfa_offset 24
	popq	%rbp
	.cfi_def_cfa_offset 16
	popq	%r12
	.cfi_def_cfa_offset 8
	ret
.L315:
	.cfi_restore_state
	call	__stack_chk_fail@PLT
	.cfi_endproc
.LFE6342:
	.section	.gcc_except_table._ZN4asio6detail14strand_service16shutdown_serviceEv,"aG",@progbits,_ZN4asio6detail14strand_service16shutdown_serviceEv,comdat
.LLSDA6342:
	.byte	0xff
	.byte	0xff
	.byte	0x1
	.uleb128 .LLSDACSE6342-.LLSDACSB6342
.LLSDACSB6342:
.LLSDACSE6342:
	.section	.text._ZN4asio6detail14strand_service16shutdown_serviceEv,"axG",@progbits,_ZN4asio6detail14strand_service16shutdown_serviceEv,comdat
	.size	_ZN4asio6detail14strand_service16shutdown_serviceEv, .-_ZN4asio6detail14strand_service16shutdown_serviceEv
	.section	.text.unlikely,"ax",@progbits
.LCOLDB4:
	.text
.LHOTB4:
	.p2align 4
	.type	_ZN4asio6detail18completion_handlerIZN7asiopal8Executor10BlockUntilERKSt8functionIFvvEEEUlvE_E11do_completeEPNS0_15task_io_serviceEPNS0_25task_io_service_operationERKSt10error_codem, @function
_ZN4asio6detail18completion_handlerIZN7asiopal8Executor10BlockUntilERKSt8functionIFvvEEEUlvE_E11do_completeEPNS0_15task_io_serviceEPNS0_25task_io_service_operationERKSt10error_codem:
.LFB8590:
	.cfi_startproc
	.cfi_personality 0x9b,DW.ref.__gxx_personality_v0
	.cfi_lsda 0x1b,.LLSDA8590
	endbr64
	pushq	%r13
	.cfi_def_cfa_offset 16
	.cfi_offset 13, -16
	pushq	%r12
	.cfi_def_cfa_offset 24
	.cfi_offset 12, -24
	pushq	%rbp
	.cfi_def_cfa_offset 32
	.cfi_offset 6, -32
	movq	%rsi, %rbp
	pushq	%rbx
	.cfi_def_cfa_offset 40
	.cfi_offset 3, -40
	movq	%rdi, %rbx
	subq	$136, %rsp
	.cfi_def_cfa_offset 176
	movq	24(%rsi), %r12
	movq	32(%rsi), %r13
	movq	%fs:40, %rax
	movq	%rax, 120(%rsp)
	xorl	%eax, %eax
	data16	leaq	_ZN4asio6detail15keyword_tss_ptrINS0_10call_stackINS0_15task_io_serviceENS0_27task_io_service_thread_infoEE7contextEE6value_E@tlsgd(%rip), %rdi
	.value	0x6666
	rex64
	call	__tls_get_addr@PLT
	movq	(%rax), %rax
	testq	%rax, %rax
	je	.L317
	movq	8(%rax), %rax
	testq	%rax, %rax
	je	.L317
	cmpq	$0, (%rax)
	je	.L349
.L317:
	movq	%rbp, %rdi
	call	_ZdlPv@PLT
.L318:
	testq	%rbx, %rbx
	je	.L316
	cmpq	$0, 16(%r12)
	je	.L350
	movq	%r12, %rdi
.LEHB2:
	call	*24(%r12)
.LEHE2:
	movq	0(%r13), %rbx
	movb	$1, 6(%rsp)
	testq	%rbx, %rbx
	je	.L351
	leaq	6(%rsp), %rax
	leaq	80(%rsp), %rbp
	movq	%r13, 80(%rsp)
	movq	_ZNSt14_Function_base13_Base_managerINSt13__future_base13_State_baseV27_SetterIbObEEE10_M_managerERSt9_Any_dataRKS7_St18_Manager_operation@GOTPCREL(%rip), %xmm0
	movq	%rax, 88(%rsp)
	leaq	7(%rsp), %rax
	movq	%rax, 24(%rsp)
	movq	_ZNSt13__future_base13_State_baseV29_M_do_setEPSt8functionIFSt10unique_ptrINS_12_Result_baseENS3_8_DeleterEEvEEPb@GOTPCREL(%rip), %rax
	movhps	_ZNSt17_Function_handlerIFSt10unique_ptrINSt13__future_base12_Result_baseENS2_8_DeleterEEvENS1_13_State_baseV27_SetterIbObEEE9_M_invokeERKSt9_Any_data@GOTPCREL(%rip), %xmm0
	movaps	%xmm0, 96(%rsp)
	movq	%rax, 32(%rsp)
	leaq	32(%rsp), %rax
	movq	%rax, %xmm0
	leaq	8(%rsp), %rax
	movb	$0, 7(%rsp)
	movq	%rax, %xmm1
	leaq	16(%rsp), %rax
	movq	%rbp, 16(%rsp)
	punpcklqdq	%xmm1, %xmm0
	movq	%rbx, 8(%rsp)
	movaps	%xmm0, 48(%rsp)
	movq	%rax, %xmm0
	leaq	24(%rsp), %rax
	movq	$0, 40(%rsp)
	movq	%rax, %xmm2
	punpcklqdq	%xmm2, %xmm0
	movaps	%xmm0, 64(%rsp)
	data16	leaq	_ZSt15__once_callable@tlsgd(%rip), %rdi
	.value	0x6666
	rex64
	call	__tls_get_addr@PLT
	leaq	48(%rsp), %rdx
	movq	%rdx, (%rax)
	data16	leaq	_ZSt11__once_call@tlsgd(%rip), %rdi
	.value	0x6666
	rex64
	call	__tls_get_addr@PLT
	movq	_ZZSt9call_onceIMNSt13__future_base13_State_baseV2EFvPSt8functionIFSt10unique_ptrINS0_12_Result_baseENS4_8_DeleterEEvEEPbEJPS1_S9_SA_EEvRSt9once_flagOT_DpOT0_ENUlvE0_4_FUNEv@GOTPCREL(%rip), %rdx
	leaq	24(%rbx), %rdi
	cmpq	$0, _ZL28__gthrw___pthread_key_createPjPFvPvE@GOTPCREL(%rip)
	movq	%rdx, (%rax)
	je	.L333
	movq	__once_proxy@GOTPCREL(%rip), %rsi
.LEHB3:
	call	_ZL20__gthrw_pthread_oncePiPFvvE@PLT
	testl	%eax, %eax
	jne	.L322
	cmpb	$0, 7(%rsp)
	jne	.L352
	movl	$2, %edi
	call	_ZSt20__throw_future_errori@PLT
	.p2align 4,,10
	.p2align 3
.L352:
	leaq	16(%rbx), %rdi
	movl	$1, %eax
	xchgl	(%rdi), %eax
	testl	%eax, %eax
	jns	.L328
	call	_ZNSt28__atomic_futex_unsigned_base19_M_futex_notify_allEPj@PLT
.LEHE3:
.L328:
	movq	96(%rsp), %rax
	testq	%rax, %rax
	je	.L327
	movl	$3, %edx
	movq	%rbp, %rsi
	movq	%rbp, %rdi
	call	*%rax
.L327:
	sfence
.L316:
	movq	120(%rsp), %rax
	xorq	%fs:40, %rax
	jne	.L353
	addq	$136, %rsp
	.cfi_remember_state
	.cfi_def_cfa_offset 40
	popq	%rbx
	.cfi_def_cfa_offset 32
	popq	%rbp
	.cfi_def_cfa_offset 24
	popq	%r12
	.cfi_def_cfa_offset 16
	popq	%r13
	.cfi_def_cfa_offset 8
	ret
	.p2align 4,,10
	.p2align 3
.L349:
	.cfi_restore_state
	movzbl	40(%rbp), %edx
	movb	%dl, 0(%rbp)
	movq	%rbp, (%rax)
	jmp	.L318
.L333:
	movl	$-1, %eax
.L322:
	movl	%eax, %edi
.LEHB4:
	call	_ZSt20__throw_system_errori@PLT
.LEHE4:
.L351:
	movl	$3, %edi
.LEHB5:
	call	_ZSt20__throw_future_errori@PLT
.L350:
	call	_ZSt25__throw_bad_function_callv@PLT
.LEHE5:
.L353:
	call	__stack_chk_fail@PLT
.L334:
	endbr64
	movq	%rax, %rdi
	jmp	.L331
.L335:
	endbr64
	movq	%rax, %rbx
	jmp	.L329
	.section	.gcc_except_table,"a",@progbits
.LLSDA8590:
	.byte	0xff
	.byte	0xff
	.byte	0x1
	.uleb128 .LLSDACSE8590-.LLSDACSB8590
.LLSDACSB8590:
	.uleb128 .LEHB2-.LFB8590
	.uleb128 .LEHE2-.LEHB2
	.uleb128 .L334-.LFB8590
	.uleb128 0
	.uleb128 .LEHB3-.LFB8590
	.uleb128 .LEHE3-.LEHB3
	.uleb128 .L335-.LFB8590
	.uleb128 0
	.uleb128 .LEHB4-.LFB8590
	.uleb128 .LEHE4-.LEHB4
	.uleb128 .L335-.LFB8590
	.uleb128 0
	.uleb128 .LEHB5-.LFB8590
	.uleb128 .LEHE5-.LEHB5
	.uleb128 .L334-.LFB8590
	.uleb128 0
.LLSDACSE8590:
	.text
	.cfi_endproc
	.section	.text.unlikely
	.cfi_startproc
	.cfi_personality 0x9b,DW.ref.__gxx_personality_v0
	.cfi_lsda 0x1b,.LLSDAC8590
	.type	_ZN4asio6detail18completion_handlerIZN7asiopal8Executor10BlockUntilERKSt8functionIFvvEEEUlvE_E11do_completeEPNS0_15task_io_serviceEPNS0_25task_io_service_operationERKSt10error_codem.cold, @function
_ZN4asio6detail18completion_handlerIZN7asiopal8Executor10BlockUntilERKSt8functionIFvvEEEUlvE_E11do_completeEPNS0_15task_io_serviceEPNS0_25task_io_service_operationERKSt10error_codem.cold:
.LFSB8590:
.L329:
	.cfi_def_cfa_offset 176
	.cfi_offset 3, -40
	.cfi_offset 6, -32
	.cfi_offset 12, -24
	.cfi_offset 13, -16
	movq	96(%rsp), %rax
	testq	%rax, %rax
	je	.L330
	movl	$3, %edx
	movq	%rbp, %rsi
	movq	%rbp, %rdi
	call	*%rax
.L330:
	movq	%rbx, %rdi
.L331:
	sfence
.LEHB6:
	call	_Unwind_Resume@PLT
.LEHE6:
	.cfi_endproc
.LFE8590:
	.section	.gcc_except_table
.LLSDAC8590:
	.byte	0xff
	.byte	0xff
	.byte	0x1
	.uleb128 .LLSDACSEC8590-.LLSDACSBC8590
.LLSDACSBC8590:
	.uleb128 .LEHB6-.LCOLDB4
	.uleb128 .LEHE6-.LEHB6
	.uleb128 0
	.uleb128 0
.LLSDACSEC8590:
	.section	.text.unlikely
	.text
	.size	_ZN4asio6detail18completion_handlerIZN7asiopal8Executor10BlockUntilERKSt8functionIFvvEEEUlvE_E11do_completeEPNS0_15task_io_serviceEPNS0_25task_io_service_operationERKSt10error_codem, .-_ZN4asio6detail18completion_handlerIZN7asiopal8Executor10BlockUntilERKSt8functionIFvvEEEUlvE_E11do_completeEPNS0_15task_io_serviceEPNS0_25task_io_service_operationERKSt10error_codem
	.section	.text.unlikely
	.size	_ZN4asio6detail18completion_handlerIZN7asiopal8Executor10BlockUntilERKSt8functionIFvvEEEUlvE_E11do_completeEPNS0_15task_io_serviceEPNS0_25task_io_service_operationERKSt10error_codem.cold, .-_ZN4asio6detail18completion_handlerIZN7asiopal8Executor10BlockUntilERKSt8functionIFvvEEEUlvE_E11do_completeEPNS0_15task_io_serviceEPNS0_25task_io_service_operationERKSt10error_codem.cold
.LCOLDE4:
	.text
.LHOTE4:
	.section	.text._ZN7asiopal8ExecutorD0Ev,"axG",@progbits,_ZN7asiopal8ExecutorD5Ev,comdat
	.align 2
	.p2align 4
	.weak	_ZN7asiopal8ExecutorD0Ev
	.type	_ZN7asiopal8ExecutorD0Ev, @function
_ZN7asiopal8ExecutorD0Ev:
.LFB9242:
	.cfi_startproc
	endbr64
	movq	_ZTVN7asiopal8ExecutorE@GOTPCREL(%rip), %rax
	pushq	%r12
	.cfi_def_cfa_offset 16
	.cfi_offset 12, -16
	pushq	%rbp
	.cfi_def_cfa_offset 24
	.cfi_offset 6, -24
	movq	%rdi, %rbp
	pushq	%rbx
	.cfi_def_cfa_offset 32
	.cfi_offset 3, -32
	movq	32(%rdi), %r12
	addq	$16, %rax
	movq	%rax, (%rdi)
	testq	%r12, %r12
	je	.L356
	movq	_ZL28__gthrw___pthread_key_createPjPFvPvE@GOTPCREL(%rip), %rbx
	testq	%rbx, %rbx
	je	.L357
	movl	$-1, %eax
	lock xaddl	%eax, 8(%r12)
	cmpl	$1, %eax
	je	.L368
	.p2align 4,,10
	.p2align 3
.L356:
	movq	16(%rbp), %rdi
	testq	%rdi, %rdi
	je	.L363
	cmpq	$0, _ZL28__gthrw___pthread_key_createPjPFvPvE@GOTPCREL(%rip)
	je	.L364
	movl	$-1, %eax
	lock xaddl	%eax, 12(%rdi)
	cmpl	$1, %eax
	je	.L369
.L363:
	popq	%rbx
	.cfi_remember_state
	.cfi_def_cfa_offset 24
	movq	%rbp, %rdi
	movl	$56, %esi
	popq	%rbp
	.cfi_def_cfa_offset 16
	popq	%r12
	.cfi_def_cfa_offset 8
	jmp	_ZdlPvm@PLT
	.p2align 4,,10
	.p2align 3
.L357:
	.cfi_restore_state
	movl	8(%r12), %eax
	leal	-1(%rax), %edx
	movl	%edx, 8(%r12)
	cmpl	$1, %eax
	jne	.L356
.L368:
	movq	(%r12), %rax
	movq	%r12, %rdi
	call	*16(%rax)
	testq	%rbx, %rbx
	je	.L360
	movl	$-1, %eax
	lock xaddl	%eax, 12(%r12)
.L361:
	cmpl	$1, %eax
	jne	.L356
	movq	(%r12), %rax
	movq	%r12, %rdi
	call	*24(%rax)
	jmp	.L356
	.p2align 4,,10
	.p2align 3
.L364:
	movl	12(%rdi), %eax
	leal	-1(%rax), %edx
	movl	%edx, 12(%rdi)
	cmpl	$1, %eax
	jne	.L363
.L369:
	movq	(%rdi), %rax
	call	*24(%rax)
	jmp	.L363
	.p2align 4,,10
	.p2align 3
.L360:
	movl	12(%r12), %eax
	leal	-1(%rax), %edx
	movl	%edx, 12(%r12)
	jmp	.L361
	.cfi_endproc
.LFE9242:
	.size	_ZN7asiopal8ExecutorD0Ev, .-_ZN7asiopal8ExecutorD0Ev
	.section	.text._ZN7asiopal8ExecutorD2Ev,"axG",@progbits,_ZN7asiopal8ExecutorD5Ev,comdat
	.align 2
	.p2align 4
	.weak	_ZN7asiopal8ExecutorD2Ev
	.type	_ZN7asiopal8ExecutorD2Ev, @function
_ZN7asiopal8ExecutorD2Ev:
.LFB9240:
	.cfi_startproc
	endbr64
	movq	_ZTVN7asiopal8ExecutorE@GOTPCREL(%rip), %rax
	pushq	%r12
	.cfi_def_cfa_offset 16
	.cfi_offset 12, -16
	pushq	%rbp
	.cfi_def_cfa_offset 24
	.cfi_offset 6, -24
	pushq	%rbx
	.cfi_def_cfa_offset 32
	.cfi_offset 3, -32
	movq	32(%rdi), %rbp
	addq	$16, %rax
	movq	%rdi, %rbx
	movq	%rax, (%rdi)
	testq	%rbp, %rbp
	je	.L372
	movq	_ZL28__gthrw___pthread_key_createPjPFvPvE@GOTPCREL(%rip), %r12
	testq	%r12, %r12
	je	.L373
	movl	$-1, %eax
	lock xaddl	%eax, 8(%rbp)
	cmpl	$1, %eax
	je	.L384
	.p2align 4,,10
	.p2align 3
.L372:
	movq	16(%rbx), %rdi
	testq	%rdi, %rdi
	je	.L370
	cmpq	$0, _ZL28__gthrw___pthread_key_createPjPFvPvE@GOTPCREL(%rip)
	je	.L380
	movl	$-1, %eax
	lock xaddl	%eax, 12(%rdi)
	cmpl	$1, %eax
	je	.L385
.L370:
	popq	%rbx
	.cfi_remember_state
	.cfi_def_cfa_offset 24
	popq	%rbp
	.cfi_def_cfa_offset 16
	popq	%r12
	.cfi_def_cfa_offset 8
	ret
	.p2align 4,,10
	.p2align 3
.L373:
	.cfi_restore_state
	movl	8(%rbp), %eax
	leal	-1(%rax), %edx
	movl	%edx, 8(%rbp)
	cmpl	$1, %eax
	jne	.L372
.L384:
	movq	0(%rbp), %rax
	movq	%rbp, %rdi
	call	*16(%rax)
	testq	%r12, %r12
	je	.L376
	movl	$-1, %eax
	lock xaddl	%eax, 12(%rbp)
.L377:
	cmpl	$1, %eax
	jne	.L372
	movq	0(%rbp), %rax
	movq	%rbp, %rdi
	call	*24(%rax)
	jmp	.L372
	.p2align 4,,10
	.p2align 3
.L380:
	movl	12(%rdi), %eax
	leal	-1(%rax), %edx
	movl	%edx, 12(%rdi)
	cmpl	$1, %eax
	jne	.L370
.L385:
	movq	(%rdi), %rax
	popq	%rbx
	.cfi_remember_state
	.cfi_def_cfa_offset 24
	popq	%rbp
	.cfi_def_cfa_offset 16
	popq	%r12
	.cfi_def_cfa_offset 8
	movq	24(%rax), %rax
	jmp	*%rax
	.p2align 4,,10
	.p2align 3
.L376:
	.cfi_restore_state
	movl	12(%rbp), %eax
	leal	-1(%rax), %edx
	movl	%edx, 12(%rbp)
	jmp	.L377
	.cfi_endproc
.LFE9240:
	.size	_ZN7asiopal8ExecutorD2Ev, .-_ZN7asiopal8ExecutorD2Ev
	.weak	_ZN7asiopal8ExecutorD1Ev
	.set	_ZN7asiopal8ExecutorD1Ev,_ZN7asiopal8ExecutorD2Ev
	.section	.rodata._ZNK4asio6detail15system_category7messageB5cxx11Ei.str1.8,"aMS",@progbits,1
	.align 8
.LC5:
	.string	"basic_string::_M_construct null not valid"
	.section	.text._ZNK4asio6detail15system_category7messageB5cxx11Ei,"axG",@progbits,_ZNK4asio6detail15system_category7messageB5cxx11Ei,comdat
	.align 2
	.p2align 4
	.weak	_ZNK4asio6detail15system_category7messageB5cxx11Ei
	.type	_ZNK4asio6detail15system_category7messageB5cxx11Ei, @function
_ZNK4asio6detail15system_category7messageB5cxx11Ei:
.LFB2344:
	.cfi_startproc
	endbr64
	pushq	%r14
	.cfi_def_cfa_offset 16
	.cfi_offset 14, -16
	pushq	%r13
	.cfi_def_cfa_offset 24
	.cfi_offset 13, -24
	pushq	%r12
	.cfi_def_cfa_offset 32
	.cfi_offset 12, -32
	movq	%rdi, %r12
	pushq	%rbp
	.cfi_def_cfa_offset 40
	.cfi_offset 6, -40
	leaq	16(%rdi), %rbp
	subq	$296, %rsp
	.cfi_def_cfa_offset 336
	movq	%fs:40, %rax
	movq	%rax, 280(%rsp)
	xorl	%eax, %eax
	cmpl	$125, %edx
	je	.L399
	pxor	%xmm0, %xmm0
	movl	%edx, %edi
	leaq	16(%rsp), %rsi
	movl	$256, %edx
	movaps	%xmm0, 16(%rsp)
	movaps	%xmm0, 32(%rsp)
	movaps	%xmm0, 48(%rsp)
	movaps	%xmm0, 64(%rsp)
	movaps	%xmm0, 80(%rsp)
	movaps	%xmm0, 96(%rsp)
	movaps	%xmm0, 112(%rsp)
	movaps	%xmm0, 128(%rsp)
	movaps	%xmm0, 144(%rsp)
	movaps	%xmm0, 160(%rsp)
	movaps	%xmm0, 176(%rsp)
	movaps	%xmm0, 192(%rsp)
	movaps	%xmm0, 208(%rsp)
	movaps	%xmm0, 224(%rsp)
	movaps	%xmm0, 240(%rsp)
	movaps	%xmm0, 256(%rsp)
	call	strerror_r@PLT
	movq	%rbp, (%r12)
	movq	%rax, %r14
	testq	%rax, %rax
	je	.L400
	movq	%rax, %rdi
	call	strlen@PLT
	movq	%rax, 8(%rsp)
	movq	%rax, %r13
	cmpq	$15, %rax
	ja	.L401
	cmpq	$1, %rax
	jne	.L392
	movzbl	(%r14), %edx
	movb	%dl, 16(%r12)
.L393:
	movq	%rax, 8(%r12)
	movb	$0, 0(%rbp,%rax)
.L386:
	movq	280(%rsp), %rax
	xorq	%fs:40, %rax
	jne	.L402
	addq	$296, %rsp
	.cfi_remember_state
	.cfi_def_cfa_offset 40
	movq	%r12, %rax
	popq	%rbp
	.cfi_def_cfa_offset 32
	popq	%r12
	.cfi_def_cfa_offset 24
	popq	%r13
	.cfi_def_cfa_offset 16
	popq	%r14
	.cfi_def_cfa_offset 8
	ret
	.p2align 4,,10
	.p2align 3
.L401:
	.cfi_restore_state
	leaq	8(%rsp), %rsi
	xorl	%edx, %edx
	movq	%r12, %rdi
	call	_ZNSt7__cxx1112basic_stringIcSt11char_traitsIcESaIcEE9_M_createERmm@PLT
	movq	%rax, (%r12)
	movq	%rax, %rbp
	movq	8(%rsp), %rax
	movq	%rax, 16(%r12)
.L391:
	movq	%rbp, %rdi
	movq	%r13, %rdx
	movq	%r14, %rsi
	call	memcpy@PLT
	movq	8(%rsp), %rax
	movq	(%r12), %rbp
	jmp	.L393
	.p2align 4,,10
	.p2align 3
.L399:
	movq	%rbp, (%rdi)
	xorl	%edx, %edx
	leaq	8(%rsp), %rsi
	movq	$18, 8(%rsp)
	call	_ZNSt7__cxx1112basic_stringIcSt11char_traitsIcESaIcEE9_M_createERmm@PLT
	movq	8(%rsp), %rdx
	movdqa	.LC6(%rip), %xmm0
	movq	%rax, (%r12)
	movq	%rdx, 16(%r12)
	movl	$11876, %edx
	movw	%dx, 16(%rax)
	movups	%xmm0, (%rax)
	movq	8(%rsp), %rax
	movq	(%r12), %rdx
	movq	%rax, 8(%r12)
	movb	$0, (%rdx,%rax)
	jmp	.L386
	.p2align 4,,10
	.p2align 3
.L392:
	testq	%rax, %rax
	je	.L393
	jmp	.L391
	.p2align 4,,10
	.p2align 3
.L400:
	leaq	.LC5(%rip), %rdi
	call	_ZSt19__throw_logic_errorPKc@PLT
.L402:
	call	__stack_chk_fail@PLT
	.cfi_endproc
.LFE2344:
	.size	_ZNK4asio6detail15system_category7messageB5cxx11Ei, .-_ZNK4asio6detail15system_category7messageB5cxx11Ei
	.section	.text.unlikely
	.align 2
	.type	_ZZN7asiopal8Executor4PostERKSt8functionIFvvEEENUlvE_D2Ev, @function
_ZZN7asiopal8Executor4PostERKSt8functionIFvvEEENUlvE_D2Ev:
.LFB6925:
	.cfi_startproc
	.cfi_personality 0x9b,DW.ref.__gxx_personality_v0
	.cfi_lsda 0x1b,.LLSDA6925
	pushq	%r12
	.cfi_def_cfa_offset 16
	.cfi_offset 12, -16
	movq	%rdi, %r12
	pushq	%rbp
	.cfi_def_cfa_offset 24
	.cfi_offset 6, -24
	pushq	%rbx
	.cfi_def_cfa_offset 32
	.cfi_offset 3, -32
	movq	40(%rdi), %rbp
	testq	%rbp, %rbp
	je	.L405
	movq	_ZL28__gthrw___pthread_key_createPjPFvPvE@GOTPCREL(%rip), %rbx
	testq	%rbx, %rbx
	je	.L406
	orl	$-1, %eax
	lock xaddl	%eax, 8(%rbp)
	jmp	.L407
.L406:
	movl	8(%rbp), %eax
	leal	-1(%rax), %edx
	movl	%edx, 8(%rbp)
.L407:
	decl	%eax
	jne	.L405
	movq	0(%rbp), %rax
	movq	%rbp, %rdi
	call	*16(%rax)
	testq	%rbx, %rbx
	je	.L409
	orl	$-1, %eax
	lock xaddl	%eax, 12(%rbp)
	jmp	.L410
.L409:
	movl	12(%rbp), %eax
	leal	-1(%rax), %edx
	movl	%edx, 12(%rbp)
.L410:
	decl	%eax
	jne	.L405
	movq	0(%rbp), %rax
	movq	%rbp, %rdi
	call	*24(%rax)
.L405:
	movq	16(%r12), %rax
	testq	%rax, %rax
	je	.L403
	movl	$3, %edx
	movq	%r12, %rsi
	movq	%r12, %rdi
	call	*%rax
.L403:
	popq	%rbx
	.cfi_def_cfa_offset 24
	popq	%rbp
	.cfi_def_cfa_offset 16
	popq	%r12
	.cfi_def_cfa_offset 8
	ret
	.cfi_endproc
.LFE6925:
	.section	.gcc_except_table
.LLSDA6925:
	.byte	0xff
	.byte	0xff
	.byte	0x1
	.uleb128 .LLSDACSE6925-.LLSDACSB6925
.LLSDACSB6925:
.LLSDACSE6925:
	.section	.text.unlikely
	.size	_ZZN7asiopal8Executor4PostERKSt8functionIFvvEEENUlvE_D2Ev, .-_ZZN7asiopal8Executor4PostERKSt8functionIFvvEEENUlvE_D2Ev
	.set	_ZZN7asiopal8Executor4PostERKSt8functionIFvvEEENUlvE_D1Ev,_ZZN7asiopal8Executor4PostERKSt8functionIFvvEEENUlvE_D2Ev
	.align 2
	.type	_ZZN7asiopal8Executor5StartERKNSt6chrono10time_pointINS1_3_V212steady_clockENS1_8durationIlSt5ratioILl1ELl1000000000EEEEEERKSt8functionIFvvEEENUlRKSt10error_codeE_D2Ev, @function
_ZZN7asiopal8Executor5StartERKNSt6chrono10time_pointINS1_3_V212steady_clockENS1_8durationIlSt5ratioILl1ELl1000000000EEEEEERKSt8functionIFvvEEENUlRKSt10error_codeE_D2Ev:
.LFB6905:
	.cfi_startproc
	.cfi_personality 0x9b,DW.ref.__gxx_personality_v0
	.cfi_lsda 0x1b,.LLSDA6905
	pushq	%r12
	.cfi_def_cfa_offset 16
	.cfi_offset 12, -16
	pushq	%rbp
	.cfi_def_cfa_offset 24
	.cfi_offset 6, -24
	pushq	%rbx
	.cfi_def_cfa_offset 32
	.cfi_offset 3, -32
	movq	56(%rdi), %rbp
	movq	%rdi, %rbx
	testq	%rbp, %rbp
	je	.L418
	movq	_ZL28__gthrw___pthread_key_createPjPFvPvE@GOTPCREL(%rip), %r12
	testq	%r12, %r12
	je	.L419
	orl	$-1, %eax
	lock xaddl	%eax, 8(%rbp)
	jmp	.L420
.L419:
	movl	8(%rbp), %eax
	leal	-1(%rax), %edx
	movl	%edx, 8(%rbp)
.L420:
	decl	%eax
	jne	.L418
	movq	0(%rbp), %rax
	movq	%rbp, %rdi
	call	*16(%rax)
	testq	%r12, %r12
	je	.L422
	orl	$-1, %eax
	lock xaddl	%eax, 12(%rbp)
	jmp	.L423
.L422:
	movl	12(%rbp), %eax
	leal	-1(%rax), %edx
	movl	%edx, 12(%rbp)
.L423:
	decl	%eax
	jne	.L418
	movq	0(%rbp), %rax
	movq	%rbp, %rdi
	call	*24(%rax)
.L418:
	movq	32(%rbx), %rax
	testq	%rax, %rax
	je	.L424
	leaq	16(%rbx), %rdi
	movl	$3, %edx
	movq	%rdi, %rsi
	call	*%rax
.L424:
	movq	8(%rbx), %rbp
	testq	%rbp, %rbp
	je	.L416
	movq	_ZL28__gthrw___pthread_key_createPjPFvPvE@GOTPCREL(%rip), %rbx
	testq	%rbx, %rbx
	je	.L427
	orl	$-1, %eax
	lock xaddl	%eax, 8(%rbp)
	jmp	.L428
.L427:
	movl	8(%rbp), %eax
	leal	-1(%rax), %edx
	movl	%edx, 8(%rbp)
.L428:
	decl	%eax
	jne	.L416
	movq	0(%rbp), %rax
	movq	%rbp, %rdi
	call	*16(%rax)
	testq	%rbx, %rbx
	je	.L430
	orl	$-1, %eax
	lock xaddl	%eax, 12(%rbp)
	jmp	.L431
.L430:
	movl	12(%rbp), %eax
	leal	-1(%rax), %edx
	movl	%edx, 12(%rbp)
.L431:
	decl	%eax
	jne	.L416
	movq	0(%rbp), %rax
	popq	%rbx
	.cfi_remember_state
	.cfi_def_cfa_offset 24
	movq	%rbp, %rdi
	popq	%rbp
	.cfi_def_cfa_offset 16
	popq	%r12
	.cfi_def_cfa_offset 8
	movq	24(%rax), %rax
	jmp	*%rax
.L416:
	.cfi_restore_state
	popq	%rbx
	.cfi_def_cfa_offset 24
	popq	%rbp
	.cfi_def_cfa_offset 16
	popq	%r12
	.cfi_def_cfa_offset 8
	ret
	.cfi_endproc
.LFE6905:
	.section	.gcc_except_table
.LLSDA6905:
	.byte	0xff
	.byte	0xff
	.byte	0x1
	.uleb128 .LLSDACSE6905-.LLSDACSB6905
.LLSDACSB6905:
.LLSDACSE6905:
	.section	.text.unlikely
	.size	_ZZN7asiopal8Executor5StartERKNSt6chrono10time_pointINS1_3_V212steady_clockENS1_8durationIlSt5ratioILl1ELl1000000000EEEEEERKSt8functionIFvvEEENUlRKSt10error_codeE_D2Ev, .-_ZZN7asiopal8Executor5StartERKNSt6chrono10time_pointINS1_3_V212steady_clockENS1_8durationIlSt5ratioILl1ELl1000000000EEEEEERKSt8functionIFvvEEENUlRKSt10error_codeE_D2Ev
	.set	_ZZN7asiopal8Executor5StartERKNSt6chrono10time_pointINS1_3_V212steady_clockENS1_8durationIlSt5ratioILl1ELl1000000000EEEEEERKSt8functionIFvvEEENUlRKSt10error_codeE_D1Ev,_ZZN7asiopal8Executor5StartERKNSt6chrono10time_pointINS1_3_V212steady_clockENS1_8durationIlSt5ratioILl1ELl1000000000EEEEEERKSt8functionIFvvEEENUlRKSt10error_codeE_D2Ev
	.section	.text._ZNK4asio5error6detail17addrinfo_category7messageB5cxx11Ei,"axG",@progbits,_ZNK4asio5error6detail17addrinfo_category7messageB5cxx11Ei,comdat
	.align 2
	.p2align 4
	.weak	_ZNK4asio5error6detail17addrinfo_category7messageB5cxx11Ei
	.type	_ZNK4asio5error6detail17addrinfo_category7messageB5cxx11Ei, @function
_ZNK4asio5error6detail17addrinfo_category7messageB5cxx11Ei:
.LFB2390:
	.cfi_startproc
	endbr64
	pushq	%r12
	.cfi_def_cfa_offset 16
	.cfi_offset 12, -16
	movq	%rdi, %r12
	subq	$16, %rsp
	.cfi_def_cfa_offset 32
	movq	%fs:40, %rax
	movq	%rax, 8(%rsp)
	xorl	%eax, %eax
	leaq	16(%rdi), %rax
	movq	%rax, (%rdi)
	cmpl	$-8, %edx
	je	.L442
	cmpl	$-7, %edx
	je	.L443
	xorl	%edx, %edx
	movq	%rsp, %rsi
	movq	$19, (%rsp)
	call	_ZNSt7__cxx1112basic_stringIcSt11char_traitsIcESaIcEE9_M_createERmm@PLT
	movq	(%rsp), %rdx
	movdqa	.LC9(%rip), %xmm0
	movq	%rax, (%r12)
	movq	%rdx, 16(%r12)
	movl	$28530, %edx
	movw	%dx, 16(%rax)
	movb	$114, 18(%rax)
	movups	%xmm0, (%rax)
	movq	(%rsp), %rax
	movq	(%r12), %rdx
	movq	%rax, 8(%r12)
	movb	$0, (%rdx,%rax)
.L436:
	movq	8(%rsp), %rax
	xorq	%fs:40, %rax
	jne	.L444
	addq	$16, %rsp
	.cfi_remember_state
	.cfi_def_cfa_offset 16
	movq	%r12, %rax
	popq	%r12
	.cfi_def_cfa_offset 8
	ret
	.p2align 4,,10
	.p2align 3
.L443:
	.cfi_restore_state
	xorl	%edx, %edx
	movq	%rsp, %rsi
	movq	$25, (%rsp)
	call	_ZNSt7__cxx1112basic_stringIcSt11char_traitsIcESaIcEE9_M_createERmm@PLT
	movq	(%rsp), %rdx
	movdqa	.LC8(%rip), %xmm0
	movabsq	$7310593918082512243, %rcx
	movq	%rax, (%r12)
	movq	%rdx, 16(%r12)
	movq	%rcx, 16(%rax)
	movb	$100, 24(%rax)
	movups	%xmm0, (%rax)
	movq	(%rsp), %rax
	movq	(%r12), %rdx
	movq	%rax, 8(%r12)
	movb	$0, (%rdx,%rax)
	jmp	.L436
	.p2align 4,,10
	.p2align 3
.L442:
	xorl	%edx, %edx
	movq	%rsp, %rsi
	movq	$17, (%rsp)
	call	_ZNSt7__cxx1112basic_stringIcSt11char_traitsIcESaIcEE9_M_createERmm@PLT
	movq	(%rsp), %rdx
	movdqa	.LC7(%rip), %xmm0
	movq	%rax, (%r12)
	movq	%rdx, 16(%r12)
	movb	$100, 16(%rax)
	movups	%xmm0, (%rax)
	movq	(%rsp), %rax
	movq	(%r12), %rdx
	movq	%rax, 8(%r12)
	movb	$0, (%rdx,%rax)
	jmp	.L436
.L444:
	call	__stack_chk_fail@PLT
	.cfi_endproc
.LFE2390:
	.size	_ZNK4asio5error6detail17addrinfo_category7messageB5cxx11Ei, .-_ZNK4asio5error6detail17addrinfo_category7messageB5cxx11Ei
	.section	.text.unlikely
	.align 2
	.type	_ZN4asio6detail18completion_handlerIZN7asiopal8Executor4PostERKSt8functionIFvvEEEUlvE_E3ptr5resetEv.isra.0, @function
_ZN4asio6detail18completion_handlerIZN7asiopal8Executor4PostERKSt8functionIFvvEEEUlvE_E3ptr5resetEv.isra.0:
.LFB9539:
	.cfi_startproc
	.cfi_personality 0x9b,DW.ref.__gxx_personality_v0
	.cfi_lsda 0x1b,.LLSDA9539
	pushq	%r14
	.cfi_def_cfa_offset 16
	.cfi_offset 14, -16
	pushq	%r13
	.cfi_def_cfa_offset 24
	.cfi_offset 13, -24
	pushq	%r12
	.cfi_def_cfa_offset 32
	.cfi_offset 12, -32
	movq	%rdi, %r12
	pushq	%rbp
	.cfi_def_cfa_offset 40
	.cfi_offset 6, -40
	pushq	%rbx
	.cfi_def_cfa_offset 48
	.cfi_offset 3, -48
	movq	(%rsi), %rbx
	testq	%rbx, %rbx
	je	.L446
	movq	64(%rbx), %rbp
	movq	%rsi, %r13
	testq	%rbp, %rbp
	je	.L448
	movq	_ZL28__gthrw___pthread_key_createPjPFvPvE@GOTPCREL(%rip), %r14
	testq	%r14, %r14
	je	.L449
	orl	$-1, %eax
	lock xaddl	%eax, 8(%rbp)
	jmp	.L450
.L449:
	movl	8(%rbp), %eax
	leal	-1(%rax), %edx
	movl	%edx, 8(%rbp)
.L450:
	decl	%eax
	jne	.L448
	movq	0(%rbp), %rax
	movq	%rbp, %rdi
	call	*16(%rax)
	testq	%r14, %r14
	je	.L452
	orl	$-1, %eax
	lock xaddl	%eax, 12(%rbp)
	jmp	.L453
.L452:
	movl	12(%rbp), %eax
	leal	-1(%rax), %edx
	movl	%edx, 12(%rbp)
.L453:
	decl	%eax
	jne	.L448
	movq	0(%rbp), %rax
	movq	%rbp, %rdi
	call	*24(%rax)
.L448:
	movq	40(%rbx), %rax
	testq	%rax, %rax
	je	.L454
	leaq	24(%rbx), %rdi
	movl	$3, %edx
	movq	%rdi, %rsi
	call	*%rax
.L454:
	movq	$0, 0(%r13)
.L446:
	movq	(%r12), %rbp
	testq	%rbp, %rbp
	je	.L445
	data16	leaq	_ZN4asio6detail15keyword_tss_ptrINS0_10call_stackINS0_15task_io_serviceENS0_27task_io_service_thread_infoEE7contextEE6value_E@tlsgd(%rip), %rdi
	.value	0x6666
	rex64
	call	__tls_get_addr@PLT
	movq	(%rax), %rax
	testq	%rax, %rax
	je	.L456
	movq	8(%rax), %rax
	testq	%rax, %rax
	je	.L456
	cmpq	$0, (%rax)
	jne	.L456
	movb	72(%rbp), %dl
	movb	%dl, 0(%rbp)
	movq	%rbp, (%rax)
	jmp	.L457
.L456:
	movq	%rbp, %rdi
	call	_ZdlPv@PLT
.L457:
	movq	$0, (%r12)
.L445:
	popq	%rbx
	.cfi_def_cfa_offset 40
	popq	%rbp
	.cfi_def_cfa_offset 32
	popq	%r12
	.cfi_def_cfa_offset 24
	popq	%r13
	.cfi_def_cfa_offset 16
	popq	%r14
	.cfi_def_cfa_offset 8
	ret
	.cfi_endproc
.LFE9539:
	.section	.gcc_except_table
.LLSDA9539:
	.byte	0xff
	.byte	0xff
	.byte	0x1
	.uleb128 .LLSDACSE9539-.LLSDACSB9539
.LLSDACSB9539:
.LLSDACSE9539:
	.section	.text.unlikely
	.size	_ZN4asio6detail18completion_handlerIZN7asiopal8Executor4PostERKSt8functionIFvvEEEUlvE_E3ptr5resetEv.isra.0, .-_ZN4asio6detail18completion_handlerIZN7asiopal8Executor4PostERKSt8functionIFvvEEEUlvE_E3ptr5resetEv.isra.0
	.section	.text._ZNK4asio5error6detail14netdb_category7messageB5cxx11Ei,"axG",@progbits,_ZNK4asio5error6detail14netdb_category7messageB5cxx11Ei,comdat
	.align 2
	.p2align 4
	.weak	_ZNK4asio5error6detail14netdb_category7messageB5cxx11Ei
	.type	_ZNK4asio5error6detail14netdb_category7messageB5cxx11Ei, @function
_ZNK4asio5error6detail14netdb_category7messageB5cxx11Ei:
.LFB2384:
	.cfi_startproc
	endbr64
	pushq	%r12
	.cfi_def_cfa_offset 16
	.cfi_offset 12, -16
	movq	%rdi, %r12
	subq	$16, %rsp
	.cfi_def_cfa_offset 32
	movq	%fs:40, %rax
	movq	%rax, 8(%rsp)
	xorl	%eax, %eax
	leaq	16(%rdi), %rax
	movq	%rax, (%rdi)
	cmpl	$1, %edx
	je	.L482
	cmpl	$2, %edx
	je	.L483
	cmpl	$4, %edx
	je	.L484
	cmpl	$3, %edx
	je	.L485
	xorl	%edx, %edx
	movq	%rsp, %rsi
	movq	$16, (%rsp)
	call	_ZNSt7__cxx1112basic_stringIcSt11char_traitsIcESaIcEE9_M_createERmm@PLT
	movq	(%rsp), %rdx
	movdqa	.LC19(%rip), %xmm0
	movq	%rax, (%r12)
	movq	%rdx, 16(%r12)
	movups	%xmm0, (%rax)
	movq	(%rsp), %rax
	movq	(%r12), %rdx
	movq	%rax, 8(%r12)
	movb	$0, (%rdx,%rax)
.L474:
	movq	8(%rsp), %rax
	xorq	%fs:40, %rax
	jne	.L486
	addq	$16, %rsp
	.cfi_remember_state
	.cfi_def_cfa_offset 16
	movq	%r12, %rax
	popq	%r12
	.cfi_def_cfa_offset 8
	ret
	.p2align 4,,10
	.p2align 3
.L482:
	.cfi_restore_state
	movq	%rsp, %rsi
	xorl	%edx, %edx
	movq	$30, (%rsp)
	call	_ZNSt7__cxx1112basic_stringIcSt11char_traitsIcESaIcEE9_M_createERmm@PLT
	movq	(%rsp), %rdx
	movl	$10597, %esi
	movdqa	.LC10(%rip), %xmm0
	movabsq	$8388361603773658465, %rcx
	movq	%rax, (%r12)
	movq	%rdx, 16(%r12)
	movq	%rcx, 16(%rax)
	movl	$1986622561, 24(%rax)
	movw	%si, 28(%rax)
	movups	%xmm0, (%rax)
	movq	(%rsp), %rax
	movq	(%r12), %rdx
	movq	%rax, 8(%r12)
	movb	$0, (%rdx,%rax)
	jmp	.L474
	.p2align 4,,10
	.p2align 3
.L485:
	xorl	%edx, %edx
	movq	%rsp, %rsi
	movq	$55, (%rsp)
	call	_ZNSt7__cxx1112basic_stringIcSt11char_traitsIcESaIcEE9_M_createERmm@PLT
	movq	(%rsp), %rdx
	movdqa	.LC16(%rip), %xmm0
	movq	%rax, (%r12)
	movq	%rdx, 16(%r12)
	movl	$30059, %edx
	movups	%xmm0, (%rax)
	movdqa	.LC17(%rip), %xmm0
	movl	$1869573152, 48(%rax)
	movups	%xmm0, 16(%rax)
	movdqa	.LC18(%rip), %xmm0
	movw	%dx, 52(%rax)
	movb	$112, 54(%rax)
	movups	%xmm0, 32(%rax)
	movq	(%rsp), %rax
	movq	(%r12), %rdx
	movq	%rax, 8(%r12)
	movb	$0, (%rdx,%rax)
	jmp	.L474
	.p2align 4,,10
	.p2align 3
.L483:
	xorl	%edx, %edx
	movq	%rsp, %rsi
	movq	$51, (%rsp)
	call	_ZNSt7__cxx1112basic_stringIcSt11char_traitsIcESaIcEE9_M_createERmm@PLT
	movq	(%rsp), %rdx
	movl	$25972, %ecx
	movdqa	.LC10(%rip), %xmm0
	movq	%rax, (%r12)
	movq	%rdx, 16(%r12)
	movups	%xmm0, (%rax)
	movdqa	.LC11(%rip), %xmm0
	movw	%cx, 48(%rax)
	movups	%xmm0, 16(%rax)
	movdqa	.LC12(%rip), %xmm0
	movb	$114, 50(%rax)
	movups	%xmm0, 32(%rax)
	movq	(%rsp), %rax
	movq	(%r12), %rdx
	movq	%rax, 8(%r12)
	movb	$0, (%rdx,%rax)
	jmp	.L474
	.p2align 4,,10
	.p2align 3
.L484:
	xorl	%edx, %edx
	movq	%rsp, %rsi
	movq	$56, (%rsp)
	call	_ZNSt7__cxx1112basic_stringIcSt11char_traitsIcESaIcEE9_M_createERmm@PLT
	movq	(%rsp), %rdx
	movdqa	.LC13(%rip), %xmm0
	movabsq	$7022344801645520244, %rcx
	movq	%rax, (%r12)
	movq	%rdx, 16(%r12)
	movups	%xmm0, (%rax)
	movdqa	.LC14(%rip), %xmm0
	movq	%rcx, 48(%rax)
	movups	%xmm0, 16(%rax)
	movdqa	.LC15(%rip), %xmm0
	movups	%xmm0, 32(%rax)
	movq	(%rsp), %rax
	movq	(%r12), %rdx
	movq	%rax, 8(%r12)
	movb	$0, (%rdx,%rax)
	jmp	.L474
.L486:
	call	__stack_chk_fail@PLT
	.cfi_endproc
.LFE2384:
	.size	_ZNK4asio5error6detail14netdb_category7messageB5cxx11Ei, .-_ZNK4asio5error6detail14netdb_category7messageB5cxx11Ei
	.section	.text._ZNK4asio5error6detail13misc_category7messageB5cxx11Ei,"axG",@progbits,_ZNK4asio5error6detail13misc_category7messageB5cxx11Ei,comdat
	.align 2
	.p2align 4
	.weak	_ZNK4asio5error6detail13misc_category7messageB5cxx11Ei
	.type	_ZNK4asio5error6detail13misc_category7messageB5cxx11Ei, @function
_ZNK4asio5error6detail13misc_category7messageB5cxx11Ei:
.LFB2396:
	.cfi_startproc
	endbr64
	pushq	%r12
	.cfi_def_cfa_offset 16
	.cfi_offset 12, -16
	movq	%rdi, %r12
	subq	$16, %rsp
	.cfi_def_cfa_offset 32
	movq	%fs:40, %rax
	movq	%rax, 8(%rsp)
	xorl	%eax, %eax
	leaq	16(%rdi), %rax
	movq	%rax, (%rdi)
	cmpl	$1, %edx
	je	.L495
	cmpl	$2, %edx
	je	.L496
	cmpl	$3, %edx
	je	.L497
	cmpl	$4, %edx
	je	.L498
	movabsq	$8316298233121436513, %rcx
	movl	$28530, %edx
	movq	%rcx, 16(%rdi)
	movl	$1919230051, 8(%rax)
	movw	%dx, 12(%rax)
	movb	$114, 14(%rax)
	movq	$15, 8(%rdi)
	movb	$0, 31(%rdi)
.L487:
	movq	8(%rsp), %rax
	xorq	%fs:40, %rax
	jne	.L499
	addq	$16, %rsp
	.cfi_remember_state
	.cfi_def_cfa_offset 16
	movq	%r12, %rax
	popq	%r12
	.cfi_def_cfa_offset 8
	ret
	.p2align 4,,10
	.p2align 3
.L495:
	.cfi_restore_state
	movabsq	$2340011850872286273, %rcx
	movq	%rcx, 16(%rdi)
	movl	$1852141679, 8(%rax)
	movq	$12, 8(%rdi)
	movb	$0, 28(%rdi)
	jmp	.L487
	.p2align 4,,10
	.p2align 3
.L498:
	movq	%rsp, %rsi
	xorl	%edx, %edx
	movq	$57, (%rsp)
	call	_ZNSt7__cxx1112basic_stringIcSt11char_traitsIcESaIcEE9_M_createERmm@PLT
	movq	(%rsp), %rdx
	movdqa	.LC21(%rip), %xmm0
	movabsq	$7310291504967217959, %rsi
	movq	%rax, (%r12)
	movq	%rdx, 16(%r12)
	movups	%xmm0, (%rax)
	movdqa	.LC22(%rip), %xmm0
	movq	%rsi, 48(%rax)
	movups	%xmm0, 16(%rax)
	movdqa	.LC23(%rip), %xmm0
	movb	$116, 56(%rax)
	movups	%xmm0, 32(%rax)
	movq	(%rsp), %rax
	movq	(%r12), %rdx
	movq	%rax, 8(%r12)
	movb	$0, (%rdx,%rax)
	jmp	.L487
	.p2align 4,,10
	.p2align 3
.L496:
	movabsq	$7358994418594246213, %rcx
	movq	%rcx, 16(%rdi)
	movl	$27753, %ecx
	movw	%cx, 8(%rax)
	movb	$101, 10(%rax)
	movq	$11, 8(%rdi)
	movb	$0, 27(%rdi)
	jmp	.L487
	.p2align 4,,10
	.p2align 3
.L497:
	xorl	%edx, %edx
	movq	%rsp, %rsi
	movq	$17, (%rsp)
	call	_ZNSt7__cxx1112basic_stringIcSt11char_traitsIcESaIcEE9_M_createERmm@PLT
	movq	(%rsp), %rdx
	movdqa	.LC20(%rip), %xmm0
	movq	%rax, (%r12)
	movq	%rdx, 16(%r12)
	movb	$100, 16(%rax)
	movups	%xmm0, (%rax)
	movq	(%rsp), %rax
	movq	(%r12), %rdx
	movq	%rax, 8(%r12)
	movb	$0, (%rdx,%rax)
	jmp	.L487
.L499:
	call	__stack_chk_fail@PLT
	.cfi_endproc
.LFE2396:
	.size	_ZNK4asio5error6detail13misc_category7messageB5cxx11Ei, .-_ZNK4asio5error6detail13misc_category7messageB5cxx11Ei
	.section	.text.unlikely
.LCOLDB24:
	.text
.LHOTB24:
	.p2align 4
	.type	_ZN4asio6detail18completion_handlerIZN7asiopal8Executor4PostERKSt8functionIFvvEEEUlvE_E11do_completeEPNS0_15task_io_serviceEPNS0_25task_io_service_operationERKSt10error_codem, @function
_ZN4asio6detail18completion_handlerIZN7asiopal8Executor4PostERKSt8functionIFvvEEEUlvE_E11do_completeEPNS0_15task_io_serviceEPNS0_25task_io_service_operationERKSt10error_codem:
.LFB8563:
	.cfi_startproc
	.cfi_personality 0x9b,DW.ref.__gxx_personality_v0
	.cfi_lsda 0x1b,.LLSDA8563
	endbr64
	pushq	%r15
	.cfi_def_cfa_offset 16
	.cfi_offset 15, -16
	pushq	%r14
	.cfi_def_cfa_offset 24
	.cfi_offset 14, -24
	pushq	%r13
	.cfi_def_cfa_offset 32
	.cfi_offset 13, -32
	movq	%rdi, %r13
	pushq	%r12
	.cfi_def_cfa_offset 40
	.cfi_offset 12, -40
	pushq	%rbp
	.cfi_def_cfa_offset 48
	.cfi_offset 6, -48
	pushq	%rbx
	.cfi_def_cfa_offset 56
	.cfi_offset 3, -56
	movq	%rsi, %rbx
	addq	$24, %rsi
	subq	$104, %rsp
	.cfi_def_cfa_offset 160
	movq	%fs:40, %rax
	movq	%rax, 88(%rsp)
	xorl	%eax, %eax
	movq	40(%rbx), %rax
	movq	%rsi, (%rsp)
	movq	%rbx, 8(%rsp)
	movq	%rbx, 16(%rsp)
	movq	$0, 48(%rsp)
	testq	%rax, %rax
	je	.L501
	leaq	32(%rsp), %rbp
	movl	$2, %edx
	movq	%rbp, %rdi
.LEHB7:
	call	*%rax
.LEHE7:
	movdqu	56(%rbx), %xmm2
	movdqu	40(%rbx), %xmm1
	pxor	%xmm0, %xmm0
	movq	%rbp, (%rsp)
	movq	16(%rsp), %r12
	movups	%xmm0, 56(%rbx)
	movaps	%xmm1, 48(%rsp)
	movaps	%xmm2, 64(%rsp)
	testq	%r12, %r12
	jne	.L502
.L503:
	movq	8(%rsp), %r12
	testq	%r12, %r12
	je	.L515
	data16	leaq	_ZN4asio6detail15keyword_tss_ptrINS0_10call_stackINS0_15task_io_serviceENS0_27task_io_service_thread_infoEE7contextEE6value_E@tlsgd(%rip), %rdi
	.value	0x6666
	rex64
	call	__tls_get_addr@PLT
	movq	(%rax), %rax
	testq	%rax, %rax
	je	.L516
	movq	8(%rax), %rax
	testq	%rax, %rax
	je	.L516
	cmpq	$0, (%rax)
	je	.L580
.L516:
	movq	%r12, %rdi
	call	_ZdlPv@PLT
.L517:
	movq	$0, 8(%rsp)
.L515:
	testq	%r13, %r13
	je	.L518
	cmpq	$0, 48(%rsp)
	je	.L581
	movq	%rbp, %rdi
.LEHB8:
	call	*56(%rsp)
.LEHE8:
	sfence
.L518:
	movq	72(%rsp), %r12
	testq	%r12, %r12
	je	.L521
	movq	_ZL28__gthrw___pthread_key_createPjPFvPvE@GOTPCREL(%rip), %r15
	testq	%r15, %r15
	je	.L522
	movl	$-1, %eax
	lock xaddl	%eax, 8(%r12)
	cmpl	$1, %eax
	je	.L582
	.p2align 4,,10
	.p2align 3
.L521:
	movq	48(%rsp), %rax
	testq	%rax, %rax
	je	.L527
	movl	$3, %edx
	movq	%rbp, %rsi
	movq	%rbp, %rdi
	call	*%rax
.L527:
	movq	16(%rsp), %rbx
	testq	%rbx, %rbx
	je	.L528
	movq	64(%rbx), %rbp
	testq	%rbp, %rbp
	je	.L530
	movq	_ZL28__gthrw___pthread_key_createPjPFvPvE@GOTPCREL(%rip), %r15
	testq	%r15, %r15
	je	.L531
	movl	$-1, %eax
	lock xaddl	%eax, 8(%rbp)
.L532:
	cmpl	$1, %eax
	jne	.L530
	movq	0(%rbp), %rax
	movq	%rbp, %rdi
	call	*16(%rax)
	testq	%r15, %r15
	je	.L534
	movl	$-1, %eax
	lock xaddl	%eax, 12(%rbp)
.L535:
	cmpl	$1, %eax
	je	.L583
	.p2align 4,,10
	.p2align 3
.L530:
	movq	40(%rbx), %rax
	testq	%rax, %rax
	je	.L536
	leaq	24(%rbx), %rdi
	movl	$3, %edx
	movq	%rdi, %rsi
	call	*%rax
.L536:
	movq	$0, 16(%rsp)
.L528:
	movq	8(%rsp), %rbp
	testq	%rbp, %rbp
	je	.L500
	data16	leaq	_ZN4asio6detail15keyword_tss_ptrINS0_10call_stackINS0_15task_io_serviceENS0_27task_io_service_thread_infoEE7contextEE6value_E@tlsgd(%rip), %rdi
	.value	0x6666
	rex64
	call	__tls_get_addr@PLT
	movq	(%rax), %rax
	testq	%rax, %rax
	je	.L538
	movq	8(%rax), %rax
	testq	%rax, %rax
	je	.L538
	cmpq	$0, (%rax)
	je	.L584
.L538:
	movq	%rbp, %rdi
	call	_ZdlPv@PLT
.L500:
	movq	88(%rsp), %rax
	xorq	%fs:40, %rax
	jne	.L585
	addq	$104, %rsp
	.cfi_remember_state
	.cfi_def_cfa_offset 56
	popq	%rbx
	.cfi_def_cfa_offset 48
	popq	%rbp
	.cfi_def_cfa_offset 40
	popq	%r12
	.cfi_def_cfa_offset 32
	popq	%r13
	.cfi_def_cfa_offset 24
	popq	%r14
	.cfi_def_cfa_offset 16
	popq	%r15
	.cfi_def_cfa_offset 8
	ret
	.p2align 4,,10
	.p2align 3
.L501:
	.cfi_restore_state
	leaq	32(%rsp), %rbp
	movdqu	56(%rbx), %xmm3
	pxor	%xmm0, %xmm0
	movq	%rbx, %r12
	movq	%rbp, (%rsp)
	movaps	%xmm3, 64(%rsp)
	movups	%xmm0, 56(%rbx)
.L502:
	movq	64(%r12), %r14
	testq	%r14, %r14
	je	.L508
	movq	_ZL28__gthrw___pthread_key_createPjPFvPvE@GOTPCREL(%rip), %r15
	testq	%r15, %r15
	je	.L509
	movl	$-1, %eax
	lock xaddl	%eax, 8(%r14)
.L510:
	cmpl	$1, %eax
	jne	.L508
	movq	(%r14), %rax
	movq	%r14, %rdi
	call	*16(%rax)
	testq	%r15, %r15
	je	.L512
	movl	$-1, %eax
	lock xaddl	%eax, 12(%r14)
.L513:
	cmpl	$1, %eax
	je	.L586
	.p2align 4,,10
	.p2align 3
.L508:
	movq	40(%r12), %rax
	testq	%rax, %rax
	je	.L514
	leaq	24(%r12), %rdi
	movl	$3, %edx
	movq	%rdi, %rsi
	call	*%rax
.L514:
	movq	$0, 16(%rsp)
	jmp	.L503
	.p2align 4,,10
	.p2align 3
.L522:
	movl	8(%r12), %eax
	leal	-1(%rax), %edx
	movl	%edx, 8(%r12)
	cmpl	$1, %eax
	jne	.L521
.L582:
	movq	(%r12), %rax
	movq	%r12, %rdi
	call	*16(%rax)
	testq	%r15, %r15
	je	.L525
	movl	$-1, %eax
	lock xaddl	%eax, 12(%r12)
.L526:
	cmpl	$1, %eax
	jne	.L521
	movq	(%r12), %rax
	movq	%r12, %rdi
	call	*24(%rax)
	jmp	.L521
	.p2align 4,,10
	.p2align 3
.L531:
	movl	8(%rbp), %eax
	leal	-1(%rax), %edx
	movl	%edx, 8(%rbp)
	jmp	.L532
	.p2align 4,,10
	.p2align 3
.L509:
	movl	8(%r14), %eax
	leal	-1(%rax), %edx
	movl	%edx, 8(%r14)
	jmp	.L510
	.p2align 4,,10
	.p2align 3
.L580:
	movzbl	72(%r12), %edx
	movb	%dl, (%r12)
	movq	%r12, (%rax)
	jmp	.L517
	.p2align 4,,10
	.p2align 3
.L584:
	movzbl	72(%rbp), %edx
	movb	%dl, 0(%rbp)
	movq	%rbp, (%rax)
	jmp	.L500
	.p2align 4,,10
	.p2align 3
.L525:
	movl	12(%r12), %eax
	leal	-1(%rax), %edx
	movl	%edx, 12(%r12)
	jmp	.L526
	.p2align 4,,10
	.p2align 3
.L586:
	movq	(%r14), %rax
	movq	%r14, %rdi
	call	*24(%rax)
	jmp	.L508
	.p2align 4,,10
	.p2align 3
.L583:
	movq	0(%rbp), %rax
	movq	%rbp, %rdi
	call	*24(%rax)
	jmp	.L530
	.p2align 4,,10
	.p2align 3
.L512:
	movl	12(%r14), %eax
	leal	-1(%rax), %edx
	movl	%edx, 12(%r14)
	jmp	.L513
	.p2align 4,,10
	.p2align 3
.L534:
	movl	12(%rbp), %eax
	leal	-1(%rax), %edx
	movl	%edx, 12(%rbp)
	jmp	.L535
.L585:
	call	__stack_chk_fail@PLT
.L581:
.LEHB9:
	call	_ZSt25__throw_bad_function_callv@PLT
.LEHE9:
.L541:
	endbr64
	movq	%rax, %rbx
	jmp	.L539
.L542:
	endbr64
	movq	%rax, %rbx
	jmp	.L504
	.section	.gcc_except_table
.LLSDA8563:
	.byte	0xff
	.byte	0xff
	.byte	0x1
	.uleb128 .LLSDACSE8563-.LLSDACSB8563
.LLSDACSB8563:
	.uleb128 .LEHB7-.LFB8563
	.uleb128 .LEHE7-.LEHB7
	.uleb128 .L542-.LFB8563
	.uleb128 0
	.uleb128 .LEHB8-.LFB8563
	.uleb128 .LEHE8-.LEHB8
	.uleb128 .L541-.LFB8563
	.uleb128 0
	.uleb128 .LEHB9-.LFB8563
	.uleb128 .LEHE9-.LEHB9
	.uleb128 .L541-.LFB8563
	.uleb128 0
.LLSDACSE8563:
	.text
	.cfi_endproc
	.section	.text.unlikely
	.cfi_startproc
	.cfi_personality 0x9b,DW.ref.__gxx_personality_v0
	.cfi_lsda 0x1b,.LLSDAC8563
	.type	_ZN4asio6detail18completion_handlerIZN7asiopal8Executor4PostERKSt8functionIFvvEEEUlvE_E11do_completeEPNS0_15task_io_serviceEPNS0_25task_io_service_operationERKSt10error_codem.cold, @function
_ZN4asio6detail18completion_handlerIZN7asiopal8Executor4PostERKSt8functionIFvvEEEUlvE_E11do_completeEPNS0_15task_io_serviceEPNS0_25task_io_service_operationERKSt10error_codem.cold:
.LFSB8563:
.L539:
	.cfi_def_cfa_offset 160
	.cfi_offset 3, -56
	.cfi_offset 6, -48
	.cfi_offset 12, -40
	.cfi_offset 13, -32
	.cfi_offset 14, -24
	.cfi_offset 15, -16
	sfence
	movq	%rbp, %rdi
	call	_ZZN7asiopal8Executor4PostERKSt8functionIFvvEEENUlvE_D1Ev
.L506:
	leaq	8(%rsp), %rdi
	leaq	16(%rsp), %rsi
	call	_ZN4asio6detail18completion_handlerIZN7asiopal8Executor4PostERKSt8functionIFvvEEEUlvE_E3ptr5resetEv.isra.0
	movq	%rbx, %rdi
.LEHB10:
	call	_Unwind_Resume@PLT
.LEHE10:
.L504:
	movq	48(%rsp), %rax
	testq	%rax, %rax
	je	.L506
	movl	$3, %edx
	movq	%rbp, %rsi
	movq	%rbp, %rdi
	call	*%rax
	jmp	.L506
	.cfi_endproc
.LFE8563:
	.section	.gcc_except_table
.LLSDAC8563:
	.byte	0xff
	.byte	0xff
	.byte	0x1
	.uleb128 .LLSDACSEC8563-.LLSDACSBC8563
.LLSDACSBC8563:
	.uleb128 .LEHB10-.LCOLDB24
	.uleb128 .LEHE10-.LEHB10
	.uleb128 0
	.uleb128 0
.LLSDACSEC8563:
	.section	.text.unlikely
	.text
	.size	_ZN4asio6detail18completion_handlerIZN7asiopal8Executor4PostERKSt8functionIFvvEEEUlvE_E11do_completeEPNS0_15task_io_serviceEPNS0_25task_io_service_operationERKSt10error_codem, .-_ZN4asio6detail18completion_handlerIZN7asiopal8Executor4PostERKSt8functionIFvvEEEUlvE_E11do_completeEPNS0_15task_io_serviceEPNS0_25task_io_service_operationERKSt10error_codem
	.section	.text.unlikely
	.size	_ZN4asio6detail18completion_handlerIZN7asiopal8Executor4PostERKSt8functionIFvvEEEUlvE_E11do_completeEPNS0_15task_io_serviceEPNS0_25task_io_service_operationERKSt10error_codem.cold, .-_ZN4asio6detail18completion_handlerIZN7asiopal8Executor4PostERKSt8functionIFvvEEEUlvE_E11do_completeEPNS0_15task_io_serviceEPNS0_25task_io_service_operationERKSt10error_codem.cold
.LCOLDE24:
	.text
.LHOTE24:
	.section	.text.unlikely
	.align 2
	.type	_ZN4asio6detail18completion_handlerINS0_7binder1IZN7asiopal8Executor5StartERKNSt6chrono10time_pointINS5_3_V212steady_clockENS5_8durationIlSt5ratioILl1ELl1000000000EEEEEERKSt8functionIFvvEEEUlRKSt10error_codeE_SL_EEE3ptr5resetEv.isra.0, @function
_ZN4asio6detail18completion_handlerINS0_7binder1IZN7asiopal8Executor5StartERKNSt6chrono10time_pointINS5_3_V212steady_clockENS5_8durationIlSt5ratioILl1ELl1000000000EEEEEERKSt8functionIFvvEEEUlRKSt10error_codeE_SL_EEE3ptr5resetEv.isra.0:
.LFB9540:
	.cfi_startproc
	.cfi_personality 0x9b,DW.ref.__gxx_personality_v0
	.cfi_lsda 0x1b,.LLSDA9540
	pushq	%r14
	.cfi_def_cfa_offset 16
	.cfi_offset 14, -16
	pushq	%r13
	.cfi_def_cfa_offset 24
	.cfi_offset 13, -24
	pushq	%r12
	.cfi_def_cfa_offset 32
	.cfi_offset 12, -32
	pushq	%rbp
	.cfi_def_cfa_offset 40
	.cfi_offset 6, -40
	pushq	%rbx
	.cfi_def_cfa_offset 48
	.cfi_offset 3, -48
	movq	(%rsi), %r13
	movq	%rdi, %rbx
	testq	%r13, %r13
	je	.L588
	movq	80(%r13), %rbp
	movq	%rsi, %r12
	testq	%rbp, %rbp
	je	.L590
	movq	_ZL28__gthrw___pthread_key_createPjPFvPvE@GOTPCREL(%rip), %r14
	testq	%r14, %r14
	je	.L591
	orl	$-1, %eax
	lock xaddl	%eax, 8(%rbp)
	jmp	.L592
.L591:
	movl	8(%rbp), %eax
	leal	-1(%rax), %edx
	movl	%edx, 8(%rbp)
.L592:
	decl	%eax
	jne	.L590
	movq	0(%rbp), %rax
	movq	%rbp, %rdi
	call	*16(%rax)
	testq	%r14, %r14
	je	.L594
	orl	$-1, %eax
	lock xaddl	%eax, 12(%rbp)
	jmp	.L595
.L594:
	movl	12(%rbp), %eax
	leal	-1(%rax), %edx
	movl	%edx, 12(%rbp)
.L595:
	decl	%eax
	jne	.L590
	movq	0(%rbp), %rax
	movq	%rbp, %rdi
	call	*24(%rax)
.L590:
	movq	56(%r13), %rax
	testq	%rax, %rax
	je	.L596
	leaq	40(%r13), %rdi
	movl	$3, %edx
	movq	%rdi, %rsi
	call	*%rax
.L596:
	movq	32(%r13), %rbp
	testq	%rbp, %rbp
	je	.L598
	movq	_ZL28__gthrw___pthread_key_createPjPFvPvE@GOTPCREL(%rip), %r13
	testq	%r13, %r13
	je	.L599
	orl	$-1, %eax
	lock xaddl	%eax, 8(%rbp)
	jmp	.L600
.L599:
	movl	8(%rbp), %eax
	leal	-1(%rax), %edx
	movl	%edx, 8(%rbp)
.L600:
	decl	%eax
	jne	.L598
	movq	0(%rbp), %rax
	movq	%rbp, %rdi
	call	*16(%rax)
	testq	%r13, %r13
	je	.L602
	orl	$-1, %eax
	lock xaddl	%eax, 12(%rbp)
	jmp	.L603
.L602:
	movl	12(%rbp), %eax
	leal	-1(%rax), %edx
	movl	%edx, 12(%rbp)
.L603:
	decl	%eax
	jne	.L598
	movq	0(%rbp), %rax
	movq	%rbp, %rdi
	call	*24(%rax)
.L598:
	movq	$0, (%r12)
.L588:
	movq	(%rbx), %rbp
	testq	%rbp, %rbp
	je	.L587
	data16	leaq	_ZN4asio6detail15keyword_tss_ptrINS0_10call_stackINS0_15task_io_serviceENS0_27task_io_service_thread_infoEE7contextEE6value_E@tlsgd(%rip), %rdi
	.value	0x6666
	rex64
	call	__tls_get_addr@PLT
	movq	(%rax), %rax
	testq	%rax, %rax
	je	.L605
	movq	8(%rax), %rax
	testq	%rax, %rax
	je	.L605
	cmpq	$0, (%rax)
	jne	.L605
	movb	104(%rbp), %dl
	movb	%dl, 0(%rbp)
	movq	%rbp, (%rax)
	jmp	.L606
.L605:
	movq	%rbp, %rdi
	call	_ZdlPv@PLT
.L606:
	movq	$0, (%rbx)
.L587:
	popq	%rbx
	.cfi_def_cfa_offset 40
	popq	%rbp
	.cfi_def_cfa_offset 32
	popq	%r12
	.cfi_def_cfa_offset 24
	popq	%r13
	.cfi_def_cfa_offset 16
	popq	%r14
	.cfi_def_cfa_offset 8
	ret
	.cfi_endproc
.LFE9540:
	.section	.gcc_except_table
.LLSDA9540:
	.byte	0xff
	.byte	0xff
	.byte	0x1
	.uleb128 .LLSDACSE9540-.LLSDACSB9540
.LLSDACSB9540:
.LLSDACSE9540:
	.section	.text.unlikely
	.size	_ZN4asio6detail18completion_handlerINS0_7binder1IZN7asiopal8Executor5StartERKNSt6chrono10time_pointINS5_3_V212steady_clockENS5_8durationIlSt5ratioILl1ELl1000000000EEEEEERKSt8functionIFvvEEEUlRKSt10error_codeE_SL_EEE3ptr5resetEv.isra.0, .-_ZN4asio6detail18completion_handlerINS0_7binder1IZN7asiopal8Executor5StartERKNSt6chrono10time_pointINS5_3_V212steady_clockENS5_8durationIlSt5ratioILl1ELl1000000000EEEEEERKSt8functionIFvvEEEUlRKSt10error_codeE_SL_EEE3ptr5resetEv.isra.0
	.align 2
	.type	_ZN4asio6detail12wait_handlerINS0_15wrapped_handlerINS_10io_service6strandEZN7asiopal8Executor5StartERKNSt6chrono10time_pointINS7_3_V212steady_clockENS7_8durationIlSt5ratioILl1ELl1000000000EEEEEERKSt8functionIFvvEEEUlRKSt10error_codeE_NS0_26is_continuation_if_runningEEEE3ptr5resetEv.isra.0, @function
_ZN4asio6detail12wait_handlerINS0_15wrapped_handlerINS_10io_service6strandEZN7asiopal8Executor5StartERKNSt6chrono10time_pointINS7_3_V212steady_clockENS7_8durationIlSt5ratioILl1ELl1000000000EEEEEERKSt8functionIFvvEEEUlRKSt10error_codeE_NS0_26is_continuation_if_runningEEEE3ptr5resetEv.isra.0:
.LFB9571:
	.cfi_startproc
	.cfi_personality 0x9b,DW.ref.__gxx_personality_v0
	.cfi_lsda 0x1b,.LLSDA9571
	pushq	%r14
	.cfi_def_cfa_offset 16
	.cfi_offset 14, -16
	pushq	%r13
	.cfi_def_cfa_offset 24
	.cfi_offset 13, -24
	pushq	%r12
	.cfi_def_cfa_offset 32
	.cfi_offset 12, -32
	pushq	%rbp
	.cfi_def_cfa_offset 40
	.cfi_offset 6, -40
	pushq	%rbx
	.cfi_def_cfa_offset 48
	.cfi_offset 3, -48
	movq	(%rsi), %r13
	movq	%rdi, %rbx
	testq	%r13, %r13
	je	.L624
	movq	112(%r13), %rbp
	movq	%rsi, %r12
	testq	%rbp, %rbp
	je	.L626
	movq	_ZL28__gthrw___pthread_key_createPjPFvPvE@GOTPCREL(%rip), %r14
	testq	%r14, %r14
	je	.L627
	orl	$-1, %eax
	lock xaddl	%eax, 8(%rbp)
	jmp	.L628
.L627:
	movl	8(%rbp), %eax
	leal	-1(%rax), %edx
	movl	%edx, 8(%rbp)
.L628:
	decl	%eax
	jne	.L626
	movq	0(%rbp), %rax
	movq	%rbp, %rdi
	call	*16(%rax)
	testq	%r14, %r14
	je	.L630
	orl	$-1, %eax
	lock xaddl	%eax, 12(%rbp)
	jmp	.L631
.L630:
	movl	12(%rbp), %eax
	leal	-1(%rax), %edx
	movl	%edx, 12(%rbp)
.L631:
	decl	%eax
	jne	.L626
	movq	0(%rbp), %rax
	movq	%rbp, %rdi
	call	*24(%rax)
.L626:
	movq	88(%r13), %rax
	testq	%rax, %rax
	je	.L632
	leaq	72(%r13), %rdi
	movl	$3, %edx
	movq	%rdi, %rsi
	call	*%rax
.L632:
	movq	64(%r13), %rbp
	testq	%rbp, %rbp
	je	.L634
	movq	_ZL28__gthrw___pthread_key_createPjPFvPvE@GOTPCREL(%rip), %r13
	testq	%r13, %r13
	je	.L635
	orl	$-1, %eax
	lock xaddl	%eax, 8(%rbp)
	jmp	.L636
.L635:
	movl	8(%rbp), %eax
	leal	-1(%rax), %edx
	movl	%edx, 8(%rbp)
.L636:
	decl	%eax
	jne	.L634
	movq	0(%rbp), %rax
	movq	%rbp, %rdi
	call	*16(%rax)
	testq	%r13, %r13
	je	.L638
	orl	$-1, %eax
	lock xaddl	%eax, 12(%rbp)
	jmp	.L639
.L638:
	movl	12(%rbp), %eax
	leal	-1(%rax), %edx
	movl	%edx, 12(%rbp)
.L639:
	decl	%eax
	jne	.L634
	movq	0(%rbp), %rax
	movq	%rbp, %rdi
	call	*24(%rax)
.L634:
	movq	$0, (%r12)
.L624:
	movq	(%rbx), %rbp
	testq	%rbp, %rbp
	je	.L623
	data16	leaq	_ZN4asio6detail15keyword_tss_ptrINS0_10call_stackINS0_15task_io_serviceENS0_27task_io_service_thread_infoEE7contextEE6value_E@tlsgd(%rip), %rdi
	.value	0x6666
	rex64
	call	__tls_get_addr@PLT
	movq	(%rax), %rax
	testq	%rax, %rax
	je	.L641
	movq	8(%rax), %rax
	testq	%rax, %rax
	je	.L641
	cmpq	$0, (%rax)
	jne	.L641
	movb	120(%rbp), %dl
	movb	%dl, 0(%rbp)
	movq	%rbp, (%rax)
	jmp	.L642
.L641:
	movq	%rbp, %rdi
	call	_ZdlPv@PLT
.L642:
	movq	$0, (%rbx)
.L623:
	popq	%rbx
	.cfi_def_cfa_offset 40
	popq	%rbp
	.cfi_def_cfa_offset 32
	popq	%r12
	.cfi_def_cfa_offset 24
	popq	%r13
	.cfi_def_cfa_offset 16
	popq	%r14
	.cfi_def_cfa_offset 8
	ret
	.cfi_endproc
.LFE9571:
	.section	.gcc_except_table
.LLSDA9571:
	.byte	0xff
	.byte	0xff
	.byte	0x1
	.uleb128 .LLSDACSE9571-.LLSDACSB9571
.LLSDACSB9571:
.LLSDACSE9571:
	.section	.text.unlikely
	.size	_ZN4asio6detail12wait_handlerINS0_15wrapped_handlerINS_10io_service6strandEZN7asiopal8Executor5StartERKNSt6chrono10time_pointINS7_3_V212steady_clockENS7_8durationIlSt5ratioILl1ELl1000000000EEEEEERKSt8functionIFvvEEEUlRKSt10error_codeE_NS0_26is_continuation_if_runningEEEE3ptr5resetEv.isra.0, .-_ZN4asio6detail12wait_handlerINS0_15wrapped_handlerINS_10io_service6strandEZN7asiopal8Executor5StartERKNSt6chrono10time_pointINS7_3_V212steady_clockENS7_8durationIlSt5ratioILl1ELl1000000000EEEEEERKSt8functionIFvvEEEUlRKSt10error_codeE_NS0_26is_continuation_if_runningEEEE3ptr5resetEv.isra.0
	.align 2
	.type	_ZN4asio6detail18completion_handlerINS0_17rewrapped_handlerINS0_7binder1INS0_15wrapped_handlerINS_10io_service6strandEZN7asiopal8Executor5StartERKNSt6chrono10time_pointINS9_3_V212steady_clockENS9_8durationIlSt5ratioILl1ELl1000000000EEEEEERKSt8functionIFvvEEEUlRKSt10error_codeE_NS0_26is_continuation_if_runningEEESP_EESS_EEE3ptr5resetEv.isra.0, @function
_ZN4asio6detail18completion_handlerINS0_17rewrapped_handlerINS0_7binder1INS0_15wrapped_handlerINS_10io_service6strandEZN7asiopal8Executor5StartERKNSt6chrono10time_pointINS9_3_V212steady_clockENS9_8durationIlSt5ratioILl1ELl1000000000EEEEEERKSt8functionIFvvEEEUlRKSt10error_codeE_NS0_26is_continuation_if_runningEEESP_EESS_EEE3ptr5resetEv.isra.0:
.LFB9541:
	.cfi_startproc
	.cfi_personality 0x9b,DW.ref.__gxx_personality_v0
	.cfi_lsda 0x1b,.LLSDA9541
	pushq	%r14
	.cfi_def_cfa_offset 16
	.cfi_offset 14, -16
	pushq	%r13
	.cfi_def_cfa_offset 24
	.cfi_offset 13, -24
	pushq	%r12
	.cfi_def_cfa_offset 32
	.cfi_offset 12, -32
	pushq	%rbp
	.cfi_def_cfa_offset 40
	.cfi_offset 6, -40
	pushq	%rbx
	.cfi_def_cfa_offset 48
	.cfi_offset 3, -48
	movq	(%rsi), %r13
	movq	%rdi, %rbx
	testq	%r13, %r13
	je	.L660
	movq	160(%r13), %rbp
	movq	%rsi, %r12
	testq	%rbp, %rbp
	je	.L662
	movq	_ZL28__gthrw___pthread_key_createPjPFvPvE@GOTPCREL(%rip), %r14
	testq	%r14, %r14
	je	.L663
	orl	$-1, %eax
	lock xaddl	%eax, 8(%rbp)
	jmp	.L664
.L663:
	movl	8(%rbp), %eax
	leal	-1(%rax), %edx
	movl	%edx, 8(%rbp)
.L664:
	decl	%eax
	jne	.L662
	movq	0(%rbp), %rax
	movq	%rbp, %rdi
	call	*16(%rax)
	testq	%r14, %r14
	je	.L666
	orl	$-1, %eax
	lock xaddl	%eax, 12(%rbp)
	jmp	.L667
.L666:
	movl	12(%rbp), %eax
	leal	-1(%rax), %edx
	movl	%edx, 12(%rbp)
.L667:
	decl	%eax
	jne	.L662
	movq	0(%rbp), %rax
	movq	%rbp, %rdi
	call	*24(%rax)
.L662:
	movq	136(%r13), %rax
	testq	%rax, %rax
	je	.L668
	leaq	120(%r13), %rdi
	movl	$3, %edx
	movq	%rdi, %rsi
	call	*%rax
.L668:
	movq	112(%r13), %rbp
	testq	%rbp, %rbp
	je	.L670
	movq	_ZL28__gthrw___pthread_key_createPjPFvPvE@GOTPCREL(%rip), %r14
	testq	%r14, %r14
	je	.L671
	orl	$-1, %eax
	lock xaddl	%eax, 8(%rbp)
	jmp	.L672
.L671:
	movl	8(%rbp), %eax
	leal	-1(%rax), %edx
	movl	%edx, 8(%rbp)
.L672:
	decl	%eax
	jne	.L670
	movq	0(%rbp), %rax
	movq	%rbp, %rdi
	call	*16(%rax)
	testq	%r14, %r14
	je	.L674
	orl	$-1, %eax
	lock xaddl	%eax, 12(%rbp)
	jmp	.L675
.L674:
	movl	12(%rbp), %eax
	leal	-1(%rax), %edx
	movl	%edx, 12(%rbp)
.L675:
	decl	%eax
	jne	.L670
	movq	0(%rbp), %rax
	movq	%rbp, %rdi
	call	*24(%rax)
.L670:
	movq	80(%r13), %rbp
	testq	%rbp, %rbp
	je	.L677
	movq	_ZL28__gthrw___pthread_key_createPjPFvPvE@GOTPCREL(%rip), %r14
	testq	%r14, %r14
	je	.L678
	orl	$-1, %eax
	lock xaddl	%eax, 8(%rbp)
	jmp	.L679
.L678:
	movl	8(%rbp), %eax
	leal	-1(%rax), %edx
	movl	%edx, 8(%rbp)
.L679:
	decl	%eax
	jne	.L677
	movq	0(%rbp), %rax
	movq	%rbp, %rdi
	call	*16(%rax)
	testq	%r14, %r14
	je	.L681
	orl	$-1, %eax
	lock xaddl	%eax, 12(%rbp)
	jmp	.L682
.L681:
	movl	12(%rbp), %eax
	leal	-1(%rax), %edx
	movl	%edx, 12(%rbp)
.L682:
	decl	%eax
	jne	.L677
	movq	0(%rbp), %rax
	movq	%rbp, %rdi
	call	*24(%rax)
.L677:
	movq	56(%r13), %rax
	testq	%rax, %rax
	je	.L683
	leaq	40(%r13), %rdi
	movl	$3, %edx
	movq	%rdi, %rsi
	call	*%rax
.L683:
	movq	32(%r13), %rbp
	testq	%rbp, %rbp
	je	.L685
	movq	_ZL28__gthrw___pthread_key_createPjPFvPvE@GOTPCREL(%rip), %r13
	testq	%r13, %r13
	je	.L686
	orl	$-1, %eax
	lock xaddl	%eax, 8(%rbp)
	jmp	.L687
.L686:
	movl	8(%rbp), %eax
	leal	-1(%rax), %edx
	movl	%edx, 8(%rbp)
.L687:
	decl	%eax
	jne	.L685
	movq	0(%rbp), %rax
	movq	%rbp, %rdi
	call	*16(%rax)
	testq	%r13, %r13
	je	.L689
	orl	$-1, %eax
	lock xaddl	%eax, 12(%rbp)
	jmp	.L690
.L689:
	movl	12(%rbp), %eax
	leal	-1(%rax), %edx
	movl	%edx, 12(%rbp)
.L690:
	decl	%eax
	jne	.L685
	movq	0(%rbp), %rax
	movq	%rbp, %rdi
	call	*24(%rax)
.L685:
	movq	$0, (%r12)
.L660:
	movq	(%rbx), %rbp
	testq	%rbp, %rbp
	je	.L659
	data16	leaq	_ZN4asio6detail15keyword_tss_ptrINS0_10call_stackINS0_15task_io_serviceENS0_27task_io_service_thread_infoEE7contextEE6value_E@tlsgd(%rip), %rdi
	.value	0x6666
	rex64
	call	__tls_get_addr@PLT
	movq	(%rax), %rax
	testq	%rax, %rax
	je	.L692
	movq	8(%rax), %rax
	testq	%rax, %rax
	je	.L692
	cmpq	$0, (%rax)
	jne	.L692
	movb	184(%rbp), %dl
	movb	%dl, 0(%rbp)
	movq	%rbp, (%rax)
	jmp	.L693
.L692:
	movq	%rbp, %rdi
	call	_ZdlPv@PLT
.L693:
	movq	$0, (%rbx)
.L659:
	popq	%rbx
	.cfi_def_cfa_offset 40
	popq	%rbp
	.cfi_def_cfa_offset 32
	popq	%r12
	.cfi_def_cfa_offset 24
	popq	%r13
	.cfi_def_cfa_offset 16
	popq	%r14
	.cfi_def_cfa_offset 8
	ret
	.cfi_endproc
.LFE9541:
	.section	.gcc_except_table
.LLSDA9541:
	.byte	0xff
	.byte	0xff
	.byte	0x1
	.uleb128 .LLSDACSE9541-.LLSDACSB9541
.LLSDACSB9541:
.LLSDACSE9541:
	.section	.text.unlikely
	.size	_ZN4asio6detail18completion_handlerINS0_17rewrapped_handlerINS0_7binder1INS0_15wrapped_handlerINS_10io_service6strandEZN7asiopal8Executor5StartERKNSt6chrono10time_pointINS9_3_V212steady_clockENS9_8durationIlSt5ratioILl1ELl1000000000EEEEEERKSt8functionIFvvEEEUlRKSt10error_codeE_NS0_26is_continuation_if_runningEEESP_EESS_EEE3ptr5resetEv.isra.0, .-_ZN4asio6detail18completion_handlerINS0_17rewrapped_handlerINS0_7binder1INS0_15wrapped_handlerINS_10io_service6strandEZN7asiopal8Executor5StartERKNSt6chrono10time_pointINS9_3_V212steady_clockENS9_8durationIlSt5ratioILl1ELl1000000000EEEEEERKSt8functionIFvvEEEUlRKSt10error_codeE_NS0_26is_continuation_if_runningEEESP_EESS_EEE3ptr5resetEv.isra.0
	.section	.text.unlikely._ZSt20__throw_bad_weak_ptrv,"axG",@progbits,_ZSt20__throw_bad_weak_ptrv,comdat
	.weak	_ZSt20__throw_bad_weak_ptrv
	.type	_ZSt20__throw_bad_weak_ptrv, @function
_ZSt20__throw_bad_weak_ptrv:
.LFB1706:
	.cfi_startproc
	endbr64
	pushq	%rax
	.cfi_def_cfa_offset 16
	popq	%rax
	.cfi_def_cfa_offset 8
	movl	$8, %edi
	pushq	%rax
	.cfi_def_cfa_offset 16
	call	__cxa_allocate_exception@PLT
	movq	_ZNSt12bad_weak_ptrD1Ev@GOTPCREL(%rip), %rdx
	movq	_ZTISt12bad_weak_ptr@GOTPCREL(%rip), %rsi
	movq	%rax, %rdi
	movq	_ZTVSt12bad_weak_ptr@GOTPCREL(%rip), %rax
	addq	$16, %rax
	movq	%rax, (%rdi)
	call	__cxa_throw@PLT
	.cfi_endproc
.LFE1706:
	.size	_ZSt20__throw_bad_weak_ptrv, .-_ZSt20__throw_bad_weak_ptrv
	.section	.text._ZN4asio28asio_handler_is_continuationEz,"axG",@progbits,_ZN4asio28asio_handler_is_continuationEz,comdat
	.p2align 4
	.weak	_ZN4asio28asio_handler_is_continuationEz
	.type	_ZN4asio28asio_handler_is_continuationEz, @function
_ZN4asio28asio_handler_is_continuationEz:
.LFB2143:
	.cfi_startproc
	endbr64
	xorl	%eax, %eax
	ret
	.cfi_endproc
.LFE2143:
	.size	_ZN4asio28asio_handler_is_continuationEz, .-_ZN4asio28asio_handler_is_continuationEz
	.section	.text.unlikely
	.align 2
.LCOLDB25:
	.text
.LHOTB25:
	.align 2
	.p2align 4
	.globl	_ZN7asiopal8Executor4PostERKSt8functionIFvvEE
	.type	_ZN7asiopal8Executor4PostERKSt8functionIFvvEE, @function
_ZN7asiopal8Executor4PostERKSt8functionIFvvEE:
.LFB6922:
	.cfi_startproc
	.cfi_personality 0x9b,DW.ref.__gxx_personality_v0
	.cfi_lsda 0x1b,.LLSDA6922
	endbr64
	pushq	%r15
	.cfi_def_cfa_offset 16
	.cfi_offset 15, -16
	pushq	%r14
	.cfi_def_cfa_offset 24
	.cfi_offset 14, -24
	pushq	%r13
	.cfi_def_cfa_offset 32
	.cfi_offset 13, -32
	pushq	%r12
	.cfi_def_cfa_offset 40
	.cfi_offset 12, -40
	pushq	%rbp
	.cfi_def_cfa_offset 48
	.cfi_offset 6, -48
	pushq	%rbx
	.cfi_def_cfa_offset 56
	.cfi_offset 3, -56
	movq	%rdi, %rbx
	subq	$168, %rsp
	.cfi_def_cfa_offset 224
	movq	%fs:40, %rax
	movq	%rax, 152(%rsp)
	xorl	%eax, %eax
	movq	16(%rsi), %rax
	movq	$0, 64(%rsp)
	testq	%rax, %rax
	je	.L717
	leaq	48(%rsp), %r13
	movq	%rsi, %rbp
	movl	$2, %edx
	movq	%r13, %rdi
.LEHB11:
	call	*%rax
.LEHE11:
	movdqu	16(%rbp), %xmm2
	movaps	%xmm2, 64(%rsp)
.L717:
	movq	16(%rbx), %rax
	movq	%rax, 88(%rsp)
	testq	%rax, %rax
	je	.L835
	leaq	8(%rax), %rdx
	movl	8(%rax), %eax
.L723:
	testl	%eax, %eax
	je	.L831
	leal	1(%rax), %ecx
	lock cmpxchgl	%ecx, (%rdx)
	jne	.L723
	movq	8(%rbx), %rax
	movq	64(%rsp), %rcx
	leaq	96(%rsp), %r12
	movq	$0, 112(%rsp)
	movq	%rax, 80(%rsp)
	testq	%rcx, %rcx
	je	.L724
	leaq	48(%rsp), %r13
	leaq	96(%rsp), %r12
	movl	$2, %edx
	movq	%r13, %rsi
	movq	%r12, %rdi
.LEHB12:
	call	*%rcx
.LEHE12:
	movdqa	64(%rsp), %xmm3
	movq	80(%rsp), %rax
	movaps	%xmm3, 112(%rsp)
.L724:
	movq	%rax, 128(%rsp)
	movq	88(%rsp), %rax
	movq	%rax, 136(%rsp)
	testq	%rax, %rax
	je	.L726
	cmpq	$0, _ZL28__gthrw___pthread_key_createPjPFvPvE@GOTPCREL(%rip)
	je	.L730
	lock addl	$1, 8(%rax)
.L726:
	movq	%r12, %rdi
	xorl	%eax, %eax
	movq	40(%rbx), %r14
	call	_ZN4asio28asio_handler_is_continuationEz@PLT
	pxor	%xmm0, %xmm0
	movq	%r12, 16(%rsp)
	movl	%eax, %r13d
	movups	%xmm0, 24(%rsp)
	data16	leaq	_ZN4asio6detail15keyword_tss_ptrINS0_10call_stackINS0_15task_io_serviceENS0_27task_io_service_thread_infoEE7contextEE6value_E@tlsgd(%rip), %rdi
	.value	0x6666
	rex64
	call	__tls_get_addr@PLT
	movq	(%rax), %rax
	testq	%rax, %rax
	je	.L731
	movq	8(%rax), %rax
	testq	%rax, %rax
	je	.L731
	movq	(%rax), %rbp
	testq	%rbp, %rbp
	je	.L731
	movq	$0, (%rax)
	movzbl	0(%rbp), %eax
	cmpb	$71, %al
	jbe	.L732
	movb	%al, 72(%rbp)
	jmp	.L733
	.p2align 4,,10
	.p2align 3
.L732:
	movq	%rbp, %rdi
	call	_ZdlPv@PLT
.L731:
	movl	$73, %edi
.LEHB13:
	call	_Znwm@PLT
.LEHE13:
	movb	$72, 72(%rax)
	movq	%rax, %rbp
.L733:
	leaq	_ZN4asio6detail18completion_handlerIZN7asiopal8Executor4PostERKSt8functionIFvvEEEUlvE_E11do_completeEPNS0_15task_io_serviceEPNS0_25task_io_service_operationERKSt10error_codem(%rip), %rax
	movq	%rbp, 24(%rsp)
	movq	%rax, 8(%rbp)
	movq	112(%rsp), %rax
	movq	$0, 0(%rbp)
	movl	$0, 16(%rbp)
	movq	$0, 40(%rbp)
	testq	%rax, %rax
	je	.L734
	leaq	24(%rbp), %r15
	movl	$2, %edx
	movq	%r12, %rsi
	movq	%r15, %rdi
.LEHB14:
	call	*%rax
.LEHE14:
	movdqa	112(%rsp), %xmm4
	movups	%xmm4, 40(%rbp)
.L734:
	movdqa	128(%rsp), %xmm1
	pxor	%xmm0, %xmm0
	movq	%rbp, 32(%rsp)
	movaps	%xmm0, 128(%rsp)
	movups	%xmm1, 56(%rbp)
	movq	48(%rbx), %rax
	leaq	24(%rax), %rdi
	call	pthread_mutex_lock@PLT
	movq	48(%rbx), %rdi
	cmpb	$0, 64(%rdi)
	je	.L836
	cmpq	$0, 80(%rdi)
	movq	$0, 0(%rbp)
	je	.L740
	movq	80(%rdi), %rax
	movq	%rbp, (%rax)
	movq	%rbp, 80(%rdi)
.L741:
	addq	$24, %rdi
	call	pthread_mutex_unlock@PLT
.L742:
	movq	136(%rsp), %rbp
	testq	%rbp, %rbp
	je	.L757
	movq	_ZL28__gthrw___pthread_key_createPjPFvPvE@GOTPCREL(%rip), %rbx
	testq	%rbx, %rbx
	je	.L758
	movl	$-1, %eax
	lock xaddl	%eax, 8(%rbp)
	cmpl	$1, %eax
	je	.L837
	.p2align 4,,10
	.p2align 3
.L757:
	movq	112(%rsp), %rax
	testq	%rax, %rax
	je	.L763
	movl	$3, %edx
	movq	%r12, %rsi
	movq	%r12, %rdi
	call	*%rax
.L763:
	movq	88(%rsp), %rbp
	testq	%rbp, %rbp
	je	.L765
	movq	_ZL28__gthrw___pthread_key_createPjPFvPvE@GOTPCREL(%rip), %rbx
	testq	%rbx, %rbx
	je	.L766
	movl	$-1, %eax
	lock xaddl	%eax, 8(%rbp)
	cmpl	$1, %eax
	je	.L838
	.p2align 4,,10
	.p2align 3
.L765:
	movq	64(%rsp), %rax
	testq	%rax, %rax
	je	.L716
	leaq	48(%rsp), %rdi
	movl	$3, %edx
	movq	%rdi, %rsi
	call	*%rax
.L716:
	movq	152(%rsp), %rax
	xorq	%fs:40, %rax
	jne	.L839
	addq	$168, %rsp
	.cfi_remember_state
	.cfi_def_cfa_offset 56
	popq	%rbx
	.cfi_def_cfa_offset 48
	popq	%rbp
	.cfi_def_cfa_offset 40
	popq	%r12
	.cfi_def_cfa_offset 32
	popq	%r13
	.cfi_def_cfa_offset 24
	popq	%r14
	.cfi_def_cfa_offset 16
	popq	%r15
	.cfi_def_cfa_offset 8
	ret
	.p2align 4,,10
	.p2align 3
.L730:
	.cfi_restore_state
	addl	$1, 8(%rax)
	jmp	.L726
	.p2align 4,,10
	.p2align 3
.L740:
	movq	%rbp, %xmm0
	punpcklqdq	%xmm0, %xmm0
	movups	%xmm0, 72(%rdi)
	jmp	.L741
	.p2align 4,,10
	.p2align 3
.L836:
	movb	$1, 64(%rdi)
	addq	$24, %rdi
	call	pthread_mutex_unlock@PLT
	movq	48(%rbx), %r15
	movq	$0, 0(%rbp)
	cmpq	$0, 96(%r15)
	je	.L743
	movq	96(%r15), %rax
	movq	%rbp, (%rax)
	movq	%rbp, 96(%r15)
.L744:
	movq	40(%r14), %rbx
	cmpb	$0, 40(%rbx)
	jne	.L780
	testb	%r13b, %r13b
	je	.L745
.L780:
	data16	leaq	_ZN4asio6detail15keyword_tss_ptrINS0_10call_stackINS0_15task_io_serviceENS0_27task_io_service_thread_infoEE7contextEE6value_E@tlsgd(%rip), %rdi
	.value	0x6666
	rex64
	call	__tls_get_addr@PLT
	movq	(%rax), %rax
	testq	%rax, %rax
	jne	.L749
	jmp	.L745
	.p2align 4,,10
	.p2align 3
.L747:
	movq	16(%rax), %rax
	testq	%rax, %rax
	je	.L745
.L749:
	cmpq	(%rax), %rbx
	jne	.L747
	movq	8(%rax), %rax
	testq	%rax, %rax
	je	.L745
	addq	$1, 24(%rax)
	cmpq	$0, 16(%rax)
	movq	$0, (%r15)
	je	.L750
	movq	16(%rax), %rdx
	movq	%r15, (%rdx)
	movq	%r15, 16(%rax)
	jmp	.L742
	.p2align 4,,10
	.p2align 3
.L758:
	movl	8(%rbp), %eax
	leal	-1(%rax), %edx
	movl	%edx, 8(%rbp)
	cmpl	$1, %eax
	jne	.L757
.L837:
	movq	0(%rbp), %rax
	movq	%rbp, %rdi
	call	*16(%rax)
	testq	%rbx, %rbx
	je	.L761
	movl	$-1, %eax
	lock xaddl	%eax, 12(%rbp)
.L762:
	cmpl	$1, %eax
	jne	.L757
	movq	0(%rbp), %rax
	movq	%rbp, %rdi
	call	*24(%rax)
	jmp	.L757
	.p2align 4,,10
	.p2align 3
.L766:
	movl	8(%rbp), %eax
	leal	-1(%rax), %edx
	movl	%edx, 8(%rbp)
	cmpl	$1, %eax
	jne	.L765
.L838:
	movq	0(%rbp), %rax
	movq	%rbp, %rdi
	call	*16(%rax)
	testq	%rbx, %rbx
	je	.L769
	movl	$-1, %eax
	lock xaddl	%eax, 12(%rbp)
.L770:
	cmpl	$1, %eax
	jne	.L765
	movq	0(%rbp), %rax
	movq	%rbp, %rdi
	call	*24(%rax)
	jmp	.L765
	.p2align 4,,10
	.p2align 3
.L745:
	lock addq	$1, 184(%rbx)
	leaq	48(%rbx), %rbp
	movq	%rbp, %rdi
	call	pthread_mutex_lock@PLT
	cmpq	$0, 200(%rbx)
	movq	$0, (%r15)
	je	.L751
	movq	200(%rbx), %rax
	movq	%r15, (%rax)
	movq	%r15, 200(%rbx)
.L752:
	movq	136(%rbx), %rax
	orq	$1, %rax
	movq	%rax, 136(%rbx)
	cmpq	$1, %rax
	je	.L753
	movq	%rbp, %rdi
	call	pthread_mutex_unlock@PLT
	leaq	88(%rbx), %rdi
	call	pthread_cond_signal@PLT
	jmp	.L742
	.p2align 4,,10
	.p2align 3
.L753:
	cmpb	$0, 176(%rbx)
	jne	.L755
	movq	144(%rbx), %rax
	testq	%rax, %rax
	je	.L755
	leaq	88(%rax), %rdx
	movb	$1, 176(%rbx)
	movl	96(%rax), %edi
	leaq	4(%rsp), %rcx
	movq	%rdx, 8(%rsp)
	movl	88(%rax), %edx
	movl	$3, %esi
	movl	$-2147483639, 4(%rsp)
	call	epoll_ctl@PLT
.L755:
	movq	%rbp, %rdi
	call	pthread_mutex_unlock@PLT
	jmp	.L742
	.p2align 4,,10
	.p2align 3
.L743:
	movq	%rbp, %xmm0
	punpcklqdq	%xmm0, %xmm0
	movups	%xmm0, 88(%r15)
	jmp	.L744
	.p2align 4,,10
	.p2align 3
.L769:
	movl	12(%rbp), %eax
	leal	-1(%rax), %edx
	movl	%edx, 12(%rbp)
	jmp	.L770
	.p2align 4,,10
	.p2align 3
.L761:
	movl	12(%rbp), %eax
	leal	-1(%rax), %edx
	movl	%edx, 12(%rbp)
	jmp	.L762
	.p2align 4,,10
	.p2align 3
.L751:
	movq	%r15, %xmm0
	punpcklqdq	%xmm0, %xmm0
	movups	%xmm0, 192(%rbx)
	jmp	.L752
	.p2align 4,,10
	.p2align 3
.L750:
	movq	%r15, %xmm0
	punpcklqdq	%xmm0, %xmm0
	movups	%xmm0, 8(%rax)
	jmp	.L742
.L839:
	call	__stack_chk_fail@PLT
.L835:
	jmp	.L830
.L776:
	endbr64
	movq	%rax, %rbp
	jmp	.L720
.L777:
	endbr64
	movq	%rax, %rbp
	jmp	.L739
.L779:
	endbr64
	movq	%rax, %rbx
	jmp	.L737
.L778:
	endbr64
	movq	%rax, %rbp
	jmp	.L727
	.section	.gcc_except_table
.LLSDA6922:
	.byte	0xff
	.byte	0xff
	.byte	0x1
	.uleb128 .LLSDACSE6922-.LLSDACSB6922
.LLSDACSB6922:
	.uleb128 .LEHB11-.LFB6922
	.uleb128 .LEHE11-.LEHB11
	.uleb128 .L776-.LFB6922
	.uleb128 0
	.uleb128 .LEHB12-.LFB6922
	.uleb128 .LEHE12-.LEHB12
	.uleb128 .L778-.LFB6922
	.uleb128 0
	.uleb128 .LEHB13-.LFB6922
	.uleb128 .LEHE13-.LEHB13
	.uleb128 .L777-.LFB6922
	.uleb128 0
	.uleb128 .LEHB14-.LFB6922
	.uleb128 .LEHE14-.LEHB14
	.uleb128 .L779-.LFB6922
	.uleb128 0
.LLSDACSE6922:
	.text
	.cfi_endproc
	.section	.text.unlikely
	.cfi_startproc
	.cfi_personality 0x9b,DW.ref.__gxx_personality_v0
	.cfi_lsda 0x1b,.LLSDAC6922
	.type	_ZN7asiopal8Executor4PostERKSt8functionIFvvEE.cold, @function
_ZN7asiopal8Executor4PostERKSt8functionIFvvEE.cold:
.LFSB6922:
.L830:
	.cfi_def_cfa_offset 224
	.cfi_offset 3, -56
	.cfi_offset 6, -48
	.cfi_offset 12, -40
	.cfi_offset 13, -32
	.cfi_offset 14, -24
	.cfi_offset 15, -16
.LEHB15:
	call	_ZSt20__throw_bad_weak_ptrv@PLT
.LEHE15:
.L720:
	movq	64(%rsp), %rax
	testq	%rax, %rax
	je	.L721
	movl	$3, %edx
	movq	%r13, %rsi
	movq	%r13, %rdi
	call	*%rax
.L721:
	movq	%rbp, %rdi
.LEHB16:
	call	_Unwind_Resume@PLT
.LEHE16:
.L775:
	endbr64
	movq	%rax, %rbp
	movq	64(%rsp), %rax
	testq	%rax, %rax
	je	.L773
	leaq	48(%rsp), %rdi
	movl	$3, %edx
	movq	%rdi, %rsi
	call	*%rax
.L773:
	movq	%rbp, %rdi
.LEHB17:
	call	_Unwind_Resume@PLT
.LEHE17:
.L831:
.LEHB18:
	call	_ZSt20__throw_bad_weak_ptrv@PLT
.LEHE18:
.L737:
	movq	40(%rbp), %rax
	testq	%rax, %rax
	je	.L738
	movl	$3, %edx
	movq	%r15, %rsi
	movq	%r15, %rdi
	call	*%rax
.L738:
	leaq	32(%rsp), %rsi
	leaq	24(%rsp), %rdi
	movq	%rbx, %rbp
	call	_ZN4asio6detail18completion_handlerIZN7asiopal8Executor4PostERKSt8functionIFvvEEEUlvE_E3ptr5resetEv.isra.0
.L739:
	movq	%r12, %rdi
	leaq	48(%rsp), %r13
	call	_ZZN7asiopal8Executor4PostERKSt8functionIFvvEEENUlvE_D1Ev
.L729:
	movq	%r13, %rdi
	call	_ZZN7asiopal8Executor4PostERKSt8functionIFvvEEENUlvE_D1Ev
	movq	%rbp, %rdi
.LEHB19:
	call	_Unwind_Resume@PLT
.LEHE19:
.L727:
	movq	112(%rsp), %rax
	testq	%rax, %rax
	je	.L729
	movl	$3, %edx
	movq	%r12, %rsi
	movq	%r12, %rdi
	call	*%rax
	jmp	.L729
	.cfi_endproc
.LFE6922:
	.section	.gcc_except_table
.LLSDAC6922:
	.byte	0xff
	.byte	0xff
	.byte	0x1
	.uleb128 .LLSDACSEC6922-.LLSDACSBC6922
.LLSDACSBC6922:
	.uleb128 .LEHB15-.LCOLDB25
	.uleb128 .LEHE15-.LEHB15
	.uleb128 .L775-.LCOLDB25
	.uleb128 0
	.uleb128 .LEHB16-.LCOLDB25
	.uleb128 .LEHE16-.LEHB16
	.uleb128 0
	.uleb128 0
	.uleb128 .LEHB17-.LCOLDB25
	.uleb128 .LEHE17-.LEHB17
	.uleb128 0
	.uleb128 0
	.uleb128 .LEHB18-.LCOLDB25
	.uleb128 .LEHE18-.LEHB18
	.uleb128 .L775-.LCOLDB25
	.uleb128 0
	.uleb128 .LEHB19-.LCOLDB25
	.uleb128 .LEHE19-.LEHB19
	.uleb128 0
	.uleb128 0
.LLSDACSEC6922:
	.section	.text.unlikely
	.text
	.size	_ZN7asiopal8Executor4PostERKSt8functionIFvvEE, .-_ZN7asiopal8Executor4PostERKSt8functionIFvvEE
	.section	.text.unlikely
	.size	_ZN7asiopal8Executor4PostERKSt8functionIFvvEE.cold, .-_ZN7asiopal8Executor4PostERKSt8functionIFvvEE.cold
.LCOLDE25:
	.text
.LHOTE25:
	.section	.rodata._ZNSt12system_errorC2ESt10error_codePKc.str1.1,"aMS",@progbits,1
.LC26:
	.string	": "
	.section	.text._ZNSt12system_errorC2ESt10error_codePKc,"axG",@progbits,_ZNSt12system_errorC5ESt10error_codePKc,comdat
	.align 2
	.p2align 4
	.weak	_ZNSt12system_errorC2ESt10error_codePKc
	.type	_ZNSt12system_errorC2ESt10error_codePKc, @function
_ZNSt12system_errorC2ESt10error_codePKc:
.LFB2284:
	.cfi_startproc
	.cfi_personality 0x9b,DW.ref.__gxx_personality_v0
	.cfi_lsda 0x1b,.LLSDA2284
	endbr64
	pushq	%r14
	.cfi_def_cfa_offset 16
	.cfi_offset 14, -16
	movl	%esi, %r8d
	movq	%rcx, %r14
	pushq	%r13
	.cfi_def_cfa_offset 24
	.cfi_offset 13, -24
	movq	%r8, %r13
	pushq	%r12
	.cfi_def_cfa_offset 32
	.cfi_offset 12, -32
	pushq	%rbp
	.cfi_def_cfa_offset 40
	.cfi_offset 6, -40
	movq	%rdx, %rbp
	pushq	%rbx
	.cfi_def_cfa_offset 48
	.cfi_offset 3, -48
	movq	%rdi, %rbx
	subq	$112, %rsp
	.cfi_def_cfa_offset 160
	movq	%fs:40, %rax
	movq	%rax, 104(%rsp)
	xorl	%eax, %eax
	movq	(%rdx), %rax
	leaq	64(%rsp), %r12
	movl	%esi, %edx
	movq	%r12, %rdi
	movq	%rbp, %rsi
.LEHB20:
	call	*32(%rax)
.LEHE20:
	movl	$2, %r8d
	xorl	%edx, %edx
	xorl	%esi, %esi
	leaq	.LC26(%rip), %rcx
	movq	%r12, %rdi
.LEHB21:
	call	_ZNSt7__cxx1112basic_stringIcSt11char_traitsIcESaIcEE10_M_replaceEmmPKcm@PLT
.LEHE21:
	leaq	48(%rsp), %r12
	leaq	16(%rax), %rdx
	movq	%r12, 32(%rsp)
	movq	(%rax), %rcx
	cmpq	%rdx, %rcx
	je	.L860
	movq	%rcx, 32(%rsp)
	movq	16(%rax), %rcx
	movq	%rcx, 48(%rsp)
.L842:
	movq	8(%rax), %rcx
	movb	$0, 16(%rax)
	movq	%r14, %rdi
	movq	%rcx, 40(%rsp)
	movq	%rdx, (%rax)
	movq	$0, 8(%rax)
	call	strlen@PLT
	leaq	32(%rsp), %rdi
	movq	%r14, %rcx
	xorl	%edx, %edx
	movq	%rax, %r8
	xorl	%esi, %esi
.LEHB22:
	call	_ZNSt7__cxx1112basic_stringIcSt11char_traitsIcESaIcEE10_M_replaceEmmPKcm@PLT
.LEHE22:
	leaq	16(%rsp), %r14
	leaq	16(%rax), %rdx
	movq	%r14, (%rsp)
	movq	(%rax), %rcx
	cmpq	%rdx, %rcx
	je	.L861
	movq	%rcx, (%rsp)
	movq	16(%rax), %rcx
	movq	%rcx, 16(%rsp)
.L844:
	movq	8(%rax), %rcx
	movb	$0, 16(%rax)
	movq	%rsp, %rsi
	movq	%rbx, %rdi
	movq	%rcx, 8(%rsp)
	movq	%rdx, (%rax)
	movq	$0, 8(%rax)
.LEHB23:
	call	_ZNSt13runtime_errorC2ERKNSt7__cxx1112basic_stringIcSt11char_traitsIcESaIcEEE@PLT
.LEHE23:
	movq	(%rsp), %rdi
	cmpq	%r14, %rdi
	je	.L845
	call	_ZdlPv@PLT
.L845:
	movq	32(%rsp), %rdi
	cmpq	%r12, %rdi
	je	.L846
	call	_ZdlPv@PLT
.L846:
	movq	64(%rsp), %rdi
	leaq	80(%rsp), %rax
	cmpq	%rax, %rdi
	je	.L847
	call	_ZdlPv@PLT
.L847:
	movq	_ZTVSt12system_error@GOTPCREL(%rip), %rax
	movq	%r13, 16(%rbx)
	movq	%rbp, 24(%rbx)
	addq	$16, %rax
	movq	%rax, (%rbx)
	movq	104(%rsp), %rax
	xorq	%fs:40, %rax
	jne	.L862
	addq	$112, %rsp
	.cfi_remember_state
	.cfi_def_cfa_offset 48
	popq	%rbx
	.cfi_def_cfa_offset 40
	popq	%rbp
	.cfi_def_cfa_offset 32
	popq	%r12
	.cfi_def_cfa_offset 24
	popq	%r13
	.cfi_def_cfa_offset 16
	popq	%r14
	.cfi_def_cfa_offset 8
	ret
	.p2align 4,,10
	.p2align 3
.L860:
	.cfi_restore_state
	movdqu	16(%rax), %xmm0
	movaps	%xmm0, 48(%rsp)
	jmp	.L842
	.p2align 4,,10
	.p2align 3
.L861:
	movdqu	16(%rax), %xmm1
	movaps	%xmm1, 16(%rsp)
	jmp	.L844
.L862:
	call	__stack_chk_fail@PLT
.L857:
	endbr64
	movq	%rax, %rbp
	jmp	.L848
.L855:
	endbr64
	movq	%rax, %rbp
	jmp	.L852
.L856:
	endbr64
	movq	%rax, %rbp
	jmp	.L850
.L848:
	movq	(%rsp), %rdi
	cmpq	%r14, %rdi
	je	.L850
	call	_ZdlPv@PLT
.L850:
	movq	32(%rsp), %rdi
	cmpq	%r12, %rdi
	je	.L852
	call	_ZdlPv@PLT
.L852:
	movq	64(%rsp), %rdi
	leaq	80(%rsp), %rax
	cmpq	%rax, %rdi
	je	.L853
	call	_ZdlPv@PLT
.L853:
	movq	%rbp, %rdi
.LEHB24:
	call	_Unwind_Resume@PLT
.LEHE24:
	.cfi_endproc
.LFE2284:
	.section	.gcc_except_table
.LLSDA2284:
	.byte	0xff
	.byte	0xff
	.byte	0x1
	.uleb128 .LLSDACSE2284-.LLSDACSB2284
.LLSDACSB2284:
	.uleb128 .LEHB20-.LFB2284
	.uleb128 .LEHE20-.LEHB20
	.uleb128 0
	.uleb128 0
	.uleb128 .LEHB21-.LFB2284
	.uleb128 .LEHE21-.LEHB21
	.uleb128 .L855-.LFB2284
	.uleb128 0
	.uleb128 .LEHB22-.LFB2284
	.uleb128 .LEHE22-.LEHB22
	.uleb128 .L856-.LFB2284
	.uleb128 0
	.uleb128 .LEHB23-.LFB2284
	.uleb128 .LEHE23-.LEHB23
	.uleb128 .L857-.LFB2284
	.uleb128 0
	.uleb128 .LEHB24-.LFB2284
	.uleb128 .LEHE24-.LEHB24
	.uleb128 0
	.uleb128 0
.LLSDACSE2284:
	.section	.text._ZNSt12system_errorC2ESt10error_codePKc,"axG",@progbits,_ZNSt12system_errorC5ESt10error_codePKc,comdat
	.size	_ZNSt12system_errorC2ESt10error_codePKc, .-_ZNSt12system_errorC2ESt10error_codePKc
	.weak	_ZNSt12system_errorC1ESt10error_codePKc
	.set	_ZNSt12system_errorC1ESt10error_codePKc,_ZNSt12system_errorC2ESt10error_codePKc
	.section	.rodata.str1.1,"aMS",@progbits,1
.LC27:
	.string	"mutex"
	.section	.text.unlikely
	.type	_ZN4asio6detail14do_throw_errorERKSt10error_codePKc.isra.0.constprop.0, @function
_ZN4asio6detail14do_throw_errorERKSt10error_codePKc.isra.0.constprop.0:
.LFB9662:
	.cfi_startproc
	.cfi_personality 0x9b,DW.ref.__gxx_personality_v0
	.cfi_lsda 0x1b,.LLSDA9662
	pushq	%r12
	.cfi_def_cfa_offset 16
	.cfi_offset 12, -16
	movq	%rsi, %rdx
	leaq	.LC27(%rip), %rcx
	movl	%edi, %esi
	pushq	%rbp
	.cfi_def_cfa_offset 24
	.cfi_offset 6, -24
	subq	$56, %rsp
	.cfi_def_cfa_offset 80
	movq	%fs:40, %rax
	movq	%rax, 40(%rsp)
	xorl	%eax, %eax
	movq	%rsp, %r12
	movq	%r12, %rdi
.LEHB25:
	call	_ZNSt12system_errorC1ESt10error_codePKc@PLT
.LEHE25:
	movl	$32, %edi
	call	__cxa_allocate_exception@PLT
	movq	%r12, %rsi
	movq	%rax, %rdi
	movq	%rax, %rbp
	call	_ZNSt13runtime_errorC2ERKS_@PLT
	movq	_ZTVSt12system_error@GOTPCREL(%rip), %rax
	movq	%rbp, %rdi
	movaps	16(%rsp), %xmm0
	movq	_ZNSt12system_errorD1Ev@GOTPCREL(%rip), %rdx
	movq	_ZTISt12system_error@GOTPCREL(%rip), %rsi
	addq	$16, %rax
	movups	%xmm0, 16(%rbp)
	movq	%rax, 0(%rbp)
.LEHB26:
	call	__cxa_throw@PLT
.LEHE26:
.L866:
	endbr64
	movq	%rax, %rbp
.L864:
	movq	%r12, %rdi
	call	_ZNSt12system_errorD1Ev@PLT
	movq	%rbp, %rdi
.LEHB27:
	call	_Unwind_Resume@PLT
.LEHE27:
	.cfi_endproc
.LFE9662:
	.section	.gcc_except_table
.LLSDA9662:
	.byte	0xff
	.byte	0xff
	.byte	0x1
	.uleb128 .LLSDACSE9662-.LLSDACSB9662
.LLSDACSB9662:
	.uleb128 .LEHB25-.LFB9662
	.uleb128 .LEHE25-.LEHB25
	.uleb128 0
	.uleb128 0
	.uleb128 .LEHB26-.LFB9662
	.uleb128 .LEHE26-.LEHB26
	.uleb128 .L866-.LFB9662
	.uleb128 0
	.uleb128 .LEHB27-.LFB9662
	.uleb128 .LEHE27-.LEHB27
	.uleb128 0
	.uleb128 0
.LLSDACSE9662:
	.section	.text.unlikely
	.size	_ZN4asio6detail14do_throw_errorERKSt10error_codePKc.isra.0.constprop.0, .-_ZN4asio6detail14do_throw_errorERKSt10error_codePKc.isra.0.constprop.0
	.section	.text._ZN4asio6detail14strand_service16on_dispatch_exitD2Ev,"axG",@progbits,_ZN4asio6detail14strand_service16on_dispatch_exitD5Ev,comdat
	.align 2
	.p2align 4
	.weak	_ZN4asio6detail14strand_service16on_dispatch_exitD2Ev
	.type	_ZN4asio6detail14strand_service16on_dispatch_exitD2Ev, @function
_ZN4asio6detail14strand_service16on_dispatch_exitD2Ev:
.LFB6328:
	.cfi_startproc
	endbr64
	pushq	%r12
	.cfi_def_cfa_offset 16
	.cfi_offset 12, -16
	pushq	%rbp
	.cfi_def_cfa_offset 24
	.cfi_offset 6, -24
	pushq	%rbx
	.cfi_def_cfa_offset 32
	.cfi_offset 3, -32
	movq	%rdi, %rbx
	subq	$32, %rsp
	.cfi_def_cfa_offset 64
	movq	%fs:40, %rax
	movq	%rax, 24(%rsp)
	xorl	%eax, %eax
	movq	8(%rdi), %rax
	leaq	24(%rax), %rdi
	call	pthread_mutex_lock@PLT
	movq	8(%rbx), %rdi
	movq	72(%rdi), %rbp
	testq	%rbp, %rbp
	je	.L898
	movq	96(%rdi), %rax
	testq	%rax, %rax
	je	.L871
	movq	%rbp, (%rax)
	movq	88(%rdi), %rbp
.L872:
	movq	80(%rdi), %rax
	pxor	%xmm0, %xmm0
	movups	%xmm0, 72(%rdi)
	movq	%rax, 96(%rdi)
.L870:
	testq	%rbp, %rbp
	setne	64(%rdi)
	addq	$24, %rdi
	call	pthread_mutex_unlock@PLT
	testq	%rbp, %rbp
	jne	.L899
.L868:
	movq	24(%rsp), %rax
	xorq	%fs:40, %rax
	jne	.L900
	addq	$32, %rsp
	.cfi_remember_state
	.cfi_def_cfa_offset 32
	popq	%rbx
	.cfi_def_cfa_offset 24
	popq	%rbp
	.cfi_def_cfa_offset 16
	popq	%r12
	.cfi_def_cfa_offset 8
	ret
	.p2align 4,,10
	.p2align 3
.L871:
	.cfi_restore_state
	movq	%rbp, 88(%rdi)
	jmp	.L872
	.p2align 4,,10
	.p2align 3
.L899:
	movq	(%rbx), %rbp
	movq	8(%rbx), %rbx
	cmpb	$0, 40(%rbp)
	je	.L874
	data16	leaq	_ZN4asio6detail15keyword_tss_ptrINS0_10call_stackINS0_15task_io_serviceENS0_27task_io_service_thread_infoEE7contextEE6value_E@tlsgd(%rip), %rdi
	.value	0x6666
	rex64
	call	__tls_get_addr@PLT
	movq	(%rax), %rax
	testq	%rax, %rax
	jne	.L877
	jmp	.L874
	.p2align 4,,10
	.p2align 3
.L875:
	movq	16(%rax), %rax
	testq	%rax, %rax
	je	.L874
.L877:
	cmpq	(%rax), %rbp
	jne	.L875
	movq	8(%rax), %rax
	testq	%rax, %rax
	je	.L874
	addq	$1, 24(%rax)
	cmpq	$0, 16(%rax)
	movq	$0, (%rbx)
	je	.L878
	movq	16(%rax), %rdx
	movq	%rbx, (%rdx)
	movq	%rbx, 16(%rax)
	jmp	.L868
	.p2align 4,,10
	.p2align 3
.L874:
	lock addq	$1, 184(%rbp)
	leaq	48(%rbp), %r12
	movq	%r12, %rdi
	call	pthread_mutex_lock@PLT
	cmpq	$0, 200(%rbp)
	movq	$0, (%rbx)
	je	.L879
	movq	200(%rbp), %rax
	movq	%rbx, (%rax)
	movq	%rbx, 200(%rbp)
.L880:
	movq	136(%rbp), %rax
	orq	$1, %rax
	movq	%rax, 136(%rbp)
	cmpq	$1, %rax
	je	.L881
	movq	%r12, %rdi
	call	pthread_mutex_unlock@PLT
	leaq	88(%rbp), %rdi
	call	pthread_cond_signal@PLT
	jmp	.L868
	.p2align 4,,10
	.p2align 3
.L898:
	movq	88(%rdi), %rbp
	jmp	.L870
	.p2align 4,,10
	.p2align 3
.L879:
	movq	%rbx, %xmm0
	punpcklqdq	%xmm0, %xmm0
	movups	%xmm0, 192(%rbp)
	jmp	.L880
	.p2align 4,,10
	.p2align 3
.L881:
	cmpb	$0, 176(%rbp)
	jne	.L883
	movq	144(%rbp), %rax
	testq	%rax, %rax
	je	.L883
	leaq	88(%rax), %rdx
	movb	$1, 176(%rbp)
	movl	96(%rax), %edi
	leaq	12(%rsp), %rcx
	movq	%rdx, 16(%rsp)
	movl	88(%rax), %edx
	movl	$3, %esi
	movl	$-2147483639, 12(%rsp)
	call	epoll_ctl@PLT
.L883:
	movq	%r12, %rdi
	call	pthread_mutex_unlock@PLT
	jmp	.L868
	.p2align 4,,10
	.p2align 3
.L878:
	movq	%rbx, %xmm0
	punpcklqdq	%xmm0, %xmm0
	movups	%xmm0, 8(%rax)
	jmp	.L868
.L900:
	call	__stack_chk_fail@PLT
	.cfi_endproc
.LFE6328:
	.size	_ZN4asio6detail14strand_service16on_dispatch_exitD2Ev, .-_ZN4asio6detail14strand_service16on_dispatch_exitD2Ev
	.weak	_ZN4asio6detail14strand_service16on_dispatch_exitD1Ev
	.set	_ZN4asio6detail14strand_service16on_dispatch_exitD1Ev,_ZN4asio6detail14strand_service16on_dispatch_exitD2Ev
	.section	.text._ZN4asio6detail14strand_service19on_do_complete_exitD2Ev,"axG",@progbits,_ZN4asio6detail14strand_service19on_do_complete_exitD5Ev,comdat
	.align 2
	.p2align 4
	.weak	_ZN4asio6detail14strand_service19on_do_complete_exitD2Ev
	.type	_ZN4asio6detail14strand_service19on_do_complete_exitD2Ev, @function
_ZN4asio6detail14strand_service19on_do_complete_exitD2Ev:
.LFB6333:
	.cfi_startproc
	endbr64
	pushq	%r12
	.cfi_def_cfa_offset 16
	.cfi_offset 12, -16
	pushq	%rbp
	.cfi_def_cfa_offset 24
	.cfi_offset 6, -24
	pushq	%rbx
	.cfi_def_cfa_offset 32
	.cfi_offset 3, -32
	movq	%rdi, %rbx
	subq	$32, %rsp
	.cfi_def_cfa_offset 64
	movq	%fs:40, %rax
	movq	%rax, 24(%rsp)
	xorl	%eax, %eax
	movq	8(%rdi), %rax
	leaq	24(%rax), %rdi
	call	pthread_mutex_lock@PLT
	movq	8(%rbx), %rdi
	movq	72(%rdi), %rbp
	testq	%rbp, %rbp
	je	.L931
	movq	96(%rdi), %rax
	testq	%rax, %rax
	je	.L904
	movq	%rbp, (%rax)
	movq	88(%rdi), %rbp
.L905:
	movq	80(%rdi), %rax
	pxor	%xmm0, %xmm0
	movups	%xmm0, 72(%rdi)
	movq	%rax, 96(%rdi)
.L903:
	testq	%rbp, %rbp
	setne	64(%rdi)
	addq	$24, %rdi
	call	pthread_mutex_unlock@PLT
	testq	%rbp, %rbp
	jne	.L932
.L901:
	movq	24(%rsp), %rax
	xorq	%fs:40, %rax
	jne	.L933
	addq	$32, %rsp
	.cfi_remember_state
	.cfi_def_cfa_offset 32
	popq	%rbx
	.cfi_def_cfa_offset 24
	popq	%rbp
	.cfi_def_cfa_offset 16
	popq	%r12
	.cfi_def_cfa_offset 8
	ret
	.p2align 4,,10
	.p2align 3
.L904:
	.cfi_restore_state
	movq	%rbp, 88(%rdi)
	jmp	.L905
	.p2align 4,,10
	.p2align 3
.L932:
	data16	leaq	_ZN4asio6detail15keyword_tss_ptrINS0_10call_stackINS0_15task_io_serviceENS0_27task_io_service_thread_infoEE7contextEE6value_E@tlsgd(%rip), %rdi
	.value	0x6666
	rex64
	call	__tls_get_addr@PLT
	movq	(%rbx), %rbp
	movq	8(%rbx), %rbx
	movq	(%rax), %rax
	testq	%rax, %rax
	jne	.L910
	jmp	.L907
	.p2align 4,,10
	.p2align 3
.L908:
	movq	16(%rax), %rax
	testq	%rax, %rax
	je	.L907
.L910:
	cmpq	(%rax), %rbp
	jne	.L908
	movq	8(%rax), %rax
	testq	%rax, %rax
	je	.L907
	addq	$1, 24(%rax)
	cmpq	$0, 16(%rax)
	movq	$0, (%rbx)
	je	.L911
	movq	16(%rax), %rdx
	movq	%rbx, (%rdx)
	movq	%rbx, 16(%rax)
	jmp	.L901
	.p2align 4,,10
	.p2align 3
.L931:
	movq	88(%rdi), %rbp
	jmp	.L903
	.p2align 4,,10
	.p2align 3
.L907:
	lock addq	$1, 184(%rbp)
	leaq	48(%rbp), %r12
	movq	%r12, %rdi
	call	pthread_mutex_lock@PLT
	cmpq	$0, 200(%rbp)
	movq	$0, (%rbx)
	je	.L912
	movq	200(%rbp), %rax
	movq	%rbx, (%rax)
	movq	%rbx, 200(%rbp)
.L913:
	movq	136(%rbp), %rax
	orq	$1, %rax
	movq	%rax, 136(%rbp)
	cmpq	$1, %rax
	je	.L914
	movq	%r12, %rdi
	call	pthread_mutex_unlock@PLT
	leaq	88(%rbp), %rdi
	call	pthread_cond_signal@PLT
	jmp	.L901
	.p2align 4,,10
	.p2align 3
.L914:
	cmpb	$0, 176(%rbp)
	jne	.L916
	movq	144(%rbp), %rax
	testq	%rax, %rax
	je	.L916
	leaq	88(%rax), %rdx
	movb	$1, 176(%rbp)
	movl	96(%rax), %edi
	leaq	12(%rsp), %rcx
	movq	%rdx, 16(%rsp)
	movl	88(%rax), %edx
	movl	$3, %esi
	movl	$-2147483639, 12(%rsp)
	call	epoll_ctl@PLT
.L916:
	movq	%r12, %rdi
	call	pthread_mutex_unlock@PLT
	jmp	.L901
	.p2align 4,,10
	.p2align 3
.L911:
	movq	%rbx, %xmm0
	punpcklqdq	%xmm0, %xmm0
	movups	%xmm0, 8(%rax)
	jmp	.L901
	.p2align 4,,10
	.p2align 3
.L912:
	movq	%rbx, %xmm0
	punpcklqdq	%xmm0, %xmm0
	movups	%xmm0, 192(%rbp)
	jmp	.L913
.L933:
	call	__stack_chk_fail@PLT
	.cfi_endproc
.LFE6333:
	.size	_ZN4asio6detail14strand_service19on_do_complete_exitD2Ev, .-_ZN4asio6detail14strand_service19on_do_complete_exitD2Ev
	.weak	_ZN4asio6detail14strand_service19on_do_complete_exitD1Ev
	.set	_ZN4asio6detail14strand_service19on_do_complete_exitD1Ev,_ZN4asio6detail14strand_service19on_do_complete_exitD2Ev
	.section	.text._ZN4asio6detail14strand_service11do_completeEPNS0_15task_io_serviceEPNS0_25task_io_service_operationERKSt10error_codem,"axG",@progbits,_ZN4asio6detail14strand_service11do_completeEPNS0_15task_io_serviceEPNS0_25task_io_service_operationERKSt10error_codem,comdat
	.align 2
	.p2align 4
	.weak	_ZN4asio6detail14strand_service11do_completeEPNS0_15task_io_serviceEPNS0_25task_io_service_operationERKSt10error_codem
	.type	_ZN4asio6detail14strand_service11do_completeEPNS0_15task_io_serviceEPNS0_25task_io_service_operationERKSt10error_codem, @function
_ZN4asio6detail14strand_service11do_completeEPNS0_15task_io_serviceEPNS0_25task_io_service_operationERKSt10error_codem:
.LFB6347:
	.cfi_startproc
	.cfi_personality 0x9b,DW.ref.__gxx_personality_v0
	.cfi_lsda 0x1b,.LLSDA6347
	endbr64
	pushq	%r12
	.cfi_def_cfa_offset 16
	.cfi_offset 12, -16
	pushq	%rbp
	.cfi_def_cfa_offset 24
	.cfi_offset 6, -24
	pushq	%rbx
	.cfi_def_cfa_offset 32
	.cfi_offset 3, -32
	subq	$64, %rsp
	.cfi_def_cfa_offset 96
	movq	%fs:40, %rax
	movq	%rax, 56(%rsp)
	xorl	%eax, %eax
	testq	%rdi, %rdi
	je	.L934
	movq	%rdi, %rbp
	movq	%rsi, %rbx
	movq	%rdx, %r12
	movq	%rsi, 32(%rsp)
	data16	leaq	_ZN4asio6detail15keyword_tss_ptrINS0_10call_stackINS0_14strand_service11strand_implEhE7contextEE6value_E@tlsgd(%rip), %rdi
	.value	0x6666
	rex64
	call	__tls_get_addr@PLT
	movq	%rbp, %xmm0
	movq	%rbx, %xmm1
	punpcklqdq	%xmm1, %xmm0
	movaps	%xmm0, 16(%rsp)
	movq	(%rax), %rdx
	movq	%rdx, 48(%rsp)
	leaq	32(%rsp), %rdx
	movq	%rdx, 40(%rsp)
	movq	%rdx, (%rax)
	jmp	.L938
	.p2align 4,,10
	.p2align 3
.L937:
	movq	$0, (%rax)
	xorl	%ecx, %ecx
	movq	%r12, %rdx
	movq	%rax, %rsi
	movq	%rbp, %rdi
.LEHB28:
	call	*8(%rax)
.LEHE28:
.L938:
	movq	88(%rbx), %rax
	testq	%rax, %rax
	je	.L936
	movq	(%rax), %rdx
	movq	%rdx, 88(%rbx)
	testq	%rdx, %rdx
	jne	.L937
	movq	$0, 96(%rbx)
	jmp	.L937
	.p2align 4,,10
	.p2align 3
.L936:
	movq	24(%rsp), %rax
	leaq	24(%rax), %rdi
	call	pthread_mutex_lock@PLT
	movq	24(%rsp), %rdi
	movq	72(%rdi), %rbx
	testq	%rbx, %rbx
	je	.L973
	movq	96(%rdi), %rax
	testq	%rax, %rax
	je	.L941
	movq	%rbx, (%rax)
	movq	88(%rdi), %rbx
.L942:
	movq	80(%rdi), %rax
	pxor	%xmm0, %xmm0
	movups	%xmm0, 72(%rdi)
	movq	%rax, 96(%rdi)
.L940:
	testq	%rbx, %rbx
	setne	64(%rdi)
	addq	$24, %rdi
	call	pthread_mutex_unlock@PLT
	testq	%rbx, %rbx
	jne	.L974
.L943:
	data16	leaq	_ZN4asio6detail15keyword_tss_ptrINS0_10call_stackINS0_14strand_service11strand_implEhE7contextEE6value_E@tlsgd(%rip), %rdi
	.value	0x6666
	rex64
	call	__tls_get_addr@PLT
	movq	48(%rsp), %rdx
	movq	%rdx, (%rax)
.L934:
	movq	56(%rsp), %rax
	xorq	%fs:40, %rax
	jne	.L975
	addq	$64, %rsp
	.cfi_remember_state
	.cfi_def_cfa_offset 32
	popq	%rbx
	.cfi_def_cfa_offset 24
	popq	%rbp
	.cfi_def_cfa_offset 16
	popq	%r12
	.cfi_def_cfa_offset 8
	ret
	.p2align 4,,10
	.p2align 3
.L973:
	.cfi_restore_state
	movq	88(%rdi), %rbx
	jmp	.L940
	.p2align 4,,10
	.p2align 3
.L974:
	data16	leaq	_ZN4asio6detail15keyword_tss_ptrINS0_10call_stackINS0_15task_io_serviceENS0_27task_io_service_thread_infoEE7contextEE6value_E@tlsgd(%rip), %rdi
	.value	0x6666
	rex64
	call	__tls_get_addr@PLT
	movq	16(%rsp), %rbx
	movq	24(%rsp), %rbp
	movq	(%rax), %rax
	testq	%rax, %rax
	jne	.L947
	jmp	.L944
	.p2align 4,,10
	.p2align 3
.L945:
	movq	16(%rax), %rax
	testq	%rax, %rax
	je	.L944
.L947:
	cmpq	(%rax), %rbx
	jne	.L945
	movq	8(%rax), %rax
	testq	%rax, %rax
	je	.L944
	addq	$1, 24(%rax)
	cmpq	$0, 16(%rax)
	movq	$0, 0(%rbp)
	je	.L948
	movq	16(%rax), %rdx
	movq	%rbp, (%rdx)
	movq	%rbp, 16(%rax)
	jmp	.L943
	.p2align 4,,10
	.p2align 3
.L941:
	movq	%rbx, 88(%rdi)
	jmp	.L942
	.p2align 4,,10
	.p2align 3
.L944:
	lock addq	$1, 184(%rbx)
	leaq	48(%rbx), %r12
	movq	%r12, %rdi
	call	pthread_mutex_lock@PLT
	cmpq	$0, 200(%rbx)
	movq	$0, 0(%rbp)
	je	.L949
	movq	200(%rbx), %rax
	movq	%rbp, (%rax)
	movq	%rbp, 200(%rbx)
.L950:
	movq	136(%rbx), %rax
	orq	$1, %rax
	movq	%rax, 136(%rbx)
	cmpq	$1, %rax
	je	.L951
	movq	%r12, %rdi
	call	pthread_mutex_unlock@PLT
	leaq	88(%rbx), %rdi
	call	pthread_cond_signal@PLT
	jmp	.L943
.L951:
	cmpb	$0, 176(%rbx)
	jne	.L953
	movq	144(%rbx), %rax
	testq	%rax, %rax
	je	.L953
	leaq	88(%rax), %rdx
	movb	$1, 176(%rbx)
	movl	96(%rax), %edi
	leaq	4(%rsp), %rcx
	movq	%rdx, 8(%rsp)
	movl	88(%rax), %edx
	movl	$3, %esi
	movl	$-2147483639, 4(%rsp)
	call	epoll_ctl@PLT
.L953:
	movq	%r12, %rdi
	call	pthread_mutex_unlock@PLT
	jmp	.L943
.L948:
	movq	%rbp, %xmm0
	punpcklqdq	%xmm0, %xmm0
	movups	%xmm0, 8(%rax)
	jmp	.L943
.L949:
	movq	%rbp, %xmm0
	punpcklqdq	%xmm0, %xmm0
	movups	%xmm0, 192(%rbx)
	jmp	.L950
.L975:
	call	__stack_chk_fail@PLT
.L956:
	endbr64
	movq	%rax, %rbp
.L954:
	leaq	16(%rsp), %rdi
	call	_ZN4asio6detail14strand_service19on_do_complete_exitD1Ev@PLT
	data16	leaq	_ZN4asio6detail15keyword_tss_ptrINS0_10call_stackINS0_14strand_service11strand_implEhE7contextEE6value_E@tlsgd(%rip), %rdi
	.value	0x6666
	rex64
	call	__tls_get_addr@PLT
	movq	48(%rsp), %rdx
	movq	%rbp, %rdi
	movq	%rdx, (%rax)
.LEHB29:
	call	_Unwind_Resume@PLT
.LEHE29:
	.cfi_endproc
.LFE6347:
	.section	.gcc_except_table
.LLSDA6347:
	.byte	0xff
	.byte	0xff
	.byte	0x1
	.uleb128 .LLSDACSE6347-.LLSDACSB6347
.LLSDACSB6347:
	.uleb128 .LEHB28-.LFB6347
	.uleb128 .LEHE28-.LEHB28
	.uleb128 .L956-.LFB6347
	.uleb128 0
	.uleb128 .LEHB29-.LFB6347
	.uleb128 .LEHE29-.LEHB29
	.uleb128 0
	.uleb128 0
.LLSDACSE6347:
	.section	.text._ZN4asio6detail14strand_service11do_completeEPNS0_15task_io_serviceEPNS0_25task_io_service_operationERKSt10error_codem,"axG",@progbits,_ZN4asio6detail14strand_service11do_completeEPNS0_15task_io_serviceEPNS0_25task_io_service_operationERKSt10error_codem,comdat
	.size	_ZN4asio6detail14strand_service11do_completeEPNS0_15task_io_serviceEPNS0_25task_io_service_operationERKSt10error_codem, .-_ZN4asio6detail14strand_service11do_completeEPNS0_15task_io_serviceEPNS0_25task_io_service_operationERKSt10error_codem
	.section	.rodata._ZNSt7promiseIbED2Ev.str1.1,"aMS",@progbits,1
.LC28:
	.string	"std::future_error: "
	.section	.text._ZNSt7promiseIbED2Ev,"axG",@progbits,_ZNSt7promiseIbED5Ev,comdat
	.align 2
	.p2align 4
	.weak	_ZNSt7promiseIbED2Ev
	.type	_ZNSt7promiseIbED2Ev, @function
_ZNSt7promiseIbED2Ev:
.LFB7712:
	.cfi_startproc
	.cfi_personality 0x9b,DW.ref.__gxx_personality_v0
	.cfi_lsda 0x1b,.LLSDA7712
	endbr64
	pushq	%r15
	.cfi_def_cfa_offset 16
	.cfi_offset 15, -16
	pushq	%r14
	.cfi_def_cfa_offset 24
	.cfi_offset 14, -24
	pushq	%r13
	.cfi_def_cfa_offset 32
	.cfi_offset 13, -32
	pushq	%r12
	.cfi_def_cfa_offset 40
	.cfi_offset 12, -40
	pushq	%rbp
	.cfi_def_cfa_offset 48
	.cfi_offset 6, -48
	pushq	%rbx
	.cfi_def_cfa_offset 56
	.cfi_offset 3, -56
	movq	%rdi, %rbx
	subq	$136, %rsp
	.cfi_def_cfa_offset 192
	movq	(%rdi), %rbp
	movq	%fs:40, %rax
	movq	%rax, 120(%rsp)
	xorl	%eax, %eax
	testq	%rbp, %rbp
	je	.L1016
	movq	8(%rdi), %rax
	testq	%rax, %rax
	je	.L979
	movl	8(%rax), %eax
	cmpl	$1, %eax
	je	.L1016
.L979:
	movq	16(%rbx), %r13
	movq	$0, 16(%rbx)
	testq	%r13, %r13
	je	.L981
	call	_ZSt15future_categoryv@PLT
	leaq	48(%rsp), %r14
	movl	$4, %edx
	movq	%rax, %r12
	movq	(%rax), %rax
	movq	%r14, %rdi
	movq	%r12, %rsi
	call	*32(%rax)
	movl	$19, %r8d
	xorl	%edx, %edx
	xorl	%esi, %esi
	leaq	.LC28(%rip), %rcx
	movq	%r14, %rdi
.LEHB30:
	call	_ZNSt7__cxx1112basic_stringIcSt11char_traitsIcESaIcEE10_M_replaceEmmPKcm@PLT
.LEHE30:
	leaq	96(%rsp), %r14
	leaq	16(%rax), %rdx
	movq	%r14, 80(%rsp)
	movq	(%rax), %rcx
	cmpq	%rdx, %rcx
	je	.L1017
	movq	%rcx, 80(%rsp)
	movq	16(%rax), %rcx
	movq	%rcx, 96(%rsp)
.L983:
	movq	8(%rax), %rcx
	movb	$0, 16(%rax)
	leaq	16(%rsp), %r15
	leaq	80(%rsp), %rsi
	movq	%r15, %rdi
	movq	%rcx, 88(%rsp)
	movq	%rdx, (%rax)
	movq	$0, 8(%rax)
.LEHB31:
	call	_ZNSt11logic_errorC2ERKNSt7__cxx1112basic_stringIcSt11char_traitsIcESaIcEEE@PLT
.LEHE31:
	movq	80(%rsp), %rdi
	cmpq	%r14, %rdi
	je	.L984
	call	_ZdlPv@PLT
.L984:
	movq	48(%rsp), %rdi
	leaq	64(%rsp), %rax
	cmpq	%rax, %rdi
	je	.L985
	call	_ZdlPv@PLT
.L985:
	movq	_ZTVSt12future_error@GOTPCREL(%rip), %rax
	movl	$32, %edi
	movq	%r12, 40(%rsp)
	movl	$4, 32(%rsp)
	leaq	16(%rax), %r14
	movq	%r14, 16(%rsp)
	call	__cxa_allocate_exception@PLT
	movq	_ZNSt15__exception_ptr12__dest_thunkISt12future_errorEEvPv@GOTPCREL(%rip), %rdx
	movq	_ZTISt12future_error@GOTPCREL(%rip), %rsi
	movq	%rax, %r12
	movq	%rax, %rdi
	call	__cxa_init_primary_exception@PLT
	movq	%r15, %rsi
	movq	%r12, %rdi
	call	_ZNSt11logic_errorC2ERKS_@PLT
	movdqa	32(%rsp), %xmm0
	movq	%r14, (%r12)
	movq	%rsp, %r14
	movq	%r12, %rsi
	movq	%r14, %rdi
	movups	%xmm0, 16(%r12)
	leaq	8(%rsp), %r12
	call	_ZNSt15__exception_ptr13exception_ptrC1EPv@PLT
	movq	(%rsp), %rax
	leaq	8(%r13), %rsi
	movq	%r12, %rdi
	movq	$0, (%rsp)
	movq	%rax, 8(%rsp)
	call	_ZNSt15__exception_ptr13exception_ptr4swapERS0_@PLT
	movq	%r12, %rdi
	call	_ZNSt15__exception_ptr13exception_ptrD1Ev@PLT
	movq	%r14, %rdi
	call	_ZNSt15__exception_ptr13exception_ptrD1Ev@PLT
	movq	%r15, %rdi
	call	_ZNSt12future_errorD1Ev@PLT
	movq	8(%rbp), %r12
	leaq	16(%rbp), %rdi
	movl	$1, %eax
	movq	%r13, 8(%rbp)
	xchgl	(%rdi), %eax
	testl	%eax, %eax
	js	.L1018
.L987:
	testq	%r12, %r12
	je	.L1016
	movq	(%r12), %rax
	movq	%r12, %rdi
	call	*(%rax)
.L1016:
	movq	16(%rbx), %rbp
	testq	%rbp, %rbp
	je	.L981
	movq	0(%rbp), %rax
	movq	(%rax), %rdx
	cmpq	_ZNSt13__future_base7_ResultIbE10_M_destroyEv@GOTPCREL(%rip), %rdx
	jne	.L994
	movq	16(%rax), %rax
	cmpq	_ZNSt13__future_base7_ResultIbED0Ev@GOTPCREL(%rip), %rax
	jne	.L995
	movq	_ZTVNSt13__future_base7_ResultIbEE@GOTPCREL(%rip), %rax
	movq	%rbp, %rdi
	addq	$16, %rax
	movq	%rax, 0(%rbp)
	call	_ZNSt13__future_base12_Result_baseD2Ev@PLT
	movl	$24, %esi
	movq	%rbp, %rdi
	call	_ZdlPvm@PLT
.L981:
	movq	8(%rbx), %rbp
	testq	%rbp, %rbp
	je	.L976
	movq	_ZL28__gthrw___pthread_key_createPjPFvPvE@GOTPCREL(%rip), %rbx
	testq	%rbx, %rbx
	je	.L998
	movl	$-1, %eax
	lock xaddl	%eax, 8(%rbp)
	cmpl	$1, %eax
	je	.L1019
	.p2align 4,,10
	.p2align 3
.L976:
	movq	120(%rsp), %rax
	xorq	%fs:40, %rax
	jne	.L1020
	addq	$136, %rsp
	.cfi_remember_state
	.cfi_def_cfa_offset 56
	popq	%rbx
	.cfi_def_cfa_offset 48
	popq	%rbp
	.cfi_def_cfa_offset 40
	popq	%r12
	.cfi_def_cfa_offset 32
	popq	%r13
	.cfi_def_cfa_offset 24
	popq	%r14
	.cfi_def_cfa_offset 16
	popq	%r15
	.cfi_def_cfa_offset 8
	ret
	.p2align 4,,10
	.p2align 3
.L998:
	.cfi_restore_state
	movl	8(%rbp), %eax
	leal	-1(%rax), %edx
	movl	%edx, 8(%rbp)
	cmpl	$1, %eax
	jne	.L976
.L1019:
	movq	0(%rbp), %rax
	movq	%rbp, %rdi
	call	*16(%rax)
	testq	%rbx, %rbx
	je	.L1001
	movl	$-1, %eax
	lock xaddl	%eax, 12(%rbp)
.L1002:
	cmpl	$1, %eax
	jne	.L976
	movq	0(%rbp), %rax
	movq	%rbp, %rdi
	call	*24(%rax)
	jmp	.L976
	.p2align 4,,10
	.p2align 3
.L995:
	movq	%rbp, %rdi
	call	*%rax
	jmp	.L981
	.p2align 4,,10
	.p2align 3
.L994:
	movq	%rbp, %rdi
	call	*%rdx
	jmp	.L981
	.p2align 4,,10
	.p2align 3
.L1017:
	movdqu	16(%rax), %xmm1
	movaps	%xmm1, 96(%rsp)
	jmp	.L983
	.p2align 4,,10
	.p2align 3
.L1001:
	movl	12(%rbp), %eax
	leal	-1(%rax), %edx
	movl	%edx, 12(%rbp)
	jmp	.L1002
	.p2align 4,,10
	.p2align 3
.L1018:
	call	_ZNSt28__atomic_futex_unsigned_base19_M_futex_notify_allEPj@PLT
	jmp	.L987
.L1020:
	call	__stack_chk_fail@PLT
.L1004:
	endbr64
	jmp	.L990
.L1005:
	endbr64
.L988:
	movq	80(%rsp), %rdi
	cmpq	%r14, %rdi
	je	.L990
	call	_ZdlPv@PLT
.L990:
	movq	48(%rsp), %rdi
	leaq	64(%rsp), %rax
	cmpq	%rax, %rdi
	je	.L991
	call	_ZdlPv@PLT
.L991:
	call	_ZSt9terminatev@PLT
	.cfi_endproc
.LFE7712:
	.section	.gcc_except_table
.LLSDA7712:
	.byte	0xff
	.byte	0xff
	.byte	0x1
	.uleb128 .LLSDACSE7712-.LLSDACSB7712
.LLSDACSB7712:
	.uleb128 .LEHB30-.LFB7712
	.uleb128 .LEHE30-.LEHB30
	.uleb128 .L1004-.LFB7712
	.uleb128 0
	.uleb128 .LEHB31-.LFB7712
	.uleb128 .LEHE31-.LEHB31
	.uleb128 .L1005-.LFB7712
	.uleb128 0
.LLSDACSE7712:
	.section	.text._ZNSt7promiseIbED2Ev,"axG",@progbits,_ZNSt7promiseIbED5Ev,comdat
	.size	_ZNSt7promiseIbED2Ev, .-_ZNSt7promiseIbED2Ev
	.weak	_ZNSt7promiseIbED1Ev
	.set	_ZNSt7promiseIbED1Ev,_ZNSt7promiseIbED2Ev
	.section	.text._ZNSt16_Sp_counted_baseILN9__gnu_cxx12_Lock_policyE2EE10_M_releaseEv,"axG",@progbits,_ZNSt16_Sp_counted_baseILN9__gnu_cxx12_Lock_policyE2EE10_M_releaseEv,comdat
	.align 2
	.p2align 4
	.weak	_ZNSt16_Sp_counted_baseILN9__gnu_cxx12_Lock_policyE2EE10_M_releaseEv
	.type	_ZNSt16_Sp_counted_baseILN9__gnu_cxx12_Lock_policyE2EE10_M_releaseEv, @function
_ZNSt16_Sp_counted_baseILN9__gnu_cxx12_Lock_policyE2EE10_M_releaseEv:
.LFB7965:
	.cfi_startproc
	endbr64
	pushq	%rbp
	.cfi_def_cfa_offset 16
	.cfi_offset 6, -16
	movq	%rdi, %rbp
	pushq	%rbx
	.cfi_def_cfa_offset 24
	.cfi_offset 3, -24
	subq	$8, %rsp
	.cfi_def_cfa_offset 32
	movq	_ZL28__gthrw___pthread_key_createPjPFvPvE@GOTPCREL(%rip), %rbx
	testq	%rbx, %rbx
	je	.L1022
	movl	$-1, %eax
	lock xaddl	%eax, 8(%rdi)
	cmpl	$1, %eax
	je	.L1030
.L1021:
	addq	$8, %rsp
	.cfi_remember_state
	.cfi_def_cfa_offset 24
	popq	%rbx
	.cfi_def_cfa_offset 16
	popq	%rbp
	.cfi_def_cfa_offset 8
	ret
	.p2align 4,,10
	.p2align 3
.L1022:
	.cfi_restore_state
	movl	8(%rdi), %eax
	leal	-1(%rax), %edx
	movl	%edx, 8(%rdi)
	cmpl	$1, %eax
	jne	.L1021
.L1030:
	movq	0(%rbp), %rax
	movq	%rbp, %rdi
	call	*16(%rax)
	testq	%rbx, %rbx
	je	.L1026
	movl	$-1, %eax
	lock xaddl	%eax, 12(%rbp)
.L1027:
	cmpl	$1, %eax
	jne	.L1021
	movq	0(%rbp), %rax
	movq	%rbp, %rdi
	movq	24(%rax), %rax
	addq	$8, %rsp
	.cfi_remember_state
	.cfi_def_cfa_offset 24
	popq	%rbx
	.cfi_def_cfa_offset 16
	popq	%rbp
	.cfi_def_cfa_offset 8
	jmp	*%rax
	.p2align 4,,10
	.p2align 3
.L1026:
	.cfi_restore_state
	movl	12(%rbp), %eax
	leal	-1(%rax), %edx
	movl	%edx, 12(%rbp)
	jmp	.L1027
	.cfi_endproc
.LFE7965:
	.size	_ZNSt16_Sp_counted_baseILN9__gnu_cxx12_Lock_policyE2EE10_M_releaseEv, .-_ZNSt16_Sp_counted_baseILN9__gnu_cxx12_Lock_policyE2EE10_M_releaseEv
	.section	.text.unlikely
	.align 2
.LCOLDB29:
	.text
.LHOTB29:
	.align 2
	.p2align 4
	.globl	_ZN7asiopal8ExecutorC2ERKSt10shared_ptrINS_2IOEE
	.type	_ZN7asiopal8ExecutorC2ERKSt10shared_ptrINS_2IOEE, @function
_ZN7asiopal8ExecutorC2ERKSt10shared_ptrINS_2IOEE:
.LFB6868:
	.cfi_startproc
	.cfi_personality 0x9b,DW.ref.__gxx_personality_v0
	.cfi_lsda 0x1b,.LLSDA6868
	endbr64
	pushq	%r15
	.cfi_def_cfa_offset 16
	.cfi_offset 15, -16
	pushq	%r14
	.cfi_def_cfa_offset 24
	.cfi_offset 14, -24
	pushq	%r13
	.cfi_def_cfa_offset 32
	.cfi_offset 13, -32
	pushq	%r12
	.cfi_def_cfa_offset 40
	.cfi_offset 12, -40
	movq	%rdi, %r12
	pushq	%rbp
	.cfi_def_cfa_offset 48
	.cfi_offset 6, -48
	pushq	%rbx
	.cfi_def_cfa_offset 56
	.cfi_offset 3, -56
	subq	$56, %rsp
	.cfi_def_cfa_offset 112
	movq	%fs:40, %rax
	movq	%rax, 40(%rsp)
	xorl	%eax, %eax
	movq	_ZTVN7asiopal8ExecutorE@GOTPCREL(%rip), %rax
	movq	$0, 8(%rdi)
	movq	$0, 16(%rdi)
	addq	$16, %rax
	movq	%rax, (%rdi)
	movq	(%rsi), %rax
	movq	%rax, 24(%rdi)
	movq	8(%rsi), %rax
	movq	%rax, 32(%rdi)
	testq	%rax, %rax
	je	.L1032
	cmpq	$0, _ZL28__gthrw___pthread_key_createPjPFvPvE@GOTPCREL(%rip)
	je	.L1033
	lock addl	$1, 8(%rax)
.L1032:
	movq	(%rsi), %rax
	movq	8(%rax), %r14
	leaq	8(%r14), %r15
	movq	%r15, %rdi
	call	pthread_mutex_lock@PLT
	movq	56(%r14), %rbx
	testq	%rbx, %rbx
	je	.L1034
	.p2align 4,,10
	.p2align 3
.L1038:
	movq	8(%rbx), %rax
	testq	%rax, %rax
	je	.L1035
	movq	8(%rax), %rdi
	movq	_ZTSN4asio6detail14typeid_wrapperINS0_14strand_serviceEEE@GOTPCREL(%rip), %rsi
	cmpq	%rsi, %rdi
	je	.L1134
	cmpb	$42, (%rdi)
	je	.L1035
	call	strcmp@PLT
	testl	%eax, %eax
	jne	.L1035
.L1134:
	leaq	48(%rbx), %r13
.L1037:
	movq	%r15, %rdi
	call	pthread_mutex_unlock@PLT
	movq	%rbx, 40(%r12)
	movq	%r13, %rdi
	call	pthread_mutex_lock@PLT
	movq	1632(%rbx), %rdx
	leaq	1(%rdx), %rax
	movq	%rax, 1632(%rbx)
	leaq	48(%r12), %rax
	movq	%rax, %rcx
	shrq	$3, %rcx
	addq	%rcx, %rax
	movq	%rax, %rcx
	movq	%rax, %rsi
	shrq	$2, %rsi
	salq	$6, %rcx
	addq	%rsi, %rcx
	movl	$2654435769, %esi
	addq	%rsi, %rcx
	addq	%rdx, %rcx
	movabsq	$1529263757405973191, %rdx
	xorq	%rax, %rcx
	movq	%rcx, %rax
	mulq	%rdx
	shrq	$4, %rdx
	leaq	(%rdx,%rdx,2), %rax
	salq	$6, %rax
	addq	%rax, %rdx
	movq	%rcx, %rax
	subq	%rdx, %rax
	leaq	88(%rbx,%rax,8), %rax
	movq	(%rax), %rbp
	movq	%rax, (%rsp)
	testq	%rbp, %rbp
	je	.L1138
.L1050:
	movq	%rbp, 48(%r12)
	movq	%r13, %rdi
	call	pthread_mutex_unlock@PLT
	movq	40(%rsp), %rax
	xorq	%fs:40, %rax
	jne	.L1139
	addq	$56, %rsp
	.cfi_remember_state
	.cfi_def_cfa_offset 56
	popq	%rbx
	.cfi_def_cfa_offset 48
	popq	%rbp
	.cfi_def_cfa_offset 40
	popq	%r12
	.cfi_def_cfa_offset 32
	popq	%r13
	.cfi_def_cfa_offset 24
	popq	%r14
	.cfi_def_cfa_offset 16
	popq	%r15
	.cfi_def_cfa_offset 8
	ret
	.p2align 4,,10
	.p2align 3
.L1035:
	.cfi_restore_state
	movq	32(%rbx), %rbx
	testq	%rbx, %rbx
	jne	.L1038
.L1034:
	movq	%r15, %rdi
	call	pthread_mutex_unlock@PLT
	movl	$1640, %edi
	movq	48(%r14), %rbx
.LEHB32:
	call	_Znwm@PLT
.LEHE32:
	movq	%rbx, 24(%rax)
	movq	%rax, %rbp
	xorl	%esi, %esi
	movq	$0, 8(%rax)
	leaq	48(%rbp), %r13
	movq	$0, 16(%rax)
	movq	%r13, %rdi
	movq	$0, 32(%rax)
	movq	_ZTVN4asio6detail14strand_serviceE@GOTPCREL(%rip), %rax
	addq	$16, %rax
	movq	%rax, 0(%rbp)
	movq	8(%rbx), %rax
	movq	%rax, 40(%rbp)
	call	pthread_mutex_init@PLT
	movl	%eax, %ebx
	movq	_ZGVZN4asio15system_categoryEvE8instance@GOTPCREL(%rip), %rax
	movzbl	(%rax), %eax
	testb	%al, %al
	je	.L1039
.L1132:
	movq	_ZZN4asio15system_categoryEvE8instance@GOTPCREL(%rip), %rsi
.L1040:
	testl	%ebx, %ebx
	jne	.L1125
	leaq	88(%rbp), %rax
	leaq	1624(%rbp), %rdx
	pxor	%xmm0, %xmm0
	.p2align 4,,10
	.p2align 3
.L1043:
	movups	%xmm0, (%rax)
	addq	$16, %rax
	cmpq	%rax, %rdx
	jne	.L1043
	movq	_ZTIN4asio6detail14typeid_wrapperINS0_14strand_serviceEEE@GOTPCREL(%rip), %rax
	movq	$0, 16(%rbp)
	movq	%r15, %rdi
	movq	$0, 1624(%rbp)
	movq	$0, 1632(%rbp)
	movq	%rax, 8(%rbp)
	call	pthread_mutex_lock@PLT
	movq	56(%r14), %rdx
	testq	%rdx, %rdx
	je	.L1044
	movq	%rdx, %rbx
.L1045:
	movq	8(%rbx), %rax
	testq	%rax, %rax
	je	.L1048
	movq	8(%rax), %rdi
	movq	_ZTSN4asio6detail14typeid_wrapperINS0_14strand_serviceEEE@GOTPCREL(%rip), %rsi
	cmpq	%rsi, %rdi
	je	.L1049
	cmpb	$42, (%rdi)
	je	.L1048
	movq	%rdx, (%rsp)
	call	strcmp@PLT
	movq	(%rsp), %rdx
	testl	%eax, %eax
	jne	.L1048
.L1049:
	movq	0(%rbp), %rax
	movq	%rbp, %rdi
	call	*8(%rax)
	jmp	.L1134
	.p2align 4,,10
	.p2align 3
.L1033:
	addl	$1, 8(%rax)
	jmp	.L1032
	.p2align 4,,10
	.p2align 3
.L1048:
	movq	32(%rbx), %rbx
	testq	%rbx, %rbx
	jne	.L1045
	.p2align 4,,10
	.p2align 3
.L1044:
	movq	%rdx, 32(%rbp)
	movq	%rbp, %rbx
	movq	%rbp, 56(%r14)
	jmp	.L1037
	.p2align 4,,10
	.p2align 3
.L1138:
	movl	$104, %edi
.LEHB33:
	call	_Znwm@PLT
.LEHE33:
	movq	$0, (%rax)
	movq	%rax, %rbp
	xorl	%esi, %esi
	movq	_ZN4asio6detail14strand_service11do_completeEPNS0_15task_io_serviceEPNS0_25task_io_service_operationERKSt10error_codem@GOTPCREL(%rip), %rax
	movl	$0, 16(%rbp)
	leaq	24(%rbp), %rdi
	movq	%rax, 8(%rbp)
	call	pthread_mutex_init@PLT
	movq	_ZGVZN4asio15system_categoryEvE8instance@GOTPCREL(%rip), %r15
	movl	%eax, %ebx
	movzbl	(%r15), %eax
	testb	%al, %al
	je	.L1051
.L1135:
	movq	_ZZN4asio15system_categoryEvE8instance@GOTPCREL(%rip), %rsi
.L1052:
	testl	%ebx, %ebx
	jne	.L1126
	movq	(%rsp), %rax
	pxor	%xmm0, %xmm0
	movb	$0, 64(%rbp)
	movups	%xmm0, 72(%rbp)
	movq	(%rax), %r14
	movups	%xmm0, 88(%rbp)
	testq	%r14, %r14
	je	.L1055
	movq	88(%r14), %rsi
	testq	%rsi, %rsi
	je	.L1060
	movq	%rsi, 8(%rsp)
	leaq	16(%rsp), %rbx
	call	_ZNSt3_V215system_categoryEv@PLT
	movq	8(%rsp), %rsi
	movq	%rax, %r15
	jmp	.L1062
	.p2align 4,,10
	.p2align 3
.L1059:
	movq	$0, (%rsi)
	movq	8(%rsi), %rax
	xorl	%ecx, %ecx
	movq	%rbx, %rdx
	movl	$0, 16(%rsp)
	xorl	%edi, %edi
	movq	%r15, 24(%rsp)
	call	*%rax
	movq	88(%r14), %rsi
	testq	%rsi, %rsi
	je	.L1060
.L1062:
	movq	(%rsi), %rax
	movq	%rax, 88(%r14)
	testq	%rax, %rax
	jne	.L1059
	movq	$0, 96(%r14)
	jmp	.L1059
	.p2align 4,,10
	.p2align 3
.L1057:
	leaq	24(%r14), %rdi
	call	pthread_mutex_destroy@PLT
	movl	$104, %esi
	movq	%r14, %rdi
	call	_ZdlPvm@PLT
.L1055:
	movq	(%rsp), %rax
	movq	%rbp, (%rax)
	jmp	.L1050
	.p2align 4,,10
	.p2align 3
.L1039:
	movq	_ZGVZN4asio15system_categoryEvE8instance@GOTPCREL(%rip), %rdi
	call	__cxa_guard_acquire@PLT
	testl	%eax, %eax
	je	.L1132
	movq	_ZZN4asio15system_categoryEvE8instance@GOTPCREL(%rip), %rsi
	movq	_ZN4asio6detail15system_categoryD1Ev@GOTPCREL(%rip), %rdi
	leaq	__dso_handle(%rip), %rdx
	movq	%rsi, (%rsp)
	call	__cxa_atexit@PLT
	movq	_ZGVZN4asio15system_categoryEvE8instance@GOTPCREL(%rip), %rdi
	call	__cxa_guard_release@PLT
	movq	(%rsp), %rsi
	jmp	.L1040
	.p2align 4,,10
	.p2align 3
.L1060:
	movq	72(%r14), %rsi
	testq	%rsi, %rsi
	je	.L1057
	movq	%rsi, 8(%rsp)
	leaq	16(%rsp), %rbx
	call	_ZNSt3_V215system_categoryEv@PLT
	movq	8(%rsp), %rsi
	movq	%rax, %r15
	jmp	.L1065
	.p2align 4,,10
	.p2align 3
.L1063:
	movq	$0, (%rsi)
	movq	8(%rsi), %rax
	xorl	%ecx, %ecx
	movq	%rbx, %rdx
	movl	$0, 16(%rsp)
	xorl	%edi, %edi
	movq	%r15, 24(%rsp)
	call	*%rax
	movq	72(%r14), %rsi
	testq	%rsi, %rsi
	je	.L1057
.L1065:
	movq	(%rsi), %rax
	movq	%rax, 72(%r14)
	testq	%rax, %rax
	jne	.L1063
	movq	$0, 80(%r14)
	jmp	.L1063
	.p2align 4,,10
	.p2align 3
.L1051:
	movq	%r15, %rdi
	call	__cxa_guard_acquire@PLT
	testl	%eax, %eax
	je	.L1135
	movq	_ZZN4asio15system_categoryEvE8instance@GOTPCREL(%rip), %rsi
	movq	_ZN4asio6detail15system_categoryD1Ev@GOTPCREL(%rip), %rdi
	leaq	__dso_handle(%rip), %rdx
	movq	%rsi, 8(%rsp)
	call	__cxa_atexit@PLT
	movq	%r15, %rdi
	call	__cxa_guard_release@PLT
	movq	8(%rsp), %rsi
	jmp	.L1052
.L1139:
	call	__stack_chk_fail@PLT
.L1077:
	endbr64
	movq	%rax, %rbp
	jmp	.L1067
.L1075:
	endbr64
	movq	%rax, %rbp
	jmp	.L1047
	.section	.gcc_except_table
.LLSDA6868:
	.byte	0xff
	.byte	0xff
	.byte	0x1
	.uleb128 .LLSDACSE6868-.LLSDACSB6868
.LLSDACSB6868:
	.uleb128 .LEHB32-.LFB6868
	.uleb128 .LEHE32-.LEHB32
	.uleb128 .L1075-.LFB6868
	.uleb128 0
	.uleb128 .LEHB33-.LFB6868
	.uleb128 .LEHE33-.LEHB33
	.uleb128 .L1077-.LFB6868
	.uleb128 0
.LLSDACSE6868:
	.text
	.cfi_endproc
	.section	.text.unlikely
	.cfi_startproc
	.cfi_personality 0x9b,DW.ref.__gxx_personality_v0
	.cfi_lsda 0x1b,.LLSDAC6868
	.type	_ZN7asiopal8ExecutorC2ERKSt10shared_ptrINS_2IOEE.cold, @function
_ZN7asiopal8ExecutorC2ERKSt10shared_ptrINS_2IOEE.cold:
.LFSB6868:
.L1126:
	.cfi_def_cfa_offset 112
	.cfi_offset 3, -56
	.cfi_offset 6, -48
	.cfi_offset 12, -40
	.cfi_offset 13, -32
	.cfi_offset 14, -24
	.cfi_offset 15, -16
	movl	%ebx, %edi
.LEHB34:
	call	_ZN4asio6detail14do_throw_errorERKSt10error_codePKc.isra.0.constprop.0
.LEHE34:
.L1078:
	endbr64
	movq	%rax, %rbx
	movq	%rbp, %rdi
	movl	$104, %esi
	call	_ZdlPvm@PLT
	movq	%rbx, %rbp
.L1067:
	movq	%r13, %rdi
	call	pthread_mutex_unlock@PLT
.L1047:
	movq	32(%r12), %rdi
	testq	%rdi, %rdi
	je	.L1068
	call	_ZNSt16_Sp_counted_baseILN9__gnu_cxx12_Lock_policyE2EE10_M_releaseEv@PLT
.L1068:
	movq	16(%r12), %rdi
	testq	%rdi, %rdi
	je	.L1070
	cmpq	$0, _ZL28__gthrw___pthread_key_createPjPFvPvE@GOTPCREL(%rip)
	leaq	12(%rdi), %rdx
	je	.L1071
	orl	$-1, %eax
	lock xaddl	%eax, (%rdx)
.L1072:
	subl	$1, %eax
	jne	.L1070
	movq	(%rdi), %rax
	call	*24(%rax)
.L1070:
	movq	%rbp, %rdi
.LEHB35:
	call	_Unwind_Resume@PLT
.LEHE35:
.L1125:
	movl	%ebx, %ecx
	movl	%ecx, %edi
.LEHB36:
	call	_ZN4asio6detail14do_throw_errorERKSt10error_codePKc.isra.0.constprop.0
.LEHE36:
.L1076:
	endbr64
	movq	%rax, %rbx
	movq	%rbp, %rdi
	movl	$1640, %esi
	call	_ZdlPvm@PLT
	movq	%rbx, %rbp
	jmp	.L1047
.L1071:
	movl	12(%rdi), %eax
	leal	-1(%rax), %edx
	movl	%edx, 12(%rdi)
	jmp	.L1072
	.cfi_endproc
.LFE6868:
	.section	.gcc_except_table
.LLSDAC6868:
	.byte	0xff
	.byte	0xff
	.byte	0x1
	.uleb128 .LLSDACSEC6868-.LLSDACSBC6868
.LLSDACSBC6868:
	.uleb128 .LEHB34-.LCOLDB29
	.uleb128 .LEHE34-.LEHB34
	.uleb128 .L1078-.LCOLDB29
	.uleb128 0
	.uleb128 .LEHB35-.LCOLDB29
	.uleb128 .LEHE35-.LEHB35
	.uleb128 0
	.uleb128 0
	.uleb128 .LEHB36-.LCOLDB29
	.uleb128 .LEHE36-.LEHB36
	.uleb128 .L1076-.LCOLDB29
	.uleb128 0
.LLSDACSEC6868:
	.section	.text.unlikely
	.text
	.size	_ZN7asiopal8ExecutorC2ERKSt10shared_ptrINS_2IOEE, .-_ZN7asiopal8ExecutorC2ERKSt10shared_ptrINS_2IOEE
	.section	.text.unlikely
	.size	_ZN7asiopal8ExecutorC2ERKSt10shared_ptrINS_2IOEE.cold, .-_ZN7asiopal8ExecutorC2ERKSt10shared_ptrINS_2IOEE.cold
.LCOLDE29:
	.text
.LHOTE29:
	.globl	_ZN7asiopal8ExecutorC1ERKSt10shared_ptrINS_2IOEE
	.set	_ZN7asiopal8ExecutorC1ERKSt10shared_ptrINS_2IOEE,_ZN7asiopal8ExecutorC2ERKSt10shared_ptrINS_2IOEE
	.section	.text.unlikely
	.align 2
.LCOLDB30:
	.text
.LHOTB30:
	.align 2
	.p2align 4
	.globl	_ZN7asiopal8Executor10BlockUntilERKSt8functionIFvvEE
	.type	_ZN7asiopal8Executor10BlockUntilERKSt8functionIFvvEE, @function
_ZN7asiopal8Executor10BlockUntilERKSt8functionIFvvEE:
.LFB6930:
	.cfi_startproc
	.cfi_personality 0x9b,DW.ref.__gxx_personality_v0
	.cfi_lsda 0x1b,.LLSDA6930
	endbr64
	pushq	%r15
	.cfi_def_cfa_offset 16
	.cfi_offset 15, -16
	pushq	%r14
	.cfi_def_cfa_offset 24
	.cfi_offset 14, -24
	pushq	%r13
	.cfi_def_cfa_offset 32
	.cfi_offset 13, -32
	pushq	%r12
	.cfi_def_cfa_offset 40
	.cfi_offset 12, -40
	pushq	%rbp
	.cfi_def_cfa_offset 48
	.cfi_offset 6, -48
	movq	%rdi, %rbp
	pushq	%rbx
	.cfi_def_cfa_offset 56
	.cfi_offset 3, -56
	movq	%rsi, %rbx
	subq	$232, %rsp
	.cfi_def_cfa_offset 288
	movq	48(%rdi), %r12
	movq	%fs:40, %rax
	movq	%rax, 216(%rsp)
	xorl	%eax, %eax
	data16	leaq	_ZN4asio6detail15keyword_tss_ptrINS0_10call_stackINS0_14strand_service11strand_implEhE7contextEE6value_E@tlsgd(%rip), %rdi
	.value	0x6666
	rex64
	call	__tls_get_addr@PLT
	movq	(%rax), %rax
	testq	%rax, %rax
	jne	.L1144
	jmp	.L1141
	.p2align 4,,10
	.p2align 3
.L1142:
	movq	16(%rax), %rax
	testq	%rax, %rax
	je	.L1141
.L1144:
	cmpq	(%rax), %r12
	jne	.L1142
	cmpq	$0, 8(%rax)
	je	.L1141
	cmpq	$0, 16(%rbx)
	je	.L1276
	movq	%rbx, %rdi
.LEHB37:
	call	*24(%rbx)
.L1140:
	movq	216(%rsp), %rax
	xorq	%fs:40, %rax
	jne	.L1277
	addq	$232, %rsp
	.cfi_remember_state
	.cfi_def_cfa_offset 56
	popq	%rbx
	.cfi_def_cfa_offset 48
	popq	%rbp
	.cfi_def_cfa_offset 40
	popq	%r12
	.cfi_def_cfa_offset 32
	popq	%r13
	.cfi_def_cfa_offset 24
	popq	%r14
	.cfi_def_cfa_offset 16
	popq	%r15
	.cfi_def_cfa_offset 8
	ret
	.p2align 4,,10
	.p2align 3
.L1141:
	.cfi_restore_state
	movq	$0, 48(%rsp)
	movl	$48, %edi
	call	_Znwm@PLT
.LEHE37:
	movq	_ZTVSt23_Sp_counted_ptr_inplaceINSt13__future_base13_State_baseV2ESaIS1_ELN9__gnu_cxx12_Lock_policyE2EE@GOTPCREL(%rip), %rdx
	movl	$24, %edi
	movabsq	$4294967297, %rcx
	movq	%rcx, 8(%rax)
	addq	$16, %rdx
	movq	$0, 24(%rax)
	movq	%rdx, (%rax)
	movq	_ZTVNSt13__future_base13_State_baseV2E@GOTPCREL(%rip), %rdx
	movl	$0, 32(%rax)
	addq	$16, %rdx
	movb	$0, 36(%rax)
	movq	%rdx, 16(%rax)
	movl	$0, 40(%rax)
	movq	%rax, 56(%rsp)
	addq	$16, %rax
	movq	%rax, 48(%rsp)
.LEHB38:
	call	_Znwm@PLT
.LEHE38:
	movq	%rax, %rdi
	movq	%rax, %r12
	call	_ZNSt13__future_base12_Result_baseC2Ev@PLT
	movq	56(%rsp), %r13
	movb	$0, 17(%r12)
	movq	_ZTVNSt13__future_base7_ResultIbEE@GOTPCREL(%rip), %rax
	movq	%r12, 64(%rsp)
	addq	$16, %rax
	movq	%rax, (%r12)
	movq	48(%rsp), %r12
	testq	%r13, %r13
	je	.L1148
	cmpq	$0, _ZL28__gthrw___pthread_key_createPjPFvPvE@GOTPCREL(%rip)
	je	.L1151
	lock addl	$1, 8(%r13)
.L1148:
	testq	%r12, %r12
	je	.L1278
	movl	$1, %eax
	xchgb	20(%r12), %al
	testb	%al, %al
	jne	.L1279
	movq	40(%rbp), %rax
	leaq	80(%rsp), %r15
	leaq	48(%rsp), %r14
	movq	%rbx, 80(%rsp)
	movq	%r15, %rdi
	movq	%r14, 88(%rsp)
	movq	%rax, 16(%rsp)
	xorl	%eax, %eax
	call	_ZN4asio28asio_handler_is_continuationEz@PLT
	movb	%al, 31(%rsp)
	data16	leaq	_ZN4asio6detail15keyword_tss_ptrINS0_10call_stackINS0_15task_io_serviceENS0_27task_io_service_thread_infoEE7contextEE6value_E@tlsgd(%rip), %rdi
	.value	0x6666
	rex64
	call	__tls_get_addr@PLT
	movq	(%rax), %rax
	testq	%rax, %rax
	je	.L1157
	movq	8(%rax), %rax
	testq	%rax, %rax
	je	.L1157
	movq	(%rax), %r8
	testq	%r8, %r8
	je	.L1157
	movq	$0, (%rax)
	movzbl	(%r8), %eax
	cmpb	$39, %al
	jbe	.L1158
	movb	%al, 40(%r8)
.L1159:
	leaq	_ZN4asio6detail18completion_handlerIZN7asiopal8Executor10BlockUntilERKSt8functionIFvvEEEUlvE_E11do_completeEPNS0_15task_io_serviceEPNS0_25task_io_service_operationERKSt10error_codem(%rip), %rax
	movq	$0, (%r8)
	movq	%rax, 8(%r8)
	movq	48(%rbp), %rax
	movl	$0, 16(%r8)
	movq	%rbx, 24(%r8)
	leaq	24(%rax), %rdi
	movq	%r14, 32(%r8)
	movq	%r8, 8(%rsp)
	call	pthread_mutex_lock@PLT
	movq	48(%rbp), %rax
	movq	8(%rsp), %r8
	cmpb	$0, 64(%rax)
	je	.L1160
	cmpq	$0, 80(%rax)
	movq	$0, (%r8)
	je	.L1161
	movq	80(%rax), %rdx
	movq	%r8, (%rdx)
	movq	%r8, 80(%rax)
.L1162:
	leaq	24(%rax), %rdi
	call	pthread_mutex_unlock@PLT
.L1163:
	movq	(%r12), %rax
	movq	%r12, %rdi
.LEHB39:
	call	*16(%rax)
	movl	16(%r12), %edx
	leaq	16(%r12), %rbx
	andl	$2147483647, %edx
	jmp	.L1273
	.p2align 4,,10
	.p2align 3
.L1280:
	lock orl	$-2147483648, (%rbx)
	xorl	%r9d, %r9d
	xorl	%r8d, %r8d
	xorl	%ecx, %ecx
	orl	$-2147483648, %edx
	movq	%rbx, %rsi
	movq	%rbx, %rdi
	call	_ZNSt28__atomic_futex_unsigned_base19_M_futex_wait_untilEPjjbNSt6chrono8durationIlSt5ratioILl1ELl1EEEENS2_IlS3_ILl1ELl1000000000EEEE@PLT
.LEHE39:
	movl	(%rbx), %edx
	andl	$2147483647, %edx
	cmpb	$1, %al
	jne	.L1177
.L1273:
	cmpl	$1, %edx
	jne	.L1280
.L1177:
	testq	%r13, %r13
	je	.L1181
	movq	_ZL28__gthrw___pthread_key_createPjPFvPvE@GOTPCREL(%rip), %rbx
	testq	%rbx, %rbx
	je	.L1182
	movl	$-1, %eax
	lock xaddl	%eax, 8(%r13)
.L1183:
	cmpl	$1, %eax
	jne	.L1181
	movq	0(%r13), %rax
	movq	%r13, %rdi
	call	*16(%rax)
	testq	%rbx, %rbx
	je	.L1185
	movl	$-1, %eax
	lock xaddl	%eax, 12(%r13)
.L1186:
	cmpl	$1, %eax
	jne	.L1181
	movq	0(%r13), %rax
	movq	%r13, %rdi
	call	*24(%rax)
	.p2align 4,,10
	.p2align 3
.L1181:
	movq	48(%rsp), %rbx
	testq	%rbx, %rbx
	je	.L1274
	movq	56(%rsp), %rax
	testq	%rax, %rax
	je	.L1189
	movl	8(%rax), %eax
	cmpl	$1, %eax
	je	.L1274
.L1189:
	movq	64(%rsp), %rbp
	movq	$0, 64(%rsp)
	testq	%rbp, %rbp
	je	.L1191
	call	_ZSt15future_categoryv@PLT
	leaq	144(%rsp), %r13
	movl	$4, %edx
	movq	%rax, %r12
	movq	(%rax), %rax
	movq	%r13, %rdi
	movq	%r12, %rsi
	call	*32(%rax)
	movl	$19, %r8d
	xorl	%edx, %edx
	xorl	%esi, %esi
	leaq	.LC28(%rip), %rcx
	movq	%r13, %rdi
.LEHB40:
	call	_ZNSt7__cxx1112basic_stringIcSt11char_traitsIcESaIcEE10_M_replaceEmmPKcm@PLT
.LEHE40:
	leaq	192(%rsp), %r14
	leaq	16(%rax), %rdx
	movq	%r14, 176(%rsp)
	movq	(%rax), %rcx
	cmpq	%rdx, %rcx
	je	.L1281
	movq	%rcx, 176(%rsp)
	movq	16(%rax), %rcx
	movq	%rcx, 192(%rsp)
.L1193:
	movq	8(%rax), %rcx
	movb	$0, 16(%rax)
	leaq	112(%rsp), %r13
	leaq	176(%rsp), %rsi
	movq	%r13, %rdi
	movq	%rcx, 184(%rsp)
	movq	%rdx, (%rax)
	movq	$0, 8(%rax)
.LEHB41:
	call	_ZNSt11logic_errorC2ERKNSt7__cxx1112basic_stringIcSt11char_traitsIcESaIcEEE@PLT
.LEHE41:
	movq	176(%rsp), %rdi
	cmpq	%r14, %rdi
	je	.L1194
	call	_ZdlPv@PLT
.L1194:
	movq	144(%rsp), %rdi
	leaq	160(%rsp), %rax
	cmpq	%rax, %rdi
	je	.L1195
	call	_ZdlPv@PLT
.L1195:
	movq	_ZTVSt12future_error@GOTPCREL(%rip), %rax
	movl	$32, %edi
	movq	%r12, 136(%rsp)
	movl	$4, 128(%rsp)
	leaq	16(%rax), %r14
	movq	%r14, 112(%rsp)
	call	__cxa_allocate_exception@PLT
	movq	_ZNSt15__exception_ptr12__dest_thunkISt12future_errorEEvPv@GOTPCREL(%rip), %rdx
	movq	_ZTISt12future_error@GOTPCREL(%rip), %rsi
	movq	%rax, %r12
	movq	%rax, %rdi
	call	__cxa_init_primary_exception@PLT
	movq	%r13, %rsi
	movq	%r12, %rdi
	call	_ZNSt11logic_errorC2ERKS_@PLT
	movq	%r14, (%r12)
	leaq	32(%rsp), %r14
	movq	%r12, %rsi
	movdqa	128(%rsp), %xmm1
	movq	%r14, %rdi
	movups	%xmm1, 16(%r12)
	call	_ZNSt15__exception_ptr13exception_ptrC1EPv@PLT
	movq	32(%rsp), %rax
	leaq	8(%rbp), %rsi
	movq	%r15, %rdi
	movq	$0, 32(%rsp)
	movq	%rax, 80(%rsp)
	call	_ZNSt15__exception_ptr13exception_ptr4swapERS0_@PLT
	movq	%r15, %rdi
	call	_ZNSt15__exception_ptr13exception_ptrD1Ev@PLT
	movq	%r14, %rdi
	call	_ZNSt15__exception_ptr13exception_ptrD1Ev@PLT
	movq	%r13, %rdi
	call	_ZNSt12future_errorD1Ev@PLT
	movq	8(%rbx), %r12
	leaq	16(%rbx), %rdi
	movl	$1, %eax
	movq	%rbp, 8(%rbx)
	xchgl	(%rdi), %eax
	testl	%eax, %eax
	js	.L1282
.L1197:
	testq	%r12, %r12
	je	.L1274
	movq	(%r12), %rax
	movq	%r12, %rdi
	call	*(%rax)
.L1274:
	movq	64(%rsp), %rbp
	testq	%rbp, %rbp
	je	.L1191
	movq	0(%rbp), %rax
	movq	(%rax), %rdx
	cmpq	_ZNSt13__future_base7_ResultIbE10_M_destroyEv@GOTPCREL(%rip), %rdx
	jne	.L1204
	movq	16(%rax), %rax
	cmpq	_ZNSt13__future_base7_ResultIbED0Ev@GOTPCREL(%rip), %rax
	jne	.L1205
	movq	_ZTVNSt13__future_base7_ResultIbEE@GOTPCREL(%rip), %rax
	movq	%rbp, %rdi
	addq	$16, %rax
	movq	%rax, 0(%rbp)
	call	_ZNSt13__future_base12_Result_baseD2Ev@PLT
	movl	$24, %esi
	movq	%rbp, %rdi
	call	_ZdlPvm@PLT
.L1191:
	movq	56(%rsp), %rbp
	testq	%rbp, %rbp
	je	.L1140
	movq	_ZL28__gthrw___pthread_key_createPjPFvPvE@GOTPCREL(%rip), %rbx
	testq	%rbx, %rbx
	je	.L1208
	movl	$-1, %eax
	lock xaddl	%eax, 8(%rbp)
.L1209:
	cmpl	$1, %eax
	jne	.L1140
	movq	0(%rbp), %rax
	movq	%rbp, %rdi
	call	*16(%rax)
	testq	%rbx, %rbx
	je	.L1211
	movl	$-1, %eax
	lock xaddl	%eax, 12(%rbp)
.L1212:
	cmpl	$1, %eax
	jne	.L1140
	movq	0(%rbp), %rax
	movq	%rbp, %rdi
	call	*24(%rax)
	jmp	.L1140
.L1158:
	movq	%r8, %rdi
	call	_ZdlPv@PLT
.L1157:
	movl	$41, %edi
.LEHB42:
	call	_Znwm@PLT
.LEHE42:
	movb	$40, 40(%rax)
	movq	%rax, %r8
	jmp	.L1159
.L1160:
	movb	$1, 64(%rax)
	leaq	24(%rax), %rdi
	movq	%r8, 8(%rsp)
	call	pthread_mutex_unlock@PLT
	movq	48(%rbp), %rbp
	movq	8(%rsp), %r8
	cmpq	$0, 96(%rbp)
	movq	$0, (%r8)
	je	.L1164
	movq	96(%rbp), %rax
	movq	%r8, (%rax)
	movq	%r8, 96(%rbp)
.L1165:
	movq	16(%rsp), %rax
	movq	40(%rax), %rbx
	cmpb	$0, 40(%rbx)
	jne	.L1221
	cmpb	$0, 31(%rsp)
	je	.L1166
.L1221:
	data16	leaq	_ZN4asio6detail15keyword_tss_ptrINS0_10call_stackINS0_15task_io_serviceENS0_27task_io_service_thread_infoEE7contextEE6value_E@tlsgd(%rip), %rdi
	.value	0x6666
	rex64
	call	__tls_get_addr@PLT
	movq	(%rax), %rax
	testq	%rax, %rax
	jne	.L1170
	jmp	.L1166
	.p2align 4,,10
	.p2align 3
.L1168:
	movq	16(%rax), %rax
	testq	%rax, %rax
	je	.L1166
.L1170:
	cmpq	(%rax), %rbx
	jne	.L1168
	movq	8(%rax), %rax
	testq	%rax, %rax
	je	.L1166
	addq	$1, 24(%rax)
	cmpq	$0, 16(%rax)
	movq	$0, 0(%rbp)
	je	.L1171
	movq	16(%rax), %rdx
	movq	%rbp, (%rdx)
	movq	%rbp, 16(%rax)
	jmp	.L1163
.L1151:
	addl	$1, 8(%r13)
	jmp	.L1148
.L1208:
	movl	8(%rbp), %eax
	leal	-1(%rax), %edx
	movl	%edx, 8(%rbp)
	jmp	.L1209
.L1182:
	movl	8(%r13), %eax
	leal	-1(%rax), %edx
	movl	%edx, 8(%r13)
	jmp	.L1183
.L1164:
	movq	%r8, %xmm0
	punpcklqdq	%xmm0, %xmm0
	movups	%xmm0, 88(%rbp)
	jmp	.L1165
.L1281:
	movdqu	16(%rax), %xmm2
	movaps	%xmm2, 192(%rsp)
	jmp	.L1193
.L1161:
	movq	%r8, %xmm0
	punpcklqdq	%xmm0, %xmm0
	movups	%xmm0, 72(%rax)
	jmp	.L1162
.L1166:
	lock addq	$1, 184(%rbx)
	leaq	48(%rbx), %r8
	movq	%r8, %rdi
	movq	%r8, 8(%rsp)
	call	pthread_mutex_lock@PLT
	cmpq	$0, 200(%rbx)
	movq	8(%rsp), %r8
	movq	$0, 0(%rbp)
	je	.L1172
	movq	200(%rbx), %rax
	movq	%rbp, (%rax)
	movq	%rbp, 200(%rbx)
.L1173:
	movq	136(%rbx), %rax
	orq	$1, %rax
	movq	%rax, 136(%rbx)
	cmpq	$1, %rax
	je	.L1174
	movq	%r8, %rdi
	call	pthread_mutex_unlock@PLT
	leaq	88(%rbx), %rdi
	call	pthread_cond_signal@PLT
	jmp	.L1163
.L1174:
	cmpb	$0, 176(%rbx)
	jne	.L1176
	movq	144(%rbx), %rax
	testq	%rax, %rax
	je	.L1176
	movb	$1, 176(%rbx)
	leaq	88(%rax), %rdx
	leaq	32(%rsp), %rcx
	movl	$3, %esi
	movl	$-2147483639, 32(%rsp)
	movq	%rdx, 36(%rsp)
	movl	88(%rax), %edx
	movl	96(%rax), %edi
	movq	%r8, 8(%rsp)
	call	epoll_ctl@PLT
	movq	8(%rsp), %r8
.L1176:
	movq	%r8, %rdi
	call	pthread_mutex_unlock@PLT
	jmp	.L1163
.L1204:
	movq	%rbp, %rdi
	call	*%rdx
	jmp	.L1191
.L1205:
	movq	%rbp, %rdi
	call	*%rax
	jmp	.L1191
.L1211:
	movl	12(%rbp), %eax
	leal	-1(%rax), %edx
	movl	%edx, 12(%rbp)
	jmp	.L1212
.L1185:
	movl	12(%r13), %eax
	leal	-1(%rax), %edx
	movl	%edx, 12(%r13)
	jmp	.L1186
.L1282:
	call	_ZNSt28__atomic_futex_unsigned_base19_M_futex_notify_allEPj@PLT
	jmp	.L1197
.L1172:
	movq	%rbp, %xmm0
	punpcklqdq	%xmm0, %xmm0
	movups	%xmm0, 192(%rbx)
	jmp	.L1173
.L1171:
	movq	%rbp, %xmm0
	punpcklqdq	%xmm0, %xmm0
	movups	%xmm0, 8(%rax)
	jmp	.L1163
.L1276:
.LEHB43:
	call	_ZSt25__throw_bad_function_callv@PLT
.LEHE43:
.L1279:
	movl	$1, %edi
.LEHB44:
	call	_ZSt20__throw_future_errori@PLT
.L1278:
	movl	$3, %edi
	call	_ZSt20__throw_future_errori@PLT
.LEHE44:
.L1277:
	call	__stack_chk_fail@PLT
.L1218:
	endbr64
	movq	%rax, %rbp
	jmp	.L1149
.L1219:
	endbr64
	jmp	.L1200
.L1216:
	endbr64
	movq	%rax, %rbp
	jmp	.L1213
.L1220:
	endbr64
	jmp	.L1198
.L1217:
	endbr64
	movq	%rax, %rbp
	jmp	.L1154
	.section	.gcc_except_table
.LLSDA6930:
	.byte	0xff
	.byte	0xff
	.byte	0x1
	.uleb128 .LLSDACSE6930-.LLSDACSB6930
.LLSDACSB6930:
	.uleb128 .LEHB37-.LFB6930
	.uleb128 .LEHE37-.LEHB37
	.uleb128 0
	.uleb128 0
	.uleb128 .LEHB38-.LFB6930
	.uleb128 .LEHE38-.LEHB38
	.uleb128 .L1218-.LFB6930
	.uleb128 0
	.uleb128 .LEHB39-.LFB6930
	.uleb128 .LEHE39-.LEHB39
	.uleb128 .L1216-.LFB6930
	.uleb128 0
	.uleb128 .LEHB40-.LFB6930
	.uleb128 .LEHE40-.LEHB40
	.uleb128 .L1219-.LFB6930
	.uleb128 0
	.uleb128 .LEHB41-.LFB6930
	.uleb128 .LEHE41-.LEHB41
	.uleb128 .L1220-.LFB6930
	.uleb128 0
	.uleb128 .LEHB42-.LFB6930
	.uleb128 .LEHE42-.LEHB42
	.uleb128 .L1216-.LFB6930
	.uleb128 0
	.uleb128 .LEHB43-.LFB6930
	.uleb128 .LEHE43-.LEHB43
	.uleb128 0
	.uleb128 0
	.uleb128 .LEHB44-.LFB6930
	.uleb128 .LEHE44-.LEHB44
	.uleb128 .L1217-.LFB6930
	.uleb128 0
.LLSDACSE6930:
	.text
	.cfi_endproc
	.section	.text.unlikely
	.cfi_startproc
	.cfi_personality 0x9b,DW.ref.__gxx_personality_v0
	.cfi_lsda 0x1b,.LLSDAC6930
	.type	_ZN7asiopal8Executor10BlockUntilERKSt8functionIFvvEE.cold, @function
_ZN7asiopal8Executor10BlockUntilERKSt8functionIFvvEE.cold:
.LFSB6930:
.L1149:
	.cfi_def_cfa_offset 288
	.cfi_offset 3, -56
	.cfi_offset 6, -48
	.cfi_offset 12, -40
	.cfi_offset 13, -32
	.cfi_offset 14, -24
	.cfi_offset 15, -16
	movq	56(%rsp), %rdi
	testq	%rdi, %rdi
	je	.L1275
	call	_ZNSt16_Sp_counted_baseILN9__gnu_cxx12_Lock_policyE2EE10_M_releaseEv@PLT
	jmp	.L1275
.L1198:
	movq	176(%rsp), %rdi
	cmpq	%r14, %rdi
	je	.L1200
	call	_ZdlPv@PLT
.L1200:
	movq	144(%rsp), %rdi
	leaq	160(%rsp), %rax
	cmpq	%rax, %rdi
	je	.L1201
	call	_ZdlPv@PLT
.L1201:
	call	_ZSt9terminatev@PLT
.L1213:
	testq	%r13, %r13
	jne	.L1283
.L1156:
	movq	%r14, %rdi
	call	_ZNSt7promiseIbED1Ev@PLT
.L1275:
	movq	%rbp, %rdi
.LEHB45:
	call	_Unwind_Resume@PLT
.LEHE45:
.L1154:
	testq	%r13, %r13
	je	.L1155
	movq	%r13, %rdi
	call	_ZNSt16_Sp_counted_baseILN9__gnu_cxx12_Lock_policyE2EE10_M_releaseEv@PLT
.L1155:
	leaq	48(%rsp), %r14
	jmp	.L1156
.L1283:
	movq	%r13, %rdi
	call	_ZNSt16_Sp_counted_baseILN9__gnu_cxx12_Lock_policyE2EE10_M_releaseEv@PLT
	jmp	.L1156
	.cfi_endproc
.LFE6930:
	.section	.gcc_except_table
.LLSDAC6930:
	.byte	0xff
	.byte	0xff
	.byte	0x1
	.uleb128 .LLSDACSEC6930-.LLSDACSBC6930
.LLSDACSBC6930:
	.uleb128 .LEHB45-.LCOLDB30
	.uleb128 .LEHE45-.LEHB45
	.uleb128 0
	.uleb128 0
.LLSDACSEC6930:
	.section	.text.unlikely
	.text
	.size	_ZN7asiopal8Executor10BlockUntilERKSt8functionIFvvEE, .-_ZN7asiopal8Executor10BlockUntilERKSt8functionIFvvEE
	.section	.text.unlikely
	.size	_ZN7asiopal8Executor10BlockUntilERKSt8functionIFvvEE.cold, .-_ZN7asiopal8Executor10BlockUntilERKSt8functionIFvvEE.cold
.LCOLDE30:
	.text
.LHOTE30:
	.section	.text.unlikely
	.align 2
.LCOLDB31:
	.text
.LHOTB31:
	.align 2
	.p2align 4
	.globl	_ZN7asiopal8Executor18BlockUntilAndFlushERKSt8functionIFvvEE
	.type	_ZN7asiopal8Executor18BlockUntilAndFlushERKSt8functionIFvvEE, @function
_ZN7asiopal8Executor18BlockUntilAndFlushERKSt8functionIFvvEE:
.LFB6940:
	.cfi_startproc
	.cfi_personality 0x9b,DW.ref.__gxx_personality_v0
	.cfi_lsda 0x1b,.LLSDA6940
	endbr64
	pushq	%r12
	.cfi_def_cfa_offset 16
	.cfi_offset 12, -16
	pushq	%rbp
	.cfi_def_cfa_offset 24
	.cfi_offset 6, -24
	movq	%rdi, %rbp
	subq	$56, %rsp
	.cfi_def_cfa_offset 80
	movq	%fs:40, %rax
	movq	%rax, 40(%rsp)
	xorl	%eax, %eax
	movq	%rsp, %r12
.LEHB46:
	call	_ZN7asiopal8Executor10BlockUntilERKSt8functionIFvvEE@PLT
.LEHE46:
	leaq	_ZNSt17_Function_handlerIFvvEZN7asiopal8Executor18BlockUntilAndFlushERKSt8functionIS0_EEUlvE_E9_M_invokeERKSt9_Any_data(%rip), %rax
	movq	%r12, %rsi
	movq	%rbp, %rdi
	leaq	_ZNSt14_Function_base13_Base_managerIZN7asiopal8Executor18BlockUntilAndFlushERKSt8functionIFvvEEEUlvE_E10_M_managerERSt9_Any_dataRKSA_St18_Manager_operation(%rip), %rcx
	movq	%rax, %xmm1
	movq	%rcx, %xmm0
	punpcklqdq	%xmm1, %xmm0
	movaps	%xmm0, 16(%rsp)
.LEHB47:
	call	_ZN7asiopal8Executor10BlockUntilERKSt8functionIFvvEE@PLT
.LEHE47:
	movq	16(%rsp), %rax
	testq	%rax, %rax
	je	.L1284
	movl	$3, %edx
	movq	%r12, %rsi
	movq	%r12, %rdi
	call	*%rax
.L1284:
	movq	40(%rsp), %rax
	xorq	%fs:40, %rax
	jne	.L1297
	addq	$56, %rsp
	.cfi_remember_state
	.cfi_def_cfa_offset 24
	popq	%rbp
	.cfi_def_cfa_offset 16
	popq	%r12
	.cfi_def_cfa_offset 8
	ret
.L1297:
	.cfi_restore_state
	call	__stack_chk_fail@PLT
.L1289:
	endbr64
	movq	%rax, %rbp
	jmp	.L1286
	.section	.gcc_except_table
.LLSDA6940:
	.byte	0xff
	.byte	0xff
	.byte	0x1
	.uleb128 .LLSDACSE6940-.LLSDACSB6940
.LLSDACSB6940:
	.uleb128 .LEHB46-.LFB6940
	.uleb128 .LEHE46-.LEHB46
	.uleb128 0
	.uleb128 0
	.uleb128 .LEHB47-.LFB6940
	.uleb128 .LEHE47-.LEHB47
	.uleb128 .L1289-.LFB6940
	.uleb128 0
.LLSDACSE6940:
	.text
	.cfi_endproc
	.section	.text.unlikely
	.cfi_startproc
	.cfi_personality 0x9b,DW.ref.__gxx_personality_v0
	.cfi_lsda 0x1b,.LLSDAC6940
	.type	_ZN7asiopal8Executor18BlockUntilAndFlushERKSt8functionIFvvEE.cold, @function
_ZN7asiopal8Executor18BlockUntilAndFlushERKSt8functionIFvvEE.cold:
.LFSB6940:
.L1286:
	.cfi_def_cfa_offset 80
	.cfi_offset 6, -24
	.cfi_offset 12, -16
	movq	16(%rsp), %rax
	testq	%rax, %rax
	je	.L1287
	movl	$3, %edx
	movq	%r12, %rsi
	movq	%r12, %rdi
	call	*%rax
.L1287:
	movq	%rbp, %rdi
.LEHB48:
	call	_Unwind_Resume@PLT
.LEHE48:
	.cfi_endproc
.LFE6940:
	.section	.gcc_except_table
.LLSDAC6940:
	.byte	0xff
	.byte	0xff
	.byte	0x1
	.uleb128 .LLSDACSEC6940-.LLSDACSBC6940
.LLSDACSBC6940:
	.uleb128 .LEHB48-.LCOLDB31
	.uleb128 .LEHE48-.LEHB48
	.uleb128 0
	.uleb128 0
.LLSDACSEC6940:
	.section	.text.unlikely
	.text
	.size	_ZN7asiopal8Executor18BlockUntilAndFlushERKSt8functionIFvvEE, .-_ZN7asiopal8Executor18BlockUntilAndFlushERKSt8functionIFvvEE
	.section	.text.unlikely
	.size	_ZN7asiopal8Executor18BlockUntilAndFlushERKSt8functionIFvvEE.cold, .-_ZN7asiopal8Executor18BlockUntilAndFlushERKSt8functionIFvvEE.cold
.LCOLDE31:
	.text
.LHOTE31:
	.section	.text.unlikely
.LCOLDB32:
	.text
.LHOTB32:
	.p2align 4
	.type	_ZN4asio6detail18completion_handlerINS0_7binder1IZN7asiopal8Executor5StartERKNSt6chrono10time_pointINS5_3_V212steady_clockENS5_8durationIlSt5ratioILl1ELl1000000000EEEEEERKSt8functionIFvvEEEUlRKSt10error_codeE_SL_EEE11do_completeEPNS0_15task_io_serviceEPNS0_25task_io_service_operationESN_m, @function
_ZN4asio6detail18completion_handlerINS0_7binder1IZN7asiopal8Executor5StartERKNSt6chrono10time_pointINS5_3_V212steady_clockENS5_8durationIlSt5ratioILl1ELl1000000000EEEEEERKSt8functionIFvvEEEUlRKSt10error_codeE_SL_EEE11do_completeEPNS0_15task_io_serviceEPNS0_25task_io_service_operationESN_m:
.LFB9223:
	.cfi_startproc
	.cfi_personality 0x9b,DW.ref.__gxx_personality_v0
	.cfi_lsda 0x1b,.LLSDA9223
	endbr64
	pushq	%r15
	.cfi_def_cfa_offset 16
	.cfi_offset 15, -16
	pxor	%xmm0, %xmm0
	pushq	%r14
	.cfi_def_cfa_offset 24
	.cfi_offset 14, -24
	pushq	%r13
	.cfi_def_cfa_offset 32
	.cfi_offset 13, -32
	pushq	%r12
	.cfi_def_cfa_offset 40
	.cfi_offset 12, -40
	pushq	%rbp
	.cfi_def_cfa_offset 48
	.cfi_offset 6, -48
	movq	%rdi, %rbp
	pushq	%rbx
	.cfi_def_cfa_offset 56
	.cfi_offset 3, -56
	movq	%rsi, %rbx
	subq	$136, %rsp
	.cfi_def_cfa_offset 192
	movdqu	24(%rsi), %xmm1
	movq	%fs:40, %rax
	movq	%rax, 120(%rsp)
	xorl	%eax, %eax
	leaq	24(%rsi), %rax
	movq	%rsi, 8(%rsp)
	movq	%rax, (%rsp)
	movq	56(%rsi), %rax
	movq	%rsi, 16(%rsp)
	movq	$0, 64(%rsp)
	movaps	%xmm1, 32(%rsp)
	movups	%xmm0, 24(%rsi)
	testq	%rax, %rax
	je	.L1299
	leaq	48(%rsp), %r12
	leaq	40(%rsi), %rsi
	movl	$2, %edx
	movq	%r12, %rdi
.LEHB49:
	call	*%rax
.LEHE49:
	movdqu	72(%rbx), %xmm3
	movdqu	56(%rbx), %xmm2
	pxor	%xmm0, %xmm0
	leaq	32(%rsp), %r13
	movdqu	88(%rbx), %xmm4
	movq	16(%rsp), %r12
	movq	%r13, (%rsp)
	movaps	%xmm2, 64(%rsp)
	movaps	%xmm3, 80(%rsp)
	movups	%xmm0, 72(%rbx)
	movaps	%xmm4, 96(%rsp)
	testq	%r12, %r12
	jne	.L1300
.L1301:
	movq	8(%rsp), %r12
	testq	%r12, %r12
	je	.L1321
	data16	leaq	_ZN4asio6detail15keyword_tss_ptrINS0_10call_stackINS0_15task_io_serviceENS0_27task_io_service_thread_infoEE7contextEE6value_E@tlsgd(%rip), %rdi
	.value	0x6666
	rex64
	call	__tls_get_addr@PLT
	movq	(%rax), %rax
	testq	%rax, %rax
	je	.L1322
	movq	8(%rax), %rax
	testq	%rax, %rax
	je	.L1322
	cmpq	$0, (%rax)
	je	.L1404
.L1322:
	movq	%r12, %rdi
	call	_ZdlPv@PLT
.L1323:
	movq	$0, 8(%rsp)
.L1321:
	testq	%rbp, %rbp
	je	.L1324
	movl	96(%rsp), %eax
	testl	%eax, %eax
	je	.L1405
.L1325:
	sfence
.L1324:
	movq	88(%rsp), %rbp
	testq	%rbp, %rbp
	je	.L1328
	movq	_ZL28__gthrw___pthread_key_createPjPFvPvE@GOTPCREL(%rip), %r15
	testq	%r15, %r15
	je	.L1329
	movl	$-1, %eax
	lock xaddl	%eax, 8(%rbp)
	cmpl	$1, %eax
	je	.L1406
	.p2align 4,,10
	.p2align 3
.L1328:
	movq	64(%rsp), %rax
	testq	%rax, %rax
	je	.L1334
	leaq	48(%rsp), %rdi
	movl	$3, %edx
	movq	%rdi, %rsi
	call	*%rax
.L1334:
	movq	40(%rsp), %rbp
	testq	%rbp, %rbp
	je	.L1336
	movq	_ZL28__gthrw___pthread_key_createPjPFvPvE@GOTPCREL(%rip), %r15
	testq	%r15, %r15
	je	.L1337
	movl	$-1, %eax
	lock xaddl	%eax, 8(%rbp)
	cmpl	$1, %eax
	je	.L1407
	.p2align 4,,10
	.p2align 3
.L1336:
	movq	16(%rsp), %rbx
	testq	%rbx, %rbx
	je	.L1342
	movq	80(%rbx), %rbp
	testq	%rbp, %rbp
	je	.L1344
	movq	_ZL28__gthrw___pthread_key_createPjPFvPvE@GOTPCREL(%rip), %r15
	testq	%r15, %r15
	je	.L1345
	movl	$-1, %eax
	lock xaddl	%eax, 8(%rbp)
.L1346:
	cmpl	$1, %eax
	jne	.L1344
	movq	0(%rbp), %rax
	movq	%rbp, %rdi
	call	*16(%rax)
	testq	%r15, %r15
	je	.L1348
	movl	$-1, %eax
	lock xaddl	%eax, 12(%rbp)
.L1349:
	cmpl	$1, %eax
	je	.L1408
	.p2align 4,,10
	.p2align 3
.L1344:
	movq	56(%rbx), %rax
	testq	%rax, %rax
	je	.L1350
	leaq	40(%rbx), %rdi
	movl	$3, %edx
	movq	%rdi, %rsi
	call	*%rax
.L1350:
	movq	32(%rbx), %rbp
	testq	%rbp, %rbp
	je	.L1352
	movq	_ZL28__gthrw___pthread_key_createPjPFvPvE@GOTPCREL(%rip), %r15
	testq	%r15, %r15
	je	.L1353
	movl	$-1, %eax
	lock xaddl	%eax, 8(%rbp)
.L1354:
	cmpl	$1, %eax
	jne	.L1352
	movq	0(%rbp), %rax
	movq	%rbp, %rdi
	call	*16(%rax)
	testq	%r15, %r15
	je	.L1356
	movl	$-1, %eax
	lock xaddl	%eax, 12(%rbp)
.L1357:
	cmpl	$1, %eax
	je	.L1409
	.p2align 4,,10
	.p2align 3
.L1352:
	movq	$0, 16(%rsp)
.L1342:
	movq	8(%rsp), %rbp
	testq	%rbp, %rbp
	je	.L1298
	data16	leaq	_ZN4asio6detail15keyword_tss_ptrINS0_10call_stackINS0_15task_io_serviceENS0_27task_io_service_thread_infoEE7contextEE6value_E@tlsgd(%rip), %rdi
	.value	0x6666
	rex64
	call	__tls_get_addr@PLT
	movq	(%rax), %rax
	testq	%rax, %rax
	je	.L1359
	movq	8(%rax), %rax
	testq	%rax, %rax
	je	.L1359
	cmpq	$0, (%rax)
	je	.L1410
.L1359:
	movq	%rbp, %rdi
	call	_ZdlPv@PLT
.L1298:
	movq	120(%rsp), %rax
	xorq	%fs:40, %rax
	jne	.L1411
	addq	$136, %rsp
	.cfi_remember_state
	.cfi_def_cfa_offset 56
	popq	%rbx
	.cfi_def_cfa_offset 48
	popq	%rbp
	.cfi_def_cfa_offset 40
	popq	%r12
	.cfi_def_cfa_offset 32
	popq	%r13
	.cfi_def_cfa_offset 24
	popq	%r14
	.cfi_def_cfa_offset 16
	popq	%r15
	.cfi_def_cfa_offset 8
	ret
	.p2align 4,,10
	.p2align 3
.L1299:
	.cfi_restore_state
	leaq	32(%rsp), %r13
	movdqu	72(%rsi), %xmm5
	movdqu	88(%rsi), %xmm6
	movq	%rsi, %r12
	movq	%r13, (%rsp)
	movaps	%xmm5, 80(%rsp)
	movups	%xmm0, 72(%rsi)
	movaps	%xmm6, 96(%rsp)
.L1300:
	movq	80(%r12), %r14
	testq	%r14, %r14
	je	.L1307
	movq	_ZL28__gthrw___pthread_key_createPjPFvPvE@GOTPCREL(%rip), %r15
	testq	%r15, %r15
	je	.L1308
	movl	$-1, %eax
	lock xaddl	%eax, 8(%r14)
.L1309:
	cmpl	$1, %eax
	jne	.L1307
	movq	(%r14), %rax
	movq	%r14, %rdi
	call	*16(%rax)
	testq	%r15, %r15
	je	.L1311
	movl	$-1, %eax
	lock xaddl	%eax, 12(%r14)
.L1312:
	cmpl	$1, %eax
	je	.L1412
	.p2align 4,,10
	.p2align 3
.L1307:
	movq	56(%r12), %rax
	testq	%rax, %rax
	je	.L1313
	leaq	40(%r12), %rdi
	movl	$3, %edx
	movq	%rdi, %rsi
	call	*%rax
.L1313:
	movq	32(%r12), %r12
	testq	%r12, %r12
	je	.L1315
	movq	_ZL28__gthrw___pthread_key_createPjPFvPvE@GOTPCREL(%rip), %r15
	testq	%r15, %r15
	je	.L1316
	movl	$-1, %eax
	lock xaddl	%eax, 8(%r12)
.L1317:
	cmpl	$1, %eax
	jne	.L1315
	movq	(%r12), %rax
	movq	%r12, %rdi
	call	*16(%rax)
	testq	%r15, %r15
	je	.L1319
	movl	$-1, %eax
	lock xaddl	%eax, 12(%r12)
.L1320:
	cmpl	$1, %eax
	je	.L1413
	.p2align 4,,10
	.p2align 3
.L1315:
	movq	$0, 16(%rsp)
	jmp	.L1301
	.p2align 4,,10
	.p2align 3
.L1405:
	cmpq	$0, 64(%rsp)
	je	.L1414
	leaq	48(%rsp), %rdi
.LEHB50:
	call	*72(%rsp)
	jmp	.L1325
	.p2align 4,,10
	.p2align 3
.L1337:
	movl	8(%rbp), %eax
	leal	-1(%rax), %edx
	movl	%edx, 8(%rbp)
	cmpl	$1, %eax
	jne	.L1336
.L1407:
	movq	0(%rbp), %rax
	movq	%rbp, %rdi
	call	*16(%rax)
	testq	%r15, %r15
	je	.L1340
	movl	$-1, %eax
	lock xaddl	%eax, 12(%rbp)
.L1341:
	cmpl	$1, %eax
	jne	.L1336
	movq	0(%rbp), %rax
	movq	%rbp, %rdi
	call	*24(%rax)
	jmp	.L1336
	.p2align 4,,10
	.p2align 3
.L1329:
	movl	8(%rbp), %eax
	leal	-1(%rax), %edx
	movl	%edx, 8(%rbp)
	cmpl	$1, %eax
	jne	.L1328
.L1406:
	movq	0(%rbp), %rax
	movq	%rbp, %rdi
	call	*16(%rax)
	testq	%r15, %r15
	je	.L1332
	movl	$-1, %eax
	lock xaddl	%eax, 12(%rbp)
.L1333:
	cmpl	$1, %eax
	jne	.L1328
	movq	0(%rbp), %rax
	movq	%rbp, %rdi
	call	*24(%rax)
	jmp	.L1328
	.p2align 4,,10
	.p2align 3
.L1353:
	movl	8(%rbp), %eax
	leal	-1(%rax), %edx
	movl	%edx, 8(%rbp)
	jmp	.L1354
	.p2align 4,,10
	.p2align 3
.L1345:
	movl	8(%rbp), %eax
	leal	-1(%rax), %edx
	movl	%edx, 8(%rbp)
	jmp	.L1346
	.p2align 4,,10
	.p2align 3
.L1308:
	movl	8(%r14), %eax
	leal	-1(%rax), %edx
	movl	%edx, 8(%r14)
	jmp	.L1309
	.p2align 4,,10
	.p2align 3
.L1316:
	movl	8(%r12), %eax
	leal	-1(%rax), %edx
	movl	%edx, 8(%r12)
	jmp	.L1317
	.p2align 4,,10
	.p2align 3
.L1410:
	movzbl	104(%rbp), %edx
	movb	%dl, 0(%rbp)
	movq	%rbp, (%rax)
	jmp	.L1298
	.p2align 4,,10
	.p2align 3
.L1404:
	movzbl	104(%r12), %edx
	movb	%dl, (%r12)
	movq	%r12, (%rax)
	jmp	.L1323
	.p2align 4,,10
	.p2align 3
.L1332:
	movl	12(%rbp), %eax
	leal	-1(%rax), %edx
	movl	%edx, 12(%rbp)
	jmp	.L1333
	.p2align 4,,10
	.p2align 3
.L1340:
	movl	12(%rbp), %eax
	leal	-1(%rax), %edx
	movl	%edx, 12(%rbp)
	jmp	.L1341
	.p2align 4,,10
	.p2align 3
.L1413:
	movq	(%r12), %rax
	movq	%r12, %rdi
	call	*24(%rax)
	jmp	.L1315
	.p2align 4,,10
	.p2align 3
.L1412:
	movq	(%r14), %rax
	movq	%r14, %rdi
	call	*24(%rax)
	jmp	.L1307
	.p2align 4,,10
	.p2align 3
.L1409:
	movq	0(%rbp), %rax
	movq	%rbp, %rdi
	call	*24(%rax)
	jmp	.L1352
	.p2align 4,,10
	.p2align 3
.L1408:
	movq	0(%rbp), %rax
	movq	%rbp, %rdi
	call	*24(%rax)
	jmp	.L1344
	.p2align 4,,10
	.p2align 3
.L1356:
	movl	12(%rbp), %eax
	leal	-1(%rax), %edx
	movl	%edx, 12(%rbp)
	jmp	.L1357
	.p2align 4,,10
	.p2align 3
.L1348:
	movl	12(%rbp), %eax
	leal	-1(%rax), %edx
	movl	%edx, 12(%rbp)
	jmp	.L1349
	.p2align 4,,10
	.p2align 3
.L1319:
	movl	12(%r12), %eax
	leal	-1(%rax), %edx
	movl	%edx, 12(%r12)
	jmp	.L1320
	.p2align 4,,10
	.p2align 3
.L1311:
	movl	12(%r14), %eax
	leal	-1(%rax), %edx
	movl	%edx, 12(%r14)
	jmp	.L1312
.L1411:
	call	__stack_chk_fail@PLT
.L1414:
	call	_ZSt25__throw_bad_function_callv@PLT
.LEHE50:
.L1362:
	endbr64
	movq	%rax, %rbp
	jmp	.L1360
.L1363:
	endbr64
	movq	%rax, %rbp
	jmp	.L1302
	.section	.gcc_except_table
.LLSDA9223:
	.byte	0xff
	.byte	0xff
	.byte	0x1
	.uleb128 .LLSDACSE9223-.LLSDACSB9223
.LLSDACSB9223:
	.uleb128 .LEHB49-.LFB9223
	.uleb128 .LEHE49-.LEHB49
	.uleb128 .L1363-.LFB9223
	.uleb128 0
	.uleb128 .LEHB50-.LFB9223
	.uleb128 .LEHE50-.LEHB50
	.uleb128 .L1362-.LFB9223
	.uleb128 0
.LLSDACSE9223:
	.text
	.cfi_endproc
	.section	.text.unlikely
	.cfi_startproc
	.cfi_personality 0x9b,DW.ref.__gxx_personality_v0
	.cfi_lsda 0x1b,.LLSDAC9223
	.type	_ZN4asio6detail18completion_handlerINS0_7binder1IZN7asiopal8Executor5StartERKNSt6chrono10time_pointINS5_3_V212steady_clockENS5_8durationIlSt5ratioILl1ELl1000000000EEEEEERKSt8functionIFvvEEEUlRKSt10error_codeE_SL_EEE11do_completeEPNS0_15task_io_serviceEPNS0_25task_io_service_operationESN_m.cold, @function
_ZN4asio6detail18completion_handlerINS0_7binder1IZN7asiopal8Executor5StartERKNSt6chrono10time_pointINS5_3_V212steady_clockENS5_8durationIlSt5ratioILl1ELl1000000000EEEEEERKSt8functionIFvvEEEUlRKSt10error_codeE_SL_EEE11do_completeEPNS0_15task_io_serviceEPNS0_25task_io_service_operationESN_m.cold:
.LFSB9223:
.L1360:
	.cfi_def_cfa_offset 192
	.cfi_offset 3, -56
	.cfi_offset 6, -48
	.cfi_offset 12, -40
	.cfi_offset 13, -32
	.cfi_offset 14, -24
	.cfi_offset 15, -16
	sfence
	movq	%r13, %rdi
	call	_ZZN7asiopal8Executor5StartERKNSt6chrono10time_pointINS1_3_V212steady_clockENS1_8durationIlSt5ratioILl1ELl1000000000EEEEEERKSt8functionIFvvEEENUlRKSt10error_codeE_D1Ev
.L1305:
	leaq	8(%rsp), %rdi
	leaq	16(%rsp), %rsi
	call	_ZN4asio6detail18completion_handlerINS0_7binder1IZN7asiopal8Executor5StartERKNSt6chrono10time_pointINS5_3_V212steady_clockENS5_8durationIlSt5ratioILl1ELl1000000000EEEEEERKSt8functionIFvvEEEUlRKSt10error_codeE_SL_EEE3ptr5resetEv.isra.0
	movq	%rbp, %rdi
.LEHB51:
	call	_Unwind_Resume@PLT
.LEHE51:
.L1302:
	movq	64(%rsp), %rax
	testq	%rax, %rax
	je	.L1303
	movl	$3, %edx
	movq	%r12, %rsi
	movq	%r12, %rdi
	call	*%rax
.L1303:
	movq	40(%rsp), %rdi
	testq	%rdi, %rdi
	je	.L1305
	call	_ZNSt16_Sp_counted_baseILN9__gnu_cxx12_Lock_policyE2EE10_M_releaseEv@PLT
	jmp	.L1305
	.cfi_endproc
.LFE9223:
	.section	.gcc_except_table
.LLSDAC9223:
	.byte	0xff
	.byte	0xff
	.byte	0x1
	.uleb128 .LLSDACSEC9223-.LLSDACSBC9223
.LLSDACSBC9223:
	.uleb128 .LEHB51-.LCOLDB32
	.uleb128 .LEHE51-.LEHB51
	.uleb128 0
	.uleb128 0
.LLSDACSEC9223:
	.section	.text.unlikely
	.text
	.size	_ZN4asio6detail18completion_handlerINS0_7binder1IZN7asiopal8Executor5StartERKNSt6chrono10time_pointINS5_3_V212steady_clockENS5_8durationIlSt5ratioILl1ELl1000000000EEEEEERKSt8functionIFvvEEEUlRKSt10error_codeE_SL_EEE11do_completeEPNS0_15task_io_serviceEPNS0_25task_io_service_operationESN_m, .-_ZN4asio6detail18completion_handlerINS0_7binder1IZN7asiopal8Executor5StartERKNSt6chrono10time_pointINS5_3_V212steady_clockENS5_8durationIlSt5ratioILl1ELl1000000000EEEEEERKSt8functionIFvvEEEUlRKSt10error_codeE_SL_EEE11do_completeEPNS0_15task_io_serviceEPNS0_25task_io_service_operationESN_m
	.section	.text.unlikely
	.size	_ZN4asio6detail18completion_handlerINS0_7binder1IZN7asiopal8Executor5StartERKNSt6chrono10time_pointINS5_3_V212steady_clockENS5_8durationIlSt5ratioILl1ELl1000000000EEEEEERKSt8functionIFvvEEEUlRKSt10error_codeE_SL_EEE11do_completeEPNS0_15task_io_serviceEPNS0_25task_io_service_operationESN_m.cold, .-_ZN4asio6detail18completion_handlerINS0_7binder1IZN7asiopal8Executor5StartERKNSt6chrono10time_pointINS5_3_V212steady_clockENS5_8durationIlSt5ratioILl1ELl1000000000EEEEEERKSt8functionIFvvEEEUlRKSt10error_codeE_SL_EEE11do_completeEPNS0_15task_io_serviceEPNS0_25task_io_service_operationESN_m.cold
.LCOLDE32:
	.text
.LHOTE32:
	.section	.text.unlikely
	.align 2
.LCOLDB33:
	.text
.LHOTB33:
	.align 2
	.p2align 4
	.type	_ZN4asio6detail15wrapped_handlerINS_10io_service6strandEZN7asiopal8Executor5StartERKNSt6chrono10time_pointINS6_3_V212steady_clockENS6_8durationIlSt5ratioILl1ELl1000000000EEEEEERKSt8functionIFvvEEEUlRKSt10error_codeE_NS0_26is_continuation_if_runningEEclISM_EEvRKT_.isra.0, @function
_ZN4asio6detail15wrapped_handlerINS_10io_service6strandEZN7asiopal8Executor5StartERKNSt6chrono10time_pointINS6_3_V212steady_clockENS6_8durationIlSt5ratioILl1ELl1000000000EEEEEERKSt8functionIFvvEEEUlRKSt10error_codeE_NS0_26is_continuation_if_runningEEclISM_EEvRKT_.isra.0:
.LFB9550:
	.cfi_startproc
	.cfi_personality 0x9b,DW.ref.__gxx_personality_v0
	.cfi_lsda 0x1b,.LLSDA9550
	pushq	%r15
	.cfi_def_cfa_offset 16
	.cfi_offset 15, -16
	pushq	%r14
	.cfi_def_cfa_offset 24
	.cfi_offset 14, -24
	pushq	%r13
	.cfi_def_cfa_offset 32
	.cfi_offset 13, -32
	pushq	%r12
	.cfi_def_cfa_offset 40
	.cfi_offset 12, -40
	pushq	%rbp
	.cfi_def_cfa_offset 48
	.cfi_offset 6, -48
	movq	%rsi, %rbp
	pushq	%rbx
	.cfi_def_cfa_offset 56
	.cfi_offset 3, -56
	movq	%rdi, %rbx
	subq	$440, %rsp
	.cfi_def_cfa_offset 496
	movdqa	16(%rdi), %xmm2
	movq	%fs:40, %rax
	movq	%rax, 424(%rsp)
	xorl	%eax, %eax
	movq	24(%rdi), %rax
	movaps	%xmm2, 112(%rsp)
	testq	%rax, %rax
	je	.L1416
	cmpq	$0, _ZL28__gthrw___pthread_key_createPjPFvPvE@GOTPCREL(%rip)
	je	.L1417
	lock addl	$1, 8(%rax)
.L1416:
	movq	$0, 144(%rsp)
	movq	48(%rbx), %rax
	testq	%rax, %rax
	je	.L1418
	leaq	128(%rsp), %r12
	leaq	32(%rbx), %rsi
	movl	$2, %edx
	movq	%r12, %rdi
.LEHB52:
	call	*%rax
.LEHE52:
	movdqa	48(%rbx), %xmm4
	movq	48(%rbx), %rax
	movaps	%xmm4, 144(%rsp)
.L1418:
	movdqa	64(%rbx), %xmm3
	movq	72(%rbx), %rdx
	movaps	%xmm3, 160(%rsp)
	testq	%rdx, %rdx
	je	.L1420
	cmpq	$0, _ZL28__gthrw___pthread_key_createPjPFvPvE@GOTPCREL(%rip)
	je	.L1425
	lock addl	$1, 8(%rdx)
	movq	144(%rsp), %rax
.L1420:
	movdqa	112(%rsp), %xmm4
	pxor	%xmm0, %xmm0
	movq	112(%rsp), %rcx
	movq	$0, 208(%rsp)
	movq	120(%rsp), %rdi
	movaps	%xmm0, 112(%rsp)
	movaps	%xmm4, 176(%rsp)
	testq	%rax, %rax
	je	.L1427
	leaq	192(%rsp), %r12
	leaq	128(%rsp), %rsi
	movl	$2, %edx
	movq	%r12, %rdi
.LEHB53:
	call	*%rax
.LEHE53:
	movq	144(%rsp), %rax
	movq	176(%rsp), %rcx
	movdqa	144(%rsp), %xmm5
	movq	184(%rsp), %rdi
	movaps	%xmm5, 208(%rsp)
.L1427:
	movdqa	0(%rbp), %xmm6
	movq	%rcx, %xmm0
	movdqa	160(%rsp), %xmm5
	movq	%rdi, %xmm7
	pxor	%xmm1, %xmm1
	punpcklqdq	%xmm7, %xmm0
	movq	160(%rsp), %rdx
	movq	168(%rsp), %rsi
	movq	$0, 368(%rsp)
	movaps	%xmm5, 224(%rsp)
	movaps	%xmm1, 160(%rsp)
	movaps	%xmm6, 240(%rsp)
	movaps	%xmm0, 336(%rsp)
	movaps	%xmm1, 176(%rsp)
	testq	%rax, %rax
	je	.L1429
	leaq	352(%rsp), %rbp
	leaq	192(%rsp), %rsi
	movl	$2, %edx
	movq	%rbp, %rdi
.LEHB54:
	call	*%rax
.LEHE54:
	movq	224(%rsp), %rdx
	movq	232(%rsp), %rsi
	movdqa	208(%rsp), %xmm6
	movaps	%xmm6, 368(%rsp)
.L1429:
	movq	%rdx, %xmm0
	movq	%rsi, %xmm2
	movq	8(%rbx), %rbp
	movdqa	240(%rsp), %xmm3
	punpcklqdq	%xmm2, %xmm0
	movaps	%xmm0, 384(%rsp)
	pxor	%xmm0, %xmm0
	movaps	%xmm0, 224(%rsp)
	movaps	%xmm3, 400(%rsp)
	data16	leaq	_ZN4asio6detail15keyword_tss_ptrINS0_10call_stackINS0_14strand_service11strand_implEhE7contextEE6value_E@tlsgd(%rip), %rdi
	.value	0x6666
	rex64
	call	__tls_get_addr@PLT
	movq	(%rax), %rax
	testq	%rax, %rax
	jne	.L1435
	jmp	.L1434
	.p2align 4,,10
	.p2align 3
.L1440:
	movq	16(%rax), %rax
	testq	%rax, %rax
	je	.L1434
.L1435:
	cmpq	(%rax), %rbp
	jne	.L1440
	cmpq	$0, 8(%rax)
	je	.L1434
	lfence
	movl	400(%rsp), %edx
	testl	%edx, %edx
	je	.L1764
.L1442:
	sfence
.L1444:
	movq	392(%rsp), %rbp
	testq	%rbp, %rbp
	je	.L1573
	movq	_ZL28__gthrw___pthread_key_createPjPFvPvE@GOTPCREL(%rip), %rbx
	testq	%rbx, %rbx
	je	.L1576
	movl	$-1, %eax
	lock xaddl	%eax, 8(%rbp)
	cmpl	$1, %eax
	je	.L1765
	.p2align 4,,10
	.p2align 3
.L1573:
	movq	368(%rsp), %rax
	testq	%rax, %rax
	je	.L1581
	leaq	352(%rsp), %rdi
	movl	$3, %edx
	movq	%rdi, %rsi
	call	*%rax
.L1581:
	movq	344(%rsp), %rbp
	testq	%rbp, %rbp
	je	.L1583
	movq	_ZL28__gthrw___pthread_key_createPjPFvPvE@GOTPCREL(%rip), %rbx
	testq	%rbx, %rbx
	je	.L1584
	movl	$-1, %eax
	lock xaddl	%eax, 8(%rbp)
	cmpl	$1, %eax
	je	.L1766
	.p2align 4,,10
	.p2align 3
.L1583:
	movq	232(%rsp), %rbp
	testq	%rbp, %rbp
	je	.L1590
	movq	_ZL28__gthrw___pthread_key_createPjPFvPvE@GOTPCREL(%rip), %rbx
	testq	%rbx, %rbx
	je	.L1591
	movl	$-1, %eax
	lock xaddl	%eax, 8(%rbp)
	cmpl	$1, %eax
	je	.L1767
	.p2align 4,,10
	.p2align 3
.L1590:
	movq	208(%rsp), %rax
	testq	%rax, %rax
	je	.L1596
	leaq	192(%rsp), %rdi
	movl	$3, %edx
	movq	%rdi, %rsi
	call	*%rax
.L1596:
	movq	184(%rsp), %rbp
	testq	%rbp, %rbp
	je	.L1598
	movq	_ZL28__gthrw___pthread_key_createPjPFvPvE@GOTPCREL(%rip), %rbx
	testq	%rbx, %rbx
	je	.L1599
	movl	$-1, %eax
	lock xaddl	%eax, 8(%rbp)
	cmpl	$1, %eax
	je	.L1768
	.p2align 4,,10
	.p2align 3
.L1598:
	movq	168(%rsp), %rbp
	testq	%rbp, %rbp
	je	.L1605
	movq	_ZL28__gthrw___pthread_key_createPjPFvPvE@GOTPCREL(%rip), %rbx
	testq	%rbx, %rbx
	je	.L1606
	movl	$-1, %eax
	lock xaddl	%eax, 8(%rbp)
	cmpl	$1, %eax
	je	.L1769
	.p2align 4,,10
	.p2align 3
.L1605:
	movq	144(%rsp), %rax
	testq	%rax, %rax
	je	.L1611
	leaq	128(%rsp), %rdi
	movl	$3, %edx
	movq	%rdi, %rsi
	call	*%rax
.L1611:
	movq	120(%rsp), %rbp
	testq	%rbp, %rbp
	je	.L1415
	movq	_ZL28__gthrw___pthread_key_createPjPFvPvE@GOTPCREL(%rip), %rbx
	testq	%rbx, %rbx
	je	.L1614
	movl	$-1, %eax
	lock xaddl	%eax, 8(%rbp)
	cmpl	$1, %eax
	je	.L1770
	.p2align 4,,10
	.p2align 3
.L1415:
	movq	424(%rsp), %rax
	xorq	%fs:40, %rax
	jne	.L1771
	addq	$440, %rsp
	.cfi_remember_state
	.cfi_def_cfa_offset 56
	popq	%rbx
	.cfi_def_cfa_offset 48
	popq	%rbp
	.cfi_def_cfa_offset 40
	popq	%r12
	.cfi_def_cfa_offset 32
	popq	%r13
	.cfi_def_cfa_offset 24
	popq	%r14
	.cfi_def_cfa_offset 16
	popq	%r15
	.cfi_def_cfa_offset 8
	ret
	.p2align 4,,10
	.p2align 3
.L1434:
	.cfi_restore_state
	pxor	%xmm0, %xmm0
	leaq	336(%rsp), %r12
	movq	(%rbx), %r13
	movq	%r12, 16(%rsp)
	movups	%xmm0, 24(%rsp)
	data16	leaq	_ZN4asio6detail15keyword_tss_ptrINS0_10call_stackINS0_15task_io_serviceENS0_27task_io_service_thread_infoEE7contextEE6value_E@tlsgd(%rip), %rdi
	.value	0x6666
	rex64
	call	__tls_get_addr@PLT
	movq	(%rax), %rax
	testq	%rax, %rax
	je	.L1445
	movq	8(%rax), %rax
	testq	%rax, %rax
	je	.L1445
	movq	(%rax), %rbp
	testq	%rbp, %rbp
	je	.L1445
	movq	$0, (%rax)
	movzbl	0(%rbp), %eax
	cmpb	$103, %al
	jbe	.L1446
	movb	%al, 104(%rbp)
	jmp	.L1447
	.p2align 4,,10
	.p2align 3
.L1417:
	addl	$1, 8(%rax)
	jmp	.L1416
	.p2align 4,,10
	.p2align 3
.L1425:
	addl	$1, 8(%rdx)
	jmp	.L1420
	.p2align 4,,10
	.p2align 3
.L1446:
	movq	%rbp, %rdi
	call	_ZdlPv@PLT
.L1445:
	movl	$105, %edi
.LEHB55:
	call	_Znwm@PLT
.LEHE55:
	movb	$104, 104(%rax)
	movq	%rax, %rbp
.L1447:
	leaq	_ZN4asio6detail18completion_handlerINS0_7binder1IZN7asiopal8Executor5StartERKNSt6chrono10time_pointINS5_3_V212steady_clockENS5_8durationIlSt5ratioILl1ELl1000000000EEEEEERKSt8functionIFvvEEEUlRKSt10error_codeE_SL_EEE11do_completeEPNS0_15task_io_serviceEPNS0_25task_io_service_operationESN_m(%rip), %rax
	movq	%rbp, 24(%rsp)
	pxor	%xmm0, %xmm0
	movq	%rax, 8(%rbp)
	movq	$0, 0(%rbp)
	movdqa	336(%rsp), %xmm7
	movl	$0, 16(%rbp)
	movups	%xmm7, 24(%rbp)
	movq	368(%rsp), %rax
	movq	$0, 56(%rbp)
	movaps	%xmm0, 336(%rsp)
	testq	%rax, %rax
	je	.L1448
	leaq	40(%rbp), %r14
	leaq	352(%rsp), %rsi
	movl	$2, %edx
	movq	%r14, %rdi
.LEHB56:
	call	*%rax
.LEHE56:
	movdqa	368(%rsp), %xmm5
	movups	%xmm5, 56(%rbp)
.L1448:
	movdqa	384(%rsp), %xmm7
	pxor	%xmm0, %xmm0
	movq	%rbp, 32(%rsp)
	movaps	%xmm0, 384(%rsp)
	movups	%xmm7, 72(%rbp)
	movq	40(%r13), %r14
	movdqa	400(%rsp), %xmm4
	movups	%xmm4, 88(%rbp)
	data16	leaq	_ZN4asio6detail15keyword_tss_ptrINS0_10call_stackINS0_15task_io_serviceENS0_27task_io_service_thread_infoEE7contextEE6value_E@tlsgd(%rip), %rdi
	.value	0x6666
	rex64
	call	__tls_get_addr@PLT
	movq	(%rax), %rax
	testq	%rax, %rax
	jne	.L1450
	jmp	.L1449
	.p2align 4,,10
	.p2align 3
.L1455:
	movq	16(%rax), %rax
	testq	%rax, %rax
	je	.L1449
.L1450:
	cmpq	(%rax), %r14
	jne	.L1455
	movq	8(%rax), %r14
	movq	8(%rbx), %rax
	leaq	24(%rax), %rdi
	call	pthread_mutex_lock@PLT
	testq	%r14, %r14
	je	.L1457
	movq	8(%rbx), %rax
	cmpb	$0, 64(%rax)
	leaq	24(%rax), %rdi
	je	.L1772
.L1458:
	cmpq	$0, 80(%rax)
	movq	$0, 0(%rbp)
	je	.L1462
	movq	80(%rax), %rdx
	movq	%rbp, (%rdx)
	movq	%rbp, 80(%rax)
.L1763:
	call	pthread_mutex_unlock@PLT
	jmp	.L1444
	.p2align 4,,10
	.p2align 3
.L1772:
	movb	$1, 64(%rax)
	call	pthread_mutex_unlock@PLT
	movq	8(%rbx), %rbx
	pxor	%xmm0, %xmm0
	movq	32(%rsp), %rbp
	movups	%xmm0, 24(%rsp)
	movq	%rbx, 48(%rsp)
	data16	leaq	_ZN4asio6detail15keyword_tss_ptrINS0_10call_stackINS0_14strand_service11strand_implEhE7contextEE6value_E@tlsgd(%rip), %rdi
	.value	0x6666
	rex64
	call	__tls_get_addr@PLT
	movq	40(%r13), %r14
	movq	%rbp, 88(%rsp)
	movq	%rbx, %xmm6
	pxor	%xmm0, %xmm0
	movq	%rbp, 96(%rsp)
	movq	%r14, %xmm1
	punpcklqdq	%xmm6, %xmm1
	movaps	%xmm1, (%rsp)
	movq	(%rax), %rdx
	movq	%rdx, 64(%rsp)
	leaq	48(%rsp), %rdx
	movq	%rdx, (%rax)
	leaq	24(%rbp), %rax
	movq	%rax, 80(%rsp)
	movq	24(%rbp), %rax
	movq	%rdx, 56(%rsp)
	movq	%rax, 256(%rsp)
	movq	32(%rbp), %rax
	movups	%xmm0, 24(%rbp)
	movq	%rax, 264(%rsp)
	movq	56(%rbp), %rax
	movq	$0, 288(%rsp)
	testq	%rax, %rax
	je	.L1773
	leaq	272(%rsp), %r13
	leaq	40(%rbp), %rsi
	movl	$2, %edx
	movq	%r13, %rdi
.LEHB57:
	call	*%rax
.LEHE57:
	movq	72(%rbp), %rax
	movdqu	56(%rbp), %xmm2
	pxor	%xmm0, %xmm0
	leaq	256(%rsp), %r15
	movdqu	88(%rbp), %xmm3
	movq	96(%rsp), %r13
	movq	%rax, 304(%rsp)
	movq	80(%rbp), %rax
	movaps	%xmm2, 288(%rsp)
	movups	%xmm0, 72(%rbp)
	movq	%rax, 312(%rsp)
	movq	%r15, 80(%rsp)
	movaps	%xmm3, 320(%rsp)
	testq	%r13, %r13
	jne	.L1477
.L1478:
	movq	88(%rsp), %rbp
	testq	%rbp, %rbp
	je	.L1498
	data16	leaq	_ZN4asio6detail15keyword_tss_ptrINS0_10call_stackINS0_15task_io_serviceENS0_27task_io_service_thread_infoEE7contextEE6value_E@tlsgd(%rip), %rdi
	.value	0x6666
	rex64
	call	__tls_get_addr@PLT
	movq	(%rax), %rax
	testq	%rax, %rax
	je	.L1499
	movq	8(%rax), %rax
	testq	%rax, %rax
	je	.L1499
	cmpq	$0, (%rax)
	je	.L1774
.L1499:
	movq	%rbp, %rdi
	call	_ZdlPv@PLT
.L1500:
	movq	$0, 88(%rsp)
.L1498:
	testq	%r14, %r14
	je	.L1501
	movl	320(%rsp), %eax
	testl	%eax, %eax
	jne	.L1502
	cmpq	$0, 288(%rsp)
	je	.L1775
	leaq	272(%rsp), %rdi
.LEHB58:
	call	*296(%rsp)
.LEHE58:
.L1502:
	sfence
.L1501:
	movq	312(%rsp), %rbp
	testq	%rbp, %rbp
	je	.L1505
	movq	_ZL28__gthrw___pthread_key_createPjPFvPvE@GOTPCREL(%rip), %rbx
	testq	%rbx, %rbx
	je	.L1506
	movl	$-1, %eax
	lock xaddl	%eax, 8(%rbp)
.L1507:
	cmpl	$1, %eax
	jne	.L1505
	movq	0(%rbp), %rax
	movq	%rbp, %rdi
	call	*16(%rax)
	testq	%rbx, %rbx
	je	.L1509
	movl	$-1, %eax
	lock xaddl	%eax, 12(%rbp)
.L1510:
	cmpl	$1, %eax
	jne	.L1505
	movq	0(%rbp), %rax
	movq	%rbp, %rdi
	call	*24(%rax)
	.p2align 4,,10
	.p2align 3
.L1505:
	movq	288(%rsp), %rax
	testq	%rax, %rax
	je	.L1511
	leaq	272(%rsp), %rdi
	movl	$3, %edx
	movq	%rdi, %rsi
	call	*%rax
.L1511:
	movq	264(%rsp), %rbp
	testq	%rbp, %rbp
	je	.L1513
	movq	_ZL28__gthrw___pthread_key_createPjPFvPvE@GOTPCREL(%rip), %rbx
	testq	%rbx, %rbx
	je	.L1514
	movl	$-1, %eax
	lock xaddl	%eax, 8(%rbp)
.L1515:
	cmpl	$1, %eax
	jne	.L1513
	movq	0(%rbp), %rax
	movq	%rbp, %rdi
	call	*16(%rax)
	testq	%rbx, %rbx
	je	.L1517
	movl	$-1, %eax
	lock xaddl	%eax, 12(%rbp)
.L1518:
	cmpl	$1, %eax
	jne	.L1513
	movq	0(%rbp), %rax
	movq	%rbp, %rdi
	call	*24(%rax)
	.p2align 4,,10
	.p2align 3
.L1513:
	movq	96(%rsp), %rbp
	testq	%rbp, %rbp
	je	.L1519
	movq	80(%rbp), %r12
	testq	%r12, %r12
	je	.L1521
	movq	_ZL28__gthrw___pthread_key_createPjPFvPvE@GOTPCREL(%rip), %rbx
	testq	%rbx, %rbx
	je	.L1522
	movl	$-1, %eax
	lock xaddl	%eax, 8(%r12)
.L1523:
	cmpl	$1, %eax
	jne	.L1521
	movq	(%r12), %rax
	movq	%r12, %rdi
	call	*16(%rax)
	testq	%rbx, %rbx
	je	.L1525
	movl	$-1, %eax
	lock xaddl	%eax, 12(%r12)
.L1526:
	cmpl	$1, %eax
	jne	.L1521
	movq	(%r12), %rax
	movq	%r12, %rdi
	call	*24(%rax)
	.p2align 4,,10
	.p2align 3
.L1521:
	movq	56(%rbp), %rax
	testq	%rax, %rax
	je	.L1527
	leaq	40(%rbp), %rdi
	movl	$3, %edx
	movq	%rdi, %rsi
	call	*%rax
.L1527:
	movq	32(%rbp), %rbp
	testq	%rbp, %rbp
	je	.L1529
	movq	_ZL28__gthrw___pthread_key_createPjPFvPvE@GOTPCREL(%rip), %rbx
	testq	%rbx, %rbx
	je	.L1530
	movl	$-1, %eax
	lock xaddl	%eax, 8(%rbp)
.L1531:
	cmpl	$1, %eax
	jne	.L1529
	movq	0(%rbp), %rax
	movq	%rbp, %rdi
	call	*16(%rax)
	testq	%rbx, %rbx
	je	.L1533
	movl	$-1, %eax
	lock xaddl	%eax, 12(%rbp)
.L1534:
	cmpl	$1, %eax
	jne	.L1529
	movq	0(%rbp), %rax
	movq	%rbp, %rdi
	call	*24(%rax)
	.p2align 4,,10
	.p2align 3
.L1529:
	movq	$0, 96(%rsp)
.L1519:
	movq	88(%rsp), %rbp
	testq	%rbp, %rbp
	je	.L1535
	data16	leaq	_ZN4asio6detail15keyword_tss_ptrINS0_10call_stackINS0_15task_io_serviceENS0_27task_io_service_thread_infoEE7contextEE6value_E@tlsgd(%rip), %rdi
	.value	0x6666
	rex64
	call	__tls_get_addr@PLT
	movq	(%rax), %rax
	testq	%rax, %rax
	je	.L1536
	movq	8(%rax), %rax
	testq	%rax, %rax
	je	.L1536
	cmpq	$0, (%rax)
	je	.L1776
.L1536:
	movq	%rbp, %rdi
	call	_ZdlPv@PLT
.L1535:
	movq	8(%rsp), %rax
	leaq	24(%rax), %rdi
	call	pthread_mutex_lock@PLT
	movq	8(%rsp), %rdi
	movq	72(%rdi), %rbx
	testq	%rbx, %rbx
	je	.L1777
	movq	96(%rdi), %rax
	testq	%rax, %rax
	je	.L1540
	movq	%rbx, (%rax)
	movq	88(%rdi), %rbx
.L1541:
	movq	80(%rdi), %rax
	pxor	%xmm0, %xmm0
	movups	%xmm0, 72(%rdi)
	movq	%rax, 96(%rdi)
.L1538:
	testq	%rbx, %rbx
	setne	64(%rdi)
	addq	$24, %rdi
	call	pthread_mutex_unlock@PLT
	testq	%rbx, %rbx
	jne	.L1778
.L1542:
	data16	leaq	_ZN4asio6detail15keyword_tss_ptrINS0_10call_stackINS0_14strand_service11strand_implEhE7contextEE6value_E@tlsgd(%rip), %rdi
	.value	0x6666
	rex64
	call	__tls_get_addr@PLT
	movq	64(%rsp), %rdx
	movq	32(%rsp), %rbp
	movq	%rdx, (%rax)
	testq	%rbp, %rbp
	je	.L1762
	movq	80(%rbp), %r12
	testq	%r12, %r12
	je	.L1556
	movq	_ZL28__gthrw___pthread_key_createPjPFvPvE@GOTPCREL(%rip), %rbx
	testq	%rbx, %rbx
	je	.L1557
	movl	$-1, %eax
	lock xaddl	%eax, 8(%r12)
.L1558:
	cmpl	$1, %eax
	je	.L1779
.L1556:
	movq	56(%rbp), %rax
	testq	%rax, %rax
	je	.L1562
	leaq	40(%rbp), %rdi
	movl	$3, %edx
	movq	%rdi, %rsi
	call	*%rax
.L1562:
	movq	32(%rbp), %rbp
	testq	%rbp, %rbp
	je	.L1564
	movq	_ZL28__gthrw___pthread_key_createPjPFvPvE@GOTPCREL(%rip), %rbx
	testq	%rbx, %rbx
	je	.L1565
	movl	$-1, %eax
	lock xaddl	%eax, 8(%rbp)
.L1566:
	cmpl	$1, %eax
	je	.L1780
.L1564:
	movq	$0, 32(%rsp)
.L1762:
	movq	24(%rsp), %rbp
	testq	%rbp, %rbp
	je	.L1444
	data16	leaq	_ZN4asio6detail15keyword_tss_ptrINS0_10call_stackINS0_15task_io_serviceENS0_27task_io_service_thread_infoEE7contextEE6value_E@tlsgd(%rip), %rdi
	.value	0x6666
	rex64
	call	__tls_get_addr@PLT
	movq	(%rax), %rax
	testq	%rax, %rax
	je	.L1571
	movq	8(%rax), %rax
	testq	%rax, %rax
	je	.L1571
	cmpq	$0, (%rax)
	je	.L1781
.L1571:
	movq	%rbp, %rdi
	call	_ZdlPv@PLT
	jmp	.L1444
	.p2align 4,,10
	.p2align 3
.L1606:
	movl	8(%rbp), %eax
	leal	-1(%rax), %edx
	movl	%edx, 8(%rbp)
	cmpl	$1, %eax
	jne	.L1605
.L1769:
	movq	0(%rbp), %rax
	movq	%rbp, %rdi
	call	*16(%rax)
	testq	%rbx, %rbx
	je	.L1609
	movl	$-1, %eax
	lock xaddl	%eax, 12(%rbp)
.L1610:
	cmpl	$1, %eax
	jne	.L1605
	movq	0(%rbp), %rax
	movq	%rbp, %rdi
	call	*24(%rax)
	jmp	.L1605
	.p2align 4,,10
	.p2align 3
.L1614:
	movl	8(%rbp), %eax
	leal	-1(%rax), %edx
	movl	%edx, 8(%rbp)
	cmpl	$1, %eax
	jne	.L1415
.L1770:
	movq	0(%rbp), %rax
	movq	%rbp, %rdi
	call	*16(%rax)
	testq	%rbx, %rbx
	je	.L1617
	movl	$-1, %eax
	lock xaddl	%eax, 12(%rbp)
.L1618:
	cmpl	$1, %eax
	jne	.L1415
	movq	0(%rbp), %rax
	movq	%rbp, %rdi
	call	*24(%rax)
	jmp	.L1415
	.p2align 4,,10
	.p2align 3
.L1576:
	movl	8(%rbp), %eax
	leal	-1(%rax), %edx
	movl	%edx, 8(%rbp)
	cmpl	$1, %eax
	jne	.L1573
.L1765:
	movq	0(%rbp), %rax
	movq	%rbp, %rdi
	call	*16(%rax)
	testq	%rbx, %rbx
	je	.L1579
	movl	$-1, %eax
	lock xaddl	%eax, 12(%rbp)
.L1580:
	cmpl	$1, %eax
	jne	.L1573
	movq	0(%rbp), %rax
	movq	%rbp, %rdi
	call	*24(%rax)
	jmp	.L1573
	.p2align 4,,10
	.p2align 3
.L1584:
	movl	8(%rbp), %eax
	leal	-1(%rax), %edx
	movl	%edx, 8(%rbp)
	cmpl	$1, %eax
	jne	.L1583
.L1766:
	movq	0(%rbp), %rax
	movq	%rbp, %rdi
	call	*16(%rax)
	testq	%rbx, %rbx
	je	.L1587
	movl	$-1, %eax
	lock xaddl	%eax, 12(%rbp)
.L1588:
	cmpl	$1, %eax
	jne	.L1583
	movq	0(%rbp), %rax
	movq	%rbp, %rdi
	call	*24(%rax)
	jmp	.L1583
	.p2align 4,,10
	.p2align 3
.L1591:
	movl	8(%rbp), %eax
	leal	-1(%rax), %edx
	movl	%edx, 8(%rbp)
	cmpl	$1, %eax
	jne	.L1590
.L1767:
	movq	0(%rbp), %rax
	movq	%rbp, %rdi
	call	*16(%rax)
	testq	%rbx, %rbx
	je	.L1594
	movl	$-1, %eax
	lock xaddl	%eax, 12(%rbp)
.L1595:
	cmpl	$1, %eax
	jne	.L1590
	movq	0(%rbp), %rax
	movq	%rbp, %rdi
	call	*24(%rax)
	jmp	.L1590
	.p2align 4,,10
	.p2align 3
.L1599:
	movl	8(%rbp), %eax
	leal	-1(%rax), %edx
	movl	%edx, 8(%rbp)
	cmpl	$1, %eax
	jne	.L1598
.L1768:
	movq	0(%rbp), %rax
	movq	%rbp, %rdi
	call	*16(%rax)
	testq	%rbx, %rbx
	je	.L1602
	movl	$-1, %eax
	lock xaddl	%eax, 12(%rbp)
.L1603:
	cmpl	$1, %eax
	jne	.L1598
	movq	0(%rbp), %rax
	movq	%rbp, %rdi
	call	*24(%rax)
	jmp	.L1598
	.p2align 4,,10
	.p2align 3
.L1764:
	cmpq	$0, 368(%rsp)
	je	.L1782
	leaq	352(%rsp), %rdi
.LEHB59:
	call	*376(%rsp)
.LEHE59:
	jmp	.L1442
	.p2align 4,,10
	.p2align 3
.L1773:
	movq	72(%rbp), %rax
	leaq	256(%rsp), %r15
	movdqu	88(%rbp), %xmm6
	movq	%rbp, %r13
	movq	%rax, 304(%rsp)
	movq	80(%rbp), %rax
	movups	%xmm0, 72(%rbp)
	movq	%rax, 312(%rsp)
	movq	%r15, 80(%rsp)
	movaps	%xmm6, 320(%rsp)
.L1477:
	movq	80(%r13), %rbp
	testq	%rbp, %rbp
	je	.L1484
	movq	_ZL28__gthrw___pthread_key_createPjPFvPvE@GOTPCREL(%rip), %rbx
	testq	%rbx, %rbx
	je	.L1485
	movl	$-1, %eax
	lock xaddl	%eax, 8(%rbp)
.L1486:
	cmpl	$1, %eax
	jne	.L1484
	movq	0(%rbp), %rax
	movq	%rbp, %rdi
	call	*16(%rax)
	testq	%rbx, %rbx
	je	.L1488
	movl	$-1, %eax
	lock xaddl	%eax, 12(%rbp)
.L1489:
	cmpl	$1, %eax
	jne	.L1484
	movq	0(%rbp), %rax
	movq	%rbp, %rdi
	call	*24(%rax)
	.p2align 4,,10
	.p2align 3
.L1484:
	movq	56(%r13), %rax
	testq	%rax, %rax
	je	.L1490
	leaq	40(%r13), %rdi
	movl	$3, %edx
	movq	%rdi, %rsi
	call	*%rax
.L1490:
	movq	32(%r13), %rbp
	testq	%rbp, %rbp
	je	.L1492
	movq	_ZL28__gthrw___pthread_key_createPjPFvPvE@GOTPCREL(%rip), %rbx
	testq	%rbx, %rbx
	je	.L1493
	movl	$-1, %eax
	lock xaddl	%eax, 8(%rbp)
.L1494:
	cmpl	$1, %eax
	jne	.L1492
	movq	0(%rbp), %rax
	movq	%rbp, %rdi
	call	*16(%rax)
	testq	%rbx, %rbx
	je	.L1496
	movl	$-1, %eax
	lock xaddl	%eax, 12(%rbp)
.L1497:
	cmpl	$1, %eax
	jne	.L1492
	movq	0(%rbp), %rax
	movq	%rbp, %rdi
	call	*24(%rax)
	.p2align 4,,10
	.p2align 3
.L1492:
	movq	$0, 96(%rsp)
	jmp	.L1478
	.p2align 4,,10
	.p2align 3
.L1540:
	movq	%rbx, 88(%rdi)
	jmp	.L1541
	.p2align 4,,10
	.p2align 3
.L1449:
	movq	8(%rbx), %rax
	leaq	24(%rax), %rdi
	call	pthread_mutex_lock@PLT
.L1457:
	movq	8(%rbx), %rax
	cmpb	$0, 64(%rax)
	leaq	24(%rax), %rdi
	jne	.L1458
	movb	$1, 64(%rax)
	call	pthread_mutex_unlock@PLT
	movq	8(%rbx), %r12
	movq	$0, 0(%rbp)
	cmpq	$0, 96(%r12)
	je	.L1465
	movq	96(%r12), %rax
	movq	%rbp, (%rax)
	movq	%rbp, 96(%r12)
.L1466:
	movq	40(%r13), %rbx
	cmpb	$0, 40(%rbx)
	je	.L1467
	data16	leaq	_ZN4asio6detail15keyword_tss_ptrINS0_10call_stackINS0_15task_io_serviceENS0_27task_io_service_thread_infoEE7contextEE6value_E@tlsgd(%rip), %rdi
	.value	0x6666
	rex64
	call	__tls_get_addr@PLT
	movq	(%rax), %rax
	testq	%rax, %rax
	jne	.L1470
	jmp	.L1467
	.p2align 4,,10
	.p2align 3
.L1468:
	movq	16(%rax), %rax
	testq	%rax, %rax
	je	.L1467
.L1470:
	cmpq	(%rax), %rbx
	jne	.L1468
	movq	8(%rax), %rax
	testq	%rax, %rax
	je	.L1467
	addq	$1, 24(%rax)
	cmpq	$0, 16(%rax)
	movq	$0, (%r12)
	je	.L1471
	movq	16(%rax), %rdx
	movq	%r12, (%rdx)
	movq	%r12, 16(%rax)
	jmp	.L1444
	.p2align 4,,10
	.p2align 3
.L1467:
	lock addq	$1, 184(%rbx)
	leaq	48(%rbx), %rbp
	movq	%rbp, %rdi
	call	pthread_mutex_lock@PLT
	cmpq	$0, 200(%rbx)
	movq	$0, (%r12)
	je	.L1472
	movq	200(%rbx), %rax
	movq	%r12, (%rax)
	movq	%r12, 200(%rbx)
.L1473:
	movq	136(%rbx), %rax
	orq	$1, %rax
	movq	%rax, 136(%rbx)
	cmpq	$1, %rax
	je	.L1474
	movq	%rbp, %rdi
	call	pthread_mutex_unlock@PLT
	leaq	88(%rbx), %rdi
	call	pthread_cond_signal@PLT
	jmp	.L1444
	.p2align 4,,10
	.p2align 3
.L1462:
	movq	%rbp, %xmm0
	punpcklqdq	%xmm0, %xmm0
	movups	%xmm0, 72(%rax)
	jmp	.L1763
	.p2align 4,,10
	.p2align 3
.L1778:
	movq	(%rsp), %rbx
	movq	8(%rsp), %rbp
	cmpb	$0, 40(%rbx)
	je	.L1543
	data16	leaq	_ZN4asio6detail15keyword_tss_ptrINS0_10call_stackINS0_15task_io_serviceENS0_27task_io_service_thread_infoEE7contextEE6value_E@tlsgd(%rip), %rdi
	.value	0x6666
	rex64
	call	__tls_get_addr@PLT
	movq	(%rax), %rax
	testq	%rax, %rax
	jne	.L1546
	.p2align 4,,10
	.p2align 3
.L1543:
	lock addq	$1, 184(%rbx)
	leaq	48(%rbx), %r12
	movq	%r12, %rdi
	call	pthread_mutex_lock@PLT
	cmpq	$0, 200(%rbx)
	movq	$0, 0(%rbp)
	je	.L1548
	movq	200(%rbx), %rax
	movq	%rbp, (%rax)
	movq	%rbp, 200(%rbx)
.L1549:
	movq	136(%rbx), %rax
	orq	$1, %rax
	movq	%rax, 136(%rbx)
	cmpq	$1, %rax
	je	.L1550
	movq	%r12, %rdi
	call	pthread_mutex_unlock@PLT
	leaq	88(%rbx), %rdi
	call	pthread_cond_signal@PLT
	jmp	.L1542
	.p2align 4,,10
	.p2align 3
.L1544:
	movq	16(%rax), %rax
	testq	%rax, %rax
	je	.L1543
.L1546:
	cmpq	(%rax), %rbx
	jne	.L1544
	movq	8(%rax), %rax
	testq	%rax, %rax
	je	.L1543
	addq	$1, 24(%rax)
	cmpq	$0, 16(%rax)
	movq	$0, 0(%rbp)
	je	.L1547
	movq	16(%rax), %rdx
	movq	%rbp, (%rdx)
	movq	%rbp, 16(%rax)
	jmp	.L1542
	.p2align 4,,10
	.p2align 3
.L1550:
	cmpb	$0, 176(%rbx)
	jne	.L1552
	movq	144(%rbx), %rax
	testq	%rax, %rax
	je	.L1552
	movb	$1, 176(%rbx)
	leaq	88(%rax), %rdx
	leaq	80(%rsp), %rcx
	movl	$3, %esi
	movl	$-2147483639, 80(%rsp)
	movq	%rdx, 84(%rsp)
	movl	88(%rax), %edx
	movl	96(%rax), %edi
	call	epoll_ctl@PLT
.L1552:
	movq	%r12, %rdi
	call	pthread_mutex_unlock@PLT
	jmp	.L1542
	.p2align 4,,10
	.p2align 3
.L1474:
	cmpb	$0, 176(%rbx)
	jne	.L1476
	movq	144(%rbx), %rax
	testq	%rax, %rax
	je	.L1476
	movb	$1, 176(%rbx)
	leaq	88(%rax), %rdx
	leaq	80(%rsp), %rcx
	movl	$3, %esi
	movl	$-2147483639, 80(%rsp)
	movq	%rdx, 84(%rsp)
	movl	88(%rax), %edx
	movl	96(%rax), %edi
	call	epoll_ctl@PLT
.L1476:
	movq	%rbp, %rdi
	jmp	.L1763
	.p2align 4,,10
	.p2align 3
.L1777:
	movq	88(%rdi), %rbx
	jmp	.L1538
	.p2align 4,,10
	.p2align 3
.L1579:
	movl	12(%rbp), %eax
	leal	-1(%rax), %edx
	movl	%edx, 12(%rbp)
	jmp	.L1580
	.p2align 4,,10
	.p2align 3
.L1602:
	movl	12(%rbp), %eax
	leal	-1(%rax), %edx
	movl	%edx, 12(%rbp)
	jmp	.L1603
	.p2align 4,,10
	.p2align 3
.L1617:
	movl	12(%rbp), %eax
	leal	-1(%rax), %edx
	movl	%edx, 12(%rbp)
	jmp	.L1618
	.p2align 4,,10
	.p2align 3
.L1609:
	movl	12(%rbp), %eax
	leal	-1(%rax), %edx
	movl	%edx, 12(%rbp)
	jmp	.L1610
	.p2align 4,,10
	.p2align 3
.L1587:
	movl	12(%rbp), %eax
	leal	-1(%rax), %edx
	movl	%edx, 12(%rbp)
	jmp	.L1588
	.p2align 4,,10
	.p2align 3
.L1594:
	movl	12(%rbp), %eax
	leal	-1(%rax), %edx
	movl	%edx, 12(%rbp)
	jmp	.L1595
	.p2align 4,,10
	.p2align 3
.L1565:
	movl	8(%rbp), %eax
	leal	-1(%rax), %edx
	movl	%edx, 8(%rbp)
	jmp	.L1566
	.p2align 4,,10
	.p2align 3
.L1557:
	movl	8(%r12), %eax
	leal	-1(%rax), %edx
	movl	%edx, 8(%r12)
	jmp	.L1558
	.p2align 4,,10
	.p2align 3
.L1514:
	movl	8(%rbp), %eax
	leal	-1(%rax), %edx
	movl	%edx, 8(%rbp)
	jmp	.L1515
	.p2align 4,,10
	.p2align 3
.L1506:
	movl	8(%rbp), %eax
	leal	-1(%rax), %edx
	movl	%edx, 8(%rbp)
	jmp	.L1507
	.p2align 4,,10
	.p2align 3
.L1780:
	movq	0(%rbp), %rax
	movq	%rbp, %rdi
	call	*16(%rax)
	testq	%rbx, %rbx
	je	.L1568
	movl	$-1, %eax
	lock xaddl	%eax, 12(%rbp)
.L1569:
	cmpl	$1, %eax
	jne	.L1564
	movq	0(%rbp), %rax
	movq	%rbp, %rdi
	call	*24(%rax)
	jmp	.L1564
	.p2align 4,,10
	.p2align 3
.L1779:
	movq	(%r12), %rax
	movq	%r12, %rdi
	call	*16(%rax)
	testq	%rbx, %rbx
	je	.L1560
	movl	$-1, %eax
	lock xaddl	%eax, 12(%r12)
.L1561:
	cmpl	$1, %eax
	jne	.L1556
	movq	(%r12), %rax
	movq	%r12, %rdi
	call	*24(%rax)
	jmp	.L1556
	.p2align 4,,10
	.p2align 3
.L1781:
	movzbl	104(%rbp), %edx
	movb	%dl, 0(%rbp)
	movq	%rbp, (%rax)
	jmp	.L1444
	.p2align 4,,10
	.p2align 3
.L1465:
	movq	%rbp, %xmm0
	punpcklqdq	%xmm0, %xmm0
	movups	%xmm0, 88(%r12)
	jmp	.L1466
	.p2align 4,,10
	.p2align 3
.L1522:
	movl	8(%r12), %eax
	leal	-1(%rax), %edx
	movl	%edx, 8(%r12)
	jmp	.L1523
	.p2align 4,,10
	.p2align 3
.L1493:
	movl	8(%rbp), %eax
	leal	-1(%rax), %edx
	movl	%edx, 8(%rbp)
	jmp	.L1494
	.p2align 4,,10
	.p2align 3
.L1530:
	movl	8(%rbp), %eax
	leal	-1(%rax), %edx
	movl	%edx, 8(%rbp)
	jmp	.L1531
	.p2align 4,,10
	.p2align 3
.L1485:
	movl	8(%rbp), %eax
	leal	-1(%rax), %edx
	movl	%edx, 8(%rbp)
	jmp	.L1486
	.p2align 4,,10
	.p2align 3
.L1560:
	movl	12(%r12), %eax
	leal	-1(%rax), %edx
	movl	%edx, 12(%r12)
	jmp	.L1561
	.p2align 4,,10
	.p2align 3
.L1568:
	movl	12(%rbp), %eax
	leal	-1(%rax), %edx
	movl	%edx, 12(%rbp)
	jmp	.L1569
	.p2align 4,,10
	.p2align 3
.L1509:
	movl	12(%rbp), %eax
	leal	-1(%rax), %edx
	movl	%edx, 12(%rbp)
	jmp	.L1510
	.p2align 4,,10
	.p2align 3
.L1517:
	movl	12(%rbp), %eax
	leal	-1(%rax), %edx
	movl	%edx, 12(%rbp)
	jmp	.L1518
	.p2align 4,,10
	.p2align 3
.L1472:
	movq	%r12, %xmm0
	punpcklqdq	%xmm0, %xmm0
	movups	%xmm0, 192(%rbx)
	jmp	.L1473
	.p2align 4,,10
	.p2align 3
.L1774:
	movzbl	104(%rbp), %edx
	movb	%dl, 0(%rbp)
	movq	%rbp, (%rax)
	jmp	.L1500
	.p2align 4,,10
	.p2align 3
.L1776:
	movzbl	104(%rbp), %edx
	movb	%dl, 0(%rbp)
	movq	%rbp, (%rax)
	jmp	.L1535
	.p2align 4,,10
	.p2align 3
.L1548:
	movq	%rbp, %xmm0
	punpcklqdq	%xmm0, %xmm0
	movups	%xmm0, 192(%rbx)
	jmp	.L1549
	.p2align 4,,10
	.p2align 3
.L1471:
	movq	%r12, %xmm0
	punpcklqdq	%xmm0, %xmm0
	movups	%xmm0, 8(%rax)
	jmp	.L1444
	.p2align 4,,10
	.p2align 3
.L1525:
	movl	12(%r12), %eax
	leal	-1(%rax), %edx
	movl	%edx, 12(%r12)
	jmp	.L1526
	.p2align 4,,10
	.p2align 3
.L1533:
	movl	12(%rbp), %eax
	leal	-1(%rax), %edx
	movl	%edx, 12(%rbp)
	jmp	.L1534
	.p2align 4,,10
	.p2align 3
.L1496:
	movl	12(%rbp), %eax
	leal	-1(%rax), %edx
	movl	%edx, 12(%rbp)
	jmp	.L1497
	.p2align 4,,10
	.p2align 3
.L1488:
	movl	12(%rbp), %eax
	leal	-1(%rax), %edx
	movl	%edx, 12(%rbp)
	jmp	.L1489
.L1547:
	movq	%rbp, %xmm0
	punpcklqdq	%xmm0, %xmm0
	movups	%xmm0, 8(%rax)
	jmp	.L1542
.L1771:
	call	__stack_chk_fail@PLT
.L1782:
.LEHB60:
	call	_ZSt25__throw_bad_function_callv@PLT
.LEHE60:
.L1775:
.LEHB61:
	call	_ZSt25__throw_bad_function_callv@PLT
.LEHE61:
.L1627:
	endbr64
	movq	%rax, %rbx
	jmp	.L1479
.L1626:
	endbr64
	movq	%rax, %rbx
	jmp	.L1539
.L1624:
	endbr64
	movq	%rax, %rbx
	jmp	.L1574
.L1625:
	endbr64
	movq	%rax, %rbx
	jmp	.L1451
.L1621:
	endbr64
	movq	%rax, %rbp
	jmp	.L1430
.L1620:
	endbr64
	movq	%rax, %rbp
	jmp	.L1421
.L1622:
	endbr64
	movq	%rax, %rbx
	jmp	.L1575
.L1623:
	endbr64
	movq	%rax, %rbx
	jmp	.L1436
	.section	.gcc_except_table
.LLSDA9550:
	.byte	0xff
	.byte	0xff
	.byte	0x1
	.uleb128 .LLSDACSE9550-.LLSDACSB9550
.LLSDACSB9550:
	.uleb128 .LEHB52-.LFB9550
	.uleb128 .LEHE52-.LEHB52
	.uleb128 .L1620-.LFB9550
	.uleb128 0
	.uleb128 .LEHB53-.LFB9550
	.uleb128 .LEHE53-.LEHB53
	.uleb128 .L1621-.LFB9550
	.uleb128 0
	.uleb128 .LEHB54-.LFB9550
	.uleb128 .LEHE54-.LEHB54
	.uleb128 .L1623-.LFB9550
	.uleb128 0
	.uleb128 .LEHB55-.LFB9550
	.uleb128 .LEHE55-.LEHB55
	.uleb128 .L1622-.LFB9550
	.uleb128 0
	.uleb128 .LEHB56-.LFB9550
	.uleb128 .LEHE56-.LEHB56
	.uleb128 .L1625-.LFB9550
	.uleb128 0
	.uleb128 .LEHB57-.LFB9550
	.uleb128 .LEHE57-.LEHB57
	.uleb128 .L1627-.LFB9550
	.uleb128 0
	.uleb128 .LEHB58-.LFB9550
	.uleb128 .LEHE58-.LEHB58
	.uleb128 .L1626-.LFB9550
	.uleb128 0
	.uleb128 .LEHB59-.LFB9550
	.uleb128 .LEHE59-.LEHB59
	.uleb128 .L1624-.LFB9550
	.uleb128 0
	.uleb128 .LEHB60-.LFB9550
	.uleb128 .LEHE60-.LEHB60
	.uleb128 .L1624-.LFB9550
	.uleb128 0
	.uleb128 .LEHB61-.LFB9550
	.uleb128 .LEHE61-.LEHB61
	.uleb128 .L1626-.LFB9550
	.uleb128 0
.LLSDACSE9550:
	.text
	.cfi_endproc
	.section	.text.unlikely
	.cfi_startproc
	.cfi_personality 0x9b,DW.ref.__gxx_personality_v0
	.cfi_lsda 0x1b,.LLSDAC9550
	.type	_ZN4asio6detail15wrapped_handlerINS_10io_service6strandEZN7asiopal8Executor5StartERKNSt6chrono10time_pointINS6_3_V212steady_clockENS6_8durationIlSt5ratioILl1ELl1000000000EEEEEERKSt8functionIFvvEEEUlRKSt10error_codeE_NS0_26is_continuation_if_runningEEclISM_EEvRKT_.isra.0.cold, @function
_ZN4asio6detail15wrapped_handlerINS_10io_service6strandEZN7asiopal8Executor5StartERKNSt6chrono10time_pointINS6_3_V212steady_clockENS6_8durationIlSt5ratioILl1ELl1000000000EEEEEERKSt8functionIFvvEEEUlRKSt10error_codeE_NS0_26is_continuation_if_runningEEclISM_EEvRKT_.isra.0.cold:
.LFSB9550:
.L1479:
	.cfi_def_cfa_offset 496
	.cfi_offset 3, -56
	.cfi_offset 6, -48
	.cfi_offset 12, -40
	.cfi_offset 13, -32
	.cfi_offset 14, -24
	.cfi_offset 15, -16
	movq	288(%rsp), %rax
	testq	%rax, %rax
	je	.L1480
	movl	$3, %edx
	movq	%r13, %rsi
	movq	%r13, %rdi
	call	*%rax
.L1480:
	movq	264(%rsp), %rdi
	testq	%rdi, %rdi
	je	.L1482
	call	_ZNSt16_Sp_counted_baseILN9__gnu_cxx12_Lock_policyE2EE10_M_releaseEv@PLT
	jmp	.L1482
.L1539:
	sfence
	movq	%r15, %rdi
	call	_ZZN7asiopal8Executor5StartERKNSt6chrono10time_pointINS1_3_V212steady_clockENS1_8durationIlSt5ratioILl1ELl1000000000EEEEEERKSt8functionIFvvEEENUlRKSt10error_codeE_D1Ev
.L1482:
	leaq	96(%rsp), %rsi
	leaq	88(%rsp), %rdi
	call	_ZN4asio6detail18completion_handlerINS0_7binder1IZN7asiopal8Executor5StartERKNSt6chrono10time_pointINS5_3_V212steady_clockENS5_8durationIlSt5ratioILl1ELl1000000000EEEEEERKSt8functionIFvvEEEUlRKSt10error_codeE_SL_EEE3ptr5resetEv.isra.0
	movq	%rsp, %rdi
	call	_ZN4asio6detail14strand_service16on_dispatch_exitD1Ev@PLT
	data16	leaq	_ZN4asio6detail15keyword_tss_ptrINS0_10call_stackINS0_14strand_service11strand_implEhE7contextEE6value_E@tlsgd(%rip), %rdi
	.value	0x6666
	rex64
	call	__tls_get_addr@PLT
	movq	64(%rsp), %rdx
	movq	%rdx, (%rax)
.L1454:
	leaq	32(%rsp), %rsi
	leaq	24(%rsp), %rdi
	call	_ZN4asio6detail18completion_handlerINS0_7binder1IZN7asiopal8Executor5StartERKNSt6chrono10time_pointINS5_3_V212steady_clockENS5_8durationIlSt5ratioILl1ELl1000000000EEEEEERKSt8functionIFvvEEEUlRKSt10error_codeE_SL_EEE3ptr5resetEv.isra.0
.L1575:
	movq	%r12, %rdi
	call	_ZZN7asiopal8Executor5StartERKNSt6chrono10time_pointINS1_3_V212steady_clockENS1_8durationIlSt5ratioILl1ELl1000000000EEEEEERKSt8functionIFvvEEENUlRKSt10error_codeE_D1Ev
.L1439:
	leaq	176(%rsp), %rdi
	movq	%rbx, %rbp
	call	_ZZN7asiopal8Executor5StartERKNSt6chrono10time_pointINS1_3_V212steady_clockENS1_8durationIlSt5ratioILl1ELl1000000000EEEEEERKSt8functionIFvvEEENUlRKSt10error_codeE_D1Ev
.L1433:
	leaq	112(%rsp), %rdi
	call	_ZZN7asiopal8Executor5StartERKNSt6chrono10time_pointINS1_3_V212steady_clockENS1_8durationIlSt5ratioILl1ELl1000000000EEEEEERKSt8functionIFvvEEENUlRKSt10error_codeE_D1Ev
	movq	%rbp, %rdi
.LEHB62:
	call	_Unwind_Resume@PLT
.LEHE62:
.L1421:
	movq	144(%rsp), %rax
	testq	%rax, %rax
	je	.L1422
	movl	$3, %edx
	movq	%r12, %rsi
	movq	%r12, %rdi
	call	*%rax
.L1422:
	movq	120(%rsp), %rdi
	testq	%rdi, %rdi
	je	.L1424
	call	_ZNSt16_Sp_counted_baseILN9__gnu_cxx12_Lock_policyE2EE10_M_releaseEv@PLT
.L1424:
	movq	%rbp, %rdi
.LEHB63:
	call	_Unwind_Resume@PLT
.LEHE63:
.L1451:
	movq	56(%rbp), %rax
	testq	%rax, %rax
	je	.L1452
	movl	$3, %edx
	movq	%r14, %rsi
	movq	%r14, %rdi
	call	*%rax
.L1452:
	movq	32(%rbp), %rdi
	testq	%rdi, %rdi
	je	.L1454
	call	_ZNSt16_Sp_counted_baseILN9__gnu_cxx12_Lock_policyE2EE10_M_releaseEv@PLT
	jmp	.L1454
.L1430:
	movq	208(%rsp), %rax
	testq	%rax, %rax
	je	.L1431
	movl	$3, %edx
	movq	%r12, %rsi
	movq	%r12, %rdi
	call	*%rax
.L1431:
	movq	184(%rsp), %rdi
	testq	%rdi, %rdi
	je	.L1433
	call	_ZNSt16_Sp_counted_baseILN9__gnu_cxx12_Lock_policyE2EE10_M_releaseEv@PLT
	jmp	.L1433
.L1574:
	sfence
	leaq	336(%rsp), %r12
	jmp	.L1575
.L1436:
	movq	368(%rsp), %rax
	testq	%rax, %rax
	je	.L1437
	movl	$3, %edx
	movq	%rbp, %rsi
	movq	%rbp, %rdi
	call	*%rax
.L1437:
	movq	344(%rsp), %rdi
	testq	%rdi, %rdi
	je	.L1439
	call	_ZNSt16_Sp_counted_baseILN9__gnu_cxx12_Lock_policyE2EE10_M_releaseEv@PLT
	jmp	.L1439
	.cfi_endproc
.LFE9550:
	.section	.gcc_except_table
.LLSDAC9550:
	.byte	0xff
	.byte	0xff
	.byte	0x1
	.uleb128 .LLSDACSEC9550-.LLSDACSBC9550
.LLSDACSBC9550:
	.uleb128 .LEHB62-.LCOLDB33
	.uleb128 .LEHE62-.LEHB62
	.uleb128 0
	.uleb128 0
	.uleb128 .LEHB63-.LCOLDB33
	.uleb128 .LEHE63-.LEHB63
	.uleb128 0
	.uleb128 0
.LLSDACSEC9550:
	.section	.text.unlikely
	.text
	.size	_ZN4asio6detail15wrapped_handlerINS_10io_service6strandEZN7asiopal8Executor5StartERKNSt6chrono10time_pointINS6_3_V212steady_clockENS6_8durationIlSt5ratioILl1ELl1000000000EEEEEERKSt8functionIFvvEEEUlRKSt10error_codeE_NS0_26is_continuation_if_runningEEclISM_EEvRKT_.isra.0, .-_ZN4asio6detail15wrapped_handlerINS_10io_service6strandEZN7asiopal8Executor5StartERKNSt6chrono10time_pointINS6_3_V212steady_clockENS6_8durationIlSt5ratioILl1ELl1000000000EEEEEERKSt8functionIFvvEEEUlRKSt10error_codeE_NS0_26is_continuation_if_runningEEclISM_EEvRKT_.isra.0
	.section	.text.unlikely
	.size	_ZN4asio6detail15wrapped_handlerINS_10io_service6strandEZN7asiopal8Executor5StartERKNSt6chrono10time_pointINS6_3_V212steady_clockENS6_8durationIlSt5ratioILl1ELl1000000000EEEEEERKSt8functionIFvvEEEUlRKSt10error_codeE_NS0_26is_continuation_if_runningEEclISM_EEvRKT_.isra.0.cold, .-_ZN4asio6detail15wrapped_handlerINS_10io_service6strandEZN7asiopal8Executor5StartERKNSt6chrono10time_pointINS6_3_V212steady_clockENS6_8durationIlSt5ratioILl1ELl1000000000EEEEEERKSt8functionIFvvEEEUlRKSt10error_codeE_NS0_26is_continuation_if_runningEEclISM_EEvRKT_.isra.0.cold
.LCOLDE33:
	.text
.LHOTE33:
	.section	.text.unlikely
.LCOLDB34:
	.text
.LHOTB34:
	.p2align 4
	.type	_ZN4asio6detail18completion_handlerINS0_17rewrapped_handlerINS0_7binder1INS0_15wrapped_handlerINS_10io_service6strandEZN7asiopal8Executor5StartERKNSt6chrono10time_pointINS9_3_V212steady_clockENS9_8durationIlSt5ratioILl1ELl1000000000EEEEEERKSt8functionIFvvEEEUlRKSt10error_codeE_NS0_26is_continuation_if_runningEEESP_EESS_EEE11do_completeEPNS0_15task_io_serviceEPNS0_25task_io_service_operationESR_m, @function
_ZN4asio6detail18completion_handlerINS0_17rewrapped_handlerINS0_7binder1INS0_15wrapped_handlerINS_10io_service6strandEZN7asiopal8Executor5StartERKNSt6chrono10time_pointINS9_3_V212steady_clockENS9_8durationIlSt5ratioILl1ELl1000000000EEEEEERKSt8functionIFvvEEEUlRKSt10error_codeE_NS0_26is_continuation_if_runningEEESP_EESS_EEE11do_completeEPNS0_15task_io_serviceEPNS0_25task_io_service_operationESR_m:
.LFB9152:
	.cfi_startproc
	.cfi_personality 0x9b,DW.ref.__gxx_personality_v0
	.cfi_lsda 0x1b,.LLSDA9152
	endbr64
	pushq	%r14
	.cfi_def_cfa_offset 16
	.cfi_offset 14, -16
	pxor	%xmm0, %xmm0
	pushq	%r13
	.cfi_def_cfa_offset 24
	.cfi_offset 13, -24
	pushq	%r12
	.cfi_def_cfa_offset 32
	.cfi_offset 12, -32
	movq	%rdi, %r12
	pushq	%rbp
	.cfi_def_cfa_offset 40
	.cfi_offset 6, -40
	pushq	%rbx
	.cfi_def_cfa_offset 48
	.cfi_offset 3, -48
	movq	%rsi, %rbx
	subq	$208, %rsp
	.cfi_def_cfa_offset 256
	movdqu	24(%rsi), %xmm1
	movq	%fs:40, %rax
	movq	%rax, 200(%rsp)
	xorl	%eax, %eax
	leaq	24(%rsi), %rax
	movq	%rsi, 8(%rsp)
	movq	%rax, (%rsp)
	movq	56(%rsi), %rax
	movq	%rsi, 16(%rsp)
	movq	$0, 64(%rsp)
	movaps	%xmm1, 32(%rsp)
	movups	%xmm0, 24(%rsi)
	testq	%rax, %rax
	je	.L1784
	leaq	48(%rsp), %rbp
	leaq	40(%rsi), %rsi
	movl	$2, %edx
	movq	%rbp, %rdi
.LEHB64:
	call	*%rax
.LEHE64:
	movdqu	56(%rbx), %xmm7
	movaps	%xmm7, 64(%rsp)
.L1784:
	movdqu	72(%rbx), %xmm2
	movdqu	104(%rbx), %xmm4
	pxor	%xmm0, %xmm0
	movq	$0, 144(%rsp)
	movdqu	88(%rbx), %xmm3
	movq	136(%rbx), %rax
	movups	%xmm0, 72(%rbx)
	movaps	%xmm2, 80(%rsp)
	movaps	%xmm3, 96(%rsp)
	movaps	%xmm4, 112(%rsp)
	movups	%xmm0, 104(%rbx)
	testq	%rax, %rax
	je	.L1786
	leaq	128(%rsp), %rbp
	leaq	120(%rbx), %rsi
	movl	$2, %edx
	movq	%rbp, %rdi
.LEHB65:
	call	*%rax
.LEHE65:
	movdqu	136(%rbx), %xmm7
	movaps	%xmm7, 144(%rsp)
.L1786:
	movq	16(%rsp), %rbp
	movdqu	152(%rbx), %xmm5
	pxor	%xmm0, %xmm0
	leaq	32(%rsp), %r13
	movdqu	168(%rbx), %xmm6
	movq	%r13, (%rsp)
	movaps	%xmm5, 160(%rsp)
	movups	%xmm0, 152(%rbx)
	movaps	%xmm6, 176(%rsp)
	testq	%rbp, %rbp
	je	.L1792
	movq	160(%rbp), %r14
	testq	%r14, %r14
	je	.L1797
	movq	_ZL28__gthrw___pthread_key_createPjPFvPvE@GOTPCREL(%rip), %rbx
	testq	%rbx, %rbx
	je	.L1798
	movl	$-1, %eax
	lock xaddl	%eax, 8(%r14)
.L1799:
	cmpl	$1, %eax
	jne	.L1797
	movq	(%r14), %rax
	movq	%r14, %rdi
	call	*16(%rax)
	testq	%rbx, %rbx
	je	.L1801
	movl	$-1, %eax
	lock xaddl	%eax, 12(%r14)
.L1802:
	cmpl	$1, %eax
	je	.L1957
	.p2align 4,,10
	.p2align 3
.L1797:
	movq	136(%rbp), %rax
	testq	%rax, %rax
	je	.L1803
	leaq	120(%rbp), %rdi
	movl	$3, %edx
	movq	%rdi, %rsi
	call	*%rax
.L1803:
	movq	112(%rbp), %r14
	testq	%r14, %r14
	je	.L1805
	movq	_ZL28__gthrw___pthread_key_createPjPFvPvE@GOTPCREL(%rip), %rbx
	testq	%rbx, %rbx
	je	.L1806
	movl	$-1, %eax
	lock xaddl	%eax, 8(%r14)
.L1807:
	cmpl	$1, %eax
	jne	.L1805
	movq	(%r14), %rax
	movq	%r14, %rdi
	call	*16(%rax)
	testq	%rbx, %rbx
	je	.L1809
	movl	$-1, %eax
	lock xaddl	%eax, 12(%r14)
.L1810:
	cmpl	$1, %eax
	je	.L1958
	.p2align 4,,10
	.p2align 3
.L1805:
	movq	80(%rbp), %r14
	testq	%r14, %r14
	je	.L1812
	movq	_ZL28__gthrw___pthread_key_createPjPFvPvE@GOTPCREL(%rip), %rbx
	testq	%rbx, %rbx
	je	.L1813
	movl	$-1, %eax
	lock xaddl	%eax, 8(%r14)
.L1814:
	cmpl	$1, %eax
	jne	.L1812
	movq	(%r14), %rax
	movq	%r14, %rdi
	call	*16(%rax)
	testq	%rbx, %rbx
	je	.L1816
	movl	$-1, %eax
	lock xaddl	%eax, 12(%r14)
.L1817:
	cmpl	$1, %eax
	je	.L1959
	.p2align 4,,10
	.p2align 3
.L1812:
	movq	56(%rbp), %rax
	testq	%rax, %rax
	je	.L1818
	leaq	40(%rbp), %rdi
	movl	$3, %edx
	movq	%rdi, %rsi
	call	*%rax
.L1818:
	movq	32(%rbp), %rbp
	testq	%rbp, %rbp
	je	.L1820
	movq	_ZL28__gthrw___pthread_key_createPjPFvPvE@GOTPCREL(%rip), %rbx
	testq	%rbx, %rbx
	je	.L1821
	movl	$-1, %eax
	lock xaddl	%eax, 8(%rbp)
.L1822:
	cmpl	$1, %eax
	jne	.L1820
	movq	0(%rbp), %rax
	movq	%rbp, %rdi
	call	*16(%rax)
	testq	%rbx, %rbx
	je	.L1824
	movl	$-1, %eax
	lock xaddl	%eax, 12(%rbp)
.L1825:
	cmpl	$1, %eax
	je	.L1960
	.p2align 4,,10
	.p2align 3
.L1820:
	movq	$0, 16(%rsp)
.L1792:
	movq	8(%rsp), %rbp
	testq	%rbp, %rbp
	je	.L1826
	data16	leaq	_ZN4asio6detail15keyword_tss_ptrINS0_10call_stackINS0_15task_io_serviceENS0_27task_io_service_thread_infoEE7contextEE6value_E@tlsgd(%rip), %rdi
	.value	0x6666
	rex64
	call	__tls_get_addr@PLT
	movq	(%rax), %rax
	testq	%rax, %rax
	je	.L1827
	movq	8(%rax), %rax
	testq	%rax, %rax
	je	.L1827
	cmpq	$0, (%rax)
	je	.L1961
.L1827:
	movq	%rbp, %rdi
	call	_ZdlPv@PLT
.L1828:
	movq	$0, 8(%rsp)
.L1826:
	testq	%r12, %r12
	je	.L1829
	leaq	176(%rsp), %rsi
	leaq	96(%rsp), %rdi
.LEHB66:
	call	_ZN4asio6detail15wrapped_handlerINS_10io_service6strandEZN7asiopal8Executor5StartERKNSt6chrono10time_pointINS6_3_V212steady_clockENS6_8durationIlSt5ratioILl1ELl1000000000EEEEEERKSt8functionIFvvEEEUlRKSt10error_codeE_NS0_26is_continuation_if_runningEEclISM_EEvRKT_.isra.0
.LEHE66:
	sfence
.L1829:
	movq	168(%rsp), %rbp
	testq	%rbp, %rbp
	je	.L1831
	movq	_ZL28__gthrw___pthread_key_createPjPFvPvE@GOTPCREL(%rip), %rbx
	testq	%rbx, %rbx
	je	.L1832
	movl	$-1, %eax
	lock xaddl	%eax, 8(%rbp)
	cmpl	$1, %eax
	je	.L1962
	.p2align 4,,10
	.p2align 3
.L1831:
	movq	144(%rsp), %rax
	testq	%rax, %rax
	je	.L1837
	leaq	128(%rsp), %rdi
	movl	$3, %edx
	movq	%rdi, %rsi
	call	*%rax
.L1837:
	movq	120(%rsp), %rbp
	testq	%rbp, %rbp
	je	.L1839
	movq	_ZL28__gthrw___pthread_key_createPjPFvPvE@GOTPCREL(%rip), %rbx
	testq	%rbx, %rbx
	je	.L1840
	movl	$-1, %eax
	lock xaddl	%eax, 8(%rbp)
	cmpl	$1, %eax
	je	.L1963
	.p2align 4,,10
	.p2align 3
.L1839:
	movq	88(%rsp), %rbp
	testq	%rbp, %rbp
	je	.L1846
	movq	_ZL28__gthrw___pthread_key_createPjPFvPvE@GOTPCREL(%rip), %rbx
	testq	%rbx, %rbx
	je	.L1847
	movl	$-1, %eax
	lock xaddl	%eax, 8(%rbp)
	cmpl	$1, %eax
	je	.L1964
	.p2align 4,,10
	.p2align 3
.L1846:
	movq	64(%rsp), %rax
	testq	%rax, %rax
	je	.L1852
	leaq	48(%rsp), %rdi
	movl	$3, %edx
	movq	%rdi, %rsi
	call	*%rax
.L1852:
	movq	40(%rsp), %rbp
	testq	%rbp, %rbp
	je	.L1854
	movq	_ZL28__gthrw___pthread_key_createPjPFvPvE@GOTPCREL(%rip), %rbx
	testq	%rbx, %rbx
	je	.L1855
	movl	$-1, %eax
	lock xaddl	%eax, 8(%rbp)
	cmpl	$1, %eax
	je	.L1965
	.p2align 4,,10
	.p2align 3
.L1854:
	movq	16(%rsp), %rbp
	testq	%rbp, %rbp
	je	.L1860
	movq	160(%rbp), %r12
	testq	%r12, %r12
	je	.L1862
	movq	_ZL28__gthrw___pthread_key_createPjPFvPvE@GOTPCREL(%rip), %rbx
	testq	%rbx, %rbx
	je	.L1863
	movl	$-1, %eax
	lock xaddl	%eax, 8(%r12)
.L1864:
	cmpl	$1, %eax
	jne	.L1862
	movq	(%r12), %rax
	movq	%r12, %rdi
	call	*16(%rax)
	testq	%rbx, %rbx
	je	.L1866
	movl	$-1, %eax
	lock xaddl	%eax, 12(%r12)
.L1867:
	cmpl	$1, %eax
	je	.L1966
	.p2align 4,,10
	.p2align 3
.L1862:
	movq	136(%rbp), %rax
	testq	%rax, %rax
	je	.L1868
	leaq	120(%rbp), %rdi
	movl	$3, %edx
	movq	%rdi, %rsi
	call	*%rax
.L1868:
	movq	112(%rbp), %r12
	testq	%r12, %r12
	je	.L1870
	movq	_ZL28__gthrw___pthread_key_createPjPFvPvE@GOTPCREL(%rip), %rbx
	testq	%rbx, %rbx
	je	.L1871
	movl	$-1, %eax
	lock xaddl	%eax, 8(%r12)
.L1872:
	cmpl	$1, %eax
	jne	.L1870
	movq	(%r12), %rax
	movq	%r12, %rdi
	call	*16(%rax)
	testq	%rbx, %rbx
	je	.L1874
	movl	$-1, %eax
	lock xaddl	%eax, 12(%r12)
.L1875:
	cmpl	$1, %eax
	je	.L1967
	.p2align 4,,10
	.p2align 3
.L1870:
	movq	80(%rbp), %r12
	testq	%r12, %r12
	je	.L1877
	movq	_ZL28__gthrw___pthread_key_createPjPFvPvE@GOTPCREL(%rip), %rbx
	testq	%rbx, %rbx
	je	.L1878
	movl	$-1, %eax
	lock xaddl	%eax, 8(%r12)
.L1879:
	cmpl	$1, %eax
	jne	.L1877
	movq	(%r12), %rax
	movq	%r12, %rdi
	call	*16(%rax)
	testq	%rbx, %rbx
	je	.L1881
	movl	$-1, %eax
	lock xaddl	%eax, 12(%r12)
.L1882:
	cmpl	$1, %eax
	je	.L1968
	.p2align 4,,10
	.p2align 3
.L1877:
	movq	56(%rbp), %rax
	testq	%rax, %rax
	je	.L1883
	leaq	40(%rbp), %rdi
	movl	$3, %edx
	movq	%rdi, %rsi
	call	*%rax
.L1883:
	movq	32(%rbp), %rbp
	testq	%rbp, %rbp
	je	.L1885
	movq	_ZL28__gthrw___pthread_key_createPjPFvPvE@GOTPCREL(%rip), %rbx
	testq	%rbx, %rbx
	je	.L1886
	movl	$-1, %eax
	lock xaddl	%eax, 8(%rbp)
.L1887:
	cmpl	$1, %eax
	jne	.L1885
	movq	0(%rbp), %rax
	movq	%rbp, %rdi
	call	*16(%rax)
	testq	%rbx, %rbx
	je	.L1889
	movl	$-1, %eax
	lock xaddl	%eax, 12(%rbp)
.L1890:
	cmpl	$1, %eax
	je	.L1969
	.p2align 4,,10
	.p2align 3
.L1885:
	movq	$0, 16(%rsp)
.L1860:
	movq	8(%rsp), %rbp
	testq	%rbp, %rbp
	je	.L1783
	data16	leaq	_ZN4asio6detail15keyword_tss_ptrINS0_10call_stackINS0_15task_io_serviceENS0_27task_io_service_thread_infoEE7contextEE6value_E@tlsgd(%rip), %rdi
	.value	0x6666
	rex64
	call	__tls_get_addr@PLT
	movq	(%rax), %rax
	testq	%rax, %rax
	je	.L1892
	movq	8(%rax), %rax
	testq	%rax, %rax
	je	.L1892
	cmpq	$0, (%rax)
	je	.L1970
.L1892:
	movq	%rbp, %rdi
	call	_ZdlPv@PLT
.L1783:
	movq	200(%rsp), %rax
	xorq	%fs:40, %rax
	jne	.L1971
	addq	$208, %rsp
	.cfi_remember_state
	.cfi_def_cfa_offset 48
	popq	%rbx
	.cfi_def_cfa_offset 40
	popq	%rbp
	.cfi_def_cfa_offset 32
	popq	%r12
	.cfi_def_cfa_offset 24
	popq	%r13
	.cfi_def_cfa_offset 16
	popq	%r14
	.cfi_def_cfa_offset 8
	ret
	.p2align 4,,10
	.p2align 3
.L1847:
	.cfi_restore_state
	movl	8(%rbp), %eax
	leal	-1(%rax), %edx
	movl	%edx, 8(%rbp)
	cmpl	$1, %eax
	jne	.L1846
.L1964:
	movq	0(%rbp), %rax
	movq	%rbp, %rdi
	call	*16(%rax)
	testq	%rbx, %rbx
	je	.L1850
	movl	$-1, %eax
	lock xaddl	%eax, 12(%rbp)
.L1851:
	cmpl	$1, %eax
	jne	.L1846
	movq	0(%rbp), %rax
	movq	%rbp, %rdi
	call	*24(%rax)
	jmp	.L1846
	.p2align 4,,10
	.p2align 3
.L1840:
	movl	8(%rbp), %eax
	leal	-1(%rax), %edx
	movl	%edx, 8(%rbp)
	cmpl	$1, %eax
	jne	.L1839
.L1963:
	movq	0(%rbp), %rax
	movq	%rbp, %rdi
	call	*16(%rax)
	testq	%rbx, %rbx
	je	.L1843
	movl	$-1, %eax
	lock xaddl	%eax, 12(%rbp)
.L1844:
	cmpl	$1, %eax
	jne	.L1839
	movq	0(%rbp), %rax
	movq	%rbp, %rdi
	call	*24(%rax)
	jmp	.L1839
	.p2align 4,,10
	.p2align 3
.L1832:
	movl	8(%rbp), %eax
	leal	-1(%rax), %edx
	movl	%edx, 8(%rbp)
	cmpl	$1, %eax
	jne	.L1831
.L1962:
	movq	0(%rbp), %rax
	movq	%rbp, %rdi
	call	*16(%rax)
	testq	%rbx, %rbx
	je	.L1835
	movl	$-1, %eax
	lock xaddl	%eax, 12(%rbp)
.L1836:
	cmpl	$1, %eax
	jne	.L1831
	movq	0(%rbp), %rax
	movq	%rbp, %rdi
	call	*24(%rax)
	jmp	.L1831
	.p2align 4,,10
	.p2align 3
.L1855:
	movl	8(%rbp), %eax
	leal	-1(%rax), %edx
	movl	%edx, 8(%rbp)
	cmpl	$1, %eax
	jne	.L1854
.L1965:
	movq	0(%rbp), %rax
	movq	%rbp, %rdi
	call	*16(%rax)
	testq	%rbx, %rbx
	je	.L1858
	movl	$-1, %eax
	lock xaddl	%eax, 12(%rbp)
.L1859:
	cmpl	$1, %eax
	jne	.L1854
	movq	0(%rbp), %rax
	movq	%rbp, %rdi
	call	*24(%rax)
	jmp	.L1854
	.p2align 4,,10
	.p2align 3
.L1821:
	movl	8(%rbp), %eax
	leal	-1(%rax), %edx
	movl	%edx, 8(%rbp)
	jmp	.L1822
	.p2align 4,,10
	.p2align 3
.L1798:
	movl	8(%r14), %eax
	leal	-1(%rax), %edx
	movl	%edx, 8(%r14)
	jmp	.L1799
	.p2align 4,,10
	.p2align 3
.L1806:
	movl	8(%r14), %eax
	leal	-1(%rax), %edx
	movl	%edx, 8(%r14)
	jmp	.L1807
	.p2align 4,,10
	.p2align 3
.L1813:
	movl	8(%r14), %eax
	leal	-1(%rax), %edx
	movl	%edx, 8(%r14)
	jmp	.L1814
	.p2align 4,,10
	.p2align 3
.L1886:
	movl	8(%rbp), %eax
	leal	-1(%rax), %edx
	movl	%edx, 8(%rbp)
	jmp	.L1887
	.p2align 4,,10
	.p2align 3
.L1871:
	movl	8(%r12), %eax
	leal	-1(%rax), %edx
	movl	%edx, 8(%r12)
	jmp	.L1872
	.p2align 4,,10
	.p2align 3
.L1863:
	movl	8(%r12), %eax
	leal	-1(%rax), %edx
	movl	%edx, 8(%r12)
	jmp	.L1864
	.p2align 4,,10
	.p2align 3
.L1878:
	movl	8(%r12), %eax
	leal	-1(%rax), %edx
	movl	%edx, 8(%r12)
	jmp	.L1879
	.p2align 4,,10
	.p2align 3
.L1970:
	movzbl	184(%rbp), %edx
	movb	%dl, 0(%rbp)
	movq	%rbp, (%rax)
	jmp	.L1783
	.p2align 4,,10
	.p2align 3
.L1961:
	movzbl	184(%rbp), %edx
	movb	%dl, 0(%rbp)
	movq	%rbp, (%rax)
	jmp	.L1828
	.p2align 4,,10
	.p2align 3
.L1858:
	movl	12(%rbp), %eax
	leal	-1(%rax), %edx
	movl	%edx, 12(%rbp)
	jmp	.L1859
	.p2align 4,,10
	.p2align 3
.L1835:
	movl	12(%rbp), %eax
	leal	-1(%rax), %edx
	movl	%edx, 12(%rbp)
	jmp	.L1836
	.p2align 4,,10
	.p2align 3
.L1843:
	movl	12(%rbp), %eax
	leal	-1(%rax), %edx
	movl	%edx, 12(%rbp)
	jmp	.L1844
	.p2align 4,,10
	.p2align 3
.L1850:
	movl	12(%rbp), %eax
	leal	-1(%rax), %edx
	movl	%edx, 12(%rbp)
	jmp	.L1851
	.p2align 4,,10
	.p2align 3
.L1959:
	movq	(%r14), %rax
	movq	%r14, %rdi
	call	*24(%rax)
	jmp	.L1812
	.p2align 4,,10
	.p2align 3
.L1958:
	movq	(%r14), %rax
	movq	%r14, %rdi
	call	*24(%rax)
	jmp	.L1805
	.p2align 4,,10
	.p2align 3
.L1957:
	movq	(%r14), %rax
	movq	%r14, %rdi
	call	*24(%rax)
	jmp	.L1797
	.p2align 4,,10
	.p2align 3
.L1960:
	movq	0(%rbp), %rax
	movq	%rbp, %rdi
	call	*24(%rax)
	jmp	.L1820
	.p2align 4,,10
	.p2align 3
.L1967:
	movq	(%r12), %rax
	movq	%r12, %rdi
	call	*24(%rax)
	jmp	.L1870
	.p2align 4,,10
	.p2align 3
.L1969:
	movq	0(%rbp), %rax
	movq	%rbp, %rdi
	call	*24(%rax)
	jmp	.L1885
	.p2align 4,,10
	.p2align 3
.L1968:
	movq	(%r12), %rax
	movq	%r12, %rdi
	call	*24(%rax)
	jmp	.L1877
	.p2align 4,,10
	.p2align 3
.L1966:
	movq	(%r12), %rax
	movq	%r12, %rdi
	call	*24(%rax)
	jmp	.L1862
	.p2align 4,,10
	.p2align 3
.L1801:
	movl	12(%r14), %eax
	leal	-1(%rax), %edx
	movl	%edx, 12(%r14)
	jmp	.L1802
	.p2align 4,,10
	.p2align 3
.L1824:
	movl	12(%rbp), %eax
	leal	-1(%rax), %edx
	movl	%edx, 12(%rbp)
	jmp	.L1825
	.p2align 4,,10
	.p2align 3
.L1816:
	movl	12(%r14), %eax
	leal	-1(%rax), %edx
	movl	%edx, 12(%r14)
	jmp	.L1817
	.p2align 4,,10
	.p2align 3
.L1809:
	movl	12(%r14), %eax
	leal	-1(%rax), %edx
	movl	%edx, 12(%r14)
	jmp	.L1810
	.p2align 4,,10
	.p2align 3
.L1881:
	movl	12(%r12), %eax
	leal	-1(%rax), %edx
	movl	%edx, 12(%r12)
	jmp	.L1882
	.p2align 4,,10
	.p2align 3
.L1866:
	movl	12(%r12), %eax
	leal	-1(%rax), %edx
	movl	%edx, 12(%r12)
	jmp	.L1867
	.p2align 4,,10
	.p2align 3
.L1874:
	movl	12(%r12), %eax
	leal	-1(%rax), %edx
	movl	%edx, 12(%r12)
	jmp	.L1875
	.p2align 4,,10
	.p2align 3
.L1889:
	movl	12(%rbp), %eax
	leal	-1(%rax), %edx
	movl	%edx, 12(%rbp)
	jmp	.L1890
.L1971:
	call	__stack_chk_fail@PLT
.L1896:
	endbr64
	movq	%rax, %rbx
	jmp	.L1787
.L1895:
	endbr64
	movq	%rax, %rbp
	jmp	.L1893
.L1897:
	endbr64
	movq	%rax, %rbx
	jmp	.L1793
	.section	.gcc_except_table
.LLSDA9152:
	.byte	0xff
	.byte	0xff
	.byte	0x1
	.uleb128 .LLSDACSE9152-.LLSDACSB9152
.LLSDACSB9152:
	.uleb128 .LEHB64-.LFB9152
	.uleb128 .LEHE64-.LEHB64
	.uleb128 .L1896-.LFB9152
	.uleb128 0
	.uleb128 .LEHB65-.LFB9152
	.uleb128 .LEHE65-.LEHB65
	.uleb128 .L1897-.LFB9152
	.uleb128 0
	.uleb128 .LEHB66-.LFB9152
	.uleb128 .LEHE66-.LEHB66
	.uleb128 .L1895-.LFB9152
	.uleb128 0
.LLSDACSE9152:
	.text
	.cfi_endproc
	.section	.text.unlikely
	.cfi_startproc
	.cfi_personality 0x9b,DW.ref.__gxx_personality_v0
	.cfi_lsda 0x1b,.LLSDAC9152
	.type	_ZN4asio6detail18completion_handlerINS0_17rewrapped_handlerINS0_7binder1INS0_15wrapped_handlerINS_10io_service6strandEZN7asiopal8Executor5StartERKNSt6chrono10time_pointINS9_3_V212steady_clockENS9_8durationIlSt5ratioILl1ELl1000000000EEEEEERKSt8functionIFvvEEEUlRKSt10error_codeE_NS0_26is_continuation_if_runningEEESP_EESS_EEE11do_completeEPNS0_15task_io_serviceEPNS0_25task_io_service_operationESR_m.cold, @function
_ZN4asio6detail18completion_handlerINS0_17rewrapped_handlerINS0_7binder1INS0_15wrapped_handlerINS_10io_service6strandEZN7asiopal8Executor5StartERKNSt6chrono10time_pointINS9_3_V212steady_clockENS9_8durationIlSt5ratioILl1ELl1000000000EEEEEERKSt8functionIFvvEEEUlRKSt10error_codeE_NS0_26is_continuation_if_runningEEESP_EESS_EEE11do_completeEPNS0_15task_io_serviceEPNS0_25task_io_service_operationESR_m.cold:
.LFSB9152:
.L1787:
	.cfi_def_cfa_offset 256
	.cfi_offset 3, -48
	.cfi_offset 6, -40
	.cfi_offset 12, -32
	.cfi_offset 13, -24
	.cfi_offset 14, -16
	movq	64(%rsp), %rax
	testq	%rax, %rax
	je	.L1788
	movl	$3, %edx
	movq	%rbp, %rsi
	movq	%rbp, %rdi
	call	*%rax
.L1788:
	movq	40(%rsp), %rdi
	testq	%rdi, %rdi
	je	.L1956
	call	_ZNSt16_Sp_counted_baseILN9__gnu_cxx12_Lock_policyE2EE10_M_releaseEv@PLT
.L1956:
	movq	%rbx, %rbp
	jmp	.L1790
.L1893:
	sfence
	leaq	112(%rsp), %rdi
	call	_ZZN7asiopal8Executor5StartERKNSt6chrono10time_pointINS1_3_V212steady_clockENS1_8durationIlSt5ratioILl1ELl1000000000EEEEEERKSt8functionIFvvEEENUlRKSt10error_codeE_D1Ev
	movq	%r13, %rdi
	call	_ZZN7asiopal8Executor5StartERKNSt6chrono10time_pointINS1_3_V212steady_clockENS1_8durationIlSt5ratioILl1ELl1000000000EEEEEERKSt8functionIFvvEEENUlRKSt10error_codeE_D1Ev
.L1790:
	leaq	8(%rsp), %rdi
	leaq	16(%rsp), %rsi
	call	_ZN4asio6detail18completion_handlerINS0_17rewrapped_handlerINS0_7binder1INS0_15wrapped_handlerINS_10io_service6strandEZN7asiopal8Executor5StartERKNSt6chrono10time_pointINS9_3_V212steady_clockENS9_8durationIlSt5ratioILl1ELl1000000000EEEEEERKSt8functionIFvvEEEUlRKSt10error_codeE_NS0_26is_continuation_if_runningEEESP_EESS_EEE3ptr5resetEv.isra.0
	movq	%rbp, %rdi
.LEHB67:
	call	_Unwind_Resume@PLT
.LEHE67:
.L1793:
	movq	144(%rsp), %rax
	testq	%rax, %rax
	je	.L1794
	movl	$3, %edx
	movq	%rbp, %rsi
	movq	%rbp, %rdi
	call	*%rax
.L1794:
	movq	120(%rsp), %rdi
	testq	%rdi, %rdi
	je	.L1795
	call	_ZNSt16_Sp_counted_baseILN9__gnu_cxx12_Lock_policyE2EE10_M_releaseEv@PLT
.L1795:
	leaq	32(%rsp), %rdi
	call	_ZZN7asiopal8Executor5StartERKNSt6chrono10time_pointINS1_3_V212steady_clockENS1_8durationIlSt5ratioILl1ELl1000000000EEEEEERKSt8functionIFvvEEENUlRKSt10error_codeE_D1Ev
	jmp	.L1956
	.cfi_endproc
.LFE9152:
	.section	.gcc_except_table
.LLSDAC9152:
	.byte	0xff
	.byte	0xff
	.byte	0x1
	.uleb128 .LLSDACSEC9152-.LLSDACSBC9152
.LLSDACSBC9152:
	.uleb128 .LEHB67-.LCOLDB34
	.uleb128 .LEHE67-.LEHB67
	.uleb128 0
	.uleb128 0
.LLSDACSEC9152:
	.section	.text.unlikely
	.text
	.size	_ZN4asio6detail18completion_handlerINS0_17rewrapped_handlerINS0_7binder1INS0_15wrapped_handlerINS_10io_service6strandEZN7asiopal8Executor5StartERKNSt6chrono10time_pointINS9_3_V212steady_clockENS9_8durationIlSt5ratioILl1ELl1000000000EEEEEERKSt8functionIFvvEEEUlRKSt10error_codeE_NS0_26is_continuation_if_runningEEESP_EESS_EEE11do_completeEPNS0_15task_io_serviceEPNS0_25task_io_service_operationESR_m, .-_ZN4asio6detail18completion_handlerINS0_17rewrapped_handlerINS0_7binder1INS0_15wrapped_handlerINS_10io_service6strandEZN7asiopal8Executor5StartERKNSt6chrono10time_pointINS9_3_V212steady_clockENS9_8durationIlSt5ratioILl1ELl1000000000EEEEEERKSt8functionIFvvEEEUlRKSt10error_codeE_NS0_26is_continuation_if_runningEEESP_EESS_EEE11do_completeEPNS0_15task_io_serviceEPNS0_25task_io_service_operationESR_m
	.section	.text.unlikely
	.size	_ZN4asio6detail18completion_handlerINS0_17rewrapped_handlerINS0_7binder1INS0_15wrapped_handlerINS_10io_service6strandEZN7asiopal8Executor5StartERKNSt6chrono10time_pointINS9_3_V212steady_clockENS9_8durationIlSt5ratioILl1ELl1000000000EEEEEERKSt8functionIFvvEEEUlRKSt10error_codeE_NS0_26is_continuation_if_runningEEESP_EESS_EEE11do_completeEPNS0_15task_io_serviceEPNS0_25task_io_service_operationESR_m.cold, .-_ZN4asio6detail18completion_handlerINS0_17rewrapped_handlerINS0_7binder1INS0_15wrapped_handlerINS_10io_service6strandEZN7asiopal8Executor5StartERKNSt6chrono10time_pointINS9_3_V212steady_clockENS9_8durationIlSt5ratioILl1ELl1000000000EEEEEERKSt8functionIFvvEEEUlRKSt10error_codeE_NS0_26is_continuation_if_runningEEESP_EESS_EEE11do_completeEPNS0_15task_io_serviceEPNS0_25task_io_service_operationESR_m.cold
.LCOLDE34:
	.text
.LHOTE34:
	.section	.text.unlikely
.LCOLDB35:
	.text
.LHOTB35:
	.p2align 4
	.type	_ZN4asio6detail12wait_handlerINS0_15wrapped_handlerINS_10io_service6strandEZN7asiopal8Executor5StartERKNSt6chrono10time_pointINS7_3_V212steady_clockENS7_8durationIlSt5ratioILl1ELl1000000000EEEEEERKSt8functionIFvvEEEUlRKSt10error_codeE_NS0_26is_continuation_if_runningEEEE11do_completeEPNS0_15task_io_serviceEPNS0_25task_io_service_operationESP_m, @function
_ZN4asio6detail12wait_handlerINS0_15wrapped_handlerINS_10io_service6strandEZN7asiopal8Executor5StartERKNSt6chrono10time_pointINS7_3_V212steady_clockENS7_8durationIlSt5ratioILl1ELl1000000000EEEEEERKSt8functionIFvvEEEUlRKSt10error_codeE_NS0_26is_continuation_if_runningEEEE11do_completeEPNS0_15task_io_serviceEPNS0_25task_io_service_operationESP_m:
.LFB8695:
	.cfi_startproc
	.cfi_personality 0x9b,DW.ref.__gxx_personality_v0
	.cfi_lsda 0x1b,.LLSDA8695
	endbr64
	pushq	%r15
	.cfi_def_cfa_offset 16
	.cfi_offset 15, -16
	pxor	%xmm0, %xmm0
	pushq	%r14
	.cfi_def_cfa_offset 24
	.cfi_offset 14, -24
	pushq	%r13
	.cfi_def_cfa_offset 32
	.cfi_offset 13, -32
	pushq	%r12
	.cfi_def_cfa_offset 40
	.cfi_offset 12, -40
	pushq	%rbp
	.cfi_def_cfa_offset 48
	.cfi_offset 6, -48
	movq	%rdi, %rbp
	pushq	%rbx
	.cfi_def_cfa_offset 56
	.cfi_offset 3, -56
	movq	%rsi, %rbx
	subq	$744, %rsp
	.cfi_def_cfa_offset 800
	movdqu	56(%rsi), %xmm3
	movdqu	40(%rsi), %xmm2
	movq	%fs:40, %rax
	movq	%rax, 728(%rsp)
	xorl	%eax, %eax
	leaq	40(%rsi), %rax
	movq	%rsi, 24(%rsp)
	movq	%rax, 16(%rsp)
	movq	88(%rsi), %rax
	movq	%rsi, 32(%rsp)
	movq	$0, 192(%rsp)
	movaps	%xmm2, 144(%rsp)
	movaps	%xmm3, 160(%rsp)
	movups	%xmm0, 56(%rsi)
	testq	%rax, %rax
	je	.L1973
	leaq	176(%rsp), %r12
	leaq	72(%rsi), %rsi
	movl	$2, %edx
	movq	%r12, %rdi
.LEHB68:
	call	*%rax
.LEHE68:
	movdqu	104(%rbx), %xmm5
	movdqu	88(%rbx), %xmm4
	pxor	%xmm0, %xmm0
	leaq	144(%rsp), %rax
	movdqu	24(%rbx), %xmm6
	movq	32(%rsp), %r12
	movq	%rax, 16(%rsp)
	movaps	%xmm4, 192(%rsp)
	movaps	%xmm5, 208(%rsp)
	movups	%xmm0, 104(%rbx)
	movaps	%xmm6, 224(%rsp)
	testq	%r12, %r12
	jne	.L1974
.L1975:
	movq	24(%rsp), %r12
	testq	%r12, %r12
	je	.L1995
	data16	leaq	_ZN4asio6detail15keyword_tss_ptrINS0_10call_stackINS0_15task_io_serviceENS0_27task_io_service_thread_infoEE7contextEE6value_E@tlsgd(%rip), %rdi
	.value	0x6666
	rex64
	call	__tls_get_addr@PLT
	movq	(%rax), %rax
	testq	%rax, %rax
	je	.L1996
	movq	8(%rax), %rax
	testq	%rax, %rax
	je	.L1996
	cmpq	$0, (%rax)
	je	.L2541
.L1996:
	movq	%r12, %rdi
	call	_ZdlPv@PLT
.L1997:
	movq	$0, 24(%rsp)
.L1995:
	testq	%rbp, %rbp
	je	.L1998
	movdqa	160(%rsp), %xmm7
	movq	168(%rsp), %rax
	movaps	%xmm7, 240(%rsp)
	testq	%rax, %rax
	je	.L1999
	cmpq	$0, _ZL28__gthrw___pthread_key_createPjPFvPvE@GOTPCREL(%rip)
	je	.L2000
	lock addl	$1, 8(%rax)
.L1999:
	movq	192(%rsp), %rax
	movq	$0, 272(%rsp)
	testq	%rax, %rax
	je	.L2001
	leaq	256(%rsp), %rbp
	leaq	176(%rsp), %rsi
	movl	$2, %edx
	movq	%rbp, %rdi
.LEHB69:
	call	*%rax
.LEHE69:
	movdqa	192(%rsp), %xmm7
	movq	192(%rsp), %rax
	movaps	%xmm7, 272(%rsp)
.L2001:
	movdqa	208(%rsp), %xmm1
	movq	216(%rsp), %rdx
	movaps	%xmm1, 288(%rsp)
	testq	%rdx, %rdx
	je	.L2003
	cmpq	$0, _ZL28__gthrw___pthread_key_createPjPFvPvE@GOTPCREL(%rip)
	je	.L2008
	lock addl	$1, 8(%rdx)
	movq	192(%rsp), %rax
.L2003:
	movdqa	160(%rsp), %xmm5
	pxor	%xmm0, %xmm0
	movdqa	144(%rsp), %xmm4
	movq	$0, 352(%rsp)
	movaps	%xmm0, 160(%rsp)
	movaps	%xmm4, 304(%rsp)
	movaps	%xmm5, 320(%rsp)
	testq	%rax, %rax
	je	.L2010
	leaq	336(%rsp), %rbp
	leaq	176(%rsp), %rsi
	movl	$2, %edx
	movq	%rbp, %rdi
.LEHB70:
	call	*%rax
.LEHE70:
	movdqa	192(%rsp), %xmm2
	movq	192(%rsp), %rax
	movaps	%xmm2, 352(%rsp)
.L2010:
	movdqa	208(%rsp), %xmm6
	movq	272(%rsp), %rcx
	pxor	%xmm0, %xmm0
	movq	$0, 592(%rsp)
	movdqa	240(%rsp), %xmm1
	movaps	%xmm0, 208(%rsp)
	movdqa	224(%rsp), %xmm7
	movaps	%xmm6, 368(%rsp)
	movaps	%xmm7, 384(%rsp)
	movaps	%xmm1, 560(%rsp)
	movaps	%xmm0, 240(%rsp)
	testq	%rcx, %rcx
	je	.L2013
	leaq	576(%rsp), %rbp
	leaq	256(%rsp), %rsi
	movl	$2, %edx
	movq	%rbp, %rdi
.LEHB71:
	call	*%rcx
.LEHE71:
	movdqa	272(%rsp), %xmm3
	movq	352(%rsp), %rax
	movaps	%xmm3, 592(%rsp)
.L2013:
	movdqa	288(%rsp), %xmm2
	pxor	%xmm0, %xmm0
	movdqa	320(%rsp), %xmm4
	movq	$0, 672(%rsp)
	movdqa	304(%rsp), %xmm3
	movaps	%xmm0, 288(%rsp)
	movaps	%xmm2, 608(%rsp)
	movaps	%xmm3, 624(%rsp)
	movaps	%xmm4, 640(%rsp)
	movaps	%xmm0, 320(%rsp)
	testq	%rax, %rax
	je	.L2018
	leaq	656(%rsp), %rbp
	leaq	336(%rsp), %rsi
	movl	$2, %edx
	movq	%rbp, %rdi
.LEHB72:
	call	*%rax
.LEHE72:
	movdqa	352(%rsp), %xmm7
	movaps	%xmm7, 672(%rsp)
.L2018:
	movdqa	368(%rsp), %xmm5
	pxor	%xmm0, %xmm0
	movdqa	384(%rsp), %xmm6
	movaps	%xmm0, 368(%rsp)
	movq	152(%rsp), %rbx
	movaps	%xmm5, 688(%rsp)
	movaps	%xmm6, 704(%rsp)
	data16	leaq	_ZN4asio6detail15keyword_tss_ptrINS0_10call_stackINS0_14strand_service11strand_implEhE7contextEE6value_E@tlsgd(%rip), %rdi
	.value	0x6666
	rex64
	call	__tls_get_addr@PLT
	movq	(%rax), %rax
	testq	%rax, %rax
	jne	.L2024
	jmp	.L2023
	.p2align 4,,10
	.p2align 3
.L2028:
	movq	16(%rax), %rax
	testq	%rax, %rax
	je	.L2023
.L2024:
	cmpq	(%rax), %rbx
	jne	.L2028
	cmpq	$0, 8(%rax)
	je	.L2023
	lfence
	leaq	704(%rsp), %rsi
	leaq	624(%rsp), %rdi
.LEHB73:
	call	_ZN4asio6detail15wrapped_handlerINS_10io_service6strandEZN7asiopal8Executor5StartERKNSt6chrono10time_pointINS6_3_V212steady_clockENS6_8durationIlSt5ratioILl1ELl1000000000EEEEEERKSt8functionIFvvEEEUlRKSt10error_codeE_NS0_26is_continuation_if_runningEEclISM_EEvRKT_.isra.0
.LEHE73:
	sfence
.L2030:
	movq	696(%rsp), %rbp
	testq	%rbp, %rbp
	je	.L2227
	movq	_ZL28__gthrw___pthread_key_createPjPFvPvE@GOTPCREL(%rip), %rbx
	testq	%rbx, %rbx
	je	.L2230
	movl	$-1, %eax
	lock xaddl	%eax, 8(%rbp)
	cmpl	$1, %eax
	je	.L2542
	.p2align 4,,10
	.p2align 3
.L2227:
	movq	672(%rsp), %rax
	testq	%rax, %rax
	je	.L2235
	leaq	656(%rsp), %rdi
	movl	$3, %edx
	movq	%rdi, %rsi
	call	*%rax
.L2235:
	movq	648(%rsp), %rbp
	testq	%rbp, %rbp
	je	.L2237
	movq	_ZL28__gthrw___pthread_key_createPjPFvPvE@GOTPCREL(%rip), %rbx
	testq	%rbx, %rbx
	je	.L2238
	movl	$-1, %eax
	lock xaddl	%eax, 8(%rbp)
	cmpl	$1, %eax
	je	.L2543
	.p2align 4,,10
	.p2align 3
.L2237:
	movq	616(%rsp), %rbp
	testq	%rbp, %rbp
	je	.L2244
	movq	_ZL28__gthrw___pthread_key_createPjPFvPvE@GOTPCREL(%rip), %rbx
	testq	%rbx, %rbx
	je	.L2245
	movl	$-1, %eax
	lock xaddl	%eax, 8(%rbp)
	cmpl	$1, %eax
	je	.L2544
	.p2align 4,,10
	.p2align 3
.L2244:
	movq	592(%rsp), %rax
	testq	%rax, %rax
	je	.L2250
	leaq	576(%rsp), %rdi
	movl	$3, %edx
	movq	%rdi, %rsi
	call	*%rax
.L2250:
	movq	568(%rsp), %rbp
	testq	%rbp, %rbp
	je	.L2252
	movq	_ZL28__gthrw___pthread_key_createPjPFvPvE@GOTPCREL(%rip), %rbx
	testq	%rbx, %rbx
	je	.L2253
	movl	$-1, %eax
	lock xaddl	%eax, 8(%rbp)
	cmpl	$1, %eax
	je	.L2545
	.p2align 4,,10
	.p2align 3
.L2252:
	movq	376(%rsp), %rbp
	testq	%rbp, %rbp
	je	.L2259
	movq	_ZL28__gthrw___pthread_key_createPjPFvPvE@GOTPCREL(%rip), %rbx
	testq	%rbx, %rbx
	je	.L2260
	movl	$-1, %eax
	lock xaddl	%eax, 8(%rbp)
	cmpl	$1, %eax
	je	.L2546
	.p2align 4,,10
	.p2align 3
.L2259:
	movq	352(%rsp), %rax
	testq	%rax, %rax
	je	.L2265
	leaq	336(%rsp), %rdi
	movl	$3, %edx
	movq	%rdi, %rsi
	call	*%rax
.L2265:
	movq	328(%rsp), %rbp
	testq	%rbp, %rbp
	je	.L2267
	movq	_ZL28__gthrw___pthread_key_createPjPFvPvE@GOTPCREL(%rip), %rbx
	testq	%rbx, %rbx
	je	.L2268
