	.file	"IOHandler.cpp"
	.text
	.section	.rodata._ZNK4asio6detail15system_category4nameEv.str1.1,"aMS",@progbits,1
.LC0:
	.string	"asio.system"
	.section	.text._ZNK4asio6detail15system_category4nameEv,"axG",@progbits,_ZNK4asio6detail15system_category4nameEv,comdat
	.align 2
	.p2align 4
	.weak	_ZNK4asio6detail15system_category4nameEv
	.type	_ZNK4asio6detail15system_category4nameEv, @function
_ZNK4asio6detail15system_category4nameEv:
.LFB2952:
	.cfi_startproc
	endbr64
	leaq	.LC0(%rip), %rax
	ret
	.cfi_endproc
.LFE2952:
	.size	_ZNK4asio6detail15system_category4nameEv, .-_ZNK4asio6detail15system_category4nameEv
	.section	.rodata._ZNK4asio5error6detail14netdb_category4nameEv.str1.1,"aMS",@progbits,1
.LC1:
	.string	"asio.netdb"
	.section	.text._ZNK4asio5error6detail14netdb_category4nameEv,"axG",@progbits,_ZNK4asio5error6detail14netdb_category4nameEv,comdat
	.align 2
	.p2align 4
	.weak	_ZNK4asio5error6detail14netdb_category4nameEv
	.type	_ZNK4asio5error6detail14netdb_category4nameEv, @function
_ZNK4asio5error6detail14netdb_category4nameEv:
.LFB2992:
	.cfi_startproc
	endbr64
	leaq	.LC1(%rip), %rax
	ret
	.cfi_endproc
.LFE2992:
	.size	_ZNK4asio5error6detail14netdb_category4nameEv, .-_ZNK4asio5error6detail14netdb_category4nameEv
	.section	.rodata._ZNK4asio5error6detail17addrinfo_category4nameEv.str1.1,"aMS",@progbits,1
.LC2:
	.string	"asio.addrinfo"
	.section	.text._ZNK4asio5error6detail17addrinfo_category4nameEv,"axG",@progbits,_ZNK4asio5error6detail17addrinfo_category4nameEv,comdat
	.align 2
	.p2align 4
	.weak	_ZNK4asio5error6detail17addrinfo_category4nameEv
	.type	_ZNK4asio5error6detail17addrinfo_category4nameEv, @function
_ZNK4asio5error6detail17addrinfo_category4nameEv:
.LFB2998:
	.cfi_startproc
	endbr64
	leaq	.LC2(%rip), %rax
	ret
	.cfi_endproc
.LFE2998:
	.size	_ZNK4asio5error6detail17addrinfo_category4nameEv, .-_ZNK4asio5error6detail17addrinfo_category4nameEv
	.section	.rodata._ZNK4asio5error6detail13misc_category4nameEv.str1.1,"aMS",@progbits,1
.LC3:
	.string	"asio.misc"
	.section	.text._ZNK4asio5error6detail13misc_category4nameEv,"axG",@progbits,_ZNK4asio5error6detail13misc_category4nameEv,comdat
	.align 2
	.p2align 4
	.weak	_ZNK4asio5error6detail13misc_category4nameEv
	.type	_ZNK4asio5error6detail13misc_category4nameEv, @function
_ZNK4asio5error6detail13misc_category4nameEv:
.LFB3004:
	.cfi_startproc
	endbr64
	leaq	.LC3(%rip), %rax
	ret
	.cfi_endproc
.LFE3004:
	.size	_ZNK4asio5error6detail13misc_category4nameEv, .-_ZNK4asio5error6detail13misc_category4nameEv
	.section	.text._ZN4asio6detail7tss_ptrINS0_10call_stackINS0_15task_io_serviceENS0_27task_io_service_thread_infoEE7contextEED2Ev,"axG",@progbits,_ZN4asio6detail7tss_ptrINS0_10call_stackINS0_15task_io_serviceENS0_27task_io_service_thread_infoEE7contextEED5Ev,comdat
	.align 2
	.p2align 4
	.weak	_ZN4asio6detail7tss_ptrINS0_10call_stackINS0_15task_io_serviceENS0_27task_io_service_thread_infoEE7contextEED2Ev
	.type	_ZN4asio6detail7tss_ptrINS0_10call_stackINS0_15task_io_serviceENS0_27task_io_service_thread_infoEE7contextEED2Ev, @function
_ZN4asio6detail7tss_ptrINS0_10call_stackINS0_15task_io_serviceENS0_27task_io_service_thread_infoEE7contextEED2Ev:
.LFB10134:
	.cfi_startproc
	endbr64
	ret
	.cfi_endproc
.LFE10134:
	.size	_ZN4asio6detail7tss_ptrINS0_10call_stackINS0_15task_io_serviceENS0_27task_io_service_thread_infoEE7contextEED2Ev, .-_ZN4asio6detail7tss_ptrINS0_10call_stackINS0_15task_io_serviceENS0_27task_io_service_thread_infoEE7contextEED2Ev
	.weak	_ZN4asio6detail7tss_ptrINS0_10call_stackINS0_15task_io_serviceENS0_27task_io_service_thread_infoEE7contextEED1Ev
	.set	_ZN4asio6detail7tss_ptrINS0_10call_stackINS0_15task_io_serviceENS0_27task_io_service_thread_infoEE7contextEED1Ev,_ZN4asio6detail7tss_ptrINS0_10call_stackINS0_15task_io_serviceENS0_27task_io_service_thread_infoEE7contextEED2Ev
	.section	.text._ZN4asio6detail10service_idINS0_13epoll_reactorEED2Ev,"axG",@progbits,_ZN4asio6detail10service_idINS0_13epoll_reactorEED5Ev,comdat
	.align 2
	.p2align 4
	.weak	_ZN4asio6detail10service_idINS0_13epoll_reactorEED2Ev
	.type	_ZN4asio6detail10service_idINS0_13epoll_reactorEED2Ev, @function
_ZN4asio6detail10service_idINS0_13epoll_reactorEED2Ev:
.LFB10137:
	.cfi_startproc
	endbr64
	ret
	.cfi_endproc
.LFE10137:
	.size	_ZN4asio6detail10service_idINS0_13epoll_reactorEED2Ev, .-_ZN4asio6detail10service_idINS0_13epoll_reactorEED2Ev
	.weak	_ZN4asio6detail10service_idINS0_13epoll_reactorEED1Ev
	.set	_ZN4asio6detail10service_idINS0_13epoll_reactorEED1Ev,_ZN4asio6detail10service_idINS0_13epoll_reactorEED2Ev
	.section	.text._ZN4asio6detail10service_idINS0_15task_io_serviceEED2Ev,"axG",@progbits,_ZN4asio6detail10service_idINS0_15task_io_serviceEED5Ev,comdat
	.align 2
	.p2align 4
	.weak	_ZN4asio6detail10service_idINS0_15task_io_serviceEED2Ev
	.type	_ZN4asio6detail10service_idINS0_15task_io_serviceEED2Ev, @function
_ZN4asio6detail10service_idINS0_15task_io_serviceEED2Ev:
.LFB10140:
	.cfi_startproc
	endbr64
	ret
	.cfi_endproc
.LFE10140:
	.size	_ZN4asio6detail10service_idINS0_15task_io_serviceEED2Ev, .-_ZN4asio6detail10service_idINS0_15task_io_serviceEED2Ev
	.weak	_ZN4asio6detail10service_idINS0_15task_io_serviceEED1Ev
	.set	_ZN4asio6detail10service_idINS0_15task_io_serviceEED1Ev,_ZN4asio6detail10service_idINS0_15task_io_serviceEED2Ev
	.section	.text._ZN4asio6detail7tss_ptrINS0_10call_stackINS0_14strand_service11strand_implEhE7contextEED2Ev,"axG",@progbits,_ZN4asio6detail7tss_ptrINS0_10call_stackINS0_14strand_service11strand_implEhE7contextEED5Ev,comdat
	.align 2
	.p2align 4
	.weak	_ZN4asio6detail7tss_ptrINS0_10call_stackINS0_14strand_service11strand_implEhE7contextEED2Ev
	.type	_ZN4asio6detail7tss_ptrINS0_10call_stackINS0_14strand_service11strand_implEhE7contextEED2Ev, @function
_ZN4asio6detail7tss_ptrINS0_10call_stackINS0_14strand_service11strand_implEhE7contextEED2Ev:
.LFB10143:
	.cfi_startproc
	endbr64
	ret
	.cfi_endproc
.LFE10143:
	.size	_ZN4asio6detail7tss_ptrINS0_10call_stackINS0_14strand_service11strand_implEhE7contextEED2Ev, .-_ZN4asio6detail7tss_ptrINS0_10call_stackINS0_14strand_service11strand_implEhE7contextEED2Ev
	.weak	_ZN4asio6detail7tss_ptrINS0_10call_stackINS0_14strand_service11strand_implEhE7contextEED1Ev
	.set	_ZN4asio6detail7tss_ptrINS0_10call_stackINS0_14strand_service11strand_implEhE7contextEED1Ev,_ZN4asio6detail7tss_ptrINS0_10call_stackINS0_14strand_service11strand_implEhE7contextEED2Ev
	.section	.text._ZN4asio6detail10service_idINS0_14strand_serviceEED2Ev,"axG",@progbits,_ZN4asio6detail10service_idINS0_14strand_serviceEED5Ev,comdat
	.align 2
	.p2align 4
	.weak	_ZN4asio6detail10service_idINS0_14strand_serviceEED2Ev
	.type	_ZN4asio6detail10service_idINS0_14strand_serviceEED2Ev, @function
_ZN4asio6detail10service_idINS0_14strand_serviceEED2Ev:
.LFB10146:
	.cfi_startproc
	endbr64
	ret
	.cfi_endproc
.LFE10146:
	.size	_ZN4asio6detail10service_idINS0_14strand_serviceEED2Ev, .-_ZN4asio6detail10service_idINS0_14strand_serviceEED2Ev
	.weak	_ZN4asio6detail10service_idINS0_14strand_serviceEED1Ev
	.set	_ZN4asio6detail10service_idINS0_14strand_serviceEED1Ev,_ZN4asio6detail10service_idINS0_14strand_serviceEED2Ev
	.section	.text._ZN4asio6detail15system_categoryD2Ev,"axG",@progbits,_ZN4asio6detail15system_categoryD5Ev,comdat
	.align 2
	.p2align 4
	.weak	_ZN4asio6detail15system_categoryD2Ev
	.type	_ZN4asio6detail15system_categoryD2Ev, @function
_ZN4asio6detail15system_categoryD2Ev:
.LFB10113:
	.cfi_startproc
	endbr64
	movq	_ZTVN4asio6detail15system_categoryE@GOTPCREL(%rip), %rax
	addq	$16, %rax
	movq	%rax, (%rdi)
	jmp	_ZNSt3_V214error_categoryD2Ev@PLT
	.cfi_endproc
.LFE10113:
	.size	_ZN4asio6detail15system_categoryD2Ev, .-_ZN4asio6detail15system_categoryD2Ev
	.weak	_ZN4asio6detail15system_categoryD1Ev
	.set	_ZN4asio6detail15system_categoryD1Ev,_ZN4asio6detail15system_categoryD2Ev
	.section	.text._ZN4asio6detail15system_categoryD0Ev,"axG",@progbits,_ZN4asio6detail15system_categoryD5Ev,comdat
	.align 2
	.p2align 4
	.weak	_ZN4asio6detail15system_categoryD0Ev
	.type	_ZN4asio6detail15system_categoryD0Ev, @function
_ZN4asio6detail15system_categoryD0Ev:
.LFB10115:
	.cfi_startproc
	endbr64
	movq	_ZTVN4asio6detail15system_categoryE@GOTPCREL(%rip), %rax
	pushq	%rbp
	.cfi_def_cfa_offset 16
	.cfi_offset 6, -16
	movq	%rdi, %rbp
	addq	$16, %rax
	movq	%rax, (%rdi)
	call	_ZNSt3_V214error_categoryD2Ev@PLT
	movq	%rbp, %rdi
	movl	$8, %esi
	popq	%rbp
	.cfi_def_cfa_offset 8
	jmp	_ZdlPvm@PLT
	.cfi_endproc
.LFE10115:
	.size	_ZN4asio6detail15system_categoryD0Ev, .-_ZN4asio6detail15system_categoryD0Ev
	.section	.text._ZN4asio5error6detail14netdb_categoryD2Ev,"axG",@progbits,_ZN4asio5error6detail14netdb_categoryD5Ev,comdat
	.align 2
	.p2align 4
	.weak	_ZN4asio5error6detail14netdb_categoryD2Ev
	.type	_ZN4asio5error6detail14netdb_categoryD2Ev, @function
_ZN4asio5error6detail14netdb_categoryD2Ev:
.LFB10101:
	.cfi_startproc
	endbr64
	movq	_ZTVN4asio5error6detail14netdb_categoryE@GOTPCREL(%rip), %rax
	addq	$16, %rax
	movq	%rax, (%rdi)
	jmp	_ZNSt3_V214error_categoryD2Ev@PLT
	.cfi_endproc
.LFE10101:
	.size	_ZN4asio5error6detail14netdb_categoryD2Ev, .-_ZN4asio5error6detail14netdb_categoryD2Ev
	.weak	_ZN4asio5error6detail14netdb_categoryD1Ev
	.set	_ZN4asio5error6detail14netdb_categoryD1Ev,_ZN4asio5error6detail14netdb_categoryD2Ev
	.section	.text._ZN4asio5error6detail14netdb_categoryD0Ev,"axG",@progbits,_ZN4asio5error6detail14netdb_categoryD5Ev,comdat
	.align 2
	.p2align 4
	.weak	_ZN4asio5error6detail14netdb_categoryD0Ev
	.type	_ZN4asio5error6detail14netdb_categoryD0Ev, @function
_ZN4asio5error6detail14netdb_categoryD0Ev:
.LFB10103:
	.cfi_startproc
	endbr64
	movq	_ZTVN4asio5error6detail14netdb_categoryE@GOTPCREL(%rip), %rax
	pushq	%rbp
	.cfi_def_cfa_offset 16
	.cfi_offset 6, -16
	movq	%rdi, %rbp
	addq	$16, %rax
	movq	%rax, (%rdi)
	call	_ZNSt3_V214error_categoryD2Ev@PLT
	movq	%rbp, %rdi
	movl	$8, %esi
	popq	%rbp
	.cfi_def_cfa_offset 8
	jmp	_ZdlPvm@PLT
	.cfi_endproc
.LFE10103:
	.size	_ZN4asio5error6detail14netdb_categoryD0Ev, .-_ZN4asio5error6detail14netdb_categoryD0Ev
	.section	.text._ZN4asio5error6detail17addrinfo_categoryD2Ev,"axG",@progbits,_ZN4asio5error6detail17addrinfo_categoryD5Ev,comdat
	.align 2
	.p2align 4
	.weak	_ZN4asio5error6detail17addrinfo_categoryD2Ev
	.type	_ZN4asio5error6detail17addrinfo_categoryD2Ev, @function
_ZN4asio5error6detail17addrinfo_categoryD2Ev:
.LFB10097:
	.cfi_startproc
	endbr64
	movq	_ZTVN4asio5error6detail17addrinfo_categoryE@GOTPCREL(%rip), %rax
	addq	$16, %rax
	movq	%rax, (%rdi)
	jmp	_ZNSt3_V214error_categoryD2Ev@PLT
	.cfi_endproc
.LFE10097:
	.size	_ZN4asio5error6detail17addrinfo_categoryD2Ev, .-_ZN4asio5error6detail17addrinfo_categoryD2Ev
	.weak	_ZN4asio5error6detail17addrinfo_categoryD1Ev
	.set	_ZN4asio5error6detail17addrinfo_categoryD1Ev,_ZN4asio5error6detail17addrinfo_categoryD2Ev
	.section	.text._ZN4asio5error6detail17addrinfo_categoryD0Ev,"axG",@progbits,_ZN4asio5error6detail17addrinfo_categoryD5Ev,comdat
	.align 2
	.p2align 4
	.weak	_ZN4asio5error6detail17addrinfo_categoryD0Ev
	.type	_ZN4asio5error6detail17addrinfo_categoryD0Ev, @function
_ZN4asio5error6detail17addrinfo_categoryD0Ev:
.LFB10099:
	.cfi_startproc
	endbr64
	movq	_ZTVN4asio5error6detail17addrinfo_categoryE@GOTPCREL(%rip), %rax
	pushq	%rbp
	.cfi_def_cfa_offset 16
	.cfi_offset 6, -16
	movq	%rdi, %rbp
	addq	$16, %rax
	movq	%rax, (%rdi)
	call	_ZNSt3_V214error_categoryD2Ev@PLT
	movq	%rbp, %rdi
	movl	$8, %esi
	popq	%rbp
	.cfi_def_cfa_offset 8
	jmp	_ZdlPvm@PLT
	.cfi_endproc
.LFE10099:
	.size	_ZN4asio5error6detail17addrinfo_categoryD0Ev, .-_ZN4asio5error6detail17addrinfo_categoryD0Ev
	.section	.text._ZN4asio5error6detail13misc_categoryD2Ev,"axG",@progbits,_ZN4asio5error6detail13misc_categoryD5Ev,comdat
	.align 2
	.p2align 4
	.weak	_ZN4asio5error6detail13misc_categoryD2Ev
	.type	_ZN4asio5error6detail13misc_categoryD2Ev, @function
_ZN4asio5error6detail13misc_categoryD2Ev:
.LFB10093:
	.cfi_startproc
	endbr64
	movq	_ZTVN4asio5error6detail13misc_categoryE@GOTPCREL(%rip), %rax
	addq	$16, %rax
	movq	%rax, (%rdi)
	jmp	_ZNSt3_V214error_categoryD2Ev@PLT
	.cfi_endproc
.LFE10093:
	.size	_ZN4asio5error6detail13misc_categoryD2Ev, .-_ZN4asio5error6detail13misc_categoryD2Ev
	.weak	_ZN4asio5error6detail13misc_categoryD1Ev
	.set	_ZN4asio5error6detail13misc_categoryD1Ev,_ZN4asio5error6detail13misc_categoryD2Ev
	.section	.text._ZN4asio5error6detail13misc_categoryD0Ev,"axG",@progbits,_ZN4asio5error6detail13misc_categoryD5Ev,comdat
	.align 2
	.p2align 4
	.weak	_ZN4asio5error6detail13misc_categoryD0Ev
	.type	_ZN4asio5error6detail13misc_categoryD0Ev, @function
_ZN4asio5error6detail13misc_categoryD0Ev:
.LFB10095:
	.cfi_startproc
	endbr64
	movq	_ZTVN4asio5error6detail13misc_categoryE@GOTPCREL(%rip), %rax
	pushq	%rbp
	.cfi_def_cfa_offset 16
	.cfi_offset 6, -16
	movq	%rdi, %rbp
	addq	$16, %rax
	movq	%rax, (%rdi)
	call	_ZNSt3_V214error_categoryD2Ev@PLT
	movq	%rbp, %rdi
	movl	$8, %esi
	popq	%rbp
	.cfi_def_cfa_offset 8
	jmp	_ZdlPvm@PLT
	.cfi_endproc
.LFE10095:
	.size	_ZN4asio5error6detail13misc_categoryD0Ev, .-_ZN4asio5error6detail13misc_categoryD0Ev
	.section	.rodata._ZNK4asio6detail15system_category7messageB5cxx11Ei.str1.8,"aMS",@progbits,1
	.align 8
.LC4:
	.string	"basic_string::_M_construct null not valid"
	.section	.text._ZNK4asio6detail15system_category7messageB5cxx11Ei,"axG",@progbits,_ZNK4asio6detail15system_category7messageB5cxx11Ei,comdat
	.align 2
	.p2align 4
	.weak	_ZNK4asio6detail15system_category7messageB5cxx11Ei
	.type	_ZNK4asio6detail15system_category7messageB5cxx11Ei, @function
_ZNK4asio6detail15system_category7messageB5cxx11Ei:
.LFB2953:
	.cfi_startproc
	endbr64
	pushq	%r14
	.cfi_def_cfa_offset 16
	.cfi_offset 14, -16
	pushq	%r13
	.cfi_def_cfa_offset 24
	.cfi_offset 13, -24
	pushq	%r12
	.cfi_def_cfa_offset 32
	.cfi_offset 12, -32
	movq	%rdi, %r12
	pushq	%rbp
	.cfi_def_cfa_offset 40
	.cfi_offset 6, -40
	leaq	16(%rdi), %rbp
	subq	$296, %rsp
	.cfi_def_cfa_offset 336
	movq	%fs:40, %rax
	movq	%rax, 280(%rsp)
	xorl	%eax, %eax
	cmpl	$125, %edx
	je	.L36
	pxor	%xmm0, %xmm0
	movl	%edx, %edi
	leaq	16(%rsp), %rsi
	movl	$256, %edx
	movaps	%xmm0, 16(%rsp)
	movaps	%xmm0, 32(%rsp)
	movaps	%xmm0, 48(%rsp)
	movaps	%xmm0, 64(%rsp)
	movaps	%xmm0, 80(%rsp)
	movaps	%xmm0, 96(%rsp)
	movaps	%xmm0, 112(%rsp)
	movaps	%xmm0, 128(%rsp)
	movaps	%xmm0, 144(%rsp)
	movaps	%xmm0, 160(%rsp)
	movaps	%xmm0, 176(%rsp)
	movaps	%xmm0, 192(%rsp)
	movaps	%xmm0, 208(%rsp)
	movaps	%xmm0, 224(%rsp)
	movaps	%xmm0, 240(%rsp)
	movaps	%xmm0, 256(%rsp)
	call	strerror_r@PLT
	movq	%rbp, (%r12)
	movq	%rax, %r14
	testq	%rax, %rax
	je	.L37
	movq	%rax, %rdi
	call	strlen@PLT
	movq	%rax, 8(%rsp)
	movq	%rax, %r13
	cmpq	$15, %rax
	ja	.L38
	cmpq	$1, %rax
	jne	.L29
	movzbl	(%r14), %edx
	movb	%dl, 16(%r12)
.L30:
	movq	%rax, 8(%r12)
	movb	$0, 0(%rbp,%rax)
.L23:
	movq	280(%rsp), %rax
	xorq	%fs:40, %rax
	jne	.L39
	addq	$296, %rsp
	.cfi_remember_state
	.cfi_def_cfa_offset 40
	movq	%r12, %rax
	popq	%rbp
	.cfi_def_cfa_offset 32
	popq	%r12
	.cfi_def_cfa_offset 24
	popq	%r13
	.cfi_def_cfa_offset 16
	popq	%r14
	.cfi_def_cfa_offset 8
	ret
	.p2align 4,,10
	.p2align 3
.L38:
	.cfi_restore_state
	leaq	8(%rsp), %rsi
	xorl	%edx, %edx
	movq	%r12, %rdi
	call	_ZNSt7__cxx1112basic_stringIcSt11char_traitsIcESaIcEE9_M_createERmm@PLT
	movq	%rax, (%r12)
	movq	%rax, %rbp
	movq	8(%rsp), %rax
	movq	%rax, 16(%r12)
.L28:
	movq	%rbp, %rdi
	movq	%r13, %rdx
	movq	%r14, %rsi
	call	memcpy@PLT
	movq	8(%rsp), %rax
	movq	(%r12), %rbp
	jmp	.L30
	.p2align 4,,10
	.p2align 3
.L36:
	movq	%rbp, (%rdi)
	xorl	%edx, %edx
	leaq	8(%rsp), %rsi
	movq	$18, 8(%rsp)
	call	_ZNSt7__cxx1112basic_stringIcSt11char_traitsIcESaIcEE9_M_createERmm@PLT
	movq	8(%rsp), %rdx
	movdqa	.LC5(%rip), %xmm0
	movq	%rax, (%r12)
	movq	%rdx, 16(%r12)
	movl	$11876, %edx
	movw	%dx, 16(%rax)
	movups	%xmm0, (%rax)
	movq	8(%rsp), %rax
	movq	(%r12), %rdx
	movq	%rax, 8(%r12)
	movb	$0, (%rdx,%rax)
	jmp	.L23
	.p2align 4,,10
	.p2align 3
.L29:
	testq	%rax, %rax
	je	.L30
	jmp	.L28
	.p2align 4,,10
	.p2align 3
.L37:
	leaq	.LC4(%rip), %rdi
	call	_ZSt19__throw_logic_errorPKc@PLT
.L39:
	call	__stack_chk_fail@PLT
	.cfi_endproc
.LFE2953:
	.size	_ZNK4asio6detail15system_category7messageB5cxx11Ei, .-_ZNK4asio6detail15system_category7messageB5cxx11Ei
	.section	.text._ZNK4asio5error6detail17addrinfo_category7messageB5cxx11Ei,"axG",@progbits,_ZNK4asio5error6detail17addrinfo_category7messageB5cxx11Ei,comdat
	.align 2
	.p2align 4
	.weak	_ZNK4asio5error6detail17addrinfo_category7messageB5cxx11Ei
	.type	_ZNK4asio5error6detail17addrinfo_category7messageB5cxx11Ei, @function
_ZNK4asio5error6detail17addrinfo_category7messageB5cxx11Ei:
.LFB2999:
	.cfi_startproc
	endbr64
	pushq	%r12
	.cfi_def_cfa_offset 16
	.cfi_offset 12, -16
	movq	%rdi, %r12
	subq	$16, %rsp
	.cfi_def_cfa_offset 32
	movq	%fs:40, %rax
	movq	%rax, 8(%rsp)
	xorl	%eax, %eax
	leaq	16(%rdi), %rax
	movq	%rax, (%rdi)
	cmpl	$-8, %edx
	je	.L46
	cmpl	$-7, %edx
	je	.L47
	xorl	%edx, %edx
	movq	%rsp, %rsi
	movq	$19, (%rsp)
	call	_ZNSt7__cxx1112basic_stringIcSt11char_traitsIcESaIcEE9_M_createERmm@PLT
	movq	(%rsp), %rdx
	movdqa	.LC8(%rip), %xmm0
	movq	%rax, (%r12)
	movq	%rdx, 16(%r12)
	movl	$28530, %edx
	movw	%dx, 16(%rax)
	movb	$114, 18(%rax)
	movups	%xmm0, (%rax)
	movq	(%rsp), %rax
	movq	(%r12), %rdx
	movq	%rax, 8(%r12)
	movb	$0, (%rdx,%rax)
.L40:
	movq	8(%rsp), %rax
	xorq	%fs:40, %rax
	jne	.L48
	addq	$16, %rsp
	.cfi_remember_state
	.cfi_def_cfa_offset 16
	movq	%r12, %rax
	popq	%r12
	.cfi_def_cfa_offset 8
	ret
	.p2align 4,,10
	.p2align 3
.L47:
	.cfi_restore_state
	xorl	%edx, %edx
	movq	%rsp, %rsi
	movq	$25, (%rsp)
	call	_ZNSt7__cxx1112basic_stringIcSt11char_traitsIcESaIcEE9_M_createERmm@PLT
	movq	(%rsp), %rdx
	movdqa	.LC7(%rip), %xmm0
	movabsq	$7310593918082512243, %rcx
	movq	%rax, (%r12)
	movq	%rdx, 16(%r12)
	movq	%rcx, 16(%rax)
	movb	$100, 24(%rax)
	movups	%xmm0, (%rax)
	movq	(%rsp), %rax
	movq	(%r12), %rdx
	movq	%rax, 8(%r12)
	movb	$0, (%rdx,%rax)
	jmp	.L40
	.p2align 4,,10
	.p2align 3
.L46:
	xorl	%edx, %edx
	movq	%rsp, %rsi
	movq	$17, (%rsp)
	call	_ZNSt7__cxx1112basic_stringIcSt11char_traitsIcESaIcEE9_M_createERmm@PLT
	movq	(%rsp), %rdx
	movdqa	.LC6(%rip), %xmm0
	movq	%rax, (%r12)
	movq	%rdx, 16(%r12)
	movb	$100, 16(%rax)
	movups	%xmm0, (%rax)
	movq	(%rsp), %rax
	movq	(%r12), %rdx
	movq	%rax, 8(%r12)
	movb	$0, (%rdx,%rax)
	jmp	.L40
.L48:
	call	__stack_chk_fail@PLT
	.cfi_endproc
.LFE2999:
	.size	_ZNK4asio5error6detail17addrinfo_category7messageB5cxx11Ei, .-_ZNK4asio5error6detail17addrinfo_category7messageB5cxx11Ei
	.section	.text._ZNK4asio5error6detail14netdb_category7messageB5cxx11Ei,"axG",@progbits,_ZNK4asio5error6detail14netdb_category7messageB5cxx11Ei,comdat
	.align 2
	.p2align 4
	.weak	_ZNK4asio5error6detail14netdb_category7messageB5cxx11Ei
	.type	_ZNK4asio5error6detail14netdb_category7messageB5cxx11Ei, @function
_ZNK4asio5error6detail14netdb_category7messageB5cxx11Ei:
.LFB2993:
	.cfi_startproc
	endbr64
	pushq	%r12
	.cfi_def_cfa_offset 16
	.cfi_offset 12, -16
	movq	%rdi, %r12
	subq	$16, %rsp
	.cfi_def_cfa_offset 32
	movq	%fs:40, %rax
	movq	%rax, 8(%rsp)
	xorl	%eax, %eax
	leaq	16(%rdi), %rax
	movq	%rax, (%rdi)
	cmpl	$1, %edx
	je	.L57
	cmpl	$2, %edx
	je	.L58
	cmpl	$4, %edx
	je	.L59
	cmpl	$3, %edx
	je	.L60
	xorl	%edx, %edx
	movq	%rsp, %rsi
	movq	$16, (%rsp)
	call	_ZNSt7__cxx1112basic_stringIcSt11char_traitsIcESaIcEE9_M_createERmm@PLT
	movq	(%rsp), %rdx
	movdqa	.LC18(%rip), %xmm0
	movq	%rax, (%r12)
	movq	%rdx, 16(%r12)
	movups	%xmm0, (%rax)
	movq	(%rsp), %rax
	movq	(%r12), %rdx
	movq	%rax, 8(%r12)
	movb	$0, (%rdx,%rax)
.L49:
	movq	8(%rsp), %rax
	xorq	%fs:40, %rax
	jne	.L61
	addq	$16, %rsp
	.cfi_remember_state
	.cfi_def_cfa_offset 16
	movq	%r12, %rax
	popq	%r12
	.cfi_def_cfa_offset 8
	ret
	.p2align 4,,10
	.p2align 3
.L57:
	.cfi_restore_state
	movq	%rsp, %rsi
	xorl	%edx, %edx
	movq	$30, (%rsp)
	call	_ZNSt7__cxx1112basic_stringIcSt11char_traitsIcESaIcEE9_M_createERmm@PLT
	movq	(%rsp), %rdx
	movl	$10597, %esi
	movdqa	.LC9(%rip), %xmm0
	movabsq	$8388361603773658465, %rcx
	movq	%rax, (%r12)
	movq	%rdx, 16(%r12)
	movq	%rcx, 16(%rax)
	movl	$1986622561, 24(%rax)
	movw	%si, 28(%rax)
	movups	%xmm0, (%rax)
	movq	(%rsp), %rax
	movq	(%r12), %rdx
	movq	%rax, 8(%r12)
	movb	$0, (%rdx,%rax)
	jmp	.L49
	.p2align 4,,10
	.p2align 3
.L60:
	xorl	%edx, %edx
	movq	%rsp, %rsi
	movq	$55, (%rsp)
	call	_ZNSt7__cxx1112basic_stringIcSt11char_traitsIcESaIcEE9_M_createERmm@PLT
	movq	(%rsp), %rdx
	movdqa	.LC15(%rip), %xmm0
	movq	%rax, (%r12)
	movq	%rdx, 16(%r12)
	movl	$30059, %edx
	movups	%xmm0, (%rax)
	movdqa	.LC16(%rip), %xmm0
	movl	$1869573152, 48(%rax)
	movups	%xmm0, 16(%rax)
	movdqa	.LC17(%rip), %xmm0
	movw	%dx, 52(%rax)
	movb	$112, 54(%rax)
	movups	%xmm0, 32(%rax)
	movq	(%rsp), %rax
	movq	(%r12), %rdx
	movq	%rax, 8(%r12)
	movb	$0, (%rdx,%rax)
	jmp	.L49
	.p2align 4,,10
	.p2align 3
.L58:
	xorl	%edx, %edx
	movq	%rsp, %rsi
	movq	$51, (%rsp)
	call	_ZNSt7__cxx1112basic_stringIcSt11char_traitsIcESaIcEE9_M_createERmm@PLT
	movq	(%rsp), %rdx
	movl	$25972, %ecx
	movdqa	.LC9(%rip), %xmm0
	movq	%rax, (%r12)
	movq	%rdx, 16(%r12)
	movups	%xmm0, (%rax)
	movdqa	.LC10(%rip), %xmm0
	movw	%cx, 48(%rax)
	movups	%xmm0, 16(%rax)
	movdqa	.LC11(%rip), %xmm0
	movb	$114, 50(%rax)
	movups	%xmm0, 32(%rax)
	movq	(%rsp), %rax
	movq	(%r12), %rdx
	movq	%rax, 8(%r12)
	movb	$0, (%rdx,%rax)
	jmp	.L49
	.p2align 4,,10
	.p2align 3
.L59:
	xorl	%edx, %edx
	movq	%rsp, %rsi
	movq	$56, (%rsp)
	call	_ZNSt7__cxx1112basic_stringIcSt11char_traitsIcESaIcEE9_M_createERmm@PLT
	movq	(%rsp), %rdx
	movdqa	.LC12(%rip), %xmm0
	movabsq	$7022344801645520244, %rcx
	movq	%rax, (%r12)
	movq	%rdx, 16(%r12)
	movups	%xmm0, (%rax)
	movdqa	.LC13(%rip), %xmm0
	movq	%rcx, 48(%rax)
	movups	%xmm0, 16(%rax)
	movdqa	.LC14(%rip), %xmm0
	movups	%xmm0, 32(%rax)
	movq	(%rsp), %rax
	movq	(%r12), %rdx
	movq	%rax, 8(%r12)
	movb	$0, (%rdx,%rax)
	jmp	.L49
.L61:
	call	__stack_chk_fail@PLT
	.cfi_endproc
.LFE2993:
	.size	_ZNK4asio5error6detail14netdb_category7messageB5cxx11Ei, .-_ZNK4asio5error6detail14netdb_category7messageB5cxx11Ei
	.section	.text._ZNK4asio5error6detail13misc_category7messageB5cxx11Ei,"axG",@progbits,_ZNK4asio5error6detail13misc_category7messageB5cxx11Ei,comdat
	.align 2
	.p2align 4
	.weak	_ZNK4asio5error6detail13misc_category7messageB5cxx11Ei
	.type	_ZNK4asio5error6detail13misc_category7messageB5cxx11Ei, @function
_ZNK4asio5error6detail13misc_category7messageB5cxx11Ei:
.LFB3005:
	.cfi_startproc
	endbr64
	pushq	%r12
	.cfi_def_cfa_offset 16
	.cfi_offset 12, -16
	movq	%rdi, %r12
	subq	$16, %rsp
	.cfi_def_cfa_offset 32
	movq	%fs:40, %rax
	movq	%rax, 8(%rsp)
	xorl	%eax, %eax
	leaq	16(%rdi), %rax
	movq	%rax, (%rdi)
	cmpl	$1, %edx
	je	.L70
	cmpl	$2, %edx
	je	.L71
	cmpl	$3, %edx
	je	.L72
	cmpl	$4, %edx
	je	.L73
	movabsq	$8316298233121436513, %rcx
	movl	$28530, %edx
	movq	%rcx, 16(%rdi)
	movl	$1919230051, 8(%rax)
	movw	%dx, 12(%rax)
	movb	$114, 14(%rax)
	movq	$15, 8(%rdi)
	movb	$0, 31(%rdi)
.L62:
	movq	8(%rsp), %rax
	xorq	%fs:40, %rax
	jne	.L74
	addq	$16, %rsp
	.cfi_remember_state
	.cfi_def_cfa_offset 16
	movq	%r12, %rax
	popq	%r12
	.cfi_def_cfa_offset 8
	ret
	.p2align 4,,10
	.p2align 3
.L70:
	.cfi_restore_state
	movabsq	$2340011850872286273, %rcx
	movq	%rcx, 16(%rdi)
	movl	$1852141679, 8(%rax)
	movq	$12, 8(%rdi)
	movb	$0, 28(%rdi)
	jmp	.L62
	.p2align 4,,10
	.p2align 3
.L73:
	movq	%rsp, %rsi
	xorl	%edx, %edx
	movq	$57, (%rsp)
	call	_ZNSt7__cxx1112basic_stringIcSt11char_traitsIcESaIcEE9_M_createERmm@PLT
	movq	(%rsp), %rdx
	movdqa	.LC20(%rip), %xmm0
	movabsq	$7310291504967217959, %rsi
	movq	%rax, (%r12)
	movq	%rdx, 16(%r12)
	movups	%xmm0, (%rax)
	movdqa	.LC21(%rip), %xmm0
	movq	%rsi, 48(%rax)
	movups	%xmm0, 16(%rax)
	movdqa	.LC22(%rip), %xmm0
	movb	$116, 56(%rax)
	movups	%xmm0, 32(%rax)
	movq	(%rsp), %rax
	movq	(%r12), %rdx
	movq	%rax, 8(%r12)
	movb	$0, (%rdx,%rax)
	jmp	.L62
	.p2align 4,,10
	.p2align 3
.L71:
	movabsq	$7358994418594246213, %rcx
	movq	%rcx, 16(%rdi)
	movl	$27753, %ecx
	movw	%cx, 8(%rax)
	movb	$101, 10(%rax)
	movq	$11, 8(%rdi)
	movb	$0, 27(%rdi)
	jmp	.L62
	.p2align 4,,10
	.p2align 3
.L72:
	xorl	%edx, %edx
	movq	%rsp, %rsi
	movq	$17, (%rsp)
	call	_ZNSt7__cxx1112basic_stringIcSt11char_traitsIcESaIcEE9_M_createERmm@PLT
	movq	(%rsp), %rdx
	movdqa	.LC19(%rip), %xmm0
	movq	%rax, (%r12)
	movq	%rdx, 16(%r12)
	movb	$100, 16(%rax)
	movups	%xmm0, (%rax)
	movq	(%rsp), %rax
	movq	(%r12), %rdx
	movq	%rax, 8(%r12)
	movb	$0, (%rdx,%rax)
	jmp	.L62
.L74:
	call	__stack_chk_fail@PLT
	.cfi_endproc
.LFE3005:
	.size	_ZNK4asio5error6detail13misc_category7messageB5cxx11Ei, .-_ZNK4asio5error6detail13misc_category7messageB5cxx11Ei
	.section	.text.unlikely._ZSt20__throw_bad_weak_ptrv,"axG",@progbits,_ZSt20__throw_bad_weak_ptrv,comdat
	.weak	_ZSt20__throw_bad_weak_ptrv
	.type	_ZSt20__throw_bad_weak_ptrv, @function
_ZSt20__throw_bad_weak_ptrv:
.LFB1612:
	.cfi_startproc
	endbr64
	pushq	%rax
	.cfi_def_cfa_offset 16
	popq	%rax
	.cfi_def_cfa_offset 8
	movl	$8, %edi
	pushq	%rax
	.cfi_def_cfa_offset 16
	call	__cxa_allocate_exception@PLT
	movq	_ZNSt12bad_weak_ptrD1Ev@GOTPCREL(%rip), %rdx
	movq	_ZTISt12bad_weak_ptr@GOTPCREL(%rip), %rsi
	movq	%rax, %rdi
	movq	_ZTVSt12bad_weak_ptr@GOTPCREL(%rip), %rax
	addq	$16, %rax
	movq	%rax, (%rdi)
	call	__cxa_throw@PLT
	.cfi_endproc
.LFE1612:
	.size	_ZSt20__throw_bad_weak_ptrv, .-_ZSt20__throw_bad_weak_ptrv
	.section	.text._ZN7openpal6LoggerD2Ev,"axG",@progbits,_ZN7openpal6LoggerD5Ev,comdat
	.align 2
	.p2align 4
	.weak	_ZN7openpal6LoggerD2Ev
	.type	_ZN7openpal6LoggerD2Ev, @function
_ZN7openpal6LoggerD2Ev:
.LFB2031:
	.cfi_startproc
	endbr64
	pushq	%r12
	.cfi_def_cfa_offset 16
	.cfi_offset 12, -16
	pushq	%rbp
	.cfi_def_cfa_offset 24
	.cfi_offset 6, -24
	pushq	%rbx
	.cfi_def_cfa_offset 32
	.cfi_offset 3, -32
	movq	24(%rdi), %rbp
	movq	%rdi, %rbx
	testq	%rbp, %rbp
	je	.L79
	movq	_ZL28__gthrw___pthread_key_createPjPFvPvE@GOTPCREL(%rip), %r12
	testq	%r12, %r12
	je	.L80
	movl	$-1, %eax
	lock xaddl	%eax, 8(%rbp)
	cmpl	$1, %eax
	je	.L93
	.p2align 4,,10
	.p2align 3
.L79:
	movq	8(%rbx), %rbp
	testq	%rbp, %rbp
	je	.L77
	movq	_ZL28__gthrw___pthread_key_createPjPFvPvE@GOTPCREL(%rip), %r12
	testq	%r12, %r12
	je	.L87
	movl	$-1, %eax
	lock xaddl	%eax, 8(%rbp)
	cmpl	$1, %eax
	je	.L94
.L77:
	popq	%rbx
	.cfi_remember_state
	.cfi_def_cfa_offset 24
	popq	%rbp
	.cfi_def_cfa_offset 16
	popq	%r12
	.cfi_def_cfa_offset 8
	ret
	.p2align 4,,10
	.p2align 3
.L80:
	.cfi_restore_state
	movl	8(%rbp), %eax
	leal	-1(%rax), %edx
	movl	%edx, 8(%rbp)
	cmpl	$1, %eax
	jne	.L79
.L93:
	movq	0(%rbp), %rax
	movq	%rbp, %rdi
	call	*16(%rax)
	testq	%r12, %r12
	je	.L83
	movl	$-1, %eax
	lock xaddl	%eax, 12(%rbp)
.L84:
	cmpl	$1, %eax
	jne	.L79
	movq	0(%rbp), %rax
	movq	%rbp, %rdi
	call	*24(%rax)
	jmp	.L79
	.p2align 4,,10
	.p2align 3
.L87:
	movl	8(%rbp), %eax
	leal	-1(%rax), %edx
	movl	%edx, 8(%rbp)
	cmpl	$1, %eax
	jne	.L77
.L94:
	movq	0(%rbp), %rax
	movq	%rbp, %rdi
	call	*16(%rax)
	testq	%r12, %r12
	je	.L90
	movl	$-1, %eax
	lock xaddl	%eax, 12(%rbp)
.L91:
	cmpl	$1, %eax
	jne	.L77
	movq	0(%rbp), %rax
	popq	%rbx
	.cfi_remember_state
	.cfi_def_cfa_offset 24
	movq	%rbp, %rdi
	popq	%rbp
	.cfi_def_cfa_offset 16
	popq	%r12
	.cfi_def_cfa_offset 8
	movq	24(%rax), %rax
	jmp	*%rax
	.p2align 4,,10
	.p2align 3
.L83:
	.cfi_restore_state
	movl	12(%rbp), %eax
	leal	-1(%rax), %edx
	movl	%edx, 12(%rbp)
	jmp	.L84
	.p2align 4,,10
	.p2align 3
.L90:
	movl	12(%rbp), %eax
	leal	-1(%rax), %edx
	movl	%edx, 12(%rbp)
	jmp	.L91
	.cfi_endproc
.LFE2031:
	.size	_ZN7openpal6LoggerD2Ev, .-_ZN7openpal6LoggerD2Ev
	.weak	_ZN7openpal6LoggerD1Ev
	.set	_ZN7openpal6LoggerD1Ev,_ZN7openpal6LoggerD2Ev
	.section	.text._ZN4asio28asio_handler_is_continuationEz,"axG",@progbits,_ZN4asio28asio_handler_is_continuationEz,comdat
	.p2align 4
	.weak	_ZN4asio28asio_handler_is_continuationEz
	.type	_ZN4asio28asio_handler_is_continuationEz, @function
_ZN4asio28asio_handler_is_continuationEz:
.LFB2752:
	.cfi_startproc
	endbr64
	xorl	%eax, %eax
	ret
	.cfi_endproc
.LFE2752:
	.size	_ZN4asio28asio_handler_is_continuationEz, .-_ZN4asio28asio_handler_is_continuationEz
	.text
	.align 2
	.p2align 4
	.globl	_ZN8asiodnp39IOHandler6EnableERKSt10shared_ptrIN8opendnp312ILinkSessionEE
	.type	_ZN8asiodnp39IOHandler6EnableERKSt10shared_ptrIN8opendnp312ILinkSessionEE, @function
_ZN8asiodnp39IOHandler6EnableERKSt10shared_ptrIN8opendnp312ILinkSessionEE:
.LFB7608:
	.cfi_startproc
	endbr64
	movabsq	$-6148914691236517205, %rcx
	pushq	%rbp
	.cfi_def_cfa_offset 16
	.cfi_offset 6, -16
	movq	120(%rdi), %r8
	movq	%rdi, %rbp
	movq	112(%rdi), %rax
	movq	%r8, %rdx
	subq	%rax, %rdx
	sarq	$3, %rdx
	imulq	%rcx, %rdx
	movq	%rdx, %rcx
	sarq	$2, %rcx
	testq	%rcx, %rcx
	jle	.L97
	leaq	(%rcx,%rcx,2), %rdx
	movq	(%rsi), %rdi
	salq	$5, %rdx
	addq	%rax, %rdx
	jmp	.L102
	.p2align 4,,10
	.p2align 3
.L125:
	cmpq	32(%rax), %rdi
	je	.L121
	cmpq	56(%rax), %rdi
	je	.L122
	cmpq	80(%rax), %rdi
	je	.L123
	addq	$96, %rax
	cmpq	%rax, %rdx
	je	.L124
.L102:
	cmpq	%rdi, 8(%rax)
	jne	.L125
.L98:
	cmpq	%rax, %r8
	je	.L114
	cmpb	$0, (%rax)
	jne	.L120
	cmpq	$0, 632(%rbp)
	movb	$1, (%rax)
	je	.L111
	cmpb	$0, 6(%rax)
	jne	.L120
	movb	$1, 6(%rax)
	movq	(%rdi), %rax
	call	*32(%rax)
.L120:
	movl	$1, %eax
	popq	%rbp
	.cfi_remember_state
	.cfi_def_cfa_offset 8
	ret
	.p2align 4,,10
	.p2align 3
.L124:
	.cfi_restore_state
	movabsq	$-6148914691236517205, %rcx
	movq	%r8, %rdx
	subq	%rax, %rdx
	sarq	$3, %rdx
	imulq	%rcx, %rdx
.L97:
	cmpq	$2, %rdx
	je	.L103
	cmpq	$3, %rdx
	je	.L104
	cmpq	$1, %rdx
	je	.L126
.L114:
	xorl	%eax, %eax
.L127:
	popq	%rbp
	.cfi_remember_state
	.cfi_def_cfa_offset 8
	ret
	.p2align 4,,10
	.p2align 3
.L111:
	.cfi_restore_state
	movq	64(%rbp), %rdi
	testq	%rdi, %rdi
	je	.L113
	movq	(%rdi), %rax
	movl	$1, %esi
	call	*16(%rax)
.L113:
	movq	0(%rbp), %rax
	movq	%rbp, %rdi
	call	*40(%rax)
	movl	$1, %eax
	popq	%rbp
	.cfi_remember_state
	.cfi_def_cfa_offset 8
	ret
	.p2align 4,,10
	.p2align 3
.L126:
	.cfi_restore_state
	movq	(%rsi), %rdi
.L108:
	cmpq	%rdi, 8(%rax)
	je	.L98
	xorl	%eax, %eax
	jmp	.L127
	.p2align 4,,10
	.p2align 3
.L104:
	movq	(%rsi), %rdi
	cmpq	%rdi, 8(%rax)
	je	.L98
	addq	$24, %rax
	jmp	.L107
	.p2align 4,,10
	.p2align 3
.L103:
	movq	(%rsi), %rdi
.L107:
	cmpq	%rdi, 8(%rax)
	je	.L98
	addq	$24, %rax
	jmp	.L108
	.p2align 4,,10
	.p2align 3
.L121:
	addq	$24, %rax
	jmp	.L98
	.p2align 4,,10
	.p2align 3
.L122:
	addq	$48, %rax
	jmp	.L98
	.p2align 4,,10
	.p2align 3
.L123:
	addq	$72, %rax
	jmp	.L98
	.cfi_endproc
.LFE7608:
	.size	_ZN8asiodnp39IOHandler6EnableERKSt10shared_ptrIN8opendnp312ILinkSessionEE, .-_ZN8asiodnp39IOHandler6EnableERKSt10shared_ptrIN8opendnp312ILinkSessionEE
	.align 2
	.p2align 4
	.globl	_ZN8asiodnp39IOHandler9BeginReadEv
	.type	_ZN8asiodnp39IOHandler9BeginReadEv, @function
_ZN8asiodnp39IOHandler9BeginReadEv:
.LFB7624:
	.cfi_startproc
	endbr64
	pushq	%rbp
	.cfi_def_cfa_offset 16
	.cfi_offset 6, -16
	movq	632(%rdi), %rbp
	addq	$216, %rdi
	call	_ZNK8opendnp315LinkLayerParser9WriteBuffEv@PLT
	cmpq	$0, 40(%rbp)
	je	.L129
	cmpb	$0, 56(%rbp)
	jne	.L129
	cmpb	$0, 57(%rbp)
	jne	.L129
	movq	0(%rbp), %rcx
	movb	$1, 57(%rbp)
	movq	%rbp, %rdi
	movl	%eax, %esi
	popq	%rbp
	.cfi_remember_state
	.cfi_def_cfa_offset 8
	movq	16(%rcx), %rcx
	jmp	*%rcx
	.p2align 4,,10
	.p2align 3
.L129:
	.cfi_restore_state
	popq	%rbp
	.cfi_def_cfa_offset 8
	ret
	.cfi_endproc
.LFE7624:
	.size	_ZN8asiodnp39IOHandler9BeginReadEv, .-_ZN8asiodnp39IOHandler9BeginReadEv
	.align 2
	.p2align 4
	.globl	_ZN8asiodnp39IOHandler12CheckForSendEv
	.type	_ZN8asiodnp39IOHandler12CheckForSendEv, @function
_ZN8asiodnp39IOHandler12CheckForSendEv:
.LFB7625:
	.cfi_startproc
	endbr64
	movq	152(%rdi), %rsi
	cmpq	184(%rdi), %rsi
	je	.L131
	movq	632(%rdi), %r8
	testq	%r8, %r8
	je	.L131
	cmpq	$0, 40(%r8)
	je	.L131
	cmpb	$0, 56(%r8)
	jne	.L131
	cmpb	$0, 58(%r8)
	jne	.L131
	movq	(%r8), %rax
	addl	$1, 100(%rdi)
	movq	%r8, %rdi
	movb	$1, 58(%r8)
	movq	24(%rax), %rax
	jmp	*%rax
	.p2align 4,,10
	.p2align 3
.L131:
	ret
	.cfi_endproc
.LFE7625:
	.size	_ZN8asiodnp39IOHandler12CheckForSendEv, .-_ZN8asiodnp39IOHandler12CheckForSendEv
	.align 2
	.p2align 4
	.globl	_ZN8asiodnp39IOHandler13SendToSessionERKN8opendnp35RouteERKNS1_16LinkHeaderFieldsERKN7openpal6RSliceE
	.type	_ZN8asiodnp39IOHandler13SendToSessionERKN8opendnp35RouteERKNS1_16LinkHeaderFieldsERKN7openpal6RSliceE, @function
_ZN8asiodnp39IOHandler13SendToSessionERKN8opendnp35RouteERKNS1_16LinkHeaderFieldsERKN7openpal6RSliceE:
.LFB7626:
	.cfi_startproc
	endbr64
	movq	%rsi, %rax
	movq	120(%rdi), %r9
	movq	%rdx, %rsi
	movq	%rcx, %rdx
	movzwl	(%rax), %r8d
	movzwl	2(%rax), %ecx
	movabsq	$-6148914691236517205, %r10
	movq	112(%rdi), %rax
	movq	%r9, %rdi
	subq	%rax, %rdi
	sarq	$3, %rdi
	imulq	%r10, %rdi
	movq	%rdi, %r10
	sarq	$2, %r10
	testq	%r10, %r10
	jle	.L137
	leaq	(%r10,%r10,2), %rdi
	salq	$5, %rdi
	addq	%rax, %rdi
.L143:
	cmpb	$0, (%rax)
	je	.L138
	cmpw	2(%rax), %r8w
	je	.L159
.L138:
	cmpb	$0, 24(%rax)
	je	.L140
	cmpw	26(%rax), %r8w
	je	.L160
.L140:
	cmpb	$0, 48(%rax)
	je	.L141
	cmpw	50(%rax), %r8w
	je	.L161
.L141:
	cmpb	$0, 72(%rax)
	je	.L142
	cmpw	74(%rax), %r8w
	je	.L162
.L142:
	addq	$96, %rax
	cmpq	%rdi, %rax
	jne	.L143
	movabsq	$-6148914691236517205, %r10
	movq	%r9, %rdi
	subq	%rax, %rdi
	sarq	$3, %rdi
	imulq	%r10, %rdi
.L137:
	cmpq	$2, %rdi
	je	.L144
	cmpq	$3, %rdi
	je	.L145
	cmpq	$1, %rdi
	je	.L146
.L136:
	xorl	%eax, %eax
	ret
	.p2align 4,,10
	.p2align 3
.L159:
	cmpw	4(%rax), %cx
	jne	.L138
.L139:
	cmpq	%rax, %r9
	je	.L136
	movq	8(%rax), %rdi
	movq	(%rdi), %rax
	jmp	*16(%rax)
	.p2align 4,,10
	.p2align 3
.L160:
	cmpw	28(%rax), %cx
	jne	.L140
	addq	$24, %rax
	jmp	.L139
	.p2align 4,,10
	.p2align 3
.L161:
	cmpw	52(%rax), %cx
	jne	.L141
	addq	$48, %rax
	jmp	.L139
	.p2align 4,,10
	.p2align 3
.L162:
	cmpw	76(%rax), %cx
	jne	.L142
	addq	$72, %rax
	jmp	.L139
	.p2align 4,,10
	.p2align 3
.L145:
	cmpb	$0, (%rax)
	je	.L148
	cmpw	2(%rax), %r8w
	je	.L163
.L148:
	addq	$24, %rax
.L144:
	cmpb	$0, (%rax)
	je	.L149
	cmpw	2(%rax), %r8w
	je	.L164
.L149:
	addq	$24, %rax
.L146:
	cmpb	$0, (%rax)
	je	.L136
	cmpw	2(%rax), %r8w
	jne	.L136
	cmpw	4(%rax), %cx
	jne	.L136
	jmp	.L139
.L164:
	cmpw	4(%rax), %cx
	jne	.L149
	jmp	.L139
.L163:
	cmpw	4(%rax), %cx
	jne	.L148
	jmp	.L139
	.cfi_endproc
.LFE7626:
	.size	_ZN8asiodnp39IOHandler13SendToSessionERKN8opendnp35RouteERKNS1_16LinkHeaderFieldsERKN7openpal6RSliceE, .-_ZN8asiodnp39IOHandler13SendToSessionERKN8opendnp35RouteERKNS1_16LinkHeaderFieldsERKN7openpal6RSliceE
	.section	.rodata.str1.8,"aMS",@progbits,1
	.align 8
.LC23:
	.string	"Frame w/ unknown route, source: %i, dest %i"
	.align 8
.LC24:
	.string	"/home/kimchaer/Desktop/OpenPLC_v3/utils/dnp3_src/cpp/libs/src/asiodnp3/IOHandler.cpp(254)"
	.text
	.align 2
	.p2align 4
	.globl	_ZN8asiodnp39IOHandler7OnFrameERKN8opendnp316LinkHeaderFieldsERKN7openpal6RSliceE
	.type	_ZN8asiodnp39IOHandler7OnFrameERKN8opendnp316LinkHeaderFieldsERKN7openpal6RSliceE, @function
_ZN8asiodnp39IOHandler7OnFrameERKN8opendnp316LinkHeaderFieldsERKN7openpal6RSliceE:
.LFB7623:
	.cfi_startproc
	endbr64
	pushq	%r14
	.cfi_def_cfa_offset 16
	.cfi_offset 14, -16
	movq	%rdx, %rcx
	pushq	%r13
	.cfi_def_cfa_offset 24
	.cfi_offset 13, -24
	pushq	%r12
	.cfi_def_cfa_offset 32
	.cfi_offset 12, -32
	pushq	%rbp
	.cfi_def_cfa_offset 40
	.cfi_offset 6, -40
	movq	%rdi, %rbp
	pushq	%rbx
	.cfi_def_cfa_offset 48
	.cfi_offset 3, -48
	movq	%rsi, %rbx
	subq	$144, %rsp
	.cfi_def_cfa_offset 192
	movzwl	6(%rsi), %edx
	movq	%fs:40, %rax
	movq	%rax, 136(%rsp)
	xorl	%eax, %eax
	leaq	12(%rsp), %r13
	movzwl	4(%rsi), %eax
	movw	%dx, 12(%rsp)
	movq	%rsi, %rdx
	movq	%r13, %rsi
	movw	%ax, 14(%rsp)
	call	_ZN8asiodnp39IOHandler13SendToSessionERKN8opendnp35RouteERKNS1_16LinkHeaderFieldsERKN7openpal6RSliceE@PLT
	movl	%eax, %r12d
	testb	%al, %al
	je	.L172
.L165:
	movq	136(%rsp), %rax
	xorq	%fs:40, %rax
	jne	.L173
	addq	$144, %rsp
	.cfi_remember_state
	.cfi_def_cfa_offset 48
	movl	%r12d, %eax
	popq	%rbx
	.cfi_def_cfa_offset 40
	popq	%rbp
	.cfi_def_cfa_offset 32
	popq	%r12
	.cfi_def_cfa_offset 24
	popq	%r13
	.cfi_def_cfa_offset 16
	popq	%r14
	.cfi_def_cfa_offset 8
	ret
	.p2align 4,,10
	.p2align 3
.L172:
	.cfi_restore_state
	addq	$32, %rbp
	movq	%r13, %rsi
	movl	$4, 12(%rsp)
	movq	%rbp, %rdi
	call	_ZNK7openpal6Logger9IsEnabledERKNS_10LogFiltersE@PLT
	testb	%al, %al
	je	.L165
	movzwl	4(%rbx), %eax
	leaq	16(%rsp), %r14
	subq	$8, %rsp
	.cfi_def_cfa_offset 200
	movzwl	6(%rbx), %r9d
	movq	%r14, %rdi
	movl	$120, %ecx
	movl	$1, %edx
	movl	$120, %esi
	pushq	%rax
	.cfi_def_cfa_offset 208
	leaq	.LC23(%rip), %r8
	xorl	%eax, %eax
	call	__snprintf_chk@PLT
	movq	%r14, %rcx
	movq	%r13, %rsi
	movq	%rbp, %rdi
	movl	$4, 28(%rsp)
	popq	%rax
	.cfi_def_cfa_offset 200
	popq	%rdx
	.cfi_def_cfa_offset 192
	leaq	.LC24(%rip), %rdx
	call	_ZN7openpal6Logger3LogERKNS_10LogFiltersEPKcS5_@PLT
	jmp	.L165
.L173:
	call	__stack_chk_fail@PLT
	.cfi_endproc
.LFE7623:
	.size	_ZN8asiodnp39IOHandler7OnFrameERKN8opendnp316LinkHeaderFieldsERKN7openpal6RSliceE, .-_ZN8asiodnp39IOHandler7OnFrameERKN8opendnp316LinkHeaderFieldsERKN7openpal6RSliceE
	.align 2
	.p2align 4
	.globl	_ZNK8asiodnp39IOHandler12IsRouteInUseERKN8opendnp35RouteE
	.type	_ZNK8asiodnp39IOHandler12IsRouteInUseERKN8opendnp35RouteE, @function
_ZNK8asiodnp39IOHandler12IsRouteInUseERKN8opendnp35RouteE:
.LFB7628:
	.cfi_startproc
	endbr64
	movq	120(%rdi), %r9
	movq	112(%rdi), %rax
	movzwl	(%rsi), %ecx
	movzwl	2(%rsi), %r8d
	movabsq	$-6148914691236517205, %rsi
	movq	%r9, %rdx
	subq	%rax, %rdx
	sarq	$3, %rdx
	imulq	%rsi, %rdx
	movq	%rdx, %rsi
	sarq	$2, %rsi
	testq	%rsi, %rsi
	jle	.L175
	leaq	(%rsi,%rsi,2), %rdx
	salq	$5, %rdx
	addq	%rax, %rdx
.L186:
	cmpw	2(%rax), %cx
	je	.L205
	cmpw	26(%rax), %cx
	je	.L206
.L178:
	cmpw	50(%rax), %cx
	je	.L207
.L181:
	cmpw	74(%rax), %cx
	je	.L208
.L184:
	addq	$96, %rax
	cmpq	%rax, %rdx
	jne	.L186
	movabsq	$-6148914691236517205, %rsi
	movq	%r9, %rdx
	subq	%rax, %rdx
	sarq	$3, %rdx
	imulq	%rsi, %rdx
.L175:
	cmpq	$2, %rdx
	je	.L187
	cmpq	$3, %rdx
	je	.L188
	xorl	%r10d, %r10d
	cmpq	$1, %rdx
	jne	.L174
.L189:
	xorl	%r10d, %r10d
	cmpw	2(%rax), %cx
	jne	.L174
	cmpw	4(%rax), %r8w
	jne	.L174
	.p2align 4,,10
	.p2align 3
.L203:
	cmpq	%rax, %r9
	setne	%r10b
.L174:
	movl	%r10d, %eax
	ret
	.p2align 4,,10
	.p2align 3
.L205:
	cmpw	4(%rax), %r8w
	je	.L203
	cmpw	26(%rax), %cx
	jne	.L178
.L206:
	cmpw	28(%rax), %r8w
	jne	.L178
	addq	$24, %rax
	cmpq	%rax, %r9
	setne	%r10b
	movl	%r10d, %eax
	ret
	.p2align 4,,10
	.p2align 3
.L207:
	cmpw	52(%rax), %r8w
	jne	.L181
	addq	$48, %rax
	cmpq	%rax, %r9
	setne	%r10b
	movl	%r10d, %eax
	ret
	.p2align 4,,10
	.p2align 3
.L208:
	cmpw	76(%rax), %r8w
	jne	.L184
	addq	$72, %rax
	cmpq	%rax, %r9
	setne	%r10b
	movl	%r10d, %eax
	ret
	.p2align 4,,10
	.p2align 3
.L188:
	cmpw	2(%rax), %cx
	je	.L209
.L190:
	addq	$24, %rax
.L187:
	cmpw	2(%rax), %cx
	je	.L210
.L192:
	addq	$24, %rax
	jmp	.L189
.L210:
	cmpw	4(%rax), %r8w
	jne	.L192
	jmp	.L203
.L209:
	cmpw	4(%rax), %r8w
	jne	.L190
	jmp	.L203
	.cfi_endproc
.LFE7628:
	.size	_ZNK8asiodnp39IOHandler12IsRouteInUseERKN8opendnp35RouteE, .-_ZNK8asiodnp39IOHandler12IsRouteInUseERKN8opendnp35RouteE
	.align 2
	.p2align 4
	.globl	_ZNK8asiodnp39IOHandler14IsSessionInUseERKSt10shared_ptrIN8opendnp312ILinkSessionEE
	.type	_ZNK8asiodnp39IOHandler14IsSessionInUseERKSt10shared_ptrIN8opendnp312ILinkSessionEE, @function
_ZNK8asiodnp39IOHandler14IsSessionInUseERKSt10shared_ptrIN8opendnp312ILinkSessionEE:
.LFB7630:
	.cfi_startproc
	endbr64
	movq	120(%rdi), %r8
	movq	112(%rdi), %rax
	movabsq	$-6148914691236517205, %rcx
	movq	%r8, %rdx
	subq	%rax, %rdx
	sarq	$3, %rdx
	imulq	%rcx, %rdx
	movq	%rdx, %rdi
	sarq	$2, %rdi
	testq	%rdi, %rdi
	jle	.L212
	leaq	(%rdi,%rdi,2), %rdx
	movq	(%rsi), %rcx
	salq	$5, %rdx
	addq	%rax, %rdx
	jmp	.L218
	.p2align 4,,10
	.p2align 3
.L213:
	cmpq	32(%rax), %rcx
	je	.L229
	cmpq	56(%rax), %rcx
	je	.L230
	cmpq	80(%rax), %rcx
	je	.L231
	addq	$96, %rax
	cmpq	%rdx, %rax
	je	.L232
.L218:
	cmpq	%rcx, 8(%rax)
	jne	.L213
.L228:
	cmpq	%rax, %r8
	setne	%r9b
.L211:
	movl	%r9d, %eax
	ret
	.p2align 4,,10
	.p2align 3
.L232:
	movabsq	$-6148914691236517205, %rcx
	movq	%r8, %rdx
	subq	%rax, %rdx
	sarq	$3, %rdx
	imulq	%rcx, %rdx
.L212:
	cmpq	$2, %rdx
	je	.L219
	cmpq	$3, %rdx
	je	.L220
	xorl	%r9d, %r9d
	cmpq	$1, %rdx
	jne	.L211
	movq	(%rsi), %rdx
.L223:
	xorl	%r9d, %r9d
	cmpq	%rdx, 8(%rax)
	jne	.L211
	jmp	.L228
	.p2align 4,,10
	.p2align 3
.L220:
	movq	(%rsi), %rdx
	cmpq	%rdx, 8(%rax)
	je	.L228
	addq	$24, %rax
	jmp	.L222
	.p2align 4,,10
	.p2align 3
.L219:
	movq	(%rsi), %rdx
.L222:
	cmpq	%rdx, 8(%rax)
	je	.L228
	addq	$24, %rax
	jmp	.L223
	.p2align 4,,10
	.p2align 3
.L229:
	addq	$24, %rax
	cmpq	%rax, %r8
	setne	%r9b
	movl	%r9d, %eax
	ret
	.p2align 4,,10
	.p2align 3
.L230:
	addq	$48, %rax
	cmpq	%rax, %r8
	setne	%r9b
	movl	%r9d, %eax
	ret
	.p2align 4,,10
	.p2align 3
.L231:
	addq	$72, %rax
	cmpq	%rax, %r8
	setne	%r9b
	movl	%r9d, %eax
	ret
	.cfi_endproc
.LFE7630:
	.size	_ZNK8asiodnp39IOHandler14IsSessionInUseERKSt10shared_ptrIN8opendnp312ILinkSessionEE, .-_ZNK8asiodnp39IOHandler14IsSessionInUseERKSt10shared_ptrIN8opendnp312ILinkSessionEE
	.align 2
	.p2align 4
	.globl	_ZNK8asiodnp39IOHandler19IsAnySessionEnabledEv
	.type	_ZNK8asiodnp39IOHandler19IsAnySessionEnabledEv, @function
_ZNK8asiodnp39IOHandler19IsAnySessionEnabledEv:
.LFB7632:
	.cfi_startproc
	endbr64
	movq	120(%rdi), %rcx
	movq	112(%rdi), %rax
	movabsq	$-6148914691236517205, %rsi
	movq	%rcx, %rdx
	subq	%rax, %rdx
	sarq	$3, %rdx
	imulq	%rsi, %rdx
	movq	%rdx, %rsi
	sarq	$2, %rsi
	testq	%rsi, %rsi
	jle	.L234
	leaq	(%rsi,%rsi,2), %rdx
	salq	$5, %rdx
	addq	%rax, %rdx
	jmp	.L240
	.p2align 4,,10
	.p2align 3
.L235:
	cmpb	$0, 24(%rax)
	jne	.L257
	cmpb	$0, 48(%rax)
	jne	.L258
	cmpb	$0, 72(%rax)
	jne	.L259
	addq	$96, %rax
	cmpq	%rax, %rdx
	je	.L260
.L240:
	cmpb	$0, (%rax)
	je	.L235
.L256:
	cmpq	%rax, %rcx
	setne	%r8b
.L233:
	movl	%r8d, %eax
	ret
	.p2align 4,,10
	.p2align 3
.L260:
	movabsq	$-6148914691236517205, %rsi
	movq	%rcx, %rdx
	subq	%rax, %rdx
	sarq	$3, %rdx
	imulq	%rsi, %rdx
.L234:
	cmpq	$2, %rdx
	je	.L241
	cmpq	$3, %rdx
	je	.L242
	xorl	%r8d, %r8d
	cmpq	$1, %rdx
	jne	.L233
.L243:
	movzbl	(%rax), %r8d
	testb	%r8b, %r8b
	je	.L233
	jmp	.L256
	.p2align 4,,10
	.p2align 3
.L242:
	cmpb	$0, (%rax)
	jne	.L256
	addq	$24, %rax
.L241:
	cmpb	$0, (%rax)
	jne	.L256
	addq	$24, %rax
	jmp	.L243
	.p2align 4,,10
	.p2align 3
.L257:
	addq	$24, %rax
	cmpq	%rax, %rcx
	setne	%r8b
	movl	%r8d, %eax
	ret
	.p2align 4,,10
	.p2align 3
.L258:
	addq	$48, %rax
	cmpq	%rax, %rcx
	setne	%r8b
	movl	%r8d, %eax
	ret
	.p2align 4,,10
	.p2align 3
.L259:
	addq	$72, %rax
	cmpq	%rax, %rcx
	setne	%r8b
	movl	%r8d, %eax
	ret
	.cfi_endproc
.LFE7632:
	.size	_ZNK8asiodnp39IOHandler19IsAnySessionEnabledEv, .-_ZNK8asiodnp39IOHandler19IsAnySessionEnabledEv
	.align 2
	.p2align 4
	.globl	_ZN8asiodnp39IOHandler6RemoveERKSt10shared_ptrIN8opendnp312ILinkSessionEE
	.type	_ZN8asiodnp39IOHandler6RemoveERKSt10shared_ptrIN8opendnp312ILinkSessionEE, @function
_ZN8asiodnp39IOHandler6RemoveERKSt10shared_ptrIN8opendnp312ILinkSessionEE:
.LFB7612:
	.cfi_startproc
	endbr64
	movabsq	$-6148914691236517205, %rcx
	pushq	%r14
	.cfi_def_cfa_offset 16
	.cfi_offset 14, -16
	pushq	%r13
	.cfi_def_cfa_offset 24
	.cfi_offset 13, -24
	pushq	%r12
	.cfi_def_cfa_offset 32
	.cfi_offset 12, -32
	movq	%rdi, %r12
	pushq	%rbp
	.cfi_def_cfa_offset 40
	.cfi_offset 6, -40
	pushq	%rbx
	.cfi_def_cfa_offset 48
	.cfi_offset 3, -48
	movq	120(%rdi), %rdx
	movq	112(%rdi), %rbx
	movq	%rdx, %rax
	subq	%rbx, %rax
	sarq	$3, %rax
	imulq	%rcx, %rax
	movq	%rax, %rcx
	sarq	$2, %rcx
	testq	%rcx, %rcx
	jle	.L262
	leaq	(%rcx,%rcx,2), %rax
	movq	(%rsi), %rdi
	salq	$5, %rax
	addq	%rbx, %rax
	jmp	.L267
	.p2align 4,,10
	.p2align 3
.L301:
	cmpq	32(%rbx), %rdi
	je	.L297
	cmpq	56(%rbx), %rdi
	je	.L298
	cmpq	80(%rbx), %rdi
	je	.L299
	addq	$96, %rbx
	cmpq	%rbx, %rax
	je	.L300
.L267:
	cmpq	%rdi, 8(%rbx)
	jne	.L301
.L263:
	cmpq	%rbx, %rdx
	je	.L293
	cmpq	$0, 632(%r12)
	je	.L275
	cmpb	$0, 6(%rbx)
	je	.L275
	movq	(%rdi), %rax
	movb	$0, 6(%rbx)
	call	*40(%rax)
	movq	120(%r12), %rdx
.L275:
	addq	$24, %rbx
	cmpq	%rdx, %rbx
	je	.L276
	movabsq	$-6148914691236517205, %rcx
	movq	%rdx, %rax
	subq	%rbx, %rax
	movq	%rax, %r13
	sarq	$3, %r13
	imulq	%rcx, %r13
	testq	%rax, %rax
	jg	.L284
	jmp	.L276
	.p2align 4,,10
	.p2align 3
.L304:
	movl	$-1, %eax
	lock xaddl	%eax, 8(%rbp)
	cmpl	$1, %eax
	je	.L302
.L278:
	addq	$24, %rbx
	subq	$1, %r13
	je	.L303
.L284:
	movzbl	(%rbx), %eax
	movdqu	8(%rbx), %xmm0
	pxor	%xmm1, %xmm1
	movq	-8(%rbx), %rbp
	movups	%xmm1, 8(%rbx)
	movb	%al, -24(%rbx)
	movl	2(%rbx), %eax
	movups	%xmm0, -16(%rbx)
	movl	%eax, -22(%rbx)
	movzbl	6(%rbx), %eax
	movb	%al, -18(%rbx)
	testq	%rbp, %rbp
	je	.L278
	movq	_ZL28__gthrw___pthread_key_createPjPFvPvE@GOTPCREL(%rip), %r14
	testq	%r14, %r14
	jne	.L304
	movl	8(%rbp), %eax
	leal	-1(%rax), %edx
	movl	%edx, 8(%rbp)
	cmpl	$1, %eax
	jne	.L278
.L302:
	movq	0(%rbp), %rax
	movq	%rbp, %rdi
	call	*16(%rax)
	testq	%r14, %r14
	je	.L282
	movl	$-1, %eax
	lock xaddl	%eax, 12(%rbp)
.L283:
	cmpl	$1, %eax
	jne	.L278
	movq	0(%rbp), %rax
	movq	%rbp, %rdi
	addq	$24, %rbx
	call	*24(%rax)
	subq	$1, %r13
	jne	.L284
	.p2align 4,,10
	.p2align 3
.L303:
	movq	120(%r12), %rdx
.L276:
	movq	-8(%rdx), %rbp
	leaq	-24(%rdx), %rax
	movq	%rax, 120(%r12)
	testq	%rbp, %rbp
	je	.L286
	movq	_ZL28__gthrw___pthread_key_createPjPFvPvE@GOTPCREL(%rip), %r14
	testq	%r14, %r14
	je	.L287
	movl	$-1, %eax
	lock xaddl	%eax, 8(%rbp)
	cmpl	$1, %eax
	je	.L305
	.p2align 4,,10
	.p2align 3
.L286:
	movq	%r12, %rdi
	call	_ZNK8asiodnp39IOHandler19IsAnySessionEnabledEv@PLT
	testb	%al, %al
	jne	.L261
	movq	(%r12), %rax
	movq	%r12, %rdi
	call	*48(%rax)
	movl	$1, %eax
.L261:
	popq	%rbx
	.cfi_remember_state
	.cfi_def_cfa_offset 40
	popq	%rbp
	.cfi_def_cfa_offset 32
	popq	%r12
	.cfi_def_cfa_offset 24
	popq	%r13
	.cfi_def_cfa_offset 16
	popq	%r14
	.cfi_def_cfa_offset 8
	ret
	.p2align 4,,10
	.p2align 3
.L282:
	.cfi_restore_state
	movl	12(%rbp), %eax
	leal	-1(%rax), %edx
	movl	%edx, 12(%rbp)
	jmp	.L283
	.p2align 4,,10
	.p2align 3
.L300:
	movabsq	$-6148914691236517205, %rcx
	movq	%rdx, %rax
	subq	%rbx, %rax
	sarq	$3, %rax
	imulq	%rcx, %rax
.L262:
	cmpq	$2, %rax
	je	.L268
	cmpq	$3, %rax
	je	.L269
	cmpq	$1, %rax
	je	.L306
.L293:
	xorl	%eax, %eax
.L307:
	popq	%rbx
	.cfi_remember_state
	.cfi_def_cfa_offset 40
	popq	%rbp
	.cfi_def_cfa_offset 32
	popq	%r12
	.cfi_def_cfa_offset 24
	popq	%r13
	.cfi_def_cfa_offset 16
	popq	%r14
	.cfi_def_cfa_offset 8
	ret
	.p2align 4,,10
	.p2align 3
.L287:
	.cfi_restore_state
	movl	8(%rbp), %eax
	leal	-1(%rax), %edx
	movl	%edx, 8(%rbp)
	cmpl	$1, %eax
	jne	.L286
.L305:
	movq	0(%rbp), %rax
	movq	%rbp, %rdi
	call	*16(%rax)
	testq	%r14, %r14
	je	.L290
	movl	$-1, %eax
	lock xaddl	%eax, 12(%rbp)
.L291:
	cmpl	$1, %eax
	jne	.L286
	movq	0(%rbp), %rax
	movq	%rbp, %rdi
	call	*24(%rax)
	jmp	.L286
	.p2align 4,,10
	.p2align 3
.L269:
	movq	(%rsi), %rax
	cmpq	%rax, 8(%rbx)
	je	.L292
	addq	$24, %rbx
	jmp	.L272
	.p2align 4,,10
	.p2align 3
.L306:
	movq	(%rsi), %rax
.L273:
	movq	8(%rbx), %rdi
	cmpq	%rdi, %rax
	je	.L263
	xorl	%eax, %eax
	jmp	.L307
	.p2align 4,,10
	.p2align 3
.L268:
	movq	(%rsi), %rax
.L272:
	movq	8(%rbx), %rdi
	cmpq	%rdi, %rax
	je	.L263
	addq	$24, %rbx
	jmp	.L273
	.p2align 4,,10
	.p2align 3
.L297:
	addq	$24, %rbx
	jmp	.L263
	.p2align 4,,10
	.p2align 3
.L298:
	addq	$48, %rbx
	jmp	.L263
	.p2align 4,,10
	.p2align 3
.L299:
	addq	$72, %rbx
	jmp	.L263
	.p2align 4,,10
	.p2align 3
.L290:
	movl	12(%rbp), %eax
	leal	-1(%rax), %edx
	movl	%edx, 12(%rbp)
	jmp	.L291
	.p2align 4,,10
	.p2align 3
.L292:
	movq	%rax, %rdi
	jmp	.L263
	.cfi_endproc
.LFE7612:
	.size	_ZN8asiodnp39IOHandler6RemoveERKSt10shared_ptrIN8opendnp312ILinkSessionEE, .-_ZN8asiodnp39IOHandler6RemoveERKSt10shared_ptrIN8opendnp312ILinkSessionEE
	.section	.text._ZNSt16_Sp_counted_baseILN9__gnu_cxx12_Lock_policyE2EE10_M_releaseEv,"axG",@progbits,_ZNSt16_Sp_counted_baseILN9__gnu_cxx12_Lock_policyE2EE10_M_releaseEv,comdat
	.align 2
	.p2align 4
	.weak	_ZNSt16_Sp_counted_baseILN9__gnu_cxx12_Lock_policyE2EE10_M_releaseEv
	.type	_ZNSt16_Sp_counted_baseILN9__gnu_cxx12_Lock_policyE2EE10_M_releaseEv, @function
_ZNSt16_Sp_counted_baseILN9__gnu_cxx12_Lock_policyE2EE10_M_releaseEv:
.LFB8608:
	.cfi_startproc
	endbr64
	pushq	%rbp
	.cfi_def_cfa_offset 16
	.cfi_offset 6, -16
	movq	%rdi, %rbp
	pushq	%rbx
	.cfi_def_cfa_offset 24
	.cfi_offset 3, -24
	subq	$8, %rsp
	.cfi_def_cfa_offset 32
	movq	_ZL28__gthrw___pthread_key_createPjPFvPvE@GOTPCREL(%rip), %rbx
	testq	%rbx, %rbx
	je	.L309
	movl	$-1, %eax
	lock xaddl	%eax, 8(%rdi)
	cmpl	$1, %eax
	je	.L317
.L308:
	addq	$8, %rsp
	.cfi_remember_state
	.cfi_def_cfa_offset 24
	popq	%rbx
	.cfi_def_cfa_offset 16
	popq	%rbp
	.cfi_def_cfa_offset 8
	ret
	.p2align 4,,10
	.p2align 3
.L309:
	.cfi_restore_state
	movl	8(%rdi), %eax
	leal	-1(%rax), %edx
	movl	%edx, 8(%rdi)
	cmpl	$1, %eax
	jne	.L308
.L317:
	movq	0(%rbp), %rax
	movq	%rbp, %rdi
	call	*16(%rax)
	testq	%rbx, %rbx
	je	.L313
	movl	$-1, %eax
	lock xaddl	%eax, 12(%rbp)
.L314:
	cmpl	$1, %eax
	jne	.L308
	movq	0(%rbp), %rax
	movq	%rbp, %rdi
	movq	24(%rax), %rax
	addq	$8, %rsp
	.cfi_remember_state
	.cfi_def_cfa_offset 24
	popq	%rbx
	.cfi_def_cfa_offset 16
	popq	%rbp
	.cfi_def_cfa_offset 8
	jmp	*%rax
	.p2align 4,,10
	.p2align 3
.L313:
	.cfi_restore_state
	movl	12(%rbp), %eax
	leal	-1(%rax), %edx
	movl	%edx, 12(%rbp)
	jmp	.L314
	.cfi_endproc
.LFE8608:
	.size	_ZNSt16_Sp_counted_baseILN9__gnu_cxx12_Lock_policyE2EE10_M_releaseEv, .-_ZNSt16_Sp_counted_baseILN9__gnu_cxx12_Lock_policyE2EE10_M_releaseEv
	.section	.text._ZN7asiopal13IAsyncChannel16CheckForShutdownESt10shared_ptrIS0_E,"axG",@progbits,_ZN7asiopal13IAsyncChannel16CheckForShutdownESt10shared_ptrIS0_E,comdat
	.align 2
	.p2align 4
	.weak	_ZN7asiopal13IAsyncChannel16CheckForShutdownESt10shared_ptrIS0_E
	.type	_ZN7asiopal13IAsyncChannel16CheckForShutdownESt10shared_ptrIS0_E, @function
_ZN7asiopal13IAsyncChannel16CheckForShutdownESt10shared_ptrIS0_E:
.LFB7502:
	.cfi_startproc
	.cfi_personality 0x9b,DW.ref.__gxx_personality_v0
	.cfi_lsda 0x1b,.LLSDA7502
	endbr64
	pushq	%r15
	.cfi_def_cfa_offset 16
	.cfi_offset 15, -16
	pushq	%r14
	.cfi_def_cfa_offset 24
	.cfi_offset 14, -24
	pushq	%r13
	.cfi_def_cfa_offset 32
	.cfi_offset 13, -32
	pushq	%r12
	.cfi_def_cfa_offset 40
	.cfi_offset 12, -40
	pushq	%rbp
	.cfi_def_cfa_offset 48
	.cfi_offset 6, -48
	pushq	%rbx
	.cfi_def_cfa_offset 56
	.cfi_offset 3, -56
	subq	$56, %rsp
	.cfi_def_cfa_offset 112
	movq	%fs:40, %rax
	movq	%rax, 40(%rsp)
	xorl	%eax, %eax
	movq	(%rsi), %rax
	cmpb	$0, 57(%rax)
	jne	.L319
	cmpb	$0, 58(%rax)
	jne	.L319
	pxor	%xmm0, %xmm0
	movq	48(%rax), %r12
	movups	%xmm0, 40(%rax)
.L408:
	testq	%r12, %r12
	je	.L318
	movq	_ZL28__gthrw___pthread_key_createPjPFvPvE@GOTPCREL(%rip), %rbp
	testq	%rbp, %rbp
	je	.L364
	movl	$-1, %eax
	lock xaddl	%eax, 8(%r12)
	cmpl	$1, %eax
	je	.L409
	.p2align 4,,10
	.p2align 3
.L318:
	movq	40(%rsp), %rax
	xorq	%fs:40, %rax
	jne	.L410
	addq	$56, %rsp
	.cfi_remember_state
	.cfi_def_cfa_offset 56
	popq	%rbx
	.cfi_def_cfa_offset 48
	popq	%rbp
	.cfi_def_cfa_offset 40
	popq	%r12
	.cfi_def_cfa_offset 32
	popq	%r13
	.cfi_def_cfa_offset 24
	popq	%r14
	.cfi_def_cfa_offset 16
	popq	%r15
	.cfi_def_cfa_offset 8
	ret
	.p2align 4,,10
	.p2align 3
.L319:
	.cfi_restore_state
	movq	8(%rsi), %r12
	testq	%r12, %r12
	je	.L321
	movq	_ZL28__gthrw___pthread_key_createPjPFvPvE@GOTPCREL(%rip), %rbp
	leaq	8(%r12), %rdx
	testq	%rbp, %rbp
	je	.L322
	lock addl	$1, (%rdx)
	movq	(%rsi), %rcx
.L323:
	movq	%rax, %xmm0
	movq	%r12, %xmm1
	movq	24(%rcx), %rbx
	punpcklqdq	%xmm1, %xmm0
	movaps	%xmm0, 16(%rsp)
	testq	%rbp, %rbp
	je	.L411
	lock addl	$1, (%rdx)
	movq	24(%rsp), %r15
.L324:
	leaq	16(%rsp), %rdi
	xorl	%eax, %eax
	movq	40(%rbx), %r14
	call	_ZN4asio28asio_handler_is_continuationEz@PLT
	movl	%eax, %r13d
	data16	leaq	_ZN4asio6detail15keyword_tss_ptrINS0_10call_stackINS0_15task_io_serviceENS0_27task_io_service_thread_infoEE7contextEE6value_E@tlsgd(%rip), %rdi
	.value	0x6666
	rex64
	call	__tls_get_addr@PLT
	movq	(%rax), %rax
	testq	%rax, %rax
	je	.L325
	movq	8(%rax), %rax
	testq	%rax, %rax
	je	.L325
	movq	(%rax), %rbp
	testq	%rbp, %rbp
	je	.L325
	movq	$0, (%rax)
	movzbl	0(%rbp), %eax
	cmpb	$39, %al
	jbe	.L326
	movb	%al, 40(%rbp)
	jmp	.L327
	.p2align 4,,10
	.p2align 3
.L326:
	movq	%rbp, %rdi
	call	_ZdlPv@PLT
.L325:
	movl	$41, %edi
.LEHB0:
	call	_Znwm@PLT
.LEHE0:
	movb	$40, 40(%rax)
	movq	%rax, %rbp
.L327:
	movq	_ZN4asio6detail18completion_handlerIZN7asiopal13IAsyncChannel16CheckForShutdownESt10shared_ptrIS3_EEUlvE_E11do_completeEPNS0_15task_io_serviceEPNS0_25task_io_service_operationERKSt10error_codem@GOTPCREL(%rip), %rax
	movq	$0, 0(%rbp)
	pxor	%xmm0, %xmm0
	movl	$0, 16(%rbp)
	movq	%rax, 8(%rbp)
	movq	16(%rsp), %rax
	movq	%r15, 32(%rbp)
	movq	%rax, 24(%rbp)
	movq	48(%rbx), %rax
	movaps	%xmm0, 16(%rsp)
	leaq	24(%rax), %rdi
	call	pthread_mutex_lock@PLT
	movq	48(%rbx), %rdi
	cmpb	$0, 64(%rdi)
	je	.L328
	cmpq	$0, 80(%rdi)
	movq	$0, 0(%rbp)
	je	.L329
	movq	80(%rdi), %rax
	movq	%rbp, (%rax)
	movq	%rbp, 80(%rdi)
.L330:
	addq	$24, %rdi
	call	pthread_mutex_unlock@PLT
	jmp	.L408
	.p2align 4,,10
	.p2align 3
.L364:
	movl	8(%r12), %eax
	leal	-1(%rax), %edx
	movl	%edx, 8(%r12)
	cmpl	$1, %eax
	jne	.L318
.L409:
	movq	(%r12), %rax
	movq	%r12, %rdi
	call	*16(%rax)
	testq	%rbp, %rbp
	je	.L367
	movl	$-1, %eax
	lock xaddl	%eax, 12(%r12)
.L368:
	cmpl	$1, %eax
	jne	.L318
	movq	(%r12), %rax
	movq	%r12, %rdi
	call	*24(%rax)
	jmp	.L318
	.p2align 4,,10
	.p2align 3
.L328:
	movb	$1, 64(%rdi)
	addq	$24, %rdi
	call	pthread_mutex_unlock@PLT
	movq	48(%rbx), %r15
	movq	$0, 0(%rbp)
	cmpq	$0, 96(%r15)
	je	.L332
	movq	96(%r15), %rax
	movq	%rbp, (%rax)
	movq	%rbp, 96(%r15)
.L333:
	movq	40(%r14), %rbx
	cmpb	$0, 40(%rbx)
	jne	.L373
	testb	%r13b, %r13b
	je	.L334
.L373:
	data16	leaq	_ZN4asio6detail15keyword_tss_ptrINS0_10call_stackINS0_15task_io_serviceENS0_27task_io_service_thread_infoEE7contextEE6value_E@tlsgd(%rip), %rdi
	.value	0x6666
	rex64
	call	__tls_get_addr@PLT
	movq	(%rax), %rax
	testq	%rax, %rax
	jne	.L338
	jmp	.L334
	.p2align 4,,10
	.p2align 3
.L336:
	movq	16(%rax), %rax
	testq	%rax, %rax
	je	.L334
.L338:
	cmpq	(%rax), %rbx
	jne	.L336
	movq	8(%rax), %rax
	testq	%rax, %rax
	je	.L334
	addq	$1, 24(%rax)
	cmpq	$0, 16(%rax)
	movq	$0, (%r15)
	je	.L339
	movq	16(%rax), %rdx
	movq	%r15, (%rdx)
	movq	%r15, 16(%rax)
	jmp	.L408
	.p2align 4,,10
	.p2align 3
.L411:
	addl	$1, 8(%r12)
	movq	%r12, %r15
	jmp	.L324
	.p2align 4,,10
	.p2align 3
.L322:
	addl	$1, 8(%r12)
	movq	%rax, %rcx
	jmp	.L323
	.p2align 4,,10
	.p2align 3
.L321:
	movq	%rax, 16(%rsp)
	movq	24(%rax), %rbx
	xorl	%r15d, %r15d
	movq	$0, 24(%rsp)
	jmp	.L324
	.p2align 4,,10
	.p2align 3
.L332:
	movq	%rbp, %xmm0
	punpcklqdq	%xmm0, %xmm0
	movups	%xmm0, 88(%r15)
	jmp	.L333
	.p2align 4,,10
	.p2align 3
.L329:
	movq	%rbp, %xmm0
	punpcklqdq	%xmm0, %xmm0
	movups	%xmm0, 72(%rdi)
	jmp	.L330
	.p2align 4,,10
	.p2align 3
.L334:
	lock addq	$1, 184(%rbx)
	leaq	48(%rbx), %rbp
	movq	%rbp, %rdi
	call	pthread_mutex_lock@PLT
	cmpq	$0, 200(%rbx)
	movq	$0, (%r15)
	je	.L340
	movq	200(%rbx), %rax
	movq	%r15, (%rax)
	movq	%r15, 200(%rbx)
.L341:
	movq	136(%rbx), %rax
	orq	$1, %rax
	movq	%rax, 136(%rbx)
	cmpq	$1, %rax
	je	.L342
	movq	%rbp, %rdi
	call	pthread_mutex_unlock@PLT
	leaq	88(%rbx), %rdi
	call	pthread_cond_signal@PLT
.L343:
	movq	24(%rsp), %r13
	testq	%r13, %r13
	je	.L408
	movq	_ZL28__gthrw___pthread_key_createPjPFvPvE@GOTPCREL(%rip), %rbp
	testq	%rbp, %rbp
	je	.L347
	movl	$-1, %eax
	lock xaddl	%eax, 8(%r13)
.L348:
	cmpl	$1, %eax
	jne	.L408
	movq	0(%r13), %rax
	movq	%r13, %rdi
	call	*16(%rax)
	testq	%rbp, %rbp
	je	.L349
	movl	$-1, %eax
	lock xaddl	%eax, 12(%r13)
.L350:
	cmpl	$1, %eax
	jne	.L408
	movq	0(%r13), %rax
	movq	%r13, %rdi
	call	*24(%rax)
	jmp	.L408
	.p2align 4,,10
	.p2align 3
.L347:
	movl	8(%r13), %eax
	leal	-1(%rax), %edx
	movl	%edx, 8(%r13)
	jmp	.L348
	.p2align 4,,10
	.p2align 3
.L342:
	cmpb	$0, 176(%rbx)
	jne	.L344
	movq	144(%rbx), %rax
	testq	%rax, %rax
	je	.L344
	leaq	88(%rax), %rdx
	movb	$1, 176(%rbx)
	movl	96(%rax), %edi
	leaq	4(%rsp), %rcx
	movq	%rdx, 8(%rsp)
	movl	88(%rax), %edx
	movl	$3, %esi
	movl	$-2147483639, 4(%rsp)
	call	epoll_ctl@PLT
.L344:
	movq	%rbp, %rdi
	call	pthread_mutex_unlock@PLT
	jmp	.L343
	.p2align 4,,10
	.p2align 3
.L367:
	movl	12(%r12), %eax
	leal	-1(%rax), %edx
	movl	%edx, 12(%r12)
	jmp	.L368
	.p2align 4,,10
	.p2align 3
.L349:
	movl	12(%r13), %eax
	leal	-1(%rax), %edx
	movl	%edx, 12(%r13)
	jmp	.L350
	.p2align 4,,10
	.p2align 3
.L340:
	movq	%r15, %xmm0
	punpcklqdq	%xmm0, %xmm0
	movups	%xmm0, 192(%rbx)
	jmp	.L341
	.p2align 4,,10
	.p2align 3
.L339:
	movq	%r15, %xmm0
	punpcklqdq	%xmm0, %xmm0
	movups	%xmm0, 8(%rax)
	jmp	.L408
.L410:
	call	__stack_chk_fail@PLT
.L372:
	endbr64
	movq	%rax, %rbp
.L353:
	testq	%r15, %r15
	je	.L354
	movq	%r15, %rdi
	call	_ZNSt16_Sp_counted_baseILN9__gnu_cxx12_Lock_policyE2EE10_M_releaseEv@PLT
.L354:
	testq	%r12, %r12
	je	.L356
	movq	%r12, %rdi
	call	_ZNSt16_Sp_counted_baseILN9__gnu_cxx12_Lock_policyE2EE10_M_releaseEv@PLT
.L356:
	movq	%rbp, %rdi
.LEHB1:
	call	_Unwind_Resume@PLT
.LEHE1:
	.cfi_endproc
.LFE7502:
	.globl	__gxx_personality_v0
	.section	.gcc_except_table._ZN7asiopal13IAsyncChannel16CheckForShutdownESt10shared_ptrIS0_E,"aG",@progbits,_ZN7asiopal13IAsyncChannel16CheckForShutdownESt10shared_ptrIS0_E,comdat
.LLSDA7502:
	.byte	0xff
	.byte	0xff
	.byte	0x1
	.uleb128 .LLSDACSE7502-.LLSDACSB7502
.LLSDACSB7502:
	.uleb128 .LEHB0-.LFB7502
	.uleb128 .LEHE0-.LEHB0
	.uleb128 .L372-.LFB7502
	.uleb128 0
	.uleb128 .LEHB1-.LFB7502
	.uleb128 .LEHE1-.LEHB1
	.uleb128 0
	.uleb128 0
.LLSDACSE7502:
	.section	.text._ZN7asiopal13IAsyncChannel16CheckForShutdownESt10shared_ptrIS0_E,"axG",@progbits,_ZN7asiopal13IAsyncChannel16CheckForShutdownESt10shared_ptrIS0_E,comdat
	.size	_ZN7asiopal13IAsyncChannel16CheckForShutdownESt10shared_ptrIS0_E, .-_ZN7asiopal13IAsyncChannel16CheckForShutdownESt10shared_ptrIS0_E
	.section	.text._ZN4asio6detail18completion_handlerIZN7asiopal13IAsyncChannel8ShutdownEvEUlvE_E11do_completeEPNS0_15task_io_serviceEPNS0_25task_io_service_operationERKSt10error_codem,"axG",@progbits,_ZN4asio6detail18completion_handlerIZN7asiopal13IAsyncChannel8ShutdownEvEUlvE_E11do_completeEPNS0_15task_io_serviceEPNS0_25task_io_service_operationERKSt10error_codem,comdat
	.p2align 4
	.weak	_ZN4asio6detail18completion_handlerIZN7asiopal13IAsyncChannel8ShutdownEvEUlvE_E11do_completeEPNS0_15task_io_serviceEPNS0_25task_io_service_operationERKSt10error_codem
	.type	_ZN4asio6detail18completion_handlerIZN7asiopal13IAsyncChannel8ShutdownEvEUlvE_E11do_completeEPNS0_15task_io_serviceEPNS0_25task_io_service_operationERKSt10error_codem, @function
_ZN4asio6detail18completion_handlerIZN7asiopal13IAsyncChannel8ShutdownEvEUlvE_E11do_completeEPNS0_15task_io_serviceEPNS0_25task_io_service_operationERKSt10error_codem:
.LFB9452:
	.cfi_startproc
	.cfi_personality 0x9b,DW.ref.__gxx_personality_v0
	.cfi_lsda 0x1b,.LLSDA9452
	endbr64
	pushq	%r13
	.cfi_def_cfa_offset 16
	.cfi_offset 13, -16
	pushq	%r12
	.cfi_def_cfa_offset 24
	.cfi_offset 12, -24
	movq	%rsi, %r12
	pushq	%rbp
	.cfi_def_cfa_offset 32
	.cfi_offset 6, -32
	pushq	%rbx
	.cfi_def_cfa_offset 40
	.cfi_offset 3, -40
	movq	%rdi, %rbx
	subq	$40, %rsp
	.cfi_def_cfa_offset 80
	movq	24(%rsi), %r13
	movq	32(%rsi), %rbp
	movq	%fs:40, %rax
	movq	%rax, 24(%rsp)
	xorl	%eax, %eax
	data16	leaq	_ZN4asio6detail15keyword_tss_ptrINS0_10call_stackINS0_15task_io_serviceENS0_27task_io_service_thread_infoEE7contextEE6value_E@tlsgd(%rip), %rdi
	.value	0x6666
	rex64
	call	__tls_get_addr@PLT
	movq	(%rax), %rax
	testq	%rax, %rax
	je	.L413
	movq	8(%rax), %rax
	testq	%rax, %rax
	je	.L413
	cmpq	$0, (%rax)
	je	.L454
.L413:
	movq	%r12, %rdi
	call	_ZdlPv@PLT
.L414:
	testq	%rbx, %rbx
	je	.L415
	movq	%r13, %xmm0
	movq	%rbp, %xmm1
	punpcklqdq	%xmm1, %xmm0
	movaps	%xmm0, (%rsp)
	testq	%rbp, %rbp
	je	.L416
	cmpq	$0, _ZL28__gthrw___pthread_key_createPjPFvPvE@GOTPCREL(%rip)
	je	.L417
	lock addl	$1, 8(%rbp)
.L416:
	movq	%rsp, %rsi
	movq	%r13, %rdi
.LEHB2:
	call	_ZN7asiopal13IAsyncChannel16CheckForShutdownESt10shared_ptrIS0_E@PLT
.LEHE2:
	movq	8(%rsp), %r12
	testq	%r12, %r12
	je	.L419
	movq	_ZL28__gthrw___pthread_key_createPjPFvPvE@GOTPCREL(%rip), %rbx
	testq	%rbx, %rbx
	je	.L420
	movl	$-1, %eax
	lock xaddl	%eax, 8(%r12)
.L421:
	cmpl	$1, %eax
	jne	.L419
	movq	(%r12), %rax
	movq	%r12, %rdi
	call	*16(%rax)
	testq	%rbx, %rbx
	je	.L423
	movl	$-1, %eax
	lock xaddl	%eax, 12(%r12)
.L424:
	cmpl	$1, %eax
	je	.L455
	.p2align 4,,10
	.p2align 3
.L419:
	sfence
.L415:
	testq	%rbp, %rbp
	je	.L412
	movq	_ZL28__gthrw___pthread_key_createPjPFvPvE@GOTPCREL(%rip), %rbx
	testq	%rbx, %rbx
	je	.L431
	movl	$-1, %eax
	lock xaddl	%eax, 8(%rbp)
	cmpl	$1, %eax
	je	.L456
	.p2align 4,,10
	.p2align 3
.L412:
	movq	24(%rsp), %rax
	xorq	%fs:40, %rax
	jne	.L457
	addq	$40, %rsp
	.cfi_remember_state
	.cfi_def_cfa_offset 40
	popq	%rbx
	.cfi_def_cfa_offset 32
	popq	%rbp
	.cfi_def_cfa_offset 24
	popq	%r12
	.cfi_def_cfa_offset 16
	popq	%r13
	.cfi_def_cfa_offset 8
	ret
	.p2align 4,,10
	.p2align 3
.L431:
	.cfi_restore_state
	movl	8(%rbp), %eax
	leal	-1(%rax), %edx
	movl	%edx, 8(%rbp)
	cmpl	$1, %eax
	jne	.L412
.L456:
	movq	0(%rbp), %rax
	movq	%rbp, %rdi
	call	*16(%rax)
	testq	%rbx, %rbx
	je	.L434
	movl	$-1, %eax
	lock xaddl	%eax, 12(%rbp)
.L435:
	cmpl	$1, %eax
	jne	.L412
	movq	0(%rbp), %rax
	movq	%rbp, %rdi
	call	*24(%rax)
	jmp	.L412
	.p2align 4,,10
	.p2align 3
.L420:
	movl	8(%r12), %eax
	leal	-1(%rax), %edx
	movl	%edx, 8(%r12)
	jmp	.L421
	.p2align 4,,10
	.p2align 3
.L454:
	movzbl	40(%r12), %edx
	movb	%dl, (%r12)
	movq	%r12, (%rax)
	jmp	.L414
	.p2align 4,,10
	.p2align 3
.L417:
	addl	$1, 8(%rbp)
	jmp	.L416
	.p2align 4,,10
	.p2align 3
.L434:
	movl	12(%rbp), %eax
	leal	-1(%rax), %edx
	movl	%edx, 12(%rbp)
	jmp	.L435
	.p2align 4,,10
	.p2align 3
.L455:
	movq	(%r12), %rax
	movq	%r12, %rdi
	call	*24(%rax)
	jmp	.L419
	.p2align 4,,10
	.p2align 3
.L423:
	movl	12(%r12), %eax
	leal	-1(%rax), %edx
	movl	%edx, 12(%r12)
	jmp	.L424
.L457:
	call	__stack_chk_fail@PLT
.L437:
	endbr64
	movq	%rax, %r12
.L425:
	movq	8(%rsp), %rdi
	testq	%rdi, %rdi
	je	.L426
	call	_ZNSt16_Sp_counted_baseILN9__gnu_cxx12_Lock_policyE2EE10_M_releaseEv@PLT
.L426:
	sfence
	testq	%rbp, %rbp
	je	.L428
	movq	%rbp, %rdi
	call	_ZNSt16_Sp_counted_baseILN9__gnu_cxx12_Lock_policyE2EE10_M_releaseEv@PLT
.L428:
	movq	%r12, %rdi
.LEHB3:
	call	_Unwind_Resume@PLT
.LEHE3:
	.cfi_endproc
.LFE9452:
	.section	.gcc_except_table._ZN4asio6detail18completion_handlerIZN7asiopal13IAsyncChannel8ShutdownEvEUlvE_E11do_completeEPNS0_15task_io_serviceEPNS0_25task_io_service_operationERKSt10error_codem,"aG",@progbits,_ZN4asio6detail18completion_handlerIZN7asiopal13IAsyncChannel8ShutdownEvEUlvE_E11do_completeEPNS0_15task_io_serviceEPNS0_25task_io_service_operationERKSt10error_codem,comdat
.LLSDA9452:
	.byte	0xff
	.byte	0xff
	.byte	0x1
	.uleb128 .LLSDACSE9452-.LLSDACSB9452
.LLSDACSB9452:
	.uleb128 .LEHB2-.LFB9452
	.uleb128 .LEHE2-.LEHB2
	.uleb128 .L437-.LFB9452
	.uleb128 0
	.uleb128 .LEHB3-.LFB9452
	.uleb128 .LEHE3-.LEHB3
	.uleb128 0
	.uleb128 0
.LLSDACSE9452:
	.section	.text._ZN4asio6detail18completion_handlerIZN7asiopal13IAsyncChannel8ShutdownEvEUlvE_E11do_completeEPNS0_15task_io_serviceEPNS0_25task_io_service_operationERKSt10error_codem,"axG",@progbits,_ZN4asio6detail18completion_handlerIZN7asiopal13IAsyncChannel8ShutdownEvEUlvE_E11do_completeEPNS0_15task_io_serviceEPNS0_25task_io_service_operationERKSt10error_codem,comdat
	.size	_ZN4asio6detail18completion_handlerIZN7asiopal13IAsyncChannel8ShutdownEvEUlvE_E11do_completeEPNS0_15task_io_serviceEPNS0_25task_io_service_operationERKSt10error_codem, .-_ZN4asio6detail18completion_handlerIZN7asiopal13IAsyncChannel8ShutdownEvEUlvE_E11do_completeEPNS0_15task_io_serviceEPNS0_25task_io_service_operationERKSt10error_codem
	.section	.text._ZN4asio6detail18completion_handlerIZN7asiopal13IAsyncChannel16CheckForShutdownESt10shared_ptrIS3_EEUlvE_E11do_completeEPNS0_15task_io_serviceEPNS0_25task_io_service_operationERKSt10error_codem,"axG",@progbits,_ZN4asio6detail18completion_handlerIZN7asiopal13IAsyncChannel16CheckForShutdownESt10shared_ptrIS3_EEUlvE_E11do_completeEPNS0_15task_io_serviceEPNS0_25task_io_service_operationERKSt10error_codem,comdat
	.p2align 4
	.weak	_ZN4asio6detail18completion_handlerIZN7asiopal13IAsyncChannel16CheckForShutdownESt10shared_ptrIS3_EEUlvE_E11do_completeEPNS0_15task_io_serviceEPNS0_25task_io_service_operationERKSt10error_codem
	.type	_ZN4asio6detail18completion_handlerIZN7asiopal13IAsyncChannel16CheckForShutdownESt10shared_ptrIS3_EEUlvE_E11do_completeEPNS0_15task_io_serviceEPNS0_25task_io_service_operationERKSt10error_codem, @function
_ZN4asio6detail18completion_handlerIZN7asiopal13IAsyncChannel16CheckForShutdownESt10shared_ptrIS3_EEUlvE_E11do_completeEPNS0_15task_io_serviceEPNS0_25task_io_service_operationERKSt10error_codem:
.LFB9457:
	.cfi_startproc
	.cfi_personality 0x9b,DW.ref.__gxx_personality_v0
	.cfi_lsda 0x1b,.LLSDA9457
	endbr64
	pushq	%r13
	.cfi_def_cfa_offset 16
	.cfi_offset 13, -16
	pushq	%r12
	.cfi_def_cfa_offset 24
	.cfi_offset 12, -24
	movq	%rsi, %r12
	pushq	%rbp
	.cfi_def_cfa_offset 32
	.cfi_offset 6, -32
	pushq	%rbx
	.cfi_def_cfa_offset 40
	.cfi_offset 3, -40
	movq	%rdi, %rbx
	subq	$40, %rsp
	.cfi_def_cfa_offset 80
	movq	24(%rsi), %r13
	movq	32(%rsi), %rbp
	movq	%fs:40, %rax
	movq	%rax, 24(%rsp)
	xorl	%eax, %eax
	data16	leaq	_ZN4asio6detail15keyword_tss_ptrINS0_10call_stackINS0_15task_io_serviceENS0_27task_io_service_thread_infoEE7contextEE6value_E@tlsgd(%rip), %rdi
	.value	0x6666
	rex64
	call	__tls_get_addr@PLT
	movq	(%rax), %rax
	testq	%rax, %rax
	je	.L459
	movq	8(%rax), %rax
	testq	%rax, %rax
	je	.L459
	cmpq	$0, (%rax)
	je	.L500
.L459:
	movq	%r12, %rdi
	call	_ZdlPv@PLT
.L460:
	testq	%rbx, %rbx
	je	.L461
	movq	%r13, %xmm0
	movq	%rbp, %xmm1
	punpcklqdq	%xmm1, %xmm0
	movaps	%xmm0, (%rsp)
	testq	%rbp, %rbp
	je	.L462
	cmpq	$0, _ZL28__gthrw___pthread_key_createPjPFvPvE@GOTPCREL(%rip)
	je	.L463
	lock addl	$1, 8(%rbp)
.L462:
	movq	%rsp, %rsi
	movq	%r13, %rdi
.LEHB4:
	call	_ZN7asiopal13IAsyncChannel16CheckForShutdownESt10shared_ptrIS0_E@PLT
.LEHE4:
	movq	8(%rsp), %r12
	testq	%r12, %r12
	je	.L465
	movq	_ZL28__gthrw___pthread_key_createPjPFvPvE@GOTPCREL(%rip), %rbx
	testq	%rbx, %rbx
	je	.L466
	movl	$-1, %eax
	lock xaddl	%eax, 8(%r12)
.L467:
	cmpl	$1, %eax
	jne	.L465
	movq	(%r12), %rax
	movq	%r12, %rdi
	call	*16(%rax)
	testq	%rbx, %rbx
	je	.L469
	movl	$-1, %eax
	lock xaddl	%eax, 12(%r12)
.L470:
	cmpl	$1, %eax
	je	.L501
	.p2align 4,,10
	.p2align 3
.L465:
	sfence
.L461:
	testq	%rbp, %rbp
	je	.L458
	movq	_ZL28__gthrw___pthread_key_createPjPFvPvE@GOTPCREL(%rip), %rbx
	testq	%rbx, %rbx
	je	.L477
	movl	$-1, %eax
	lock xaddl	%eax, 8(%rbp)
	cmpl	$1, %eax
	je	.L502
	.p2align 4,,10
	.p2align 3
.L458:
	movq	24(%rsp), %rax
	xorq	%fs:40, %rax
	jne	.L503
	addq	$40, %rsp
	.cfi_remember_state
	.cfi_def_cfa_offset 40
	popq	%rbx
	.cfi_def_cfa_offset 32
	popq	%rbp
	.cfi_def_cfa_offset 24
	popq	%r12
	.cfi_def_cfa_offset 16
	popq	%r13
	.cfi_def_cfa_offset 8
	ret
	.p2align 4,,10
	.p2align 3
.L477:
	.cfi_restore_state
	movl	8(%rbp), %eax
	leal	-1(%rax), %edx
	movl	%edx, 8(%rbp)
	cmpl	$1, %eax
	jne	.L458
.L502:
	movq	0(%rbp), %rax
	movq	%rbp, %rdi
	call	*16(%rax)
	testq	%rbx, %rbx
	je	.L480
	movl	$-1, %eax
	lock xaddl	%eax, 12(%rbp)
.L481:
	cmpl	$1, %eax
	jne	.L458
	movq	0(%rbp), %rax
	movq	%rbp, %rdi
	call	*24(%rax)
	jmp	.L458
	.p2align 4,,10
	.p2align 3
.L466:
	movl	8(%r12), %eax
	leal	-1(%rax), %edx
	movl	%edx, 8(%r12)
	jmp	.L467
	.p2align 4,,10
	.p2align 3
.L500:
	movzbl	40(%r12), %edx
	movb	%dl, (%r12)
	movq	%r12, (%rax)
	jmp	.L460
	.p2align 4,,10
	.p2align 3
.L463:
	addl	$1, 8(%rbp)
	jmp	.L462
	.p2align 4,,10
	.p2align 3
.L480:
	movl	12(%rbp), %eax
	leal	-1(%rax), %edx
	movl	%edx, 12(%rbp)
	jmp	.L481
	.p2align 4,,10
	.p2align 3
.L501:
	movq	(%r12), %rax
	movq	%r12, %rdi
	call	*24(%rax)
	jmp	.L465
	.p2align 4,,10
	.p2align 3
.L469:
	movl	12(%r12), %eax
	leal	-1(%rax), %edx
	movl	%edx, 12(%r12)
	jmp	.L470
.L503:
	call	__stack_chk_fail@PLT
.L483:
	endbr64
	movq	%rax, %r12
.L471:
	movq	8(%rsp), %rdi
	testq	%rdi, %rdi
	je	.L472
	call	_ZNSt16_Sp_counted_baseILN9__gnu_cxx12_Lock_policyE2EE10_M_releaseEv@PLT
.L472:
	sfence
	testq	%rbp, %rbp
	je	.L474
	movq	%rbp, %rdi
	call	_ZNSt16_Sp_counted_baseILN9__gnu_cxx12_Lock_policyE2EE10_M_releaseEv@PLT
.L474:
	movq	%r12, %rdi
.LEHB5:
	call	_Unwind_Resume@PLT
.LEHE5:
	.cfi_endproc
.LFE9457:
	.section	.gcc_except_table._ZN4asio6detail18completion_handlerIZN7asiopal13IAsyncChannel16CheckForShutdownESt10shared_ptrIS3_EEUlvE_E11do_completeEPNS0_15task_io_serviceEPNS0_25task_io_service_operationERKSt10error_codem,"aG",@progbits,_ZN4asio6detail18completion_handlerIZN7asiopal13IAsyncChannel16CheckForShutdownESt10shared_ptrIS3_EEUlvE_E11do_completeEPNS0_15task_io_serviceEPNS0_25task_io_service_operationERKSt10error_codem,comdat
.LLSDA9457:
	.byte	0xff
	.byte	0xff
	.byte	0x1
	.uleb128 .LLSDACSE9457-.LLSDACSB9457
.LLSDACSB9457:
	.uleb128 .LEHB4-.LFB9457
	.uleb128 .LEHE4-.LEHB4
	.uleb128 .L483-.LFB9457
	.uleb128 0
	.uleb128 .LEHB5-.LFB9457
	.uleb128 .LEHE5-.LEHB5
	.uleb128 0
	.uleb128 0
.LLSDACSE9457:
	.section	.text._ZN4asio6detail18completion_handlerIZN7asiopal13IAsyncChannel16CheckForShutdownESt10shared_ptrIS3_EEUlvE_E11do_completeEPNS0_15task_io_serviceEPNS0_25task_io_service_operationERKSt10error_codem,"axG",@progbits,_ZN4asio6detail18completion_handlerIZN7asiopal13IAsyncChannel16CheckForShutdownESt10shared_ptrIS3_EEUlvE_E11do_completeEPNS0_15task_io_serviceEPNS0_25task_io_service_operationERKSt10error_codem,comdat
	.size	_ZN4asio6detail18completion_handlerIZN7asiopal13IAsyncChannel16CheckForShutdownESt10shared_ptrIS3_EEUlvE_E11do_completeEPNS0_15task_io_serviceEPNS0_25task_io_service_operationERKSt10error_codem, .-_ZN4asio6detail18completion_handlerIZN7asiopal13IAsyncChannel16CheckForShutdownESt10shared_ptrIS3_EEUlvE_E11do_completeEPNS0_15task_io_serviceEPNS0_25task_io_service_operationERKSt10error_codem
	.section	.text._ZNSt5dequeIN8asiodnp39IOHandler12TransmissionESaIS2_EE19_M_destroy_data_auxESt15_Deque_iteratorIS2_RS2_PS2_ES8_,"axG",@progbits,_ZNSt5dequeIN8asiodnp39IOHandler12TransmissionESaIS2_EE19_M_destroy_data_auxESt15_Deque_iteratorIS2_RS2_PS2_ES8_,comdat
	.align 2
	.p2align 4
	.weak	_ZNSt5dequeIN8asiodnp39IOHandler12TransmissionESaIS2_EE19_M_destroy_data_auxESt15_Deque_iteratorIS2_RS2_PS2_ES8_
	.type	_ZNSt5dequeIN8asiodnp39IOHandler12TransmissionESaIS2_EE19_M_destroy_data_auxESt15_Deque_iteratorIS2_RS2_PS2_ES8_, @function
_ZNSt5dequeIN8asiodnp39IOHandler12TransmissionESaIS2_EE19_M_destroy_data_auxESt15_Deque_iteratorIS2_RS2_PS2_ES8_:
.LFB9264:
	.cfi_startproc
	endbr64
	pushq	%r15
	.cfi_def_cfa_offset 16
	.cfi_offset 15, -16
	pushq	%r14
	.cfi_def_cfa_offset 24
	.cfi_offset 14, -24
	pushq	%r13
	.cfi_def_cfa_offset 32
	.cfi_offset 13, -32
	movq	%rdx, %r13
	pushq	%r12
	.cfi_def_cfa_offset 40
	.cfi_offset 12, -40
	pushq	%rbp
	.cfi_def_cfa_offset 48
	.cfi_offset 6, -48
	pushq	%rbx
	.cfi_def_cfa_offset 56
	.cfi_offset 3, -56
	subq	$24, %rsp
	.cfi_def_cfa_offset 80
	movq	24(%rsi), %rdx
	movq	24(%r13), %rax
	movq	%rsi, 8(%rsp)
	leaq	8(%rdx), %r12
	cmpq	%rax, %r12
	jnb	.L505
	movq	_ZL28__gthrw___pthread_key_createPjPFvPvE@GOTPCREL(%rip), %r14
	.p2align 4,,10
	.p2align 3
.L517:
	movq	(%r12), %rbx
	leaq	512(%rbx), %r15
	testq	%r14, %r14
	jne	.L516
	jmp	.L512
	.p2align 4,,10
	.p2align 3
.L514:
	addq	$32, %rbx
	cmpq	%r15, %rbx
	je	.L511
.L516:
	movq	24(%rbx), %rbp
	testq	%rbp, %rbp
	je	.L514
	lock subl	$1, 8(%rbp)
	jne	.L514
	movq	0(%rbp), %rdx
	movq	%rbp, %rdi
	call	*16(%rdx)
	lock subl	$1, 12(%rbp)
	jne	.L514
	movq	0(%rbp), %rdx
	addq	$32, %rbx
	movq	%rbp, %rdi
	call	*24(%rdx)
	cmpq	%r15, %rbx
	jne	.L516
	.p2align 4,,10
	.p2align 3
.L511:
	movq	24(%r13), %rax
	addq	$8, %r12
	cmpq	%r12, %rax
	ja	.L517
	movq	8(%rsp), %rsi
	movq	24(%rsi), %rdx
.L505:
	movq	8(%rsp), %rsi
	movq	(%rsi), %rbx
	cmpq	%rax, %rdx
	je	.L518
	movq	16(%rsi), %r12
	cmpq	%rbx, %r12
	je	.L527
	cmpq	$0, _ZL28__gthrw___pthread_key_createPjPFvPvE@GOTPCREL(%rip)
	je	.L528
	movq	24(%rbx), %rbp
	testq	%rbp, %rbp
	jne	.L561
	.p2align 4,,10
	.p2align 3
.L530:
	addq	$32, %rbx
	cmpq	%rbx, %r12
	je	.L527
.L522:
	movq	24(%rbx), %rbp
	testq	%rbp, %rbp
	je	.L530
.L561:
	lock subl	$1, 8(%rbp)
	jne	.L530
	movq	0(%rbp), %rax
	movq	%rbp, %rdi
	call	*16(%rax)
	lock subl	$1, 12(%rbp)
	jne	.L530
	movq	0(%rbp), %rax
	addq	$32, %rbx
	movq	%rbp, %rdi
	call	*24(%rax)
	cmpq	%rbx, %r12
	jne	.L522
.L527:
	movq	0(%r13), %r12
	movq	8(%r13), %rbx
	cmpq	%rbx, %r12
	je	.L504
	cmpq	$0, _ZL28__gthrw___pthread_key_createPjPFvPvE@GOTPCREL(%rip)
	je	.L537
	movq	24(%rbx), %rbp
	testq	%rbp, %rbp
	jne	.L562
	.p2align 4,,10
	.p2align 3
.L539:
	addq	$32, %rbx
	cmpq	%rbx, %r12
	je	.L504
.L532:
	movq	24(%rbx), %rbp
	testq	%rbp, %rbp
	je	.L539
.L562:
	lock subl	$1, 8(%rbp)
	jne	.L539
	movq	0(%rbp), %rax
	movq	%rbp, %rdi
	call	*16(%rax)
	lock subl	$1, 12(%rbp)
	jne	.L539
	movq	0(%rbp), %rax
	addq	$32, %rbx
	movq	%rbp, %rdi
	call	*24(%rax)
	cmpq	%rbx, %r12
	jne	.L532
.L504:
	addq	$24, %rsp
	.cfi_remember_state
	.cfi_def_cfa_offset 56
	popq	%rbx
	.cfi_def_cfa_offset 48
	popq	%rbp
	.cfi_def_cfa_offset 40
	popq	%r12
	.cfi_def_cfa_offset 32
	popq	%r13
	.cfi_def_cfa_offset 24
	popq	%r14
	.cfi_def_cfa_offset 16
	popq	%r15
	.cfi_def_cfa_offset 8
	ret
	.p2align 4,,10
	.p2align 3
.L510:
	.cfi_restore_state
	movq	0(%rbp), %rdx
	movq	%rbp, %rdi
	call	*16(%rdx)
	movl	12(%rbp), %edx
	leal	-1(%rdx), %ecx
	movl	%ecx, 12(%rbp)
	cmpl	$1, %edx
	jne	.L509
	movq	0(%rbp), %rdx
	movq	%rbp, %rdi
	call	*24(%rdx)
	.p2align 4,,10
	.p2align 3
.L509:
	addq	$32, %rbx
	cmpq	%rbx, %r15
	je	.L511
.L512:
	movq	24(%rbx), %rbp
	testq	%rbp, %rbp
	je	.L509
	movl	8(%rbp), %edx
	leal	-1(%rdx), %ecx
	movl	%ecx, 8(%rbp)
	cmpl	$1, %edx
	jne	.L509
	jmp	.L510
.L526:
	movq	0(%rbp), %rax
	movq	%rbp, %rdi
	call	*16(%rax)
	movl	12(%rbp), %eax
	leal	-1(%rax), %edx
	movl	%edx, 12(%rbp)
	cmpl	$1, %eax
	jne	.L525
	movq	0(%rbp), %rax
	movq	%rbp, %rdi
	call	*24(%rax)
	.p2align 4,,10
	.p2align 3
.L525:
	addq	$32, %rbx
	cmpq	%rbx, %r12
	je	.L527
.L528:
	movq	24(%rbx), %rbp
	testq	%rbp, %rbp
	je	.L525
	movl	8(%rbp), %eax
	leal	-1(%rax), %edx
	movl	%edx, 8(%rbp)
	cmpl	$1, %eax
	jne	.L525
	jmp	.L526
.L536:
	movq	0(%rbp), %rax
	movq	%rbp, %rdi
	call	*16(%rax)
	movl	12(%rbp), %eax
	leal	-1(%rax), %edx
	movl	%edx, 12(%rbp)
	cmpl	$1, %eax
	jne	.L535
	movq	0(%rbp), %rax
	movq	%rbp, %rdi
	call	*24(%rax)
	.p2align 4,,10
	.p2align 3
.L535:
	addq	$32, %rbx
	cmpq	%r12, %rbx
	je	.L504
.L537:
	movq	24(%rbx), %rbp
	testq	%rbp, %rbp
	je	.L535
	movl	8(%rbp), %eax
	leal	-1(%rax), %edx
	movl	%edx, 8(%rbp)
	cmpl	$1, %eax
	jne	.L535
	jmp	.L536
.L518:
	movq	0(%r13), %r12
	cmpq	%rbx, %r12
	je	.L504
	cmpq	$0, _ZL28__gthrw___pthread_key_createPjPFvPvE@GOTPCREL(%rip)
	je	.L546
	movq	24(%rbx), %rbp
	testq	%rbp, %rbp
	jne	.L563
	.p2align 4,,10
	.p2align 3
.L548:
	addq	$32, %rbx
	cmpq	%rbx, %r12
	je	.L504
	movq	24(%rbx), %rbp
	testq	%rbp, %rbp
	je	.L548
.L563:
	lock subl	$1, 8(%rbp)
	jne	.L548
	movq	0(%rbp), %rax
	movq	%rbp, %rdi
	call	*16(%rax)
	lock subl	$1, 12(%rbp)
	jne	.L548
	movq	0(%rbp), %rax
	movq	%rbp, %rdi
	call	*24(%rax)
	jmp	.L548
.L545:
	movq	0(%rbp), %rax
	movq	%rbp, %rdi
	call	*16(%rax)
	movl	12(%rbp), %eax
	leal	-1(%rax), %edx
	movl	%edx, 12(%rbp)
	cmpl	$1, %eax
	jne	.L544
	movq	0(%rbp), %rax
	movq	%rbp, %rdi
	call	*24(%rax)
	.p2align 4,,10
	.p2align 3
.L544:
	addq	$32, %rbx
	cmpq	%rbx, %r12
	je	.L504
.L546:
	movq	24(%rbx), %rbp
	testq	%rbp, %rbp
	je	.L544
	movl	8(%rbp), %eax
	leal	-1(%rax), %edx
	movl	%edx, 8(%rbp)
	cmpl	$1, %eax
	jne	.L544
	jmp	.L545
	.cfi_endproc
.LFE9264:
	.size	_ZNSt5dequeIN8asiodnp39IOHandler12TransmissionESaIS2_EE19_M_destroy_data_auxESt15_Deque_iteratorIS2_RS2_PS2_ES8_, .-_ZNSt5dequeIN8asiodnp39IOHandler12TransmissionESaIS2_EE19_M_destroy_data_auxESt15_Deque_iteratorIS2_RS2_PS2_ES8_
	.section	.text.unlikely,"ax",@progbits
	.align 2
.LCOLDB25:
	.text
.LHOTB25:
	.align 2
	.p2align 4
	.globl	_ZN8asiodnp39IOHandler5ResetEv
	.type	_ZN8asiodnp39IOHandler5ResetEv, @function
_ZN8asiodnp39IOHandler5ResetEv:
.LFB7634:
	.cfi_startproc
	.cfi_personality 0x9b,DW.ref.__gxx_personality_v0
	.cfi_lsda 0x1b,.LLSDA7634
	endbr64
	pushq	%r15
	.cfi_def_cfa_offset 16
	.cfi_offset 15, -16
	pushq	%r14
	.cfi_def_cfa_offset 24
	.cfi_offset 14, -24
	pushq	%r13
	.cfi_def_cfa_offset 32
	.cfi_offset 13, -32
	pushq	%r12
	.cfi_def_cfa_offset 40
	.cfi_offset 12, -40
	pushq	%rbp
	.cfi_def_cfa_offset 48
	.cfi_offset 6, -48
	pushq	%rbx
	.cfi_def_cfa_offset 56
	.cfi_offset 3, -56
	movq	%rdi, %rbx
	subq	$120, %rsp
	.cfi_def_cfa_offset 176
	movq	632(%rdi), %r12
	movq	%fs:40, %rax
	movq	%rax, 104(%rsp)
	xorl	%eax, %eax
	testq	%r12, %r12
	je	.L660
	cmpb	$0, 56(%r12)
	jne	.L661
	movq	(%r12), %rax
	movb	$1, 56(%r12)
	movq	%r12, %rdi
.LEHB6:
	call	*32(%rax)
	movq	16(%r12), %rbp
	testq	%rbp, %rbp
	je	.L570
	leaq	8(%rbp), %rax
	movq	%rax, (%rsp)
	movl	8(%rbp), %eax
.L572:
	testl	%eax, %eax
	je	.L570
	movq	(%rsp), %rcx
	leal	1(%rax), %edx
	lock cmpxchgl	%edx, (%rcx)
	jne	.L572
	movq	8(%r12), %rax
	movq	_ZL28__gthrw___pthread_key_createPjPFvPvE@GOTPCREL(%rip), %r13
	movq	24(%r12), %r15
	movq	%rbp, 72(%rsp)
	movq	%rax, 64(%rsp)
	testq	%r13, %r13
	je	.L573
	lock addl	$1, (%rcx)
	movq	72(%rsp), %rax
	movq	%rax, 8(%rsp)
.L574:
	movq	40(%r15), %rax
	leaq	64(%rsp), %r12
	movq	%r12, %rdi
	movq	%rax, 16(%rsp)
	xorl	%eax, %eax
	call	_ZN4asio28asio_handler_is_continuationEz@PLT
	movb	%al, 31(%rsp)
	data16	leaq	_ZN4asio6detail15keyword_tss_ptrINS0_10call_stackINS0_15task_io_serviceENS0_27task_io_service_thread_infoEE7contextEE6value_E@tlsgd(%rip), %rdi
	.value	0x6666
	rex64
	call	__tls_get_addr@PLT
	movq	(%rax), %rax
	testq	%rax, %rax
	je	.L575
	movq	8(%rax), %rax
	testq	%rax, %rax
	je	.L575
	movq	(%rax), %r14
	testq	%r14, %r14
	je	.L575
	movq	$0, (%rax)
	movzbl	(%r14), %eax
	cmpb	$39, %al
	jbe	.L576
	movb	%al, 40(%r14)
.L577:
	movq	_ZN4asio6detail18completion_handlerIZN7asiopal13IAsyncChannel8ShutdownEvEUlvE_E11do_completeEPNS0_15task_io_serviceEPNS0_25task_io_service_operationERKSt10error_codem@GOTPCREL(%rip), %rax
	pxor	%xmm0, %xmm0
	movq	$0, (%r14)
	movl	$0, 16(%r14)
	movq	%rax, 8(%r14)
	movq	64(%rsp), %rax
	movq	%rax, 24(%r14)
	movq	8(%rsp), %rax
	movq	%rax, 32(%r14)
	movaps	%xmm0, 64(%rsp)
	movq	48(%r15), %rax
	leaq	24(%rax), %rdi
	call	pthread_mutex_lock@PLT
	movq	48(%r15), %rdi
	cmpb	$0, 64(%rdi)
	je	.L578
	cmpq	$0, 80(%rdi)
	movq	$0, (%r14)
	je	.L579
	movq	80(%rdi), %rax
	movq	%r14, (%rax)
	movq	%r14, 80(%rdi)
.L580:
	addq	$24, %rdi
	leaq	32(%rsp), %r15
	call	pthread_mutex_unlock@PLT
.L596:
	testq	%r13, %r13
	je	.L662
	movq	(%rsp), %rsi
	movl	$-1, %eax
	lock xaddl	%eax, (%rsi)
.L605:
	cmpl	$1, %eax
	je	.L663
.L569:
	movq	640(%rbx), %rbp
	pxor	%xmm0, %xmm0
	movups	%xmm0, 632(%rbx)
	testq	%rbp, %rbp
	je	.L610
	movq	_ZL28__gthrw___pthread_key_createPjPFvPvE@GOTPCREL(%rip), %r13
	testq	%r13, %r13
	je	.L611
	movl	$-1, %eax
	lock xaddl	%eax, 8(%rbp)
.L612:
	cmpl	$1, %eax
	je	.L664
.L610:
	movq	64(%rbx), %rdi
	addl	$1, 88(%rbx)
	testq	%rdi, %rdi
	je	.L616
	movq	(%rdi), %rax
	xorl	%esi, %esi
	call	*16(%rax)
.L616:
	movq	112(%rbx), %rbp
	movq	120(%rbx), %r13
	cmpq	%r13, %rbp
	je	.L617
	.p2align 4,,10
	.p2align 3
.L619:
	cmpb	$0, 6(%rbp)
	je	.L618
	movq	8(%rbp), %rdi
	movb	$0, 6(%rbp)
	movq	(%rdi), %rax
	call	*40(%rax)
.L618:
	addq	$24, %rbp
	cmpq	%rbp, %r13
	jne	.L619
	jmp	.L617
	.p2align 4,,10
	.p2align 3
.L660:
	leaq	32(%rsp), %r15
	leaq	64(%rsp), %r12
.L617:
	movb	$0, 656(%rbx)
	leaq	216(%rbx), %rdi
	call	_ZN8opendnp315LinkLayerParser5ResetEv@PLT
.LEHE6:
	movq	160(%rbx), %rax
	movq	%r15, %rdx
	movdqu	184(%rbx), %xmm1
	movdqu	200(%rbx), %xmm2
	movdqu	152(%rbx), %xmm3
	movq	%r12, %rsi
	leaq	136(%rbx), %rdi
	movdqu	168(%rbx), %xmm4
	movq	%rax, (%rsp)
	movq	176(%rbx), %r14
	movq	152(%rbx), %rbp
	movaps	%xmm1, 32(%rsp)
	movq	168(%rbx), %r13
	movaps	%xmm2, 48(%rsp)
	movaps	%xmm3, 64(%rsp)
	leaq	8(%r14), %r15
	movaps	%xmm4, 80(%rsp)
	call	_ZNSt5dequeIN8asiodnp39IOHandler12TransmissionESaIS2_EE19_M_destroy_data_auxESt15_Deque_iteratorIS2_RS2_PS2_ES8_@PLT
	movq	208(%rbx), %rax
	leaq	8(%rax), %r12
	cmpq	%r15, %r12
	jbe	.L566
	.p2align 4,,10
	.p2align 3
.L567:
	movq	(%r15), %rdi
	addq	$8, %r15
	call	_ZdlPv@PLT
	cmpq	%r15, %r12
	ja	.L567
.L566:
	movq	%rbp, %xmm0
	movq	%r14, %xmm5
	movhps	(%rsp), %xmm0
	movups	%xmm0, 184(%rbx)
	movq	%r13, %xmm0
	punpcklqdq	%xmm5, %xmm0
	movups	%xmm0, 200(%rbx)
	movq	104(%rsp), %rax
	xorq	%fs:40, %rax
	jne	.L665
	addq	$120, %rsp
	.cfi_remember_state
	.cfi_def_cfa_offset 56
	popq	%rbx
	.cfi_def_cfa_offset 48
	popq	%rbp
	.cfi_def_cfa_offset 40
	popq	%r12
	.cfi_def_cfa_offset 32
	popq	%r13
	.cfi_def_cfa_offset 24
	popq	%r14
	.cfi_def_cfa_offset 16
	popq	%r15
	.cfi_def_cfa_offset 8
	ret
	.p2align 4,,10
	.p2align 3
.L661:
	.cfi_restore_state
	leaq	32(%rsp), %r15
	leaq	64(%rsp), %r12
	jmp	.L569
	.p2align 4,,10
	.p2align 3
.L573:
	addl	$1, 8(%rbp)
	movq	%rbp, 8(%rsp)
	jmp	.L574
	.p2align 4,,10
	.p2align 3
.L576:
	movq	%r14, %rdi
	call	_ZdlPv@PLT
.L575:
	movl	$41, %edi
.LEHB7:
	call	_Znwm@PLT
.LEHE7:
	movb	$40, 40(%rax)
	movq	%rax, %r14
	jmp	.L577
	.p2align 4,,10
	.p2align 3
.L611:
	movl	8(%rbp), %eax
	leal	-1(%rax), %edx
	movl	%edx, 8(%rbp)
	jmp	.L612
	.p2align 4,,10
	.p2align 3
.L578:
	movb	$1, 64(%rdi)
	addq	$24, %rdi
	call	pthread_mutex_unlock@PLT
	movq	48(%r15), %r15
	movq	$0, (%r14)
	cmpq	$0, 96(%r15)
	je	.L582
	movq	96(%r15), %rax
	movq	%r14, (%rax)
	movq	%r14, 96(%r15)
.L583:
	movq	16(%rsp), %rax
	movq	40(%rax), %rdx
	cmpb	$0, 40(%rdx)
	jne	.L622
	cmpb	$0, 31(%rsp)
	je	.L584
.L622:
	movq	%rdx, 8(%rsp)
	data16	leaq	_ZN4asio6detail15keyword_tss_ptrINS0_10call_stackINS0_15task_io_serviceENS0_27task_io_service_thread_infoEE7contextEE6value_E@tlsgd(%rip), %rdi
	.value	0x6666
	rex64
	call	__tls_get_addr@PLT
	movq	8(%rsp), %rdx
	movq	(%rax), %rax
	testq	%rax, %rax
	jne	.L588
	jmp	.L584
	.p2align 4,,10
	.p2align 3
.L586:
	movq	16(%rax), %rax
	testq	%rax, %rax
	je	.L584
.L588:
	cmpq	(%rax), %rdx
	jne	.L586
	movq	8(%rax), %rax
	testq	%rax, %rax
	je	.L584
	addq	$1, 24(%rax)
	cmpq	$0, 16(%rax)
	movq	$0, (%r15)
	je	.L589
	movq	16(%rax), %rdx
	movq	%r15, (%rdx)
	movq	%r15, 16(%rax)
	leaq	32(%rsp), %r15
	jmp	.L596
	.p2align 4,,10
	.p2align 3
.L584:
	lock addq	$1, 184(%rdx)
	leaq	48(%rdx), %r8
	movq	%rdx, 16(%rsp)
	movq	%r8, %rdi
	movq	%r8, 8(%rsp)
	call	pthread_mutex_lock@PLT
	movq	16(%rsp), %rdx
	movq	8(%rsp), %r8
	movq	$0, (%r15)
	cmpq	$0, 200(%rdx)
	je	.L590
	movq	200(%rdx), %rax
	movq	%r15, (%rax)
	movq	%r15, 200(%rdx)
.L591:
	movq	136(%rdx), %rax
	orq	$1, %rax
	movq	%rax, 136(%rdx)
	cmpq	$1, %rax
	je	.L592
	movq	%r8, %rdi
	movq	%rdx, 8(%rsp)
	leaq	32(%rsp), %r15
	call	pthread_mutex_unlock@PLT
	movq	8(%rsp), %rdx
	leaq	88(%rdx), %rdi
	call	pthread_cond_signal@PLT
.L593:
	movq	72(%rsp), %rdi
	testq	%rdi, %rdi
	je	.L596
	testq	%r13, %r13
	je	.L597
	movl	$-1, %eax
	lock xaddl	%eax, 8(%rdi)
.L598:
	cmpl	$1, %eax
	jne	.L596
	movq	(%rdi), %rax
	movq	%rdi, 8(%rsp)
	call	*16(%rax)
	testq	%r13, %r13
	movq	8(%rsp), %rdi
	je	.L599
	movl	$-1, %eax
	lock xaddl	%eax, 12(%rdi)
.L600:
	cmpl	$1, %eax
	jne	.L596
	movq	(%rdi), %rax
	call	*24(%rax)
	jmp	.L596
	.p2align 4,,10
	.p2align 3
.L664:
	movq	0(%rbp), %rax
	movq	%rbp, %rdi
	call	*16(%rax)
	testq	%r13, %r13
	je	.L614
	movl	$-1, %eax
	lock xaddl	%eax, 12(%rbp)
.L615:
	cmpl	$1, %eax
	jne	.L610
	movq	0(%rbp), %rax
	movq	%rbp, %rdi
	call	*24(%rax)
	jmp	.L610
	.p2align 4,,10
	.p2align 3
.L662:
	movl	8(%rbp), %eax
	leal	-1(%rax), %edx
	movl	%edx, 8(%rbp)
	jmp	.L605
	.p2align 4,,10
	.p2align 3
.L579:
	movq	%r14, %xmm0
	punpcklqdq	%xmm0, %xmm0
	movups	%xmm0, 72(%rdi)
	jmp	.L580
	.p2align 4,,10
	.p2align 3
.L663:
	movq	0(%rbp), %rax
	movq	%rbp, %rdi
	call	*16(%rax)
	testq	%r13, %r13
	je	.L607
	movl	$-1, %eax
	lock xaddl	%eax, 12(%rbp)
.L608:
	cmpl	$1, %eax
	jne	.L569
	movq	0(%rbp), %rax
	movq	%rbp, %rdi
	call	*24(%rax)
	jmp	.L569
.L607:
	movl	12(%rbp), %eax
	leal	-1(%rax), %edx
	movl	%edx, 12(%rbp)
	jmp	.L608
.L590:
	movq	%r15, %xmm0
	punpcklqdq	%xmm0, %xmm0
	movups	%xmm0, 192(%rdx)
	jmp	.L591
	.p2align 4,,10
	.p2align 3
.L597:
	movl	8(%rdi), %eax
	leal	-1(%rax), %edx
	movl	%edx, 8(%rdi)
	jmp	.L598
.L592:
	cmpb	$0, 176(%rdx)
	leaq	32(%rsp), %r15
	jne	.L594
	movq	144(%rdx), %rax
	testq	%rax, %rax
	je	.L594
	movb	$1, 176(%rdx)
	leaq	88(%rax), %rdx
	movq	%r15, %rcx
	movl	$3, %esi
	movl	$-2147483639, 32(%rsp)
	movq	%rdx, 36(%rsp)
	movl	88(%rax), %edx
	movl	96(%rax), %edi
	movq	%r8, 8(%rsp)
	call	epoll_ctl@PLT
	movq	8(%rsp), %r8
.L594:
	movq	%r8, %rdi
	call	pthread_mutex_unlock@PLT
	jmp	.L593
.L614:
	movl	12(%rbp), %eax
	leal	-1(%rax), %edx
	movl	%edx, 12(%rbp)
	jmp	.L615
.L582:
	movq	%r14, %xmm0
	punpcklqdq	%xmm0, %xmm0
	movups	%xmm0, 88(%r15)
	jmp	.L583
.L599:
	movl	12(%rdi), %eax
	leal	-1(%rax), %edx
	movl	%edx, 12(%rdi)
	jmp	.L600
.L589:
	movq	%r15, %xmm0
	leaq	32(%rsp), %r15
	punpcklqdq	%xmm0, %xmm0
	movups	%xmm0, 8(%rax)
	jmp	.L596
.L665:
	call	__stack_chk_fail@PLT
.L621:
	endbr64
	movq	%rax, %r12
	jmp	.L603
	.section	.gcc_except_table,"a",@progbits
.LLSDA7634:
	.byte	0xff
	.byte	0xff
	.byte	0x1
	.uleb128 .LLSDACSE7634-.LLSDACSB7634
.LLSDACSB7634:
	.uleb128 .LEHB6-.LFB7634
	.uleb128 .LEHE6-.LEHB6
	.uleb128 0
	.uleb128 0
	.uleb128 .LEHB7-.LFB7634
	.uleb128 .LEHE7-.LEHB7
	.uleb128 .L621-.LFB7634
	.uleb128 0
.LLSDACSE7634:
	.text
	.cfi_endproc
	.section	.text.unlikely
	.cfi_startproc
	.cfi_personality 0x9b,DW.ref.__gxx_personality_v0
	.cfi_lsda 0x1b,.LLSDAC7634
	.type	_ZN8asiodnp39IOHandler5ResetEv.cold, @function
_ZN8asiodnp39IOHandler5ResetEv.cold:
.LFSB7634:
.L570:
	.cfi_def_cfa_offset 176
	.cfi_offset 3, -56
	.cfi_offset 6, -48
	.cfi_offset 12, -40
	.cfi_offset 13, -32
	.cfi_offset 14, -24
	.cfi_offset 15, -16
.LEHB8:
	call	_ZSt20__throw_bad_weak_ptrv@PLT
.L603:
	cmpq	$0, 8(%rsp)
	je	.L604
	movq	8(%rsp), %rdi
	call	_ZNSt16_Sp_counted_baseILN9__gnu_cxx12_Lock_policyE2EE10_M_releaseEv@PLT
.L604:
	movq	%rbp, %rdi
	call	_ZNSt16_Sp_counted_baseILN9__gnu_cxx12_Lock_policyE2EE10_M_releaseEv@PLT
	movq	%r12, %rdi
	call	_Unwind_Resume@PLT
.LEHE8:
	.cfi_endproc
.LFE7634:
	.section	.gcc_except_table
.LLSDAC7634:
	.byte	0xff
	.byte	0xff
	.byte	0x1
	.uleb128 .LLSDACSEC7634-.LLSDACSBC7634
.LLSDACSBC7634:
	.uleb128 .LEHB8-.LCOLDB25
	.uleb128 .LEHE8-.LEHB8
	.uleb128 0
	.uleb128 0
.LLSDACSEC7634:
	.section	.text.unlikely
	.text
	.size	_ZN8asiodnp39IOHandler5ResetEv, .-_ZN8asiodnp39IOHandler5ResetEv
	.section	.text.unlikely
	.size	_ZN8asiodnp39IOHandler5ResetEv.cold, .-_ZN8asiodnp39IOHandler5ResetEv.cold
.LCOLDE25:
	.text
.LHOTE25:
	.align 2
	.p2align 4
	.globl	_ZN8asiodnp39IOHandler8ShutdownEv
	.type	_ZN8asiodnp39IOHandler8ShutdownEv, @function
_ZN8asiodnp39IOHandler8ShutdownEv:
.LFB7597:
	.cfi_startproc
	endbr64
	cmpb	$0, 104(%rdi)
	je	.L677
	ret
	.p2align 4,,10
	.p2align 3
.L677:
	pushq	%rbx
	.cfi_def_cfa_offset 16
	.cfi_offset 3, -16
	movq	%rdi, %rbx
	movb	$1, 104(%rdi)
	call	_ZN8asiodnp39IOHandler5ResetEv@PLT
	movq	(%rbx), %rax
	movq	%rbx, %rdi
	call	*56(%rax)
	movq	64(%rbx), %rdi
	testq	%rdi, %rdi
	je	.L666
	movq	(%rdi), %rax
	movl	$3, %esi
	popq	%rbx
	.cfi_remember_state
	.cfi_restore 3
	.cfi_def_cfa_offset 8
	movq	16(%rax), %rax
	jmp	*%rax
	.p2align 4,,10
	.p2align 3
.L666:
	.cfi_restore_state
	popq	%rbx
	.cfi_def_cfa_offset 8
	ret
	.cfi_endproc
.LFE7597:
	.size	_ZN8asiodnp39IOHandler8ShutdownEv, .-_ZN8asiodnp39IOHandler8ShutdownEv
	.section	.rodata.str1.8
	.align 8
.LC26:
	.string	"/home/kimchaer/Desktop/OpenPLC_v3/utils/dnp3_src/cpp/libs/src/asiodnp3/IOHandler.cpp(62)"
	.section	.text.unlikely
	.align 2
.LCOLDB27:
	.text
.LHOTB27:
	.align 2
	.p2align 4
	.globl	_ZN8asiodnp39IOHandler14OnReadCompleteERKSt10error_codem
	.type	_ZN8asiodnp39IOHandler14OnReadCompleteERKSt10error_codem, @function
_ZN8asiodnp39IOHandler14OnReadCompleteERKSt10error_codem:
.LFB7598:
	.cfi_startproc
	.cfi_personality 0x9b,DW.ref.__gxx_personality_v0
	.cfi_lsda 0x1b,.LLSDA7598
	endbr64
	pushq	%r13
	.cfi_def_cfa_offset 16
	.cfi_offset 13, -16
	pushq	%r12
	.cfi_def_cfa_offset 24
	.cfi_offset 12, -24
	pushq	%rbp
	.cfi_def_cfa_offset 32
	.cfi_offset 6, -32
	movq	%rdi, %rbp
	pushq	%rbx
	.cfi_def_cfa_offset 40
	.cfi_offset 3, -40
	movq	%rsi, %rbx
	subq	$72, %rsp
	.cfi_def_cfa_offset 112
	movq	%fs:40, %rax
	movq	%rax, 56(%rsp)
	xorl	%eax, %eax
	movl	(%rsi), %eax
	testl	%eax, %eax
	je	.L679
	leaq	32(%rdi), %r12
	leaq	12(%rsp), %r13
	movl	$4, 12(%rsp)
	movq	%r13, %rsi
	movq	%r12, %rdi
.LEHB9:
	call	_ZNK7openpal6Logger9IsEnabledERKNS_10LogFiltersE@PLT
	testb	%al, %al
	je	.L680
	movq	8(%rbx), %rsi
	movl	(%rbx), %edx
	leaq	16(%rsp), %rdi
	movq	(%rsi), %rax
	call	*32(%rax)
.LEHE9:
	movq	16(%rsp), %rcx
	movq	%r13, %rsi
	movq	%r12, %rdi
	leaq	.LC26(%rip), %rdx
	movl	$4, 12(%rsp)
.LEHB10:
	call	_ZN7openpal6Logger3LogERKNS_10LogFiltersEPKcS5_@PLT
.LEHE10:
	movq	16(%rsp), %rdi
	leaq	32(%rsp), %rax
	cmpq	%rax, %rdi
	je	.L680
	call	_ZdlPv@PLT
.L680:
	movq	%rbp, %rdi
.LEHB11:
	call	_ZN8asiodnp39IOHandler5ResetEv@PLT
	movq	64(%rbp), %rdi
	testq	%rdi, %rdi
	je	.L682
	movq	(%rdi), %rax
	movl	$1, %esi
	call	*16(%rax)
.L682:
	movq	0(%rbp), %rax
	movq	%rbp, %rdi
	call	*64(%rax)
.L678:
	movq	56(%rsp), %rax
	xorq	%fs:40, %rax
	jne	.L695
	addq	$72, %rsp
	.cfi_remember_state
	.cfi_def_cfa_offset 40
	popq	%rbx
	.cfi_def_cfa_offset 32
	popq	%rbp
	.cfi_def_cfa_offset 24
	popq	%r12
	.cfi_def_cfa_offset 16
	popq	%r13
	.cfi_def_cfa_offset 8
	ret
	.p2align 4,,10
	.p2align 3
.L679:
	.cfi_restore_state
	addl	%edx, 92(%rdi)
	movq	%rdx, %rsi
	leaq	216(%rdi), %rdi
	movq	%rbp, %rdx
	call	_ZN8opendnp315LinkLayerParser6OnReadEjRNS_10IFrameSinkE@PLT
	movq	%rbp, %rdi
	call	_ZN8asiodnp39IOHandler9BeginReadEv@PLT
.LEHE11:
	jmp	.L678
.L695:
	call	__stack_chk_fail@PLT
.L687:
	endbr64
	movq	%rax, %rbp
	jmp	.L684
	.section	.gcc_except_table
.LLSDA7598:
	.byte	0xff
	.byte	0xff
	.byte	0x1
	.uleb128 .LLSDACSE7598-.LLSDACSB7598
.LLSDACSB7598:
	.uleb128 .LEHB9-.LFB7598
	.uleb128 .LEHE9-.LEHB9
	.uleb128 0
	.uleb128 0
	.uleb128 .LEHB10-.LFB7598
	.uleb128 .LEHE10-.LEHB10
	.uleb128 .L687-.LFB7598
	.uleb128 0
	.uleb128 .LEHB11-.LFB7598
	.uleb128 .LEHE11-.LEHB11
	.uleb128 0
	.uleb128 0
.LLSDACSE7598:
	.text
	.cfi_endproc
	.section	.text.unlikely
	.cfi_startproc
	.cfi_personality 0x9b,DW.ref.__gxx_personality_v0
	.cfi_lsda 0x1b,.LLSDAC7598
	.type	_ZN8asiodnp39IOHandler14OnReadCompleteERKSt10error_codem.cold, @function
_ZN8asiodnp39IOHandler14OnReadCompleteERKSt10error_codem.cold:
.LFSB7598:
.L684:
	.cfi_def_cfa_offset 112
	.cfi_offset 3, -40
	.cfi_offset 6, -32
	.cfi_offset 12, -24
	.cfi_offset 13, -16
	movq	16(%rsp), %rdi
	leaq	32(%rsp), %rax
	cmpq	%rax, %rdi
	je	.L685
	call	_ZdlPv@PLT
.L685:
	movq	%rbp, %rdi
.LEHB12:
	call	_Unwind_Resume@PLT
.LEHE12:
	.cfi_endproc
.LFE7598:
	.section	.gcc_except_table
.LLSDAC7598:
	.byte	0xff
	.byte	0xff
	.byte	0x1
	.uleb128 .LLSDACSEC7598-.LLSDACSBC7598
.LLSDACSBC7598:
	.uleb128 .LEHB12-.LCOLDB27
	.uleb128 .LEHE12-.LEHB12
	.uleb128 0
	.uleb128 0
.LLSDACSEC7598:
	.section	.text.unlikely
	.text
	.size	_ZN8asiodnp39IOHandler14OnReadCompleteERKSt10error_codem, .-_ZN8asiodnp39IOHandler14OnReadCompleteERKSt10error_codem
	.section	.text.unlikely
	.size	_ZN8asiodnp39IOHandler14OnReadCompleteERKSt10error_codem.cold, .-_ZN8asiodnp39IOHandler14OnReadCompleteERKSt10error_codem.cold
.LCOLDE27:
	.text
.LHOTE27:
	.section	.rodata.str1.8
	.align 8
.LC28:
	.string	"/home/kimchaer/Desktop/OpenPLC_v3/utils/dnp3_src/cpp/libs/src/asiodnp3/IOHandler.cpp(83)"
	.section	.text.unlikely
	.align 2
.LCOLDB29:
	.text
.LHOTB29:
	.align 2
	.p2align 4
	.globl	_ZN8asiodnp39IOHandler15OnWriteCompleteERKSt10error_codem
	.type	_ZN8asiodnp39IOHandler15OnWriteCompleteERKSt10error_codem, @function
_ZN8asiodnp39IOHandler15OnWriteCompleteERKSt10error_codem:
.LFB7599:
	.cfi_startproc
	.cfi_personality 0x9b,DW.ref.__gxx_personality_v0
	.cfi_lsda 0x1b,.LLSDA7599
	endbr64
	pushq	%r14
	.cfi_def_cfa_offset 16
	.cfi_offset 14, -16
	pushq	%r13
	.cfi_def_cfa_offset 24
	.cfi_offset 13, -24
	pushq	%r12
	.cfi_def_cfa_offset 32
	.cfi_offset 12, -32
	pushq	%rbp
	.cfi_def_cfa_offset 40
	.cfi_offset 6, -40
	movq	%rdi, %rbp
	pushq	%rbx
	.cfi_def_cfa_offset 48
	.cfi_offset 3, -48
	subq	$64, %rsp
	.cfi_def_cfa_offset 112
	movq	%fs:40, %rax
	movq	%rax, 56(%rsp)
	xorl	%eax, %eax
	movl	(%rsi), %eax
	testl	%eax, %eax
	jne	.L755
	addl	%edx, 96(%rdi)
	movq	152(%rdi), %rax
	cmpq	%rax, 184(%rdi)
	je	.L702
	movq	24(%rax), %r12
	movq	16(%rax), %r14
	testq	%r12, %r12
	je	.L703
	movq	_ZL28__gthrw___pthread_key_createPjPFvPvE@GOTPCREL(%rip), %rbx
	testq	%rbx, %rbx
	je	.L704
	lock addl	$1, 8(%r12)
	movq	168(%rdi), %rcx
	movq	152(%rdi), %rax
	leaq	-32(%rcx), %rdx
	movq	24(%rax), %r13
	cmpq	%rdx, %rax
	je	.L756
	testq	%r13, %r13
	je	.L709
	movl	$-1, %eax
	lock xaddl	%eax, 8(%r13)
.L711:
	cmpl	$1, %eax
	je	.L712
.L754:
	movq	152(%rbp), %rax
.L709:
	addq	$32, %rax
	movq	%rax, 152(%rbp)
.L716:
	movq	(%r14), %rax
	movl	$1, %esi
	movq	%r14, %rdi
.LEHB13:
	call	*24(%rax)
.LEHE13:
	testq	%r12, %r12
	je	.L702
	movq	_ZL28__gthrw___pthread_key_createPjPFvPvE@GOTPCREL(%rip), %rbx
	testq	%rbx, %rbx
	je	.L725
	movl	$-1, %eax
	lock xaddl	%eax, 8(%r12)
.L726:
	cmpl	$1, %eax
	jne	.L702
	movq	(%r12), %rax
	movq	%r12, %rdi
	call	*16(%rax)
	testq	%rbx, %rbx
	je	.L728
	movl	$-1, %eax
	lock xaddl	%eax, 12(%r12)
.L729:
	cmpl	$1, %eax
	jne	.L702
	movq	(%r12), %rax
	movq	%r12, %rdi
	call	*24(%rax)
	.p2align 4,,10
	.p2align 3
.L702:
	movq	%rbp, %rdi
.LEHB14:
	call	_ZN8asiodnp39IOHandler12CheckForSendEv@PLT
.L696:
	movq	56(%rsp), %rax
	xorq	%fs:40, %rax
	jne	.L757
	addq	$64, %rsp
	.cfi_remember_state
	.cfi_def_cfa_offset 48
	popq	%rbx
	.cfi_def_cfa_offset 40
	popq	%rbp
	.cfi_def_cfa_offset 32
	popq	%r12
	.cfi_def_cfa_offset 24
	popq	%r13
	.cfi_def_cfa_offset 16
	popq	%r14
	.cfi_def_cfa_offset 8
	ret
	.p2align 4,,10
	.p2align 3
.L755:
	.cfi_restore_state
	leaq	32(%rdi), %r12
	leaq	12(%rsp), %r13
	movq	%rsi, %rbx
	movl	$4, 12(%rsp)
	movq	%r13, %rsi
	movq	%r12, %rdi
	call	_ZNK7openpal6Logger9IsEnabledERKNS_10LogFiltersE@PLT
	testb	%al, %al
	je	.L698
	movq	8(%rbx), %rsi
	movl	(%rbx), %edx
	leaq	16(%rsp), %rdi
	movq	(%rsi), %rax
	call	*32(%rax)
.LEHE14:
	movq	16(%rsp), %rcx
	movq	%r13, %rsi
	movq	%r12, %rdi
	leaq	.LC28(%rip), %rdx
	movl	$4, 12(%rsp)
.LEHB15:
	call	_ZN7openpal6Logger3LogERKNS_10LogFiltersEPKcS5_@PLT
.LEHE15:
	movq	16(%rsp), %rdi
	leaq	32(%rsp), %rax
	cmpq	%rax, %rdi
	je	.L698
	call	_ZdlPv@PLT
.L698:
	movq	%rbp, %rdi
.LEHB16:
	call	_ZN8asiodnp39IOHandler5ResetEv@PLT
	movq	64(%rbp), %rdi
	testq	%rdi, %rdi
	je	.L700
	movq	(%rdi), %rax
	movl	$1, %esi
	call	*16(%rax)
.L700:
	movq	0(%rbp), %rax
	movq	%rbp, %rdi
	call	*64(%rax)
.LEHE16:
	jmp	.L696
	.p2align 4,,10
	.p2align 3
.L704:
	movq	168(%rdi), %rcx
	addl	$1, 8(%r12)
	movq	%r12, %r13
	leaq	-32(%rcx), %rdx
	cmpq	%rdx, %rax
	movl	8(%r12), %eax
	leal	-1(%rax), %edx
	movl	%edx, 8(%r12)
	jne	.L711
.L719:
	cmpl	$1, %eax
	jne	.L717
	movq	0(%r13), %rax
	movq	%r13, %rdi
	call	*16(%rax)
	testq	%rbx, %rbx
	je	.L721
	movl	$-1, %eax
	lock xaddl	%eax, 12(%r13)
.L722:
	cmpl	$1, %eax
	jne	.L717
	movq	0(%r13), %rax
	movq	%r13, %rdi
	call	*24(%rax)
	.p2align 4,,10
	.p2align 3
.L717:
	movq	160(%rbp), %rdi
	call	_ZdlPv@PLT
	movq	176(%rbp), %rdx
	movq	8(%rdx), %rax
	addq	$8, %rdx
	movq	%rdx, %xmm1
	movq	%rax, %xmm0
	addq	$512, %rax
	punpcklqdq	%xmm0, %xmm0
	movups	%xmm0, 152(%rbp)
	movq	%rax, %xmm0
	punpcklqdq	%xmm1, %xmm0
	movups	%xmm0, 168(%rbp)
	jmp	.L716
	.p2align 4,,10
	.p2align 3
.L703:
	movq	168(%rdi), %rcx
	leaq	-32(%rcx), %rdx
	cmpq	%rdx, %rax
	jne	.L709
	jmp	.L717
	.p2align 4,,10
	.p2align 3
.L725:
	movl	8(%r12), %eax
	leal	-1(%rax), %edx
	movl	%edx, 8(%r12)
	jmp	.L726
	.p2align 4,,10
	.p2align 3
.L712:
	movq	0(%r13), %rax
	movq	%r13, %rdi
	call	*16(%rax)
	testq	%rbx, %rbx
	je	.L713
	movl	$-1, %eax
	lock xaddl	%eax, 12(%r13)
.L714:
	cmpl	$1, %eax
	jne	.L754
	movq	0(%r13), %rax
	movq	%r13, %rdi
	call	*24(%rax)
	jmp	.L754
	.p2align 4,,10
	.p2align 3
.L728:
	movl	12(%r12), %eax
	leal	-1(%rax), %edx
	movl	%edx, 12(%r12)
	jmp	.L729
	.p2align 4,,10
	.p2align 3
.L713:
	movl	12(%r13), %eax
	leal	-1(%rax), %edx
	movl	%edx, 12(%r13)
	jmp	.L714
	.p2align 4,,10
	.p2align 3
.L756:
	testq	%r13, %r13
	je	.L717
	movl	$-1, %eax
	lock xaddl	%eax, 8(%r13)
	jmp	.L719
.L721:
	movl	12(%r13), %eax
	leal	-1(%rax), %edx
	movl	%edx, 12(%r13)
	jmp	.L722
.L757:
	call	__stack_chk_fail@PLT
.L737:
	endbr64
	movq	%rax, %rbp
	jmp	.L732
.L736:
	endbr64
	movq	%rax, %rbp
	jmp	.L730
	.section	.gcc_except_table
.LLSDA7599:
	.byte	0xff
	.byte	0xff
	.byte	0x1
	.uleb128 .LLSDACSE7599-.LLSDACSB7599
.LLSDACSB7599:
	.uleb128 .LEHB13-.LFB7599
	.uleb128 .LEHE13-.LEHB13
	.uleb128 .L737-.LFB7599
	.uleb128 0
	.uleb128 .LEHB14-.LFB7599
	.uleb128 .LEHE14-.LEHB14
	.uleb128 0
	.uleb128 0
	.uleb128 .LEHB15-.LFB7599
	.uleb128 .LEHE15-.LEHB15
	.uleb128 .L736-.LFB7599
	.uleb128 0
	.uleb128 .LEHB16-.LFB7599
	.uleb128 .LEHE16-.LEHB16
	.uleb128 0
	.uleb128 0
.LLSDACSE7599:
	.text
	.cfi_endproc
	.section	.text.unlikely
	.cfi_startproc
	.cfi_personality 0x9b,DW.ref.__gxx_personality_v0
	.cfi_lsda 0x1b,.LLSDAC7599
	.type	_ZN8asiodnp39IOHandler15OnWriteCompleteERKSt10error_codem.cold, @function
_ZN8asiodnp39IOHandler15OnWriteCompleteERKSt10error_codem.cold:
.LFSB7599:
.L732:
	.cfi_def_cfa_offset 112
	.cfi_offset 3, -48
	.cfi_offset 6, -40
	.cfi_offset 12, -32
	.cfi_offset 13, -24
	.cfi_offset 14, -16
	testq	%r12, %r12
	je	.L733
	movq	%r12, %rdi
	call	_ZNSt16_Sp_counted_baseILN9__gnu_cxx12_Lock_policyE2EE10_M_releaseEv@PLT
.L733:
	movq	%rbp, %rdi
.LEHB17:
	call	_Unwind_Resume@PLT
.L730:
	movq	16(%rsp), %rdi
	leaq	32(%rsp), %rax
	cmpq	%rax, %rdi
	je	.L731
	call	_ZdlPv@PLT
.L731:
	movq	%rbp, %rdi
	call	_Unwind_Resume@PLT
.LEHE17:
	.cfi_endproc
.LFE7599:
	.section	.gcc_except_table
.LLSDAC7599:
	.byte	0xff
	.byte	0xff
	.byte	0x1
	.uleb128 .LLSDACSEC7599-.LLSDACSBC7599
.LLSDACSBC7599:
	.uleb128 .LEHB17-.LCOLDB29
	.uleb128 .LEHE17-.LEHB17
	.uleb128 0
	.uleb128 0
.LLSDACSEC7599:
	.section	.text.unlikely
	.text
	.size	_ZN8asiodnp39IOHandler15OnWriteCompleteERKSt10error_codem, .-_ZN8asiodnp39IOHandler15OnWriteCompleteERKSt10error_codem
	.section	.text.unlikely
	.size	_ZN8asiodnp39IOHandler15OnWriteCompleteERKSt10error_codem.cold, .-_ZN8asiodnp39IOHandler15OnWriteCompleteERKSt10error_codem.cold
.LCOLDE29:
	.text
.LHOTE29:
	.align 2
	.p2align 4
	.globl	_ZN8asiodnp39IOHandler7DisableERKSt10shared_ptrIN8opendnp312ILinkSessionEE
	.type	_ZN8asiodnp39IOHandler7DisableERKSt10shared_ptrIN8opendnp312ILinkSessionEE, @function
_ZN8asiodnp39IOHandler7DisableERKSt10shared_ptrIN8opendnp312ILinkSessionEE:
.LFB7610:
	.cfi_startproc
	endbr64
	movabsq	$-6148914691236517205, %rcx
	pushq	%r12
	.cfi_def_cfa_offset 16
	.cfi_offset 12, -16
	pushq	%rbp
	.cfi_def_cfa_offset 24
	.cfi_offset 6, -24
	movq	%rdi, %rbp
	subq	$8, %rsp
	.cfi_def_cfa_offset 32
	movq	120(%rdi), %r8
	movq	112(%rdi), %rax
	movq	%r8, %rdx
	subq	%rax, %rdx
	sarq	$3, %rdx
	imulq	%rcx, %rdx
	movq	%rdx, %rcx
	sarq	$2, %rcx
	testq	%rcx, %rcx
	jle	.L759
	leaq	(%rcx,%rcx,2), %rdx
	movq	(%rsi), %rdi
	salq	$5, %rdx
	addq	%rax, %rdx
	jmp	.L764
	.p2align 4,,10
	.p2align 3
.L782:
	cmpq	32(%rax), %rdi
	je	.L778
	cmpq	56(%rax), %rdi
	je	.L779
	cmpq	80(%rax), %rdi
	je	.L780
	addq	$96, %rax
	cmpq	%rax, %rdx
	je	.L781
.L764:
	cmpq	%rdi, 8(%rax)
	jne	.L782
.L760:
	cmpq	%rax, %r8
	je	.L775
	movzbl	(%rax), %r12d
	testb	%r12b, %r12b
	je	.L774
	cmpq	$0, 632(%rbp)
	movb	$0, (%rax)
	je	.L773
	cmpb	$0, 6(%rax)
	je	.L773
	movb	$0, 6(%rax)
	movq	(%rdi), %rax
	call	*40(%rax)
.L773:
	movq	%rbp, %rdi
	call	_ZNK8asiodnp39IOHandler19IsAnySessionEnabledEv@PLT
	testb	%al, %al
	je	.L783
.L774:
	movl	$1, %r12d
	addq	$8, %rsp
	.cfi_remember_state
	.cfi_def_cfa_offset 24
	movl	%r12d, %eax
	popq	%rbp
	.cfi_def_cfa_offset 16
	popq	%r12
	.cfi_def_cfa_offset 8
	ret
	.p2align 4,,10
	.p2align 3
.L781:
	.cfi_restore_state
	movabsq	$-6148914691236517205, %rcx
	movq	%r8, %rdx
	subq	%rax, %rdx
	sarq	$3, %rdx
	imulq	%rcx, %rdx
.L759:
	cmpq	$2, %rdx
	je	.L765
	cmpq	$3, %rdx
	je	.L766
	cmpq	$1, %rdx
	je	.L784
.L775:
	xorl	%r12d, %r12d
	addq	$8, %rsp
	.cfi_remember_state
	.cfi_def_cfa_offset 24
	movl	%r12d, %eax
	popq	%rbp
	.cfi_def_cfa_offset 16
	popq	%r12
	.cfi_def_cfa_offset 8
	ret
	.p2align 4,,10
	.p2align 3
.L783:
	.cfi_restore_state
	movq	%rbp, %rdi
	call	_ZN8asiodnp39IOHandler5ResetEv@PLT
	movq	0(%rbp), %rax
	movq	%rbp, %rdi
	call	*48(%rax)
	addq	$8, %rsp
	.cfi_remember_state
	.cfi_def_cfa_offset 24
	movl	%r12d, %eax
	popq	%rbp
	.cfi_def_cfa_offset 16
	popq	%r12
	.cfi_def_cfa_offset 8
	ret
	.p2align 4,,10
	.p2align 3
.L784:
	.cfi_restore_state
	movq	(%rsi), %rdi
.L770:
	cmpq	%rdi, 8(%rax)
	jne	.L775
	jmp	.L760
	.p2align 4,,10
	.p2align 3
.L766:
	movq	(%rsi), %rdi
	cmpq	%rdi, 8(%rax)
	je	.L760
	addq	$24, %rax
	jmp	.L769
	.p2align 4,,10
	.p2align 3
.L765:
	movq	(%rsi), %rdi
.L769:
	cmpq	%rdi, 8(%rax)
	je	.L760
	addq	$24, %rax
	jmp	.L770
	.p2align 4,,10
	.p2align 3
.L778:
	addq	$24, %rax
	jmp	.L760
	.p2align 4,,10
	.p2align 3
.L779:
	addq	$48, %rax
	jmp	.L760
	.p2align 4,,10
	.p2align 3
.L780:
	addq	$72, %rax
	jmp	.L760
	.cfi_endproc
.LFE7610:
	.size	_ZN8asiodnp39IOHandler7DisableERKSt10shared_ptrIN8opendnp312ILinkSessionEE, .-_ZN8asiodnp39IOHandler7DisableERKSt10shared_ptrIN8opendnp312ILinkSessionEE
	.section	.text.unlikely
	.align 2
.LCOLDB30:
	.text
.LHOTB30:
	.align 2
	.p2align 4
	.globl	_ZN8asiodnp39IOHandler12OnNewChannelERKSt10shared_ptrIN7asiopal13IAsyncChannelEE
	.type	_ZN8asiodnp39IOHandler12OnNewChannelERKSt10shared_ptrIN7asiopal13IAsyncChannelEE, @function
_ZN8asiodnp39IOHandler12OnNewChannelERKSt10shared_ptrIN7asiopal13IAsyncChannelEE:
.LFB7614:
	.cfi_startproc
	endbr64
	pushq	%r15
	.cfi_def_cfa_offset 16
	.cfi_offset 15, -16
	pushq	%r14
	.cfi_def_cfa_offset 24
	.cfi_offset 14, -24
	pushq	%r13
	.cfi_def_cfa_offset 32
	.cfi_offset 13, -32
	pushq	%r12
	.cfi_def_cfa_offset 40
	.cfi_offset 12, -40
	pushq	%rbp
	.cfi_def_cfa_offset 48
	.cfi_offset 6, -48
	movq	%rsi, %rbp
	pushq	%rbx
	.cfi_def_cfa_offset 56
	.cfi_offset 3, -56
	movq	%rdi, %rbx
	subq	$8, %rsp
	.cfi_def_cfa_offset 64
	call	_ZN8asiodnp39IOHandler5ResetEv@PLT
	movq	0(%rbp), %r12
	movq	8(%rbp), %r13
	movq	640(%rbx), %rbp
	addl	$1, 80(%rbx)
	movq	%r12, 632(%rbx)
	cmpq	%rbp, %r13
	je	.L786
	testq	%r13, %r13
	je	.L787
	cmpq	$0, _ZL28__gthrw___pthread_key_createPjPFvPvE@GOTPCREL(%rip)
	je	.L788
	lock addl	$1, 8(%r13)
	movq	640(%rbx), %rbp
.L787:
	testq	%rbp, %rbp
	je	.L790
.L843:
	movq	_ZL28__gthrw___pthread_key_createPjPFvPvE@GOTPCREL(%rip), %r15
	testq	%r15, %r15
	je	.L791
	movl	$-1, %eax
	lock xaddl	%eax, 8(%rbp)
.L792:
	cmpl	$1, %eax
	je	.L840
.L790:
	movq	%r13, 640(%rbx)
	movq	632(%rbx), %r12
.L786:
	movq	24(%rbx), %rbp
	testq	%rbp, %rbp
	je	.L796
	movl	8(%rbp), %eax
	leaq	8(%rbp), %r13
.L798:
	testl	%eax, %eax
	je	.L796
	leal	1(%rax), %edx
	lock cmpxchgl	%edx, 0(%r13)
	jne	.L798
	movq	16(%rbx), %rax
	movq	48(%r12), %r14
	movq	_ZL28__gthrw___pthread_key_createPjPFvPvE@GOTPCREL(%rip), %r15
	leaq	8(%rax), %rdx
	testq	%rax, %rax
	cmovne	%rdx, %rax
	movq	%rax, 40(%r12)
	cmpq	%r14, %rbp
	je	.L800
	testq	%r15, %r15
	je	.L801
	lock addl	$1, 0(%r13)
	movq	48(%r12), %r14
.L802:
	testq	%r14, %r14
	je	.L804
	testq	%r15, %r15
	je	.L805
	movl	$-1, %eax
	lock xaddl	%eax, 8(%r14)
	cmpl	$1, %eax
	je	.L841
	.p2align 4,,10
	.p2align 3
.L804:
	movq	%rbp, 48(%r12)
.L800:
	testq	%r15, %r15
	je	.L810
	movl	$-1, %eax
	lock xaddl	%eax, 0(%r13)
	cmpl	$1, %eax
	je	.L842
.L813:
	movq	64(%rbx), %rdi
	testq	%rdi, %rdi
	je	.L817
	movq	(%rdi), %rax
	movl	$2, %esi
	call	*16(%rax)
.L817:
	movq	%rbx, %rdi
	call	_ZN8asiodnp39IOHandler9BeginReadEv@PLT
	movb	$1, 656(%rbx)
	movq	120(%rbx), %rbp
	movq	112(%rbx), %rbx
	cmpq	%rbp, %rbx
	je	.L785
	.p2align 4,,10
	.p2align 3
.L820:
	cmpb	$0, (%rbx)
	je	.L819
	cmpb	$0, 6(%rbx)
	jne	.L819
	movq	8(%rbx), %rdi
	movb	$1, 6(%rbx)
	movq	(%rdi), %rax
	call	*32(%rax)
.L819:
	addq	$24, %rbx
	cmpq	%rbx, %rbp
	jne	.L820
.L785:
	addq	$8, %rsp
	.cfi_remember_state
	.cfi_def_cfa_offset 56
	popq	%rbx
	.cfi_def_cfa_offset 48
	popq	%rbp
	.cfi_def_cfa_offset 40
	popq	%r12
	.cfi_def_cfa_offset 32
	popq	%r13
	.cfi_def_cfa_offset 24
	popq	%r14
	.cfi_def_cfa_offset 16
	popq	%r15
	.cfi_def_cfa_offset 8
	ret
	.p2align 4,,10
	.p2align 3
.L801:
	.cfi_restore_state
	addl	$1, 8(%rbp)
	jmp	.L802
	.p2align 4,,10
	.p2align 3
.L810:
	movl	8(%rbp), %eax
	leal	-1(%rax), %edx
	movl	%edx, 8(%rbp)
	cmpl	$1, %eax
	jne	.L813
.L842:
	movq	0(%rbp), %rax
	movq	%rbp, %rdi
	call	*16(%rax)
	testq	%r15, %r15
	je	.L814
	movl	$-1, %eax
	lock xaddl	%eax, 12(%rbp)
.L815:
	cmpl	$1, %eax
	jne	.L813
	movq	0(%rbp), %rax
	movq	%rbp, %rdi
	call	*24(%rax)
	jmp	.L813
	.p2align 4,,10
	.p2align 3
.L788:
	addl	$1, 8(%r13)
	testq	%rbp, %rbp
	jne	.L843
	jmp	.L790
	.p2align 4,,10
	.p2align 3
.L814:
	movl	12(%rbp), %eax
	leal	-1(%rax), %edx
	movl	%edx, 12(%rbp)
	jmp	.L815
	.p2align 4,,10
	.p2align 3
.L840:
	movq	0(%rbp), %rax
	movq	%rbp, %rdi
	call	*16(%rax)
	testq	%r15, %r15
	je	.L794
	movl	$-1, %eax
	lock xaddl	%eax, 12(%rbp)
.L795:
	cmpl	$1, %eax
	jne	.L790
	movq	0(%rbp), %rax
	movq	%rbp, %rdi
	call	*24(%rax)
	jmp	.L790
	.p2align 4,,10
	.p2align 3
.L791:
	movl	8(%rbp), %eax
	leal	-1(%rax), %edx
	movl	%edx, 8(%rbp)
	jmp	.L792
	.p2align 4,,10
	.p2align 3
.L805:
	movl	8(%r14), %eax
	leal	-1(%rax), %edx
	movl	%edx, 8(%r14)
	cmpl	$1, %eax
	jne	.L804
.L841:
	movq	(%r14), %rax
	movq	%r14, %rdi
	call	*16(%rax)
	testq	%r15, %r15
	je	.L808
	movl	$-1, %eax
	lock xaddl	%eax, 12(%r14)
.L809:
	cmpl	$1, %eax
	jne	.L804
	movq	(%r14), %rax
	movq	%r14, %rdi
	call	*24(%rax)
	jmp	.L804
.L794:
	movl	12(%rbp), %eax
	leal	-1(%rax), %edx
	movl	%edx, 12(%rbp)
	jmp	.L795
.L808:
	movl	12(%r14), %eax
	leal	-1(%rax), %edx
	movl	%edx, 12(%r14)
	jmp	.L809
	.cfi_endproc
	.section	.text.unlikely
	.cfi_startproc
	.type	_ZN8asiodnp39IOHandler12OnNewChannelERKSt10shared_ptrIN7asiopal13IAsyncChannelEE.cold, @function
_ZN8asiodnp39IOHandler12OnNewChannelERKSt10shared_ptrIN7asiopal13IAsyncChannelEE.cold:
.LFSB7614:
.L796:
	.cfi_def_cfa_offset 64
	.cfi_offset 3, -56
	.cfi_offset 6, -48
	.cfi_offset 12, -40
	.cfi_offset 13, -32
	.cfi_offset 14, -24
	.cfi_offset 15, -16
	call	_ZSt20__throw_bad_weak_ptrv@PLT
	.cfi_endproc
.LFE7614:
	.text
	.size	_ZN8asiodnp39IOHandler12OnNewChannelERKSt10shared_ptrIN7asiopal13IAsyncChannelEE, .-_ZN8asiodnp39IOHandler12OnNewChannelERKSt10shared_ptrIN7asiopal13IAsyncChannelEE
	.section	.text.unlikely
	.size	_ZN8asiodnp39IOHandler12OnNewChannelERKSt10shared_ptrIN7asiopal13IAsyncChannelEE.cold, .-_ZN8asiodnp39IOHandler12OnNewChannelERKSt10shared_ptrIN7asiopal13IAsyncChannelEE.cold
.LCOLDE30:
	.text
.LHOTE30:
	.section	.text.unlikely
.LCOLDB31:
	.text
.LHOTB31:
	.p2align 4
	.globl	_ZThn8_N8asiodnp39IOHandler14OnReadCompleteERKSt10error_codem
	.type	_ZThn8_N8asiodnp39IOHandler14OnReadCompleteERKSt10error_codem, @function
_ZThn8_N8asiodnp39IOHandler14OnReadCompleteERKSt10error_codem:
.LFB10383:
	.cfi_startproc
	.cfi_personality 0x9b,DW.ref.__gxx_personality_v0
	.cfi_lsda 0x1b,.LLSDA10383
	endbr64
	pushq	%r14
	.cfi_def_cfa_offset 16
	.cfi_offset 14, -16
	pushq	%r13
	.cfi_def_cfa_offset 24
	.cfi_offset 13, -24
	pushq	%r12
	.cfi_def_cfa_offset 32
	.cfi_offset 12, -32
	leaq	-8(%rdi), %r12
	pushq	%rbp
	.cfi_def_cfa_offset 40
	.cfi_offset 6, -40
	movq	%rsi, %rbp
	pushq	%rbx
	.cfi_def_cfa_offset 48
	.cfi_offset 3, -48
	movq	%rdi, %rbx
	subq	$64, %rsp
	.cfi_def_cfa_offset 112
	movq	%fs:40, %rax
	movq	%rax, 56(%rsp)
	xorl	%eax, %eax
	movl	(%rsi), %eax
	testl	%eax, %eax
	je	.L845
	leaq	24(%rdi), %r13
	leaq	12(%rsp), %r14
	movl	$4, 12(%rsp)
	movq	%r14, %rsi
	movq	%r13, %rdi
.LEHB18:
	call	_ZNK7openpal6Logger9IsEnabledERKNS_10LogFiltersE@PLT
	testb	%al, %al
	je	.L846
	movq	8(%rbp), %rsi
	movl	0(%rbp), %edx
	leaq	16(%rsp), %rdi
	movq	(%rsi), %rax
	call	*32(%rax)
.LEHE18:
	movq	16(%rsp), %rcx
	movq	%r14, %rsi
	movq	%r13, %rdi
	leaq	.LC26(%rip), %rdx
	movl	$4, 12(%rsp)
.LEHB19:
	call	_ZN7openpal6Logger3LogERKNS_10LogFiltersEPKcS5_@PLT
.LEHE19:
	movq	16(%rsp), %rdi
	leaq	32(%rsp), %rax
	cmpq	%rax, %rdi
	je	.L846
	call	_ZdlPv@PLT
.L846:
	movq	%r12, %rdi
.LEHB20:
	call	_ZN8asiodnp39IOHandler5ResetEv@PLT
	movq	56(%rbx), %rdi
	testq	%rdi, %rdi
	je	.L848
	movq	(%rdi), %rax
	movl	$1, %esi
	call	*16(%rax)
.L848:
	movq	-8(%rbx), %rax
	movq	%r12, %rdi
	call	*64(%rax)
.L844:
	movq	56(%rsp), %rax
	xorq	%fs:40, %rax
	jne	.L861
	addq	$64, %rsp
	.cfi_remember_state
	.cfi_def_cfa_offset 48
	popq	%rbx
	.cfi_def_cfa_offset 40
	popq	%rbp
	.cfi_def_cfa_offset 32
	popq	%r12
	.cfi_def_cfa_offset 24
	popq	%r13
	.cfi_def_cfa_offset 16
	popq	%r14
	.cfi_def_cfa_offset 8
	ret
	.p2align 4,,10
	.p2align 3
.L845:
	.cfi_restore_state
	addl	%edx, 84(%rdi)
	movq	%rdx, %rsi
	leaq	208(%rdi), %rdi
	movq	%r12, %rdx
	call	_ZN8opendnp315LinkLayerParser6OnReadEjRNS_10IFrameSinkE@PLT
	movq	%r12, %rdi
	call	_ZN8asiodnp39IOHandler9BeginReadEv@PLT
.LEHE20:
	jmp	.L844
.L861:
	call	__stack_chk_fail@PLT
.L853:
	endbr64
	movq	%rax, %rbp
	jmp	.L850
	.section	.gcc_except_table
.LLSDA10383:
	.byte	0xff
	.byte	0xff
	.byte	0x1
	.uleb128 .LLSDACSE10383-.LLSDACSB10383
.LLSDACSB10383:
	.uleb128 .LEHB18-.LFB10383
	.uleb128 .LEHE18-.LEHB18
	.uleb128 0
	.uleb128 0
	.uleb128 .LEHB19-.LFB10383
	.uleb128 .LEHE19-.LEHB19
	.uleb128 .L853-.LFB10383
	.uleb128 0
	.uleb128 .LEHB20-.LFB10383
	.uleb128 .LEHE20-.LEHB20
	.uleb128 0
	.uleb128 0
.LLSDACSE10383:
	.text
	.cfi_endproc
	.section	.text.unlikely
	.cfi_startproc
	.cfi_personality 0x9b,DW.ref.__gxx_personality_v0
	.cfi_lsda 0x1b,.LLSDAC10383
	.type	_ZThn8_N8asiodnp39IOHandler14OnReadCompleteERKSt10error_codem.cold, @function
_ZThn8_N8asiodnp39IOHandler14OnReadCompleteERKSt10error_codem.cold:
.LFSB10383:
.L850:
	.cfi_def_cfa_offset 112
	.cfi_offset 3, -48
	.cfi_offset 6, -40
	.cfi_offset 12, -32
	.cfi_offset 13, -24
	.cfi_offset 14, -16
	movq	16(%rsp), %rdi
	leaq	32(%rsp), %rax
	cmpq	%rax, %rdi
	je	.L851
	call	_ZdlPv@PLT
.L851:
	movq	%rbp, %rdi
.LEHB21:
	call	_Unwind_Resume@PLT
.LEHE21:
	.cfi_endproc
.LFE10383:
	.section	.gcc_except_table
.LLSDAC10383:
	.byte	0xff
	.byte	0xff
	.byte	0x1
	.uleb128 .LLSDACSEC10383-.LLSDACSBC10383
.LLSDACSBC10383:
	.uleb128 .LEHB21-.LCOLDB31
	.uleb128 .LEHE21-.LEHB21
	.uleb128 0
	.uleb128 0
.LLSDACSEC10383:
	.section	.text.unlikely
	.text
	.size	_ZThn8_N8asiodnp39IOHandler14OnReadCompleteERKSt10error_codem, .-_ZThn8_N8asiodnp39IOHandler14OnReadCompleteERKSt10error_codem
	.section	.text.unlikely
	.size	_ZThn8_N8asiodnp39IOHandler14OnReadCompleteERKSt10error_codem.cold, .-_ZThn8_N8asiodnp39IOHandler14OnReadCompleteERKSt10error_codem.cold
.LCOLDE31:
	.text
.LHOTE31:
	.section	.text.unlikely
.LCOLDB32:
	.text
.LHOTB32:
	.p2align 4
	.globl	_ZThn8_N8asiodnp39IOHandler15OnWriteCompleteERKSt10error_codem
	.type	_ZThn8_N8asiodnp39IOHandler15OnWriteCompleteERKSt10error_codem, @function
_ZThn8_N8asiodnp39IOHandler15OnWriteCompleteERKSt10error_codem:
.LFB10384:
	.cfi_startproc
	.cfi_personality 0x9b,DW.ref.__gxx_personality_v0
	.cfi_lsda 0x1b,.LLSDA10384
	endbr64
	pushq	%r15
	.cfi_def_cfa_offset 16
	.cfi_offset 15, -16
	pushq	%r14
	.cfi_def_cfa_offset 24
	.cfi_offset 14, -24
	pushq	%r13
	.cfi_def_cfa_offset 32
	.cfi_offset 13, -32
	pushq	%r12
	.cfi_def_cfa_offset 40
	.cfi_offset 12, -40
	leaq	-8(%rdi), %r12
	pushq	%rbp
	.cfi_def_cfa_offset 48
	.cfi_offset 6, -48
	pushq	%rbx
	.cfi_def_cfa_offset 56
	.cfi_offset 3, -56
	movq	%rdi, %rbx
	subq	$72, %rsp
	.cfi_def_cfa_offset 128
	movq	%fs:40, %rax
	movq	%rax, 56(%rsp)
	xorl	%eax, %eax
	movl	(%rsi), %eax
	testl	%eax, %eax
	jne	.L921
	addl	%edx, 88(%rdi)
	movq	144(%rdi), %rax
	cmpq	%rax, 176(%rdi)
	je	.L868
	movq	24(%rax), %rbp
	movq	16(%rax), %r14
	testq	%rbp, %rbp
	je	.L869
	movq	_ZL28__gthrw___pthread_key_createPjPFvPvE@GOTPCREL(%rip), %r15
	testq	%r15, %r15
	je	.L870
	lock addl	$1, 8(%rbp)
	movq	160(%rdi), %rcx
	movq	144(%rdi), %rax
	leaq	-32(%rcx), %rdx
	movq	24(%rax), %r13
	cmpq	%rdx, %rax
	je	.L922
	testq	%r13, %r13
	je	.L875
	movl	$-1, %eax
	lock xaddl	%eax, 8(%r13)
.L877:
	cmpl	$1, %eax
	je	.L878
.L920:
	movq	144(%rbx), %rax
.L875:
	addq	$32, %rax
	movq	%rax, 144(%rbx)
.L882:
	movq	(%r14), %rax
	movl	$1, %esi
	movq	%r14, %rdi
.LEHB22:
	call	*24(%rax)
.LEHE22:
	testq	%rbp, %rbp
	je	.L868
	movq	_ZL28__gthrw___pthread_key_createPjPFvPvE@GOTPCREL(%rip), %r15
	testq	%r15, %r15
	je	.L891
	movl	$-1, %eax
	lock xaddl	%eax, 8(%rbp)
.L892:
	cmpl	$1, %eax
	jne	.L868
	movq	0(%rbp), %rax
	movq	%rbp, %rdi
	call	*16(%rax)
	testq	%r15, %r15
	je	.L894
	movl	$-1, %eax
	lock xaddl	%eax, 12(%rbp)
.L895:
	cmpl	$1, %eax
	jne	.L868
	movq	0(%rbp), %rax
	movq	%rbp, %rdi
	call	*24(%rax)
	.p2align 4,,10
	.p2align 3
.L868:
	movq	%r12, %rdi
.LEHB23:
	call	_ZN8asiodnp39IOHandler12CheckForSendEv@PLT
.L862:
	movq	56(%rsp), %rax
	xorq	%fs:40, %rax
	jne	.L923
	addq	$72, %rsp
	.cfi_remember_state
	.cfi_def_cfa_offset 56
	popq	%rbx
	.cfi_def_cfa_offset 48
	popq	%rbp
	.cfi_def_cfa_offset 40
	popq	%r12
	.cfi_def_cfa_offset 32
	popq	%r13
	.cfi_def_cfa_offset 24
	popq	%r14
	.cfi_def_cfa_offset 16
	popq	%r15
	.cfi_def_cfa_offset 8
	ret
	.p2align 4,,10
	.p2align 3
.L921:
	.cfi_restore_state
	leaq	24(%rdi), %r13
	leaq	12(%rsp), %r14
	movq	%rsi, %rbp
	movl	$4, 12(%rsp)
	movq	%r14, %rsi
	movq	%r13, %rdi
	call	_ZNK7openpal6Logger9IsEnabledERKNS_10LogFiltersE@PLT
	testb	%al, %al
	je	.L864
	movq	8(%rbp), %rsi
	movl	0(%rbp), %edx
	leaq	16(%rsp), %rdi
	movq	(%rsi), %rax
	call	*32(%rax)
.LEHE23:
	movq	16(%rsp), %rcx
	movq	%r14, %rsi
	movq	%r13, %rdi
	leaq	.LC28(%rip), %rdx
	movl	$4, 12(%rsp)
.LEHB24:
	call	_ZN7openpal6Logger3LogERKNS_10LogFiltersEPKcS5_@PLT
.LEHE24:
	movq	16(%rsp), %rdi
	leaq	32(%rsp), %rax
	cmpq	%rax, %rdi
	je	.L864
	call	_ZdlPv@PLT
.L864:
	movq	%r12, %rdi
.LEHB25:
	call	_ZN8asiodnp39IOHandler5ResetEv@PLT
	movq	56(%rbx), %rdi
	testq	%rdi, %rdi
	je	.L866
	movq	(%rdi), %rax
	movl	$1, %esi
	call	*16(%rax)
.L866:
	movq	-8(%rbx), %rax
	movq	%r12, %rdi
	call	*64(%rax)
.LEHE25:
	jmp	.L862
	.p2align 4,,10
	.p2align 3
.L870:
	movq	160(%rdi), %rcx
	addl	$1, 8(%rbp)
	movq	%rbp, %r13
	leaq	-32(%rcx), %rdx
	cmpq	%rdx, %rax
	movl	8(%rbp), %eax
	leal	-1(%rax), %edx
	movl	%edx, 8(%rbp)
	jne	.L877
.L885:
	cmpl	$1, %eax
	jne	.L883
	movq	0(%r13), %rax
	movq	%r13, %rdi
	call	*16(%rax)
	testq	%r15, %r15
	je	.L887
	movl	$-1, %eax
	lock xaddl	%eax, 12(%r13)
.L888:
	cmpl	$1, %eax
	jne	.L883
	movq	0(%r13), %rax
	movq	%r13, %rdi
	call	*24(%rax)
	.p2align 4,,10
	.p2align 3
.L883:
	movq	152(%rbx), %rdi
	call	_ZdlPv@PLT
	movq	168(%rbx), %rdx
	movq	8(%rdx), %rax
	addq	$8, %rdx
	movq	%rdx, %xmm1
	movq	%rax, %xmm0
	addq	$512, %rax
	punpcklqdq	%xmm0, %xmm0
	movups	%xmm0, 144(%rbx)
	movq	%rax, %xmm0
	punpcklqdq	%xmm1, %xmm0
	movups	%xmm0, 160(%rbx)
	jmp	.L882
	.p2align 4,,10
	.p2align 3
.L869:
	movq	160(%rdi), %rcx
	leaq	-32(%rcx), %rdx
	cmpq	%rdx, %rax
	jne	.L875
	jmp	.L883
	.p2align 4,,10
	.p2align 3
.L891:
	movl	8(%rbp), %eax
	leal	-1(%rax), %edx
	movl	%edx, 8(%rbp)
	jmp	.L892
	.p2align 4,,10
	.p2align 3
.L878:
	movq	0(%r13), %rax
	movq	%r13, %rdi
	call	*16(%rax)
	testq	%r15, %r15
	je	.L879
	movl	$-1, %eax
	lock xaddl	%eax, 12(%r13)
.L880:
	cmpl	$1, %eax
	jne	.L920
	movq	0(%r13), %rax
	movq	%r13, %rdi
	call	*24(%rax)
	jmp	.L920
	.p2align 4,,10
	.p2align 3
.L894:
	movl	12(%rbp), %eax
	leal	-1(%rax), %edx
	movl	%edx, 12(%rbp)
	jmp	.L895
	.p2align 4,,10
	.p2align 3
.L879:
	movl	12(%r13), %eax
	leal	-1(%rax), %edx
	movl	%edx, 12(%r13)
	jmp	.L880
	.p2align 4,,10
	.p2align 3
.L922:
	testq	%r13, %r13
	je	.L883
	movl	$-1, %eax
	lock xaddl	%eax, 8(%r13)
	jmp	.L885
.L887:
	movl	12(%r13), %eax
	leal	-1(%rax), %edx
	movl	%edx, 12(%r13)
	jmp	.L888
.L923:
	call	__stack_chk_fail@PLT
.L903:
	endbr64
	movq	%rax, %r12
	jmp	.L898
.L902:
	endbr64
	movq	%rax, %rbp
	jmp	.L896
	.section	.gcc_except_table
.LLSDA10384:
	.byte	0xff
	.byte	0xff
	.byte	0x1
	.uleb128 .LLSDACSE10384-.LLSDACSB10384
.LLSDACSB10384:
	.uleb128 .LEHB22-.LFB10384
	.uleb128 .LEHE22-.LEHB22
	.uleb128 .L903-.LFB10384
	.uleb128 0
	.uleb128 .LEHB23-.LFB10384
	.uleb128 .LEHE23-.LEHB23
	.uleb128 0
	.uleb128 0
	.uleb128 .LEHB24-.LFB10384
	.uleb128 .LEHE24-.LEHB24
	.uleb128 .L902-.LFB10384
	.uleb128 0
	.uleb128 .LEHB25-.LFB10384
	.uleb128 .LEHE25-.LEHB25
	.uleb128 0
	.uleb128 0
.LLSDACSE10384:
	.text
	.cfi_endproc
	.section	.text.unlikely
	.cfi_startproc
	.cfi_personality 0x9b,DW.ref.__gxx_personality_v0
	.cfi_lsda 0x1b,.LLSDAC10384
	.type	_ZThn8_N8asiodnp39IOHandler15OnWriteCompleteERKSt10error_codem.cold, @function
_ZThn8_N8asiodnp39IOHandler15OnWriteCompleteERKSt10error_codem.cold:
.LFSB10384:
.L898:
	.cfi_def_cfa_offset 128
	.cfi_offset 3, -56
	.cfi_offset 6, -48
	.cfi_offset 12, -40
	.cfi_offset 13, -32
	.cfi_offset 14, -24
	.cfi_offset 15, -16
	testq	%rbp, %rbp
	je	.L899
	movq	%rbp, %rdi
	call	_ZNSt16_Sp_counted_baseILN9__gnu_cxx12_Lock_policyE2EE10_M_releaseEv@PLT
.L899:
	movq	%r12, %rdi
.LEHB26:
	call	_Unwind_Resume@PLT
.L896:
	movq	16(%rsp), %rdi
	leaq	32(%rsp), %rax
	cmpq	%rax, %rdi
	je	.L897
	call	_ZdlPv@PLT
.L897:
	movq	%rbp, %rdi
	call	_Unwind_Resume@PLT
.LEHE26:
	.cfi_endproc
.LFE10384:
	.section	.gcc_except_table
.LLSDAC10384:
	.byte	0xff
	.byte	0xff
	.byte	0x1
	.uleb128 .LLSDACSEC10384-.LLSDACSBC10384
.LLSDACSBC10384:
	.uleb128 .LEHB26-.LCOLDB32
	.uleb128 .LEHE26-.LEHB26
	.uleb128 0
	.uleb128 0
.LLSDACSEC10384:
	.section	.text.unlikely
	.text
	.size	_ZThn8_N8asiodnp39IOHandler15OnWriteCompleteERKSt10error_codem, .-_ZThn8_N8asiodnp39IOHandler15OnWriteCompleteERKSt10error_codem
	.section	.text.unlikely
	.size	_ZThn8_N8asiodnp39IOHandler15OnWriteCompleteERKSt10error_codem.cold, .-_ZThn8_N8asiodnp39IOHandler15OnWriteCompleteERKSt10error_codem.cold
.LCOLDE32:
	.text
.LHOTE32:
	.section	.text._ZNSt5dequeIN8asiodnp39IOHandler12TransmissionESaIS2_EED2Ev,"axG",@progbits,_ZNSt5dequeIN8asiodnp39IOHandler12TransmissionESaIS2_EED5Ev,comdat
	.align 2
	.p2align 4
	.weak	_ZNSt5dequeIN8asiodnp39IOHandler12TransmissionESaIS2_EED2Ev
	.type	_ZNSt5dequeIN8asiodnp39IOHandler12TransmissionESaIS2_EED2Ev, @function
_ZNSt5dequeIN8asiodnp39IOHandler12TransmissionESaIS2_EED2Ev:
.LFB8431:
	.cfi_startproc
	endbr64
	pushq	%r12
	.cfi_def_cfa_offset 16
	.cfi_offset 12, -16
	pushq	%rbp
	.cfi_def_cfa_offset 24
	.cfi_offset 6, -24
	pushq	%rbx
	.cfi_def_cfa_offset 32
	.cfi_offset 3, -32
	movq	%rdi, %rbx
	subq	$80, %rsp
	.cfi_def_cfa_offset 112
	movdqu	48(%rdi), %xmm0
	movdqu	64(%rdi), %xmm1
	movdqu	16(%rdi), %xmm2
	movdqu	32(%rdi), %xmm3
	movq	%rsp, %rdx
	leaq	32(%rsp), %rsi
	movq	%fs:40, %rax
	movq	%rax, 72(%rsp)
	xorl	%eax, %eax
	movaps	%xmm0, (%rsp)
	movaps	%xmm1, 16(%rsp)
	movaps	%xmm2, 32(%rsp)
	movaps	%xmm3, 48(%rsp)
	call	_ZNSt5dequeIN8asiodnp39IOHandler12TransmissionESaIS2_EE19_M_destroy_data_auxESt15_Deque_iteratorIS2_RS2_PS2_ES8_@PLT
	movq	(%rbx), %rdi
	testq	%rdi, %rdi
	je	.L924
	movq	72(%rbx), %rax
	movq	40(%rbx), %rbp
	leaq	8(%rax), %r12
	cmpq	%rbp, %r12
	jbe	.L926
	.p2align 4,,10
	.p2align 3
.L927:
	movq	0(%rbp), %rdi
	addq	$8, %rbp
	call	_ZdlPv@PLT
	cmpq	%rbp, %r12
	ja	.L927
	movq	(%rbx), %rdi
.L926:
	call	_ZdlPv@PLT
.L924:
	movq	72(%rsp), %rax
	xorq	%fs:40, %rax
	jne	.L934
	addq	$80, %rsp
	.cfi_remember_state
	.cfi_def_cfa_offset 32
	popq	%rbx
	.cfi_def_cfa_offset 24
	popq	%rbp
	.cfi_def_cfa_offset 16
	popq	%r12
	.cfi_def_cfa_offset 8
	ret
.L934:
	.cfi_restore_state
	call	__stack_chk_fail@PLT
	.cfi_endproc
.LFE8431:
	.size	_ZNSt5dequeIN8asiodnp39IOHandler12TransmissionESaIS2_EED2Ev, .-_ZNSt5dequeIN8asiodnp39IOHandler12TransmissionESaIS2_EED2Ev
	.weak	_ZNSt5dequeIN8asiodnp39IOHandler12TransmissionESaIS2_EED1Ev
	.set	_ZNSt5dequeIN8asiodnp39IOHandler12TransmissionESaIS2_EED1Ev,_ZNSt5dequeIN8asiodnp39IOHandler12TransmissionESaIS2_EED2Ev
	.section	.text.unlikely
	.align 2
.LCOLDB33:
	.text
.LHOTB33:
	.align 2
	.p2align 4
	.globl	_ZN8asiodnp39IOHandlerC2ERKN7openpal6LoggerERKSt10shared_ptrINS_16IChannelListenerEE
	.type	_ZN8asiodnp39IOHandlerC2ERKN7openpal6LoggerERKSt10shared_ptrINS_16IChannelListenerEE, @function
_ZN8asiodnp39IOHandlerC2ERKN7openpal6LoggerERKSt10shared_ptrINS_16IChannelListenerEE:
.LFB7595:
	.cfi_startproc
	.cfi_personality 0x9b,DW.ref.__gxx_personality_v0
	.cfi_lsda 0x1b,.LLSDA7595
	endbr64
	pushq	%r13
	.cfi_def_cfa_offset 16
	.cfi_offset 13, -16
	pxor	%xmm0, %xmm0
	pushq	%r12
	.cfi_def_cfa_offset 24
	.cfi_offset 12, -24
	movq	%rsi, %r12
	pushq	%rbp
	.cfi_def_cfa_offset 32
	.cfi_offset 6, -32
	pushq	%rbx
	.cfi_def_cfa_offset 40
	.cfi_offset 3, -40
	movq	%rdi, %rbx
	subq	$8, %rsp
	.cfi_def_cfa_offset 48
	movq	_ZTVN8asiodnp39IOHandlerE@GOTPCREL(%rip), %rax
	movups	%xmm0, 16(%rdi)
	leaq	104(%rax), %rcx
	addq	$16, %rax
	movq	%rax, %xmm0
	movq	(%rsi), %rax
	movq	%rcx, %xmm1
	punpcklqdq	%xmm1, %xmm0
	movq	%rax, 32(%rdi)
	movq	8(%rsi), %rax
	movups	%xmm0, (%rdi)
	movq	%rax, 40(%rdi)
	testq	%rax, %rax
	je	.L936
	cmpq	$0, _ZL28__gthrw___pthread_key_createPjPFvPvE@GOTPCREL(%rip)
	je	.L937
	lock addl	$1, 8(%rax)
.L936:
	movq	16(%r12), %rax
	movq	%rax, 48(%rbx)
	movq	24(%r12), %rax
	movq	%rax, 56(%rbx)
	testq	%rax, %rax
	je	.L938
	cmpq	$0, _ZL28__gthrw___pthread_key_createPjPFvPvE@GOTPCREL(%rip)
	je	.L939
	lock addl	$1, 8(%rax)
.L938:
	movq	(%rdx), %rax
	movq	%rax, 64(%rbx)
	movq	8(%rdx), %rax
	movq	%rax, 72(%rbx)
	testq	%rax, %rax
	je	.L940
	cmpq	$0, _ZL28__gthrw___pthread_key_createPjPFvPvE@GOTPCREL(%rip)
	je	.L941
	lock addl	$1, 8(%rax)
.L940:
	pxor	%xmm0, %xmm0
	movb	$0, 104(%rbx)
	movl	$64, %edi
	movq	$0, 96(%rbx)
	movq	$8, 144(%rbx)
	movups	%xmm0, 80(%rbx)
	pxor	%xmm0, %xmm0
	movups	%xmm0, 112(%rbx)
	movups	%xmm0, 128(%rbx)
	movups	%xmm0, 152(%rbx)
	movups	%xmm0, 168(%rbx)
	movups	%xmm0, 184(%rbx)
	movups	%xmm0, 200(%rbx)
.LEHB27:
	call	_Znwm@PLT
.LEHE27:
	movq	144(%rbx), %rdx
	movq	%rax, 136(%rbx)
	movl	$512, %edi
	leaq	-4(,%rdx,4), %rbp
	andq	$-8, %rbp
	addq	%rax, %rbp
.LEHB28:
	call	_Znwm@PLT
.LEHE28:
	leaq	512(%rax), %rdx
	movq	%rax, 0(%rbp)
	movq	%r12, %rsi
	movq	%rax, %xmm0
	movq	%rbp, 176(%rbx)
	punpcklqdq	%xmm0, %xmm0
	movq	%rbp, 208(%rbx)
	leaq	216(%rbx), %rbp
	movq	%rdx, 168(%rbx)
	movq	%rbp, %rdi
	movq	%rax, 192(%rbx)
	movq	%rdx, 200(%rbx)
	movq	%rax, 184(%rbx)
	movups	%xmm0, 152(%rbx)
.LEHB29:
	call	_ZN8opendnp315LinkLayerParserC1ERKN7openpal6LoggerE@PLT
.LEHE29:
	pxor	%xmm0, %xmm0
	leaq	648(%rbx), %rdi
	movups	%xmm0, 632(%rbx)
.LEHB30:
	call	_ZN8opendnp317MultidropTaskLockC1Ev@PLT
.LEHE30:
	addq	$8, %rsp
	.cfi_remember_state
	.cfi_def_cfa_offset 40
	popq	%rbx
	.cfi_def_cfa_offset 32
	popq	%rbp
	.cfi_def_cfa_offset 24
	popq	%r12
	.cfi_def_cfa_offset 16
	popq	%r13
	.cfi_def_cfa_offset 8
	ret
	.p2align 4,,10
	.p2align 3
.L939:
	.cfi_restore_state
	addl	$1, 8(%rax)
	jmp	.L938
	.p2align 4,,10
	.p2align 3
.L937:
	addl	$1, 8(%rax)
	jmp	.L936
	.p2align 4,,10
	.p2align 3
.L941:
	addl	$1, 8(%rax)
	jmp	.L940
.L962:
	endbr64
	movq	%rax, %r12
	jmp	.L947
.L960:
	endbr64
	movq	%rax, %rbp
	jmp	.L946
.L961:
	endbr64
	movq	%rax, %rbp
	jmp	.L949
.L965:
	endbr64
	movq	%rax, %rdi
	jmp	.L943
	.section	.gcc_except_table
	.align 4
.LLSDA7595:
	.byte	0xff
	.byte	0x9b
	.uleb128 .LLSDATT7595-.LLSDATTD7595
.LLSDATTD7595:
	.byte	0x1
	.uleb128 .LLSDACSE7595-.LLSDACSB7595
.LLSDACSB7595:
	.uleb128 .LEHB27-.LFB7595
	.uleb128 .LEHE27-.LEHB27
	.uleb128 .L960-.LFB7595
	.uleb128 0
	.uleb128 .LEHB28-.LFB7595
	.uleb128 .LEHE28-.LEHB28
	.uleb128 .L965-.LFB7595
	.uleb128 0x1
	.uleb128 .LEHB29-.LFB7595
	.uleb128 .LEHE29-.LEHB29
	.uleb128 .L961-.LFB7595
	.uleb128 0
	.uleb128 .LEHB30-.LFB7595
	.uleb128 .LEHE30-.LEHB30
	.uleb128 .L962-.LFB7595
	.uleb128 0
.LLSDACSE7595:
	.byte	0x1
	.byte	0
	.align 4
	.long	0

.LLSDATT7595:
	.text
	.cfi_endproc
	.section	.text.unlikely
	.cfi_startproc
	.cfi_personality 0x9b,DW.ref.__gxx_personality_v0
	.cfi_lsda 0x1b,.LLSDAC7595
	.type	_ZN8asiodnp39IOHandlerC2ERKN7openpal6LoggerERKSt10shared_ptrINS_16IChannelListenerEE.cold, @function
_ZN8asiodnp39IOHandlerC2ERKN7openpal6LoggerERKSt10shared_ptrINS_16IChannelListenerEE.cold:
.LFSB7595:
.L947:
	.cfi_def_cfa_offset 48
	.cfi_offset 3, -40
	.cfi_offset 6, -32
	.cfi_offset 12, -24
	.cfi_offset 13, -16
	movq	640(%rbx), %rdi
	testq	%rdi, %rdi
	je	.L948
	call	_ZNSt16_Sp_counted_baseILN9__gnu_cxx12_Lock_policyE2EE10_M_releaseEv@PLT
.L948:
	movq	%rbp, %rdi
	movq	%r12, %rbp
	call	_ZN7openpal6LoggerD1Ev@PLT
.L949:
	leaq	136(%rbx), %rdi
	call	_ZNSt5dequeIN8asiodnp39IOHandler12TransmissionESaIS2_EED1Ev@PLT
.L946:
	movq	120(%rbx), %r13
	movq	112(%rbx), %r12
.L952:
	cmpq	%r12, %r13
	jne	.L990
	movq	112(%rbx), %rdi
	testq	%rdi, %rdi
	je	.L953
	call	_ZdlPv@PLT
.L953:
	movq	72(%rbx), %rdi
	testq	%rdi, %rdi
	je	.L954
	call	_ZNSt16_Sp_counted_baseILN9__gnu_cxx12_Lock_policyE2EE10_M_releaseEv@PLT
.L954:
	leaq	32(%rbx), %rdi
	call	_ZN7openpal6LoggerD1Ev@PLT
	movq	24(%rbx), %rdi
	testq	%rdi, %rdi
	je	.L956
	cmpq	$0, _ZL28__gthrw___pthread_key_createPjPFvPvE@GOTPCREL(%rip)
	leaq	12(%rdi), %rdx
	je	.L957
	orl	$-1, %eax
	lock xaddl	%eax, (%rdx)
.L958:
	subl	$1, %eax
	jne	.L956
	movq	(%rdi), %rax
	call	*24(%rax)
.L956:
	movq	%rbp, %rdi
.LEHB31:
	call	_Unwind_Resume@PLT
.LEHE31:
.L943:
	call	__cxa_begin_catch@PLT
.LEHB32:
	call	__cxa_rethrow@PLT
.LEHE32:
.L990:
	movq	16(%r12), %rdi
	testq	%rdi, %rdi
	je	.L951
	call	_ZNSt16_Sp_counted_baseILN9__gnu_cxx12_Lock_policyE2EE10_M_releaseEv@PLT
.L951:
	addq	$24, %r12
	jmp	.L952
.L964:
	endbr64
	movq	%rax, %rbp
	call	__cxa_end_catch@PLT
	movq	%rbp, %rdi
	call	__cxa_begin_catch@PLT
	movq	136(%rbx), %rdi
	call	_ZdlPv@PLT
	movq	$0, 136(%rbx)
	movq	$0, 144(%rbx)
.LEHB33:
	call	__cxa_rethrow@PLT
.LEHE33:
.L963:
	endbr64
	movq	%rax, %rbp
	call	__cxa_end_catch@PLT
	jmp	.L946
.L957:
	movl	12(%rdi), %eax
	leal	-1(%rax), %edx
	movl	%edx, 12(%rdi)
	jmp	.L958
	.cfi_endproc
.LFE7595:
	.section	.gcc_except_table
	.align 4
.LLSDAC7595:
	.byte	0xff
	.byte	0x9b
	.uleb128 .LLSDATTC7595-.LLSDATTDC7595
.LLSDATTDC7595:
	.byte	0x1
	.uleb128 .LLSDACSEC7595-.LLSDACSBC7595
.LLSDACSBC7595:
	.uleb128 .LEHB31-.LCOLDB33
	.uleb128 .LEHE31-.LEHB31
	.uleb128 0
	.uleb128 0
	.uleb128 .LEHB32-.LCOLDB33
	.uleb128 .LEHE32-.LEHB32
	.uleb128 .L964-.LCOLDB33
	.uleb128 0x1
	.uleb128 .LEHB33-.LCOLDB33
	.uleb128 .LEHE33-.LEHB33
	.uleb128 .L963-.LCOLDB33
	.uleb128 0
.LLSDACSEC7595:
	.byte	0x1
	.byte	0
	.align 4
	.long	0

.LLSDATTC7595:
	.section	.text.unlikely
	.text
	.size	_ZN8asiodnp39IOHandlerC2ERKN7openpal6LoggerERKSt10shared_ptrINS_16IChannelListenerEE, .-_ZN8asiodnp39IOHandlerC2ERKN7openpal6LoggerERKSt10shared_ptrINS_16IChannelListenerEE
	.section	.text.unlikely
	.size	_ZN8asiodnp39IOHandlerC2ERKN7openpal6LoggerERKSt10shared_ptrINS_16IChannelListenerEE.cold, .-_ZN8asiodnp39IOHandlerC2ERKN7openpal6LoggerERKSt10shared_ptrINS_16IChannelListenerEE.cold
.LCOLDE33:
	.text
.LHOTE33:
	.globl	_ZN8asiodnp39IOHandlerC1ERKN7openpal6LoggerERKSt10shared_ptrINS_16IChannelListenerEE
	.set	_ZN8asiodnp39IOHandlerC1ERKN7openpal6LoggerERKSt10shared_ptrINS_16IChannelListenerEE,_ZN8asiodnp39IOHandlerC2ERKN7openpal6LoggerERKSt10shared_ptrINS_16IChannelListenerEE
	.section	.rodata._ZNSt5dequeIN8asiodnp39IOHandler12TransmissionESaIS2_EE16_M_push_back_auxIJS2_EEEvDpOT_.str1.8,"aMS",@progbits,1
	.align 8
.LC34:
	.string	"cannot create std::deque larger than max_size()"
	.section	.text._ZNSt5dequeIN8asiodnp39IOHandler12TransmissionESaIS2_EE16_M_push_back_auxIJS2_EEEvDpOT_,"axG",@progbits,_ZNSt5dequeIN8asiodnp39IOHandler12TransmissionESaIS2_EE16_M_push_back_auxIJS2_EEEvDpOT_,comdat
	.align 2
	.p2align 4
	.weak	_ZNSt5dequeIN8asiodnp39IOHandler12TransmissionESaIS2_EE16_M_push_back_auxIJS2_EEEvDpOT_
	.type	_ZNSt5dequeIN8asiodnp39IOHandler12TransmissionESaIS2_EE16_M_push_back_auxIJS2_EEEvDpOT_, @function
_ZNSt5dequeIN8asiodnp39IOHandler12TransmissionESaIS2_EE16_M_push_back_auxIJS2_EEEvDpOT_:
.LFB9290:
	.cfi_startproc
	endbr64
	pushq	%r15
	.cfi_def_cfa_offset 16
	.cfi_offset 15, -16
	pushq	%r14
	.cfi_def_cfa_offset 24
	.cfi_offset 14, -24
	pushq	%r13
	.cfi_def_cfa_offset 32
	.cfi_offset 13, -32
	pushq	%r12
	.cfi_def_cfa_offset 40
	.cfi_offset 12, -40
	pushq	%rbp
	.cfi_def_cfa_offset 48
	.cfi_offset 6, -48
	movq	%rsi, %rbp
	pushq	%rbx
	.cfi_def_cfa_offset 56
	.cfi_offset 3, -56
	movq	%rdi, %rbx
	subq	$8, %rsp
	.cfi_def_cfa_offset 64
	movq	72(%rdi), %r13
	movq	40(%rdi), %rsi
	movq	48(%rbx), %rdx
	subq	56(%rbx), %rdx
	movq	%r13, %r12
	movq	%rdx, %rcx
	subq	%rsi, %r12
	sarq	$5, %rcx
	movq	%r12, %rdi
	sarq	$3, %rdi
	leaq	-1(%rdi), %rax
	salq	$4, %rax
	leaq	(%rcx,%rax), %rdx
	movq	32(%rbx), %rax
	subq	16(%rbx), %rax
	sarq	$5, %rax
	addq	%rdx, %rax
	movabsq	$288230376151711743, %rdx
	cmpq	%rdx, %rax
	je	.L1000
	movq	(%rbx), %rcx
	movq	8(%rbx), %rdx
	movq	%r13, %rax
	subq	%rcx, %rax
	movq	%rdx, %r8
	sarq	$3, %rax
	subq	%rax, %r8
	cmpq	$1, %r8
	jbe	.L1001
.L993:
	movl	$512, %edi
	call	_Znwm@PLT
	movq	16(%rbp), %rdx
	movdqu	0(%rbp), %xmm1
	pxor	%xmm0, %xmm0
	movq	%rax, 8(%r13)
	movq	48(%rbx), %rax
	movq	$0, 24(%rax)
	movq	%rdx, 16(%rax)
	movq	24(%rbp), %rdx
	movups	%xmm1, (%rax)
	movq	%rdx, 24(%rax)
	movups	%xmm0, 16(%rbp)
	movq	72(%rbx), %rdx
	movq	8(%rdx), %rax
	addq	$8, %rdx
	movq	%rdx, %xmm2
	movq	%rax, %xmm0
	addq	$512, %rax
	punpcklqdq	%xmm0, %xmm0
	movups	%xmm0, 48(%rbx)
	movq	%rax, %xmm0
	punpcklqdq	%xmm2, %xmm0
	movups	%xmm0, 64(%rbx)
	addq	$8, %rsp
	.cfi_remember_state
	.cfi_def_cfa_offset 56
	popq	%rbx
	.cfi_def_cfa_offset 48
	popq	%rbp
	.cfi_def_cfa_offset 40
	popq	%r12
	.cfi_def_cfa_offset 32
	popq	%r13
	.cfi_def_cfa_offset 24
	popq	%r14
	.cfi_def_cfa_offset 16
	popq	%r15
	.cfi_def_cfa_offset 8
	ret
	.p2align 4,,10
	.p2align 3
.L1001:
	.cfi_restore_state
	leaq	2(%rdi), %r14
	leaq	(%r14,%r14), %rax
	cmpq	%rax, %rdx
	ja	.L1002
	testq	%rdx, %rdx
	movl	$1, %eax
	cmovne	%rdx, %rax
	leaq	2(%rdx,%rax), %r13
	movabsq	$1152921504606846975, %rax
	cmpq	%rax, %r13
	ja	.L1003
	leaq	0(,%r13,8), %rdi
	call	_Znwm@PLT
	movq	40(%rbx), %rsi
	movq	%rax, %r15
	movq	%r13, %rax
	subq	%r14, %rax
	shrq	%rax
	leaq	(%r15,%rax,8), %r14
	movq	72(%rbx), %rax
	leaq	8(%rax), %rdx
	cmpq	%rsi, %rdx
	je	.L998
	subq	%rsi, %rdx
	movq	%r14, %rdi
	call	memmove@PLT
.L998:
	movq	(%rbx), %rdi
	call	_ZdlPv@PLT
	movq	%r15, (%rbx)
	movq	%r13, 8(%rbx)
.L996:
	movq	(%r14), %rax
	movq	(%r14), %xmm0
	leaq	(%r14,%r12), %r13
	movq	%r14, 40(%rbx)
	movq	%r13, 72(%rbx)
	addq	$512, %rax
	movq	%rax, %xmm3
	punpcklqdq	%xmm3, %xmm0
	movups	%xmm0, 24(%rbx)
	movq	0(%r13), %rax
	movq	%rax, 56(%rbx)
	addq	$512, %rax
	movq	%rax, 64(%rbx)
	jmp	.L993
	.p2align 4,,10
	.p2align 3
.L1002:
	subq	%r14, %rdx
	addq	$8, %r13
	shrq	%rdx
	leaq	(%rcx,%rdx,8), %r14
	movq	%r13, %rdx
	subq	%rsi, %rdx
	cmpq	%r14, %rsi
	jbe	.L995
	cmpq	%r13, %rsi
	je	.L996
	movq	%r14, %rdi
	call	memmove@PLT
	jmp	.L996
	.p2align 4,,10
	.p2align 3
.L995:
	cmpq	%r13, %rsi
	je	.L996
	leaq	8(%r12), %rdi
	subq	%rdx, %rdi
	addq	%r14, %rdi
	call	memmove@PLT
	jmp	.L996
.L1000:
	leaq	.LC34(%rip), %rdi
	call	_ZSt20__throw_length_errorPKc@PLT
.L1003:
	call	_ZSt17__throw_bad_allocv@PLT
	.cfi_endproc
.LFE9290:
	.size	_ZNSt5dequeIN8asiodnp39IOHandler12TransmissionESaIS2_EE16_M_push_back_auxIJS2_EEEvDpOT_, .-_ZNSt5dequeIN8asiodnp39IOHandler12TransmissionESaIS2_EE16_M_push_back_auxIJS2_EEEvDpOT_
	.section	.rodata.str1.8
	.align 8
.LC35:
	.string	"Router received transmit request while offline"
	.align 8
.LC36:
	.string	"/home/kimchaer/Desktop/OpenPLC_v3/utils/dnp3_src/cpp/libs/src/asiodnp3/IOHandler.cpp(114)"
	.section	.text.unlikely
	.align 2
.LCOLDB37:
	.text
.LHOTB37:
	.align 2
	.p2align 4
	.globl	_ZN8asiodnp39IOHandler13BeginTransmitERKSt10shared_ptrIN8opendnp312ILinkSessionEERKN7openpal6RSliceE
	.type	_ZN8asiodnp39IOHandler13BeginTransmitERKSt10shared_ptrIN8opendnp312ILinkSessionEERKN7openpal6RSliceE, @function
_ZN8asiodnp39IOHandler13BeginTransmitERKSt10shared_ptrIN8opendnp312ILinkSessionEERKN7openpal6RSliceE:
.LFB7600:
	.cfi_startproc
	.cfi_personality 0x9b,DW.ref.__gxx_personality_v0
	.cfi_lsda 0x1b,.LLSDA7600
	endbr64
	pushq	%r12
	.cfi_def_cfa_offset 16
	.cfi_offset 12, -16
	pushq	%rbp
	.cfi_def_cfa_offset 24
	.cfi_offset 6, -24
	movq	%rdi, %rbp
	pushq	%rbx
	.cfi_def_cfa_offset 32
	.cfi_offset 3, -32
	subq	$48, %rsp
	.cfi_def_cfa_offset 80
	movq	%fs:40, %rax
	movq	%rax, 40(%rsp)
	xorl	%eax, %eax
	cmpq	$0, 632(%rdi)
	je	.L1005
	movdqu	(%rdx), %xmm1
	movdqu	(%rsi), %xmm2
	movq	8(%rsi), %rax
	movaps	%xmm1, (%rsp)
	movaps	%xmm2, 16(%rsp)
	testq	%rax, %rax
	je	.L1006
	cmpq	$0, _ZL28__gthrw___pthread_key_createPjPFvPvE@GOTPCREL(%rip)
	je	.L1007
	lock addl	$1, 8(%rax)
.L1006:
	movq	200(%rbp), %rcx
	movq	184(%rbp), %rax
	leaq	-32(%rcx), %rdx
	cmpq	%rdx, %rax
	je	.L1008
	movq	16(%rsp), %rdx
	movdqa	(%rsp), %xmm3
	addq	$32, %rax
	pxor	%xmm0, %xmm0
	movq	$0, -8(%rax)
	movq	%rdx, -16(%rax)
	movq	24(%rsp), %rdx
	movups	%xmm3, -32(%rax)
	movq	%rdx, -8(%rax)
	movq	%rax, 184(%rbp)
	movaps	%xmm0, 16(%rsp)
.L1009:
	movq	24(%rsp), %r12
	testq	%r12, %r12
	je	.L1011
	movq	_ZL28__gthrw___pthread_key_createPjPFvPvE@GOTPCREL(%rip), %rbx
	testq	%rbx, %rbx
	je	.L1012
	movl	$-1, %eax
	lock xaddl	%eax, 8(%r12)
.L1013:
	cmpl	$1, %eax
	je	.L1032
.L1011:
	movq	%rbp, %rdi
.LEHB34:
	call	_ZN8asiodnp39IOHandler12CheckForSendEv@PLT
.L1004:
	movq	40(%rsp), %rax
	xorq	%fs:40, %rax
	jne	.L1033
	addq	$48, %rsp
	.cfi_remember_state
	.cfi_def_cfa_offset 32
	popq	%rbx
	.cfi_def_cfa_offset 24
	popq	%rbp
	.cfi_def_cfa_offset 16
	popq	%r12
	.cfi_def_cfa_offset 8
	ret
	.p2align 4,,10
	.p2align 3
.L1005:
	.cfi_restore_state
	addq	$32, %rbp
	movq	%rsp, %r12
	movl	$2, (%rsp)
	movq	%r12, %rsi
	movq	%rbp, %rdi
	call	_ZNK7openpal6Logger9IsEnabledERKNS_10LogFiltersE@PLT
	testb	%al, %al
	je	.L1004
	leaq	.LC35(%rip), %rcx
	leaq	.LC36(%rip), %rdx
	movq	%r12, %rsi
	movq	%rbp, %rdi
	movl	$2, (%rsp)
	call	_ZN7openpal6Logger3LogERKNS_10LogFiltersEPKcS5_@PLT
.LEHE34:
	jmp	.L1004
	.p2align 4,,10
	.p2align 3
.L1007:
	addl	$1, 8(%rax)
	jmp	.L1006
	.p2align 4,,10
	.p2align 3
.L1032:
	movq	(%r12), %rax
	movq	%r12, %rdi
	call	*16(%rax)
	testq	%rbx, %rbx
	je	.L1015
	movl	$-1, %eax
	lock xaddl	%eax, 12(%r12)
.L1016:
	cmpl	$1, %eax
	jne	.L1011
	movq	(%r12), %rax
	movq	%r12, %rdi
	call	*24(%rax)
	jmp	.L1011
	.p2align 4,,10
	.p2align 3
.L1012:
	movl	8(%r12), %eax
	leal	-1(%rax), %edx
	movl	%edx, 8(%r12)
	jmp	.L1013
	.p2align 4,,10
	.p2align 3
.L1008:
	movq	%rsp, %rsi
	leaq	136(%rbp), %rdi
.LEHB35:
	call	_ZNSt5dequeIN8asiodnp39IOHandler12TransmissionESaIS2_EE16_M_push_back_auxIJS2_EEEvDpOT_@PLT
.LEHE35:
	jmp	.L1009
	.p2align 4,,10
	.p2align 3
.L1015:
	movl	12(%r12), %eax
	leal	-1(%rax), %edx
	movl	%edx, 12(%r12)
	jmp	.L1016
.L1033:
	call	__stack_chk_fail@PLT
.L1021:
	endbr64
	movq	%rax, %rbp
	jmp	.L1018
	.section	.gcc_except_table
.LLSDA7600:
	.byte	0xff
	.byte	0xff
	.byte	0x1
	.uleb128 .LLSDACSE7600-.LLSDACSB7600
.LLSDACSB7600:
	.uleb128 .LEHB34-.LFB7600
	.uleb128 .LEHE34-.LEHB34
	.uleb128 0
	.uleb128 0
	.uleb128 .LEHB35-.LFB7600
	.uleb128 .LEHE35-.LEHB35
	.uleb128 .L1021-.LFB7600
	.uleb128 0
.LLSDACSE7600:
	.text
	.cfi_endproc
	.section	.text.unlikely
	.cfi_startproc
	.cfi_personality 0x9b,DW.ref.__gxx_personality_v0
	.cfi_lsda 0x1b,.LLSDAC7600
	.type	_ZN8asiodnp39IOHandler13BeginTransmitERKSt10shared_ptrIN8opendnp312ILinkSessionEERKN7openpal6RSliceE.cold, @function
_ZN8asiodnp39IOHandler13BeginTransmitERKSt10shared_ptrIN8opendnp312ILinkSessionEERKN7openpal6RSliceE.cold:
.LFSB7600:
.L1018:
	.cfi_def_cfa_offset 80
	.cfi_offset 3, -32
	.cfi_offset 6, -24
	.cfi_offset 12, -16
	movq	24(%rsp), %rdi
	testq	%rdi, %rdi
	je	.L1019
	call	_ZNSt16_Sp_counted_baseILN9__gnu_cxx12_Lock_policyE2EE10_M_releaseEv@PLT
.L1019:
	movq	%rbp, %rdi
.LEHB36:
	call	_Unwind_Resume@PLT
.LEHE36:
	.cfi_endproc
.LFE7600:
	.section	.gcc_except_table
.LLSDAC7600:
	.byte	0xff
	.byte	0xff
	.byte	0x1
	.uleb128 .LLSDACSEC7600-.LLSDACSBC7600
.LLSDACSBC7600:
	.uleb128 .LEHB36-.LCOLDB37
	.uleb128 .LEHE36-.LEHB36
	.uleb128 0
	.uleb128 0
.LLSDACSEC7600:
	.section	.text.unlikely
	.text
	.size	_ZN8asiodnp39IOHandler13BeginTransmitERKSt10shared_ptrIN8opendnp312ILinkSessionEERKN7openpal6RSliceE, .-_ZN8asiodnp39IOHandler13BeginTransmitERKSt10shared_ptrIN8opendnp312ILinkSessionEERKN7openpal6RSliceE
	.section	.text.unlikely
	.size	_ZN8asiodnp39IOHandler13BeginTransmitERKSt10shared_ptrIN8opendnp312ILinkSessionEERKN7openpal6RSliceE.cold, .-_ZN8asiodnp39IOHandler13BeginTransmitERKSt10shared_ptrIN8opendnp312ILinkSessionEERKN7openpal6RSliceE.cold
.LCOLDE37:
	.text
.LHOTE37:
	.section	.rodata._ZNSt6vectorIN8asiodnp39IOHandler7SessionESaIS2_EE17_M_realloc_insertIJS2_EEEvN9__gnu_cxx17__normal_iteratorIPS2_S4_EEDpOT_.str1.1,"aMS",@progbits,1
.LC38:
	.string	"vector::_M_realloc_insert"
	.section	.text._ZNSt6vectorIN8asiodnp39IOHandler7SessionESaIS2_EE17_M_realloc_insertIJS2_EEEvN9__gnu_cxx17__normal_iteratorIPS2_S4_EEDpOT_,"axG",@progbits,_ZNSt6vectorIN8asiodnp39IOHandler7SessionESaIS2_EE17_M_realloc_insertIJS2_EEEvN9__gnu_cxx17__normal_iteratorIPS2_S4_EEDpOT_,comdat
	.align 2
	.p2align 4
	.weak	_ZNSt6vectorIN8asiodnp39IOHandler7SessionESaIS2_EE17_M_realloc_insertIJS2_EEEvN9__gnu_cxx17__normal_iteratorIPS2_S4_EEDpOT_
	.type	_ZNSt6vectorIN8asiodnp39IOHandler7SessionESaIS2_EE17_M_realloc_insertIJS2_EEEvN9__gnu_cxx17__normal_iteratorIPS2_S4_EEDpOT_, @function
_ZNSt6vectorIN8asiodnp39IOHandler7SessionESaIS2_EE17_M_realloc_insertIJS2_EEEvN9__gnu_cxx17__normal_iteratorIPS2_S4_EEDpOT_:
.LFB9292:
	.cfi_startproc
	endbr64
	pushq	%r15
	.cfi_def_cfa_offset 16
	.cfi_offset 15, -16
	pushq	%r14
	.cfi_def_cfa_offset 24
	.cfi_offset 14, -24
	pushq	%r13
	.cfi_def_cfa_offset 32
	.cfi_offset 13, -32
	pushq	%r12
	.cfi_def_cfa_offset 40
	.cfi_offset 12, -40
	pushq	%rbp
	.cfi_def_cfa_offset 48
	.cfi_offset 6, -48
	pushq	%rbx
	.cfi_def_cfa_offset 56
	.cfi_offset 3, -56
	movq	%rdx, %rbx
	movabsq	$-6148914691236517205, %rdx
	subq	$40, %rsp
	.cfi_def_cfa_offset 96
	movq	8(%rdi), %r12
	movq	(%rdi), %r15
	movq	%r12, %rax
	subq	%r15, %rax
	sarq	$3, %rax
	imulq	%rdx, %rax
	movabsq	$384307168202282325, %rdx
	cmpq	%rdx, %rax
	je	.L1060
	movq	%rsi, %r14
	movq	%rdi, %r13
	subq	%r15, %rsi
	testq	%rax, %rax
	je	.L1051
	movabsq	$9223372036854775800, %rbp
	leaq	(%rax,%rax), %rcx
	cmpq	%rcx, %rax
	jbe	.L1061
.L1036:
	movq	%rbp, %rdi
	movq	%rsi, 16(%rsp)
	call	_Znwm@PLT
	movq	16(%rsp), %rsi
	movq	%rax, 8(%rsp)
	addq	%rax, %rbp
	movq	%rbp, 24(%rsp)
	leaq	24(%rax), %rbp
.L1050:
	movq	8(%rsp), %rdi
	movzbl	(%rbx), %edx
	pxor	%xmm0, %xmm0
	movdqu	8(%rbx), %xmm2
	movups	%xmm0, 8(%rbx)
	leaq	(%rdi,%rsi), %rax
	movb	%dl, (%rax)
	movl	2(%rbx), %edx
	movups	%xmm2, 8(%rax)
	movl	%edx, 2(%rax)
	movzbl	6(%rbx), %edx
	movb	%dl, 6(%rax)
	cmpq	%r15, %r14
	je	.L1038
	movq	%rdi, %rbp
	movq	%r15, %rbx
	jmp	.L1046
	.p2align 4,,10
	.p2align 3
.L1064:
	movl	$-1, %eax
	lock xaddl	%eax, 8(%rdi)
	cmpl	$1, %eax
	je	.L1062
.L1040:
	addq	$24, %rbx
	addq	$24, %rbp
	cmpq	%rbx, %r14
	je	.L1063
.L1046:
	movzbl	(%rbx), %eax
	movb	%al, 0(%rbp)
	movl	2(%rbx), %eax
	movl	%eax, 2(%rbp)
	movzbl	6(%rbx), %eax
	movb	%al, 6(%rbp)
	movq	8(%rbx), %rax
	movq	$0, 16(%rbp)
	movq	%rax, 8(%rbp)
	movq	16(%rbx), %rax
	movq	%rax, 16(%rbp)
	movups	%xmm0, 8(%rbx)
	movq	16(%rbx), %rdi
	testq	%rdi, %rdi
	je	.L1040
	cmpq	$0, _ZL28__gthrw___pthread_key_createPjPFvPvE@GOTPCREL(%rip)
	jne	.L1064
	movl	8(%rdi), %eax
	leal	-1(%rax), %edx
	movl	%edx, 8(%rdi)
	cmpl	$1, %eax
	jne	.L1040
.L1062:
	movq	(%rdi), %rax
	movq	%rdi, 16(%rsp)
	call	*16(%rax)
	cmpq	$0, _ZL28__gthrw___pthread_key_createPjPFvPvE@GOTPCREL(%rip)
	movq	16(%rsp), %rdi
	pxor	%xmm0, %xmm0
	je	.L1044
	movl	$-1, %eax
	lock xaddl	%eax, 12(%rdi)
.L1045:
	cmpl	$1, %eax
	jne	.L1040
	movq	(%rdi), %rax
	addq	$24, %rbx
	addq	$24, %rbp
	call	*24(%rax)
	pxor	%xmm0, %xmm0
	cmpq	%rbx, %r14
	jne	.L1046
	.p2align 4,,10
	.p2align 3
.L1063:
	leaq	-24(%r14), %rax
	movq	8(%rsp), %rsi
	subq	%r15, %rax
	shrq	$3, %rax
	leaq	48(%rsi,%rax,8), %rbp
.L1038:
	cmpq	%r12, %r14
	je	.L1047
	movq	%r14, %rax
	movq	%rbp, %rdx
	.p2align 4,,10
	.p2align 3
.L1048:
	movzbl	(%rax), %ecx
	movdqu	8(%rax), %xmm1
	addq	$24, %rax
	addq	$24, %rdx
	movb	%cl, -24(%rdx)
	movl	-22(%rax), %ecx
	movups	%xmm1, -16(%rdx)
	movl	%ecx, -22(%rdx)
	movzbl	-18(%rax), %ecx
	movb	%cl, -18(%rdx)
	cmpq	%r12, %rax
	jne	.L1048
	subq	%r14, %rax
	subq	$24, %rax
	shrq	$3, %rax
	leaq	24(%rbp,%rax,8), %rbp
.L1047:
	testq	%r15, %r15
	je	.L1049
	movq	%r15, %rdi
	call	_ZdlPv@PLT
.L1049:
	movq	8(%rsp), %xmm0
	movq	24(%rsp), %rax
	movq	%rbp, %xmm3
	punpcklqdq	%xmm3, %xmm0
	movq	%rax, 16(%r13)
	movups	%xmm0, 0(%r13)
	addq	$40, %rsp
	.cfi_remember_state
	.cfi_def_cfa_offset 56
	popq	%rbx
	.cfi_def_cfa_offset 48
	popq	%rbp
	.cfi_def_cfa_offset 40
	popq	%r12
	.cfi_def_cfa_offset 32
	popq	%r13
	.cfi_def_cfa_offset 24
	popq	%r14
	.cfi_def_cfa_offset 16
	popq	%r15
	.cfi_def_cfa_offset 8
	ret
	.p2align 4,,10
	.p2align 3
.L1044:
	.cfi_restore_state
	movl	12(%rdi), %eax
	leal	-1(%rax), %edx
	movl	%edx, 12(%rdi)
	jmp	.L1045
	.p2align 4,,10
	.p2align 3
.L1061:
	testq	%rcx, %rcx
	jne	.L1037
	movq	$0, 24(%rsp)
	movl	$24, %ebp
	movq	$0, 8(%rsp)
	jmp	.L1050
	.p2align 4,,10
	.p2align 3
.L1051:
	movl	$24, %ebp
	jmp	.L1036
.L1037:
	cmpq	%rdx, %rcx
	movq	%rdx, %rax
	cmovbe	%rcx, %rax
	imulq	$24, %rax, %rbp
	jmp	.L1036
.L1060:
	leaq	.LC38(%rip), %rdi
	call	_ZSt20__throw_length_errorPKc@PLT
	.cfi_endproc
.LFE9292:
	.size	_ZNSt6vectorIN8asiodnp39IOHandler7SessionESaIS2_EE17_M_realloc_insertIJS2_EEEvN9__gnu_cxx17__normal_iteratorIPS2_S4_EEDpOT_, .-_ZNSt6vectorIN8asiodnp39IOHandler7SessionESaIS2_EE17_M_realloc_insertIJS2_EEEvN9__gnu_cxx17__normal_iteratorIPS2_S4_EEDpOT_
	.section	.rodata.str1.8
	.align 8
.LC39:
	.string	"Route already in use: %u -> %u"
	.align 8
.LC40:
	.string	"/home/kimchaer/Desktop/OpenPLC_v3/utils/dnp3_src/cpp/libs/src/asiodnp3/IOHandler.cpp(122)"
	.section	.rodata.str1.1,"aMS",@progbits,1
.LC41:
	.string	"Context cannot be bound 2x"
	.section	.rodata.str1.8
	.align 8
.LC42:
	.string	"/home/kimchaer/Desktop/OpenPLC_v3/utils/dnp3_src/cpp/libs/src/asiodnp3/IOHandler.cpp(128)"
	.section	.text.unlikely
	.align 2
.LCOLDB43:
	.text
.LHOTB43:
	.align 2
	.p2align 4
	.globl	_ZN8asiodnp39IOHandler10AddContextERKSt10shared_ptrIN8opendnp312ILinkSessionEERKNS2_5RouteE
	.type	_ZN8asiodnp39IOHandler10AddContextERKSt10shared_ptrIN8opendnp312ILinkSessionEERKNS2_5RouteE, @function
_ZN8asiodnp39IOHandler10AddContextERKSt10shared_ptrIN8opendnp312ILinkSessionEERKNS2_5RouteE:
.LFB7604:
	.cfi_startproc
	.cfi_personality 0x9b,DW.ref.__gxx_personality_v0
	.cfi_lsda 0x1b,.LLSDA7604
	endbr64
	pushq	%r14
	.cfi_def_cfa_offset 16
	.cfi_offset 14, -16
	pushq	%r13
	.cfi_def_cfa_offset 24
	.cfi_offset 13, -24
	movq	%rdx, %r13
	pushq	%r12
	.cfi_def_cfa_offset 32
	.cfi_offset 12, -32
	pushq	%rbp
	.cfi_def_cfa_offset 40
	.cfi_offset 6, -40
	movq	%rsi, %rbp
	movq	%rdx, %rsi
	pushq	%rbx
	.cfi_def_cfa_offset 48
	.cfi_offset 3, -48
	movq	%rdi, %rbx
	subq	$160, %rsp
	.cfi_def_cfa_offset 208
	movq	%fs:40, %rax
	movq	%rax, 152(%rsp)
	xorl	%eax, %eax
.LEHB37:
	call	_ZNK8asiodnp39IOHandler12IsRouteInUseERKN8opendnp35RouteE@PLT
	testb	%al, %al
	jne	.L1097
	movq	%rbp, %rsi
	movq	%rbx, %rdi
	movl	%eax, %r12d
	call	_ZNK8asiodnp39IOHandler14IsSessionInUseERKSt10shared_ptrIN8opendnp312ILinkSessionEE@PLT
	testb	%al, %al
	jne	.L1098
	movl	0(%r13), %eax
	movdqu	0(%rbp), %xmm1
	movb	$0, (%rsp)
	movb	$0, 6(%rsp)
	movl	%eax, 2(%rsp)
	movq	8(%rbp), %rax
	movups	%xmm1, 8(%rsp)
	testq	%rax, %rax
	je	.L1071
	cmpq	$0, _ZL28__gthrw___pthread_key_createPjPFvPvE@GOTPCREL(%rip)
	je	.L1072
	lock addl	$1, 8(%rax)
.L1071:
	movq	120(%rbx), %rsi
	cmpq	128(%rbx), %rsi
	je	.L1073
	movzbl	(%rsp), %eax
	addq	$24, %rsi
	pxor	%xmm0, %xmm0
	movb	%al, -24(%rsi)
	movl	2(%rsp), %eax
	movl	%eax, -22(%rsi)
	movzbl	6(%rsp), %eax
	movb	%al, -18(%rsi)
	movq	8(%rsp), %rax
	movq	$0, -8(%rsi)
	movq	%rax, -16(%rsi)
	movq	16(%rsp), %rax
	movq	%rax, -8(%rsi)
	movq	%rsi, 120(%rbx)
	movups	%xmm0, 8(%rsp)
.L1074:
	movq	16(%rsp), %rbp
	testq	%rbp, %rbp
	je	.L1076
	movq	_ZL28__gthrw___pthread_key_createPjPFvPvE@GOTPCREL(%rip), %rbx
	testq	%rbx, %rbx
	je	.L1077
	movl	$-1, %eax
	lock xaddl	%eax, 8(%rbp)
.L1078:
	cmpl	$1, %eax
	jne	.L1076
	movq	0(%rbp), %rax
	movq	%rbp, %rdi
	call	*16(%rax)
	testq	%rbx, %rbx
	je	.L1080
	movl	$-1, %eax
	lock xaddl	%eax, 12(%rbp)
.L1081:
	cmpl	$1, %eax
	jne	.L1076
	movq	0(%rbp), %rax
	movq	%rbp, %rdi
	call	*24(%rax)
	.p2align 4,,10
	.p2align 3
.L1076:
	movl	$1, %r12d
	jmp	.L1065
	.p2align 4,,10
	.p2align 3
.L1098:
	leaq	32(%rbx), %rbp
	movq	%rsp, %r13
	movl	$2, (%rsp)
	movq	%r13, %rsi
	movq	%rbp, %rdi
	call	_ZNK7openpal6Logger9IsEnabledERKNS_10LogFiltersE@PLT
	testb	%al, %al
	jne	.L1099
.L1096:
	xorl	%r12d, %r12d
.L1065:
	movq	152(%rsp), %rax
	xorq	%fs:40, %rax
	jne	.L1100
	addq	$160, %rsp
	.cfi_remember_state
	.cfi_def_cfa_offset 48
	movl	%r12d, %eax
	popq	%rbx
	.cfi_def_cfa_offset 40
	popq	%rbp
	.cfi_def_cfa_offset 32
	popq	%r12
	.cfi_def_cfa_offset 24
	popq	%r13
	.cfi_def_cfa_offset 16
	popq	%r14
	.cfi_def_cfa_offset 8
	ret
	.p2align 4,,10
	.p2align 3
.L1097:
	.cfi_restore_state
	leaq	32(%rbx), %rbp
	movq	%rsp, %r12
	movl	$2, (%rsp)
	movq	%r12, %rsi
	movq	%rbp, %rdi
	call	_ZNK7openpal6Logger9IsEnabledERKNS_10LogFiltersE@PLT
	testb	%al, %al
	je	.L1096
	movzwl	0(%r13), %eax
	leaq	32(%rsp), %r14
	subq	$8, %rsp
	.cfi_def_cfa_offset 216
	movzwl	2(%r13), %r9d
	movq	%r14, %rdi
	movl	$120, %ecx
	movl	$1, %edx
	movl	$120, %esi
	pushq	%rax
	.cfi_def_cfa_offset 224
	leaq	.LC39(%rip), %r8
	xorl	%eax, %eax
	call	__snprintf_chk@PLT
	movq	%r14, %rcx
	movq	%r12, %rsi
	movq	%rbp, %rdi
	movl	$2, 16(%rsp)
	popq	%rax
	.cfi_def_cfa_offset 216
	popq	%rdx
	.cfi_def_cfa_offset 208
	leaq	.LC40(%rip), %rdx
	call	_ZN7openpal6Logger3LogERKNS_10LogFiltersEPKcS5_@PLT
	jmp	.L1096
	.p2align 4,,10
	.p2align 3
.L1072:
	addl	$1, 8(%rax)
	jmp	.L1071
	.p2align 4,,10
	.p2align 3
.L1077:
	movl	8(%rbp), %eax
	leal	-1(%rax), %edx
	movl	%edx, 8(%rbp)
	jmp	.L1078
	.p2align 4,,10
	.p2align 3
.L1099:
	leaq	.LC41(%rip), %rcx
	leaq	.LC42(%rip), %rdx
	movq	%r13, %rsi
	movq	%rbp, %rdi
	movl	$2, (%rsp)
	call	_ZN7openpal6Logger3LogERKNS_10LogFiltersEPKcS5_@PLT
.LEHE37:
	jmp	.L1065
	.p2align 4,,10
	.p2align 3
.L1073:
	movq	%rsp, %rdx
	leaq	112(%rbx), %rdi
.LEHB38:
	call	_ZNSt6vectorIN8asiodnp39IOHandler7SessionESaIS2_EE17_M_realloc_insertIJS2_EEEvN9__gnu_cxx17__normal_iteratorIPS2_S4_EEDpOT_@PLT
.LEHE38:
	jmp	.L1074
	.p2align 4,,10
	.p2align 3
.L1080:
	movl	12(%rbp), %eax
	leal	-1(%rax), %edx
	movl	%edx, 12(%rbp)
	jmp	.L1081
.L1100:
	call	__stack_chk_fail@PLT
.L1085:
	endbr64
	movq	%rax, %rbp
	jmp	.L1082
	.section	.gcc_except_table
.LLSDA7604:
	.byte	0xff
	.byte	0xff
	.byte	0x1
	.uleb128 .LLSDACSE7604-.LLSDACSB7604
.LLSDACSB7604:
	.uleb128 .LEHB37-.LFB7604
	.uleb128 .LEHE37-.LEHB37
	.uleb128 0
	.uleb128 0
	.uleb128 .LEHB38-.LFB7604
	.uleb128 .LEHE38-.LEHB38
	.uleb128 .L1085-.LFB7604
	.uleb128 0
.LLSDACSE7604:
	.text
	.cfi_endproc
	.section	.text.unlikely
	.cfi_startproc
	.cfi_personality 0x9b,DW.ref.__gxx_personality_v0
	.cfi_lsda 0x1b,.LLSDAC7604
	.type	_ZN8asiodnp39IOHandler10AddContextERKSt10shared_ptrIN8opendnp312ILinkSessionEERKNS2_5RouteE.cold, @function
_ZN8asiodnp39IOHandler10AddContextERKSt10shared_ptrIN8opendnp312ILinkSessionEERKNS2_5RouteE.cold:
.LFSB7604:
.L1082:
	.cfi_def_cfa_offset 208
	.cfi_offset 3, -48
	.cfi_offset 6, -40
	.cfi_offset 12, -32
	.cfi_offset 13, -24
	.cfi_offset 14, -16
	movq	16(%rsp), %rdi
	testq	%rdi, %rdi
	je	.L1083
	call	_ZNSt16_Sp_counted_baseILN9__gnu_cxx12_Lock_policyE2EE10_M_releaseEv@PLT
.L1083:
	movq	%rbp, %rdi
.LEHB39:
	call	_Unwind_Resume@PLT
.LEHE39:
	.cfi_endproc
.LFE7604:
	.section	.gcc_except_table
.LLSDAC7604:
	.byte	0xff
	.byte	0xff
	.byte	0x1
	.uleb128 .LLSDACSEC7604-.LLSDACSBC7604
.LLSDACSBC7604:
	.uleb128 .LEHB39-.LCOLDB43
	.uleb128 .LEHE39-.LEHB39
	.uleb128 0
	.uleb128 0
.LLSDACSEC7604:
	.section	.text.unlikely
	.text
	.size	_ZN8asiodnp39IOHandler10AddContextERKSt10shared_ptrIN8opendnp312ILinkSessionEERKNS2_5RouteE, .-_ZN8asiodnp39IOHandler10AddContextERKSt10shared_ptrIN8opendnp312ILinkSessionEERKNS2_5RouteE
	.section	.text.unlikely
	.size	_ZN8asiodnp39IOHandler10AddContextERKSt10shared_ptrIN8opendnp312ILinkSessionEERKNS2_5RouteE.cold, .-_ZN8asiodnp39IOHandler10AddContextERKSt10shared_ptrIN8opendnp312ILinkSessionEERKNS2_5RouteE.cold
.LCOLDE43:
	.text
.LHOTE43:
	.section	.text.startup,"ax",@progbits
	.p2align 4
	.type	_GLOBAL__sub_I_IOHandler.cpp, @function
_GLOBAL__sub_I_IOHandler.cpp:
.LFB10227:
	.cfi_startproc
	endbr64
	pushq	%rbp
	.cfi_def_cfa_offset 16
	.cfi_offset 6, -16
	movq	_ZGVZN4asio15system_categoryEvE8instance@GOTPCREL(%rip), %rbp
	movzbl	0(%rbp), %eax
	testb	%al, %al
	je	.L1132
.L1103:
	movq	_ZGVZN4asio5error18get_netdb_categoryEvE8instance@GOTPCREL(%rip), %rbp
	movzbl	0(%rbp), %eax
	testb	%al, %al
	je	.L1133
.L1106:
	movq	_ZGVZN4asio5error21get_addrinfo_categoryEvE8instance@GOTPCREL(%rip), %rbp
	movzbl	0(%rbp), %eax
	testb	%al, %al
	je	.L1134
.L1109:
	movq	_ZGVZN4asio5error17get_misc_categoryEvE8instance@GOTPCREL(%rip), %rbp
	movzbl	0(%rbp), %eax
	testb	%al, %al
	je	.L1135
.L1112:
	movq	_ZGVN4asio6detail10call_stackINS0_15task_io_serviceENS0_27task_io_service_thread_infoEE4top_E@GOTPCREL(%rip), %rax
	cmpb	$0, (%rax)
	je	.L1136
.L1114:
	movq	_ZGVN4asio6detail12service_baseINS0_13epoll_reactorEE2idE@GOTPCREL(%rip), %rax
	cmpb	$0, (%rax)
	je	.L1137
.L1115:
	movq	_ZGVN4asio6detail12service_baseINS0_15task_io_serviceEE2idE@GOTPCREL(%rip), %rax
	cmpb	$0, (%rax)
	je	.L1138
.L1116:
	movq	_ZGVN4asio6detail10call_stackINS0_14strand_service11strand_implEhE4top_E@GOTPCREL(%rip), %rax
	cmpb	$0, (%rax)
	je	.L1139
.L1117:
	movq	_ZGVN4asio6detail12service_baseINS0_14strand_serviceEE2idE@GOTPCREL(%rip), %rax
	cmpb	$0, (%rax)
	je	.L1140
	popq	%rbp
	.cfi_remember_state
	.cfi_def_cfa_offset 8
	ret
.L1132:
	.cfi_restore_state
	movq	%rbp, %rdi
	call	__cxa_guard_acquire@PLT
	testl	%eax, %eax
	je	.L1103
	movq	_ZZN4asio15system_categoryEvE8instance@GOTPCREL(%rip), %rsi
	movq	_ZN4asio6detail15system_categoryD1Ev@GOTPCREL(%rip), %rdi
	leaq	__dso_handle(%rip), %rdx
	call	__cxa_atexit@PLT
	movq	%rbp, %rdi
	call	__cxa_guard_release@PLT
	jmp	.L1103
.L1140:
	movb	$1, (%rax)
	leaq	__dso_handle(%rip), %rdx
	movq	_ZN4asio6detail12service_baseINS0_14strand_serviceEE2idE@GOTPCREL(%rip), %rsi
	movq	_ZN4asio6detail10service_idINS0_14strand_serviceEED1Ev@GOTPCREL(%rip), %rdi
	popq	%rbp
	.cfi_remember_state
	.cfi_def_cfa_offset 8
	jmp	__cxa_atexit@PLT
.L1139:
	.cfi_restore_state
	movb	$1, (%rax)
	movq	_ZN4asio6detail10call_stackINS0_14strand_service11strand_implEhE4top_E@GOTPCREL(%rip), %rsi
	leaq	__dso_handle(%rip), %rdx
	movq	_ZN4asio6detail7tss_ptrINS0_10call_stackINS0_14strand_service11strand_implEhE7contextEED1Ev@GOTPCREL(%rip), %rdi
	call	__cxa_atexit@PLT
	jmp	.L1117
.L1138:
	movb	$1, (%rax)
	movq	_ZN4asio6detail12service_baseINS0_15task_io_serviceEE2idE@GOTPCREL(%rip), %rsi
	leaq	__dso_handle(%rip), %rdx
	movq	_ZN4asio6detail10service_idINS0_15task_io_serviceEED1Ev@GOTPCREL(%rip), %rdi
	call	__cxa_atexit@PLT
	jmp	.L1116
.L1137:
	movb	$1, (%rax)
	movq	_ZN4asio6detail12service_baseINS0_13epoll_reactorEE2idE@GOTPCREL(%rip), %rsi
	leaq	__dso_handle(%rip), %rdx
	movq	_ZN4asio6detail10service_idINS0_13epoll_reactorEED1Ev@GOTPCREL(%rip), %rdi
	call	__cxa_atexit@PLT
	jmp	.L1115
.L1136:
	movb	$1, (%rax)
	movq	_ZN4asio6detail10call_stackINS0_15task_io_serviceENS0_27task_io_service_thread_infoEE4top_E@GOTPCREL(%rip), %rsi
	leaq	__dso_handle(%rip), %rdx
	movq	_ZN4asio6detail7tss_ptrINS0_10call_stackINS0_15task_io_serviceENS0_27task_io_service_thread_infoEE7contextEED1Ev@GOTPCREL(%rip), %rdi
	call	__cxa_atexit@PLT
	jmp	.L1114
.L1135:
	movq	%rbp, %rdi
	call	__cxa_guard_acquire@PLT
	testl	%eax, %eax
	je	.L1112
	movq	_ZZN4asio5error17get_misc_categoryEvE8instance@GOTPCREL(%rip), %rsi
	movq	_ZN4asio5error6detail13misc_categoryD1Ev@GOTPCREL(%rip), %rdi
	leaq	__dso_handle(%rip), %rdx
	call	__cxa_atexit@PLT
	movq	%rbp, %rdi
	call	__cxa_guard_release@PLT
	jmp	.L1112
.L1134:
	movq	%rbp, %rdi
	call	__cxa_guard_acquire@PLT
	testl	%eax, %eax
	je	.L1109
	movq	_ZZN4asio5error21get_addrinfo_categoryEvE8instance@GOTPCREL(%rip), %rsi
	movq	_ZN4asio5error6detail17addrinfo_categoryD1Ev@GOTPCREL(%rip), %rdi
	leaq	__dso_handle(%rip), %rdx
	call	__cxa_atexit@PLT
	movq	%rbp, %rdi
	call	__cxa_guard_release@PLT
	jmp	.L1109
.L1133:
	movq	%rbp, %rdi
	call	__cxa_guard_acquire@PLT
	testl	%eax, %eax
	je	.L1106
	movq	_ZZN4asio5error18get_netdb_categoryEvE8instance@GOTPCREL(%rip), %rsi
	movq	_ZN4asio5error6detail14netdb_categoryD1Ev@GOTPCREL(%rip), %rdi
	leaq	__dso_handle(%rip), %rdx
	call	__cxa_atexit@PLT
	movq	%rbp, %rdi
	call	__cxa_guard_release@PLT
	jmp	.L1106
	.cfi_endproc
.LFE10227:
	.size	_GLOBAL__sub_I_IOHandler.cpp, .-_GLOBAL__sub_I_IOHandler.cpp
	.section	.init_array,"aw"
	.align 8
	.quad	_GLOBAL__sub_I_IOHandler.cpp
	.weak	_ZTSSt23enable_shared_from_thisIN8asiodnp39IOHandlerEE
	.section	.rodata._ZTSSt23enable_shared_from_thisIN8asiodnp39IOHandlerEE,"aG",@progbits,_ZTSSt23enable_shared_from_thisIN8asiodnp39IOHandlerEE,comdat
	.align 32
	.type	_ZTSSt23enable_shared_from_thisIN8asiodnp39IOHandlerEE, @object
	.size	_ZTSSt23enable_shared_from_thisIN8asiodnp39IOHandlerEE, 51
_ZTSSt23enable_shared_from_thisIN8asiodnp39IOHandlerEE:
	.string	"St23enable_shared_from_thisIN8asiodnp39IOHandlerEE"
	.weak	_ZTISt23enable_shared_from_thisIN8asiodnp39IOHandlerEE
	.section	.data.rel.ro._ZTISt23enable_shared_from_thisIN8asiodnp39IOHandlerEE,"awG",@progbits,_ZTISt23enable_shared_from_thisIN8asiodnp39IOHandlerEE,comdat
	.align 8
	.type	_ZTISt23enable_shared_from_thisIN8asiodnp39IOHandlerEE, @object
	.size	_ZTISt23enable_shared_from_thisIN8asiodnp39IOHandlerEE, 16
_ZTISt23enable_shared_from_thisIN8asiodnp39IOHandlerEE:
	.quad	_ZTVN10__cxxabiv117__class_type_infoE+16
	.quad	_ZTSSt23enable_shared_from_thisIN8asiodnp39IOHandlerEE
	.weak	_ZGVN4asio6detail12service_baseINS0_14strand_serviceEE2idE
	.section	.bss._ZGVN4asio6detail12service_baseINS0_14strand_serviceEE2idE,"awG",@nobits,_ZGVN4asio6detail12service_baseINS0_14strand_serviceEE2idE,comdat
	.align 8
	.type	_ZGVN4asio6detail12service_baseINS0_14strand_serviceEE2idE, @gnu_unique_object
	.size	_ZGVN4asio6detail12service_baseINS0_14strand_serviceEE2idE, 8
_ZGVN4asio6detail12service_baseINS0_14strand_serviceEE2idE:
	.zero	8
	.weak	_ZGVN4asio6detail10call_stackINS0_14strand_service11strand_implEhE4top_E
	.section	.bss._ZGVN4asio6detail10call_stackINS0_14strand_service11strand_implEhE4top_E,"awG",@nobits,_ZGVN4asio6detail10call_stackINS0_14strand_service11strand_implEhE4top_E,comdat
	.align 8
	.type	_ZGVN4asio6detail10call_stackINS0_14strand_service11strand_implEhE4top_E, @gnu_unique_object
	.size	_ZGVN4asio6detail10call_stackINS0_14strand_service11strand_implEhE4top_E, 8
_ZGVN4asio6detail10call_stackINS0_14strand_service11strand_implEhE4top_E:
	.zero	8
	.weak	_ZGVN4asio6detail12service_baseINS0_15task_io_serviceEE2idE
	.section	.bss._ZGVN4asio6detail12service_baseINS0_15task_io_serviceEE2idE,"awG",@nobits,_ZGVN4asio6detail12service_baseINS0_15task_io_serviceEE2idE,comdat
	.align 8
	.type	_ZGVN4asio6detail12service_baseINS0_15task_io_serviceEE2idE, @gnu_unique_object
	.size	_ZGVN4asio6detail12service_baseINS0_15task_io_serviceEE2idE, 8
_ZGVN4asio6detail12service_baseINS0_15task_io_serviceEE2idE:
	.zero	8
	.weak	_ZGVN4asio6detail12service_baseINS0_13epoll_reactorEE2idE
	.section	.bss._ZGVN4asio6detail12service_baseINS0_13epoll_reactorEE2idE,"awG",@nobits,_ZGVN4asio6detail12service_baseINS0_13epoll_reactorEE2idE,comdat
	.align 8
	.type	_ZGVN4asio6detail12service_baseINS0_13epoll_reactorEE2idE, @gnu_unique_object
	.size	_ZGVN4asio6detail12service_baseINS0_13epoll_reactorEE2idE, 8
_ZGVN4asio6detail12service_baseINS0_13epoll_reactorEE2idE:
	.zero	8
	.weak	_ZGVN4asio6detail10call_stackINS0_15task_io_serviceENS0_27task_io_service_thread_infoEE4top_E
	.section	.bss._ZGVN4asio6detail10call_stackINS0_15task_io_serviceENS0_27task_io_service_thread_infoEE4top_E,"awG",@nobits,_ZGVN4asio6detail10call_stackINS0_15task_io_serviceENS0_27task_io_service_thread_infoEE4top_E,comdat
	.align 8
	.type	_ZGVN4asio6detail10call_stackINS0_15task_io_serviceENS0_27task_io_service_thread_infoEE4top_E, @gnu_unique_object
	.size	_ZGVN4asio6detail10call_stackINS0_15task_io_serviceENS0_27task_io_service_thread_infoEE4top_E, 8
_ZGVN4asio6detail10call_stackINS0_15task_io_serviceENS0_27task_io_service_thread_infoEE4top_E:
	.zero	8
	.weak	_ZN4asio6detail12service_baseINS0_14strand_serviceEE2idE
	.section	.bss._ZN4asio6detail12service_baseINS0_14strand_serviceEE2idE,"awG",@nobits,_ZN4asio6detail12service_baseINS0_14strand_serviceEE2idE,comdat
	.type	_ZN4asio6detail12service_baseINS0_14strand_serviceEE2idE, @gnu_unique_object
	.size	_ZN4asio6detail12service_baseINS0_14strand_serviceEE2idE, 1
_ZN4asio6detail12service_baseINS0_14strand_serviceEE2idE:
	.zero	1
	.weak	_ZN4asio6detail10call_stackINS0_14strand_service11strand_implEhE4top_E
	.section	.bss._ZN4asio6detail10call_stackINS0_14strand_service11strand_implEhE4top_E,"awG",@nobits,_ZN4asio6detail10call_stackINS0_14strand_service11strand_implEhE4top_E,comdat
	.type	_ZN4asio6detail10call_stackINS0_14strand_service11strand_implEhE4top_E, @gnu_unique_object
	.size	_ZN4asio6detail10call_stackINS0_14strand_service11strand_implEhE4top_E, 1
_ZN4asio6detail10call_stackINS0_14strand_service11strand_implEhE4top_E:
	.zero	1
	.weak	_ZN4asio6detail12service_baseINS0_15task_io_serviceEE2idE
	.section	.bss._ZN4asio6detail12service_baseINS0_15task_io_serviceEE2idE,"awG",@nobits,_ZN4asio6detail12service_baseINS0_15task_io_serviceEE2idE,comdat
	.type	_ZN4asio6detail12service_baseINS0_15task_io_serviceEE2idE, @gnu_unique_object
	.size	_ZN4asio6detail12service_baseINS0_15task_io_serviceEE2idE, 1
_ZN4asio6detail12service_baseINS0_15task_io_serviceEE2idE:
	.zero	1
	.weak	_ZN4asio6detail12service_baseINS0_13epoll_reactorEE2idE
	.section	.bss._ZN4asio6detail12service_baseINS0_13epoll_reactorEE2idE,"awG",@nobits,_ZN4asio6detail12service_baseINS0_13epoll_reactorEE2idE,comdat
	.type	_ZN4asio6detail12service_baseINS0_13epoll_reactorEE2idE, @gnu_unique_object
	.size	_ZN4asio6detail12service_baseINS0_13epoll_reactorEE2idE, 1
_ZN4asio6detail12service_baseINS0_13epoll_reactorEE2idE:
	.zero	1
	.weak	_ZN4asio6detail10call_stackINS0_15task_io_serviceENS0_27task_io_service_thread_infoEE4top_E
	.section	.bss._ZN4asio6detail10call_stackINS0_15task_io_serviceENS0_27task_io_service_thread_infoEE4top_E,"awG",@nobits,_ZN4asio6detail10call_stackINS0_15task_io_serviceENS0_27task_io_service_thread_infoEE4top_E,comdat
	.type	_ZN4asio6detail10call_stackINS0_15task_io_serviceENS0_27task_io_service_thread_infoEE4top_E, @gnu_unique_object
	.size	_ZN4asio6detail10call_stackINS0_15task_io_serviceENS0_27task_io_service_thread_infoEE4top_E, 1
_ZN4asio6detail10call_stackINS0_15task_io_serviceENS0_27task_io_service_thread_infoEE4top_E:
	.zero	1
	.weak	_ZTSN8opendnp310IFrameSinkE
	.section	.rodata._ZTSN8opendnp310IFrameSinkE,"aG",@progbits,_ZTSN8opendnp310IFrameSinkE,comdat
	.align 16
	.type	_ZTSN8opendnp310IFrameSinkE, @object
	.size	_ZTSN8opendnp310IFrameSinkE, 24
_ZTSN8opendnp310IFrameSinkE:
	.string	"N8opendnp310IFrameSinkE"
	.weak	_ZTIN8opendnp310IFrameSinkE
	.section	.data.rel.ro._ZTIN8opendnp310IFrameSinkE,"awG",@progbits,_ZTIN8opendnp310IFrameSinkE,comdat
	.align 8
	.type	_ZTIN8opendnp310IFrameSinkE, @object
	.size	_ZTIN8opendnp310IFrameSinkE, 16
_ZTIN8opendnp310IFrameSinkE:
	.quad	_ZTVN10__cxxabiv117__class_type_infoE+16
	.quad	_ZTSN8opendnp310IFrameSinkE
	.weak	_ZTSN4asio6detail15system_categoryE
	.section	.rodata._ZTSN4asio6detail15system_categoryE,"aG",@progbits,_ZTSN4asio6detail15system_categoryE,comdat
	.align 32
	.type	_ZTSN4asio6detail15system_categoryE, @object
	.size	_ZTSN4asio6detail15system_categoryE, 32
_ZTSN4asio6detail15system_categoryE:
	.string	"N4asio6detail15system_categoryE"
	.weak	_ZTIN4asio6detail15system_categoryE
	.section	.data.rel.ro._ZTIN4asio6detail15system_categoryE,"awG",@progbits,_ZTIN4asio6detail15system_categoryE,comdat
	.align 8
	.type	_ZTIN4asio6detail15system_categoryE, @object
	.size	_ZTIN4asio6detail15system_categoryE, 24
_ZTIN4asio6detail15system_categoryE:
	.quad	_ZTVN10__cxxabiv120__si_class_type_infoE+16
	.quad	_ZTSN4asio6detail15system_categoryE
	.quad	_ZTINSt3_V214error_categoryE
	.weak	_ZTSN4asio5error6detail14netdb_categoryE
	.section	.rodata._ZTSN4asio5error6detail14netdb_categoryE,"aG",@progbits,_ZTSN4asio5error6detail14netdb_categoryE,comdat
	.align 32
	.type	_ZTSN4asio5error6detail14netdb_categoryE, @object
	.size	_ZTSN4asio5error6detail14netdb_categoryE, 37
_ZTSN4asio5error6detail14netdb_categoryE:
	.string	"N4asio5error6detail14netdb_categoryE"
	.weak	_ZTIN4asio5error6detail14netdb_categoryE
	.section	.data.rel.ro._ZTIN4asio5error6detail14netdb_categoryE,"awG",@progbits,_ZTIN4asio5error6detail14netdb_categoryE,comdat
	.align 8
	.type	_ZTIN4asio5error6detail14netdb_categoryE, @object
	.size	_ZTIN4asio5error6detail14netdb_categoryE, 24
_ZTIN4asio5error6detail14netdb_categoryE:
	.quad	_ZTVN10__cxxabiv120__si_class_type_infoE+16
	.quad	_ZTSN4asio5error6detail14netdb_categoryE
	.quad	_ZTINSt3_V214error_categoryE
	.weak	_ZTSN4asio5error6detail17addrinfo_categoryE
	.section	.rodata._ZTSN4asio5error6detail17addrinfo_categoryE,"aG",@progbits,_ZTSN4asio5error6detail17addrinfo_categoryE,comdat
	.align 32
	.type	_ZTSN4asio5error6detail17addrinfo_categoryE, @object
	.size	_ZTSN4asio5error6detail17addrinfo_categoryE, 40
_ZTSN4asio5error6detail17addrinfo_categoryE:
	.string	"N4asio5error6detail17addrinfo_categoryE"
	.weak	_ZTIN4asio5error6detail17addrinfo_categoryE
	.section	.data.rel.ro._ZTIN4asio5error6detail17addrinfo_categoryE,"awG",@progbits,_ZTIN4asio5error6detail17addrinfo_categoryE,comdat
	.align 8
	.type	_ZTIN4asio5error6detail17addrinfo_categoryE, @object
	.size	_ZTIN4asio5error6detail17addrinfo_categoryE, 24
_ZTIN4asio5error6detail17addrinfo_categoryE:
	.quad	_ZTVN10__cxxabiv120__si_class_type_infoE+16
	.quad	_ZTSN4asio5error6detail17addrinfo_categoryE
	.quad	_ZTINSt3_V214error_categoryE
	.weak	_ZTSN4asio5error6detail13misc_categoryE
	.section	.rodata._ZTSN4asio5error6detail13misc_categoryE,"aG",@progbits,_ZTSN4asio5error6detail13misc_categoryE,comdat
	.align 32
	.type	_ZTSN4asio5error6detail13misc_categoryE, @object
	.size	_ZTSN4asio5error6detail13misc_categoryE, 36
_ZTSN4asio5error6detail13misc_categoryE:
	.string	"N4asio5error6detail13misc_categoryE"
	.weak	_ZTIN4asio5error6detail13misc_categoryE
	.section	.data.rel.ro._ZTIN4asio5error6detail13misc_categoryE,"awG",@progbits,_ZTIN4asio5error6detail13misc_categoryE,comdat
	.align 8
	.type	_ZTIN4asio5error6detail13misc_categoryE, @object
	.size	_ZTIN4asio5error6detail13misc_categoryE, 24
_ZTIN4asio5error6detail13misc_categoryE:
	.quad	_ZTVN10__cxxabiv120__si_class_type_infoE+16
	.quad	_ZTSN4asio5error6detail13misc_categoryE
	.quad	_ZTINSt3_V214error_categoryE
	.weak	_ZTSN7asiopal17IChannelCallbacksE
	.section	.rodata._ZTSN7asiopal17IChannelCallbacksE,"aG",@progbits,_ZTSN7asiopal17IChannelCallbacksE,comdat
	.align 16
	.type	_ZTSN7asiopal17IChannelCallbacksE, @object
	.size	_ZTSN7asiopal17IChannelCallbacksE, 30
_ZTSN7asiopal17IChannelCallbacksE:
	.string	"N7asiopal17IChannelCallbacksE"
	.weak	_ZTIN7asiopal17IChannelCallbacksE
	.section	.data.rel.ro._ZTIN7asiopal17IChannelCallbacksE,"awG",@progbits,_ZTIN7asiopal17IChannelCallbacksE,comdat
	.align 8
	.type	_ZTIN7asiopal17IChannelCallbacksE, @object
	.size	_ZTIN7asiopal17IChannelCallbacksE, 16
_ZTIN7asiopal17IChannelCallbacksE:
	.quad	_ZTVN10__cxxabiv117__class_type_infoE+16
	.quad	_ZTSN7asiopal17IChannelCallbacksE
	.weak	_ZTSN8asiodnp39IOHandlerE
	.section	.rodata._ZTSN8asiodnp39IOHandlerE,"aG",@progbits,_ZTSN8asiodnp39IOHandlerE,comdat
	.align 16
	.type	_ZTSN8asiodnp39IOHandlerE, @object
	.size	_ZTSN8asiodnp39IOHandlerE, 22
_ZTSN8asiodnp39IOHandlerE:
	.string	"N8asiodnp39IOHandlerE"
	.weak	_ZTIN8asiodnp39IOHandlerE
	.section	.data.rel.ro._ZTIN8asiodnp39IOHandlerE,"awG",@progbits,_ZTIN8asiodnp39IOHandlerE,comdat
	.align 8
	.type	_ZTIN8asiodnp39IOHandlerE, @object
	.size	_ZTIN8asiodnp39IOHandlerE, 72
_ZTIN8asiodnp39IOHandlerE:
	.quad	_ZTVN10__cxxabiv121__vmi_class_type_infoE+16
	.quad	_ZTSN8asiodnp39IOHandlerE
	.long	0
	.long	3
	.quad	_ZTIN8opendnp310IFrameSinkE
	.quad	0
	.quad	_ZTIN7asiopal17IChannelCallbacksE
	.quad	2050
	.quad	_ZTISt23enable_shared_from_thisIN8asiodnp39IOHandlerEE
	.quad	4098
	.weak	_ZTVN4asio6detail15system_categoryE
	.section	.data.rel.ro._ZTVN4asio6detail15system_categoryE,"awG",@progbits,_ZTVN4asio6detail15system_categoryE,comdat
	.align 8
	.type	_ZTVN4asio6detail15system_categoryE, @object
	.size	_ZTVN4asio6detail15system_categoryE, 80
_ZTVN4asio6detail15system_categoryE:
	.quad	0
	.quad	_ZTIN4asio6detail15system_categoryE
	.quad	_ZN4asio6detail15system_categoryD1Ev
	.quad	_ZN4asio6detail15system_categoryD0Ev
	.quad	_ZNK4asio6detail15system_category4nameEv
	.quad	_ZNKSt3_V214error_category10_M_messageB5cxx11Ei
	.quad	_ZNK4asio6detail15system_category7messageB5cxx11Ei
	.quad	_ZNKSt3_V214error_category23default_error_conditionEi
	.quad	_ZNKSt3_V214error_category10equivalentEiRKSt15error_condition
	.quad	_ZNKSt3_V214error_category10equivalentERKSt10error_codei
	.weak	_ZTVN4asio5error6detail14netdb_categoryE
	.section	.data.rel.ro._ZTVN4asio5error6detail14netdb_categoryE,"awG",@progbits,_ZTVN4asio5error6detail14netdb_categoryE,comdat
	.align 8
	.type	_ZTVN4asio5error6detail14netdb_categoryE, @object
	.size	_ZTVN4asio5error6detail14netdb_categoryE, 80
_ZTVN4asio5error6detail14netdb_categoryE:
	.quad	0
	.quad	_ZTIN4asio5error6detail14netdb_categoryE
	.quad	_ZN4asio5error6detail14netdb_categoryD1Ev
	.quad	_ZN4asio5error6detail14netdb_categoryD0Ev
	.quad	_ZNK4asio5error6detail14netdb_category4nameEv
	.quad	_ZNKSt3_V214error_category10_M_messageB5cxx11Ei
	.quad	_ZNK4asio5error6detail14netdb_category7messageB5cxx11Ei
	.quad	_ZNKSt3_V214error_category23default_error_conditionEi
	.quad	_ZNKSt3_V214error_category10equivalentEiRKSt15error_condition
	.quad	_ZNKSt3_V214error_category10equivalentERKSt10error_codei
	.weak	_ZTVN4asio5error6detail17addrinfo_categoryE
	.section	.data.rel.ro._ZTVN4asio5error6detail17addrinfo_categoryE,"awG",@progbits,_ZTVN4asio5error6detail17addrinfo_categoryE,comdat
	.align 8
	.type	_ZTVN4asio5error6detail17addrinfo_categoryE, @object
	.size	_ZTVN4asio5error6detail17addrinfo_categoryE, 80
_ZTVN4asio5error6detail17addrinfo_categoryE:
	.quad	0
	.quad	_ZTIN4asio5error6detail17addrinfo_categoryE
	.quad	_ZN4asio5error6detail17addrinfo_categoryD1Ev
	.quad	_ZN4asio5error6detail17addrinfo_categoryD0Ev
	.quad	_ZNK4asio5error6detail17addrinfo_category4nameEv
	.quad	_ZNKSt3_V214error_category10_M_messageB5cxx11Ei
	.quad	_ZNK4asio5error6detail17addrinfo_category7messageB5cxx11Ei
	.quad	_ZNKSt3_V214error_category23default_error_conditionEi
	.quad	_ZNKSt3_V214error_category10equivalentEiRKSt15error_condition
	.quad	_ZNKSt3_V214error_category10equivalentERKSt10error_codei
	.weak	_ZTVN4asio5error6detail13misc_categoryE
	.section	.data.rel.ro._ZTVN4asio5error6detail13misc_categoryE,"awG",@progbits,_ZTVN4asio5error6detail13misc_categoryE,comdat
	.align 8
	.type	_ZTVN4asio5error6detail13misc_categoryE, @object
	.size	_ZTVN4asio5error6detail13misc_categoryE, 80
_ZTVN4asio5error6detail13misc_categoryE:
	.quad	0
	.quad	_ZTIN4asio5error6detail13misc_categoryE
	.quad	_ZN4asio5error6detail13misc_categoryD1Ev
	.quad	_ZN4asio5error6detail13misc_categoryD0Ev
	.quad	_ZNK4asio5error6detail13misc_category4nameEv
	.quad	_ZNKSt3_V214error_category10_M_messageB5cxx11Ei
	.quad	_ZNK4asio5error6detail13misc_category7messageB5cxx11Ei
	.quad	_ZNKSt3_V214error_category23default_error_conditionEi
	.quad	_ZNKSt3_V214error_category10equivalentEiRKSt15error_condition
	.quad	_ZNKSt3_V214error_category10equivalentERKSt10error_codei
	.weak	_ZTVN8asiodnp39IOHandlerE
	.section	.data.rel.ro._ZTVN8asiodnp39IOHandlerE,"awG",@progbits,_ZTVN8asiodnp39IOHandlerE,comdat
	.align 8
	.type	_ZTVN8asiodnp39IOHandlerE, @object
	.size	_ZTVN8asiodnp39IOHandlerE, 136
_ZTVN8asiodnp39IOHandlerE:
	.quad	0
	.quad	_ZTIN8asiodnp39IOHandlerE
	.quad	0
	.quad	0
	.quad	_ZN8asiodnp39IOHandler7OnFrameERKN8opendnp316LinkHeaderFieldsERKN7openpal6RSliceE
	.quad	_ZN8asiodnp39IOHandler14OnReadCompleteERKSt10error_codem
	.quad	_ZN8asiodnp39IOHandler15OnWriteCompleteERKSt10error_codem
	.quad	__cxa_pure_virtual
	.quad	__cxa_pure_virtual
	.quad	__cxa_pure_virtual
	.quad	__cxa_pure_virtual
	.quad	-8
	.quad	_ZTIN8asiodnp39IOHandlerE
	.quad	0
	.quad	0
	.quad	_ZThn8_N8asiodnp39IOHandler14OnReadCompleteERKSt10error_codem
	.quad	_ZThn8_N8asiodnp39IOHandler15OnWriteCompleteERKSt10error_codem
	.weak	_ZGVZN4asio5error17get_misc_categoryEvE8instance
	.section	.bss._ZGVZN4asio5error17get_misc_categoryEvE8instance,"awG",@nobits,_ZGVZN4asio5error17get_misc_categoryEvE8instance,comdat
	.align 8
	.type	_ZGVZN4asio5error17get_misc_categoryEvE8instance, @gnu_unique_object
	.size	_ZGVZN4asio5error17get_misc_categoryEvE8instance, 8
_ZGVZN4asio5error17get_misc_categoryEvE8instance:
	.zero	8
	.weak	_ZZN4asio5error17get_misc_categoryEvE8instance
	.section	.data.rel._ZZN4asio5error17get_misc_categoryEvE8instance,"awG",@progbits,_ZZN4asio5error17get_misc_categoryEvE8instance,comdat
	.align 8
	.type	_ZZN4asio5error17get_misc_categoryEvE8instance, @gnu_unique_object
	.size	_ZZN4asio5error17get_misc_categoryEvE8instance, 8
_ZZN4asio5error17get_misc_categoryEvE8instance:
	.quad	_ZTVN4asio5error6detail13misc_categoryE+16
	.weak	_ZGVZN4asio5error21get_addrinfo_categoryEvE8instance
	.section	.bss._ZGVZN4asio5error21get_addrinfo_categoryEvE8instance,"awG",@nobits,_ZGVZN4asio5error21get_addrinfo_categoryEvE8instance,comdat
	.align 8
	.type	_ZGVZN4asio5error21get_addrinfo_categoryEvE8instance, @gnu_unique_object
	.size	_ZGVZN4asio5error21get_addrinfo_categoryEvE8instance, 8
_ZGVZN4asio5error21get_addrinfo_categoryEvE8instance:
	.zero	8
	.weak	_ZZN4asio5error21get_addrinfo_categoryEvE8instance
	.section	.data.rel._ZZN4asio5error21get_addrinfo_categoryEvE8instance,"awG",@progbits,_ZZN4asio5error21get_addrinfo_categoryEvE8instance,comdat
	.align 8
	.type	_ZZN4asio5error21get_addrinfo_categoryEvE8instance, @gnu_unique_object
	.size	_ZZN4asio5error21get_addrinfo_categoryEvE8instance, 8
_ZZN4asio5error21get_addrinfo_categoryEvE8instance:
	.quad	_ZTVN4asio5error6detail17addrinfo_categoryE+16
	.weak	_ZGVZN4asio5error18get_netdb_categoryEvE8instance
	.section	.bss._ZGVZN4asio5error18get_netdb_categoryEvE8instance,"awG",@nobits,_ZGVZN4asio5error18get_netdb_categoryEvE8instance,comdat
	.align 8
	.type	_ZGVZN4asio5error18get_netdb_categoryEvE8instance, @gnu_unique_object
	.size	_ZGVZN4asio5error18get_netdb_categoryEvE8instance, 8
_ZGVZN4asio5error18get_netdb_categoryEvE8instance:
	.zero	8
	.weak	_ZZN4asio5error18get_netdb_categoryEvE8instance
	.section	.data.rel._ZZN4asio5error18get_netdb_categoryEvE8instance,"awG",@progbits,_ZZN4asio5error18get_netdb_categoryEvE8instance,comdat
	.align 8
	.type	_ZZN4asio5error18get_netdb_categoryEvE8instance, @gnu_unique_object
	.size	_ZZN4asio5error18get_netdb_categoryEvE8instance, 8
_ZZN4asio5error18get_netdb_categoryEvE8instance:
	.quad	_ZTVN4asio5error6detail14netdb_categoryE+16
	.weak	_ZGVZN4asio15system_categoryEvE8instance
	.section	.bss._ZGVZN4asio15system_categoryEvE8instance,"awG",@nobits,_ZGVZN4asio15system_categoryEvE8instance,comdat
	.align 8
	.type	_ZGVZN4asio15system_categoryEvE8instance, @gnu_unique_object
	.size	_ZGVZN4asio15system_categoryEvE8instance, 8
_ZGVZN4asio15system_categoryEvE8instance:
	.zero	8
	.weak	_ZZN4asio15system_categoryEvE8instance
	.section	.data.rel._ZZN4asio15system_categoryEvE8instance,"awG",@progbits,_ZZN4asio15system_categoryEvE8instance,comdat
	.align 8
	.type	_ZZN4asio15system_categoryEvE8instance, @gnu_unique_object
	.size	_ZZN4asio15system_categoryEvE8instance, 8
_ZZN4asio15system_categoryEvE8instance:
	.quad	_ZTVN4asio6detail15system_categoryE+16
	.weak	_ZN4asio6detail15keyword_tss_ptrINS0_10call_stackINS0_15task_io_serviceENS0_27task_io_service_thread_infoEE7contextEE6value_E
	.section	.tbss._ZN4asio6detail15keyword_tss_ptrINS0_10call_stackINS0_15task_io_serviceENS0_27task_io_service_thread_infoEE7contextEE6value_E,"awTG",@nobits,_ZN4asio6detail15keyword_tss_ptrINS0_10call_stackINS0_15task_io_serviceENS0_27task_io_service_thread_infoEE7contextEE6value_E,comdat
	.align 8
	.type	_ZN4asio6detail15keyword_tss_ptrINS0_10call_stackINS0_15task_io_serviceENS0_27task_io_service_thread_infoEE7contextEE6value_E, @gnu_unique_object
	.size	_ZN4asio6detail15keyword_tss_ptrINS0_10call_stackINS0_15task_io_serviceENS0_27task_io_service_thread_infoEE7contextEE6value_E, 8
_ZN4asio6detail15keyword_tss_ptrINS0_10call_stackINS0_15task_io_serviceENS0_27task_io_service_thread_infoEE7contextEE6value_E:
	.zero	8
	.weakref	_ZL28__gthrw___pthread_key_createPjPFvPvE,__pthread_key_create
	.section	.rodata.cst16,"aM",@progbits,16
	.align 16
.LC5:
	.quad	8028075772644520015
	.quad	7310593917846626414
	.align 16
.LC6:
	.quad	2334381286471394643
	.quad	7959390400869068654
	.align 16
.LC7:
	.quad	8367816086596579155
	.quad	2338616625292734585
	.align 16
.LC8:
	.quad	7234013753529430881
	.quad	8243030355803531634
	.align 16
.LC9:
	.quad	8390045716486254408
	.quad	2891421386351273504
	.align 16
.LC10:
	.quad	7526769937477431150
	.quad	8532478930943832687
	.align 16
.LC11:
	.quad	2340027324477221221
	.quad	7020021577750243169
	.align 16
.LC12:
	.quad	8243123821706831956
	.quad	7809653110584451193
	.align 16
.LC13:
	.quad	2338623170819155049
	.quad	2338324160631043177
	.align 16
.LC14:
	.quad	7311138144931573614
	.quad	7019250824563089696
	.align 16
.LC15:
	.quad	7309955097514876993
	.quad	7809911847770287971
	.align 16
.LC16:
	.quad	2338053693894893669
	.quad	7234314212361855855
	.align 16
.LC17:
	.quad	2334956330985808928
	.quad	7310293695322153316
	.align 16
.LC18:
	.quad	8387231026764149601
	.quad	8245935278387126884
	.align 16
.LC19:
	.quad	2338615488418245701
	.quad	7959390400869068654
	.align 16
.LC20:
	.quad	7166182912791242836
	.quad	7214892426067994994
	.align 16
.LC21:
	.quad	2338616625293649263
	.quad	8031165433303558502
	.align 16
.LC22:
	.quad	7810775711721485344
	.quad	7812726531955123045
	.hidden	DW.ref.__gxx_personality_v0
	.weak	DW.ref.__gxx_personality_v0
	.section	.data.rel.local.DW.ref.__gxx_personality_v0,"awG",@progbits,DW.ref.__gxx_personality_v0,comdat
	.align 8
	.type	DW.ref.__gxx_personality_v0, @object
	.size	DW.ref.__gxx_personality_v0, 8
DW.ref.__gxx_personality_v0:
	.quad	__gxx_personality_v0
	.hidden	__dso_handle
	.ident	"GCC: (Ubuntu 9.4.0-1ubuntu1~20.04.1) 9.4.0"
	.section	.note.GNU-stack,"",@progbits
	.section	.note.gnu.property,"a"
	.align 8
	.long	 1f - 0f
	.long	 4f - 1f
	.long	 5
0:
	.string	 "GNU"
1:
	.align 8
	.long	 0xc0000002
	.long	 3f - 2f
2:
	.long	 0x3
3:
	.align 8
4:
