	.file	"LinkSession.cpp"
	.text
	.section	.rodata._ZNK4asio6detail15system_category4nameEv.str1.1,"aMS",@progbits,1
.LC0:
	.string	"asio.system"
	.section	.text._ZNK4asio6detail15system_category4nameEv,"axG",@progbits,_ZNK4asio6detail15system_category4nameEv,comdat
	.align 2
	.p2align 4
	.weak	_ZNK4asio6detail15system_category4nameEv
	.type	_ZNK4asio6detail15system_category4nameEv, @function
_ZNK4asio6detail15system_category4nameEv:
.LFB2455:
	.cfi_startproc
	endbr64
	leaq	.LC0(%rip), %rax
	ret
	.cfi_endproc
.LFE2455:
	.size	_ZNK4asio6detail15system_category4nameEv, .-_ZNK4asio6detail15system_category4nameEv
	.section	.rodata._ZNK4asio5error6detail14netdb_category4nameEv.str1.1,"aMS",@progbits,1
.LC1:
	.string	"asio.netdb"
	.section	.text._ZNK4asio5error6detail14netdb_category4nameEv,"axG",@progbits,_ZNK4asio5error6detail14netdb_category4nameEv,comdat
	.align 2
	.p2align 4
	.weak	_ZNK4asio5error6detail14netdb_category4nameEv
	.type	_ZNK4asio5error6detail14netdb_category4nameEv, @function
_ZNK4asio5error6detail14netdb_category4nameEv:
.LFB2495:
	.cfi_startproc
	endbr64
	leaq	.LC1(%rip), %rax
	ret
	.cfi_endproc
.LFE2495:
	.size	_ZNK4asio5error6detail14netdb_category4nameEv, .-_ZNK4asio5error6detail14netdb_category4nameEv
	.section	.rodata._ZNK4asio5error6detail17addrinfo_category4nameEv.str1.1,"aMS",@progbits,1
.LC2:
	.string	"asio.addrinfo"
	.section	.text._ZNK4asio5error6detail17addrinfo_category4nameEv,"axG",@progbits,_ZNK4asio5error6detail17addrinfo_category4nameEv,comdat
	.align 2
	.p2align 4
	.weak	_ZNK4asio5error6detail17addrinfo_category4nameEv
	.type	_ZNK4asio5error6detail17addrinfo_category4nameEv, @function
_ZNK4asio5error6detail17addrinfo_category4nameEv:
.LFB2501:
	.cfi_startproc
	endbr64
	leaq	.LC2(%rip), %rax
	ret
	.cfi_endproc
.LFE2501:
	.size	_ZNK4asio5error6detail17addrinfo_category4nameEv, .-_ZNK4asio5error6detail17addrinfo_category4nameEv
	.section	.rodata._ZNK4asio5error6detail13misc_category4nameEv.str1.1,"aMS",@progbits,1
.LC3:
	.string	"asio.misc"
	.section	.text._ZNK4asio5error6detail13misc_category4nameEv,"axG",@progbits,_ZNK4asio5error6detail13misc_category4nameEv,comdat
	.align 2
	.p2align 4
	.weak	_ZNK4asio5error6detail13misc_category4nameEv
	.type	_ZNK4asio5error6detail13misc_category4nameEv, @function
_ZNK4asio5error6detail13misc_category4nameEv:
.LFB2507:
	.cfi_startproc
	endbr64
	leaq	.LC3(%rip), %rax
	ret
	.cfi_endproc
.LFE2507:
	.size	_ZNK4asio5error6detail13misc_category4nameEv, .-_ZNK4asio5error6detail13misc_category4nameEv
	.section	.text._ZN4asio6detail7tss_ptrINS0_10call_stackINS0_15task_io_serviceENS0_27task_io_service_thread_infoEE7contextEED2Ev,"axG",@progbits,_ZN4asio6detail7tss_ptrINS0_10call_stackINS0_15task_io_serviceENS0_27task_io_service_thread_infoEE7contextEED5Ev,comdat
	.align 2
	.p2align 4
	.weak	_ZN4asio6detail7tss_ptrINS0_10call_stackINS0_15task_io_serviceENS0_27task_io_service_thread_infoEE7contextEED2Ev
	.type	_ZN4asio6detail7tss_ptrINS0_10call_stackINS0_15task_io_serviceENS0_27task_io_service_thread_infoEE7contextEED2Ev, @function
_ZN4asio6detail7tss_ptrINS0_10call_stackINS0_15task_io_serviceENS0_27task_io_service_thread_infoEE7contextEED2Ev:
.LFB10339:
	.cfi_startproc
	endbr64
	ret
	.cfi_endproc
.LFE10339:
	.size	_ZN4asio6detail7tss_ptrINS0_10call_stackINS0_15task_io_serviceENS0_27task_io_service_thread_infoEE7contextEED2Ev, .-_ZN4asio6detail7tss_ptrINS0_10call_stackINS0_15task_io_serviceENS0_27task_io_service_thread_infoEE7contextEED2Ev
	.weak	_ZN4asio6detail7tss_ptrINS0_10call_stackINS0_15task_io_serviceENS0_27task_io_service_thread_infoEE7contextEED1Ev
	.set	_ZN4asio6detail7tss_ptrINS0_10call_stackINS0_15task_io_serviceENS0_27task_io_service_thread_infoEE7contextEED1Ev,_ZN4asio6detail7tss_ptrINS0_10call_stackINS0_15task_io_serviceENS0_27task_io_service_thread_infoEE7contextEED2Ev
	.section	.text._ZN4asio6detail10service_idINS0_13epoll_reactorEED2Ev,"axG",@progbits,_ZN4asio6detail10service_idINS0_13epoll_reactorEED5Ev,comdat
	.align 2
	.p2align 4
	.weak	_ZN4asio6detail10service_idINS0_13epoll_reactorEED2Ev
	.type	_ZN4asio6detail10service_idINS0_13epoll_reactorEED2Ev, @function
_ZN4asio6detail10service_idINS0_13epoll_reactorEED2Ev:
.LFB10342:
	.cfi_startproc
	endbr64
	ret
	.cfi_endproc
.LFE10342:
	.size	_ZN4asio6detail10service_idINS0_13epoll_reactorEED2Ev, .-_ZN4asio6detail10service_idINS0_13epoll_reactorEED2Ev
	.weak	_ZN4asio6detail10service_idINS0_13epoll_reactorEED1Ev
	.set	_ZN4asio6detail10service_idINS0_13epoll_reactorEED1Ev,_ZN4asio6detail10service_idINS0_13epoll_reactorEED2Ev
	.section	.text._ZN4asio6detail10service_idINS0_15task_io_serviceEED2Ev,"axG",@progbits,_ZN4asio6detail10service_idINS0_15task_io_serviceEED5Ev,comdat
	.align 2
	.p2align 4
	.weak	_ZN4asio6detail10service_idINS0_15task_io_serviceEED2Ev
	.type	_ZN4asio6detail10service_idINS0_15task_io_serviceEED2Ev, @function
_ZN4asio6detail10service_idINS0_15task_io_serviceEED2Ev:
.LFB10345:
	.cfi_startproc
	endbr64
	ret
	.cfi_endproc
.LFE10345:
	.size	_ZN4asio6detail10service_idINS0_15task_io_serviceEED2Ev, .-_ZN4asio6detail10service_idINS0_15task_io_serviceEED2Ev
	.weak	_ZN4asio6detail10service_idINS0_15task_io_serviceEED1Ev
	.set	_ZN4asio6detail10service_idINS0_15task_io_serviceEED1Ev,_ZN4asio6detail10service_idINS0_15task_io_serviceEED2Ev
	.section	.text._ZN4asio6detail7tss_ptrINS0_10call_stackINS0_14strand_service11strand_implEhE7contextEED2Ev,"axG",@progbits,_ZN4asio6detail7tss_ptrINS0_10call_stackINS0_14strand_service11strand_implEhE7contextEED5Ev,comdat
	.align 2
	.p2align 4
	.weak	_ZN4asio6detail7tss_ptrINS0_10call_stackINS0_14strand_service11strand_implEhE7contextEED2Ev
	.type	_ZN4asio6detail7tss_ptrINS0_10call_stackINS0_14strand_service11strand_implEhE7contextEED2Ev, @function
_ZN4asio6detail7tss_ptrINS0_10call_stackINS0_14strand_service11strand_implEhE7contextEED2Ev:
.LFB10348:
	.cfi_startproc
	endbr64
	ret
	.cfi_endproc
.LFE10348:
	.size	_ZN4asio6detail7tss_ptrINS0_10call_stackINS0_14strand_service11strand_implEhE7contextEED2Ev, .-_ZN4asio6detail7tss_ptrINS0_10call_stackINS0_14strand_service11strand_implEhE7contextEED2Ev
	.weak	_ZN4asio6detail7tss_ptrINS0_10call_stackINS0_14strand_service11strand_implEhE7contextEED1Ev
	.set	_ZN4asio6detail7tss_ptrINS0_10call_stackINS0_14strand_service11strand_implEhE7contextEED1Ev,_ZN4asio6detail7tss_ptrINS0_10call_stackINS0_14strand_service11strand_implEhE7contextEED2Ev
	.section	.text._ZN4asio6detail10service_idINS0_14strand_serviceEED2Ev,"axG",@progbits,_ZN4asio6detail10service_idINS0_14strand_serviceEED5Ev,comdat
	.align 2
	.p2align 4
	.weak	_ZN4asio6detail10service_idINS0_14strand_serviceEED2Ev
	.type	_ZN4asio6detail10service_idINS0_14strand_serviceEED2Ev, @function
_ZN4asio6detail10service_idINS0_14strand_serviceEED2Ev:
.LFB10351:
	.cfi_startproc
	endbr64
	ret
	.cfi_endproc
.LFE10351:
	.size	_ZN4asio6detail10service_idINS0_14strand_serviceEED2Ev, .-_ZN4asio6detail10service_idINS0_14strand_serviceEED2Ev
	.weak	_ZN4asio6detail10service_idINS0_14strand_serviceEED1Ev
	.set	_ZN4asio6detail10service_idINS0_14strand_serviceEED1Ev,_ZN4asio6detail10service_idINS0_14strand_serviceEED2Ev
	.section	.text._ZN4asio6detail15system_categoryD2Ev,"axG",@progbits,_ZN4asio6detail15system_categoryD5Ev,comdat
	.align 2
	.p2align 4
	.weak	_ZN4asio6detail15system_categoryD2Ev
	.type	_ZN4asio6detail15system_categoryD2Ev, @function
_ZN4asio6detail15system_categoryD2Ev:
.LFB10318:
	.cfi_startproc
	endbr64
	movq	_ZTVN4asio6detail15system_categoryE@GOTPCREL(%rip), %rax
	addq	$16, %rax
	movq	%rax, (%rdi)
	jmp	_ZNSt3_V214error_categoryD2Ev@PLT
	.cfi_endproc
.LFE10318:
	.size	_ZN4asio6detail15system_categoryD2Ev, .-_ZN4asio6detail15system_categoryD2Ev
	.weak	_ZN4asio6detail15system_categoryD1Ev
	.set	_ZN4asio6detail15system_categoryD1Ev,_ZN4asio6detail15system_categoryD2Ev
	.section	.text._ZN4asio6detail15system_categoryD0Ev,"axG",@progbits,_ZN4asio6detail15system_categoryD5Ev,comdat
	.align 2
	.p2align 4
	.weak	_ZN4asio6detail15system_categoryD0Ev
	.type	_ZN4asio6detail15system_categoryD0Ev, @function
_ZN4asio6detail15system_categoryD0Ev:
.LFB10320:
	.cfi_startproc
	endbr64
	movq	_ZTVN4asio6detail15system_categoryE@GOTPCREL(%rip), %rax
	pushq	%rbp
	.cfi_def_cfa_offset 16
	.cfi_offset 6, -16
	movq	%rdi, %rbp
	addq	$16, %rax
	movq	%rax, (%rdi)
	call	_ZNSt3_V214error_categoryD2Ev@PLT
	movq	%rbp, %rdi
	movl	$8, %esi
	popq	%rbp
	.cfi_def_cfa_offset 8
	jmp	_ZdlPvm@PLT
	.cfi_endproc
.LFE10320:
	.size	_ZN4asio6detail15system_categoryD0Ev, .-_ZN4asio6detail15system_categoryD0Ev
	.section	.text._ZN4asio5error6detail14netdb_categoryD2Ev,"axG",@progbits,_ZN4asio5error6detail14netdb_categoryD5Ev,comdat
	.align 2
	.p2align 4
	.weak	_ZN4asio5error6detail14netdb_categoryD2Ev
	.type	_ZN4asio5error6detail14netdb_categoryD2Ev, @function
_ZN4asio5error6detail14netdb_categoryD2Ev:
.LFB10306:
	.cfi_startproc
	endbr64
	movq	_ZTVN4asio5error6detail14netdb_categoryE@GOTPCREL(%rip), %rax
	addq	$16, %rax
	movq	%rax, (%rdi)
	jmp	_ZNSt3_V214error_categoryD2Ev@PLT
	.cfi_endproc
.LFE10306:
	.size	_ZN4asio5error6detail14netdb_categoryD2Ev, .-_ZN4asio5error6detail14netdb_categoryD2Ev
	.weak	_ZN4asio5error6detail14netdb_categoryD1Ev
	.set	_ZN4asio5error6detail14netdb_categoryD1Ev,_ZN4asio5error6detail14netdb_categoryD2Ev
	.section	.text._ZN4asio5error6detail14netdb_categoryD0Ev,"axG",@progbits,_ZN4asio5error6detail14netdb_categoryD5Ev,comdat
	.align 2
	.p2align 4
	.weak	_ZN4asio5error6detail14netdb_categoryD0Ev
	.type	_ZN4asio5error6detail14netdb_categoryD0Ev, @function
_ZN4asio5error6detail14netdb_categoryD0Ev:
.LFB10308:
	.cfi_startproc
	endbr64
	movq	_ZTVN4asio5error6detail14netdb_categoryE@GOTPCREL(%rip), %rax
	pushq	%rbp
	.cfi_def_cfa_offset 16
	.cfi_offset 6, -16
	movq	%rdi, %rbp
	addq	$16, %rax
	movq	%rax, (%rdi)
	call	_ZNSt3_V214error_categoryD2Ev@PLT
	movq	%rbp, %rdi
	movl	$8, %esi
	popq	%rbp
	.cfi_def_cfa_offset 8
	jmp	_ZdlPvm@PLT
	.cfi_endproc
.LFE10308:
	.size	_ZN4asio5error6detail14netdb_categoryD0Ev, .-_ZN4asio5error6detail14netdb_categoryD0Ev
	.section	.text._ZN4asio5error6detail17addrinfo_categoryD2Ev,"axG",@progbits,_ZN4asio5error6detail17addrinfo_categoryD5Ev,comdat
	.align 2
	.p2align 4
	.weak	_ZN4asio5error6detail17addrinfo_categoryD2Ev
	.type	_ZN4asio5error6detail17addrinfo_categoryD2Ev, @function
_ZN4asio5error6detail17addrinfo_categoryD2Ev:
.LFB10302:
	.cfi_startproc
	endbr64
	movq	_ZTVN4asio5error6detail17addrinfo_categoryE@GOTPCREL(%rip), %rax
	addq	$16, %rax
	movq	%rax, (%rdi)
	jmp	_ZNSt3_V214error_categoryD2Ev@PLT
	.cfi_endproc
.LFE10302:
	.size	_ZN4asio5error6detail17addrinfo_categoryD2Ev, .-_ZN4asio5error6detail17addrinfo_categoryD2Ev
	.weak	_ZN4asio5error6detail17addrinfo_categoryD1Ev
	.set	_ZN4asio5error6detail17addrinfo_categoryD1Ev,_ZN4asio5error6detail17addrinfo_categoryD2Ev
	.section	.text._ZN4asio5error6detail17addrinfo_categoryD0Ev,"axG",@progbits,_ZN4asio5error6detail17addrinfo_categoryD5Ev,comdat
	.align 2
	.p2align 4
	.weak	_ZN4asio5error6detail17addrinfo_categoryD0Ev
	.type	_ZN4asio5error6detail17addrinfo_categoryD0Ev, @function
_ZN4asio5error6detail17addrinfo_categoryD0Ev:
.LFB10304:
	.cfi_startproc
	endbr64
	movq	_ZTVN4asio5error6detail17addrinfo_categoryE@GOTPCREL(%rip), %rax
	pushq	%rbp
	.cfi_def_cfa_offset 16
	.cfi_offset 6, -16
	movq	%rdi, %rbp
	addq	$16, %rax
	movq	%rax, (%rdi)
	call	_ZNSt3_V214error_categoryD2Ev@PLT
	movq	%rbp, %rdi
	movl	$8, %esi
	popq	%rbp
	.cfi_def_cfa_offset 8
	jmp	_ZdlPvm@PLT
	.cfi_endproc
.LFE10304:
	.size	_ZN4asio5error6detail17addrinfo_categoryD0Ev, .-_ZN4asio5error6detail17addrinfo_categoryD0Ev
	.section	.text._ZN4asio5error6detail13misc_categoryD2Ev,"axG",@progbits,_ZN4asio5error6detail13misc_categoryD5Ev,comdat
	.align 2
	.p2align 4
	.weak	_ZN4asio5error6detail13misc_categoryD2Ev
	.type	_ZN4asio5error6detail13misc_categoryD2Ev, @function
_ZN4asio5error6detail13misc_categoryD2Ev:
.LFB10298:
	.cfi_startproc
	endbr64
	movq	_ZTVN4asio5error6detail13misc_categoryE@GOTPCREL(%rip), %rax
	addq	$16, %rax
	movq	%rax, (%rdi)
	jmp	_ZNSt3_V214error_categoryD2Ev@PLT
	.cfi_endproc
.LFE10298:
	.size	_ZN4asio5error6detail13misc_categoryD2Ev, .-_ZN4asio5error6detail13misc_categoryD2Ev
	.weak	_ZN4asio5error6detail13misc_categoryD1Ev
	.set	_ZN4asio5error6detail13misc_categoryD1Ev,_ZN4asio5error6detail13misc_categoryD2Ev
	.section	.text._ZN4asio5error6detail13misc_categoryD0Ev,"axG",@progbits,_ZN4asio5error6detail13misc_categoryD5Ev,comdat
	.align 2
	.p2align 4
	.weak	_ZN4asio5error6detail13misc_categoryD0Ev
	.type	_ZN4asio5error6detail13misc_categoryD0Ev, @function
_ZN4asio5error6detail13misc_categoryD0Ev:
.LFB10300:
	.cfi_startproc
	endbr64
	movq	_ZTVN4asio5error6detail13misc_categoryE@GOTPCREL(%rip), %rax
	pushq	%rbp
	.cfi_def_cfa_offset 16
	.cfi_offset 6, -16
	movq	%rdi, %rbp
	addq	$16, %rax
	movq	%rax, (%rdi)
	call	_ZNSt3_V214error_categoryD2Ev@PLT
	movq	%rbp, %rdi
	movl	$8, %esi
	popq	%rbp
	.cfi_def_cfa_offset 8
	jmp	_ZdlPvm@PLT
	.cfi_endproc
.LFE10300:
	.size	_ZN4asio5error6detail13misc_categoryD0Ev, .-_ZN4asio5error6detail13misc_categoryD0Ev
	.text
	.align 2
	.p2align 4
	.globl	_ZN8asiodnp311LinkSession13BeginTransmitERKN7openpal6RSliceERN8opendnp312ILinkSessionE
	.type	_ZN8asiodnp311LinkSession13BeginTransmitERKN7openpal6RSliceERN8opendnp312ILinkSessionE, @function
_ZN8asiodnp311LinkSession13BeginTransmitERKN7openpal6RSliceERN8opendnp312ILinkSessionE:
.LFB7868:
	.cfi_startproc
	endbr64
	movq	136(%rdi), %rdi
	cmpq	$0, 40(%rdi)
	je	.L23
	cmpb	$0, 56(%rdi)
	jne	.L23
	cmpb	$0, 58(%rdi)
	jne	.L23
	movq	(%rdi), %rax
	movb	$1, 58(%rdi)
	jmp	*24(%rax)
	.p2align 4,,10
	.p2align 3
.L23:
	ret
	.cfi_endproc
.LFE7868:
	.size	_ZN8asiodnp311LinkSession13BeginTransmitERKN7openpal6RSliceERN8opendnp312ILinkSessionE, .-_ZN8asiodnp311LinkSession13BeginTransmitERKN7openpal6RSliceERN8opendnp312ILinkSessionE
	.section	.rodata._ZNK4asio6detail15system_category7messageB5cxx11Ei.str1.8,"aMS",@progbits,1
	.align 8
.LC4:
	.string	"basic_string::_M_construct null not valid"
	.section	.text._ZNK4asio6detail15system_category7messageB5cxx11Ei,"axG",@progbits,_ZNK4asio6detail15system_category7messageB5cxx11Ei,comdat
	.align 2
	.p2align 4
	.weak	_ZNK4asio6detail15system_category7messageB5cxx11Ei
	.type	_ZNK4asio6detail15system_category7messageB5cxx11Ei, @function
_ZNK4asio6detail15system_category7messageB5cxx11Ei:
.LFB2456:
	.cfi_startproc
	endbr64
	pushq	%r14
	.cfi_def_cfa_offset 16
	.cfi_offset 14, -16
	pushq	%r13
	.cfi_def_cfa_offset 24
	.cfi_offset 13, -24
	pushq	%r12
	.cfi_def_cfa_offset 32
	.cfi_offset 12, -32
	movq	%rdi, %r12
	pushq	%rbp
	.cfi_def_cfa_offset 40
	.cfi_offset 6, -40
	leaq	16(%rdi), %rbp
	subq	$296, %rsp
	.cfi_def_cfa_offset 336
	movq	%fs:40, %rax
	movq	%rax, 280(%rsp)
	xorl	%eax, %eax
	cmpl	$125, %edx
	je	.L38
	pxor	%xmm0, %xmm0
	movl	%edx, %edi
	leaq	16(%rsp), %rsi
	movl	$256, %edx
	movaps	%xmm0, 16(%rsp)
	movaps	%xmm0, 32(%rsp)
	movaps	%xmm0, 48(%rsp)
	movaps	%xmm0, 64(%rsp)
	movaps	%xmm0, 80(%rsp)
	movaps	%xmm0, 96(%rsp)
	movaps	%xmm0, 112(%rsp)
	movaps	%xmm0, 128(%rsp)
	movaps	%xmm0, 144(%rsp)
	movaps	%xmm0, 160(%rsp)
	movaps	%xmm0, 176(%rsp)
	movaps	%xmm0, 192(%rsp)
	movaps	%xmm0, 208(%rsp)
	movaps	%xmm0, 224(%rsp)
	movaps	%xmm0, 240(%rsp)
	movaps	%xmm0, 256(%rsp)
	call	strerror_r@PLT
	movq	%rbp, (%r12)
	movq	%rax, %r14
	testq	%rax, %rax
	je	.L39
	movq	%rax, %rdi
	call	strlen@PLT
	movq	%rax, 8(%rsp)
	movq	%rax, %r13
	cmpq	$15, %rax
	ja	.L40
	cmpq	$1, %rax
	jne	.L31
	movzbl	(%r14), %edx
	movb	%dl, 16(%r12)
.L32:
	movq	%rax, 8(%r12)
	movb	$0, 0(%rbp,%rax)
.L25:
	movq	280(%rsp), %rax
	xorq	%fs:40, %rax
	jne	.L41
	addq	$296, %rsp
	.cfi_remember_state
	.cfi_def_cfa_offset 40
	movq	%r12, %rax
	popq	%rbp
	.cfi_def_cfa_offset 32
	popq	%r12
	.cfi_def_cfa_offset 24
	popq	%r13
	.cfi_def_cfa_offset 16
	popq	%r14
	.cfi_def_cfa_offset 8
	ret
	.p2align 4,,10
	.p2align 3
.L40:
	.cfi_restore_state
	leaq	8(%rsp), %rsi
	xorl	%edx, %edx
	movq	%r12, %rdi
	call	_ZNSt7__cxx1112basic_stringIcSt11char_traitsIcESaIcEE9_M_createERmm@PLT
	movq	%rax, (%r12)
	movq	%rax, %rbp
	movq	8(%rsp), %rax
	movq	%rax, 16(%r12)
.L30:
	movq	%rbp, %rdi
	movq	%r13, %rdx
	movq	%r14, %rsi
	call	memcpy@PLT
	movq	8(%rsp), %rax
	movq	(%r12), %rbp
	jmp	.L32
	.p2align 4,,10
	.p2align 3
.L38:
	movq	%rbp, (%rdi)
	xorl	%edx, %edx
	leaq	8(%rsp), %rsi
	movq	$18, 8(%rsp)
	call	_ZNSt7__cxx1112basic_stringIcSt11char_traitsIcESaIcEE9_M_createERmm@PLT
	movq	8(%rsp), %rdx
	movdqa	.LC5(%rip), %xmm0
	movq	%rax, (%r12)
	movq	%rdx, 16(%r12)
	movl	$11876, %edx
	movw	%dx, 16(%rax)
	movups	%xmm0, (%rax)
	movq	8(%rsp), %rax
	movq	(%r12), %rdx
	movq	%rax, 8(%r12)
	movb	$0, (%rdx,%rax)
	jmp	.L25
	.p2align 4,,10
	.p2align 3
.L31:
	testq	%rax, %rax
	je	.L32
	jmp	.L30
	.p2align 4,,10
	.p2align 3
.L39:
	leaq	.LC4(%rip), %rdi
	call	_ZSt19__throw_logic_errorPKc@PLT
.L41:
	call	__stack_chk_fail@PLT
	.cfi_endproc
.LFE2456:
	.size	_ZNK4asio6detail15system_category7messageB5cxx11Ei, .-_ZNK4asio6detail15system_category7messageB5cxx11Ei
	.section	.text._ZNK4asio5error6detail17addrinfo_category7messageB5cxx11Ei,"axG",@progbits,_ZNK4asio5error6detail17addrinfo_category7messageB5cxx11Ei,comdat
	.align 2
	.p2align 4
	.weak	_ZNK4asio5error6detail17addrinfo_category7messageB5cxx11Ei
	.type	_ZNK4asio5error6detail17addrinfo_category7messageB5cxx11Ei, @function
_ZNK4asio5error6detail17addrinfo_category7messageB5cxx11Ei:
.LFB2502:
	.cfi_startproc
	endbr64
	pushq	%r12
	.cfi_def_cfa_offset 16
	.cfi_offset 12, -16
	movq	%rdi, %r12
	subq	$16, %rsp
	.cfi_def_cfa_offset 32
	movq	%fs:40, %rax
	movq	%rax, 8(%rsp)
	xorl	%eax, %eax
	leaq	16(%rdi), %rax
	movq	%rax, (%rdi)
	cmpl	$-8, %edx
	je	.L48
	cmpl	$-7, %edx
	je	.L49
	xorl	%edx, %edx
	movq	%rsp, %rsi
	movq	$19, (%rsp)
	call	_ZNSt7__cxx1112basic_stringIcSt11char_traitsIcESaIcEE9_M_createERmm@PLT
	movq	(%rsp), %rdx
	movdqa	.LC8(%rip), %xmm0
	movq	%rax, (%r12)
	movq	%rdx, 16(%r12)
	movl	$28530, %edx
	movw	%dx, 16(%rax)
	movb	$114, 18(%rax)
	movups	%xmm0, (%rax)
	movq	(%rsp), %rax
	movq	(%r12), %rdx
	movq	%rax, 8(%r12)
	movb	$0, (%rdx,%rax)
.L42:
	movq	8(%rsp), %rax
	xorq	%fs:40, %rax
	jne	.L50
	addq	$16, %rsp
	.cfi_remember_state
	.cfi_def_cfa_offset 16
	movq	%r12, %rax
	popq	%r12
	.cfi_def_cfa_offset 8
	ret
	.p2align 4,,10
	.p2align 3
.L49:
	.cfi_restore_state
	xorl	%edx, %edx
	movq	%rsp, %rsi
	movq	$25, (%rsp)
	call	_ZNSt7__cxx1112basic_stringIcSt11char_traitsIcESaIcEE9_M_createERmm@PLT
	movq	(%rsp), %rdx
	movdqa	.LC7(%rip), %xmm0
	movabsq	$7310593918082512243, %rcx
	movq	%rax, (%r12)
	movq	%rdx, 16(%r12)
	movq	%rcx, 16(%rax)
	movb	$100, 24(%rax)
	movups	%xmm0, (%rax)
	movq	(%rsp), %rax
	movq	(%r12), %rdx
	movq	%rax, 8(%r12)
	movb	$0, (%rdx,%rax)
	jmp	.L42
	.p2align 4,,10
	.p2align 3
.L48:
	xorl	%edx, %edx
	movq	%rsp, %rsi
	movq	$17, (%rsp)
	call	_ZNSt7__cxx1112basic_stringIcSt11char_traitsIcESaIcEE9_M_createERmm@PLT
	movq	(%rsp), %rdx
	movdqa	.LC6(%rip), %xmm0
	movq	%rax, (%r12)
	movq	%rdx, 16(%r12)
	movb	$100, 16(%rax)
	movups	%xmm0, (%rax)
	movq	(%rsp), %rax
	movq	(%r12), %rdx
	movq	%rax, 8(%r12)
	movb	$0, (%rdx,%rax)
	jmp	.L42
.L50:
	call	__stack_chk_fail@PLT
	.cfi_endproc
.LFE2502:
	.size	_ZNK4asio5error6detail17addrinfo_category7messageB5cxx11Ei, .-_ZNK4asio5error6detail17addrinfo_category7messageB5cxx11Ei
	.section	.text._ZNK4asio5error6detail13misc_category7messageB5cxx11Ei,"axG",@progbits,_ZNK4asio5error6detail13misc_category7messageB5cxx11Ei,comdat
	.align 2
	.p2align 4
	.weak	_ZNK4asio5error6detail13misc_category7messageB5cxx11Ei
	.type	_ZNK4asio5error6detail13misc_category7messageB5cxx11Ei, @function
_ZNK4asio5error6detail13misc_category7messageB5cxx11Ei:
.LFB2508:
	.cfi_startproc
	endbr64
	pushq	%r12
	.cfi_def_cfa_offset 16
	.cfi_offset 12, -16
	movq	%rdi, %r12
	subq	$16, %rsp
	.cfi_def_cfa_offset 32
	movq	%fs:40, %rax
	movq	%rax, 8(%rsp)
	xorl	%eax, %eax
	leaq	16(%rdi), %rax
	movq	%rax, (%rdi)
	cmpl	$1, %edx
	je	.L59
	cmpl	$2, %edx
	je	.L60
	cmpl	$3, %edx
	je	.L61
	cmpl	$4, %edx
	je	.L62
	movabsq	$8316298233121436513, %rcx
	movl	$28530, %edx
	movq	%rcx, 16(%rdi)
	movl	$1919230051, 8(%rax)
	movw	%dx, 12(%rax)
	movb	$114, 14(%rax)
	movq	$15, 8(%rdi)
	movb	$0, 31(%rdi)
.L51:
	movq	8(%rsp), %rax
	xorq	%fs:40, %rax
	jne	.L63
	addq	$16, %rsp
	.cfi_remember_state
	.cfi_def_cfa_offset 16
	movq	%r12, %rax
	popq	%r12
	.cfi_def_cfa_offset 8
	ret
	.p2align 4,,10
	.p2align 3
.L59:
	.cfi_restore_state
	movabsq	$2340011850872286273, %rcx
	movq	%rcx, 16(%rdi)
	movl	$1852141679, 8(%rax)
	movq	$12, 8(%rdi)
	movb	$0, 28(%rdi)
	jmp	.L51
	.p2align 4,,10
	.p2align 3
.L62:
	movq	%rsp, %rsi
	xorl	%edx, %edx
	movq	$57, (%rsp)
	call	_ZNSt7__cxx1112basic_stringIcSt11char_traitsIcESaIcEE9_M_createERmm@PLT
	movq	(%rsp), %rdx
	movdqa	.LC10(%rip), %xmm0
	movabsq	$7310291504967217959, %rsi
	movq	%rax, (%r12)
	movq	%rdx, 16(%r12)
	movups	%xmm0, (%rax)
	movdqa	.LC11(%rip), %xmm0
	movq	%rsi, 48(%rax)
	movups	%xmm0, 16(%rax)
	movdqa	.LC12(%rip), %xmm0
	movb	$116, 56(%rax)
	movups	%xmm0, 32(%rax)
	movq	(%rsp), %rax
	movq	(%r12), %rdx
	movq	%rax, 8(%r12)
	movb	$0, (%rdx,%rax)
	jmp	.L51
	.p2align 4,,10
	.p2align 3
.L60:
	movabsq	$7358994418594246213, %rcx
	movq	%rcx, 16(%rdi)
	movl	$27753, %ecx
	movw	%cx, 8(%rax)
	movb	$101, 10(%rax)
	movq	$11, 8(%rdi)
	movb	$0, 27(%rdi)
	jmp	.L51
	.p2align 4,,10
	.p2align 3
.L61:
	xorl	%edx, %edx
	movq	%rsp, %rsi
	movq	$17, (%rsp)
	call	_ZNSt7__cxx1112basic_stringIcSt11char_traitsIcESaIcEE9_M_createERmm@PLT
	movq	(%rsp), %rdx
	movdqa	.LC9(%rip), %xmm0
	movq	%rax, (%r12)
	movq	%rdx, 16(%r12)
	movb	$100, 16(%rax)
	movups	%xmm0, (%rax)
	movq	(%rsp), %rax
	movq	(%r12), %rdx
	movq	%rax, 8(%r12)
	movb	$0, (%rdx,%rax)
	jmp	.L51
.L63:
	call	__stack_chk_fail@PLT
	.cfi_endproc
.LFE2508:
	.size	_ZNK4asio5error6detail13misc_category7messageB5cxx11Ei, .-_ZNK4asio5error6detail13misc_category7messageB5cxx11Ei
	.section	.text._ZNK4asio5error6detail14netdb_category7messageB5cxx11Ei,"axG",@progbits,_ZNK4asio5error6detail14netdb_category7messageB5cxx11Ei,comdat
	.align 2
	.p2align 4
	.weak	_ZNK4asio5error6detail14netdb_category7messageB5cxx11Ei
	.type	_ZNK4asio5error6detail14netdb_category7messageB5cxx11Ei, @function
_ZNK4asio5error6detail14netdb_category7messageB5cxx11Ei:
.LFB2496:
	.cfi_startproc
	endbr64
	pushq	%r12
	.cfi_def_cfa_offset 16
	.cfi_offset 12, -16
	movq	%rdi, %r12
	subq	$16, %rsp
	.cfi_def_cfa_offset 32
	movq	%fs:40, %rax
	movq	%rax, 8(%rsp)
	xorl	%eax, %eax
	leaq	16(%rdi), %rax
	movq	%rax, (%rdi)
	cmpl	$1, %edx
	je	.L72
	cmpl	$2, %edx
	je	.L73
	cmpl	$4, %edx
	je	.L74
	cmpl	$3, %edx
	je	.L75
	xorl	%edx, %edx
	movq	%rsp, %rsi
	movq	$16, (%rsp)
	call	_ZNSt7__cxx1112basic_stringIcSt11char_traitsIcESaIcEE9_M_createERmm@PLT
	movq	(%rsp), %rdx
	movdqa	.LC22(%rip), %xmm0
	movq	%rax, (%r12)
	movq	%rdx, 16(%r12)
	movups	%xmm0, (%rax)
	movq	(%rsp), %rax
	movq	(%r12), %rdx
	movq	%rax, 8(%r12)
	movb	$0, (%rdx,%rax)
.L64:
	movq	8(%rsp), %rax
	xorq	%fs:40, %rax
	jne	.L76
	addq	$16, %rsp
	.cfi_remember_state
	.cfi_def_cfa_offset 16
	movq	%r12, %rax
	popq	%r12
	.cfi_def_cfa_offset 8
	ret
	.p2align 4,,10
	.p2align 3
.L72:
	.cfi_restore_state
	movq	%rsp, %rsi
	xorl	%edx, %edx
	movq	$30, (%rsp)
	call	_ZNSt7__cxx1112basic_stringIcSt11char_traitsIcESaIcEE9_M_createERmm@PLT
	movq	(%rsp), %rdx
	movl	$10597, %esi
	movdqa	.LC13(%rip), %xmm0
	movabsq	$8388361603773658465, %rcx
	movq	%rax, (%r12)
	movq	%rdx, 16(%r12)
	movq	%rcx, 16(%rax)
	movl	$1986622561, 24(%rax)
	movw	%si, 28(%rax)
	movups	%xmm0, (%rax)
	movq	(%rsp), %rax
	movq	(%r12), %rdx
	movq	%rax, 8(%r12)
	movb	$0, (%rdx,%rax)
	jmp	.L64
	.p2align 4,,10
	.p2align 3
.L75:
	xorl	%edx, %edx
	movq	%rsp, %rsi
	movq	$55, (%rsp)
	call	_ZNSt7__cxx1112basic_stringIcSt11char_traitsIcESaIcEE9_M_createERmm@PLT
	movq	(%rsp), %rdx
	movdqa	.LC19(%rip), %xmm0
	movq	%rax, (%r12)
	movq	%rdx, 16(%r12)
	movl	$30059, %edx
	movups	%xmm0, (%rax)
	movdqa	.LC20(%rip), %xmm0
	movl	$1869573152, 48(%rax)
	movups	%xmm0, 16(%rax)
	movdqa	.LC21(%rip), %xmm0
	movw	%dx, 52(%rax)
	movb	$112, 54(%rax)
	movups	%xmm0, 32(%rax)
	movq	(%rsp), %rax
	movq	(%r12), %rdx
	movq	%rax, 8(%r12)
	movb	$0, (%rdx,%rax)
	jmp	.L64
	.p2align 4,,10
	.p2align 3
.L73:
	xorl	%edx, %edx
	movq	%rsp, %rsi
	movq	$51, (%rsp)
	call	_ZNSt7__cxx1112basic_stringIcSt11char_traitsIcESaIcEE9_M_createERmm@PLT
	movq	(%rsp), %rdx
	movl	$25972, %ecx
	movdqa	.LC13(%rip), %xmm0
	movq	%rax, (%r12)
	movq	%rdx, 16(%r12)
	movups	%xmm0, (%rax)
	movdqa	.LC14(%rip), %xmm0
	movw	%cx, 48(%rax)
	movups	%xmm0, 16(%rax)
	movdqa	.LC15(%rip), %xmm0
	movb	$114, 50(%rax)
	movups	%xmm0, 32(%rax)
	movq	(%rsp), %rax
	movq	(%r12), %rdx
	movq	%rax, 8(%r12)
	movb	$0, (%rdx,%rax)
	jmp	.L64
	.p2align 4,,10
	.p2align 3
.L74:
	xorl	%edx, %edx
	movq	%rsp, %rsi
	movq	$56, (%rsp)
	call	_ZNSt7__cxx1112basic_stringIcSt11char_traitsIcESaIcEE9_M_createERmm@PLT
	movq	(%rsp), %rdx
	movdqa	.LC16(%rip), %xmm0
	movabsq	$7022344801645520244, %rcx
	movq	%rax, (%r12)
	movq	%rdx, 16(%r12)
	movups	%xmm0, (%rax)
	movdqa	.LC17(%rip), %xmm0
	movq	%rcx, 48(%rax)
	movups	%xmm0, 16(%rax)
	movdqa	.LC18(%rip), %xmm0
	movups	%xmm0, 32(%rax)
	movq	(%rsp), %rax
	movq	(%r12), %rdx
	movq	%rax, 8(%r12)
	movb	$0, (%rdx,%rax)
	jmp	.L64
.L76:
	call	__stack_chk_fail@PLT
	.cfi_endproc
.LFE2496:
	.size	_ZNK4asio5error6detail14netdb_category7messageB5cxx11Ei, .-_ZNK4asio5error6detail14netdb_category7messageB5cxx11Ei
	.section	.text._ZN8asiodnp311LinkSessionD0Ev,"axG",@progbits,_ZN8asiodnp311LinkSessionD5Ev,comdat
	.p2align 4
	.weak	_ZThn48_N8asiodnp311LinkSessionD0Ev
	.type	_ZThn48_N8asiodnp311LinkSessionD0Ev, @function
_ZThn48_N8asiodnp311LinkSessionD0Ev:
.LFB10573:
	.cfi_startproc
	endbr64
	pushq	%r13
	.cfi_def_cfa_offset 16
	.cfi_offset 13, -16
	leaq	-48(%rdi), %r13
	pushq	%r12
	.cfi_def_cfa_offset 24
	.cfi_offset 12, -24
	pushq	%rbp
	.cfi_def_cfa_offset 32
	.cfi_offset 6, -32
	pushq	%rbx
	.cfi_def_cfa_offset 40
	.cfi_offset 3, -40
	movq	%rdi, %rbx
	subq	$8, %rsp
	.cfi_def_cfa_offset 48
	movq	_ZTVN8asiodnp311LinkSessionE@GOTPCREL(%rip), %rax
	movq	552(%rdi), %r12
	leaq	96(%rax), %rdx
	leaq	16(%rax), %rcx
	movq	%rdx, %xmm1
	movq	%rcx, %xmm0
	leaq	144(%rax), %rdx
	punpcklqdq	%xmm1, %xmm0
	movq	%rdx, -32(%rdi)
	leaq	224(%rax), %rdx
	addq	$184, %rax
	movups	%xmm0, -48(%rdi)
	movq	%rdx, %xmm2
	movq	%rax, %xmm0
	punpcklqdq	%xmm2, %xmm0
	movups	%xmm0, -8(%rdi)
	testq	%r12, %r12
	je	.L79
	movq	_ZL28__gthrw___pthread_key_createPjPFvPvE@GOTPCREL(%rip), %rbp
	testq	%rbp, %rbp
	je	.L80
	movl	$-1, %eax
	lock xaddl	%eax, 8(%r12)
	cmpl	$1, %eax
	je	.L140
	.p2align 4,,10
	.p2align 3
.L79:
	leaq	520(%rbx), %rdi
	call	_ZN7openpal8TimerRefD1Ev@PLT
	movq	128(%rbx), %r12
	testq	%r12, %r12
	je	.L86
	movq	_ZL28__gthrw___pthread_key_createPjPFvPvE@GOTPCREL(%rip), %rbp
	testq	%rbp, %rbp
	je	.L87
	movl	$-1, %eax
	lock xaddl	%eax, 8(%r12)
	cmpl	$1, %eax
	je	.L141
	.p2align 4,,10
	.p2align 3
.L86:
	movq	112(%rbx), %r12
	testq	%r12, %r12
	je	.L93
	movq	_ZL28__gthrw___pthread_key_createPjPFvPvE@GOTPCREL(%rip), %rbp
	testq	%rbp, %rbp
	je	.L94
	movl	$-1, %eax
	lock xaddl	%eax, 8(%r12)
	cmpl	$1, %eax
	je	.L142
	.p2align 4,,10
	.p2align 3
.L93:
	movq	96(%rbx), %r12
	testq	%r12, %r12
	je	.L100
	movq	_ZL28__gthrw___pthread_key_createPjPFvPvE@GOTPCREL(%rip), %rbp
	testq	%rbp, %rbp
	je	.L101
	movl	$-1, %eax
	lock xaddl	%eax, 8(%r12)
	cmpl	$1, %eax
	je	.L143
	.p2align 4,,10
	.p2align 3
.L100:
	movq	80(%rbx), %r12
	testq	%r12, %r12
	je	.L107
	movq	_ZL28__gthrw___pthread_key_createPjPFvPvE@GOTPCREL(%rip), %rbp
	testq	%rbp, %rbp
	je	.L108
	movl	$-1, %eax
	lock xaddl	%eax, 8(%r12)
	cmpl	$1, %eax
	je	.L144
	.p2align 4,,10
	.p2align 3
.L107:
	movq	64(%rbx), %r12
	testq	%r12, %r12
	je	.L114
	movq	_ZL28__gthrw___pthread_key_createPjPFvPvE@GOTPCREL(%rip), %rbp
	testq	%rbp, %rbp
	je	.L115
	movl	$-1, %eax
	lock xaddl	%eax, 8(%r12)
	cmpl	$1, %eax
	je	.L145
	.p2align 4,,10
	.p2align 3
.L114:
	movq	40(%rbx), %r12
	testq	%r12, %r12
	je	.L121
	movq	_ZL28__gthrw___pthread_key_createPjPFvPvE@GOTPCREL(%rip), %rbp
	testq	%rbp, %rbp
	je	.L122
	movl	$-1, %eax
	lock xaddl	%eax, 8(%r12)
	cmpl	$1, %eax
	je	.L146
	.p2align 4,,10
	.p2align 3
.L121:
	movq	24(%rbx), %r12
	testq	%r12, %r12
	je	.L128
	movq	_ZL28__gthrw___pthread_key_createPjPFvPvE@GOTPCREL(%rip), %rbp
	testq	%rbp, %rbp
	je	.L129
	movl	$-1, %eax
	lock xaddl	%eax, 8(%r12)
	cmpl	$1, %eax
	je	.L147
	.p2align 4,,10
	.p2align 3
.L128:
	movq	-16(%rbx), %rdi
	testq	%rdi, %rdi
	je	.L135
	cmpq	$0, _ZL28__gthrw___pthread_key_createPjPFvPvE@GOTPCREL(%rip)
	je	.L136
	movl	$-1, %eax
	lock xaddl	%eax, 12(%rdi)
	cmpl	$1, %eax
	je	.L148
.L135:
	addq	$8, %rsp
	.cfi_remember_state
	.cfi_def_cfa_offset 40
	movq	%r13, %rdi
	movl	$608, %esi
	popq	%rbx
	.cfi_def_cfa_offset 32
	popq	%rbp
	.cfi_def_cfa_offset 24
	popq	%r12
	.cfi_def_cfa_offset 16
	popq	%r13
	.cfi_def_cfa_offset 8
	jmp	_ZdlPvm@PLT
	.p2align 4,,10
	.p2align 3
.L136:
	.cfi_restore_state
	movl	12(%rdi), %eax
	leal	-1(%rax), %edx
	movl	%edx, 12(%rdi)
	cmpl	$1, %eax
	jne	.L135
.L148:
	movq	(%rdi), %rax
	call	*24(%rax)
	jmp	.L135
	.p2align 4,,10
	.p2align 3
.L101:
	movl	8(%r12), %eax
	leal	-1(%rax), %edx
	movl	%edx, 8(%r12)
	cmpl	$1, %eax
	jne	.L100
.L143:
	movq	(%r12), %rax
	movq	%r12, %rdi
	call	*16(%rax)
	testq	%rbp, %rbp
	je	.L104
	movl	$-1, %eax
	lock xaddl	%eax, 12(%r12)
.L105:
	cmpl	$1, %eax
	jne	.L100
	movq	(%r12), %rax
	movq	%r12, %rdi
	call	*24(%rax)
	jmp	.L100
	.p2align 4,,10
	.p2align 3
.L94:
	movl	8(%r12), %eax
	leal	-1(%rax), %edx
	movl	%edx, 8(%r12)
	cmpl	$1, %eax
	jne	.L93
.L142:
	movq	(%r12), %rax
	movq	%r12, %rdi
	call	*16(%rax)
	testq	%rbp, %rbp
	je	.L97
	movl	$-1, %eax
	lock xaddl	%eax, 12(%r12)
.L98:
	cmpl	$1, %eax
	jne	.L93
	movq	(%r12), %rax
	movq	%r12, %rdi
	call	*24(%rax)
	jmp	.L93
	.p2align 4,,10
	.p2align 3
.L87:
	movl	8(%r12), %eax
	leal	-1(%rax), %edx
	movl	%edx, 8(%r12)
	cmpl	$1, %eax
	jne	.L86
.L141:
	movq	(%r12), %rax
	movq	%r12, %rdi
	call	*16(%rax)
	testq	%rbp, %rbp
	je	.L90
	movl	$-1, %eax
	lock xaddl	%eax, 12(%r12)
.L91:
	cmpl	$1, %eax
	jne	.L86
	movq	(%r12), %rax
	movq	%r12, %rdi
	call	*24(%rax)
	jmp	.L86
	.p2align 4,,10
	.p2align 3
.L80:
	movl	8(%r12), %eax
	leal	-1(%rax), %edx
	movl	%edx, 8(%r12)
	cmpl	$1, %eax
	jne	.L79
.L140:
	movq	(%r12), %rax
	movq	%r12, %rdi
	call	*16(%rax)
	testq	%rbp, %rbp
	je	.L83
	movl	$-1, %eax
	lock xaddl	%eax, 12(%r12)
.L84:
	cmpl	$1, %eax
	jne	.L79
	movq	(%r12), %rax
	movq	%r12, %rdi
	call	*24(%rax)
	jmp	.L79
	.p2align 4,,10
	.p2align 3
.L129:
	movl	8(%r12), %eax
	leal	-1(%rax), %edx
	movl	%edx, 8(%r12)
	cmpl	$1, %eax
	jne	.L128
.L147:
	movq	(%r12), %rax
	movq	%r12, %rdi
	call	*16(%rax)
	testq	%rbp, %rbp
	je	.L132
	movl	$-1, %eax
	lock xaddl	%eax, 12(%r12)
.L133:
	cmpl	$1, %eax
	jne	.L128
	movq	(%r12), %rax
	movq	%r12, %rdi
	call	*24(%rax)
	jmp	.L128
	.p2align 4,,10
	.p2align 3
.L122:
	movl	8(%r12), %eax
	leal	-1(%rax), %edx
	movl	%edx, 8(%r12)
	cmpl	$1, %eax
	jne	.L121
.L146:
	movq	(%r12), %rax
	movq	%r12, %rdi
	call	*16(%rax)
	testq	%rbp, %rbp
	je	.L125
	movl	$-1, %eax
	lock xaddl	%eax, 12(%r12)
.L126:
	cmpl	$1, %eax
	jne	.L121
	movq	(%r12), %rax
	movq	%r12, %rdi
	call	*24(%rax)
	jmp	.L121
	.p2align 4,,10
	.p2align 3
.L115:
	movl	8(%r12), %eax
	leal	-1(%rax), %edx
	movl	%edx, 8(%r12)
	cmpl	$1, %eax
	jne	.L114
.L145:
	movq	(%r12), %rax
	movq	%r12, %rdi
	call	*16(%rax)
	testq	%rbp, %rbp
	je	.L118
	movl	$-1, %eax
	lock xaddl	%eax, 12(%r12)
.L119:
	cmpl	$1, %eax
	jne	.L114
	movq	(%r12), %rax
	movq	%r12, %rdi
	call	*24(%rax)
	jmp	.L114
	.p2align 4,,10
	.p2align 3
.L108:
	movl	8(%r12), %eax
	leal	-1(%rax), %edx
	movl	%edx, 8(%r12)
	cmpl	$1, %eax
	jne	.L107
.L144:
	movq	(%r12), %rax
	movq	%r12, %rdi
	call	*16(%rax)
	testq	%rbp, %rbp
	je	.L111
	movl	$-1, %eax
	lock xaddl	%eax, 12(%r12)
.L112:
	cmpl	$1, %eax
	jne	.L107
	movq	(%r12), %rax
	movq	%r12, %rdi
	call	*24(%rax)
	jmp	.L107
	.p2align 4,,10
	.p2align 3
.L83:
	movl	12(%r12), %eax
	leal	-1(%rax), %edx
	movl	%edx, 12(%r12)
	jmp	.L84
	.p2align 4,,10
	.p2align 3
.L132:
	movl	12(%r12), %eax
	leal	-1(%rax), %edx
	movl	%edx, 12(%r12)
	jmp	.L133
	.p2align 4,,10
	.p2align 3
.L118:
	movl	12(%r12), %eax
	leal	-1(%rax), %edx
	movl	%edx, 12(%r12)
	jmp	.L119
	.p2align 4,,10
	.p2align 3
.L125:
	movl	12(%r12), %eax
	leal	-1(%rax), %edx
	movl	%edx, 12(%r12)
	jmp	.L126
	.p2align 4,,10
	.p2align 3
.L90:
	movl	12(%r12), %eax
	leal	-1(%rax), %edx
	movl	%edx, 12(%r12)
	jmp	.L91
	.p2align 4,,10
	.p2align 3
.L97:
	movl	12(%r12), %eax
	leal	-1(%rax), %edx
	movl	%edx, 12(%r12)
	jmp	.L98
	.p2align 4,,10
	.p2align 3
.L104:
	movl	12(%r12), %eax
	leal	-1(%rax), %edx
	movl	%edx, 12(%r12)
	jmp	.L105
	.p2align 4,,10
	.p2align 3
.L111:
	movl	12(%r12), %eax
	leal	-1(%rax), %edx
	movl	%edx, 12(%r12)
	jmp	.L112
	.cfi_endproc
.LFE10573:
	.size	_ZThn48_N8asiodnp311LinkSessionD0Ev, .-_ZThn48_N8asiodnp311LinkSessionD0Ev
	.p2align 4
	.weak	_ZThn40_N8asiodnp311LinkSessionD0Ev
	.type	_ZThn40_N8asiodnp311LinkSessionD0Ev, @function
_ZThn40_N8asiodnp311LinkSessionD0Ev:
.LFB10574:
	.cfi_startproc
	endbr64
	pushq	%r13
	.cfi_def_cfa_offset 16
	.cfi_offset 13, -16
	leaq	-40(%rdi), %r13
	pushq	%r12
	.cfi_def_cfa_offset 24
	.cfi_offset 12, -24
	pushq	%rbp
	.cfi_def_cfa_offset 32
	.cfi_offset 6, -32
	pushq	%rbx
	.cfi_def_cfa_offset 40
	.cfi_offset 3, -40
	movq	%rdi, %rbx
	subq	$8, %rsp
	.cfi_def_cfa_offset 48
	movq	_ZTVN8asiodnp311LinkSessionE@GOTPCREL(%rip), %rax
	movq	560(%rdi), %r12
	leaq	96(%rax), %rdx
	leaq	16(%rax), %rcx
	movq	%rdx, %xmm1
	movq	%rcx, %xmm0
	leaq	144(%rax), %rdx
	punpcklqdq	%xmm1, %xmm0
	movq	%rdx, -24(%rdi)
	leaq	224(%rax), %rdx
	addq	$184, %rax
	movups	%xmm0, -40(%rdi)
	movq	%rdx, %xmm2
	movq	%rax, %xmm0
	punpcklqdq	%xmm2, %xmm0
	movups	%xmm0, (%rdi)
	testq	%r12, %r12
	je	.L151
	movq	_ZL28__gthrw___pthread_key_createPjPFvPvE@GOTPCREL(%rip), %rbp
	testq	%rbp, %rbp
	je	.L152
	movl	$-1, %eax
	lock xaddl	%eax, 8(%r12)
	cmpl	$1, %eax
	je	.L212
	.p2align 4,,10
	.p2align 3
.L151:
	leaq	528(%rbx), %rdi
	call	_ZN7openpal8TimerRefD1Ev@PLT
	movq	136(%rbx), %r12
	testq	%r12, %r12
	je	.L158
	movq	_ZL28__gthrw___pthread_key_createPjPFvPvE@GOTPCREL(%rip), %rbp
	testq	%rbp, %rbp
	je	.L159
	movl	$-1, %eax
	lock xaddl	%eax, 8(%r12)
	cmpl	$1, %eax
	je	.L213
	.p2align 4,,10
	.p2align 3
.L158:
	movq	120(%rbx), %r12
	testq	%r12, %r12
	je	.L165
	movq	_ZL28__gthrw___pthread_key_createPjPFvPvE@GOTPCREL(%rip), %rbp
	testq	%rbp, %rbp
	je	.L166
	movl	$-1, %eax
	lock xaddl	%eax, 8(%r12)
	cmpl	$1, %eax
	je	.L214
	.p2align 4,,10
	.p2align 3
.L165:
	movq	104(%rbx), %r12
	testq	%r12, %r12
	je	.L172
	movq	_ZL28__gthrw___pthread_key_createPjPFvPvE@GOTPCREL(%rip), %rbp
	testq	%rbp, %rbp
	je	.L173
	movl	$-1, %eax
	lock xaddl	%eax, 8(%r12)
	cmpl	$1, %eax
	je	.L215
	.p2align 4,,10
	.p2align 3
.L172:
	movq	88(%rbx), %r12
	testq	%r12, %r12
	je	.L179
	movq	_ZL28__gthrw___pthread_key_createPjPFvPvE@GOTPCREL(%rip), %rbp
	testq	%rbp, %rbp
	je	.L180
	movl	$-1, %eax
	lock xaddl	%eax, 8(%r12)
	cmpl	$1, %eax
	je	.L216
	.p2align 4,,10
	.p2align 3
.L179:
	movq	72(%rbx), %r12
	testq	%r12, %r12
	je	.L186
	movq	_ZL28__gthrw___pthread_key_createPjPFvPvE@GOTPCREL(%rip), %rbp
	testq	%rbp, %rbp
	je	.L187
	movl	$-1, %eax
	lock xaddl	%eax, 8(%r12)
	cmpl	$1, %eax
	je	.L217
	.p2align 4,,10
	.p2align 3
.L186:
	movq	48(%rbx), %r12
	testq	%r12, %r12
	je	.L193
	movq	_ZL28__gthrw___pthread_key_createPjPFvPvE@GOTPCREL(%rip), %rbp
	testq	%rbp, %rbp
	je	.L194
	movl	$-1, %eax
	lock xaddl	%eax, 8(%r12)
	cmpl	$1, %eax
	je	.L218
	.p2align 4,,10
	.p2align 3
.L193:
	movq	32(%rbx), %r12
	testq	%r12, %r12
	je	.L200
	movq	_ZL28__gthrw___pthread_key_createPjPFvPvE@GOTPCREL(%rip), %rbp
	testq	%rbp, %rbp
	je	.L201
	movl	$-1, %eax
	lock xaddl	%eax, 8(%r12)
	cmpl	$1, %eax
	je	.L219
	.p2align 4,,10
	.p2align 3
.L200:
	movq	-8(%rbx), %rdi
	testq	%rdi, %rdi
	je	.L207
	cmpq	$0, _ZL28__gthrw___pthread_key_createPjPFvPvE@GOTPCREL(%rip)
	je	.L208
	movl	$-1, %eax
	lock xaddl	%eax, 12(%rdi)
	cmpl	$1, %eax
	je	.L220
.L207:
	addq	$8, %rsp
	.cfi_remember_state
	.cfi_def_cfa_offset 40
	movq	%r13, %rdi
	movl	$608, %esi
	popq	%rbx
	.cfi_def_cfa_offset 32
	popq	%rbp
	.cfi_def_cfa_offset 24
	popq	%r12
	.cfi_def_cfa_offset 16
	popq	%r13
	.cfi_def_cfa_offset 8
	jmp	_ZdlPvm@PLT
	.p2align 4,,10
	.p2align 3
.L208:
	.cfi_restore_state
	movl	12(%rdi), %eax
	leal	-1(%rax), %edx
	movl	%edx, 12(%rdi)
	cmpl	$1, %eax
	jne	.L207
.L220:
	movq	(%rdi), %rax
	call	*24(%rax)
	jmp	.L207
	.p2align 4,,10
	.p2align 3
.L173:
	movl	8(%r12), %eax
	leal	-1(%rax), %edx
	movl	%edx, 8(%r12)
	cmpl	$1, %eax
	jne	.L172
.L215:
	movq	(%r12), %rax
	movq	%r12, %rdi
	call	*16(%rax)
	testq	%rbp, %rbp
	je	.L176
	movl	$-1, %eax
	lock xaddl	%eax, 12(%r12)
.L177:
	cmpl	$1, %eax
	jne	.L172
	movq	(%r12), %rax
	movq	%r12, %rdi
	call	*24(%rax)
	jmp	.L172
	.p2align 4,,10
	.p2align 3
.L166:
	movl	8(%r12), %eax
	leal	-1(%rax), %edx
	movl	%edx, 8(%r12)
	cmpl	$1, %eax
	jne	.L165
.L214:
	movq	(%r12), %rax
	movq	%r12, %rdi
	call	*16(%rax)
	testq	%rbp, %rbp
	je	.L169
	movl	$-1, %eax
	lock xaddl	%eax, 12(%r12)
.L170:
	cmpl	$1, %eax
	jne	.L165
	movq	(%r12), %rax
	movq	%r12, %rdi
	call	*24(%rax)
	jmp	.L165
	.p2align 4,,10
	.p2align 3
.L159:
	movl	8(%r12), %eax
	leal	-1(%rax), %edx
	movl	%edx, 8(%r12)
	cmpl	$1, %eax
	jne	.L158
.L213:
	movq	(%r12), %rax
	movq	%r12, %rdi
	call	*16(%rax)
	testq	%rbp, %rbp
	je	.L162
	movl	$-1, %eax
	lock xaddl	%eax, 12(%r12)
.L163:
	cmpl	$1, %eax
	jne	.L158
	movq	(%r12), %rax
	movq	%r12, %rdi
	call	*24(%rax)
	jmp	.L158
	.p2align 4,,10
	.p2align 3
.L152:
	movl	8(%r12), %eax
	leal	-1(%rax), %edx
	movl	%edx, 8(%r12)
	cmpl	$1, %eax
	jne	.L151
.L212:
	movq	(%r12), %rax
	movq	%r12, %rdi
	call	*16(%rax)
	testq	%rbp, %rbp
	je	.L155
	movl	$-1, %eax
	lock xaddl	%eax, 12(%r12)
.L156:
	cmpl	$1, %eax
	jne	.L151
	movq	(%r12), %rax
	movq	%r12, %rdi
	call	*24(%rax)
	jmp	.L151
	.p2align 4,,10
	.p2align 3
.L201:
	movl	8(%r12), %eax
	leal	-1(%rax), %edx
	movl	%edx, 8(%r12)
	cmpl	$1, %eax
	jne	.L200
.L219:
	movq	(%r12), %rax
	movq	%r12, %rdi
	call	*16(%rax)
	testq	%rbp, %rbp
	je	.L204
	movl	$-1, %eax
	lock xaddl	%eax, 12(%r12)
.L205:
	cmpl	$1, %eax
	jne	.L200
	movq	(%r12), %rax
	movq	%r12, %rdi
	call	*24(%rax)
	jmp	.L200
	.p2align 4,,10
	.p2align 3
.L194:
	movl	8(%r12), %eax
	leal	-1(%rax), %edx
	movl	%edx, 8(%r12)
	cmpl	$1, %eax
	jne	.L193
.L218:
	movq	(%r12), %rax
	movq	%r12, %rdi
	call	*16(%rax)
	testq	%rbp, %rbp
	je	.L197
	movl	$-1, %eax
	lock xaddl	%eax, 12(%r12)
.L198:
	cmpl	$1, %eax
	jne	.L193
	movq	(%r12), %rax
	movq	%r12, %rdi
	call	*24(%rax)
	jmp	.L193
	.p2align 4,,10
	.p2align 3
.L187:
	movl	8(%r12), %eax
	leal	-1(%rax), %edx
	movl	%edx, 8(%r12)
	cmpl	$1, %eax
	jne	.L186
.L217:
	movq	(%r12), %rax
	movq	%r12, %rdi
	call	*16(%rax)
	testq	%rbp, %rbp
	je	.L190
	movl	$-1, %eax
	lock xaddl	%eax, 12(%r12)
.L191:
	cmpl	$1, %eax
	jne	.L186
	movq	(%r12), %rax
	movq	%r12, %rdi
	call	*24(%rax)
	jmp	.L186
	.p2align 4,,10
	.p2align 3
.L180:
	movl	8(%r12), %eax
	leal	-1(%rax), %edx
	movl	%edx, 8(%r12)
	cmpl	$1, %eax
	jne	.L179
.L216:
	movq	(%r12), %rax
	movq	%r12, %rdi
	call	*16(%rax)
	testq	%rbp, %rbp
	je	.L183
	movl	$-1, %eax
	lock xaddl	%eax, 12(%r12)
.L184:
	cmpl	$1, %eax
	jne	.L179
	movq	(%r12), %rax
	movq	%r12, %rdi
	call	*24(%rax)
	jmp	.L179
	.p2align 4,,10
	.p2align 3
.L155:
	movl	12(%r12), %eax
	leal	-1(%rax), %edx
	movl	%edx, 12(%r12)
	jmp	.L156
	.p2align 4,,10
	.p2align 3
.L204:
	movl	12(%r12), %eax
	leal	-1(%rax), %edx
	movl	%edx, 12(%r12)
	jmp	.L205
	.p2align 4,,10
	.p2align 3
.L190:
	movl	12(%r12), %eax
	leal	-1(%rax), %edx
	movl	%edx, 12(%r12)
	jmp	.L191
	.p2align 4,,10
	.p2align 3
.L197:
	movl	12(%r12), %eax
	leal	-1(%rax), %edx
	movl	%edx, 12(%r12)
	jmp	.L198
	.p2align 4,,10
	.p2align 3
.L162:
	movl	12(%r12), %eax
	leal	-1(%rax), %edx
	movl	%edx, 12(%r12)
	jmp	.L163
	.p2align 4,,10
	.p2align 3
.L169:
	movl	12(%r12), %eax
	leal	-1(%rax), %edx
	movl	%edx, 12(%r12)
	jmp	.L170
	.p2align 4,,10
	.p2align 3
.L176:
	movl	12(%r12), %eax
	leal	-1(%rax), %edx
	movl	%edx, 12(%r12)
	jmp	.L177
	.p2align 4,,10
	.p2align 3
.L183:
	movl	12(%r12), %eax
	leal	-1(%rax), %edx
	movl	%edx, 12(%r12)
	jmp	.L184
	.cfi_endproc
.LFE10574:
	.size	_ZThn40_N8asiodnp311LinkSessionD0Ev, .-_ZThn40_N8asiodnp311LinkSessionD0Ev
	.p2align 4
	.weak	_ZThn16_N8asiodnp311LinkSessionD0Ev
	.type	_ZThn16_N8asiodnp311LinkSessionD0Ev, @function
_ZThn16_N8asiodnp311LinkSessionD0Ev:
.LFB10575:
	.cfi_startproc
	endbr64
	pushq	%r13
	.cfi_def_cfa_offset 16
	.cfi_offset 13, -16
	leaq	-16(%rdi), %r13
	pushq	%r12
	.cfi_def_cfa_offset 24
	.cfi_offset 12, -24
	pushq	%rbp
	.cfi_def_cfa_offset 32
	.cfi_offset 6, -32
	pushq	%rbx
	.cfi_def_cfa_offset 40
	.cfi_offset 3, -40
	movq	%rdi, %rbx
	subq	$8, %rsp
	.cfi_def_cfa_offset 48
	movq	_ZTVN8asiodnp311LinkSessionE@GOTPCREL(%rip), %rax
	movq	584(%rdi), %r12
	leaq	96(%rax), %rdx
	leaq	16(%rax), %rcx
	movq	%rdx, %xmm1
	movq	%rcx, %xmm0
	leaq	144(%rax), %rdx
	punpcklqdq	%xmm1, %xmm0
	movq	%rdx, (%rdi)
	leaq	224(%rax), %rdx
	addq	$184, %rax
	movups	%xmm0, -16(%rdi)
	movq	%rdx, %xmm2
	movq	%rax, %xmm0
	punpcklqdq	%xmm2, %xmm0
	movups	%xmm0, 24(%rdi)
	testq	%r12, %r12
	je	.L223
	movq	_ZL28__gthrw___pthread_key_createPjPFvPvE@GOTPCREL(%rip), %rbp
	testq	%rbp, %rbp
	je	.L224
	movl	$-1, %eax
	lock xaddl	%eax, 8(%r12)
	cmpl	$1, %eax
	je	.L284
	.p2align 4,,10
	.p2align 3
.L223:
	leaq	552(%rbx), %rdi
	call	_ZN7openpal8TimerRefD1Ev@PLT
	movq	160(%rbx), %r12
	testq	%r12, %r12
	je	.L230
	movq	_ZL28__gthrw___pthread_key_createPjPFvPvE@GOTPCREL(%rip), %rbp
	testq	%rbp, %rbp
	je	.L231
	movl	$-1, %eax
	lock xaddl	%eax, 8(%r12)
	cmpl	$1, %eax
	je	.L285
	.p2align 4,,10
	.p2align 3
.L230:
	movq	144(%rbx), %r12
	testq	%r12, %r12
	je	.L237
	movq	_ZL28__gthrw___pthread_key_createPjPFvPvE@GOTPCREL(%rip), %rbp
	testq	%rbp, %rbp
	je	.L238
	movl	$-1, %eax
	lock xaddl	%eax, 8(%r12)
	cmpl	$1, %eax
	je	.L286
	.p2align 4,,10
	.p2align 3
.L237:
	movq	128(%rbx), %r12
	testq	%r12, %r12
	je	.L244
	movq	_ZL28__gthrw___pthread_key_createPjPFvPvE@GOTPCREL(%rip), %rbp
	testq	%rbp, %rbp
	je	.L245
	movl	$-1, %eax
	lock xaddl	%eax, 8(%r12)
	cmpl	$1, %eax
	je	.L287
	.p2align 4,,10
	.p2align 3
.L244:
	movq	112(%rbx), %r12
	testq	%r12, %r12
	je	.L251
	movq	_ZL28__gthrw___pthread_key_createPjPFvPvE@GOTPCREL(%rip), %rbp
	testq	%rbp, %rbp
	je	.L252
	movl	$-1, %eax
	lock xaddl	%eax, 8(%r12)
	cmpl	$1, %eax
	je	.L288
	.p2align 4,,10
	.p2align 3
.L251:
	movq	96(%rbx), %r12
	testq	%r12, %r12
	je	.L258
	movq	_ZL28__gthrw___pthread_key_createPjPFvPvE@GOTPCREL(%rip), %rbp
	testq	%rbp, %rbp
	je	.L259
	movl	$-1, %eax
	lock xaddl	%eax, 8(%r12)
	cmpl	$1, %eax
	je	.L289
	.p2align 4,,10
	.p2align 3
.L258:
	movq	72(%rbx), %r12
	testq	%r12, %r12
	je	.L265
	movq	_ZL28__gthrw___pthread_key_createPjPFvPvE@GOTPCREL(%rip), %rbp
	testq	%rbp, %rbp
	je	.L266
	movl	$-1, %eax
	lock xaddl	%eax, 8(%r12)
	cmpl	$1, %eax
	je	.L290
	.p2align 4,,10
	.p2align 3
.L265:
	movq	56(%rbx), %r12
	testq	%r12, %r12
	je	.L272
	movq	_ZL28__gthrw___pthread_key_createPjPFvPvE@GOTPCREL(%rip), %rbp
	testq	%rbp, %rbp
	je	.L273
	movl	$-1, %eax
	lock xaddl	%eax, 8(%r12)
	cmpl	$1, %eax
	je	.L291
	.p2align 4,,10
	.p2align 3
.L272:
	movq	16(%rbx), %rdi
	testq	%rdi, %rdi
	je	.L279
	cmpq	$0, _ZL28__gthrw___pthread_key_createPjPFvPvE@GOTPCREL(%rip)
	je	.L280
	movl	$-1, %eax
	lock xaddl	%eax, 12(%rdi)
	cmpl	$1, %eax
	je	.L292
.L279:
	addq	$8, %rsp
	.cfi_remember_state
	.cfi_def_cfa_offset 40
	movq	%r13, %rdi
	movl	$608, %esi
	popq	%rbx
	.cfi_def_cfa_offset 32
	popq	%rbp
	.cfi_def_cfa_offset 24
	popq	%r12
	.cfi_def_cfa_offset 16
	popq	%r13
	.cfi_def_cfa_offset 8
	jmp	_ZdlPvm@PLT
	.p2align 4,,10
	.p2align 3
.L280:
	.cfi_restore_state
	movl	12(%rdi), %eax
	leal	-1(%rax), %edx
	movl	%edx, 12(%rdi)
	cmpl	$1, %eax
	jne	.L279
.L292:
	movq	(%rdi), %rax
	call	*24(%rax)
	jmp	.L279
	.p2align 4,,10
	.p2align 3
.L245:
	movl	8(%r12), %eax
	leal	-1(%rax), %edx
	movl	%edx, 8(%r12)
	cmpl	$1, %eax
	jne	.L244
.L287:
	movq	(%r12), %rax
	movq	%r12, %rdi
	call	*16(%rax)
	testq	%rbp, %rbp
	je	.L248
	movl	$-1, %eax
	lock xaddl	%eax, 12(%r12)
.L249:
	cmpl	$1, %eax
	jne	.L244
	movq	(%r12), %rax
	movq	%r12, %rdi
	call	*24(%rax)
	jmp	.L244
	.p2align 4,,10
	.p2align 3
.L238:
	movl	8(%r12), %eax
	leal	-1(%rax), %edx
	movl	%edx, 8(%r12)
	cmpl	$1, %eax
	jne	.L237
.L286:
	movq	(%r12), %rax
	movq	%r12, %rdi
	call	*16(%rax)
	testq	%rbp, %rbp
	je	.L241
	movl	$-1, %eax
	lock xaddl	%eax, 12(%r12)
.L242:
	cmpl	$1, %eax
	jne	.L237
	movq	(%r12), %rax
	movq	%r12, %rdi
	call	*24(%rax)
	jmp	.L237
	.p2align 4,,10
	.p2align 3
.L231:
	movl	8(%r12), %eax
	leal	-1(%rax), %edx
	movl	%edx, 8(%r12)
	cmpl	$1, %eax
	jne	.L230
.L285:
	movq	(%r12), %rax
	movq	%r12, %rdi
	call	*16(%rax)
	testq	%rbp, %rbp
	je	.L234
	movl	$-1, %eax
	lock xaddl	%eax, 12(%r12)
.L235:
	cmpl	$1, %eax
	jne	.L230
	movq	(%r12), %rax
	movq	%r12, %rdi
	call	*24(%rax)
	jmp	.L230
	.p2align 4,,10
	.p2align 3
.L224:
	movl	8(%r12), %eax
	leal	-1(%rax), %edx
	movl	%edx, 8(%r12)
	cmpl	$1, %eax
	jne	.L223
.L284:
	movq	(%r12), %rax
	movq	%r12, %rdi
	call	*16(%rax)
	testq	%rbp, %rbp
	je	.L227
	movl	$-1, %eax
	lock xaddl	%eax, 12(%r12)
.L228:
	cmpl	$1, %eax
	jne	.L223
	movq	(%r12), %rax
	movq	%r12, %rdi
	call	*24(%rax)
	jmp	.L223
	.p2align 4,,10
	.p2align 3
.L273:
	movl	8(%r12), %eax
	leal	-1(%rax), %edx
	movl	%edx, 8(%r12)
	cmpl	$1, %eax
	jne	.L272
.L291:
	movq	(%r12), %rax
	movq	%r12, %rdi
	call	*16(%rax)
	testq	%rbp, %rbp
	je	.L276
	movl	$-1, %eax
	lock xaddl	%eax, 12(%r12)
.L277:
	cmpl	$1, %eax
	jne	.L272
	movq	(%r12), %rax
	movq	%r12, %rdi
	call	*24(%rax)
	jmp	.L272
	.p2align 4,,10
	.p2align 3
.L266:
	movl	8(%r12), %eax
	leal	-1(%rax), %edx
	movl	%edx, 8(%r12)
	cmpl	$1, %eax
	jne	.L265
.L290:
	movq	(%r12), %rax
	movq	%r12, %rdi
	call	*16(%rax)
	testq	%rbp, %rbp
	je	.L269
	movl	$-1, %eax
	lock xaddl	%eax, 12(%r12)
.L270:
	cmpl	$1, %eax
	jne	.L265
	movq	(%r12), %rax
	movq	%r12, %rdi
	call	*24(%rax)
	jmp	.L265
	.p2align 4,,10
	.p2align 3
.L259:
	movl	8(%r12), %eax
	leal	-1(%rax), %edx
	movl	%edx, 8(%r12)
	cmpl	$1, %eax
	jne	.L258
.L289:
	movq	(%r12), %rax
	movq	%r12, %rdi
	call	*16(%rax)
	testq	%rbp, %rbp
	je	.L262
	movl	$-1, %eax
	lock xaddl	%eax, 12(%r12)
.L263:
	cmpl	$1, %eax
	jne	.L258
	movq	(%r12), %rax
	movq	%r12, %rdi
	call	*24(%rax)
	jmp	.L258
	.p2align 4,,10
	.p2align 3
.L252:
	movl	8(%r12), %eax
	leal	-1(%rax), %edx
	movl	%edx, 8(%r12)
	cmpl	$1, %eax
	jne	.L251
.L288:
	movq	(%r12), %rax
	movq	%r12, %rdi
	call	*16(%rax)
	testq	%rbp, %rbp
	je	.L255
	movl	$-1, %eax
	lock xaddl	%eax, 12(%r12)
.L256:
	cmpl	$1, %eax
	jne	.L251
	movq	(%r12), %rax
	movq	%r12, %rdi
	call	*24(%rax)
	jmp	.L251
	.p2align 4,,10
	.p2align 3
.L227:
	movl	12(%r12), %eax
	leal	-1(%rax), %edx
	movl	%edx, 12(%r12)
	jmp	.L228
	.p2align 4,,10
	.p2align 3
.L276:
	movl	12(%r12), %eax
	leal	-1(%rax), %edx
	movl	%edx, 12(%r12)
	jmp	.L277
	.p2align 4,,10
	.p2align 3
.L262:
	movl	12(%r12), %eax
	leal	-1(%rax), %edx
	movl	%edx, 12(%r12)
	jmp	.L263
	.p2align 4,,10
	.p2align 3
.L269:
	movl	12(%r12), %eax
	leal	-1(%rax), %edx
	movl	%edx, 12(%r12)
	jmp	.L270
	.p2align 4,,10
	.p2align 3
.L234:
	movl	12(%r12), %eax
	leal	-1(%rax), %edx
	movl	%edx, 12(%r12)
	jmp	.L235
	.p2align 4,,10
	.p2align 3
.L241:
	movl	12(%r12), %eax
	leal	-1(%rax), %edx
	movl	%edx, 12(%r12)
	jmp	.L242
	.p2align 4,,10
	.p2align 3
.L248:
	movl	12(%r12), %eax
	leal	-1(%rax), %edx
	movl	%edx, 12(%r12)
	jmp	.L249
	.p2align 4,,10
	.p2align 3
.L255:
	movl	12(%r12), %eax
	leal	-1(%rax), %edx
	movl	%edx, 12(%r12)
	jmp	.L256
	.cfi_endproc
.LFE10575:
	.size	_ZThn16_N8asiodnp311LinkSessionD0Ev, .-_ZThn16_N8asiodnp311LinkSessionD0Ev
	.p2align 4
	.weak	_ZThn8_N8asiodnp311LinkSessionD0Ev
	.type	_ZThn8_N8asiodnp311LinkSessionD0Ev, @function
_ZThn8_N8asiodnp311LinkSessionD0Ev:
.LFB10576:
	.cfi_startproc
	endbr64
	pushq	%r13
	.cfi_def_cfa_offset 16
	.cfi_offset 13, -16
	leaq	-8(%rdi), %r13
	pushq	%r12
	.cfi_def_cfa_offset 24
	.cfi_offset 12, -24
	pushq	%rbp
	.cfi_def_cfa_offset 32
	.cfi_offset 6, -32
	pushq	%rbx
	.cfi_def_cfa_offset 40
	.cfi_offset 3, -40
	movq	%rdi, %rbx
	subq	$8, %rsp
	.cfi_def_cfa_offset 48
	movq	_ZTVN8asiodnp311LinkSessionE@GOTPCREL(%rip), %rax
	movq	592(%rdi), %r12
	leaq	96(%rax), %rdx
	leaq	16(%rax), %rcx
	movq	%rdx, %xmm1
	movq	%rcx, %xmm0
	leaq	144(%rax), %rdx
	punpcklqdq	%xmm1, %xmm0
	movq	%rdx, 8(%rdi)
	leaq	224(%rax), %rdx
	addq	$184, %rax
	movups	%xmm0, -8(%rdi)
	movq	%rdx, %xmm2
	movq	%rax, %xmm0
	punpcklqdq	%xmm2, %xmm0
	movups	%xmm0, 32(%rdi)
	testq	%r12, %r12
	je	.L295
	movq	_ZL28__gthrw___pthread_key_createPjPFvPvE@GOTPCREL(%rip), %rbp
	testq	%rbp, %rbp
	je	.L296
	movl	$-1, %eax
	lock xaddl	%eax, 8(%r12)
	cmpl	$1, %eax
	je	.L356
	.p2align 4,,10
	.p2align 3
.L295:
	leaq	560(%rbx), %rdi
	call	_ZN7openpal8TimerRefD1Ev@PLT
	movq	168(%rbx), %r12
	testq	%r12, %r12
	je	.L302
	movq	_ZL28__gthrw___pthread_key_createPjPFvPvE@GOTPCREL(%rip), %rbp
	testq	%rbp, %rbp
	je	.L303
	movl	$-1, %eax
	lock xaddl	%eax, 8(%r12)
	cmpl	$1, %eax
	je	.L357
	.p2align 4,,10
	.p2align 3
.L302:
	movq	152(%rbx), %r12
	testq	%r12, %r12
	je	.L309
	movq	_ZL28__gthrw___pthread_key_createPjPFvPvE@GOTPCREL(%rip), %rbp
	testq	%rbp, %rbp
	je	.L310
	movl	$-1, %eax
	lock xaddl	%eax, 8(%r12)
	cmpl	$1, %eax
	je	.L358
	.p2align 4,,10
	.p2align 3
.L309:
	movq	136(%rbx), %r12
	testq	%r12, %r12
	je	.L316
	movq	_ZL28__gthrw___pthread_key_createPjPFvPvE@GOTPCREL(%rip), %rbp
	testq	%rbp, %rbp
	je	.L317
	movl	$-1, %eax
	lock xaddl	%eax, 8(%r12)
	cmpl	$1, %eax
	je	.L359
	.p2align 4,,10
	.p2align 3
.L316:
	movq	120(%rbx), %r12
	testq	%r12, %r12
	je	.L323
	movq	_ZL28__gthrw___pthread_key_createPjPFvPvE@GOTPCREL(%rip), %rbp
	testq	%rbp, %rbp
	je	.L324
	movl	$-1, %eax
	lock xaddl	%eax, 8(%r12)
	cmpl	$1, %eax
	je	.L360
	.p2align 4,,10
	.p2align 3
.L323:
	movq	104(%rbx), %r12
	testq	%r12, %r12
	je	.L330
	movq	_ZL28__gthrw___pthread_key_createPjPFvPvE@GOTPCREL(%rip), %rbp
	testq	%rbp, %rbp
	je	.L331
	movl	$-1, %eax
	lock xaddl	%eax, 8(%r12)
	cmpl	$1, %eax
	je	.L361
	.p2align 4,,10
	.p2align 3
.L330:
	movq	80(%rbx), %r12
	testq	%r12, %r12
	je	.L337
	movq	_ZL28__gthrw___pthread_key_createPjPFvPvE@GOTPCREL(%rip), %rbp
	testq	%rbp, %rbp
	je	.L338
	movl	$-1, %eax
	lock xaddl	%eax, 8(%r12)
	cmpl	$1, %eax
	je	.L362
	.p2align 4,,10
	.p2align 3
.L337:
	movq	64(%rbx), %r12
	testq	%r12, %r12
	je	.L344
	movq	_ZL28__gthrw___pthread_key_createPjPFvPvE@GOTPCREL(%rip), %rbp
	testq	%rbp, %rbp
	je	.L345
	movl	$-1, %eax
	lock xaddl	%eax, 8(%r12)
	cmpl	$1, %eax
	je	.L363
	.p2align 4,,10
	.p2align 3
.L344:
	movq	24(%rbx), %rdi
	testq	%rdi, %rdi
	je	.L351
	cmpq	$0, _ZL28__gthrw___pthread_key_createPjPFvPvE@GOTPCREL(%rip)
	je	.L352
	movl	$-1, %eax
	lock xaddl	%eax, 12(%rdi)
	cmpl	$1, %eax
	je	.L364
.L351:
	addq	$8, %rsp
	.cfi_remember_state
	.cfi_def_cfa_offset 40
	movq	%r13, %rdi
	movl	$608, %esi
	popq	%rbx
	.cfi_def_cfa_offset 32
	popq	%rbp
	.cfi_def_cfa_offset 24
	popq	%r12
	.cfi_def_cfa_offset 16
	popq	%r13
	.cfi_def_cfa_offset 8
	jmp	_ZdlPvm@PLT
	.p2align 4,,10
	.p2align 3
.L352:
	.cfi_restore_state
	movl	12(%rdi), %eax
	leal	-1(%rax), %edx
	movl	%edx, 12(%rdi)
	cmpl	$1, %eax
	jne	.L351
.L364:
	movq	(%rdi), %rax
	call	*24(%rax)
	jmp	.L351
	.p2align 4,,10
	.p2align 3
.L317:
	movl	8(%r12), %eax
	leal	-1(%rax), %edx
	movl	%edx, 8(%r12)
	cmpl	$1, %eax
	jne	.L316
.L359:
	movq	(%r12), %rax
	movq	%r12, %rdi
	call	*16(%rax)
	testq	%rbp, %rbp
	je	.L320
	movl	$-1, %eax
	lock xaddl	%eax, 12(%r12)
.L321:
	cmpl	$1, %eax
	jne	.L316
	movq	(%r12), %rax
	movq	%r12, %rdi
	call	*24(%rax)
	jmp	.L316
	.p2align 4,,10
	.p2align 3
.L310:
	movl	8(%r12), %eax
	leal	-1(%rax), %edx
	movl	%edx, 8(%r12)
	cmpl	$1, %eax
	jne	.L309
.L358:
	movq	(%r12), %rax
	movq	%r12, %rdi
	call	*16(%rax)
	testq	%rbp, %rbp
	je	.L313
	movl	$-1, %eax
	lock xaddl	%eax, 12(%r12)
.L314:
	cmpl	$1, %eax
	jne	.L309
	movq	(%r12), %rax
	movq	%r12, %rdi
	call	*24(%rax)
	jmp	.L309
	.p2align 4,,10
	.p2align 3
.L303:
	movl	8(%r12), %eax
	leal	-1(%rax), %edx
	movl	%edx, 8(%r12)
	cmpl	$1, %eax
	jne	.L302
.L357:
	movq	(%r12), %rax
	movq	%r12, %rdi
	call	*16(%rax)
	testq	%rbp, %rbp
	je	.L306
	movl	$-1, %eax
	lock xaddl	%eax, 12(%r12)
.L307:
	cmpl	$1, %eax
	jne	.L302
	movq	(%r12), %rax
	movq	%r12, %rdi
	call	*24(%rax)
	jmp	.L302
	.p2align 4,,10
	.p2align 3
.L296:
	movl	8(%r12), %eax
	leal	-1(%rax), %edx
	movl	%edx, 8(%r12)
	cmpl	$1, %eax
	jne	.L295
.L356:
	movq	(%r12), %rax
	movq	%r12, %rdi
	call	*16(%rax)
	testq	%rbp, %rbp
	je	.L299
	movl	$-1, %eax
	lock xaddl	%eax, 12(%r12)
.L300:
	cmpl	$1, %eax
	jne	.L295
	movq	(%r12), %rax
	movq	%r12, %rdi
	call	*24(%rax)
	jmp	.L295
	.p2align 4,,10
	.p2align 3
.L345:
	movl	8(%r12), %eax
	leal	-1(%rax), %edx
	movl	%edx, 8(%r12)
	cmpl	$1, %eax
	jne	.L344
.L363:
	movq	(%r12), %rax
	movq	%r12, %rdi
	call	*16(%rax)
	testq	%rbp, %rbp
	je	.L348
	movl	$-1, %eax
	lock xaddl	%eax, 12(%r12)
.L349:
	cmpl	$1, %eax
	jne	.L344
	movq	(%r12), %rax
	movq	%r12, %rdi
	call	*24(%rax)
	jmp	.L344
	.p2align 4,,10
	.p2align 3
.L338:
	movl	8(%r12), %eax
	leal	-1(%rax), %edx
	movl	%edx, 8(%r12)
	cmpl	$1, %eax
	jne	.L337
.L362:
	movq	(%r12), %rax
	movq	%r12, %rdi
	call	*16(%rax)
	testq	%rbp, %rbp
	je	.L341
	movl	$-1, %eax
	lock xaddl	%eax, 12(%r12)
.L342:
	cmpl	$1, %eax
	jne	.L337
	movq	(%r12), %rax
	movq	%r12, %rdi
	call	*24(%rax)
	jmp	.L337
	.p2align 4,,10
	.p2align 3
.L331:
	movl	8(%r12), %eax
	leal	-1(%rax), %edx
	movl	%edx, 8(%r12)
	cmpl	$1, %eax
	jne	.L330
.L361:
	movq	(%r12), %rax
	movq	%r12, %rdi
	call	*16(%rax)
	testq	%rbp, %rbp
	je	.L334
	movl	$-1, %eax
	lock xaddl	%eax, 12(%r12)
.L335:
	cmpl	$1, %eax
	jne	.L330
	movq	(%r12), %rax
	movq	%r12, %rdi
	call	*24(%rax)
	jmp	.L330
	.p2align 4,,10
	.p2align 3
.L324:
	movl	8(%r12), %eax
	leal	-1(%rax), %edx
	movl	%edx, 8(%r12)
	cmpl	$1, %eax
	jne	.L323
.L360:
	movq	(%r12), %rax
	movq	%r12, %rdi
	call	*16(%rax)
	testq	%rbp, %rbp
	je	.L327
	movl	$-1, %eax
	lock xaddl	%eax, 12(%r12)
.L328:
	cmpl	$1, %eax
	jne	.L323
	movq	(%r12), %rax
	movq	%r12, %rdi
	call	*24(%rax)
	jmp	.L323
	.p2align 4,,10
	.p2align 3
.L299:
	movl	12(%r12), %eax
	leal	-1(%rax), %edx
	movl	%edx, 12(%r12)
	jmp	.L300
	.p2align 4,,10
	.p2align 3
.L348:
	movl	12(%r12), %eax
	leal	-1(%rax), %edx
	movl	%edx, 12(%r12)
	jmp	.L349
	.p2align 4,,10
	.p2align 3
.L334:
	movl	12(%r12), %eax
	leal	-1(%rax), %edx
	movl	%edx, 12(%r12)
	jmp	.L335
	.p2align 4,,10
	.p2align 3
.L341:
	movl	12(%r12), %eax
	leal	-1(%rax), %edx
	movl	%edx, 12(%r12)
	jmp	.L342
	.p2align 4,,10
	.p2align 3
.L306:
	movl	12(%r12), %eax
	leal	-1(%rax), %edx
	movl	%edx, 12(%r12)
	jmp	.L307
	.p2align 4,,10
	.p2align 3
.L313:
	movl	12(%r12), %eax
	leal	-1(%rax), %edx
	movl	%edx, 12(%r12)
	jmp	.L314
	.p2align 4,,10
	.p2align 3
.L320:
	movl	12(%r12), %eax
	leal	-1(%rax), %edx
	movl	%edx, 12(%r12)
	jmp	.L321
	.p2align 4,,10
	.p2align 3
.L327:
	movl	12(%r12), %eax
	leal	-1(%rax), %edx
	movl	%edx, 12(%r12)
	jmp	.L328
	.cfi_endproc
.LFE10576:
	.size	_ZThn8_N8asiodnp311LinkSessionD0Ev, .-_ZThn8_N8asiodnp311LinkSessionD0Ev
	.section	.text._ZN8asiodnp311LinkSessionD2Ev,"axG",@progbits,_ZN8asiodnp311LinkSessionD5Ev,comdat
	.p2align 4
	.weak	_ZThn40_N8asiodnp311LinkSessionD1Ev
	.type	_ZThn40_N8asiodnp311LinkSessionD1Ev, @function
_ZThn40_N8asiodnp311LinkSessionD1Ev:
.LFB10580:
	.cfi_startproc
	endbr64
	movq	_ZTVN8asiodnp311LinkSessionE@GOTPCREL(%rip), %rax
	pushq	%r12
	.cfi_def_cfa_offset 16
	.cfi_offset 12, -16
	pushq	%rbp
	.cfi_def_cfa_offset 24
	.cfi_offset 6, -24
	leaq	96(%rax), %rdx
	leaq	16(%rax), %rcx
	pushq	%rbx
	.cfi_def_cfa_offset 32
	.cfi_offset 3, -32
	movq	560(%rdi), %r12
	movq	%rdx, %xmm1
	movq	%rcx, %xmm0
	leaq	144(%rax), %rdx
	movq	%rdi, %rbx
	punpcklqdq	%xmm1, %xmm0
	movq	%rdx, -24(%rdi)
	leaq	224(%rax), %rdx
	addq	$184, %rax
	movups	%xmm0, -40(%rdi)
	movq	%rdx, %xmm2
	movq	%rax, %xmm0
	punpcklqdq	%xmm2, %xmm0
	movups	%xmm0, (%rdi)
	testq	%r12, %r12
	je	.L367
	movq	_ZL28__gthrw___pthread_key_createPjPFvPvE@GOTPCREL(%rip), %rbp
	testq	%rbp, %rbp
	je	.L368
	movl	$-1, %eax
	lock xaddl	%eax, 8(%r12)
	cmpl	$1, %eax
	je	.L428
	.p2align 4,,10
	.p2align 3
.L367:
	leaq	528(%rbx), %rdi
	call	_ZN7openpal8TimerRefD1Ev@PLT
	movq	136(%rbx), %r12
	testq	%r12, %r12
	je	.L374
	movq	_ZL28__gthrw___pthread_key_createPjPFvPvE@GOTPCREL(%rip), %rbp
	testq	%rbp, %rbp
	je	.L375
	movl	$-1, %eax
	lock xaddl	%eax, 8(%r12)
	cmpl	$1, %eax
	je	.L429
	.p2align 4,,10
	.p2align 3
.L374:
	movq	120(%rbx), %r12
	testq	%r12, %r12
	je	.L381
	movq	_ZL28__gthrw___pthread_key_createPjPFvPvE@GOTPCREL(%rip), %rbp
	testq	%rbp, %rbp
	je	.L382
	movl	$-1, %eax
	lock xaddl	%eax, 8(%r12)
	cmpl	$1, %eax
	je	.L430
	.p2align 4,,10
	.p2align 3
.L381:
	movq	104(%rbx), %r12
	testq	%r12, %r12
	je	.L388
	movq	_ZL28__gthrw___pthread_key_createPjPFvPvE@GOTPCREL(%rip), %rbp
	testq	%rbp, %rbp
	je	.L389
	movl	$-1, %eax
	lock xaddl	%eax, 8(%r12)
	cmpl	$1, %eax
	je	.L431
	.p2align 4,,10
	.p2align 3
.L388:
	movq	88(%rbx), %r12
	testq	%r12, %r12
	je	.L395
	movq	_ZL28__gthrw___pthread_key_createPjPFvPvE@GOTPCREL(%rip), %rbp
	testq	%rbp, %rbp
	je	.L396
	movl	$-1, %eax
	lock xaddl	%eax, 8(%r12)
	cmpl	$1, %eax
	je	.L432
	.p2align 4,,10
	.p2align 3
.L395:
	movq	72(%rbx), %r12
	testq	%r12, %r12
	je	.L402
	movq	_ZL28__gthrw___pthread_key_createPjPFvPvE@GOTPCREL(%rip), %rbp
	testq	%rbp, %rbp
	je	.L403
	movl	$-1, %eax
	lock xaddl	%eax, 8(%r12)
	cmpl	$1, %eax
	je	.L433
	.p2align 4,,10
	.p2align 3
.L402:
	movq	48(%rbx), %r12
	testq	%r12, %r12
	je	.L409
	movq	_ZL28__gthrw___pthread_key_createPjPFvPvE@GOTPCREL(%rip), %rbp
	testq	%rbp, %rbp
	je	.L410
	movl	$-1, %eax
	lock xaddl	%eax, 8(%r12)
	cmpl	$1, %eax
	je	.L434
	.p2align 4,,10
	.p2align 3
.L409:
	movq	32(%rbx), %r12
	testq	%r12, %r12
	je	.L416
	movq	_ZL28__gthrw___pthread_key_createPjPFvPvE@GOTPCREL(%rip), %rbp
	testq	%rbp, %rbp
	je	.L417
	movl	$-1, %eax
	lock xaddl	%eax, 8(%r12)
	cmpl	$1, %eax
	je	.L435
	.p2align 4,,10
	.p2align 3
.L416:
	movq	-8(%rbx), %rdi
	testq	%rdi, %rdi
	je	.L365
	cmpq	$0, _ZL28__gthrw___pthread_key_createPjPFvPvE@GOTPCREL(%rip)
	je	.L424
	movl	$-1, %eax
	lock xaddl	%eax, 12(%rdi)
	cmpl	$1, %eax
	je	.L436
.L365:
	popq	%rbx
	.cfi_remember_state
	.cfi_def_cfa_offset 24
	popq	%rbp
	.cfi_def_cfa_offset 16
	popq	%r12
	.cfi_def_cfa_offset 8
	ret
	.p2align 4,,10
	.p2align 3
.L424:
	.cfi_restore_state
	movl	12(%rdi), %eax
	leal	-1(%rax), %edx
	movl	%edx, 12(%rdi)
	cmpl	$1, %eax
	jne	.L365
.L436:
	movq	(%rdi), %rax
	popq	%rbx
	.cfi_remember_state
	.cfi_def_cfa_offset 24
	popq	%rbp
	.cfi_def_cfa_offset 16
	popq	%r12
	.cfi_def_cfa_offset 8
	movq	24(%rax), %rax
	jmp	*%rax
	.p2align 4,,10
	.p2align 3
.L389:
	.cfi_restore_state
	movl	8(%r12), %eax
	leal	-1(%rax), %edx
	movl	%edx, 8(%r12)
	cmpl	$1, %eax
	jne	.L388
.L431:
	movq	(%r12), %rax
	movq	%r12, %rdi
	call	*16(%rax)
	testq	%rbp, %rbp
	je	.L392
	movl	$-1, %eax
	lock xaddl	%eax, 12(%r12)
.L393:
	cmpl	$1, %eax
	jne	.L388
	movq	(%r12), %rax
	movq	%r12, %rdi
	call	*24(%rax)
	jmp	.L388
	.p2align 4,,10
	.p2align 3
.L382:
	movl	8(%r12), %eax
	leal	-1(%rax), %edx
	movl	%edx, 8(%r12)
	cmpl	$1, %eax
	jne	.L381
.L430:
	movq	(%r12), %rax
	movq	%r12, %rdi
	call	*16(%rax)
	testq	%rbp, %rbp
	je	.L385
	movl	$-1, %eax
	lock xaddl	%eax, 12(%r12)
.L386:
	cmpl	$1, %eax
	jne	.L381
	movq	(%r12), %rax
	movq	%r12, %rdi
	call	*24(%rax)
	jmp	.L381
	.p2align 4,,10
	.p2align 3
.L375:
	movl	8(%r12), %eax
	leal	-1(%rax), %edx
	movl	%edx, 8(%r12)
	cmpl	$1, %eax
	jne	.L374
.L429:
	movq	(%r12), %rax
	movq	%r12, %rdi
	call	*16(%rax)
	testq	%rbp, %rbp
	je	.L378
	movl	$-1, %eax
	lock xaddl	%eax, 12(%r12)
.L379:
	cmpl	$1, %eax
	jne	.L374
	movq	(%r12), %rax
	movq	%r12, %rdi
	call	*24(%rax)
	jmp	.L374
	.p2align 4,,10
	.p2align 3
.L368:
	movl	8(%r12), %eax
	leal	-1(%rax), %edx
	movl	%edx, 8(%r12)
	cmpl	$1, %eax
	jne	.L367
.L428:
	movq	(%r12), %rax
	movq	%r12, %rdi
	call	*16(%rax)
	testq	%rbp, %rbp
	je	.L371
	movl	$-1, %eax
	lock xaddl	%eax, 12(%r12)
.L372:
	cmpl	$1, %eax
	jne	.L367
	movq	(%r12), %rax
	movq	%r12, %rdi
	call	*24(%rax)
	jmp	.L367
	.p2align 4,,10
	.p2align 3
.L417:
	movl	8(%r12), %eax
	leal	-1(%rax), %edx
	movl	%edx, 8(%r12)
	cmpl	$1, %eax
	jne	.L416
.L435:
	movq	(%r12), %rax
	movq	%r12, %rdi
	call	*16(%rax)
	testq	%rbp, %rbp
	je	.L420
	movl	$-1, %eax
	lock xaddl	%eax, 12(%r12)
.L421:
	cmpl	$1, %eax
	jne	.L416
	movq	(%r12), %rax
	movq	%r12, %rdi
	call	*24(%rax)
	jmp	.L416
	.p2align 4,,10
	.p2align 3
.L410:
	movl	8(%r12), %eax
	leal	-1(%rax), %edx
	movl	%edx, 8(%r12)
	cmpl	$1, %eax
	jne	.L409
.L434:
	movq	(%r12), %rax
	movq	%r12, %rdi
	call	*16(%rax)
	testq	%rbp, %rbp
	je	.L413
	movl	$-1, %eax
	lock xaddl	%eax, 12(%r12)
.L414:
	cmpl	$1, %eax
	jne	.L409
	movq	(%r12), %rax
	movq	%r12, %rdi
	call	*24(%rax)
	jmp	.L409
	.p2align 4,,10
	.p2align 3
.L403:
	movl	8(%r12), %eax
	leal	-1(%rax), %edx
	movl	%edx, 8(%r12)
	cmpl	$1, %eax
	jne	.L402
.L433:
	movq	(%r12), %rax
	movq	%r12, %rdi
	call	*16(%rax)
	testq	%rbp, %rbp
	je	.L406
	movl	$-1, %eax
	lock xaddl	%eax, 12(%r12)
.L407:
	cmpl	$1, %eax
	jne	.L402
	movq	(%r12), %rax
	movq	%r12, %rdi
	call	*24(%rax)
	jmp	.L402
	.p2align 4,,10
	.p2align 3
.L396:
	movl	8(%r12), %eax
	leal	-1(%rax), %edx
	movl	%edx, 8(%r12)
	cmpl	$1, %eax
	jne	.L395
.L432:
	movq	(%r12), %rax
	movq	%r12, %rdi
	call	*16(%rax)
	testq	%rbp, %rbp
	je	.L399
	movl	$-1, %eax
	lock xaddl	%eax, 12(%r12)
.L400:
	cmpl	$1, %eax
	jne	.L395
	movq	(%r12), %rax
	movq	%r12, %rdi
	call	*24(%rax)
	jmp	.L395
	.p2align 4,,10
	.p2align 3
.L371:
	movl	12(%r12), %eax
	leal	-1(%rax), %edx
	movl	%edx, 12(%r12)
	jmp	.L372
	.p2align 4,,10
	.p2align 3
.L420:
	movl	12(%r12), %eax
	leal	-1(%rax), %edx
	movl	%edx, 12(%r12)
	jmp	.L421
	.p2align 4,,10
	.p2align 3
.L406:
	movl	12(%r12), %eax
	leal	-1(%rax), %edx
	movl	%edx, 12(%r12)
	jmp	.L407
	.p2align 4,,10
	.p2align 3
.L413:
	movl	12(%r12), %eax
	leal	-1(%rax), %edx
	movl	%edx, 12(%r12)
	jmp	.L414
	.p2align 4,,10
	.p2align 3
.L378:
	movl	12(%r12), %eax
	leal	-1(%rax), %edx
	movl	%edx, 12(%r12)
	jmp	.L379
	.p2align 4,,10
	.p2align 3
.L385:
	movl	12(%r12), %eax
	leal	-1(%rax), %edx
	movl	%edx, 12(%r12)
	jmp	.L386
	.p2align 4,,10
	.p2align 3
.L392:
	movl	12(%r12), %eax
	leal	-1(%rax), %edx
	movl	%edx, 12(%r12)
	jmp	.L393
	.p2align 4,,10
	.p2align 3
.L399:
	movl	12(%r12), %eax
	leal	-1(%rax), %edx
	movl	%edx, 12(%r12)
	jmp	.L400
	.cfi_endproc
.LFE10580:
	.size	_ZThn40_N8asiodnp311LinkSessionD1Ev, .-_ZThn40_N8asiodnp311LinkSessionD1Ev
	.p2align 4
	.weak	_ZThn16_N8asiodnp311LinkSessionD1Ev
	.type	_ZThn16_N8asiodnp311LinkSessionD1Ev, @function
_ZThn16_N8asiodnp311LinkSessionD1Ev:
.LFB10581:
	.cfi_startproc
	endbr64
	movq	_ZTVN8asiodnp311LinkSessionE@GOTPCREL(%rip), %rax
	pushq	%r12
	.cfi_def_cfa_offset 16
	.cfi_offset 12, -16
	pushq	%rbp
	.cfi_def_cfa_offset 24
	.cfi_offset 6, -24
	leaq	96(%rax), %rdx
	leaq	16(%rax), %rcx
	pushq	%rbx
	.cfi_def_cfa_offset 32
	.cfi_offset 3, -32
	movq	584(%rdi), %r12
	movq	%rdx, %xmm1
	movq	%rcx, %xmm0
	leaq	144(%rax), %rdx
	movq	%rdi, %rbx
	punpcklqdq	%xmm1, %xmm0
	movq	%rdx, (%rdi)
	leaq	224(%rax), %rdx
	addq	$184, %rax
	movups	%xmm0, -16(%rdi)
	movq	%rdx, %xmm2
	movq	%rax, %xmm0
	punpcklqdq	%xmm2, %xmm0
	movups	%xmm0, 24(%rdi)
	testq	%r12, %r12
	je	.L439
	movq	_ZL28__gthrw___pthread_key_createPjPFvPvE@GOTPCREL(%rip), %rbp
	testq	%rbp, %rbp
	je	.L440
	movl	$-1, %eax
	lock xaddl	%eax, 8(%r12)
	cmpl	$1, %eax
	je	.L500
	.p2align 4,,10
	.p2align 3
.L439:
	leaq	552(%rbx), %rdi
	call	_ZN7openpal8TimerRefD1Ev@PLT
	movq	160(%rbx), %r12
	testq	%r12, %r12
	je	.L446
	movq	_ZL28__gthrw___pthread_key_createPjPFvPvE@GOTPCREL(%rip), %rbp
	testq	%rbp, %rbp
	je	.L447
	movl	$-1, %eax
	lock xaddl	%eax, 8(%r12)
	cmpl	$1, %eax
	je	.L501
	.p2align 4,,10
	.p2align 3
.L446:
	movq	144(%rbx), %r12
	testq	%r12, %r12
	je	.L453
	movq	_ZL28__gthrw___pthread_key_createPjPFvPvE@GOTPCREL(%rip), %rbp
	testq	%rbp, %rbp
	je	.L454
	movl	$-1, %eax
	lock xaddl	%eax, 8(%r12)
	cmpl	$1, %eax
	je	.L502
	.p2align 4,,10
	.p2align 3
.L453:
	movq	128(%rbx), %r12
	testq	%r12, %r12
	je	.L460
	movq	_ZL28__gthrw___pthread_key_createPjPFvPvE@GOTPCREL(%rip), %rbp
	testq	%rbp, %rbp
	je	.L461
	movl	$-1, %eax
	lock xaddl	%eax, 8(%r12)
	cmpl	$1, %eax
	je	.L503
	.p2align 4,,10
	.p2align 3
.L460:
	movq	112(%rbx), %r12
	testq	%r12, %r12
	je	.L467
	movq	_ZL28__gthrw___pthread_key_createPjPFvPvE@GOTPCREL(%rip), %rbp
	testq	%rbp, %rbp
	je	.L468
	movl	$-1, %eax
	lock xaddl	%eax, 8(%r12)
	cmpl	$1, %eax
	je	.L504
	.p2align 4,,10
	.p2align 3
.L467:
	movq	96(%rbx), %r12
	testq	%r12, %r12
	je	.L474
	movq	_ZL28__gthrw___pthread_key_createPjPFvPvE@GOTPCREL(%rip), %rbp
	testq	%rbp, %rbp
	je	.L475
	movl	$-1, %eax
	lock xaddl	%eax, 8(%r12)
	cmpl	$1, %eax
	je	.L505
	.p2align 4,,10
	.p2align 3
.L474:
	movq	72(%rbx), %r12
	testq	%r12, %r12
	je	.L481
	movq	_ZL28__gthrw___pthread_key_createPjPFvPvE@GOTPCREL(%rip), %rbp
	testq	%rbp, %rbp
	je	.L482
	movl	$-1, %eax
	lock xaddl	%eax, 8(%r12)
	cmpl	$1, %eax
	je	.L506
	.p2align 4,,10
	.p2align 3
.L481:
	movq	56(%rbx), %r12
	testq	%r12, %r12
	je	.L488
	movq	_ZL28__gthrw___pthread_key_createPjPFvPvE@GOTPCREL(%rip), %rbp
	testq	%rbp, %rbp
	je	.L489
	movl	$-1, %eax
	lock xaddl	%eax, 8(%r12)
	cmpl	$1, %eax
	je	.L507
	.p2align 4,,10
	.p2align 3
.L488:
	movq	16(%rbx), %rdi
	testq	%rdi, %rdi
	je	.L437
	cmpq	$0, _ZL28__gthrw___pthread_key_createPjPFvPvE@GOTPCREL(%rip)
	je	.L496
	movl	$-1, %eax
	lock xaddl	%eax, 12(%rdi)
	cmpl	$1, %eax
	je	.L508
.L437:
	popq	%rbx
	.cfi_remember_state
	.cfi_def_cfa_offset 24
	popq	%rbp
	.cfi_def_cfa_offset 16
	popq	%r12
	.cfi_def_cfa_offset 8
	ret
	.p2align 4,,10
	.p2align 3
.L496:
	.cfi_restore_state
	movl	12(%rdi), %eax
	leal	-1(%rax), %edx
	movl	%edx, 12(%rdi)
	cmpl	$1, %eax
	jne	.L437
.L508:
	movq	(%rdi), %rax
	popq	%rbx
	.cfi_remember_state
	.cfi_def_cfa_offset 24
	popq	%rbp
	.cfi_def_cfa_offset 16
	popq	%r12
	.cfi_def_cfa_offset 8
	movq	24(%rax), %rax
	jmp	*%rax
	.p2align 4,,10
	.p2align 3
.L461:
	.cfi_restore_state
	movl	8(%r12), %eax
	leal	-1(%rax), %edx
	movl	%edx, 8(%r12)
	cmpl	$1, %eax
	jne	.L460
.L503:
	movq	(%r12), %rax
	movq	%r12, %rdi
	call	*16(%rax)
	testq	%rbp, %rbp
	je	.L464
	movl	$-1, %eax
	lock xaddl	%eax, 12(%r12)
.L465:
	cmpl	$1, %eax
	jne	.L460
	movq	(%r12), %rax
	movq	%r12, %rdi
	call	*24(%rax)
	jmp	.L460
	.p2align 4,,10
	.p2align 3
.L454:
	movl	8(%r12), %eax
	leal	-1(%rax), %edx
	movl	%edx, 8(%r12)
	cmpl	$1, %eax
	jne	.L453
.L502:
	movq	(%r12), %rax
	movq	%r12, %rdi
	call	*16(%rax)
	testq	%rbp, %rbp
	je	.L457
	movl	$-1, %eax
	lock xaddl	%eax, 12(%r12)
.L458:
	cmpl	$1, %eax
	jne	.L453
	movq	(%r12), %rax
	movq	%r12, %rdi
	call	*24(%rax)
	jmp	.L453
	.p2align 4,,10
	.p2align 3
.L447:
	movl	8(%r12), %eax
	leal	-1(%rax), %edx
	movl	%edx, 8(%r12)
	cmpl	$1, %eax
	jne	.L446
.L501:
	movq	(%r12), %rax
	movq	%r12, %rdi
	call	*16(%rax)
	testq	%rbp, %rbp
	je	.L450
	movl	$-1, %eax
	lock xaddl	%eax, 12(%r12)
.L451:
	cmpl	$1, %eax
	jne	.L446
	movq	(%r12), %rax
	movq	%r12, %rdi
	call	*24(%rax)
	jmp	.L446
	.p2align 4,,10
	.p2align 3
.L440:
	movl	8(%r12), %eax
	leal	-1(%rax), %edx
	movl	%edx, 8(%r12)
	cmpl	$1, %eax
	jne	.L439
.L500:
	movq	(%r12), %rax
	movq	%r12, %rdi
	call	*16(%rax)
	testq	%rbp, %rbp
	je	.L443
	movl	$-1, %eax
	lock xaddl	%eax, 12(%r12)
.L444:
	cmpl	$1, %eax
	jne	.L439
	movq	(%r12), %rax
	movq	%r12, %rdi
	call	*24(%rax)
	jmp	.L439
	.p2align 4,,10
	.p2align 3
.L489:
	movl	8(%r12), %eax
	leal	-1(%rax), %edx
	movl	%edx, 8(%r12)
	cmpl	$1, %eax
	jne	.L488
.L507:
	movq	(%r12), %rax
	movq	%r12, %rdi
	call	*16(%rax)
	testq	%rbp, %rbp
	je	.L492
	movl	$-1, %eax
	lock xaddl	%eax, 12(%r12)
.L493:
	cmpl	$1, %eax
	jne	.L488
	movq	(%r12), %rax
	movq	%r12, %rdi
	call	*24(%rax)
	jmp	.L488
	.p2align 4,,10
	.p2align 3
.L482:
	movl	8(%r12), %eax
	leal	-1(%rax), %edx
	movl	%edx, 8(%r12)
	cmpl	$1, %eax
	jne	.L481
.L506:
	movq	(%r12), %rax
	movq	%r12, %rdi
	call	*16(%rax)
	testq	%rbp, %rbp
	je	.L485
	movl	$-1, %eax
	lock xaddl	%eax, 12(%r12)
.L486:
	cmpl	$1, %eax
	jne	.L481
	movq	(%r12), %rax
	movq	%r12, %rdi
	call	*24(%rax)
	jmp	.L481
	.p2align 4,,10
	.p2align 3
.L475:
	movl	8(%r12), %eax
	leal	-1(%rax), %edx
	movl	%edx, 8(%r12)
	cmpl	$1, %eax
	jne	.L474
.L505:
	movq	(%r12), %rax
	movq	%r12, %rdi
	call	*16(%rax)
	testq	%rbp, %rbp
	je	.L478
	movl	$-1, %eax
	lock xaddl	%eax, 12(%r12)
.L479:
	cmpl	$1, %eax
	jne	.L474
	movq	(%r12), %rax
	movq	%r12, %rdi
	call	*24(%rax)
	jmp	.L474
	.p2align 4,,10
	.p2align 3
.L468:
	movl	8(%r12), %eax
	leal	-1(%rax), %edx
	movl	%edx, 8(%r12)
	cmpl	$1, %eax
	jne	.L467
.L504:
	movq	(%r12), %rax
	movq	%r12, %rdi
	call	*16(%rax)
	testq	%rbp, %rbp
	je	.L471
	movl	$-1, %eax
	lock xaddl	%eax, 12(%r12)
.L472:
	cmpl	$1, %eax
	jne	.L467
	movq	(%r12), %rax
	movq	%r12, %rdi
	call	*24(%rax)
	jmp	.L467
	.p2align 4,,10
	.p2align 3
.L443:
	movl	12(%r12), %eax
	leal	-1(%rax), %edx
	movl	%edx, 12(%r12)
	jmp	.L444
	.p2align 4,,10
	.p2align 3
.L492:
	movl	12(%r12), %eax
	leal	-1(%rax), %edx
	movl	%edx, 12(%r12)
	jmp	.L493
	.p2align 4,,10
	.p2align 3
.L478:
	movl	12(%r12), %eax
	leal	-1(%rax), %edx
	movl	%edx, 12(%r12)
	jmp	.L479
	.p2align 4,,10
	.p2align 3
.L485:
	movl	12(%r12), %eax
	leal	-1(%rax), %edx
	movl	%edx, 12(%r12)
	jmp	.L486
	.p2align 4,,10
	.p2align 3
.L450:
	movl	12(%r12), %eax
	leal	-1(%rax), %edx
	movl	%edx, 12(%r12)
	jmp	.L451
	.p2align 4,,10
	.p2align 3
.L457:
	movl	12(%r12), %eax
	leal	-1(%rax), %edx
	movl	%edx, 12(%r12)
	jmp	.L458
	.p2align 4,,10
	.p2align 3
.L464:
	movl	12(%r12), %eax
	leal	-1(%rax), %edx
	movl	%edx, 12(%r12)
	jmp	.L465
	.p2align 4,,10
	.p2align 3
.L471:
	movl	12(%r12), %eax
	leal	-1(%rax), %edx
	movl	%edx, 12(%r12)
	jmp	.L472
	.cfi_endproc
.LFE10581:
	.size	_ZThn16_N8asiodnp311LinkSessionD1Ev, .-_ZThn16_N8asiodnp311LinkSessionD1Ev
	.p2align 4
	.weak	_ZThn8_N8asiodnp311LinkSessionD1Ev
	.type	_ZThn8_N8asiodnp311LinkSessionD1Ev, @function
_ZThn8_N8asiodnp311LinkSessionD1Ev:
.LFB10582:
	.cfi_startproc
	endbr64
	movq	_ZTVN8asiodnp311LinkSessionE@GOTPCREL(%rip), %rax
	pushq	%r12
	.cfi_def_cfa_offset 16
	.cfi_offset 12, -16
	pushq	%rbp
	.cfi_def_cfa_offset 24
	.cfi_offset 6, -24
	leaq	96(%rax), %rdx
	leaq	16(%rax), %rcx
	pushq	%rbx
	.cfi_def_cfa_offset 32
	.cfi_offset 3, -32
	movq	592(%rdi), %r12
	movq	%rdx, %xmm1
	movq	%rcx, %xmm0
	leaq	144(%rax), %rdx
	movq	%rdi, %rbx
	punpcklqdq	%xmm1, %xmm0
	movq	%rdx, 8(%rdi)
	leaq	224(%rax), %rdx
	addq	$184, %rax
	movups	%xmm0, -8(%rdi)
	movq	%rdx, %xmm2
	movq	%rax, %xmm0
	punpcklqdq	%xmm2, %xmm0
	movups	%xmm0, 32(%rdi)
	testq	%r12, %r12
	je	.L511
	movq	_ZL28__gthrw___pthread_key_createPjPFvPvE@GOTPCREL(%rip), %rbp
	testq	%rbp, %rbp
	je	.L512
	movl	$-1, %eax
	lock xaddl	%eax, 8(%r12)
	cmpl	$1, %eax
	je	.L572
	.p2align 4,,10
	.p2align 3
.L511:
	leaq	560(%rbx), %rdi
	call	_ZN7openpal8TimerRefD1Ev@PLT
	movq	168(%rbx), %r12
	testq	%r12, %r12
	je	.L518
	movq	_ZL28__gthrw___pthread_key_createPjPFvPvE@GOTPCREL(%rip), %rbp
	testq	%rbp, %rbp
	je	.L519
	movl	$-1, %eax
	lock xaddl	%eax, 8(%r12)
	cmpl	$1, %eax
	je	.L573
	.p2align 4,,10
	.p2align 3
.L518:
	movq	152(%rbx), %r12
	testq	%r12, %r12
	je	.L525
	movq	_ZL28__gthrw___pthread_key_createPjPFvPvE@GOTPCREL(%rip), %rbp
	testq	%rbp, %rbp
	je	.L526
	movl	$-1, %eax
	lock xaddl	%eax, 8(%r12)
	cmpl	$1, %eax
	je	.L574
	.p2align 4,,10
	.p2align 3
.L525:
	movq	136(%rbx), %r12
	testq	%r12, %r12
	je	.L532
	movq	_ZL28__gthrw___pthread_key_createPjPFvPvE@GOTPCREL(%rip), %rbp
	testq	%rbp, %rbp
	je	.L533
	movl	$-1, %eax
	lock xaddl	%eax, 8(%r12)
	cmpl	$1, %eax
	je	.L575
	.p2align 4,,10
	.p2align 3
.L532:
	movq	120(%rbx), %r12
	testq	%r12, %r12
	je	.L539
	movq	_ZL28__gthrw___pthread_key_createPjPFvPvE@GOTPCREL(%rip), %rbp
	testq	%rbp, %rbp
	je	.L540
	movl	$-1, %eax
	lock xaddl	%eax, 8(%r12)
	cmpl	$1, %eax
	je	.L576
	.p2align 4,,10
	.p2align 3
.L539:
	movq	104(%rbx), %r12
	testq	%r12, %r12
	je	.L546
	movq	_ZL28__gthrw___pthread_key_createPjPFvPvE@GOTPCREL(%rip), %rbp
	testq	%rbp, %rbp
	je	.L547
	movl	$-1, %eax
	lock xaddl	%eax, 8(%r12)
	cmpl	$1, %eax
	je	.L577
	.p2align 4,,10
	.p2align 3
.L546:
	movq	80(%rbx), %r12
	testq	%r12, %r12
	je	.L553
	movq	_ZL28__gthrw___pthread_key_createPjPFvPvE@GOTPCREL(%rip), %rbp
	testq	%rbp, %rbp
	je	.L554
	movl	$-1, %eax
	lock xaddl	%eax, 8(%r12)
	cmpl	$1, %eax
	je	.L578
	.p2align 4,,10
	.p2align 3
.L553:
	movq	64(%rbx), %r12
	testq	%r12, %r12
	je	.L560
	movq	_ZL28__gthrw___pthread_key_createPjPFvPvE@GOTPCREL(%rip), %rbp
	testq	%rbp, %rbp
	je	.L561
	movl	$-1, %eax
	lock xaddl	%eax, 8(%r12)
	cmpl	$1, %eax
	je	.L579
	.p2align 4,,10
	.p2align 3
.L560:
	movq	24(%rbx), %rdi
	testq	%rdi, %rdi
	je	.L509
	cmpq	$0, _ZL28__gthrw___pthread_key_createPjPFvPvE@GOTPCREL(%rip)
	je	.L568
	movl	$-1, %eax
	lock xaddl	%eax, 12(%rdi)
	cmpl	$1, %eax
	je	.L580
.L509:
	popq	%rbx
	.cfi_remember_state
	.cfi_def_cfa_offset 24
	popq	%rbp
	.cfi_def_cfa_offset 16
	popq	%r12
	.cfi_def_cfa_offset 8
	ret
	.p2align 4,,10
	.p2align 3
.L568:
	.cfi_restore_state
	movl	12(%rdi), %eax
	leal	-1(%rax), %edx
	movl	%edx, 12(%rdi)
	cmpl	$1, %eax
	jne	.L509
.L580:
	movq	(%rdi), %rax
	popq	%rbx
	.cfi_remember_state
	.cfi_def_cfa_offset 24
	popq	%rbp
	.cfi_def_cfa_offset 16
	popq	%r12
	.cfi_def_cfa_offset 8
	movq	24(%rax), %rax
	jmp	*%rax
	.p2align 4,,10
	.p2align 3
.L533:
	.cfi_restore_state
	movl	8(%r12), %eax
	leal	-1(%rax), %edx
	movl	%edx, 8(%r12)
	cmpl	$1, %eax
	jne	.L532
.L575:
	movq	(%r12), %rax
	movq	%r12, %rdi
	call	*16(%rax)
	testq	%rbp, %rbp
	je	.L536
	movl	$-1, %eax
	lock xaddl	%eax, 12(%r12)
.L537:
	cmpl	$1, %eax
	jne	.L532
	movq	(%r12), %rax
	movq	%r12, %rdi
	call	*24(%rax)
	jmp	.L532
	.p2align 4,,10
	.p2align 3
.L526:
	movl	8(%r12), %eax
	leal	-1(%rax), %edx
	movl	%edx, 8(%r12)
	cmpl	$1, %eax
	jne	.L525
.L574:
	movq	(%r12), %rax
	movq	%r12, %rdi
	call	*16(%rax)
	testq	%rbp, %rbp
	je	.L529
	movl	$-1, %eax
	lock xaddl	%eax, 12(%r12)
.L530:
	cmpl	$1, %eax
	jne	.L525
	movq	(%r12), %rax
	movq	%r12, %rdi
	call	*24(%rax)
	jmp	.L525
	.p2align 4,,10
	.p2align 3
.L519:
	movl	8(%r12), %eax
	leal	-1(%rax), %edx
	movl	%edx, 8(%r12)
	cmpl	$1, %eax
	jne	.L518
.L573:
	movq	(%r12), %rax
	movq	%r12, %rdi
	call	*16(%rax)
	testq	%rbp, %rbp
	je	.L522
	movl	$-1, %eax
	lock xaddl	%eax, 12(%r12)
.L523:
	cmpl	$1, %eax
	jne	.L518
	movq	(%r12), %rax
	movq	%r12, %rdi
	call	*24(%rax)
	jmp	.L518
	.p2align 4,,10
	.p2align 3
.L512:
	movl	8(%r12), %eax
	leal	-1(%rax), %edx
	movl	%edx, 8(%r12)
	cmpl	$1, %eax
	jne	.L511
.L572:
	movq	(%r12), %rax
	movq	%r12, %rdi
	call	*16(%rax)
	testq	%rbp, %rbp
	je	.L515
	movl	$-1, %eax
	lock xaddl	%eax, 12(%r12)
.L516:
	cmpl	$1, %eax
	jne	.L511
	movq	(%r12), %rax
	movq	%r12, %rdi
	call	*24(%rax)
	jmp	.L511
	.p2align 4,,10
	.p2align 3
.L561:
	movl	8(%r12), %eax
	leal	-1(%rax), %edx
	movl	%edx, 8(%r12)
	cmpl	$1, %eax
	jne	.L560
.L579:
	movq	(%r12), %rax
	movq	%r12, %rdi
	call	*16(%rax)
	testq	%rbp, %rbp
	je	.L564
	movl	$-1, %eax
	lock xaddl	%eax, 12(%r12)
.L565:
	cmpl	$1, %eax
	jne	.L560
	movq	(%r12), %rax
	movq	%r12, %rdi
	call	*24(%rax)
	jmp	.L560
	.p2align 4,,10
	.p2align 3
.L554:
	movl	8(%r12), %eax
	leal	-1(%rax), %edx
	movl	%edx, 8(%r12)
	cmpl	$1, %eax
	jne	.L553
.L578:
	movq	(%r12), %rax
	movq	%r12, %rdi
	call	*16(%rax)
	testq	%rbp, %rbp
	je	.L557
	movl	$-1, %eax
	lock xaddl	%eax, 12(%r12)
.L558:
	cmpl	$1, %eax
	jne	.L553
	movq	(%r12), %rax
	movq	%r12, %rdi
	call	*24(%rax)
	jmp	.L553
	.p2align 4,,10
	.p2align 3
.L547:
	movl	8(%r12), %eax
	leal	-1(%rax), %edx
	movl	%edx, 8(%r12)
	cmpl	$1, %eax
	jne	.L546
.L577:
	movq	(%r12), %rax
	movq	%r12, %rdi
	call	*16(%rax)
	testq	%rbp, %rbp
	je	.L550
	movl	$-1, %eax
	lock xaddl	%eax, 12(%r12)
.L551:
	cmpl	$1, %eax
	jne	.L546
	movq	(%r12), %rax
	movq	%r12, %rdi
	call	*24(%rax)
	jmp	.L546
	.p2align 4,,10
	.p2align 3
.L540:
	movl	8(%r12), %eax
	leal	-1(%rax), %edx
	movl	%edx, 8(%r12)
	cmpl	$1, %eax
	jne	.L539
.L576:
	movq	(%r12), %rax
	movq	%r12, %rdi
	call	*16(%rax)
	testq	%rbp, %rbp
	je	.L543
	movl	$-1, %eax
	lock xaddl	%eax, 12(%r12)
.L544:
	cmpl	$1, %eax
	jne	.L539
	movq	(%r12), %rax
	movq	%r12, %rdi
	call	*24(%rax)
	jmp	.L539
	.p2align 4,,10
	.p2align 3
.L515:
	movl	12(%r12), %eax
	leal	-1(%rax), %edx
	movl	%edx, 12(%r12)
	jmp	.L516
	.p2align 4,,10
	.p2align 3
.L564:
	movl	12(%r12), %eax
	leal	-1(%rax), %edx
	movl	%edx, 12(%r12)
	jmp	.L565
	.p2align 4,,10
	.p2align 3
.L550:
	movl	12(%r12), %eax
	leal	-1(%rax), %edx
	movl	%edx, 12(%r12)
	jmp	.L551
	.p2align 4,,10
	.p2align 3
.L557:
	movl	12(%r12), %eax
	leal	-1(%rax), %edx
	movl	%edx, 12(%r12)
	jmp	.L558
	.p2align 4,,10
	.p2align 3
.L522:
	movl	12(%r12), %eax
	leal	-1(%rax), %edx
	movl	%edx, 12(%r12)
	jmp	.L523
	.p2align 4,,10
	.p2align 3
.L529:
	movl	12(%r12), %eax
	leal	-1(%rax), %edx
	movl	%edx, 12(%r12)
	jmp	.L530
	.p2align 4,,10
	.p2align 3
.L536:
	movl	12(%r12), %eax
	leal	-1(%rax), %edx
	movl	%edx, 12(%r12)
	jmp	.L537
	.p2align 4,,10
	.p2align 3
.L543:
	movl	12(%r12), %eax
	leal	-1(%rax), %edx
	movl	%edx, 12(%r12)
	jmp	.L544
	.cfi_endproc
.LFE10582:
	.size	_ZThn8_N8asiodnp311LinkSessionD1Ev, .-_ZThn8_N8asiodnp311LinkSessionD1Ev
	.p2align 4
	.weak	_ZThn48_N8asiodnp311LinkSessionD1Ev
	.type	_ZThn48_N8asiodnp311LinkSessionD1Ev, @function
_ZThn48_N8asiodnp311LinkSessionD1Ev:
.LFB10583:
	.cfi_startproc
	endbr64
	movq	_ZTVN8asiodnp311LinkSessionE@GOTPCREL(%rip), %rax
	pushq	%r12
	.cfi_def_cfa_offset 16
	.cfi_offset 12, -16
	pushq	%rbp
	.cfi_def_cfa_offset 24
	.cfi_offset 6, -24
	leaq	96(%rax), %rdx
	leaq	16(%rax), %rcx
	pushq	%rbx
	.cfi_def_cfa_offset 32
	.cfi_offset 3, -32
	movq	552(%rdi), %r12
	movq	%rdx, %xmm1
	movq	%rcx, %xmm0
	leaq	144(%rax), %rdx
	movq	%rdi, %rbx
	punpcklqdq	%xmm1, %xmm0
	movq	%rdx, -32(%rdi)
	leaq	224(%rax), %rdx
	addq	$184, %rax
	movups	%xmm0, -48(%rdi)
	movq	%rdx, %xmm2
	movq	%rax, %xmm0
	punpcklqdq	%xmm2, %xmm0
	movups	%xmm0, -8(%rdi)
	testq	%r12, %r12
	je	.L583
	movq	_ZL28__gthrw___pthread_key_createPjPFvPvE@GOTPCREL(%rip), %rbp
	testq	%rbp, %rbp
	je	.L584
	movl	$-1, %eax
	lock xaddl	%eax, 8(%r12)
	cmpl	$1, %eax
	je	.L644
	.p2align 4,,10
	.p2align 3
.L583:
	leaq	520(%rbx), %rdi
	call	_ZN7openpal8TimerRefD1Ev@PLT
	movq	128(%rbx), %r12
	testq	%r12, %r12
	je	.L590
	movq	_ZL28__gthrw___pthread_key_createPjPFvPvE@GOTPCREL(%rip), %rbp
	testq	%rbp, %rbp
	je	.L591
	movl	$-1, %eax
	lock xaddl	%eax, 8(%r12)
	cmpl	$1, %eax
	je	.L645
	.p2align 4,,10
	.p2align 3
.L590:
	movq	112(%rbx), %r12
	testq	%r12, %r12
	je	.L597
	movq	_ZL28__gthrw___pthread_key_createPjPFvPvE@GOTPCREL(%rip), %rbp
	testq	%rbp, %rbp
	je	.L598
	movl	$-1, %eax
	lock xaddl	%eax, 8(%r12)
	cmpl	$1, %eax
	je	.L646
	.p2align 4,,10
	.p2align 3
.L597:
	movq	96(%rbx), %r12
	testq	%r12, %r12
	je	.L604
	movq	_ZL28__gthrw___pthread_key_createPjPFvPvE@GOTPCREL(%rip), %rbp
	testq	%rbp, %rbp
	je	.L605
	movl	$-1, %eax
	lock xaddl	%eax, 8(%r12)
	cmpl	$1, %eax
	je	.L647
	.p2align 4,,10
	.p2align 3
.L604:
	movq	80(%rbx), %r12
	testq	%r12, %r12
	je	.L611
	movq	_ZL28__gthrw___pthread_key_createPjPFvPvE@GOTPCREL(%rip), %rbp
	testq	%rbp, %rbp
	je	.L612
	movl	$-1, %eax
	lock xaddl	%eax, 8(%r12)
	cmpl	$1, %eax
	je	.L648
	.p2align 4,,10
	.p2align 3
.L611:
	movq	64(%rbx), %r12
	testq	%r12, %r12
	je	.L618
	movq	_ZL28__gthrw___pthread_key_createPjPFvPvE@GOTPCREL(%rip), %rbp
	testq	%rbp, %rbp
	je	.L619
	movl	$-1, %eax
	lock xaddl	%eax, 8(%r12)
	cmpl	$1, %eax
	je	.L649
	.p2align 4,,10
	.p2align 3
.L618:
	movq	40(%rbx), %r12
	testq	%r12, %r12
	je	.L625
	movq	_ZL28__gthrw___pthread_key_createPjPFvPvE@GOTPCREL(%rip), %rbp
	testq	%rbp, %rbp
	je	.L626
	movl	$-1, %eax
	lock xaddl	%eax, 8(%r12)
	cmpl	$1, %eax
	je	.L650
	.p2align 4,,10
	.p2align 3
.L625:
	movq	24(%rbx), %r12
	testq	%r12, %r12
	je	.L632
	movq	_ZL28__gthrw___pthread_key_createPjPFvPvE@GOTPCREL(%rip), %rbp
	testq	%rbp, %rbp
	je	.L633
	movl	$-1, %eax
	lock xaddl	%eax, 8(%r12)
	cmpl	$1, %eax
	je	.L651
	.p2align 4,,10
	.p2align 3
.L632:
	movq	-16(%rbx), %rdi
	testq	%rdi, %rdi
	je	.L581
	cmpq	$0, _ZL28__gthrw___pthread_key_createPjPFvPvE@GOTPCREL(%rip)
	je	.L640
	movl	$-1, %eax
	lock xaddl	%eax, 12(%rdi)
	cmpl	$1, %eax
	je	.L652
.L581:
	popq	%rbx
	.cfi_remember_state
	.cfi_def_cfa_offset 24
	popq	%rbp
	.cfi_def_cfa_offset 16
	popq	%r12
	.cfi_def_cfa_offset 8
	ret
	.p2align 4,,10
	.p2align 3
.L640:
	.cfi_restore_state
	movl	12(%rdi), %eax
	leal	-1(%rax), %edx
	movl	%edx, 12(%rdi)
	cmpl	$1, %eax
	jne	.L581
.L652:
	movq	(%rdi), %rax
	popq	%rbx
	.cfi_remember_state
	.cfi_def_cfa_offset 24
	popq	%rbp
	.cfi_def_cfa_offset 16
	popq	%r12
	.cfi_def_cfa_offset 8
	movq	24(%rax), %rax
	jmp	*%rax
	.p2align 4,,10
	.p2align 3
.L605:
	.cfi_restore_state
	movl	8(%r12), %eax
	leal	-1(%rax), %edx
	movl	%edx, 8(%r12)
	cmpl	$1, %eax
	jne	.L604
.L647:
	movq	(%r12), %rax
	movq	%r12, %rdi
	call	*16(%rax)
	testq	%rbp, %rbp
	je	.L608
	movl	$-1, %eax
	lock xaddl	%eax, 12(%r12)
.L609:
	cmpl	$1, %eax
	jne	.L604
	movq	(%r12), %rax
	movq	%r12, %rdi
	call	*24(%rax)
	jmp	.L604
	.p2align 4,,10
	.p2align 3
.L598:
	movl	8(%r12), %eax
	leal	-1(%rax), %edx
	movl	%edx, 8(%r12)
	cmpl	$1, %eax
	jne	.L597
.L646:
	movq	(%r12), %rax
	movq	%r12, %rdi
	call	*16(%rax)
	testq	%rbp, %rbp
	je	.L601
	movl	$-1, %eax
	lock xaddl	%eax, 12(%r12)
.L602:
	cmpl	$1, %eax
	jne	.L597
	movq	(%r12), %rax
	movq	%r12, %rdi
	call	*24(%rax)
	jmp	.L597
	.p2align 4,,10
	.p2align 3
.L591:
	movl	8(%r12), %eax
	leal	-1(%rax), %edx
	movl	%edx, 8(%r12)
	cmpl	$1, %eax
	jne	.L590
.L645:
	movq	(%r12), %rax
	movq	%r12, %rdi
	call	*16(%rax)
	testq	%rbp, %rbp
	je	.L594
	movl	$-1, %eax
	lock xaddl	%eax, 12(%r12)
.L595:
	cmpl	$1, %eax
	jne	.L590
	movq	(%r12), %rax
	movq	%r12, %rdi
	call	*24(%rax)
	jmp	.L590
	.p2align 4,,10
	.p2align 3
.L584:
	movl	8(%r12), %eax
	leal	-1(%rax), %edx
	movl	%edx, 8(%r12)
	cmpl	$1, %eax
	jne	.L583
.L644:
	movq	(%r12), %rax
	movq	%r12, %rdi
	call	*16(%rax)
	testq	%rbp, %rbp
	je	.L587
	movl	$-1, %eax
	lock xaddl	%eax, 12(%r12)
.L588:
	cmpl	$1, %eax
	jne	.L583
	movq	(%r12), %rax
	movq	%r12, %rdi
	call	*24(%rax)
	jmp	.L583
	.p2align 4,,10
	.p2align 3
.L633:
	movl	8(%r12), %eax
	leal	-1(%rax), %edx
	movl	%edx, 8(%r12)
	cmpl	$1, %eax
	jne	.L632
.L651:
	movq	(%r12), %rax
	movq	%r12, %rdi
	call	*16(%rax)
	testq	%rbp, %rbp
	je	.L636
	movl	$-1, %eax
	lock xaddl	%eax, 12(%r12)
.L637:
	cmpl	$1, %eax
	jne	.L632
	movq	(%r12), %rax
	movq	%r12, %rdi
	call	*24(%rax)
	jmp	.L632
	.p2align 4,,10
	.p2align 3
.L626:
	movl	8(%r12), %eax
	leal	-1(%rax), %edx
	movl	%edx, 8(%r12)
	cmpl	$1, %eax
	jne	.L625
.L650:
	movq	(%r12), %rax
	movq	%r12, %rdi
	call	*16(%rax)
	testq	%rbp, %rbp
	je	.L629
	movl	$-1, %eax
	lock xaddl	%eax, 12(%r12)
.L630:
	cmpl	$1, %eax
	jne	.L625
	movq	(%r12), %rax
	movq	%r12, %rdi
	call	*24(%rax)
	jmp	.L625
	.p2align 4,,10
	.p2align 3
.L619:
	movl	8(%r12), %eax
	leal	-1(%rax), %edx
	movl	%edx, 8(%r12)
	cmpl	$1, %eax
	jne	.L618
.L649:
	movq	(%r12), %rax
	movq	%r12, %rdi
	call	*16(%rax)
	testq	%rbp, %rbp
	je	.L622
	movl	$-1, %eax
	lock xaddl	%eax, 12(%r12)
.L623:
	cmpl	$1, %eax
	jne	.L618
	movq	(%r12), %rax
	movq	%r12, %rdi
	call	*24(%rax)
	jmp	.L618
	.p2align 4,,10
	.p2align 3
.L612:
	movl	8(%r12), %eax
	leal	-1(%rax), %edx
	movl	%edx, 8(%r12)
	cmpl	$1, %eax
	jne	.L611
.L648:
	movq	(%r12), %rax
	movq	%r12, %rdi
	call	*16(%rax)
	testq	%rbp, %rbp
	je	.L615
	movl	$-1, %eax
	lock xaddl	%eax, 12(%r12)
.L616:
	cmpl	$1, %eax
	jne	.L611
	movq	(%r12), %rax
	movq	%r12, %rdi
	call	*24(%rax)
	jmp	.L611
	.p2align 4,,10
	.p2align 3
.L587:
	movl	12(%r12), %eax
	leal	-1(%rax), %edx
	movl	%edx, 12(%r12)
	jmp	.L588
	.p2align 4,,10
	.p2align 3
.L636:
	movl	12(%r12), %eax
	leal	-1(%rax), %edx
	movl	%edx, 12(%r12)
	jmp	.L637
	.p2align 4,,10
	.p2align 3
.L622:
	movl	12(%r12), %eax
	leal	-1(%rax), %edx
	movl	%edx, 12(%r12)
	jmp	.L623
	.p2align 4,,10
	.p2align 3
.L629:
	movl	12(%r12), %eax
	leal	-1(%rax), %edx
	movl	%edx, 12(%r12)
	jmp	.L630
	.p2align 4,,10
	.p2align 3
.L594:
	movl	12(%r12), %eax
	leal	-1(%rax), %edx
	movl	%edx, 12(%r12)
	jmp	.L595
	.p2align 4,,10
	.p2align 3
.L601:
	movl	12(%r12), %eax
	leal	-1(%rax), %edx
	movl	%edx, 12(%r12)
	jmp	.L602
	.p2align 4,,10
	.p2align 3
.L608:
	movl	12(%r12), %eax
	leal	-1(%rax), %edx
	movl	%edx, 12(%r12)
	jmp	.L609
	.p2align 4,,10
	.p2align 3
.L615:
	movl	12(%r12), %eax
	leal	-1(%rax), %edx
	movl	%edx, 12(%r12)
	jmp	.L616
	.cfi_endproc
.LFE10583:
	.size	_ZThn48_N8asiodnp311LinkSessionD1Ev, .-_ZThn48_N8asiodnp311LinkSessionD1Ev
	.section	.text._ZN8asiodnp311LinkSessionD0Ev,"axG",@progbits,_ZN8asiodnp311LinkSessionD5Ev,comdat
	.align 2
	.p2align 4
	.weak	_ZN8asiodnp311LinkSessionD0Ev
	.type	_ZN8asiodnp311LinkSessionD0Ev, @function
_ZN8asiodnp311LinkSessionD0Ev:
.LFB10268:
	.cfi_startproc
	endbr64
	movq	_ZTVN8asiodnp311LinkSessionE@GOTPCREL(%rip), %rax
	pushq	%r12
	.cfi_def_cfa_offset 16
	.cfi_offset 12, -16
	pushq	%rbp
	.cfi_def_cfa_offset 24
	.cfi_offset 6, -24
	movq	%rdi, %rbp
	leaq	96(%rax), %rdx
	leaq	16(%rax), %rcx
	pushq	%rbx
	.cfi_def_cfa_offset 32
	.cfi_offset 3, -32
	movq	600(%rdi), %r12
	movq	%rdx, %xmm1
	movq	%rcx, %xmm0
	leaq	144(%rax), %rdx
	punpcklqdq	%xmm1, %xmm0
	movq	%rdx, 16(%rdi)
	leaq	224(%rax), %rdx
	addq	$184, %rax
	movups	%xmm0, (%rdi)
	movq	%rdx, %xmm2
	movq	%rax, %xmm0
	punpcklqdq	%xmm2, %xmm0
	movups	%xmm0, 40(%rdi)
	testq	%r12, %r12
	je	.L655
	movq	_ZL28__gthrw___pthread_key_createPjPFvPvE@GOTPCREL(%rip), %rbx
	testq	%rbx, %rbx
	je	.L656
	movl	$-1, %eax
	lock xaddl	%eax, 8(%r12)
	cmpl	$1, %eax
	je	.L716
	.p2align 4,,10
	.p2align 3
.L655:
	leaq	568(%rbp), %rdi
	call	_ZN7openpal8TimerRefD1Ev@PLT
	movq	176(%rbp), %r12
	testq	%r12, %r12
	je	.L662
	movq	_ZL28__gthrw___pthread_key_createPjPFvPvE@GOTPCREL(%rip), %rbx
	testq	%rbx, %rbx
	je	.L663
	movl	$-1, %eax
	lock xaddl	%eax, 8(%r12)
	cmpl	$1, %eax
	je	.L717
	.p2align 4,,10
	.p2align 3
.L662:
	movq	160(%rbp), %r12
	testq	%r12, %r12
	je	.L669
	movq	_ZL28__gthrw___pthread_key_createPjPFvPvE@GOTPCREL(%rip), %rbx
	testq	%rbx, %rbx
	je	.L670
	movl	$-1, %eax
	lock xaddl	%eax, 8(%r12)
	cmpl	$1, %eax
	je	.L718
	.p2align 4,,10
	.p2align 3
.L669:
	movq	144(%rbp), %r12
	testq	%r12, %r12
	je	.L676
	movq	_ZL28__gthrw___pthread_key_createPjPFvPvE@GOTPCREL(%rip), %rbx
	testq	%rbx, %rbx
	je	.L677
	movl	$-1, %eax
	lock xaddl	%eax, 8(%r12)
	cmpl	$1, %eax
	je	.L719
	.p2align 4,,10
	.p2align 3
.L676:
	movq	128(%rbp), %r12
	testq	%r12, %r12
	je	.L683
	movq	_ZL28__gthrw___pthread_key_createPjPFvPvE@GOTPCREL(%rip), %rbx
	testq	%rbx, %rbx
	je	.L684
	movl	$-1, %eax
	lock xaddl	%eax, 8(%r12)
	cmpl	$1, %eax
	je	.L720
	.p2align 4,,10
	.p2align 3
.L683:
	movq	112(%rbp), %r12
	testq	%r12, %r12
	je	.L690
	movq	_ZL28__gthrw___pthread_key_createPjPFvPvE@GOTPCREL(%rip), %rbx
	testq	%rbx, %rbx
	je	.L691
	movl	$-1, %eax
	lock xaddl	%eax, 8(%r12)
	cmpl	$1, %eax
	je	.L721
	.p2align 4,,10
	.p2align 3
.L690:
	movq	88(%rbp), %r12
	testq	%r12, %r12
	je	.L697
	movq	_ZL28__gthrw___pthread_key_createPjPFvPvE@GOTPCREL(%rip), %rbx
	testq	%rbx, %rbx
	je	.L698
	movl	$-1, %eax
	lock xaddl	%eax, 8(%r12)
	cmpl	$1, %eax
	je	.L722
	.p2align 4,,10
	.p2align 3
.L697:
	movq	72(%rbp), %r12
	testq	%r12, %r12
	je	.L704
	movq	_ZL28__gthrw___pthread_key_createPjPFvPvE@GOTPCREL(%rip), %rbx
	testq	%rbx, %rbx
	je	.L705
	movl	$-1, %eax
	lock xaddl	%eax, 8(%r12)
	cmpl	$1, %eax
	je	.L723
	.p2align 4,,10
	.p2align 3
.L704:
	movq	32(%rbp), %rdi
	testq	%rdi, %rdi
	je	.L711
	cmpq	$0, _ZL28__gthrw___pthread_key_createPjPFvPvE@GOTPCREL(%rip)
	je	.L712
	movl	$-1, %eax
	lock xaddl	%eax, 12(%rdi)
	cmpl	$1, %eax
	je	.L724
.L711:
	popq	%rbx
	.cfi_remember_state
	.cfi_def_cfa_offset 24
	movq	%rbp, %rdi
	movl	$608, %esi
	popq	%rbp
	.cfi_def_cfa_offset 16
	popq	%r12
	.cfi_def_cfa_offset 8
	jmp	_ZdlPvm@PLT
	.p2align 4,,10
	.p2align 3
.L712:
	.cfi_restore_state
	movl	12(%rdi), %eax
	leal	-1(%rax), %edx
	movl	%edx, 12(%rdi)
	cmpl	$1, %eax
	jne	.L711
.L724:
	movq	(%rdi), %rax
	call	*24(%rax)
	jmp	.L711
	.p2align 4,,10
	.p2align 3
.L677:
	movl	8(%r12), %eax
	leal	-1(%rax), %edx
	movl	%edx, 8(%r12)
	cmpl	$1, %eax
	jne	.L676
.L719:
	movq	(%r12), %rax
	movq	%r12, %rdi
	call	*16(%rax)
	testq	%rbx, %rbx
	je	.L680
	movl	$-1, %eax
	lock xaddl	%eax, 12(%r12)
.L681:
	cmpl	$1, %eax
	jne	.L676
	movq	(%r12), %rax
	movq	%r12, %rdi
	call	*24(%rax)
	jmp	.L676
	.p2align 4,,10
	.p2align 3
.L670:
	movl	8(%r12), %eax
	leal	-1(%rax), %edx
	movl	%edx, 8(%r12)
	cmpl	$1, %eax
	jne	.L669
.L718:
	movq	(%r12), %rax
	movq	%r12, %rdi
	call	*16(%rax)
	testq	%rbx, %rbx
	je	.L673
	movl	$-1, %eax
	lock xaddl	%eax, 12(%r12)
.L674:
	cmpl	$1, %eax
	jne	.L669
	movq	(%r12), %rax
	movq	%r12, %rdi
	call	*24(%rax)
	jmp	.L669
	.p2align 4,,10
	.p2align 3
.L663:
	movl	8(%r12), %eax
	leal	-1(%rax), %edx
	movl	%edx, 8(%r12)
	cmpl	$1, %eax
	jne	.L662
.L717:
	movq	(%r12), %rax
	movq	%r12, %rdi
	call	*16(%rax)
	testq	%rbx, %rbx
	je	.L666
	movl	$-1, %eax
	lock xaddl	%eax, 12(%r12)
.L667:
	cmpl	$1, %eax
	jne	.L662
	movq	(%r12), %rax
	movq	%r12, %rdi
	call	*24(%rax)
	jmp	.L662
	.p2align 4,,10
	.p2align 3
.L656:
	movl	8(%r12), %eax
	leal	-1(%rax), %edx
	movl	%edx, 8(%r12)
	cmpl	$1, %eax
	jne	.L655
.L716:
	movq	(%r12), %rax
	movq	%r12, %rdi
	call	*16(%rax)
	testq	%rbx, %rbx
	je	.L659
	movl	$-1, %eax
	lock xaddl	%eax, 12(%r12)
.L660:
	cmpl	$1, %eax
	jne	.L655
	movq	(%r12), %rax
	movq	%r12, %rdi
	call	*24(%rax)
	jmp	.L655
	.p2align 4,,10
	.p2align 3
.L705:
	movl	8(%r12), %eax
	leal	-1(%rax), %edx
	movl	%edx, 8(%r12)
	cmpl	$1, %eax
	jne	.L704
.L723:
	movq	(%r12), %rax
	movq	%r12, %rdi
	call	*16(%rax)
	testq	%rbx, %rbx
	je	.L708
	movl	$-1, %eax
	lock xaddl	%eax, 12(%r12)
.L709:
	cmpl	$1, %eax
	jne	.L704
	movq	(%r12), %rax
	movq	%r12, %rdi
	call	*24(%rax)
	jmp	.L704
	.p2align 4,,10
	.p2align 3
.L698:
	movl	8(%r12), %eax
	leal	-1(%rax), %edx
	movl	%edx, 8(%r12)
	cmpl	$1, %eax
	jne	.L697
.L722:
	movq	(%r12), %rax
	movq	%r12, %rdi
	call	*16(%rax)
	testq	%rbx, %rbx
	je	.L701
	movl	$-1, %eax
	lock xaddl	%eax, 12(%r12)
.L702:
	cmpl	$1, %eax
	jne	.L697
	movq	(%r12), %rax
	movq	%r12, %rdi
	call	*24(%rax)
	jmp	.L697
	.p2align 4,,10
	.p2align 3
.L691:
	movl	8(%r12), %eax
	leal	-1(%rax), %edx
	movl	%edx, 8(%r12)
	cmpl	$1, %eax
	jne	.L690
.L721:
	movq	(%r12), %rax
	movq	%r12, %rdi
	call	*16(%rax)
	testq	%rbx, %rbx
	je	.L694
	movl	$-1, %eax
	lock xaddl	%eax, 12(%r12)
.L695:
	cmpl	$1, %eax
	jne	.L690
	movq	(%r12), %rax
	movq	%r12, %rdi
	call	*24(%rax)
	jmp	.L690
	.p2align 4,,10
	.p2align 3
.L684:
	movl	8(%r12), %eax
	leal	-1(%rax), %edx
	movl	%edx, 8(%r12)
	cmpl	$1, %eax
	jne	.L683
.L720:
	movq	(%r12), %rax
	movq	%r12, %rdi
	call	*16(%rax)
	testq	%rbx, %rbx
	je	.L687
	movl	$-1, %eax
	lock xaddl	%eax, 12(%r12)
.L688:
	cmpl	$1, %eax
	jne	.L683
	movq	(%r12), %rax
	movq	%r12, %rdi
	call	*24(%rax)
	jmp	.L683
	.p2align 4,,10
	.p2align 3
.L659:
	movl	12(%r12), %eax
	leal	-1(%rax), %edx
	movl	%edx, 12(%r12)
	jmp	.L660
	.p2align 4,,10
	.p2align 3
.L708:
	movl	12(%r12), %eax
	leal	-1(%rax), %edx
	movl	%edx, 12(%r12)
	jmp	.L709
	.p2align 4,,10
	.p2align 3
.L694:
	movl	12(%r12), %eax
	leal	-1(%rax), %edx
	movl	%edx, 12(%r12)
	jmp	.L695
	.p2align 4,,10
	.p2align 3
.L701:
	movl	12(%r12), %eax
	leal	-1(%rax), %edx
	movl	%edx, 12(%r12)
	jmp	.L702
	.p2align 4,,10
	.p2align 3
.L666:
	movl	12(%r12), %eax
	leal	-1(%rax), %edx
	movl	%edx, 12(%r12)
	jmp	.L667
	.p2align 4,,10
	.p2align 3
.L673:
	movl	12(%r12), %eax
	leal	-1(%rax), %edx
	movl	%edx, 12(%r12)
	jmp	.L674
	.p2align 4,,10
	.p2align 3
.L680:
	movl	12(%r12), %eax
	leal	-1(%rax), %edx
	movl	%edx, 12(%r12)
	jmp	.L681
	.p2align 4,,10
	.p2align 3
.L687:
	movl	12(%r12), %eax
	leal	-1(%rax), %edx
	movl	%edx, 12(%r12)
	jmp	.L688
	.cfi_endproc
.LFE10268:
	.size	_ZN8asiodnp311LinkSessionD0Ev, .-_ZN8asiodnp311LinkSessionD0Ev
	.section	.text._ZN8asiodnp311LinkSessionD2Ev,"axG",@progbits,_ZN8asiodnp311LinkSessionD5Ev,comdat
	.align 2
	.p2align 4
	.weak	_ZN8asiodnp311LinkSessionD2Ev
	.type	_ZN8asiodnp311LinkSessionD2Ev, @function
_ZN8asiodnp311LinkSessionD2Ev:
.LFB10266:
	.cfi_startproc
	endbr64
	movq	_ZTVN8asiodnp311LinkSessionE@GOTPCREL(%rip), %rax
	pushq	%r12
	.cfi_def_cfa_offset 16
	.cfi_offset 12, -16
	pushq	%rbp
	.cfi_def_cfa_offset 24
	.cfi_offset 6, -24
	leaq	96(%rax), %rdx
	leaq	16(%rax), %rcx
	pushq	%rbx
	.cfi_def_cfa_offset 32
	.cfi_offset 3, -32
	movq	600(%rdi), %r12
	movq	%rdx, %xmm1
	movq	%rcx, %xmm0
	leaq	144(%rax), %rdx
	movq	%rdi, %rbx
	punpcklqdq	%xmm1, %xmm0
	movq	%rdx, 16(%rdi)
	leaq	224(%rax), %rdx
	addq	$184, %rax
	movups	%xmm0, (%rdi)
	movq	%rdx, %xmm2
	movq	%rax, %xmm0
	punpcklqdq	%xmm2, %xmm0
	movups	%xmm0, 40(%rdi)
	testq	%r12, %r12
	je	.L727
	movq	_ZL28__gthrw___pthread_key_createPjPFvPvE@GOTPCREL(%rip), %rbp
	testq	%rbp, %rbp
	je	.L728
	movl	$-1, %eax
	lock xaddl	%eax, 8(%r12)
	cmpl	$1, %eax
	je	.L788
	.p2align 4,,10
	.p2align 3
.L727:
	leaq	568(%rbx), %rdi
	call	_ZN7openpal8TimerRefD1Ev@PLT
	movq	176(%rbx), %r12
	testq	%r12, %r12
	je	.L734
	movq	_ZL28__gthrw___pthread_key_createPjPFvPvE@GOTPCREL(%rip), %rbp
	testq	%rbp, %rbp
	je	.L735
	movl	$-1, %eax
	lock xaddl	%eax, 8(%r12)
	cmpl	$1, %eax
	je	.L789
	.p2align 4,,10
	.p2align 3
.L734:
	movq	160(%rbx), %r12
	testq	%r12, %r12
	je	.L741
	movq	_ZL28__gthrw___pthread_key_createPjPFvPvE@GOTPCREL(%rip), %rbp
	testq	%rbp, %rbp
	je	.L742
	movl	$-1, %eax
	lock xaddl	%eax, 8(%r12)
	cmpl	$1, %eax
	je	.L790
	.p2align 4,,10
	.p2align 3
.L741:
	movq	144(%rbx), %r12
	testq	%r12, %r12
	je	.L748
	movq	_ZL28__gthrw___pthread_key_createPjPFvPvE@GOTPCREL(%rip), %rbp
	testq	%rbp, %rbp
	je	.L749
	movl	$-1, %eax
	lock xaddl	%eax, 8(%r12)
	cmpl	$1, %eax
	je	.L791
	.p2align 4,,10
	.p2align 3
.L748:
	movq	128(%rbx), %r12
	testq	%r12, %r12
	je	.L755
	movq	_ZL28__gthrw___pthread_key_createPjPFvPvE@GOTPCREL(%rip), %rbp
	testq	%rbp, %rbp
	je	.L756
	movl	$-1, %eax
	lock xaddl	%eax, 8(%r12)
	cmpl	$1, %eax
	je	.L792
	.p2align 4,,10
	.p2align 3
.L755:
	movq	112(%rbx), %r12
	testq	%r12, %r12
	je	.L762
	movq	_ZL28__gthrw___pthread_key_createPjPFvPvE@GOTPCREL(%rip), %rbp
	testq	%rbp, %rbp
	je	.L763
	movl	$-1, %eax
	lock xaddl	%eax, 8(%r12)
	cmpl	$1, %eax
	je	.L793
	.p2align 4,,10
	.p2align 3
.L762:
	movq	88(%rbx), %r12
	testq	%r12, %r12
	je	.L769
	movq	_ZL28__gthrw___pthread_key_createPjPFvPvE@GOTPCREL(%rip), %rbp
	testq	%rbp, %rbp
	je	.L770
	movl	$-1, %eax
	lock xaddl	%eax, 8(%r12)
	cmpl	$1, %eax
	je	.L794
	.p2align 4,,10
	.p2align 3
.L769:
	movq	72(%rbx), %r12
	testq	%r12, %r12
	je	.L776
	movq	_ZL28__gthrw___pthread_key_createPjPFvPvE@GOTPCREL(%rip), %rbp
	testq	%rbp, %rbp
	je	.L777
	movl	$-1, %eax
	lock xaddl	%eax, 8(%r12)
	cmpl	$1, %eax
	je	.L795
	.p2align 4,,10
	.p2align 3
.L776:
	movq	32(%rbx), %rdi
	testq	%rdi, %rdi
	je	.L725
	cmpq	$0, _ZL28__gthrw___pthread_key_createPjPFvPvE@GOTPCREL(%rip)
	je	.L784
	movl	$-1, %eax
	lock xaddl	%eax, 12(%rdi)
	cmpl	$1, %eax
	je	.L796
.L725:
	popq	%rbx
	.cfi_remember_state
	.cfi_def_cfa_offset 24
	popq	%rbp
	.cfi_def_cfa_offset 16
	popq	%r12
	.cfi_def_cfa_offset 8
	ret
	.p2align 4,,10
	.p2align 3
.L784:
	.cfi_restore_state
	movl	12(%rdi), %eax
	leal	-1(%rax), %edx
	movl	%edx, 12(%rdi)
	cmpl	$1, %eax
	jne	.L725
.L796:
	movq	(%rdi), %rax
	popq	%rbx
	.cfi_remember_state
	.cfi_def_cfa_offset 24
	popq	%rbp
	.cfi_def_cfa_offset 16
	popq	%r12
	.cfi_def_cfa_offset 8
	movq	24(%rax), %rax
	jmp	*%rax
	.p2align 4,,10
	.p2align 3
.L749:
	.cfi_restore_state
	movl	8(%r12), %eax
	leal	-1(%rax), %edx
	movl	%edx, 8(%r12)
	cmpl	$1, %eax
	jne	.L748
.L791:
	movq	(%r12), %rax
	movq	%r12, %rdi
	call	*16(%rax)
	testq	%rbp, %rbp
	je	.L752
	movl	$-1, %eax
	lock xaddl	%eax, 12(%r12)
.L753:
	cmpl	$1, %eax
	jne	.L748
	movq	(%r12), %rax
	movq	%r12, %rdi
	call	*24(%rax)
	jmp	.L748
	.p2align 4,,10
	.p2align 3
.L742:
	movl	8(%r12), %eax
	leal	-1(%rax), %edx
	movl	%edx, 8(%r12)
	cmpl	$1, %eax
	jne	.L741
.L790:
	movq	(%r12), %rax
	movq	%r12, %rdi
	call	*16(%rax)
	testq	%rbp, %rbp
	je	.L745
	movl	$-1, %eax
	lock xaddl	%eax, 12(%r12)
.L746:
	cmpl	$1, %eax
	jne	.L741
	movq	(%r12), %rax
	movq	%r12, %rdi
	call	*24(%rax)
	jmp	.L741
	.p2align 4,,10
	.p2align 3
.L735:
	movl	8(%r12), %eax
	leal	-1(%rax), %edx
	movl	%edx, 8(%r12)
	cmpl	$1, %eax
	jne	.L734
.L789:
	movq	(%r12), %rax
	movq	%r12, %rdi
	call	*16(%rax)
	testq	%rbp, %rbp
	je	.L738
	movl	$-1, %eax
	lock xaddl	%eax, 12(%r12)
.L739:
	cmpl	$1, %eax
	jne	.L734
	movq	(%r12), %rax
	movq	%r12, %rdi
	call	*24(%rax)
	jmp	.L734
	.p2align 4,,10
	.p2align 3
.L728:
	movl	8(%r12), %eax
	leal	-1(%rax), %edx
	movl	%edx, 8(%r12)
	cmpl	$1, %eax
	jne	.L727
.L788:
	movq	(%r12), %rax
	movq	%r12, %rdi
	call	*16(%rax)
	testq	%rbp, %rbp
	je	.L731
	movl	$-1, %eax
	lock xaddl	%eax, 12(%r12)
.L732:
	cmpl	$1, %eax
	jne	.L727
	movq	(%r12), %rax
	movq	%r12, %rdi
	call	*24(%rax)
	jmp	.L727
	.p2align 4,,10
	.p2align 3
.L777:
	movl	8(%r12), %eax
	leal	-1(%rax), %edx
	movl	%edx, 8(%r12)
	cmpl	$1, %eax
	jne	.L776
.L795:
	movq	(%r12), %rax
	movq	%r12, %rdi
	call	*16(%rax)
	testq	%rbp, %rbp
	je	.L780
	movl	$-1, %eax
	lock xaddl	%eax, 12(%r12)
.L781:
	cmpl	$1, %eax
	jne	.L776
	movq	(%r12), %rax
	movq	%r12, %rdi
	call	*24(%rax)
	jmp	.L776
	.p2align 4,,10
	.p2align 3
.L770:
	movl	8(%r12), %eax
	leal	-1(%rax), %edx
	movl	%edx, 8(%r12)
	cmpl	$1, %eax
	jne	.L769
.L794:
	movq	(%r12), %rax
	movq	%r12, %rdi
	call	*16(%rax)
	testq	%rbp, %rbp
	je	.L773
	movl	$-1, %eax
	lock xaddl	%eax, 12(%r12)
.L774:
	cmpl	$1, %eax
	jne	.L769
	movq	(%r12), %rax
	movq	%r12, %rdi
	call	*24(%rax)
	jmp	.L769
	.p2align 4,,10
	.p2align 3
.L763:
	movl	8(%r12), %eax
	leal	-1(%rax), %edx
	movl	%edx, 8(%r12)
	cmpl	$1, %eax
	jne	.L762
.L793:
	movq	(%r12), %rax
	movq	%r12, %rdi
	call	*16(%rax)
	testq	%rbp, %rbp
	je	.L766
	movl	$-1, %eax
	lock xaddl	%eax, 12(%r12)
.L767:
	cmpl	$1, %eax
	jne	.L762
	movq	(%r12), %rax
	movq	%r12, %rdi
	call	*24(%rax)
	jmp	.L762
	.p2align 4,,10
	.p2align 3
.L756:
	movl	8(%r12), %eax
	leal	-1(%rax), %edx
	movl	%edx, 8(%r12)
	cmpl	$1, %eax
	jne	.L755
.L792:
	movq	(%r12), %rax
	movq	%r12, %rdi
	call	*16(%rax)
	testq	%rbp, %rbp
	je	.L759
	movl	$-1, %eax
	lock xaddl	%eax, 12(%r12)
.L760:
	cmpl	$1, %eax
	jne	.L755
	movq	(%r12), %rax
	movq	%r12, %rdi
	call	*24(%rax)
	jmp	.L755
	.p2align 4,,10
	.p2align 3
.L731:
	movl	12(%r12), %eax
	leal	-1(%rax), %edx
	movl	%edx, 12(%r12)
	jmp	.L732
	.p2align 4,,10
	.p2align 3
.L780:
	movl	12(%r12), %eax
	leal	-1(%rax), %edx
	movl	%edx, 12(%r12)
	jmp	.L781
	.p2align 4,,10
	.p2align 3
.L766:
	movl	12(%r12), %eax
	leal	-1(%rax), %edx
	movl	%edx, 12(%r12)
	jmp	.L767
	.p2align 4,,10
	.p2align 3
.L773:
	movl	12(%r12), %eax
	leal	-1(%rax), %edx
	movl	%edx, 12(%r12)
	jmp	.L774
	.p2align 4,,10
	.p2align 3
.L738:
	movl	12(%r12), %eax
	leal	-1(%rax), %edx
	movl	%edx, 12(%r12)
	jmp	.L739
	.p2align 4,,10
	.p2align 3
.L745:
	movl	12(%r12), %eax
	leal	-1(%rax), %edx
	movl	%edx, 12(%r12)
	jmp	.L746
	.p2align 4,,10
	.p2align 3
.L752:
	movl	12(%r12), %eax
	leal	-1(%rax), %edx
	movl	%edx, 12(%r12)
	jmp	.L753
	.p2align 4,,10
	.p2align 3
.L759:
	movl	12(%r12), %eax
	leal	-1(%rax), %edx
	movl	%edx, 12(%r12)
	jmp	.L760
	.cfi_endproc
.LFE10266:
	.size	_ZN8asiodnp311LinkSessionD2Ev, .-_ZN8asiodnp311LinkSessionD2Ev
	.weak	_ZN8asiodnp311LinkSessionD1Ev
	.set	_ZN8asiodnp311LinkSessionD1Ev,_ZN8asiodnp311LinkSessionD2Ev
	.text
	.p2align 4
	.type	_ZNSt14_Function_base13_Base_managerIZN7openpal8TimerRef5StartIZN8asiodnp311LinkSession5StartEvEUlvE_EEbRKNS1_12TimeDurationERKT_EUlvE_E10_M_managerERSt9_Any_dataRKSF_St18_Manager_operation, @function
_ZNSt14_Function_base13_Base_managerIZN7openpal8TimerRef5StartIZN8asiodnp311LinkSession5StartEvEUlvE_EEbRKNS1_12TimeDurationERKT_EUlvE_E10_M_managerERSt9_Any_dataRKSF_St18_Manager_operation:
.LFB9562:
	.cfi_startproc
	endbr64
	pushq	%r12
	.cfi_def_cfa_offset 16
	.cfi_offset 12, -16
	pushq	%rbp
	.cfi_def_cfa_offset 24
	.cfi_offset 6, -24
	pushq	%rbx
	.cfi_def_cfa_offset 32
	.cfi_offset 3, -32
	movq	%rdi, %rbx
	cmpl	$2, %edx
	je	.L798
	ja	.L799
	testl	%edx, %edx
	je	.L821
	movq	(%rsi), %rax
	movq	%rax, (%rdi)
.L803:
	popq	%rbx
	.cfi_remember_state
	.cfi_def_cfa_offset 24
	xorl	%eax, %eax
	popq	%rbp
	.cfi_def_cfa_offset 16
	popq	%r12
	.cfi_def_cfa_offset 8
	ret
	.p2align 4,,10
	.p2align 3
.L799:
	.cfi_restore_state
	cmpl	$3, %edx
	jne	.L803
	movq	(%rdi), %rbp
	testq	%rbp, %rbp
	je	.L803
	movq	16(%rbp), %r12
	testq	%r12, %r12
	je	.L807
	movq	_ZL28__gthrw___pthread_key_createPjPFvPvE@GOTPCREL(%rip), %rbx
	testq	%rbx, %rbx
	je	.L808
	movl	$-1, %eax
	lock xaddl	%eax, 8(%r12)
.L809:
	cmpl	$1, %eax
	jne	.L807
	movq	(%r12), %rax
	movq	%r12, %rdi
	call	*16(%rax)
	testq	%rbx, %rbx
	je	.L811
	movl	$-1, %eax
	lock xaddl	%eax, 12(%r12)
.L812:
	cmpl	$1, %eax
	jne	.L807
	movq	(%r12), %rax
	movq	%r12, %rdi
	call	*24(%rax)
.L807:
	movq	%rbp, %rdi
	movl	$24, %esi
	call	_ZdlPvm@PLT
	popq	%rbx
	.cfi_remember_state
	.cfi_def_cfa_offset 24
	xorl	%eax, %eax
	popq	%rbp
	.cfi_def_cfa_offset 16
	popq	%r12
	.cfi_def_cfa_offset 8
	ret
	.p2align 4,,10
	.p2align 3
.L798:
	.cfi_restore_state
	movq	(%rsi), %rbp
	movl	$24, %edi
	call	_Znwm@PLT
	movq	0(%rbp), %rdx
	movq	%rdx, (%rax)
	movq	8(%rbp), %rdx
	movq	%rdx, 8(%rax)
	movq	16(%rbp), %rdx
	movq	%rdx, 16(%rax)
	testq	%rdx, %rdx
	je	.L804
	cmpq	$0, _ZL28__gthrw___pthread_key_createPjPFvPvE@GOTPCREL(%rip)
	je	.L805
	lock addl	$1, 8(%rdx)
.L804:
	movq	%rax, (%rbx)
	xorl	%eax, %eax
	popq	%rbx
	.cfi_remember_state
	.cfi_def_cfa_offset 24
	popq	%rbp
	.cfi_def_cfa_offset 16
	popq	%r12
	.cfi_def_cfa_offset 8
	ret
	.p2align 4,,10
	.p2align 3
.L821:
	.cfi_restore_state
	leaq	_ZTIZN7openpal8TimerRef5StartIZN8asiodnp311LinkSession5StartEvEUlvE_EEbRKNS_12TimeDurationERKT_EUlvE_(%rip), %rax
	movq	%rax, (%rdi)
	xorl	%eax, %eax
	popq	%rbx
	.cfi_remember_state
	.cfi_def_cfa_offset 24
	popq	%rbp
	.cfi_def_cfa_offset 16
	popq	%r12
	.cfi_def_cfa_offset 8
	ret
	.p2align 4,,10
	.p2align 3
.L805:
	.cfi_restore_state
	addl	$1, 8(%rdx)
	jmp	.L804
	.p2align 4,,10
	.p2align 3
.L808:
	movl	8(%r12), %eax
	leal	-1(%rax), %edx
	movl	%edx, 8(%r12)
	jmp	.L809
	.p2align 4,,10
	.p2align 3
.L811:
	movl	12(%r12), %eax
	leal	-1(%rax), %edx
	movl	%edx, 12(%r12)
	jmp	.L812
	.cfi_endproc
.LFE9562:
	.size	_ZNSt14_Function_base13_Base_managerIZN7openpal8TimerRef5StartIZN8asiodnp311LinkSession5StartEvEUlvE_EEbRKNS1_12TimeDurationERKT_EUlvE_E10_M_managerERSt9_Any_dataRKSF_St18_Manager_operation, .-_ZNSt14_Function_base13_Base_managerIZN7openpal8TimerRef5StartIZN8asiodnp311LinkSession5StartEvEUlvE_EEbRKNS1_12TimeDurationERKT_EUlvE_E10_M_managerERSt9_Any_dataRKSF_St18_Manager_operation
	.p2align 4
	.type	_ZNSt14_Function_base13_Base_managerIZN8asiodnp311LinkSession8ShutdownEvEUlvE_E10_M_managerERSt9_Any_dataRKS5_St18_Manager_operation, @function
_ZNSt14_Function_base13_Base_managerIZN8asiodnp311LinkSession8ShutdownEvEUlvE_E10_M_managerERSt9_Any_dataRKS5_St18_Manager_operation:
.LFB9204:
	.cfi_startproc
	endbr64
	pushq	%r12
	.cfi_def_cfa_offset 16
	.cfi_offset 12, -16
	pushq	%rbp
	.cfi_def_cfa_offset 24
	.cfi_offset 6, -24
	pushq	%rbx
	.cfi_def_cfa_offset 32
	.cfi_offset 3, -32
	movq	%rdi, %rbx
	cmpl	$2, %edx
	je	.L823
	ja	.L824
	testl	%edx, %edx
	je	.L846
	movq	(%rsi), %rax
	movq	%rax, (%rdi)
.L828:
	popq	%rbx
	.cfi_remember_state
	.cfi_def_cfa_offset 24
	xorl	%eax, %eax
	popq	%rbp
	.cfi_def_cfa_offset 16
	popq	%r12
	.cfi_def_cfa_offset 8
	ret
	.p2align 4,,10
	.p2align 3
.L824:
	.cfi_restore_state
	cmpl	$3, %edx
	jne	.L828
	movq	(%rdi), %rbp
	testq	%rbp, %rbp
	je	.L828
	movq	8(%rbp), %r12
	testq	%r12, %r12
	je	.L832
	movq	_ZL28__gthrw___pthread_key_createPjPFvPvE@GOTPCREL(%rip), %rbx
	testq	%rbx, %rbx
	je	.L833
	movl	$-1, %eax
	lock xaddl	%eax, 8(%r12)
.L834:
	cmpl	$1, %eax
	jne	.L832
	movq	(%r12), %rax
	movq	%r12, %rdi
	call	*16(%rax)
	testq	%rbx, %rbx
	je	.L836
	movl	$-1, %eax
	lock xaddl	%eax, 12(%r12)
.L837:
	cmpl	$1, %eax
	jne	.L832
	movq	(%r12), %rax
	movq	%r12, %rdi
	call	*24(%rax)
.L832:
	movq	%rbp, %rdi
	movl	$16, %esi
	call	_ZdlPvm@PLT
	popq	%rbx
	.cfi_remember_state
	.cfi_def_cfa_offset 24
	xorl	%eax, %eax
	popq	%rbp
	.cfi_def_cfa_offset 16
	popq	%r12
	.cfi_def_cfa_offset 8
	ret
	.p2align 4,,10
	.p2align 3
.L823:
	.cfi_restore_state
	movq	(%rsi), %rbp
	movl	$16, %edi
	call	_Znwm@PLT
	movq	0(%rbp), %rdx
	movq	%rdx, (%rax)
	movq	8(%rbp), %rdx
	movq	%rdx, 8(%rax)
	testq	%rdx, %rdx
	je	.L829
	cmpq	$0, _ZL28__gthrw___pthread_key_createPjPFvPvE@GOTPCREL(%rip)
	je	.L830
	lock addl	$1, 8(%rdx)
.L829:
	movq	%rax, (%rbx)
	xorl	%eax, %eax
	popq	%rbx
	.cfi_remember_state
	.cfi_def_cfa_offset 24
	popq	%rbp
	.cfi_def_cfa_offset 16
	popq	%r12
	.cfi_def_cfa_offset 8
	ret
	.p2align 4,,10
	.p2align 3
.L846:
	.cfi_restore_state
	leaq	_ZTIZN8asiodnp311LinkSession8ShutdownEvEUlvE_(%rip), %rax
	movq	%rax, (%rdi)
	xorl	%eax, %eax
	popq	%rbx
	.cfi_remember_state
	.cfi_def_cfa_offset 24
	popq	%rbp
	.cfi_def_cfa_offset 16
	popq	%r12
	.cfi_def_cfa_offset 8
	ret
	.p2align 4,,10
	.p2align 3
.L830:
	.cfi_restore_state
	addl	$1, 8(%rdx)
	jmp	.L829
	.p2align 4,,10
	.p2align 3
.L833:
	movl	8(%r12), %eax
	leal	-1(%rax), %edx
	movl	%edx, 8(%r12)
	jmp	.L834
	.p2align 4,,10
	.p2align 3
.L836:
	movl	12(%r12), %eax
	leal	-1(%rax), %edx
	movl	%edx, 12(%r12)
	jmp	.L837
	.cfi_endproc
.LFE9204:
	.size	_ZNSt14_Function_base13_Base_managerIZN8asiodnp311LinkSession8ShutdownEvEUlvE_E10_M_managerERSt9_Any_dataRKS5_St18_Manager_operation, .-_ZNSt14_Function_base13_Base_managerIZN8asiodnp311LinkSession8ShutdownEvEUlvE_E10_M_managerERSt9_Any_dataRKS5_St18_Manager_operation
	.section	.text.unlikely._ZSt20__throw_bad_weak_ptrv,"axG",@progbits,_ZSt20__throw_bad_weak_ptrv,comdat
	.weak	_ZSt20__throw_bad_weak_ptrv
	.type	_ZSt20__throw_bad_weak_ptrv, @function
_ZSt20__throw_bad_weak_ptrv:
.LFB1586:
	.cfi_startproc
	endbr64
	pushq	%rax
	.cfi_def_cfa_offset 16
	popq	%rax
	.cfi_def_cfa_offset 8
	movl	$8, %edi
	pushq	%rax
	.cfi_def_cfa_offset 16
	call	__cxa_allocate_exception@PLT
	movq	_ZNSt12bad_weak_ptrD1Ev@GOTPCREL(%rip), %rdx
	movq	_ZTISt12bad_weak_ptr@GOTPCREL(%rip), %rsi
	movq	%rax, %rdi
	movq	_ZTVSt12bad_weak_ptr@GOTPCREL(%rip), %rax
	addq	$16, %rax
	movq	%rax, (%rdi)
	call	__cxa_throw@PLT
	.cfi_endproc
.LFE1586:
	.size	_ZSt20__throw_bad_weak_ptrv, .-_ZSt20__throw_bad_weak_ptrv
	.section	.text._ZN7openpal6LoggerD2Ev,"axG",@progbits,_ZN7openpal6LoggerD5Ev,comdat
	.align 2
	.p2align 4
	.weak	_ZN7openpal6LoggerD2Ev
	.type	_ZN7openpal6LoggerD2Ev, @function
_ZN7openpal6LoggerD2Ev:
.LFB2005:
	.cfi_startproc
	endbr64
	pushq	%r12
	.cfi_def_cfa_offset 16
	.cfi_offset 12, -16
	pushq	%rbp
	.cfi_def_cfa_offset 24
	.cfi_offset 6, -24
	pushq	%rbx
	.cfi_def_cfa_offset 32
	.cfi_offset 3, -32
	movq	24(%rdi), %rbp
	movq	%rdi, %rbx
	testq	%rbp, %rbp
	je	.L851
	movq	_ZL28__gthrw___pthread_key_createPjPFvPvE@GOTPCREL(%rip), %r12
	testq	%r12, %r12
	je	.L852
	movl	$-1, %eax
	lock xaddl	%eax, 8(%rbp)
	cmpl	$1, %eax
	je	.L865
	.p2align 4,,10
	.p2align 3
.L851:
	movq	8(%rbx), %rbp
	testq	%rbp, %rbp
	je	.L849
	movq	_ZL28__gthrw___pthread_key_createPjPFvPvE@GOTPCREL(%rip), %r12
	testq	%r12, %r12
	je	.L859
	movl	$-1, %eax
	lock xaddl	%eax, 8(%rbp)
	cmpl	$1, %eax
	je	.L866
.L849:
	popq	%rbx
	.cfi_remember_state
	.cfi_def_cfa_offset 24
	popq	%rbp
	.cfi_def_cfa_offset 16
	popq	%r12
	.cfi_def_cfa_offset 8
	ret
	.p2align 4,,10
	.p2align 3
.L852:
	.cfi_restore_state
	movl	8(%rbp), %eax
	leal	-1(%rax), %edx
	movl	%edx, 8(%rbp)
	cmpl	$1, %eax
	jne	.L851
.L865:
	movq	0(%rbp), %rax
	movq	%rbp, %rdi
	call	*16(%rax)
	testq	%r12, %r12
	je	.L855
	movl	$-1, %eax
	lock xaddl	%eax, 12(%rbp)
.L856:
	cmpl	$1, %eax
	jne	.L851
	movq	0(%rbp), %rax
	movq	%rbp, %rdi
	call	*24(%rax)
	jmp	.L851
	.p2align 4,,10
	.p2align 3
.L859:
	movl	8(%rbp), %eax
	leal	-1(%rax), %edx
	movl	%edx, 8(%rbp)
	cmpl	$1, %eax
	jne	.L849
.L866:
	movq	0(%rbp), %rax
	movq	%rbp, %rdi
	call	*16(%rax)
	testq	%r12, %r12
	je	.L862
	movl	$-1, %eax
	lock xaddl	%eax, 12(%rbp)
.L863:
	cmpl	$1, %eax
	jne	.L849
	movq	0(%rbp), %rax
	popq	%rbx
	.cfi_remember_state
	.cfi_def_cfa_offset 24
	movq	%rbp, %rdi
	popq	%rbp
	.cfi_def_cfa_offset 16
	popq	%r12
	.cfi_def_cfa_offset 8
	movq	24(%rax), %rax
	jmp	*%rax
	.p2align 4,,10
	.p2align 3
.L855:
	.cfi_restore_state
	movl	12(%rbp), %eax
	leal	-1(%rax), %edx
	movl	%edx, 12(%rbp)
	jmp	.L856
	.p2align 4,,10
	.p2align 3
.L862:
	movl	12(%rbp), %eax
	leal	-1(%rax), %edx
	movl	%edx, 12(%rbp)
	jmp	.L863
	.cfi_endproc
.LFE2005:
	.size	_ZN7openpal6LoggerD2Ev, .-_ZN7openpal6LoggerD2Ev
	.weak	_ZN7openpal6LoggerD1Ev
	.set	_ZN7openpal6LoggerD1Ev,_ZN7openpal6LoggerD2Ev
	.section	.text._ZN4asio28asio_handler_is_continuationEz,"axG",@progbits,_ZN4asio28asio_handler_is_continuationEz,comdat
	.p2align 4
	.weak	_ZN4asio28asio_handler_is_continuationEz
	.type	_ZN4asio28asio_handler_is_continuationEz, @function
_ZN4asio28asio_handler_is_continuationEz:
.LFB2255:
	.cfi_startproc
	endbr64
	xorl	%eax, %eax
	ret
	.cfi_endproc
.LFE2255:
	.size	_ZN4asio28asio_handler_is_continuationEz, .-_ZN4asio28asio_handler_is_continuationEz
	.text
	.align 2
	.p2align 4
	.globl	_ZN8asiodnp311LinkSession13SetLogFiltersEN7openpal10LogFiltersE
	.type	_ZN8asiodnp311LinkSession13SetLogFiltersEN7openpal10LogFiltersE, @function
_ZN8asiodnp311LinkSession13SetLogFiltersEN7openpal10LogFiltersE:
.LFB7865:
	.cfi_startproc
	endbr64
	movq	80(%rdi), %rax
	movl	%esi, 32(%rax)
	ret
	.cfi_endproc
.LFE7865:
	.size	_ZN8asiodnp311LinkSession13SetLogFiltersEN7openpal10LogFiltersE, .-_ZN8asiodnp311LinkSession13SetLogFiltersEN7openpal10LogFiltersE
	.align 2
	.p2align 4
	.globl	_ZN8asiodnp311LinkSession12BeginReceiveEv
	.type	_ZN8asiodnp311LinkSession12BeginReceiveEv, @function
_ZN8asiodnp311LinkSession12BeginReceiveEv:
.LFB7879:
	.cfi_startproc
	endbr64
	pushq	%rbx
	.cfi_def_cfa_offset 16
	.cfi_offset 3, -16
	movq	%rdi, %rbx
	addq	$152, %rdi
	call	_ZNK8opendnp315LinkLayerParser9WriteBuffEv@PLT
	movq	136(%rbx), %rdi
	cmpq	$0, 40(%rdi)
	je	.L870
	cmpb	$0, 56(%rdi)
	jne	.L870
	cmpb	$0, 57(%rdi)
	jne	.L870
	movq	(%rdi), %rcx
	movb	$1, 57(%rdi)
	movl	%eax, %esi
	popq	%rbx
	.cfi_remember_state
	.cfi_def_cfa_offset 8
	movq	16(%rcx), %rcx
	jmp	*%rcx
	.p2align 4,,10
	.p2align 3
.L870:
	.cfi_restore_state
	popq	%rbx
	.cfi_def_cfa_offset 8
	ret
	.cfi_endproc
.LFE7879:
	.size	_ZN8asiodnp311LinkSession12BeginReceiveEv, .-_ZN8asiodnp311LinkSession12BeginReceiveEv
	.section	.text._ZNSt16_Sp_counted_baseILN9__gnu_cxx12_Lock_policyE2EE10_M_releaseEv,"axG",@progbits,_ZNSt16_Sp_counted_baseILN9__gnu_cxx12_Lock_policyE2EE10_M_releaseEv,comdat
	.align 2
	.p2align 4
	.weak	_ZNSt16_Sp_counted_baseILN9__gnu_cxx12_Lock_policyE2EE10_M_releaseEv
	.type	_ZNSt16_Sp_counted_baseILN9__gnu_cxx12_Lock_policyE2EE10_M_releaseEv, @function
_ZNSt16_Sp_counted_baseILN9__gnu_cxx12_Lock_policyE2EE10_M_releaseEv:
.LFB8890:
	.cfi_startproc
	endbr64
	pushq	%rbp
	.cfi_def_cfa_offset 16
	.cfi_offset 6, -16
	movq	%rdi, %rbp
	pushq	%rbx
	.cfi_def_cfa_offset 24
	.cfi_offset 3, -24
	subq	$8, %rsp
	.cfi_def_cfa_offset 32
	movq	_ZL28__gthrw___pthread_key_createPjPFvPvE@GOTPCREL(%rip), %rbx
	testq	%rbx, %rbx
	je	.L873
	movl	$-1, %eax
	lock xaddl	%eax, 8(%rdi)
	cmpl	$1, %eax
	je	.L881
.L872:
	addq	$8, %rsp
	.cfi_remember_state
	.cfi_def_cfa_offset 24
	popq	%rbx
	.cfi_def_cfa_offset 16
	popq	%rbp
	.cfi_def_cfa_offset 8
	ret
	.p2align 4,,10
	.p2align 3
.L873:
	.cfi_restore_state
	movl	8(%rdi), %eax
	leal	-1(%rax), %edx
	movl	%edx, 8(%rdi)
	cmpl	$1, %eax
	jne	.L872
.L881:
	movq	0(%rbp), %rax
	movq	%rbp, %rdi
	call	*16(%rax)
	testq	%rbx, %rbx
	je	.L877
	movl	$-1, %eax
	lock xaddl	%eax, 12(%rbp)
.L878:
	cmpl	$1, %eax
	jne	.L872
	movq	0(%rbp), %rax
	movq	%rbp, %rdi
	movq	24(%rax), %rax
	addq	$8, %rsp
	.cfi_remember_state
	.cfi_def_cfa_offset 24
	popq	%rbx
	.cfi_def_cfa_offset 16
	popq	%rbp
	.cfi_def_cfa_offset 8
	jmp	*%rax
	.p2align 4,,10
	.p2align 3
.L877:
	.cfi_restore_state
	movl	12(%rbp), %eax
	leal	-1(%rax), %edx
	movl	%edx, 12(%rbp)
	jmp	.L878
	.cfi_endproc
.LFE8890:
	.size	_ZNSt16_Sp_counted_baseILN9__gnu_cxx12_Lock_policyE2EE10_M_releaseEv, .-_ZNSt16_Sp_counted_baseILN9__gnu_cxx12_Lock_policyE2EE10_M_releaseEv
	.section	.text.unlikely,"ax",@progbits
	.align 2
.LCOLDB23:
	.text
.LHOTB23:
	.align 2
	.p2align 4
	.globl	_ZN8asiodnp311LinkSessionC2ERKN7openpal6LoggerEmRKSt10shared_ptrIN7asiopal16IResourceManagerEERKS5_INS_16IListenCallbacksEERKS5_INS6_13IAsyncChannelEE
	.type	_ZN8asiodnp311LinkSessionC2ERKN7openpal6LoggerEmRKSt10shared_ptrIN7asiopal16IResourceManagerEERKS5_INS_16IListenCallbacksEERKS5_INS6_13IAsyncChannelEE, @function
_ZN8asiodnp311LinkSessionC2ERKN7openpal6LoggerEmRKSt10shared_ptrIN7asiopal16IResourceManagerEERKS5_INS_16IListenCallbacksEERKS5_INS6_13IAsyncChannelEE:
.LFB7823:
	.cfi_startproc
	.cfi_personality 0x9b,DW.ref.__gxx_personality_v0
	.cfi_lsda 0x1b,.LLSDA7823
	endbr64
	movq	_ZTVN8asiodnp311LinkSessionE@GOTPCREL(%rip), %rax
	pushq	%r12
	.cfi_def_cfa_offset 16
	.cfi_offset 12, -16
	pushq	%rbp
	.cfi_def_cfa_offset 24
	.cfi_offset 6, -24
	movq	%r9, %rbp
	pushq	%rbx
	.cfi_def_cfa_offset 32
	.cfi_offset 3, -32
	movq	%rdi, %rbx
	leaq	16(%rax), %r10
	movq	$0, 24(%rdi)
	movq	%r10, %xmm0
	movq	$0, 32(%rdi)
	leaq	96(%rax), %rdi
	movq	%rdi, %xmm1
	leaq	144(%rax), %rdi
	movb	$0, 56(%rbx)
	movq	%rdi, 16(%rbx)
	leaq	184(%rax), %rdi
	punpcklqdq	%xmm1, %xmm0
	addq	$224, %rax
	movq	%rax, 48(%rbx)
	movq	(%rsi), %rax
	movq	%rdi, 40(%rbx)
	movq	%rax, 64(%rbx)
	movq	8(%rsi), %rax
	movups	%xmm0, (%rbx)
	movq	%rax, 72(%rbx)
	testq	%rax, %rax
	je	.L883
	cmpq	$0, _ZL28__gthrw___pthread_key_createPjPFvPvE@GOTPCREL(%rip)
	je	.L884
	lock addl	$1, 8(%rax)
.L883:
	movq	16(%rsi), %rax
	movq	%rax, 80(%rbx)
	movq	24(%rsi), %rax
	movq	%rax, 88(%rbx)
	testq	%rax, %rax
	je	.L885
	cmpq	$0, _ZL28__gthrw___pthread_key_createPjPFvPvE@GOTPCREL(%rip)
	je	.L886
	lock addl	$1, 8(%rax)
.L885:
	movq	(%rcx), %rax
	movq	%rdx, 96(%rbx)
	movq	%rax, 104(%rbx)
	movq	8(%rcx), %rax
	movq	%rax, 112(%rbx)
	testq	%rax, %rax
	je	.L887
	cmpq	$0, _ZL28__gthrw___pthread_key_createPjPFvPvE@GOTPCREL(%rip)
	je	.L888
	lock addl	$1, 8(%rax)
.L887:
	movq	(%r8), %rax
	movq	%rax, 120(%rbx)
	movq	8(%r8), %rax
	movq	%rax, 128(%rbx)
	testq	%rax, %rax
	je	.L889
	cmpq	$0, _ZL28__gthrw___pthread_key_createPjPFvPvE@GOTPCREL(%rip)
	je	.L890
	lock addl	$1, 8(%rax)
.L889:
	movq	0(%rbp), %rax
	movq	%rax, 136(%rbx)
	movq	8(%rbp), %rax
	movq	%rax, 144(%rbx)
	testq	%rax, %rax
	je	.L891
	cmpq	$0, _ZL28__gthrw___pthread_key_createPjPFvPvE@GOTPCREL(%rip)
	je	.L892
	lock addl	$1, 8(%rax)
.L891:
	leaq	152(%rbx), %r12
	movq	%r12, %rdi
.LEHB0:
	call	_ZN8opendnp315LinkLayerParserC1ERKN7openpal6LoggerE@PLT
.LEHE0:
	movq	0(%rbp), %rax
	leaq	568(%rbx), %rdi
	movq	24(%rax), %rsi
.LEHB1:
	call	_ZN7openpal8TimerRefC1ERNS_9IExecutorE@PLT
.LEHE1:
	movl	$0, 584(%rbx)
	pxor	%xmm0, %xmm0
	movups	%xmm0, 592(%rbx)
	popq	%rbx
	.cfi_remember_state
	.cfi_def_cfa_offset 24
	popq	%rbp
	.cfi_def_cfa_offset 16
	popq	%r12
	.cfi_def_cfa_offset 8
	ret
	.p2align 4,,10
	.p2align 3
.L892:
	.cfi_restore_state
	addl	$1, 8(%rax)
	jmp	.L891
	.p2align 4,,10
	.p2align 3
.L886:
	addl	$1, 8(%rax)
	jmp	.L885
	.p2align 4,,10
	.p2align 3
.L884:
	addl	$1, 8(%rax)
	jmp	.L883
	.p2align 4,,10
	.p2align 3
.L890:
	addl	$1, 8(%rax)
	jmp	.L889
	.p2align 4,,10
	.p2align 3
.L888:
	addl	$1, 8(%rax)
	jmp	.L887
.L904:
	endbr64
	movq	%rax, %rbp
	jmp	.L893
.L903:
	endbr64
	movq	%rax, %rbp
	jmp	.L894
	.globl	__gxx_personality_v0
	.section	.gcc_except_table,"a",@progbits
.LLSDA7823:
	.byte	0xff
	.byte	0xff
	.byte	0x1
	.uleb128 .LLSDACSE7823-.LLSDACSB7823
.LLSDACSB7823:
	.uleb128 .LEHB0-.LFB7823
	.uleb128 .LEHE0-.LEHB0
	.uleb128 .L903-.LFB7823
	.uleb128 0
	.uleb128 .LEHB1-.LFB7823
	.uleb128 .LEHE1-.LEHB1
	.uleb128 .L904-.LFB7823
	.uleb128 0
.LLSDACSE7823:
	.text
	.cfi_endproc
	.section	.text.unlikely
	.cfi_startproc
	.cfi_personality 0x9b,DW.ref.__gxx_personality_v0
	.cfi_lsda 0x1b,.LLSDAC7823
	.type	_ZN8asiodnp311LinkSessionC2ERKN7openpal6LoggerEmRKSt10shared_ptrIN7asiopal16IResourceManagerEERKS5_INS_16IListenCallbacksEERKS5_INS6_13IAsyncChannelEE.cold, @function
_ZN8asiodnp311LinkSessionC2ERKN7openpal6LoggerEmRKSt10shared_ptrIN7asiopal16IResourceManagerEERKS5_INS_16IListenCallbacksEERKS5_INS6_13IAsyncChannelEE.cold:
.LFSB7823:
.L893:
	.cfi_def_cfa_offset 32
	.cfi_offset 3, -32
	.cfi_offset 6, -24
	.cfi_offset 12, -16
	movq	%r12, %rdi
	call	_ZN7openpal6LoggerD1Ev@PLT
.L894:
	movq	144(%rbx), %rdi
	testq	%rdi, %rdi
	je	.L895
	call	_ZNSt16_Sp_counted_baseILN9__gnu_cxx12_Lock_policyE2EE10_M_releaseEv@PLT
.L895:
	movq	128(%rbx), %rdi
	testq	%rdi, %rdi
	je	.L896
	call	_ZNSt16_Sp_counted_baseILN9__gnu_cxx12_Lock_policyE2EE10_M_releaseEv@PLT
.L896:
	movq	112(%rbx), %rdi
	testq	%rdi, %rdi
	je	.L897
	call	_ZNSt16_Sp_counted_baseILN9__gnu_cxx12_Lock_policyE2EE10_M_releaseEv@PLT
.L897:
	leaq	64(%rbx), %rdi
	call	_ZN7openpal6LoggerD1Ev@PLT
	movq	32(%rbx), %rdi
	testq	%rdi, %rdi
	je	.L899
	cmpq	$0, _ZL28__gthrw___pthread_key_createPjPFvPvE@GOTPCREL(%rip)
	leaq	12(%rdi), %rdx
	je	.L900
	orl	$-1, %eax
	lock xaddl	%eax, (%rdx)
.L901:
	subl	$1, %eax
	jne	.L899
	movq	(%rdi), %rax
	call	*24(%rax)
.L899:
	movq	%rbp, %rdi
.LEHB2:
	call	_Unwind_Resume@PLT
.LEHE2:
.L900:
	movl	12(%rdi), %eax
	leal	-1(%rax), %edx
	movl	%edx, 12(%rdi)
	jmp	.L901
	.cfi_endproc
.LFE7823:
	.section	.gcc_except_table
.LLSDAC7823:
	.byte	0xff
	.byte	0xff
	.byte	0x1
	.uleb128 .LLSDACSEC7823-.LLSDACSBC7823
.LLSDACSBC7823:
	.uleb128 .LEHB2-.LCOLDB23
	.uleb128 .LEHE2-.LEHB2
	.uleb128 0
	.uleb128 0
.LLSDACSEC7823:
	.section	.text.unlikely
	.text
	.size	_ZN8asiodnp311LinkSessionC2ERKN7openpal6LoggerEmRKSt10shared_ptrIN7asiopal16IResourceManagerEERKS5_INS_16IListenCallbacksEERKS5_INS6_13IAsyncChannelEE, .-_ZN8asiodnp311LinkSessionC2ERKN7openpal6LoggerEmRKSt10shared_ptrIN7asiopal16IResourceManagerEERKS5_INS_16IListenCallbacksEERKS5_INS6_13IAsyncChannelEE
	.section	.text.unlikely
	.size	_ZN8asiodnp311LinkSessionC2ERKN7openpal6LoggerEmRKSt10shared_ptrIN7asiopal16IResourceManagerEERKS5_INS_16IListenCallbacksEERKS5_INS6_13IAsyncChannelEE.cold, .-_ZN8asiodnp311LinkSessionC2ERKN7openpal6LoggerEmRKSt10shared_ptrIN7asiopal16IResourceManagerEERKS5_INS_16IListenCallbacksEERKS5_INS6_13IAsyncChannelEE.cold
.LCOLDE23:
	.text
.LHOTE23:
	.globl	_ZN8asiodnp311LinkSessionC1ERKN7openpal6LoggerEmRKSt10shared_ptrIN7asiopal16IResourceManagerEERKS5_INS_16IListenCallbacksEERKS5_INS6_13IAsyncChannelEE
	.set	_ZN8asiodnp311LinkSessionC1ERKN7openpal6LoggerEmRKSt10shared_ptrIN7asiopal16IResourceManagerEERKS5_INS_16IListenCallbacksEERKS5_INS6_13IAsyncChannelEE,_ZN8asiodnp311LinkSessionC2ERKN7openpal6LoggerEmRKSt10shared_ptrIN7asiopal16IResourceManagerEERKS5_INS_16IListenCallbacksEERKS5_INS6_13IAsyncChannelEE
	.section	.text.unlikely
.LCOLDB24:
	.text
.LHOTB24:
	.p2align 4
	.type	_ZN4asio6detail18completion_handlerIZN8asiodnp311LinkSession12ShutdownImplEvEUlvE_E11do_completeEPNS0_15task_io_serviceEPNS0_25task_io_service_operationERKSt10error_codem, @function
_ZN4asio6detail18completion_handlerIZN8asiodnp311LinkSession12ShutdownImplEvEUlvE_E11do_completeEPNS0_15task_io_serviceEPNS0_25task_io_service_operationERKSt10error_codem:
.LFB9702:
	.cfi_startproc
	.cfi_personality 0x9b,DW.ref.__gxx_personality_v0
	.cfi_lsda 0x1b,.LLSDA9702
	endbr64
	pushq	%r13
	.cfi_def_cfa_offset 16
	.cfi_offset 13, -16
	pushq	%r12
	.cfi_def_cfa_offset 24
	.cfi_offset 12, -24
	movq	%rsi, %r12
	pushq	%rbp
	.cfi_def_cfa_offset 32
	.cfi_offset 6, -32
	pushq	%rbx
	.cfi_def_cfa_offset 40
	.cfi_offset 3, -40
	movq	%rdi, %rbx
	subq	$40, %rsp
	.cfi_def_cfa_offset 80
	movq	24(%rsi), %r13
	movq	32(%rsi), %rbp
	movq	%fs:40, %rax
	movq	%rax, 24(%rsp)
	xorl	%eax, %eax
	data16	leaq	_ZN4asio6detail15keyword_tss_ptrINS0_10call_stackINS0_15task_io_serviceENS0_27task_io_service_thread_infoEE7contextEE6value_E@tlsgd(%rip), %rdi
	.value	0x6666
	rex64
	call	__tls_get_addr@PLT
	movq	(%rax), %rax
	testq	%rax, %rax
	je	.L932
	movq	8(%rax), %rax
	testq	%rax, %rax
	je	.L932
	cmpq	$0, (%rax)
	je	.L969
.L932:
	movq	%r12, %rdi
	call	_ZdlPv@PLT
.L933:
	testq	%rbx, %rbx
	jne	.L970
.L935:
	testq	%rbp, %rbp
	je	.L931
	movq	_ZL28__gthrw___pthread_key_createPjPFvPvE@GOTPCREL(%rip), %rbx
	testq	%rbx, %rbx
	je	.L951
	movl	$-1, %eax
	lock xaddl	%eax, 8(%rbp)
	cmpl	$1, %eax
	je	.L971
	.p2align 4,,10
	.p2align 3
.L931:
	movq	24(%rsp), %rax
	xorq	%fs:40, %rax
	jne	.L972
	addq	$40, %rsp
	.cfi_remember_state
	.cfi_def_cfa_offset 40
	popq	%rbx
	.cfi_def_cfa_offset 32
	popq	%rbp
	.cfi_def_cfa_offset 24
	popq	%r12
	.cfi_def_cfa_offset 16
	popq	%r13
	.cfi_def_cfa_offset 8
	ret
	.p2align 4,,10
	.p2align 3
.L970:
	.cfi_restore_state
	movq	104(%r13), %rdi
	addq	$40, %r13
	movq	(%rdi), %rax
	movq	%r13, (%rsp)
	movq	%rbp, 8(%rsp)
	movq	16(%rax), %rax
	testq	%rbp, %rbp
	je	.L937
	cmpq	$0, _ZL28__gthrw___pthread_key_createPjPFvPvE@GOTPCREL(%rip)
	je	.L936
	lock addl	$1, 8(%rbp)
.L937:
	movq	%rsp, %rsi
.LEHB3:
	call	*%rax
.LEHE3:
	movq	8(%rsp), %r12
	testq	%r12, %r12
	je	.L939
	movq	_ZL28__gthrw___pthread_key_createPjPFvPvE@GOTPCREL(%rip), %rbx
	testq	%rbx, %rbx
	je	.L940
	movl	$-1, %eax
	lock xaddl	%eax, 8(%r12)
.L941:
	cmpl	$1, %eax
	jne	.L939
	movq	(%r12), %rax
	movq	%r12, %rdi
	call	*16(%rax)
	testq	%rbx, %rbx
	je	.L943
	movl	$-1, %eax
	lock xaddl	%eax, 12(%r12)
.L944:
	cmpl	$1, %eax
	je	.L973
	.p2align 4,,10
	.p2align 3
.L939:
	sfence
	jmp	.L935
	.p2align 4,,10
	.p2align 3
.L951:
	movl	8(%rbp), %eax
	leal	-1(%rax), %edx
	movl	%edx, 8(%rbp)
	cmpl	$1, %eax
	jne	.L931
.L971:
	movq	0(%rbp), %rax
	movq	%rbp, %rdi
	call	*16(%rax)
	testq	%rbx, %rbx
	je	.L954
	movl	$-1, %eax
	lock xaddl	%eax, 12(%rbp)
.L955:
	cmpl	$1, %eax
	jne	.L931
	movq	0(%rbp), %rax
	movq	%rbp, %rdi
	call	*24(%rax)
	jmp	.L931
	.p2align 4,,10
	.p2align 3
.L940:
	movl	8(%r12), %eax
	leal	-1(%rax), %edx
	movl	%edx, 8(%r12)
	jmp	.L941
	.p2align 4,,10
	.p2align 3
.L969:
	movzbl	40(%r12), %edx
	movb	%dl, (%r12)
	movq	%r12, (%rax)
	jmp	.L933
	.p2align 4,,10
	.p2align 3
.L936:
	addl	$1, 8(%rbp)
	jmp	.L937
	.p2align 4,,10
	.p2align 3
.L954:
	movl	12(%rbp), %eax
	leal	-1(%rax), %edx
	movl	%edx, 12(%rbp)
	jmp	.L955
	.p2align 4,,10
	.p2align 3
.L973:
	movq	(%r12), %rax
	movq	%r12, %rdi
	call	*24(%rax)
	jmp	.L939
	.p2align 4,,10
	.p2align 3
.L943:
	movl	12(%r12), %eax
	leal	-1(%rax), %edx
	movl	%edx, 12(%r12)
	jmp	.L944
.L972:
	call	__stack_chk_fail@PLT
.L958:
	endbr64
	movq	%rax, %r12
	jmp	.L945
	.section	.gcc_except_table
.LLSDA9702:
	.byte	0xff
	.byte	0xff
	.byte	0x1
	.uleb128 .LLSDACSE9702-.LLSDACSB9702
.LLSDACSB9702:
	.uleb128 .LEHB3-.LFB9702
	.uleb128 .LEHE3-.LEHB3
	.uleb128 .L958-.LFB9702
	.uleb128 0
.LLSDACSE9702:
	.text
	.cfi_endproc
	.section	.text.unlikely
	.cfi_startproc
	.cfi_personality 0x9b,DW.ref.__gxx_personality_v0
	.cfi_lsda 0x1b,.LLSDAC9702
	.type	_ZN4asio6detail18completion_handlerIZN8asiodnp311LinkSession12ShutdownImplEvEUlvE_E11do_completeEPNS0_15task_io_serviceEPNS0_25task_io_service_operationERKSt10error_codem.cold, @function
_ZN4asio6detail18completion_handlerIZN8asiodnp311LinkSession12ShutdownImplEvEUlvE_E11do_completeEPNS0_15task_io_serviceEPNS0_25task_io_service_operationERKSt10error_codem.cold:
.LFSB9702:
.L945:
	.cfi_def_cfa_offset 80
	.cfi_offset 3, -40
	.cfi_offset 6, -32
	.cfi_offset 12, -24
	.cfi_offset 13, -16
	movq	8(%rsp), %rdi
	testq	%rdi, %rdi
	je	.L946
	call	_ZNSt16_Sp_counted_baseILN9__gnu_cxx12_Lock_policyE2EE10_M_releaseEv@PLT
.L946:
	sfence
	testq	%rbp, %rbp
	je	.L948
	movq	%rbp, %rdi
	call	_ZNSt16_Sp_counted_baseILN9__gnu_cxx12_Lock_policyE2EE10_M_releaseEv@PLT
.L948:
	movq	%r12, %rdi
.LEHB4:
	call	_Unwind_Resume@PLT
.LEHE4:
	.cfi_endproc
.LFE9702:
	.section	.gcc_except_table
.LLSDAC9702:
	.byte	0xff
	.byte	0xff
	.byte	0x1
	.uleb128 .LLSDACSEC9702-.LLSDACSBC9702
.LLSDACSBC9702:
	.uleb128 .LEHB4-.LCOLDB24
	.uleb128 .LEHE4-.LEHB4
	.uleb128 0
	.uleb128 0
.LLSDACSEC9702:
	.section	.text.unlikely
	.text
	.size	_ZN4asio6detail18completion_handlerIZN8asiodnp311LinkSession12ShutdownImplEvEUlvE_E11do_completeEPNS0_15task_io_serviceEPNS0_25task_io_service_operationERKSt10error_codem, .-_ZN4asio6detail18completion_handlerIZN8asiodnp311LinkSession12ShutdownImplEvEUlvE_E11do_completeEPNS0_15task_io_serviceEPNS0_25task_io_service_operationERKSt10error_codem
	.section	.text.unlikely
	.size	_ZN4asio6detail18completion_handlerIZN8asiodnp311LinkSession12ShutdownImplEvEUlvE_E11do_completeEPNS0_15task_io_serviceEPNS0_25task_io_service_operationERKSt10error_codem.cold, .-_ZN4asio6detail18completion_handlerIZN8asiodnp311LinkSession12ShutdownImplEvEUlvE_E11do_completeEPNS0_15task_io_serviceEPNS0_25task_io_service_operationERKSt10error_codem.cold
.LCOLDE24:
	.text
.LHOTE24:
	.section	.text.unlikely
	.align 2
.LCOLDB25:
	.text
.LHOTB25:
	.align 2
	.p2align 4
	.globl	_ZN8asiodnp311LinkSession8ShutdownEv
	.type	_ZN8asiodnp311LinkSession8ShutdownEv, @function
_ZN8asiodnp311LinkSession8ShutdownEv:
.LFB7825:
	.cfi_startproc
	.cfi_personality 0x9b,DW.ref.__gxx_personality_v0
	.cfi_lsda 0x1b,.LLSDA7825
	endbr64
	pushq	%r14
	.cfi_def_cfa_offset 16
	.cfi_offset 14, -16
	pushq	%r13
	.cfi_def_cfa_offset 24
	.cfi_offset 13, -24
	pushq	%r12
	.cfi_def_cfa_offset 32
	.cfi_offset 12, -32
	pushq	%rbp
	.cfi_def_cfa_offset 40
	.cfi_offset 6, -40
	pushq	%rbx
	.cfi_def_cfa_offset 48
	.cfi_offset 3, -48
	subq	$48, %rsp
	.cfi_def_cfa_offset 96
	movq	32(%rdi), %rbp
	movq	%fs:40, %rax
	movq	%rax, 40(%rsp)
	xorl	%eax, %eax
	testq	%rbp, %rbp
	je	.L975
	movl	8(%rbp), %eax
	leaq	8(%rbp), %rbx
.L977:
	testl	%eax, %eax
	je	.L975
	leal	1(%rax), %edx
	lock cmpxchgl	%edx, (%rbx)
	jne	.L977
	movq	136(%rdi), %rax
	movq	_ZL28__gthrw___pthread_key_createPjPFvPvE@GOTPCREL(%rip), %r13
	movq	24(%rdi), %r12
	movq	24(%rax), %r14
	testq	%r13, %r13
	je	.L978
	lock addl	$1, (%rbx)
.L979:
	movq	$0, 16(%rsp)
	movl	$16, %edi
.LEHB5:
	call	_Znwm@PLT
.LEHE5:
	movq	%r12, %xmm0
	movq	%rbp, %xmm1
	movq	%rsp, %r12
	movq	%r14, %rdi
	punpcklqdq	%xmm1, %xmm0
	movq	%rax, (%rsp)
	leaq	_ZNSt14_Function_base13_Base_managerIZN8asiodnp311LinkSession8ShutdownEvEUlvE_E10_M_managerERSt9_Any_dataRKS5_St18_Manager_operation(%rip), %rcx
	movq	%r12, %rsi
	movups	%xmm0, (%rax)
	leaq	_ZNSt17_Function_handlerIFvvEZN8asiodnp311LinkSession8ShutdownEvEUlvE_E9_M_invokeERKSt9_Any_data(%rip), %rax
	movq	%rcx, %xmm0
	movq	%rax, %xmm2
	punpcklqdq	%xmm2, %xmm0
	movaps	%xmm0, 16(%rsp)
.LEHB6:
	call	_ZN7asiopal8Executor18BlockUntilAndFlushERKSt8functionIFvvEE@PLT
.LEHE6:
	movq	16(%rsp), %rax
	testq	%rax, %rax
	je	.L984
	movl	$3, %edx
	movq	%r12, %rsi
	movq	%r12, %rdi
	call	*%rax
.L984:
	testq	%r13, %r13
	je	.L985
	movl	$-1, %eax
	lock xaddl	%eax, (%rbx)
	cmpl	$1, %eax
	je	.L1013
.L974:
	movq	40(%rsp), %rax
	xorq	%fs:40, %rax
	jne	.L1014
	addq	$48, %rsp
	.cfi_remember_state
	.cfi_def_cfa_offset 48
	popq	%rbx
	.cfi_def_cfa_offset 40
	popq	%rbp
	.cfi_def_cfa_offset 32
	popq	%r12
	.cfi_def_cfa_offset 24
	popq	%r13
	.cfi_def_cfa_offset 16
	popq	%r14
	.cfi_def_cfa_offset 8
	ret
	.p2align 4,,10
	.p2align 3
.L978:
	.cfi_restore_state
	addl	$1, 8(%rbp)
	jmp	.L979
	.p2align 4,,10
	.p2align 3
.L985:
	movl	8(%rbp), %eax
	leal	-1(%rax), %edx
	movl	%edx, 8(%rbp)
	cmpl	$1, %eax
	jne	.L974
.L1013:
	movq	0(%rbp), %rax
	movq	%rbp, %rdi
	call	*16(%rax)
	testq	%r13, %r13
	je	.L989
	movl	$-1, %eax
	lock xaddl	%eax, 12(%rbp)
.L990:
	cmpl	$1, %eax
	jne	.L974
	movq	0(%rbp), %rax
	movq	%rbp, %rdi
	call	*24(%rax)
	jmp	.L974
	.p2align 4,,10
	.p2align 3
.L989:
	movl	12(%rbp), %eax
	leal	-1(%rax), %edx
	movl	%edx, 12(%rbp)
	jmp	.L990
.L1014:
	call	__stack_chk_fail@PLT
.L996:
	endbr64
	movq	%rax, %r12
	jmp	.L981
.L995:
	endbr64
	movq	%rax, %rbx
	jmp	.L992
	.section	.gcc_except_table
.LLSDA7825:
	.byte	0xff
	.byte	0xff
	.byte	0x1
	.uleb128 .LLSDACSE7825-.LLSDACSB7825
.LLSDACSB7825:
	.uleb128 .LEHB5-.LFB7825
	.uleb128 .LEHE5-.LEHB5
	.uleb128 .L996-.LFB7825
	.uleb128 0
	.uleb128 .LEHB6-.LFB7825
	.uleb128 .LEHE6-.LEHB6
	.uleb128 .L995-.LFB7825
	.uleb128 0
.LLSDACSE7825:
	.text
	.cfi_endproc
	.section	.text.unlikely
	.cfi_startproc
	.cfi_personality 0x9b,DW.ref.__gxx_personality_v0
	.cfi_lsda 0x1b,.LLSDAC7825
	.type	_ZN8asiodnp311LinkSession8ShutdownEv.cold, @function
_ZN8asiodnp311LinkSession8ShutdownEv.cold:
.LFSB7825:
.L975:
	.cfi_def_cfa_offset 96
	.cfi_offset 3, -48
	.cfi_offset 6, -40
	.cfi_offset 12, -32
	.cfi_offset 13, -24
	.cfi_offset 14, -16
.LEHB7:
	call	_ZSt20__throw_bad_weak_ptrv@PLT
.L981:
	movq	16(%rsp), %rax
	testq	%rax, %rax
	jne	.L1015
.L982:
	movq	%rbp, %rdi
	call	_ZNSt16_Sp_counted_baseILN9__gnu_cxx12_Lock_policyE2EE10_M_releaseEv@PLT
.L983:
	movq	%rbp, %rdi
	call	_ZNSt16_Sp_counted_baseILN9__gnu_cxx12_Lock_policyE2EE10_M_releaseEv@PLT
	movq	%r12, %rdi
	call	_Unwind_Resume@PLT
.LEHE7:
.L992:
	movq	16(%rsp), %rax
	testq	%rax, %rax
	je	.L993
	movl	$3, %edx
	movq	%r12, %rsi
	movq	%r12, %rdi
	call	*%rax
.L993:
	movq	%rbx, %r12
	jmp	.L983
.L1015:
	movq	%rsp, %rdi
	movl	$3, %edx
	movq	%rdi, %rsi
	call	*%rax
	jmp	.L982
	.cfi_endproc
.LFE7825:
	.section	.gcc_except_table
.LLSDAC7825:
	.byte	0xff
	.byte	0xff
	.byte	0x1
	.uleb128 .LLSDACSEC7825-.LLSDACSBC7825
.LLSDACSBC7825:
	.uleb128 .LEHB7-.LCOLDB25
	.uleb128 .LEHE7-.LEHB7
	.uleb128 0
	.uleb128 0
.LLSDACSEC7825:
	.section	.text.unlikely
	.text
	.size	_ZN8asiodnp311LinkSession8ShutdownEv, .-_ZN8asiodnp311LinkSession8ShutdownEv
	.section	.text.unlikely
	.size	_ZN8asiodnp311LinkSession8ShutdownEv.cold, .-_ZN8asiodnp311LinkSession8ShutdownEv.cold
.LCOLDE25:
	.text
.LHOTE25:
	.set	.LTHUNK2,_ZN8asiodnp311LinkSession8ShutdownEv
	.p2align 4
	.globl	_ZThn40_N8asiodnp311LinkSession8ShutdownEv
	.type	_ZThn40_N8asiodnp311LinkSession8ShutdownEv, @function
_ZThn40_N8asiodnp311LinkSession8ShutdownEv:
.LFB10587:
	.cfi_startproc
	endbr64
	subq	$40, %rdi
	jmp	.LTHUNK2
	.cfi_endproc
.LFE10587:
	.size	_ZThn40_N8asiodnp311LinkSession8ShutdownEv, .-_ZThn40_N8asiodnp311LinkSession8ShutdownEv
	.section	.text.unlikely
	.align 2
.LCOLDB26:
	.text
.LHOTB26:
	.align 2
	.p2align 4
	.globl	_ZN8asiodnp311LinkSession5StartEv
	.type	_ZN8asiodnp311LinkSession5StartEv, @function
_ZN8asiodnp311LinkSession5StartEv:
.LFB7871:
	.cfi_startproc
	.cfi_personality 0x9b,DW.ref.__gxx_personality_v0
	.cfi_lsda 0x1b,.LLSDA7871
	endbr64
	pushq	%r15
	.cfi_def_cfa_offset 16
	.cfi_offset 15, -16
	pushq	%r14
	.cfi_def_cfa_offset 24
	.cfi_offset 14, -24
	pushq	%r13
	.cfi_def_cfa_offset 32
	.cfi_offset 13, -32
	pushq	%r12
	.cfi_def_cfa_offset 40
	.cfi_offset 12, -40
	pushq	%rbp
	.cfi_def_cfa_offset 48
	.cfi_offset 6, -48
	pushq	%rbx
	.cfi_def_cfa_offset 56
	.cfi_offset 3, -56
	subq	$72, %rsp
	.cfi_def_cfa_offset 128
	movq	32(%rdi), %rbp
	movq	136(%rdi), %r15
	movq	%fs:40, %rax
	movq	%rax, 56(%rsp)
	xorl	%eax, %eax
	testq	%rbp, %rbp
	je	.L1017
	movl	8(%rbp), %eax
	movq	%rdi, %r12
	leaq	8(%rbp), %r13
.L1019:
	testl	%eax, %eax
	je	.L1017
	leal	1(%rax), %edx
	lock cmpxchgl	%edx, 0(%r13)
	jne	.L1019
	movq	24(%r12), %rax
	movq	48(%r15), %r14
	movq	_ZL28__gthrw___pthread_key_createPjPFvPvE@GOTPCREL(%rip), %rbx
	leaq	8(%rax), %rdx
	testq	%rax, %rax
	cmovne	%rdx, %rax
	movq	%rax, 40(%r15)
	cmpq	%r14, %rbp
	je	.L1021
	testq	%rbx, %rbx
	je	.L1022
	lock addl	$1, 0(%r13)
	movq	48(%r15), %r14
.L1023:
	testq	%r14, %r14
	je	.L1025
	testq	%rbx, %rbx
	je	.L1026
	movl	$-1, %eax
	lock xaddl	%eax, 8(%r14)
	cmpl	$1, %eax
	je	.L1109
	.p2align 4,,10
	.p2align 3
.L1025:
	movq	%rbp, 48(%r15)
.L1021:
	testq	%rbx, %rbx
	je	.L1031
	movl	$-1, %eax
	lock xaddl	%eax, 0(%r13)
	cmpl	$1, %eax
	je	.L1110
.L1034:
	movq	32(%r12), %rbp
	testq	%rbp, %rbp
	je	.L1017
	movl	8(%rbp), %eax
	leaq	8(%rbp), %r13
.L1038:
	testl	%eax, %eax
	je	.L1017
	leal	1(%rax), %edx
	lock cmpxchgl	%edx, 0(%r13)
	jne	.L1038
	movq	120(%r12), %rdi
	movq	24(%r12), %r15
	leaq	568(%r12), %r14
	movq	(%rdi), %rax
.LEHB8:
	call	*32(%rax)
.LEHE8:
	movq	%rax, 8(%rsp)
	testq	%rbx, %rbx
	je	.L1039
	lock addl	$1, 0(%r13)
	lock addl	$1, 0(%r13)
.L1042:
	movq	$0, 32(%rsp)
	movl	$24, %edi
.LEHB9:
	call	_Znwm@PLT
.LEHE9:
	movq	%r14, %xmm0
	movq	%r15, %xmm1
	movq	%rbp, 16(%rax)
	punpcklqdq	%xmm1, %xmm0
	movups	%xmm0, (%rax)
	testq	%rbx, %rbx
	je	.L1043
	lock addl	$1, 0(%r13)
.L1044:
	movq	%rax, 16(%rsp)
	leaq	_ZNSt14_Function_base13_Base_managerIZN7openpal8TimerRef5StartIZN8asiodnp311LinkSession5StartEvEUlvE_EEbRKNS1_12TimeDurationERKT_EUlvE_E10_M_managerERSt9_Any_dataRKSF_St18_Manager_operation(%rip), %rcx
	leaq	16(%rsp), %r15
	movq	%r14, %rdi
	leaq	_ZNSt17_Function_handlerIFvvEZN7openpal8TimerRef5StartIZN8asiodnp311LinkSession5StartEvEUlvE_EEbRKNS1_12TimeDurationERKT_EUlvE_E9_M_invokeERKSt9_Any_data(%rip), %rax
	movq	%rcx, %xmm0
	leaq	8(%rsp), %rsi
	movq	%r15, %rdx
	movq	%rax, %xmm2
	punpcklqdq	%xmm2, %xmm0
	movaps	%xmm0, 32(%rsp)
.LEHB10:
	call	_ZN7openpal8TimerRef11StartActionERKNS_12TimeDurationERKSt8functionIFvvEE@PLT
.LEHE10:
	movq	32(%rsp), %rax
	testq	%rax, %rax
	je	.L1049
	movl	$3, %edx
	movq	%r15, %rsi
	movq	%r15, %rdi
	call	*%rax
.L1049:
	testq	%rbx, %rbx
	je	.L1050
	movl	$-1, %eax
	lock xaddl	%eax, 0(%r13)
	cmpl	$1, %eax
	je	.L1111
.L1053:
	testq	%rbx, %rbx
	je	.L1057
	movl	$-1, %eax
	lock xaddl	%eax, 0(%r13)
	cmpl	$1, %eax
	je	.L1112
.L1060:
	movq	%r12, %rdi
.LEHB11:
	call	_ZN8asiodnp311LinkSession12BeginReceiveEv@PLT
.LEHE11:
	testq	%rbx, %rbx
	je	.L1068
	movl	$-1, %eax
	lock xaddl	%eax, 0(%r13)
	cmpl	$1, %eax
	je	.L1113
.L1016:
	movq	56(%rsp), %rax
	xorq	%fs:40, %rax
	jne	.L1114
	addq	$72, %rsp
	.cfi_remember_state
	.cfi_def_cfa_offset 56
	popq	%rbx
	.cfi_def_cfa_offset 48
	popq	%rbp
	.cfi_def_cfa_offset 40
	popq	%r12
	.cfi_def_cfa_offset 32
	popq	%r13
	.cfi_def_cfa_offset 24
	popq	%r14
	.cfi_def_cfa_offset 16
	popq	%r15
	.cfi_def_cfa_offset 8
	ret
	.p2align 4,,10
	.p2align 3
.L1068:
	.cfi_restore_state
	movl	8(%rbp), %eax
	leal	-1(%rax), %edx
	movl	%edx, 8(%rbp)
	cmpl	$1, %eax
	jne	.L1016
.L1113:
	movq	0(%rbp), %rax
	movq	%rbp, %rdi
	call	*16(%rax)
	testq	%rbx, %rbx
	je	.L1072
	movl	$-1, %eax
	lock xaddl	%eax, 12(%rbp)
.L1073:
	cmpl	$1, %eax
	jne	.L1016
	movq	0(%rbp), %rax
	movq	%rbp, %rdi
	call	*24(%rax)
	jmp	.L1016
	.p2align 4,,10
	.p2align 3
.L1022:
	addl	$1, 8(%rbp)
	jmp	.L1023
	.p2align 4,,10
	.p2align 3
.L1031:
	movl	8(%rbp), %eax
	leal	-1(%rax), %edx
	movl	%edx, 8(%rbp)
	cmpl	$1, %eax
	jne	.L1034
.L1110:
	movq	0(%rbp), %rax
	movq	%rbp, %rdi
	call	*16(%rax)
	testq	%rbx, %rbx
	je	.L1035
	movl	$-1, %eax
	lock xaddl	%eax, 12(%rbp)
.L1036:
	cmpl	$1, %eax
	jne	.L1034
	movq	0(%rbp), %rax
	movq	%rbp, %rdi
	call	*24(%rax)
	jmp	.L1034
	.p2align 4,,10
	.p2align 3
.L1039:
	addl	$1, 8(%rbp)
	addl	$1, 8(%rbp)
	jmp	.L1042
	.p2align 4,,10
	.p2align 3
.L1043:
	addl	$1, 8(%rbp)
	jmp	.L1044
	.p2align 4,,10
	.p2align 3
.L1057:
	movl	8(%rbp), %eax
	leal	-1(%rax), %edx
	movl	%edx, 8(%rbp)
	cmpl	$1, %eax
	jne	.L1060
	jmp	.L1112
	.p2align 4,,10
	.p2align 3
.L1050:
	movl	8(%rbp), %eax
	leal	-1(%rax), %edx
	movl	%edx, 8(%rbp)
	cmpl	$1, %eax
	jne	.L1053
.L1111:
	movq	0(%rbp), %rax
	movq	%rbp, %rdi
	call	*16(%rax)
	testq	%rbx, %rbx
	je	.L1054
	movl	$-1, %eax
	lock xaddl	%eax, 12(%rbp)
.L1055:
	cmpl	$1, %eax
	jne	.L1053
	movq	0(%rbp), %rax
	movq	%rbp, %rdi
	call	*24(%rax)
	jmp	.L1053
	.p2align 4,,10
	.p2align 3
.L1112:
	movq	0(%rbp), %rax
	movq	%rbp, %rdi
	call	*16(%rax)
	testq	%rbx, %rbx
	je	.L1061
	movl	$-1, %eax
	lock xaddl	%eax, 12(%rbp)
.L1062:
	cmpl	$1, %eax
	jne	.L1060
	movq	0(%rbp), %rax
	movq	%rbp, %rdi
	call	*24(%rax)
	jmp	.L1060
	.p2align 4,,10
	.p2align 3
.L1035:
	movl	12(%rbp), %eax
	leal	-1(%rax), %edx
	movl	%edx, 12(%rbp)
	jmp	.L1036
	.p2align 4,,10
	.p2align 3
.L1026:
	movl	8(%r14), %eax
	leal	-1(%rax), %edx
	movl	%edx, 8(%r14)
	cmpl	$1, %eax
	jne	.L1025
.L1109:
	movq	(%r14), %rax
	movq	%r14, %rdi
	call	*16(%rax)
	testq	%rbx, %rbx
	je	.L1029
	movl	$-1, %eax
	lock xaddl	%eax, 12(%r14)
.L1030:
	cmpl	$1, %eax
	jne	.L1025
	movq	(%r14), %rax
	movq	%r14, %rdi
	call	*24(%rax)
	jmp	.L1025
	.p2align 4,,10
	.p2align 3
.L1054:
	movl	12(%rbp), %eax
	leal	-1(%rax), %edx
	movl	%edx, 12(%rbp)
	jmp	.L1055
	.p2align 4,,10
	.p2align 3
.L1061:
	movl	12(%rbp), %eax
	leal	-1(%rax), %edx
	movl	%edx, 12(%rbp)
	jmp	.L1062
	.p2align 4,,10
	.p2align 3
.L1072:
	movl	12(%rbp), %eax
	leal	-1(%rax), %edx
	movl	%edx, 12(%rbp)
	jmp	.L1073
	.p2align 4,,10
	.p2align 3
.L1029:
	movl	12(%r14), %eax
	leal	-1(%rax), %edx
	movl	%edx, 12(%r14)
	jmp	.L1030
.L1114:
	call	__stack_chk_fail@PLT
.L1077:
	endbr64
	movq	%rax, %r12
	jmp	.L1065
.L1078:
	endbr64
	movq	%rax, %r12
	jmp	.L1046
.L1076:
	endbr64
	movq	%rax, %r12
	jmp	.L1067
	.section	.gcc_except_table
.LLSDA7871:
	.byte	0xff
	.byte	0xff
	.byte	0x1
	.uleb128 .LLSDACSE7871-.LLSDACSB7871
.LLSDACSB7871:
	.uleb128 .LEHB8-.LFB7871
	.uleb128 .LEHE8-.LEHB8
	.uleb128 .L1076-.LFB7871
	.uleb128 0
	.uleb128 .LEHB9-.LFB7871
	.uleb128 .LEHE9-.LEHB9
	.uleb128 .L1078-.LFB7871
	.uleb128 0
	.uleb128 .LEHB10-.LFB7871
	.uleb128 .LEHE10-.LEHB10
	.uleb128 .L1077-.LFB7871
	.uleb128 0
	.uleb128 .LEHB11-.LFB7871
	.uleb128 .LEHE11-.LEHB11
	.uleb128 .L1076-.LFB7871
	.uleb128 0
.LLSDACSE7871:
	.text
	.cfi_endproc
	.section	.text.unlikely
	.cfi_startproc
	.cfi_personality 0x9b,DW.ref.__gxx_personality_v0
	.cfi_lsda 0x1b,.LLSDAC7871
	.type	_ZN8asiodnp311LinkSession5StartEv.cold, @function
_ZN8asiodnp311LinkSession5StartEv.cold:
.LFSB7871:
.L1065:
	.cfi_def_cfa_offset 128
	.cfi_offset 3, -56
	.cfi_offset 6, -48
	.cfi_offset 12, -40
	.cfi_offset 13, -32
	.cfi_offset 14, -24
	.cfi_offset 15, -16
	movq	32(%rsp), %rax
	testq	%rax, %rax
	jne	.L1115
.L1048:
	movq	%rbp, %rdi
	call	_ZNSt16_Sp_counted_baseILN9__gnu_cxx12_Lock_policyE2EE10_M_releaseEv@PLT
	movq	%rbp, %rdi
	call	_ZNSt16_Sp_counted_baseILN9__gnu_cxx12_Lock_policyE2EE10_M_releaseEv@PLT
.L1067:
	movq	%rbp, %rdi
	call	_ZNSt16_Sp_counted_baseILN9__gnu_cxx12_Lock_policyE2EE10_M_releaseEv@PLT
	movq	%r12, %rdi
.LEHB12:
	call	_Unwind_Resume@PLT
.LEHE12:
.L1046:
	movq	32(%rsp), %rax
	testq	%rax, %rax
	je	.L1048
	leaq	16(%rsp), %rdi
	movl	$3, %edx
	movq	%rdi, %rsi
	call	*%rax
	jmp	.L1048
.L1017:
.LEHB13:
	call	_ZSt20__throw_bad_weak_ptrv@PLT
.LEHE13:
.L1115:
	movl	$3, %edx
	movq	%r15, %rsi
	movq	%r15, %rdi
	call	*%rax
	jmp	.L1048
	.cfi_endproc
.LFE7871:
	.section	.gcc_except_table
.LLSDAC7871:
	.byte	0xff
	.byte	0xff
	.byte	0x1
	.uleb128 .LLSDACSEC7871-.LLSDACSBC7871
.LLSDACSBC7871:
	.uleb128 .LEHB12-.LCOLDB26
	.uleb128 .LEHE12-.LEHB12
	.uleb128 0
	.uleb128 0
	.uleb128 .LEHB13-.LCOLDB26
	.uleb128 .LEHE13-.LEHB13
	.uleb128 0
	.uleb128 0
.LLSDACSEC7871:
	.section	.text.unlikely
	.text
	.size	_ZN8asiodnp311LinkSession5StartEv, .-_ZN8asiodnp311LinkSession5StartEv
	.section	.text.unlikely
	.size	_ZN8asiodnp311LinkSession5StartEv.cold, .-_ZN8asiodnp311LinkSession5StartEv.cold
.LCOLDE26:
	.text
.LHOTE26:
	.section	.rodata.str1.8,"aMS",@progbits,1
	.align 8
.LC27:
	.string	"SocketSession already has a master bound"
	.align 8
.LC28:
	.string	"/home/kimchaer/Desktop/OpenPLC_v3/utils/dnp3_src/cpp/libs/src/asiodnp3/LinkSession.cpp(161)"
	.section	.text.unlikely
	.align 2
.LCOLDB29:
	.text
.LHOTB29:
	.align 2
	.p2align 4
	.globl	_ZN8asiodnp311LinkSession13AcceptSessionERKNSt7__cxx1112basic_stringIcSt11char_traitsIcESaIcEEESt10shared_ptrIN8opendnp311ISOEHandlerEES9_INSA_18IMasterApplicationEERKNS_17MasterStackConfigE
	.type	_ZN8asiodnp311LinkSession13AcceptSessionERKNSt7__cxx1112basic_stringIcSt11char_traitsIcESaIcEEESt10shared_ptrIN8opendnp311ISOEHandlerEES9_INSA_18IMasterApplicationEERKNS_17MasterStackConfigE, @function
_ZN8asiodnp311LinkSession13AcceptSessionERKNSt7__cxx1112basic_stringIcSt11char_traitsIcESaIcEEESt10shared_ptrIN8opendnp311ISOEHandlerEES9_INSA_18IMasterApplicationEERKNS_17MasterStackConfigE:
.LFB7870:
	.cfi_startproc
	.cfi_personality 0x9b,DW.ref.__gxx_personality_v0
	.cfi_lsda 0x1b,.LLSDA7870
	endbr64
	pushq	%rbp
	.cfi_def_cfa_offset 16
	.cfi_offset 6, -16
	movq	%rsp, %rbp
	.cfi_def_cfa_register 6
	pushq	%r15
	pushq	%r14
	pushq	%r13
	pushq	%r12
	.cfi_offset 15, -24
	.cfi_offset 14, -32
	.cfi_offset 13, -40
	.cfi_offset 12, -48
	movq	%rdi, %r12
	pushq	%rbx
	.cfi_offset 3, -56
	movq	%rsi, %rbx
	subq	$56, %rsp
	movq	%fs:40, %rax
	movq	%rax, -56(%rbp)
	xorl	%eax, %eax
	cmpq	$0, 592(%rsi)
	je	.L1117
	leaq	64(%rsi), %rax
	leaq	-80(%rbp), %r13
	movl	$2, -80(%rbp)
	movq	%r13, %rsi
	movq	%rax, %rdi
	movq	%rax, %rbx
.LEHB14:
	call	_ZNK7openpal6Logger9IsEnabledERKNS_10LogFiltersE@PLT
	testb	%al, %al
	jne	.L1174
.L1118:
	pxor	%xmm0, %xmm0
	movups	%xmm0, (%r12)
.L1116:
	movq	-56(%rbp), %rax
	xorq	%fs:40, %rax
	jne	.L1175
	leaq	-40(%rbp), %rsp
	movq	%r12, %rax
	popq	%rbx
	popq	%r12
	popq	%r13
	popq	%r14
	popq	%r15
	popq	%rbp
	.cfi_remember_state
	.cfi_def_cfa 7, 8
	ret
	.p2align 4,,10
	.p2align 3
.L1174:
	.cfi_restore_state
	leaq	.LC27(%rip), %rcx
	leaq	.LC28(%rip), %rdx
	movq	%r13, %rsi
	movq	%rbx, %rdi
	movl	$2, -80(%rbp)
	call	_ZN7openpal6Logger3LogERKNS_10LogFiltersEPKcS5_@PLT
	jmp	.L1118
	.p2align 4,,10
	.p2align 3
.L1117:
	movq	80(%rsi), %rdi
	movq	%rdx, %rsi
	movq	%rcx, %r13
	movq	%r8, %r14
	movq	%r9, %r15
	call	_ZNSt7__cxx1112basic_stringIcSt11char_traitsIcESaIcEE9_M_assignERKS4_@PLT
.LEHE14:
	movq	32(%rbx), %rax
	movq	%rax, -88(%rbp)
	testq	%rax, %rax
	je	.L1120
	leaq	8(%rax), %rdx
	movl	8(%rax), %eax
.L1122:
	testl	%eax, %eax
	je	.L1120
	leal	1(%rax), %esi
	lock cmpxchgl	%esi, (%rdx)
	jne	.L1122
	movq	24(%rbx), %rax
	leaq	-80(%rbp), %rdi
	leaq	64(%rbx), %rsi
	movq	%r14, %r8
	leaq	-96(%rbp), %r9
	movq	%r13, %rcx
	movq	%rax, -96(%rbp)
	movq	136(%rbx), %rax
	pushq	%r15
	pushq	%rbx
	leaq	24(%rax), %rdx
.LEHB15:
	.cfi_escape 0x2e,0x10
	call	_ZN8asiodnp318MasterSessionStack6CreateERKN7openpal6LoggerERKSt10shared_ptrIN7asiopal8ExecutorEERKS5_IN8opendnp311ISOEHandlerEERKS5_INSB_18IMasterApplicationEERKS5_INS_11LinkSessionEERNSB_7ILinkTxERKNS_17MasterStackConfigE@PLT
.LEHE15:
	popq	%rax
	movdqa	-80(%rbp), %xmm0
	pxor	%xmm1, %xmm1
	movq	600(%rbx), %rax
	popq	%rdx
	movaps	%xmm1, -80(%rbp)
	movups	%xmm0, 592(%rbx)
	movq	%rax, %r15
	testq	%rax, %rax
	je	.L1124
	movq	_ZL28__gthrw___pthread_key_createPjPFvPvE@GOTPCREL(%rip), %r13
	testq	%r13, %r13
	je	.L1125
	movl	$-1, %ecx
	lock xaddl	%ecx, 8(%rax)
	cmpl	$1, %ecx
	je	.L1126
.L1127:
	movq	-72(%rbp), %rax
	movq	%rax, %r14
	testq	%rax, %rax
	je	.L1124
	testq	%r13, %r13
	je	.L1133
	movl	$-1, %ecx
	lock xaddl	%ecx, 8(%rax)
	movl	%ecx, %eax
.L1134:
	cmpl	$1, %eax
	jne	.L1124
	movq	(%r14), %rax
	movq	%r14, %rdi
	call	*16(%rax)
	testq	%r13, %r13
	je	.L1135
	movl	$-1, %eax
	lock xaddl	%eax, 12(%r14)
.L1136:
	cmpl	$1, %eax
	jne	.L1124
	movq	(%r14), %rax
	movq	%r14, %rdi
	call	*24(%rax)
	.p2align 4,,10
	.p2align 3
.L1124:
	movq	-88(%rbp), %rax
	movq	%rax, %r15
	testq	%rax, %rax
	je	.L1138
	movq	_ZL28__gthrw___pthread_key_createPjPFvPvE@GOTPCREL(%rip), %r13
	testq	%r13, %r13
	je	.L1139
	movl	$-1, %ecx
	lock xaddl	%ecx, 8(%rax)
	movl	%ecx, %eax
.L1140:
	cmpl	$1, %eax
	jne	.L1138
	movq	(%r15), %rax
	movq	%r15, %rdi
	call	*16(%rax)
	testq	%r13, %r13
	je	.L1142
	movl	$-1, %eax
	lock xaddl	%eax, 12(%r15)
.L1143:
	cmpl	$1, %eax
	jne	.L1138
	movq	(%r15), %rax
	movq	%r15, %rdi
	call	*24(%rax)
	.p2align 4,,10
	.p2align 3
.L1138:
	movq	592(%rbx), %rax
	movq	%rax, (%r12)
	movq	600(%rbx), %rax
	movq	%rax, 8(%r12)
	testq	%rax, %rax
	je	.L1116
	cmpq	$0, _ZL28__gthrw___pthread_key_createPjPFvPvE@GOTPCREL(%rip)
	je	.L1144
	lock addl	$1, 8(%rax)
	jmp	.L1116
	.p2align 4,,10
	.p2align 3
.L1144:
	addl	$1, 8(%rax)
	jmp	.L1116
	.p2align 4,,10
	.p2align 3
.L1133:
	movl	8(%rax), %eax
	leal	-1(%rax), %edx
	movl	%edx, 8(%r14)
	jmp	.L1134
	.p2align 4,,10
	.p2align 3
.L1125:
	movl	8(%rax), %eax
	leal	-1(%rax), %edx
	movl	%edx, 8(%r15)
	cmpl	$1, %eax
	jne	.L1124
.L1126:
	movq	(%r15), %rax
	movq	%r15, %rdi
	call	*16(%rax)
	testq	%r13, %r13
	je	.L1176
	movl	$-1, %eax
	lock xaddl	%eax, 12(%r15)
.L1131:
	cmpl	$1, %eax
	jne	.L1127
	movq	(%r15), %rax
	movq	%r15, %rdi
	call	*24(%rax)
	jmp	.L1127
	.p2align 4,,10
	.p2align 3
.L1139:
	movl	8(%rax), %eax
	leal	-1(%rax), %edx
	movl	%edx, 8(%r15)
	jmp	.L1140
	.p2align 4,,10
	.p2align 3
.L1176:
	movl	12(%r15), %eax
	leal	-1(%rax), %edx
	movl	%edx, 12(%r15)
	jmp	.L1131
	.p2align 4,,10
	.p2align 3
.L1142:
	movl	12(%r15), %eax
	leal	-1(%rax), %edx
	movl	%edx, 12(%r15)
	jmp	.L1143
	.p2align 4,,10
	.p2align 3
.L1135:
	movl	12(%r14), %eax
	leal	-1(%rax), %edx
	movl	%edx, 12(%r14)
	jmp	.L1136
.L1175:
	call	__stack_chk_fail@PLT
.L1148:
	endbr64
	movq	%rax, %rbx
	jmp	.L1145
	.section	.gcc_except_table
.LLSDA7870:
	.byte	0xff
	.byte	0xff
	.byte	0x1
	.uleb128 .LLSDACSE7870-.LLSDACSB7870
.LLSDACSB7870:
	.uleb128 .LEHB14-.LFB7870
	.uleb128 .LEHE14-.LEHB14
	.uleb128 0
	.uleb128 0
	.uleb128 .LEHB15-.LFB7870
	.uleb128 .LEHE15-.LEHB15
	.uleb128 .L1148-.LFB7870
	.uleb128 0
.LLSDACSE7870:
	.text
	.cfi_endproc
	.section	.text.unlikely
	.cfi_startproc
	.cfi_personality 0x9b,DW.ref.__gxx_personality_v0
	.cfi_lsda 0x1b,.LLSDAC7870
	.type	_ZN8asiodnp311LinkSession13AcceptSessionERKNSt7__cxx1112basic_stringIcSt11char_traitsIcESaIcEEESt10shared_ptrIN8opendnp311ISOEHandlerEES9_INSA_18IMasterApplicationEERKNS_17MasterStackConfigE.cold, @function
_ZN8asiodnp311LinkSession13AcceptSessionERKNSt7__cxx1112basic_stringIcSt11char_traitsIcESaIcEEESt10shared_ptrIN8opendnp311ISOEHandlerEES9_INSA_18IMasterApplicationEERKNS_17MasterStackConfigE.cold:
.LFSB7870:
.L1120:
	.cfi_def_cfa 6, 16
	.cfi_offset 3, -56
	.cfi_offset 6, -16
	.cfi_offset 12, -48
	.cfi_offset 13, -40
	.cfi_offset 14, -32
	.cfi_offset 15, -24
.LEHB16:
	call	_ZSt20__throw_bad_weak_ptrv@PLT
.L1145:
	movq	-88(%rbp), %rdi
	testq	%rdi, %rdi
	je	.L1146
	call	_ZNSt16_Sp_counted_baseILN9__gnu_cxx12_Lock_policyE2EE10_M_releaseEv@PLT
.L1146:
	movq	%rbx, %rdi
	call	_Unwind_Resume@PLT
.LEHE16:
	.cfi_endproc
.LFE7870:
	.section	.gcc_except_table
.LLSDAC7870:
	.byte	0xff
	.byte	0xff
	.byte	0x1
	.uleb128 .LLSDACSEC7870-.LLSDACSBC7870
.LLSDACSBC7870:
	.uleb128 .LEHB16-.LCOLDB29
	.uleb128 .LEHE16-.LEHB16
	.uleb128 0
	.uleb128 0
.LLSDACSEC7870:
	.section	.text.unlikely
	.text
	.size	_ZN8asiodnp311LinkSession13AcceptSessionERKNSt7__cxx1112basic_stringIcSt11char_traitsIcESaIcEEESt10shared_ptrIN8opendnp311ISOEHandlerEES9_INSA_18IMasterApplicationEERKNS_17MasterStackConfigE, .-_ZN8asiodnp311LinkSession13AcceptSessionERKNSt7__cxx1112basic_stringIcSt11char_traitsIcESaIcEEESt10shared_ptrIN8opendnp311ISOEHandlerEES9_INSA_18IMasterApplicationEERKNS_17MasterStackConfigE
	.section	.text.unlikely
	.size	_ZN8asiodnp311LinkSession13AcceptSessionERKNSt7__cxx1112basic_stringIcSt11char_traitsIcESaIcEEESt10shared_ptrIN8opendnp311ISOEHandlerEES9_INSA_18IMasterApplicationEERKNS_17MasterStackConfigE.cold, .-_ZN8asiodnp311LinkSession13AcceptSessionERKNSt7__cxx1112basic_stringIcSt11char_traitsIcESaIcEEESt10shared_ptrIN8opendnp311ISOEHandlerEES9_INSA_18IMasterApplicationEERKNS_17MasterStackConfigE.cold
.LCOLDE29:
	.text
.LHOTE29:
	.set	.LTHUNK6,_ZN8asiodnp311LinkSession13AcceptSessionERKNSt7__cxx1112basic_stringIcSt11char_traitsIcESaIcEEESt10shared_ptrIN8opendnp311ISOEHandlerEES9_INSA_18IMasterApplicationEERKNS_17MasterStackConfigE
	.p2align 4
	.globl	_ZThn48_N8asiodnp311LinkSession13AcceptSessionERKNSt7__cxx1112basic_stringIcSt11char_traitsIcESaIcEEESt10shared_ptrIN8opendnp311ISOEHandlerEES9_INSA_18IMasterApplicationEERKNS_17MasterStackConfigE
	.type	_ZThn48_N8asiodnp311LinkSession13AcceptSessionERKNSt7__cxx1112basic_stringIcSt11char_traitsIcESaIcEEESt10shared_ptrIN8opendnp311ISOEHandlerEES9_INSA_18IMasterApplicationEERKNS_17MasterStackConfigE, @function
_ZThn48_N8asiodnp311LinkSession13AcceptSessionERKNSt7__cxx1112basic_stringIcSt11char_traitsIcESaIcEEESt10shared_ptrIN8opendnp311ISOEHandlerEES9_INSA_18IMasterApplicationEERKNS_17MasterStackConfigE:
.LFB10588:
	.cfi_startproc
	endbr64
	subq	$48, %rsi
	jmp	.LTHUNK6
	.cfi_endproc
.LFE10588:
	.size	_ZThn48_N8asiodnp311LinkSession13AcceptSessionERKNSt7__cxx1112basic_stringIcSt11char_traitsIcESaIcEEESt10shared_ptrIN8opendnp311ISOEHandlerEES9_INSA_18IMasterApplicationEERKNS_17MasterStackConfigE, .-_ZThn48_N8asiodnp311LinkSession13AcceptSessionERKNSt7__cxx1112basic_stringIcSt11char_traitsIcESaIcEEESt10shared_ptrIN8opendnp311ISOEHandlerEES9_INSA_18IMasterApplicationEERKNS_17MasterStackConfigE
	.section	.text.unlikely
	.align 2
.LCOLDB30:
	.text
.LHOTB30:
	.align 2
	.p2align 4
	.globl	_ZN8asiodnp311LinkSession12ShutdownImplEv
	.type	_ZN8asiodnp311LinkSession12ShutdownImplEv, @function
_ZN8asiodnp311LinkSession12ShutdownImplEv:
.LFB7845:
	.cfi_startproc
	.cfi_personality 0x9b,DW.ref.__gxx_personality_v0
	.cfi_lsda 0x1b,.LLSDA7845
	endbr64
	pushq	%r15
	.cfi_def_cfa_offset 16
	.cfi_offset 15, -16
	pushq	%r14
	.cfi_def_cfa_offset 24
	.cfi_offset 14, -24
	pushq	%r13
	.cfi_def_cfa_offset 32
	.cfi_offset 13, -32
	pushq	%r12
	.cfi_def_cfa_offset 40
	.cfi_offset 12, -40
	pushq	%rbp
	.cfi_def_cfa_offset 48
	.cfi_offset 6, -48
	pushq	%rbx
	.cfi_def_cfa_offset 56
	.cfi_offset 3, -56
	subq	$88, %rsp
	.cfi_def_cfa_offset 144
	movq	%fs:40, %rax
	movq	%rax, 72(%rsp)
	xorl	%eax, %eax
	cmpb	$0, 56(%rdi)
	je	.L1350
.L1177:
	movq	72(%rsp), %rax
	xorq	%fs:40, %rax
	jne	.L1351
	addq	$88, %rsp
	.cfi_remember_state
	.cfi_def_cfa_offset 56
	popq	%rbx
	.cfi_def_cfa_offset 48
	popq	%rbp
	.cfi_def_cfa_offset 40
	popq	%r12
	.cfi_def_cfa_offset 32
	popq	%r13
	.cfi_def_cfa_offset 24
	popq	%r14
	.cfi_def_cfa_offset 16
	popq	%r15
	.cfi_def_cfa_offset 8
	ret
	.p2align 4,,10
	.p2align 3
.L1350:
	.cfi_restore_state
	movq	%rdi, %r13
	movb	$1, 56(%rdi)
	movq	120(%rdi), %rdi
	movdqu	592(%r13), %xmm1
	movq	(%rdi), %rax
	movq	48(%rax), %rcx
	movq	600(%r13), %rax
	movaps	%xmm1, 48(%rsp)
	testq	%rax, %rax
	je	.L1179
	cmpq	$0, _ZL28__gthrw___pthread_key_createPjPFvPvE@GOTPCREL(%rip)
	je	.L1180
	lock addl	$1, 8(%rax)
.L1179:
	leaq	48(%rsp), %r14
	movq	96(%r13), %rsi
	movq	%r14, %rdx
.LEHB17:
	call	*%rcx
.LEHE17:
	movq	56(%rsp), %rbp
	testq	%rbp, %rbp
	je	.L1182
	movq	_ZL28__gthrw___pthread_key_createPjPFvPvE@GOTPCREL(%rip), %rbx
	testq	%rbx, %rbx
	je	.L1183
	movl	$-1, %eax
	lock xaddl	%eax, 8(%rbp)
.L1184:
	cmpl	$1, %eax
	jne	.L1182
	movq	0(%rbp), %rax
	movq	%rbp, %rdi
	call	*16(%rax)
	testq	%rbx, %rbx
	je	.L1186
	movl	$-1, %eax
	lock xaddl	%eax, 12(%rbp)
.L1187:
	cmpl	$1, %eax
	jne	.L1182
	movq	0(%rbp), %rax
	movq	%rbp, %rdi
	call	*24(%rax)
	.p2align 4,,10
	.p2align 3
.L1182:
	movq	592(%r13), %rdi
	testq	%rdi, %rdi
	je	.L1188
.LEHB18:
	call	_ZN8asiodnp318MasterSessionStack16OnLowerLayerDownEv@PLT
.L1188:
	leaq	568(%r13), %rdi
	call	_ZN7openpal8TimerRef6CancelEv@PLT
	movq	136(%r13), %rbx
	cmpb	$0, 56(%rbx)
	jne	.L1190
	movq	(%rbx), %rax
	movb	$1, 56(%rbx)
	movq	%rbx, %rdi
	call	*32(%rax)
.LEHE18:
	movq	16(%rbx), %rbp
	testq	%rbp, %rbp
	je	.L1191
	movl	8(%rbp), %eax
	leaq	8(%rbp), %r12
.L1193:
	testl	%eax, %eax
	je	.L1191
	leal	1(%rax), %edx
	lock cmpxchgl	%edx, (%r12)
	jne	.L1193
	movq	8(%rbx), %rax
	movq	24(%rbx), %r15
	movq	%rbp, 56(%rsp)
	movq	_ZL28__gthrw___pthread_key_createPjPFvPvE@GOTPCREL(%rip), %rbx
	movq	%rax, 48(%rsp)
	testq	%rbx, %rbx
	je	.L1194
	lock addl	$1, (%r12)
	movq	56(%rsp), %rax
	movq	%rax, 8(%rsp)
.L1195:
	movq	40(%r15), %rax
	movq	%r14, %rdi
	movq	%rax, 16(%rsp)
	xorl	%eax, %eax
	call	_ZN4asio28asio_handler_is_continuationEz@PLT
	movb	%al, 31(%rsp)
	data16	leaq	_ZN4asio6detail15keyword_tss_ptrINS0_10call_stackINS0_15task_io_serviceENS0_27task_io_service_thread_infoEE7contextEE6value_E@tlsgd(%rip), %rdi
	.value	0x6666
	rex64
	call	__tls_get_addr@PLT
	movq	(%rax), %rax
	testq	%rax, %rax
	je	.L1196
	movq	8(%rax), %rax
	testq	%rax, %rax
	je	.L1196
	movq	(%rax), %r8
	testq	%r8, %r8
	je	.L1196
	movq	$0, (%rax)
	movzbl	(%r8), %eax
	cmpb	$39, %al
	jbe	.L1197
	movb	%al, 40(%r8)
.L1198:
	movq	_ZN4asio6detail18completion_handlerIZN7asiopal13IAsyncChannel8ShutdownEvEUlvE_E11do_completeEPNS0_15task_io_serviceEPNS0_25task_io_service_operationERKSt10error_codem@GOTPCREL(%rip), %rax
	pxor	%xmm0, %xmm0
	movq	$0, (%r8)
	movl	$0, 16(%r8)
	movq	%rax, 8(%r8)
	movq	48(%rsp), %rax
	movq	%rax, 24(%r8)
	movq	8(%rsp), %rax
	movq	%r8, 8(%rsp)
	movq	%rax, 32(%r8)
	movaps	%xmm0, 48(%rsp)
	movq	48(%r15), %rax
	leaq	24(%rax), %rdi
	call	pthread_mutex_lock@PLT
	movq	48(%r15), %rdi
	movq	8(%rsp), %r8
	cmpb	$0, 64(%rdi)
	je	.L1199
	cmpq	$0, 80(%rdi)
	movq	$0, (%r8)
	je	.L1200
	movq	80(%rdi), %rax
	movq	%r8, (%rax)
	movq	%r8, 80(%rdi)
.L1201:
	addq	$24, %rdi
	call	pthread_mutex_unlock@PLT
.L1217:
	testq	%rbx, %rbx
	je	.L1352
	movl	$-1, %eax
	lock xaddl	%eax, (%r12)
.L1226:
	cmpl	$1, %eax
	jne	.L1190
	movq	0(%rbp), %rax
	movq	%rbp, %rdi
	call	*16(%rax)
	testq	%rbx, %rbx
	je	.L1228
	movl	$-1, %eax
	lock xaddl	%eax, 12(%rbp)
.L1229:
	cmpl	$1, %eax
	jne	.L1190
	movq	0(%rbp), %rax
	movq	%rbp, %rdi
	call	*24(%rax)
	.p2align 4,,10
	.p2align 3
.L1190:
	movq	32(%r13), %rbp
	testq	%rbp, %rbp
	je	.L1191
	movl	8(%rbp), %eax
	leaq	8(%rbp), %r12
.L1230:
	testl	%eax, %eax
	je	.L1191
	leal	1(%rax), %edx
	lock cmpxchgl	%edx, (%r12)
	jne	.L1230
	movq	24(%r13), %rax
	movq	136(%r13), %rdx
	movq	_ZL28__gthrw___pthread_key_createPjPFvPvE@GOTPCREL(%rip), %rbx
	movq	24(%rdx), %r13
	movq	%rax, 48(%rsp)
	movq	%rbp, 56(%rsp)
	testq	%rbx, %rbx
	je	.L1231
	lock addl	$1, (%r12)
	movq	56(%rsp), %r15
.L1232:
	movq	40(%r13), %rax
	movq	%r14, %rdi
	movq	%rax, 8(%rsp)
	xorl	%eax, %eax
	call	_ZN4asio28asio_handler_is_continuationEz@PLT
	movb	%al, 16(%rsp)
	data16	leaq	_ZN4asio6detail15keyword_tss_ptrINS0_10call_stackINS0_15task_io_serviceENS0_27task_io_service_thread_infoEE7contextEE6value_E@tlsgd(%rip), %rdi
	.value	0x6666
	rex64
	call	__tls_get_addr@PLT
	movq	(%rax), %rax
	testq	%rax, %rax
	je	.L1233
	movq	8(%rax), %rax
	testq	%rax, %rax
	je	.L1233
	movq	(%rax), %r14
	testq	%r14, %r14
	je	.L1233
	movq	$0, (%rax)
	movzbl	(%r14), %eax
	cmpb	$39, %al
	jbe	.L1234
	movb	%al, 40(%r14)
	jmp	.L1235
	.p2align 4,,10
	.p2align 3
.L1234:
	movq	%r14, %rdi
	call	_ZdlPv@PLT
.L1233:
	movl	$41, %edi
.LEHB19:
	call	_Znwm@PLT
.LEHE19:
	movb	$40, 40(%rax)
	movq	%rax, %r14
.L1235:
	leaq	_ZN4asio6detail18completion_handlerIZN8asiodnp311LinkSession12ShutdownImplEvEUlvE_E11do_completeEPNS0_15task_io_serviceEPNS0_25task_io_service_operationERKSt10error_codem(%rip), %rax
	pxor	%xmm0, %xmm0
	movq	$0, (%r14)
	movq	%rax, 8(%r14)
	movq	48(%rsp), %rax
	movl	$0, 16(%r14)
	movq	%rax, 24(%r14)
	movq	%r15, 32(%r14)
	movaps	%xmm0, 48(%rsp)
	movq	48(%r13), %rax
	leaq	24(%rax), %rdi
	call	pthread_mutex_lock@PLT
	movq	48(%r13), %rdi
	cmpb	$0, 64(%rdi)
	je	.L1236
	cmpq	$0, 80(%rdi)
	movq	$0, (%r14)
	je	.L1237
	movq	80(%rdi), %rax
	movq	%r14, (%rax)
	movq	%r14, 80(%rdi)
.L1238:
	addq	$24, %rdi
	call	pthread_mutex_unlock@PLT
.L1254:
	testq	%rbx, %rbx
	je	.L1353
	movl	$-1, %eax
	lock xaddl	%eax, (%r12)
	cmpl	$1, %eax
	jne	.L1177
.L1354:
	movq	0(%rbp), %rax
	movq	%rbp, %rdi
	call	*16(%rax)
	testq	%rbx, %rbx
	je	.L1266
	movl	$-1, %eax
	lock xaddl	%eax, 12(%rbp)
.L1267:
	cmpl	$1, %eax
	jne	.L1177
	movq	0(%rbp), %rax
	movq	%rbp, %rdi
	call	*24(%rax)
	jmp	.L1177
	.p2align 4,,10
	.p2align 3
.L1180:
	addl	$1, 8(%rax)
	jmp	.L1179
	.p2align 4,,10
	.p2align 3
.L1194:
	addl	$1, 8(%rbp)
	movq	%rbp, 8(%rsp)
	jmp	.L1195
	.p2align 4,,10
	.p2align 3
.L1183:
	movl	8(%rbp), %eax
	leal	-1(%rax), %edx
	movl	%edx, 8(%rbp)
	jmp	.L1184
	.p2align 4,,10
	.p2align 3
.L1197:
	movq	%r8, %rdi
	call	_ZdlPv@PLT
.L1196:
	movl	$41, %edi
.LEHB20:
	call	_Znwm@PLT
.LEHE20:
	movb	$40, 40(%rax)
	movq	%rax, %r8
	jmp	.L1198
	.p2align 4,,10
	.p2align 3
.L1236:
	movb	$1, 64(%rdi)
	addq	$24, %rdi
	call	pthread_mutex_unlock@PLT
	movq	48(%r13), %r15
	movq	$0, (%r14)
	cmpq	$0, 96(%r15)
	je	.L1240
	movq	96(%r15), %rax
	movq	%r14, (%rax)
	movq	%r14, 96(%r15)
.L1241:
	movq	8(%rsp), %rax
	movq	40(%rax), %r13
	cmpb	$0, 40(%r13)
	jne	.L1276
	cmpb	$0, 16(%rsp)
	je	.L1242
.L1276:
	data16	leaq	_ZN4asio6detail15keyword_tss_ptrINS0_10call_stackINS0_15task_io_serviceENS0_27task_io_service_thread_infoEE7contextEE6value_E@tlsgd(%rip), %rdi
	.value	0x6666
	rex64
	call	__tls_get_addr@PLT
	movq	(%rax), %rax
	testq	%rax, %rax
	jne	.L1246
	jmp	.L1242
	.p2align 4,,10
	.p2align 3
.L1244:
	movq	16(%rax), %rax
	testq	%rax, %rax
	je	.L1242
.L1246:
	cmpq	(%rax), %r13
	jne	.L1244
	movq	8(%rax), %rax
	testq	%rax, %rax
	je	.L1242
	addq	$1, 24(%rax)
	cmpq	$0, 16(%rax)
	movq	$0, (%r15)
	je	.L1247
	movq	16(%rax), %rdx
	movq	%r15, (%rdx)
	movq	%r15, 16(%rax)
	jmp	.L1254
	.p2align 4,,10
	.p2align 3
.L1231:
	addl	$1, 8(%rbp)
	movq	%rbp, %r15
	jmp	.L1232
	.p2align 4,,10
	.p2align 3
.L1353:
	movl	8(%rbp), %eax
	leal	-1(%rax), %edx
	movl	%edx, 8(%rbp)
	cmpl	$1, %eax
	jne	.L1177
	jmp	.L1354
	.p2align 4,,10
	.p2align 3
.L1199:
	movb	$1, 64(%rdi)
	addq	$24, %rdi
	movq	%r8, 8(%rsp)
	call	pthread_mutex_unlock@PLT
	movq	48(%r15), %rdx
	movq	8(%rsp), %r8
	cmpq	$0, 96(%rdx)
	movq	$0, (%r8)
	je	.L1203
	movq	96(%rdx), %rax
	movq	%r8, (%rax)
	movq	%r8, 96(%rdx)
.L1204:
	movq	16(%rsp), %rax
	movq	40(%rax), %r15
	cmpb	$0, 40(%r15)
	jne	.L1275
	cmpb	$0, 31(%rsp)
	je	.L1205
.L1275:
	movq	%rdx, 8(%rsp)
	data16	leaq	_ZN4asio6detail15keyword_tss_ptrINS0_10call_stackINS0_15task_io_serviceENS0_27task_io_service_thread_infoEE7contextEE6value_E@tlsgd(%rip), %rdi
	.value	0x6666
	rex64
	call	__tls_get_addr@PLT
	movq	8(%rsp), %rdx
	movq	(%rax), %rax
	testq	%rax, %rax
	jne	.L1209
	jmp	.L1205
	.p2align 4,,10
	.p2align 3
.L1207:
	movq	16(%rax), %rax
	testq	%rax, %rax
	je	.L1205
.L1209:
	cmpq	(%rax), %r15
	jne	.L1207
	movq	8(%rax), %rax
	testq	%rax, %rax
	je	.L1205
	addq	$1, 24(%rax)
	cmpq	$0, 16(%rax)
	movq	$0, (%rdx)
	je	.L1210
	movq	16(%rax), %rcx
	movq	%rdx, (%rcx)
	movq	%rdx, 16(%rax)
	jmp	.L1217
	.p2align 4,,10
	.p2align 3
.L1205:
	movq	%rdx, 16(%rsp)
	lock addq	$1, 184(%r15)
	leaq	48(%r15), %r8
	movq	%r8, %rdi
	movq	%r8, 8(%rsp)
	call	pthread_mutex_lock@PLT
	movq	16(%rsp), %rdx
	movq	8(%rsp), %r8
	cmpq	$0, 200(%r15)
	movq	$0, (%rdx)
	je	.L1211
	movq	200(%r15), %rax
	movq	%rdx, (%rax)
	movq	%rdx, 200(%r15)
.L1212:
	movq	136(%r15), %rax
	orq	$1, %rax
	movq	%rax, 136(%r15)
	cmpq	$1, %rax
	je	.L1213
	movq	%r8, %rdi
	call	pthread_mutex_unlock@PLT
	leaq	88(%r15), %rdi
	call	pthread_cond_signal@PLT
.L1214:
	movq	56(%rsp), %r15
	testq	%r15, %r15
	je	.L1217
	testq	%rbx, %rbx
	je	.L1218
	movl	$-1, %eax
	lock xaddl	%eax, 8(%r15)
.L1219:
	cmpl	$1, %eax
	jne	.L1217
	movq	(%r15), %rax
	movq	%r15, %rdi
	call	*16(%rax)
	testq	%rbx, %rbx
	je	.L1220
	movl	$-1, %eax
	lock xaddl	%eax, 12(%r15)
.L1221:
	cmpl	$1, %eax
	jne	.L1217
	movq	(%r15), %rax
	movq	%r15, %rdi
	call	*24(%rax)
	jmp	.L1217
	.p2align 4,,10
	.p2align 3
.L1237:
	movq	%r14, %xmm0
	punpcklqdq	%xmm0, %xmm0
	movups	%xmm0, 72(%rdi)
	jmp	.L1238
	.p2align 4,,10
	.p2align 3
.L1242:
	lock addq	$1, 184(%r13)
	leaq	48(%r13), %r14
	movq	%r14, %rdi
	call	pthread_mutex_lock@PLT
	cmpq	$0, 200(%r13)
	movq	$0, (%r15)
	je	.L1248
	movq	200(%r13), %rax
	movq	%r15, (%rax)
	movq	%r15, 200(%r13)
.L1249:
	movq	136(%r13), %rax
	orq	$1, %rax
	movq	%rax, 136(%r13)
	cmpq	$1, %rax
	je	.L1250
	movq	%r14, %rdi
	call	pthread_mutex_unlock@PLT
	leaq	88(%r13), %rdi
	call	pthread_cond_signal@PLT
	jmp	.L1251
	.p2align 4,,10
	.p2align 3
.L1250:
	cmpb	$0, 176(%r13)
	je	.L1355
.L1252:
	movq	%r14, %rdi
	call	pthread_mutex_unlock@PLT
.L1251:
	movq	56(%rsp), %r13
	testq	%r13, %r13
	je	.L1254
	testq	%rbx, %rbx
	je	.L1255
	movl	$-1, %eax
	lock xaddl	%eax, 8(%r13)
.L1256:
	cmpl	$1, %eax
	jne	.L1254
	movq	0(%r13), %rax
	movq	%r13, %rdi
	call	*16(%rax)
	testq	%rbx, %rbx
	je	.L1257
	movl	$-1, %eax
	lock xaddl	%eax, 12(%r13)
.L1258:
	cmpl	$1, %eax
	jne	.L1254
	movq	0(%r13), %rax
	movq	%r13, %rdi
	call	*24(%rax)
	jmp	.L1254
	.p2align 4,,10
	.p2align 3
.L1255:
	movl	8(%r13), %eax
	leal	-1(%rax), %edx
	movl	%edx, 8(%r13)
	jmp	.L1256
	.p2align 4,,10
	.p2align 3
.L1352:
	movl	8(%rbp), %eax
	leal	-1(%rax), %edx
	movl	%edx, 8(%rbp)
	jmp	.L1226
	.p2align 4,,10
	.p2align 3
.L1200:
	movq	%r8, %xmm0
	punpcklqdq	%xmm0, %xmm0
	movups	%xmm0, 72(%rdi)
	jmp	.L1201
	.p2align 4,,10
	.p2align 3
.L1257:
	movl	12(%r13), %eax
	leal	-1(%rax), %edx
	movl	%edx, 12(%r13)
	jmp	.L1258
	.p2align 4,,10
	.p2align 3
.L1266:
	movl	12(%rbp), %eax
	leal	-1(%rax), %edx
	movl	%edx, 12(%rbp)
	jmp	.L1267
	.p2align 4,,10
	.p2align 3
.L1186:
	movl	12(%rbp), %eax
	leal	-1(%rax), %edx
	movl	%edx, 12(%rbp)
	jmp	.L1187
	.p2align 4,,10
	.p2align 3
.L1355:
	movq	144(%r13), %rax
	testq	%rax, %rax
	je	.L1252
	leaq	88(%rax), %rdx
	leaq	36(%rsp), %rcx
	movl	$3, %esi
	movb	$1, 176(%r13)
	movl	$-2147483639, 36(%rsp)
	movq	%rdx, 40(%rsp)
	movl	88(%rax), %edx
	movl	96(%rax), %edi
	call	epoll_ctl@PLT
	jmp	.L1252
	.p2align 4,,10
	.p2align 3
.L1228:
	movl	12(%rbp), %eax
	leal	-1(%rax), %edx
	movl	%edx, 12(%rbp)
	jmp	.L1229
	.p2align 4,,10
	.p2align 3
.L1247:
	movq	%r15, %xmm0
	punpcklqdq	%xmm0, %xmm0
	movups	%xmm0, 8(%rax)
	jmp	.L1254
	.p2align 4,,10
	.p2align 3
.L1211:
	movq	%rdx, %xmm0
	punpcklqdq	%xmm0, %xmm0
	movups	%xmm0, 192(%r15)
	jmp	.L1212
	.p2align 4,,10
	.p2align 3
.L1218:
	movl	8(%r15), %eax
	leal	-1(%rax), %edx
	movl	%edx, 8(%r15)
	jmp	.L1219
	.p2align 4,,10
	.p2align 3
.L1240:
	movq	%r14, %xmm0
	punpcklqdq	%xmm0, %xmm0
	movups	%xmm0, 88(%r15)
	jmp	.L1241
	.p2align 4,,10
	.p2align 3
.L1213:
	cmpb	$0, 176(%r15)
	jne	.L1215
	movq	144(%r15), %rax
	testq	%rax, %rax
	je	.L1215
	leaq	88(%rax), %rdx
	leaq	36(%rsp), %rcx
	movl	$3, %esi
	movb	$1, 176(%r15)
	movl	$-2147483639, 36(%rsp)
	movq	%rdx, 40(%rsp)
	movl	88(%rax), %edx
	movl	96(%rax), %edi
	movq	%r8, 8(%rsp)
	call	epoll_ctl@PLT
	movq	8(%rsp), %r8
.L1215:
	movq	%r8, %rdi
	call	pthread_mutex_unlock@PLT
	jmp	.L1214
	.p2align 4,,10
	.p2align 3
.L1203:
	movq	%r8, %xmm0
	punpcklqdq	%xmm0, %xmm0
	movups	%xmm0, 88(%rdx)
	jmp	.L1204
	.p2align 4,,10
	.p2align 3
.L1248:
	movq	%r15, %xmm0
	punpcklqdq	%xmm0, %xmm0
	movups	%xmm0, 192(%r13)
	jmp	.L1249
	.p2align 4,,10
	.p2align 3
.L1220:
	movl	12(%r15), %eax
	leal	-1(%rax), %edx
	movl	%edx, 12(%r15)
	jmp	.L1221
	.p2align 4,,10
	.p2align 3
.L1210:
	movq	%rdx, %xmm0
	punpcklqdq	%xmm0, %xmm0
	movups	%xmm0, 8(%rax)
	jmp	.L1217
.L1351:
	call	__stack_chk_fail@PLT
.L1274:
	endbr64
	movq	%rax, %r12
	jmp	.L1261
.L1272:
	endbr64
	movq	%rax, %rbp
	jmp	.L1269
.L1273:
	endbr64
	movq	%rax, %r12
	jmp	.L1224
	.section	.gcc_except_table
.LLSDA7845:
	.byte	0xff
	.byte	0xff
	.byte	0x1
	.uleb128 .LLSDACSE7845-.LLSDACSB7845
.LLSDACSB7845:
	.uleb128 .LEHB17-.LFB7845
	.uleb128 .LEHE17-.LEHB17
	.uleb128 .L1272-.LFB7845
	.uleb128 0
	.uleb128 .LEHB18-.LFB7845
	.uleb128 .LEHE18-.LEHB18
	.uleb128 0
	.uleb128 0
	.uleb128 .LEHB19-.LFB7845
	.uleb128 .LEHE19-.LEHB19
	.uleb128 .L1274-.LFB7845
	.uleb128 0
	.uleb128 .LEHB20-.LFB7845
	.uleb128 .LEHE20-.LEHB20
	.uleb128 .L1273-.LFB7845
	.uleb128 0
.LLSDACSE7845:
	.text
	.cfi_endproc
	.section	.text.unlikely
	.cfi_startproc
	.cfi_personality 0x9b,DW.ref.__gxx_personality_v0
	.cfi_lsda 0x1b,.LLSDAC7845
	.type	_ZN8asiodnp311LinkSession12ShutdownImplEv.cold, @function
_ZN8asiodnp311LinkSession12ShutdownImplEv.cold:
.LFSB7845:
.L1261:
	.cfi_def_cfa_offset 144
	.cfi_offset 3, -56
	.cfi_offset 6, -48
	.cfi_offset 12, -40
	.cfi_offset 13, -32
	.cfi_offset 14, -24
	.cfi_offset 15, -16
	testq	%r15, %r15
	je	.L1262
	movq	%r15, %rdi
	call	_ZNSt16_Sp_counted_baseILN9__gnu_cxx12_Lock_policyE2EE10_M_releaseEv@PLT
.L1262:
	movq	%rbp, %rdi
	call	_ZNSt16_Sp_counted_baseILN9__gnu_cxx12_Lock_policyE2EE10_M_releaseEv@PLT
	movq	%r12, %rdi
.LEHB21:
	call	_Unwind_Resume@PLT
.L1269:
	movq	56(%rsp), %rdi
	testq	%rdi, %rdi
	je	.L1270
	call	_ZNSt16_Sp_counted_baseILN9__gnu_cxx12_Lock_policyE2EE10_M_releaseEv@PLT
.L1270:
	movq	%rbp, %rdi
	call	_Unwind_Resume@PLT
.L1191:
	call	_ZSt20__throw_bad_weak_ptrv@PLT
.L1224:
	cmpq	$0, 8(%rsp)
	je	.L1225
	movq	8(%rsp), %rdi
	call	_ZNSt16_Sp_counted_baseILN9__gnu_cxx12_Lock_policyE2EE10_M_releaseEv@PLT
.L1225:
	movq	%rbp, %rdi
	call	_ZNSt16_Sp_counted_baseILN9__gnu_cxx12_Lock_policyE2EE10_M_releaseEv@PLT
	movq	%r12, %rdi
	call	_Unwind_Resume@PLT
.LEHE21:
	.cfi_endproc
.LFE7845:
	.section	.gcc_except_table
.LLSDAC7845:
	.byte	0xff
	.byte	0xff
	.byte	0x1
	.uleb128 .LLSDACSEC7845-.LLSDACSBC7845
.LLSDACSBC7845:
	.uleb128 .LEHB21-.LCOLDB30
	.uleb128 .LEHE21-.LEHB21
	.uleb128 0
	.uleb128 0
.LLSDACSEC7845:
	.section	.text.unlikely
	.text
	.size	_ZN8asiodnp311LinkSession12ShutdownImplEv, .-_ZN8asiodnp311LinkSession12ShutdownImplEv
	.section	.text.unlikely
	.size	_ZN8asiodnp311LinkSession12ShutdownImplEv.cold, .-_ZN8asiodnp311LinkSession12ShutdownImplEv.cold
.LCOLDE30:
	.text
.LHOTE30:
	.p2align 4
	.type	_ZNSt17_Function_handlerIFvvEZN8asiodnp311LinkSession8ShutdownEvEUlvE_E9_M_invokeERKSt9_Any_data, @function
_ZNSt17_Function_handlerIFvvEZN8asiodnp311LinkSession8ShutdownEvEUlvE_E9_M_invokeERKSt9_Any_data:
.LFB9203:
	.cfi_startproc
	endbr64
	movq	(%rdi), %rax
	movq	(%rax), %rdi
	jmp	_ZN8asiodnp311LinkSession12ShutdownImplEv@PLT
	.cfi_endproc
.LFE9203:
	.size	_ZNSt17_Function_handlerIFvvEZN8asiodnp311LinkSession8ShutdownEvEUlvE_E9_M_invokeERKSt9_Any_data, .-_ZNSt17_Function_handlerIFvvEZN8asiodnp311LinkSession8ShutdownEvEUlvE_E9_M_invokeERKSt9_Any_data
	.section	.rodata.str1.8
	.align 8
.LC31:
	.string	"/home/kimchaer/Desktop/OpenPLC_v3/utils/dnp3_src/cpp/libs/src/asiodnp3/LinkSession.cpp(96)"
	.section	.text.unlikely
	.align 2
.LCOLDB32:
	.text
.LHOTB32:
	.align 2
	.p2align 4
	.globl	_ZN8asiodnp311LinkSession14OnReadCompleteERKSt10error_codem
	.type	_ZN8asiodnp311LinkSession14OnReadCompleteERKSt10error_codem, @function
_ZN8asiodnp311LinkSession14OnReadCompleteERKSt10error_codem:
.LFB7866:
	.cfi_startproc
	.cfi_personality 0x9b,DW.ref.__gxx_personality_v0
	.cfi_lsda 0x1b,.LLSDA7866
	endbr64
	pushq	%r13
	.cfi_def_cfa_offset 16
	.cfi_offset 13, -16
	pushq	%r12
	.cfi_def_cfa_offset 24
	.cfi_offset 12, -24
	pushq	%rbp
	.cfi_def_cfa_offset 32
	.cfi_offset 6, -32
	movq	%rdi, %rbp
	pushq	%rbx
	.cfi_def_cfa_offset 40
	.cfi_offset 3, -40
	movq	%rsi, %rbx
	subq	$72, %rsp
	.cfi_def_cfa_offset 112
	movq	%fs:40, %rax
	movq	%rax, 56(%rsp)
	xorl	%eax, %eax
	movl	(%rsi), %eax
	testl	%eax, %eax
	je	.L1358
	leaq	64(%rdi), %r12
	leaq	12(%rsp), %r13
	movl	$4, 12(%rsp)
	movq	%r13, %rsi
	movq	%r12, %rdi
.LEHB22:
	call	_ZNK7openpal6Logger9IsEnabledERKNS_10LogFiltersE@PLT
	testb	%al, %al
	je	.L1359
	movq	8(%rbx), %rsi
	movl	(%rbx), %edx
	leaq	16(%rsp), %rdi
	movq	(%rsi), %rax
	call	*32(%rax)
.LEHE22:
	movq	16(%rsp), %rcx
	movq	%r13, %rsi
	movq	%r12, %rdi
	leaq	.LC31(%rip), %rdx
	movl	$4, 12(%rsp)
.LEHB23:
	call	_ZN7openpal6Logger3LogERKNS_10LogFiltersEPKcS5_@PLT
.LEHE23:
	movq	16(%rsp), %rdi
	leaq	32(%rsp), %rax
	cmpq	%rax, %rdi
	je	.L1359
	call	_ZdlPv@PLT
.L1359:
	movq	%rbp, %rdi
.LEHB24:
	call	_ZN8asiodnp311LinkSession12ShutdownImplEv@PLT
.L1357:
	movq	56(%rsp), %rax
	xorq	%fs:40, %rax
	jne	.L1370
	addq	$72, %rsp
	.cfi_remember_state
	.cfi_def_cfa_offset 40
	popq	%rbx
	.cfi_def_cfa_offset 32
	popq	%rbp
	.cfi_def_cfa_offset 24
	popq	%r12
	.cfi_def_cfa_offset 16
	popq	%r13
	.cfi_def_cfa_offset 8
	ret
	.p2align 4,,10
	.p2align 3
.L1358:
	.cfi_restore_state
	movq	%rdx, %rsi
	leaq	16(%rdi), %rdx
	leaq	152(%rdi), %rdi
	call	_ZN8opendnp315LinkLayerParser6OnReadEjRNS_10IFrameSinkE@PLT
	movq	%rbp, %rdi
	call	_ZN8asiodnp311LinkSession12BeginReceiveEv@PLT
.LEHE24:
	jmp	.L1357
.L1370:
	call	__stack_chk_fail@PLT
.L1365:
	endbr64
	movq	%rax, %rbp
	jmp	.L1362
	.section	.gcc_except_table
.LLSDA7866:
	.byte	0xff
	.byte	0xff
	.byte	0x1
	.uleb128 .LLSDACSE7866-.LLSDACSB7866
.LLSDACSB7866:
	.uleb128 .LEHB22-.LFB7866
	.uleb128 .LEHE22-.LEHB22
	.uleb128 0
	.uleb128 0
	.uleb128 .LEHB23-.LFB7866
	.uleb128 .LEHE23-.LEHB23
	.uleb128 .L1365-.LFB7866
	.uleb128 0
	.uleb128 .LEHB24-.LFB7866
	.uleb128 .LEHE24-.LEHB24
	.uleb128 0
	.uleb128 0
.LLSDACSE7866:
	.text
	.cfi_endproc
	.section	.text.unlikely
	.cfi_startproc
	.cfi_personality 0x9b,DW.ref.__gxx_personality_v0
	.cfi_lsda 0x1b,.LLSDAC7866
	.type	_ZN8asiodnp311LinkSession14OnReadCompleteERKSt10error_codem.cold, @function
_ZN8asiodnp311LinkSession14OnReadCompleteERKSt10error_codem.cold:
.LFSB7866:
.L1362:
	.cfi_def_cfa_offset 112
	.cfi_offset 3, -40
	.cfi_offset 6, -32
	.cfi_offset 12, -24
	.cfi_offset 13, -16
	movq	16(%rsp), %rdi
	leaq	32(%rsp), %rax
	cmpq	%rax, %rdi
	je	.L1363
	call	_ZdlPv@PLT
.L1363:
	movq	%rbp, %rdi
.LEHB25:
	call	_Unwind_Resume@PLT
.LEHE25:
	.cfi_endproc
.LFE7866:
	.section	.gcc_except_table
.LLSDAC7866:
	.byte	0xff
	.byte	0xff
	.byte	0x1
	.uleb128 .LLSDACSEC7866-.LLSDACSBC7866
.LLSDACSBC7866:
	.uleb128 .LEHB25-.LCOLDB32
	.uleb128 .LEHE25-.LEHB25
	.uleb128 0
	.uleb128 0
.LLSDACSEC7866:
	.section	.text.unlikely
	.text
	.size	_ZN8asiodnp311LinkSession14OnReadCompleteERKSt10error_codem, .-_ZN8asiodnp311LinkSession14OnReadCompleteERKSt10error_codem
	.section	.text.unlikely
	.size	_ZN8asiodnp311LinkSession14OnReadCompleteERKSt10error_codem.cold, .-_ZN8asiodnp311LinkSession14OnReadCompleteERKSt10error_codem.cold
.LCOLDE32:
	.text
.LHOTE32:
	.section	.rodata.str1.8
	.align 8
.LC33:
	.string	"/home/kimchaer/Desktop/OpenPLC_v3/utils/dnp3_src/cpp/libs/src/asiodnp3/LinkSession.cpp(110)"
	.section	.text.unlikely
	.align 2
.LCOLDB34:
	.text
.LHOTB34:
	.align 2
	.p2align 4
	.globl	_ZN8asiodnp311LinkSession15OnWriteCompleteERKSt10error_codem
	.type	_ZN8asiodnp311LinkSession15OnWriteCompleteERKSt10error_codem, @function
_ZN8asiodnp311LinkSession15OnWriteCompleteERKSt10error_codem:
.LFB7867:
	.cfi_startproc
	.cfi_personality 0x9b,DW.ref.__gxx_personality_v0
	.cfi_lsda 0x1b,.LLSDA7867
	endbr64
	pushq	%r13
	.cfi_def_cfa_offset 16
	.cfi_offset 13, -16
	pushq	%r12
	.cfi_def_cfa_offset 24
	.cfi_offset 12, -24
	pushq	%rbp
	.cfi_def_cfa_offset 32
	.cfi_offset 6, -32
	movq	%rdi, %rbp
	pushq	%rbx
	.cfi_def_cfa_offset 40
	.cfi_offset 3, -40
	subq	$72, %rsp
	.cfi_def_cfa_offset 112
	movq	%fs:40, %rax
	movq	%rax, 56(%rsp)
	xorl	%eax, %eax
	movl	(%rsi), %eax
	testl	%eax, %eax
	je	.L1372
	leaq	64(%rdi), %r12
	leaq	12(%rsp), %r13
	movq	%rsi, %rbx
	movl	$4, 12(%rsp)
	movq	%r13, %rsi
	movq	%r12, %rdi
.LEHB26:
	call	_ZNK7openpal6Logger9IsEnabledERKNS_10LogFiltersE@PLT
	testb	%al, %al
	je	.L1373
	movq	8(%rbx), %rsi
	movl	(%rbx), %edx
	leaq	16(%rsp), %rdi
	movq	(%rsi), %rax
	call	*32(%rax)
.LEHE26:
	movq	16(%rsp), %rcx
	movq	%r13, %rsi
	movq	%r12, %rdi
	leaq	.LC33(%rip), %rdx
	movl	$4, 12(%rsp)
.LEHB27:
	call	_ZN7openpal6Logger3LogERKNS_10LogFiltersEPKcS5_@PLT
.LEHE27:
	movq	16(%rsp), %rdi
	leaq	32(%rsp), %rax
	cmpq	%rax, %rdi
	je	.L1373
	call	_ZdlPv@PLT
.L1373:
	movq	%rbp, %rdi
.LEHB28:
	call	_ZN8asiodnp311LinkSession12ShutdownImplEv@PLT
.L1371:
	movq	56(%rsp), %rax
	xorq	%fs:40, %rax
	jne	.L1384
	addq	$72, %rsp
	.cfi_remember_state
	.cfi_def_cfa_offset 40
	popq	%rbx
	.cfi_def_cfa_offset 32
	popq	%rbp
	.cfi_def_cfa_offset 24
	popq	%r12
	.cfi_def_cfa_offset 16
	popq	%r13
	.cfi_def_cfa_offset 8
	ret
	.p2align 4,,10
	.p2align 3
.L1372:
	.cfi_restore_state
	movq	592(%rdi), %rdi
	movl	$1, %esi
	call	_ZN8asiodnp318MasterSessionStack18OnTransmitCompleteEb@PLT
.LEHE28:
	jmp	.L1371
.L1384:
	call	__stack_chk_fail@PLT
.L1379:
	endbr64
	movq	%rax, %rbp
	jmp	.L1376
	.section	.gcc_except_table
.LLSDA7867:
	.byte	0xff
	.byte	0xff
	.byte	0x1
	.uleb128 .LLSDACSE7867-.LLSDACSB7867
.LLSDACSB7867:
	.uleb128 .LEHB26-.LFB7867
	.uleb128 .LEHE26-.LEHB26
	.uleb128 0
	.uleb128 0
	.uleb128 .LEHB27-.LFB7867
	.uleb128 .LEHE27-.LEHB27
	.uleb128 .L1379-.LFB7867
	.uleb128 0
	.uleb128 .LEHB28-.LFB7867
	.uleb128 .LEHE28-.LEHB28
	.uleb128 0
	.uleb128 0
.LLSDACSE7867:
	.text
	.cfi_endproc
	.section	.text.unlikely
	.cfi_startproc
	.cfi_personality 0x9b,DW.ref.__gxx_personality_v0
	.cfi_lsda 0x1b,.LLSDAC7867
	.type	_ZN8asiodnp311LinkSession15OnWriteCompleteERKSt10error_codem.cold, @function
_ZN8asiodnp311LinkSession15OnWriteCompleteERKSt10error_codem.cold:
.LFSB7867:
.L1376:
	.cfi_def_cfa_offset 112
	.cfi_offset 3, -40
	.cfi_offset 6, -32
	.cfi_offset 12, -24
	.cfi_offset 13, -16
	movq	16(%rsp), %rdi
	leaq	32(%rsp), %rax
	cmpq	%rax, %rdi
	je	.L1377
	call	_ZdlPv@PLT
.L1377:
	movq	%rbp, %rdi
.LEHB29:
	call	_Unwind_Resume@PLT
.LEHE29:
	.cfi_endproc
.LFE7867:
	.section	.gcc_except_table
.LLSDAC7867:
	.byte	0xff
	.byte	0xff
	.byte	0x1
	.uleb128 .LLSDACSEC7867-.LLSDACSBC7867
.LLSDACSBC7867:
	.uleb128 .LEHB29-.LCOLDB34
	.uleb128 .LEHE29-.LEHB29
	.uleb128 0
	.uleb128 0
.LLSDACSEC7867:
	.section	.text.unlikely
	.text
	.size	_ZN8asiodnp311LinkSession15OnWriteCompleteERKSt10error_codem, .-_ZN8asiodnp311LinkSession15OnWriteCompleteERKSt10error_codem
	.section	.text.unlikely
	.size	_ZN8asiodnp311LinkSession15OnWriteCompleteERKSt10error_codem.cold, .-_ZN8asiodnp311LinkSession15OnWriteCompleteERKSt10error_codem.cold
.LCOLDE34:
	.text
.LHOTE34:
	.section	.rodata.str1.8
	.align 8
.LC35:
	.string	"No master created. Closing socket."
	.align 8
.LC36:
	.string	"/home/kimchaer/Desktop/OpenPLC_v3/utils/dnp3_src/cpp/libs/src/asiodnp3/LinkSession.cpp(145)"
	.text
	.align 2
	.p2align 4
	.globl	_ZN8asiodnp311LinkSession7OnFrameERKN8opendnp316LinkHeaderFieldsERKN7openpal6RSliceE
	.type	_ZN8asiodnp311LinkSession7OnFrameERKN8opendnp316LinkHeaderFieldsERKN7openpal6RSliceE, @function
_ZN8asiodnp311LinkSession7OnFrameERKN8opendnp316LinkHeaderFieldsERKN7openpal6RSliceE:
.LFB7869:
	.cfi_startproc
	endbr64
	pushq	%r13
	.cfi_def_cfa_offset 16
	.cfi_offset 13, -16
	movq	%rdx, %r13
	pushq	%r12
	.cfi_def_cfa_offset 24
	.cfi_offset 12, -24
	movq	%rsi, %r12
	pushq	%rbp
	.cfi_def_cfa_offset 32
	.cfi_offset 6, -32
	movq	%rdi, %rbp
	subq	$16, %rsp
	.cfi_def_cfa_offset 48
	movq	592(%rdi), %rdi
	movq	%fs:40, %rax
	movq	%rax, 8(%rsp)
	xorl	%eax, %eax
	testq	%rdi, %rdi
	je	.L1386
.L1395:
	movq	%r13, %rdx
	movq	%r12, %rsi
	call	_ZN8asiodnp318MasterSessionStack7OnFrameERKN8opendnp316LinkHeaderFieldsERKN7openpal6RSliceE@PLT
.L1387:
	movq	8(%rsp), %rax
	xorq	%fs:40, %rax
	jne	.L1396
	addq	$16, %rsp
	.cfi_remember_state
	.cfi_def_cfa_offset 32
	movl	$1, %eax
	popq	%rbp
	.cfi_def_cfa_offset 24
	popq	%r12
	.cfi_def_cfa_offset 16
	popq	%r13
	.cfi_def_cfa_offset 8
	ret
	.p2align 4,,10
	.p2align 3
.L1386:
	.cfi_restore_state
	leaq	568(%rbp), %rdi
	call	_ZN7openpal8TimerRef6CancelEv@PLT
	movq	120(%rbp), %rdi
	movq	96(%rbp), %rsi
	movq	%r12, %rdx
	leaq	48(%rbp), %rcx
	movq	(%rdi), %rax
	call	*40(%rax)
	movq	592(%rbp), %rdi
	testq	%rdi, %rdi
	je	.L1388
	call	_ZN8asiodnp318MasterSessionStack14OnLowerLayerUpEv@PLT
	movq	592(%rbp), %rdi
	jmp	.L1395
	.p2align 4,,10
	.p2align 3
.L1388:
	leaq	64(%rbp), %r12
	leaq	4(%rsp), %r13
	movl	$4, 4(%rsp)
	movq	%r13, %rsi
	movq	%r12, %rdi
	call	_ZNK7openpal6Logger9IsEnabledERKNS_10LogFiltersE@PLT
	testb	%al, %al
	jne	.L1397
.L1389:
	movq	%rbp, %rdi
	call	_ZN8asiodnp311LinkSession12ShutdownImplEv@PLT
	jmp	.L1387
	.p2align 4,,10
	.p2align 3
.L1397:
	leaq	.LC35(%rip), %rcx
	leaq	.LC36(%rip), %rdx
	movq	%r13, %rsi
	movq	%r12, %rdi
	movl	$4, 4(%rsp)
	call	_ZN7openpal6Logger3LogERKNS_10LogFiltersEPKcS5_@PLT
	jmp	.L1389
.L1396:
	call	__stack_chk_fail@PLT
	.cfi_endproc
.LFE7869:
	.size	_ZN8asiodnp311LinkSession7OnFrameERKN8opendnp316LinkHeaderFieldsERKN7openpal6RSliceE, .-_ZN8asiodnp311LinkSession7OnFrameERKN8opendnp316LinkHeaderFieldsERKN7openpal6RSliceE
	.p2align 4
	.globl	_ZThn16_N8asiodnp311LinkSession7OnFrameERKN8opendnp316LinkHeaderFieldsERKN7openpal6RSliceE
	.type	_ZThn16_N8asiodnp311LinkSession7OnFrameERKN8opendnp316LinkHeaderFieldsERKN7openpal6RSliceE, @function
_ZThn16_N8asiodnp311LinkSession7OnFrameERKN8opendnp316LinkHeaderFieldsERKN7openpal6RSliceE:
.LFB10577:
	.cfi_startproc
	endbr64
	pushq	%r12
	.cfi_def_cfa_offset 16
	.cfi_offset 12, -16
	movq	%rdx, %r12
	pushq	%rbp
	.cfi_def_cfa_offset 24
	.cfi_offset 6, -24
	movq	%rsi, %rbp
	pushq	%rbx
	.cfi_def_cfa_offset 32
	.cfi_offset 3, -32
	movq	%rdi, %rbx
	subq	$16, %rsp
	.cfi_def_cfa_offset 48
	movq	576(%rdi), %rdi
	movq	%fs:40, %rax
	movq	%rax, 8(%rsp)
	xorl	%eax, %eax
	testq	%rdi, %rdi
	je	.L1399
.L1408:
	movq	%r12, %rdx
	movq	%rbp, %rsi
	call	_ZN8asiodnp318MasterSessionStack7OnFrameERKN8opendnp316LinkHeaderFieldsERKN7openpal6RSliceE@PLT
.L1400:
	movq	8(%rsp), %rax
	xorq	%fs:40, %rax
	jne	.L1409
	addq	$16, %rsp
	.cfi_remember_state
	.cfi_def_cfa_offset 32
	movl	$1, %eax
	popq	%rbx
	.cfi_def_cfa_offset 24
	popq	%rbp
	.cfi_def_cfa_offset 16
	popq	%r12
	.cfi_def_cfa_offset 8
	ret
	.p2align 4,,10
	.p2align 3
.L1399:
	.cfi_restore_state
	leaq	552(%rbx), %rdi
	call	_ZN7openpal8TimerRef6CancelEv@PLT
	movq	104(%rbx), %rdi
	movq	80(%rbx), %rsi
	movq	%rbp, %rdx
	leaq	32(%rbx), %rcx
	movq	(%rdi), %rax
	call	*40(%rax)
	movq	576(%rbx), %rdi
	testq	%rdi, %rdi
	je	.L1401
	call	_ZN8asiodnp318MasterSessionStack14OnLowerLayerUpEv@PLT
	movq	576(%rbx), %rdi
	jmp	.L1408
	.p2align 4,,10
	.p2align 3
.L1401:
	leaq	48(%rbx), %rbp
	leaq	4(%rsp), %r12
	movl	$4, 4(%rsp)
	movq	%r12, %rsi
	movq	%rbp, %rdi
	call	_ZNK7openpal6Logger9IsEnabledERKNS_10LogFiltersE@PLT
	testb	%al, %al
	jne	.L1410
.L1402:
	leaq	-16(%rbx), %rdi
	call	_ZN8asiodnp311LinkSession12ShutdownImplEv@PLT
	jmp	.L1400
	.p2align 4,,10
	.p2align 3
.L1410:
	leaq	.LC35(%rip), %rcx
	leaq	.LC36(%rip), %rdx
	movq	%r12, %rsi
	movq	%rbp, %rdi
	movl	$4, 4(%rsp)
	call	_ZN7openpal6Logger3LogERKNS_10LogFiltersEPKcS5_@PLT
	jmp	.L1402
.L1409:
	call	__stack_chk_fail@PLT
	.cfi_endproc
.LFE10577:
	.size	_ZThn16_N8asiodnp311LinkSession7OnFrameERKN8opendnp316LinkHeaderFieldsERKN7openpal6RSliceE, .-_ZThn16_N8asiodnp311LinkSession7OnFrameERKN8opendnp316LinkHeaderFieldsERKN7openpal6RSliceE
	.section	.text.unlikely
.LCOLDB37:
	.text
.LHOTB37:
	.p2align 4
	.globl	_ZThn8_N8asiodnp311LinkSession15OnWriteCompleteERKSt10error_codem
	.type	_ZThn8_N8asiodnp311LinkSession15OnWriteCompleteERKSt10error_codem, @function
_ZThn8_N8asiodnp311LinkSession15OnWriteCompleteERKSt10error_codem:
.LFB10578:
	.cfi_startproc
	.cfi_personality 0x9b,DW.ref.__gxx_personality_v0
	.cfi_lsda 0x1b,.LLSDA10578
	endbr64
	pushq	%r13
	.cfi_def_cfa_offset 16
	.cfi_offset 13, -16
	pushq	%r12
	.cfi_def_cfa_offset 24
	.cfi_offset 12, -24
	pushq	%rbp
	.cfi_def_cfa_offset 32
	.cfi_offset 6, -32
	pushq	%rbx
	.cfi_def_cfa_offset 40
	.cfi_offset 3, -40
	movq	%rdi, %rbx
	subq	$72, %rsp
	.cfi_def_cfa_offset 112
	movq	%fs:40, %rax
	movq	%rax, 56(%rsp)
	xorl	%eax, %eax
	movl	(%rsi), %eax
	testl	%eax, %eax
	je	.L1412
	leaq	56(%rdi), %r12
	leaq	12(%rsp), %r13
	movq	%rsi, %rbp
	movl	$4, 12(%rsp)
	movq	%r13, %rsi
	movq	%r12, %rdi
.LEHB30:
	call	_ZNK7openpal6Logger9IsEnabledERKNS_10LogFiltersE@PLT
	testb	%al, %al
	je	.L1413
	movq	8(%rbp), %rsi
	movl	0(%rbp), %edx
	leaq	16(%rsp), %rdi
	movq	(%rsi), %rax
	call	*32(%rax)
.LEHE30:
	movq	16(%rsp), %rcx
	movq	%r13, %rsi
	movq	%r12, %rdi
	leaq	.LC33(%rip), %rdx
	movl	$4, 12(%rsp)
.LEHB31:
	call	_ZN7openpal6Logger3LogERKNS_10LogFiltersEPKcS5_@PLT
.LEHE31:
	movq	16(%rsp), %rdi
	leaq	32(%rsp), %rax
	cmpq	%rax, %rdi
	je	.L1413
	call	_ZdlPv@PLT
.L1413:
	leaq	-8(%rbx), %rdi
.LEHB32:
	call	_ZN8asiodnp311LinkSession12ShutdownImplEv@PLT
.L1411:
	movq	56(%rsp), %rax
	xorq	%fs:40, %rax
	jne	.L1424
	addq	$72, %rsp
	.cfi_remember_state
	.cfi_def_cfa_offset 40
	popq	%rbx
	.cfi_def_cfa_offset 32
	popq	%rbp
	.cfi_def_cfa_offset 24
	popq	%r12
	.cfi_def_cfa_offset 16
	popq	%r13
	.cfi_def_cfa_offset 8
	ret
	.p2align 4,,10
	.p2align 3
.L1412:
	.cfi_restore_state
	movq	584(%rdi), %rdi
	movl	$1, %esi
	call	_ZN8asiodnp318MasterSessionStack18OnTransmitCompleteEb@PLT
.LEHE32:
	jmp	.L1411
.L1424:
	call	__stack_chk_fail@PLT
.L1419:
	endbr64
	movq	%rax, %rbp
	jmp	.L1416
	.section	.gcc_except_table
.LLSDA10578:
	.byte	0xff
	.byte	0xff
	.byte	0x1
	.uleb128 .LLSDACSE10578-.LLSDACSB10578
.LLSDACSB10578:
	.uleb128 .LEHB30-.LFB10578
	.uleb128 .LEHE30-.LEHB30
	.uleb128 0
	.uleb128 0
	.uleb128 .LEHB31-.LFB10578
	.uleb128 .LEHE31-.LEHB31
	.uleb128 .L1419-.LFB10578
	.uleb128 0
	.uleb128 .LEHB32-.LFB10578
	.uleb128 .LEHE32-.LEHB32
	.uleb128 0
	.uleb128 0
.LLSDACSE10578:
	.text
	.cfi_endproc
	.section	.text.unlikely
	.cfi_startproc
	.cfi_personality 0x9b,DW.ref.__gxx_personality_v0
	.cfi_lsda 0x1b,.LLSDAC10578
	.type	_ZThn8_N8asiodnp311LinkSession15OnWriteCompleteERKSt10error_codem.cold, @function
_ZThn8_N8asiodnp311LinkSession15OnWriteCompleteERKSt10error_codem.cold:
.LFSB10578:
.L1416:
	.cfi_def_cfa_offset 112
	.cfi_offset 3, -40
	.cfi_offset 6, -32
	.cfi_offset 12, -24
	.cfi_offset 13, -16
	movq	16(%rsp), %rdi
	leaq	32(%rsp), %rax
	cmpq	%rax, %rdi
	je	.L1417
	call	_ZdlPv@PLT
.L1417:
	movq	%rbp, %rdi
.LEHB33:
	call	_Unwind_Resume@PLT
.LEHE33:
	.cfi_endproc
.LFE10578:
	.section	.gcc_except_table
.LLSDAC10578:
	.byte	0xff
	.byte	0xff
	.byte	0x1
	.uleb128 .LLSDACSEC10578-.LLSDACSBC10578
.LLSDACSBC10578:
	.uleb128 .LEHB33-.LCOLDB37
	.uleb128 .LEHE33-.LEHB33
	.uleb128 0
	.uleb128 0
.LLSDACSEC10578:
	.section	.text.unlikely
	.text
	.size	_ZThn8_N8asiodnp311LinkSession15OnWriteCompleteERKSt10error_codem, .-_ZThn8_N8asiodnp311LinkSession15OnWriteCompleteERKSt10error_codem
	.section	.text.unlikely
	.size	_ZThn8_N8asiodnp311LinkSession15OnWriteCompleteERKSt10error_codem.cold, .-_ZThn8_N8asiodnp311LinkSession15OnWriteCompleteERKSt10error_codem.cold
.LCOLDE37:
	.text
.LHOTE37:
	.section	.text.unlikely
.LCOLDB38:
	.text
.LHOTB38:
	.p2align 4
	.globl	_ZThn8_N8asiodnp311LinkSession14OnReadCompleteERKSt10error_codem
	.type	_ZThn8_N8asiodnp311LinkSession14OnReadCompleteERKSt10error_codem, @function
_ZThn8_N8asiodnp311LinkSession14OnReadCompleteERKSt10error_codem:
.LFB10579:
	.cfi_startproc
	.cfi_personality 0x9b,DW.ref.__gxx_personality_v0
	.cfi_lsda 0x1b,.LLSDA10579
	endbr64
	pushq	%r13
	.cfi_def_cfa_offset 16
	.cfi_offset 13, -16
	pushq	%r12
	.cfi_def_cfa_offset 24
	.cfi_offset 12, -24
	leaq	-8(%rdi), %r12
	pushq	%rbp
	.cfi_def_cfa_offset 32
	.cfi_offset 6, -32
	pushq	%rbx
	.cfi_def_cfa_offset 40
	.cfi_offset 3, -40
	movq	%rsi, %rbx
	subq	$72, %rsp
	.cfi_def_cfa_offset 112
	movq	%fs:40, %rax
	movq	%rax, 56(%rsp)
	xorl	%eax, %eax
	movl	(%rsi), %eax
	testl	%eax, %eax
	je	.L1426
	leaq	56(%rdi), %rbp
	leaq	12(%rsp), %r13
	movl	$4, 12(%rsp)
	movq	%r13, %rsi
	movq	%rbp, %rdi
.LEHB34:
	call	_ZNK7openpal6Logger9IsEnabledERKNS_10LogFiltersE@PLT
	testb	%al, %al
	je	.L1427
	movq	8(%rbx), %rsi
	movl	(%rbx), %edx
	leaq	16(%rsp), %rdi
	movq	(%rsi), %rax
	call	*32(%rax)
.LEHE34:
	movq	16(%rsp), %rcx
	movq	%r13, %rsi
	movq	%rbp, %rdi
	leaq	.LC31(%rip), %rdx
	movl	$4, 12(%rsp)
.LEHB35:
	call	_ZN7openpal6Logger3LogERKNS_10LogFiltersEPKcS5_@PLT
.LEHE35:
	movq	16(%rsp), %rdi
	leaq	32(%rsp), %rax
	cmpq	%rax, %rdi
	je	.L1427
	call	_ZdlPv@PLT
.L1427:
	movq	%r12, %rdi
.LEHB36:
	call	_ZN8asiodnp311LinkSession12ShutdownImplEv@PLT
.L1425:
	movq	56(%rsp), %rax
	xorq	%fs:40, %rax
	jne	.L1438
	addq	$72, %rsp
	.cfi_remember_state
	.cfi_def_cfa_offset 40
	popq	%rbx
	.cfi_def_cfa_offset 32
	popq	%rbp
	.cfi_def_cfa_offset 24
	popq	%r12
	.cfi_def_cfa_offset 16
	popq	%r13
	.cfi_def_cfa_offset 8
	ret
	.p2align 4,,10
	.p2align 3
.L1426:
	.cfi_restore_state
	movq	%rdx, %rsi
	leaq	8(%rdi), %rdx
	addq	$144, %rdi
	call	_ZN8opendnp315LinkLayerParser6OnReadEjRNS_10IFrameSinkE@PLT
	movq	%r12, %rdi
	call	_ZN8asiodnp311LinkSession12BeginReceiveEv@PLT
.LEHE36:
	jmp	.L1425
.L1438:
	call	__stack_chk_fail@PLT
.L1433:
	endbr64
	movq	%rax, %rbp
	jmp	.L1430
	.section	.gcc_except_table
.LLSDA10579:
	.byte	0xff
	.byte	0xff
	.byte	0x1
	.uleb128 .LLSDACSE10579-.LLSDACSB10579
.LLSDACSB10579:
	.uleb128 .LEHB34-.LFB10579
	.uleb128 .LEHE34-.LEHB34
	.uleb128 0
	.uleb128 0
	.uleb128 .LEHB35-.LFB10579
	.uleb128 .LEHE35-.LEHB35
	.uleb128 .L1433-.LFB10579
	.uleb128 0
	.uleb128 .LEHB36-.LFB10579
	.uleb128 .LEHE36-.LEHB36
	.uleb128 0
	.uleb128 0
.LLSDACSE10579:
	.text
	.cfi_endproc
	.section	.text.unlikely
	.cfi_startproc
	.cfi_personality 0x9b,DW.ref.__gxx_personality_v0
	.cfi_lsda 0x1b,.LLSDAC10579
	.type	_ZThn8_N8asiodnp311LinkSession14OnReadCompleteERKSt10error_codem.cold, @function
_ZThn8_N8asiodnp311LinkSession14OnReadCompleteERKSt10error_codem.cold:
.LFSB10579:
.L1430:
	.cfi_def_cfa_offset 112
	.cfi_offset 3, -40
	.cfi_offset 6, -32
	.cfi_offset 12, -24
	.cfi_offset 13, -16
	movq	16(%rsp), %rdi
	leaq	32(%rsp), %rax
	cmpq	%rax, %rdi
	je	.L1431
	call	_ZdlPv@PLT
.L1431:
	movq	%rbp, %rdi
.LEHB37:
	call	_Unwind_Resume@PLT
.LEHE37:
	.cfi_endproc
.LFE10579:
	.section	.gcc_except_table
.LLSDAC10579:
	.byte	0xff
	.byte	0xff
	.byte	0x1
	.uleb128 .LLSDACSEC10579-.LLSDACSBC10579
.LLSDACSBC10579:
	.uleb128 .LEHB37-.LCOLDB38
	.uleb128 .LEHE37-.LEHB37
	.uleb128 0
	.uleb128 0
.LLSDACSEC10579:
	.section	.text.unlikely
	.text
	.size	_ZThn8_N8asiodnp311LinkSession14OnReadCompleteERKSt10error_codem, .-_ZThn8_N8asiodnp311LinkSession14OnReadCompleteERKSt10error_codem
	.section	.text.unlikely
	.size	_ZThn8_N8asiodnp311LinkSession14OnReadCompleteERKSt10error_codem.cold, .-_ZThn8_N8asiodnp311LinkSession14OnReadCompleteERKSt10error_codem.cold
.LCOLDE38:
	.text
.LHOTE38:
	.section	.text._ZN4asio6detail18completion_handlerIZN7asiopal13IAsyncChannel16CheckForShutdownESt10shared_ptrIS3_EEUlvE_E11do_completeEPNS0_15task_io_serviceEPNS0_25task_io_service_operationERKSt10error_codem,"axG",@progbits,_ZN4asio6detail18completion_handlerIZN7asiopal13IAsyncChannel16CheckForShutdownESt10shared_ptrIS3_EEUlvE_E11do_completeEPNS0_15task_io_serviceEPNS0_25task_io_service_operationERKSt10error_codem,comdat
	.p2align 4
	.weak	_ZN4asio6detail18completion_handlerIZN7asiopal13IAsyncChannel16CheckForShutdownESt10shared_ptrIS3_EEUlvE_E11do_completeEPNS0_15task_io_serviceEPNS0_25task_io_service_operationERKSt10error_codem
	.type	_ZN4asio6detail18completion_handlerIZN7asiopal13IAsyncChannel16CheckForShutdownESt10shared_ptrIS3_EEUlvE_E11do_completeEPNS0_15task_io_serviceEPNS0_25task_io_service_operationERKSt10error_codem, @function
_ZN4asio6detail18completion_handlerIZN7asiopal13IAsyncChannel16CheckForShutdownESt10shared_ptrIS3_EEUlvE_E11do_completeEPNS0_15task_io_serviceEPNS0_25task_io_service_operationERKSt10error_codem:
.LFB9686:
	.cfi_startproc
	.cfi_personality 0x9b,DW.ref.__gxx_personality_v0
	.cfi_lsda 0x1b,.LLSDA9686
	endbr64
	pushq	%r15
	.cfi_def_cfa_offset 16
	.cfi_offset 15, -16
	pushq	%r14
	.cfi_def_cfa_offset 24
	.cfi_offset 14, -24
	pushq	%r13
	.cfi_def_cfa_offset 32
	.cfi_offset 13, -32
	pushq	%r12
	.cfi_def_cfa_offset 40
	.cfi_offset 12, -40
	movq	%rsi, %r12
	pushq	%rbp
	.cfi_def_cfa_offset 48
	.cfi_offset 6, -48
	pushq	%rbx
	.cfi_def_cfa_offset 56
	.cfi_offset 3, -56
	movq	%rdi, %rbx
	subq	$56, %rsp
	.cfi_def_cfa_offset 112
	movq	24(%rsi), %r13
	movq	32(%rsi), %rbp
	movq	%fs:40, %rax
	movq	%rax, 40(%rsp)
	xorl	%eax, %eax
	data16	leaq	_ZN4asio6detail15keyword_tss_ptrINS0_10call_stackINS0_15task_io_serviceENS0_27task_io_service_thread_infoEE7contextEE6value_E@tlsgd(%rip), %rdi
	.value	0x6666
	rex64
	call	__tls_get_addr@PLT
	movq	(%rax), %rax
	testq	%rax, %rax
	je	.L1440
	movq	8(%rax), %rax
	testq	%rax, %rax
	je	.L1440
	cmpq	$0, (%rax)
	je	.L1560
.L1440:
	movq	%r12, %rdi
	call	_ZdlPv@PLT
.L1441:
	testq	%rbx, %rbx
	je	.L1442
	testq	%rbp, %rbp
	je	.L1443
	movq	_ZL28__gthrw___pthread_key_createPjPFvPvE@GOTPCREL(%rip), %r12
	leaq	8(%rbp), %rax
	testq	%r12, %r12
	je	.L1444
	lock addl	$1, (%rax)
.L1445:
	cmpb	$0, 57(%r13)
	jne	.L1516
	cmpb	$0, 58(%r13)
	je	.L1518
.L1516:
	testq	%r12, %r12
	je	.L1561
	lock addl	$1, (%rax)
.L1446:
	movq	%r13, %xmm0
	movq	%rbp, %xmm1
	movq	24(%r13), %rbx
	punpcklqdq	%xmm1, %xmm0
	movaps	%xmm0, 16(%rsp)
	testq	%r12, %r12
	je	.L1562
	lock addl	$1, (%rax)
	movq	24(%rsp), %r15
	jmp	.L1447
	.p2align 4,,10
	.p2align 3
.L1443:
	cmpb	$0, 57(%r13)
	jne	.L1512
	cmpb	$0, 58(%r13)
	je	.L1518
.L1512:
	movq	%r13, %xmm0
	movq	24(%r13), %rbx
	xorl	%r15d, %r15d
	movaps	%xmm0, 16(%rsp)
.L1447:
	leaq	16(%rsp), %rdi
	xorl	%eax, %eax
	movq	40(%rbx), %r14
	call	_ZN4asio28asio_handler_is_continuationEz@PLT
	movl	%eax, %r13d
	data16	leaq	_ZN4asio6detail15keyword_tss_ptrINS0_10call_stackINS0_15task_io_serviceENS0_27task_io_service_thread_infoEE7contextEE6value_E@tlsgd(%rip), %rdi
	.value	0x6666
	rex64
	call	__tls_get_addr@PLT
	movq	(%rax), %rax
	testq	%rax, %rax
	je	.L1448
	movq	8(%rax), %rax
	testq	%rax, %rax
	je	.L1448
	movq	(%rax), %r12
	testq	%r12, %r12
	je	.L1448
	movq	$0, (%rax)
	movzbl	(%r12), %eax
	cmpb	$39, %al
	jbe	.L1449
	movb	%al, 40(%r12)
.L1450:
	movq	_ZN4asio6detail18completion_handlerIZN7asiopal13IAsyncChannel16CheckForShutdownESt10shared_ptrIS3_EEUlvE_E11do_completeEPNS0_15task_io_serviceEPNS0_25task_io_service_operationERKSt10error_codem@GOTPCREL(%rip), %rax
	movq	%r15, 32(%r12)
	pxor	%xmm0, %xmm0
	movq	$0, (%r12)
	movq	%rax, 8(%r12)
	movq	16(%rsp), %rax
	movl	$0, 16(%r12)
	movq	%rax, 24(%r12)
	movq	48(%rbx), %rax
	movaps	%xmm0, 16(%rsp)
	leaq	24(%rax), %rdi
	call	pthread_mutex_lock@PLT
	movq	48(%rbx), %rdi
	cmpb	$0, 64(%rdi)
	je	.L1451
	cmpq	$0, 80(%rdi)
	movq	$0, (%r12)
	je	.L1452
	movq	80(%rdi), %rax
	movq	%r12, (%rax)
	movq	%r12, 80(%rdi)
.L1453:
	addq	$24, %rdi
	call	pthread_mutex_unlock@PLT
.L1469:
	testq	%rbp, %rbp
	je	.L1493
	movq	_ZL28__gthrw___pthread_key_createPjPFvPvE@GOTPCREL(%rip), %r12
	testq	%r12, %r12
	je	.L1482
	movl	$-1, %eax
	lock xaddl	%eax, 8(%rbp)
.L1483:
	cmpl	$1, %eax
	je	.L1563
.L1481:
	testq	%rbp, %rbp
	je	.L1493
	movq	_ZL28__gthrw___pthread_key_createPjPFvPvE@GOTPCREL(%rip), %r12
	testq	%r12, %r12
	je	.L1496
	movl	$-1, %eax
	lock xaddl	%eax, 8(%rbp)
.L1497:
	cmpl	$1, %eax
	je	.L1564
.L1493:
	sfence
.L1442:
	testq	%rbp, %rbp
	je	.L1439
	movq	_ZL28__gthrw___pthread_key_createPjPFvPvE@GOTPCREL(%rip), %r12
	testq	%r12, %r12
	je	.L1505
	movl	$-1, %eax
	lock xaddl	%eax, 8(%rbp)
	cmpl	$1, %eax
	je	.L1565
	.p2align 4,,10
	.p2align 3
.L1439:
	movq	40(%rsp), %rax
	xorq	%fs:40, %rax
	jne	.L1566
	addq	$56, %rsp
	.cfi_remember_state
	.cfi_def_cfa_offset 56
	popq	%rbx
	.cfi_def_cfa_offset 48
	popq	%rbp
	.cfi_def_cfa_offset 40
	popq	%r12
	.cfi_def_cfa_offset 32
	popq	%r13
	.cfi_def_cfa_offset 24
	popq	%r14
	.cfi_def_cfa_offset 16
	popq	%r15
	.cfi_def_cfa_offset 8
	ret
	.p2align 4,,10
	.p2align 3
.L1505:
	.cfi_restore_state
	movl	8(%rbp), %eax
	leal	-1(%rax), %edx
	movl	%edx, 8(%rbp)
	cmpl	$1, %eax
	jne	.L1439
.L1565:
	movq	0(%rbp), %rax
	movq	%rbp, %rdi
	call	*16(%rax)
	testq	%r12, %r12
	je	.L1508
	movl	$-1, %eax
	lock xaddl	%eax, 12(%rbp)
.L1509:
	cmpl	$1, %eax
	jne	.L1439
	movq	0(%rbp), %rax
	movq	%rbp, %rdi
	call	*24(%rax)
	jmp	.L1439
	.p2align 4,,10
	.p2align 3
.L1518:
	movq	48(%r13), %r14
	pxor	%xmm0, %xmm0
	movups	%xmm0, 40(%r13)
	testq	%r14, %r14
	je	.L1481
	movq	_ZL28__gthrw___pthread_key_createPjPFvPvE@GOTPCREL(%rip), %r12
	testq	%r12, %r12
	je	.L1487
	movl	$-1, %eax
	lock xaddl	%eax, 8(%r14)
.L1488:
	cmpl	$1, %eax
	jne	.L1481
	movq	(%r14), %rax
	movq	%r14, %rdi
	call	*16(%rax)
	testq	%r12, %r12
	je	.L1490
	movl	$-1, %eax
	lock xaddl	%eax, 12(%r14)
.L1491:
	cmpl	$1, %eax
	jne	.L1481
	movq	(%r14), %rax
	movq	%r14, %rdi
	call	*24(%rax)
	jmp	.L1481
	.p2align 4,,10
	.p2align 3
.L1561:
	addl	$1, 8(%rbp)
	jmp	.L1446
	.p2align 4,,10
	.p2align 3
.L1560:
	movzbl	40(%r12), %edx
	movb	%dl, (%r12)
	movq	%r12, (%rax)
	jmp	.L1441
	.p2align 4,,10
	.p2align 3
.L1449:
	movq	%r12, %rdi
	call	_ZdlPv@PLT
.L1448:
	movl	$41, %edi
.LEHB38:
	call	_Znwm@PLT
.LEHE38:
	movb	$40, 40(%rax)
	movq	%rax, %r12
	jmp	.L1450
	.p2align 4,,10
	.p2align 3
.L1444:
	addl	$1, 8(%rbp)
	jmp	.L1445
	.p2align 4,,10
	.p2align 3
.L1496:
	movl	8(%rbp), %eax
	leal	-1(%rax), %edx
	movl	%edx, 8(%rbp)
	jmp	.L1497
	.p2align 4,,10
	.p2align 3
.L1451:
	movb	$1, 64(%rdi)
	addq	$24, %rdi
	call	pthread_mutex_unlock@PLT
	movq	48(%rbx), %r15
	movq	$0, (%r12)
	cmpq	$0, 96(%r15)
	je	.L1455
	movq	96(%r15), %rax
	movq	%r12, (%rax)
	movq	%r12, 96(%r15)
.L1456:
	movq	40(%r14), %rbx
	cmpb	$0, 40(%rbx)
	jne	.L1521
	testb	%r13b, %r13b
	je	.L1457
.L1521:
	data16	leaq	_ZN4asio6detail15keyword_tss_ptrINS0_10call_stackINS0_15task_io_serviceENS0_27task_io_service_thread_infoEE7contextEE6value_E@tlsgd(%rip), %rdi
	.value	0x6666
	rex64
	call	__tls_get_addr@PLT
	movq	(%rax), %rax
	testq	%rax, %rax
	jne	.L1461
	jmp	.L1457
	.p2align 4,,10
	.p2align 3
.L1459:
	movq	16(%rax), %rax
	testq	%rax, %rax
	je	.L1457
.L1461:
	cmpq	(%rax), %rbx
	jne	.L1459
	movq	8(%rax), %rax
	testq	%rax, %rax
	je	.L1457
	addq	$1, 24(%rax)
	cmpq	$0, 16(%rax)
	movq	$0, (%r15)
	je	.L1462
	movq	16(%rax), %rdx
	movq	%r15, (%rdx)
	movq	%r15, 16(%rax)
	jmp	.L1469
	.p2align 4,,10
	.p2align 3
.L1457:
	lock addq	$1, 184(%rbx)
	leaq	48(%rbx), %r12
	movq	%r12, %rdi
	call	pthread_mutex_lock@PLT
	cmpq	$0, 200(%rbx)
	movq	$0, (%r15)
	je	.L1463
	movq	200(%rbx), %rax
	movq	%r15, (%rax)
	movq	%r15, 200(%rbx)
.L1464:
	movq	136(%rbx), %rax
	orq	$1, %rax
	movq	%rax, 136(%rbx)
	cmpq	$1, %rax
	je	.L1465
	movq	%r12, %rdi
	call	pthread_mutex_unlock@PLT
	leaq	88(%rbx), %rdi
	call	pthread_cond_signal@PLT
.L1466:
	movq	24(%rsp), %r13
	testq	%r13, %r13
	je	.L1469
	movq	_ZL28__gthrw___pthread_key_createPjPFvPvE@GOTPCREL(%rip), %r12
	testq	%r12, %r12
	je	.L1470
	movl	$-1, %eax
	lock xaddl	%eax, 8(%r13)
.L1471:
	cmpl	$1, %eax
	jne	.L1469
	movq	0(%r13), %rax
	movq	%r13, %rdi
	call	*16(%rax)
	testq	%r12, %r12
	je	.L1472
	movl	$-1, %eax
	lock xaddl	%eax, 12(%r13)
.L1473:
	cmpl	$1, %eax
	jne	.L1469
	movq	0(%r13), %rax
	movq	%r13, %rdi
	call	*24(%rax)
	jmp	.L1469
	.p2align 4,,10
	.p2align 3
.L1562:
	addl	$1, 8(%rbp)
	movq	%rbp, %r15
	jmp	.L1447
	.p2align 4,,10
	.p2align 3
.L1564:
	movq	0(%rbp), %rax
	movq	%rbp, %rdi
	call	*16(%rax)
	testq	%r12, %r12
	je	.L1499
	movl	$-1, %eax
	lock xaddl	%eax, 12(%rbp)
.L1500:
	cmpl	$1, %eax
	jne	.L1493
	movq	0(%rbp), %rax
	movq	%rbp, %rdi
	call	*24(%rax)
	jmp	.L1493
	.p2align 4,,10
	.p2align 3
.L1482:
	movl	8(%rbp), %eax
	leal	-1(%rax), %edx
	movl	%edx, 8(%rbp)
	jmp	.L1483
	.p2align 4,,10
	.p2align 3
.L1508:
	movl	12(%rbp), %eax
	leal	-1(%rax), %edx
	movl	%edx, 12(%rbp)
	jmp	.L1509
	.p2align 4,,10
	.p2align 3
.L1452:
	movq	%r12, %xmm0
	punpcklqdq	%xmm0, %xmm0
	movups	%xmm0, 72(%rdi)
	jmp	.L1453
	.p2align 4,,10
	.p2align 3
.L1563:
	movq	0(%rbp), %rax
	movq	%rbp, %rdi
	call	*16(%rax)
	testq	%r12, %r12
	je	.L1485
	movl	$-1, %eax
	lock xaddl	%eax, 12(%rbp)
.L1486:
	cmpl	$1, %eax
	jne	.L1481
	movq	0(%rbp), %rax
	movq	%rbp, %rdi
	call	*24(%rax)
	jmp	.L1481
	.p2align 4,,10
	.p2align 3
.L1485:
	movl	12(%rbp), %eax
	leal	-1(%rax), %edx
	movl	%edx, 12(%rbp)
	jmp	.L1486
	.p2align 4,,10
	.p2align 3
.L1463:
	movq	%r15, %xmm0
	punpcklqdq	%xmm0, %xmm0
	movups	%xmm0, 192(%rbx)
	jmp	.L1464
	.p2align 4,,10
	.p2align 3
.L1470:
	movl	8(%r13), %eax
	leal	-1(%rax), %edx
	movl	%edx, 8(%r13)
	jmp	.L1471
	.p2align 4,,10
	.p2align 3
.L1465:
	cmpb	$0, 176(%rbx)
	jne	.L1467
	movq	144(%rbx), %rax
	testq	%rax, %rax
	je	.L1467
	leaq	88(%rax), %rdx
	movb	$1, 176(%rbx)
	movl	96(%rax), %edi
	leaq	4(%rsp), %rcx
	movq	%rdx, 8(%rsp)
	movl	88(%rax), %edx
	movl	$3, %esi
	movl	$-2147483639, 4(%rsp)
	call	epoll_ctl@PLT
.L1467:
	movq	%r12, %rdi
	call	pthread_mutex_unlock@PLT
	jmp	.L1466
	.p2align 4,,10
	.p2align 3
.L1499:
	movl	12(%rbp), %eax
	leal	-1(%rax), %edx
	movl	%edx, 12(%rbp)
	jmp	.L1500
	.p2align 4,,10
	.p2align 3
.L1487:
	movl	8(%r14), %eax
	leal	-1(%rax), %edx
	movl	%edx, 8(%r14)
	jmp	.L1488
	.p2align 4,,10
	.p2align 3
.L1455:
	movq	%r12, %xmm0
	punpcklqdq	%xmm0, %xmm0
	movups	%xmm0, 88(%r15)
	jmp	.L1456
	.p2align 4,,10
	.p2align 3
.L1472:
	movl	12(%r13), %eax
	leal	-1(%rax), %edx
	movl	%edx, 12(%r13)
	jmp	.L1473
	.p2align 4,,10
	.p2align 3
.L1490:
	movl	12(%r14), %eax
	leal	-1(%rax), %edx
	movl	%edx, 12(%r14)
	jmp	.L1491
	.p2align 4,,10
	.p2align 3
.L1462:
	movq	%r15, %xmm0
	punpcklqdq	%xmm0, %xmm0
	movups	%xmm0, 8(%rax)
	jmp	.L1469
.L1566:
	call	__stack_chk_fail@PLT
.L1520:
	endbr64
	movq	%rax, %r12
.L1476:
	testq	%r15, %r15
	je	.L1477
	movq	%r15, %rdi
	call	_ZNSt16_Sp_counted_baseILN9__gnu_cxx12_Lock_policyE2EE10_M_releaseEv@PLT
.L1477:
	testq	%rbp, %rbp
	je	.L1495
	movq	%rbp, %rdi
	call	_ZNSt16_Sp_counted_baseILN9__gnu_cxx12_Lock_policyE2EE10_M_releaseEv@PLT
	movq	%rbp, %rdi
	call	_ZNSt16_Sp_counted_baseILN9__gnu_cxx12_Lock_policyE2EE10_M_releaseEv@PLT
.L1495:
	sfence
	testq	%rbp, %rbp
	je	.L1502
	movq	%rbp, %rdi
	call	_ZNSt16_Sp_counted_baseILN9__gnu_cxx12_Lock_policyE2EE10_M_releaseEv@PLT
.L1502:
	movq	%r12, %rdi
.LEHB39:
	call	_Unwind_Resume@PLT
.LEHE39:
	.cfi_endproc
.LFE9686:
	.section	.gcc_except_table
.LLSDA9686:
	.byte	0xff
	.byte	0xff
	.byte	0x1
	.uleb128 .LLSDACSE9686-.LLSDACSB9686
.LLSDACSB9686:
	.uleb128 .LEHB38-.LFB9686
	.uleb128 .LEHE38-.LEHB38
	.uleb128 .L1520-.LFB9686
	.uleb128 0
	.uleb128 .LEHB39-.LFB9686
	.uleb128 .LEHE39-.LEHB39
	.uleb128 0
	.uleb128 0
.LLSDACSE9686:
	.section	.text._ZN4asio6detail18completion_handlerIZN7asiopal13IAsyncChannel16CheckForShutdownESt10shared_ptrIS3_EEUlvE_E11do_completeEPNS0_15task_io_serviceEPNS0_25task_io_service_operationERKSt10error_codem,"axG",@progbits,_ZN4asio6detail18completion_handlerIZN7asiopal13IAsyncChannel16CheckForShutdownESt10shared_ptrIS3_EEUlvE_E11do_completeEPNS0_15task_io_serviceEPNS0_25task_io_service_operationERKSt10error_codem,comdat
	.size	_ZN4asio6detail18completion_handlerIZN7asiopal13IAsyncChannel16CheckForShutdownESt10shared_ptrIS3_EEUlvE_E11do_completeEPNS0_15task_io_serviceEPNS0_25task_io_service_operationERKSt10error_codem, .-_ZN4asio6detail18completion_handlerIZN7asiopal13IAsyncChannel16CheckForShutdownESt10shared_ptrIS3_EEUlvE_E11do_completeEPNS0_15task_io_serviceEPNS0_25task_io_service_operationERKSt10error_codem
	.section	.rodata.str1.8
	.align 8
.LC39:
	.string	"Timed out before receving a frame. Closing socket."
	.align 8
.LC40:
	.string	"/home/kimchaer/Desktop/OpenPLC_v3/utils/dnp3_src/cpp/libs/src/asiodnp3/LinkSession.cpp(187)"
	.section	.text.unlikely
.LCOLDB41:
	.text
.LHOTB41:
	.p2align 4
	.type	_ZNSt17_Function_handlerIFvvEZN7openpal8TimerRef5StartIZN8asiodnp311LinkSession5StartEvEUlvE_EEbRKNS1_12TimeDurationERKT_EUlvE_E9_M_invokeERKSt9_Any_data, @function
_ZNSt17_Function_handlerIFvvEZN7openpal8TimerRef5StartIZN8asiodnp311LinkSession5StartEvEUlvE_EEbRKNS1_12TimeDurationERKT_EUlvE_E9_M_invokeERKSt9_Any_data:
.LFB9561:
	.cfi_startproc
	.cfi_personality 0x9b,DW.ref.__gxx_personality_v0
	.cfi_lsda 0x1b,.LLSDA9561
	endbr64
	pushq	%r15
	.cfi_def_cfa_offset 16
	.cfi_offset 15, -16
	pushq	%r14
	.cfi_def_cfa_offset 24
	.cfi_offset 14, -24
	pushq	%r13
	.cfi_def_cfa_offset 32
	.cfi_offset 13, -32
	pushq	%r12
	.cfi_def_cfa_offset 40
	.cfi_offset 12, -40
	pushq	%rbp
	.cfi_def_cfa_offset 48
	.cfi_offset 6, -48
	pushq	%rbx
	.cfi_def_cfa_offset 56
	.cfi_offset 3, -56
	subq	$72, %rsp
	.cfi_def_cfa_offset 128
	movq	(%rdi), %rbx
	movq	%fs:40, %rax
	movq	%rax, 56(%rsp)
	xorl	%eax, %eax
	leaq	32(%rsp), %r15
	movq	(%rbx), %rax
	movq	%r15, %rsi
	movq	$0, 8(%rax)
	movq	8(%rbx), %rax
	movl	$2, 32(%rsp)
	leaq	64(%rax), %rdi
.LEHB40:
	call	_ZNK7openpal6Logger9IsEnabledERKNS_10LogFiltersE@PLT
	testb	%al, %al
	jne	.L1647
.L1568:
	movq	8(%rbx), %rax
	movq	136(%rax), %r12
	cmpb	$0, 56(%r12)
	jne	.L1567
	movq	(%r12), %rax
	movb	$1, 56(%r12)
	movq	%r12, %rdi
	call	*32(%rax)
.LEHE40:
	movq	16(%r12), %rbp
	testq	%rbp, %rbp
	je	.L1571
	movl	8(%rbp), %eax
	leaq	8(%rbp), %rbx
.L1573:
	testl	%eax, %eax
	je	.L1571
	leal	1(%rax), %edx
	lock cmpxchgl	%edx, (%rbx)
	jne	.L1573
	movq	8(%r12), %rax
	movq	_ZL28__gthrw___pthread_key_createPjPFvPvE@GOTPCREL(%rip), %r13
	movq	24(%r12), %r12
	movq	%rbp, 40(%rsp)
	movq	%rax, 32(%rsp)
	testq	%r13, %r13
	je	.L1574
	lock addl	$1, (%rbx)
	movq	40(%rsp), %r14
.L1575:
	movq	40(%r12), %rax
	movq	%r15, %rdi
	movq	%rax, (%rsp)
	xorl	%eax, %eax
	call	_ZN4asio28asio_handler_is_continuationEz@PLT
	movb	%al, 15(%rsp)
	data16	leaq	_ZN4asio6detail15keyword_tss_ptrINS0_10call_stackINS0_15task_io_serviceENS0_27task_io_service_thread_infoEE7contextEE6value_E@tlsgd(%rip), %rdi
	.value	0x6666
	rex64
	call	__tls_get_addr@PLT
	movq	(%rax), %rax
	testq	%rax, %rax
	je	.L1576
	movq	8(%rax), %rax
	testq	%rax, %rax
	je	.L1576
	movq	(%rax), %r15
	testq	%r15, %r15
	je	.L1576
	movq	$0, (%rax)
	movzbl	(%r15), %eax
	cmpb	$39, %al
	jbe	.L1577
	movb	%al, 40(%r15)
	jmp	.L1578
	.p2align 4,,10
	.p2align 3
.L1577:
	movq	%r15, %rdi
	call	_ZdlPv@PLT
.L1576:
	movl	$41, %edi
.LEHB41:
	call	_Znwm@PLT
.LEHE41:
	movb	$40, 40(%rax)
	movq	%rax, %r15
.L1578:
	movq	_ZN4asio6detail18completion_handlerIZN7asiopal13IAsyncChannel8ShutdownEvEUlvE_E11do_completeEPNS0_15task_io_serviceEPNS0_25task_io_service_operationERKSt10error_codem@GOTPCREL(%rip), %rax
	pxor	%xmm0, %xmm0
	movq	$0, (%r15)
	movl	$0, 16(%r15)
	movq	%rax, 8(%r15)
	movq	32(%rsp), %rax
	movq	%r14, 32(%r15)
	movq	%rax, 24(%r15)
	movaps	%xmm0, 32(%rsp)
	movq	48(%r12), %rax
	leaq	24(%rax), %rdi
	call	pthread_mutex_lock@PLT
	movq	48(%r12), %rdi
	cmpb	$0, 64(%rdi)
	je	.L1579
	cmpq	$0, 80(%rdi)
	movq	$0, (%r15)
	je	.L1580
	movq	80(%rdi), %rax
	movq	%r15, (%rax)
	movq	%r15, 80(%rdi)
.L1581:
	addq	$24, %rdi
	call	pthread_mutex_unlock@PLT
.L1597:
	testq	%r13, %r13
	je	.L1648
	movl	$-1, %eax
	lock xaddl	%eax, (%rbx)
	cmpl	$1, %eax
	jne	.L1567
.L1650:
	movq	0(%rbp), %rax
	movq	%rbp, %rdi
	call	*16(%rax)
	testq	%r13, %r13
	je	.L1608
	movl	$-1, %eax
	lock xaddl	%eax, 12(%rbp)
.L1609:
	cmpl	$1, %eax
	jne	.L1567
	movq	0(%rbp), %rax
	movq	%rbp, %rdi
	call	*24(%rax)
	.p2align 4,,10
	.p2align 3
.L1567:
	movq	56(%rsp), %rax
	xorq	%fs:40, %rax
	jne	.L1649
	addq	$72, %rsp
	.cfi_remember_state
	.cfi_def_cfa_offset 56
	popq	%rbx
	.cfi_def_cfa_offset 48
	popq	%rbp
	.cfi_def_cfa_offset 40
	popq	%r12
	.cfi_def_cfa_offset 32
	popq	%r13
	.cfi_def_cfa_offset 24
	popq	%r14
	.cfi_def_cfa_offset 16
	popq	%r15
	.cfi_def_cfa_offset 8
	ret
	.p2align 4,,10
	.p2align 3
.L1574:
	.cfi_restore_state
	addl	$1, 8(%rbp)
	movq	%rbp, %r14
	jmp	.L1575
	.p2align 4,,10
	.p2align 3
.L1647:
	movq	8(%rbx), %rax
	leaq	.LC39(%rip), %rcx
	movq	%r15, %rsi
	leaq	.LC40(%rip), %rdx
	movl	$2, 32(%rsp)
	leaq	64(%rax), %rdi
.LEHB42:
	call	_ZN7openpal6Logger3LogERKNS_10LogFiltersEPKcS5_@PLT
.LEHE42:
	jmp	.L1568
	.p2align 4,,10
	.p2align 3
.L1579:
	movb	$1, 64(%rdi)
	addq	$24, %rdi
	call	pthread_mutex_unlock@PLT
	movq	48(%r12), %r14
	movq	$0, (%r15)
	cmpq	$0, 96(%r14)
	je	.L1583
	movq	96(%r14), %rax
	movq	%r15, (%rax)
	movq	%r15, 96(%r14)
.L1584:
	movq	(%rsp), %rax
	movq	40(%rax), %r12
	cmpb	$0, 40(%r12)
	jne	.L1612
	cmpb	$0, 15(%rsp)
	je	.L1585
.L1612:
	data16	leaq	_ZN4asio6detail15keyword_tss_ptrINS0_10call_stackINS0_15task_io_serviceENS0_27task_io_service_thread_infoEE7contextEE6value_E@tlsgd(%rip), %rdi
	.value	0x6666
	rex64
	call	__tls_get_addr@PLT
	movq	(%rax), %rax
	testq	%rax, %rax
	jne	.L1589
	jmp	.L1585
	.p2align 4,,10
	.p2align 3
.L1587:
	movq	16(%rax), %rax
	testq	%rax, %rax
	je	.L1585
.L1589:
	cmpq	(%rax), %r12
	jne	.L1587
	movq	8(%rax), %rax
	testq	%rax, %rax
	je	.L1585
	addq	$1, 24(%rax)
	cmpq	$0, 16(%rax)
	movq	$0, (%r14)
	je	.L1590
	movq	16(%rax), %rdx
	movq	%r14, (%rdx)
	movq	%r14, 16(%rax)
	jmp	.L1597
	.p2align 4,,10
	.p2align 3
.L1583:
	movq	%r15, %xmm0
	punpcklqdq	%xmm0, %xmm0
	movups	%xmm0, 88(%r14)
	jmp	.L1584
	.p2align 4,,10
	.p2align 3
.L1648:
	movl	8(%rbp), %eax
	leal	-1(%rax), %edx
	movl	%edx, 8(%rbp)
	cmpl	$1, %eax
	jne	.L1567
	jmp	.L1650
	.p2align 4,,10
	.p2align 3
.L1580:
	movq	%r15, %xmm0
	punpcklqdq	%xmm0, %xmm0
	movups	%xmm0, 72(%rdi)
	jmp	.L1581
	.p2align 4,,10
	.p2align 3
.L1585:
	lock addq	$1, 184(%r12)
	leaq	48(%r12), %r15
	movq	%r15, %rdi
	call	pthread_mutex_lock@PLT
	movq	$0, (%r14)
	cmpq	$0, 200(%r12)
	je	.L1591
	movq	200(%r12), %rax
	movq	%r14, (%rax)
	movq	%r14, 200(%r12)
.L1592:
	movq	136(%r12), %rax
	orq	$1, %rax
	movq	%rax, 136(%r12)
	cmpq	$1, %rax
	je	.L1593
	movq	%r15, %rdi
	call	pthread_mutex_unlock@PLT
	leaq	88(%r12), %rdi
	call	pthread_cond_signal@PLT
.L1594:
	movq	40(%rsp), %r12
	testq	%r12, %r12
	je	.L1597
	testq	%r13, %r13
	je	.L1598
	movl	$-1, %eax
	lock xaddl	%eax, 8(%r12)
.L1599:
	cmpl	$1, %eax
	jne	.L1597
	movq	(%r12), %rax
	movq	%r12, %rdi
	call	*16(%rax)
	testq	%r13, %r13
	je	.L1600
	movl	$-1, %eax
	lock xaddl	%eax, 12(%r12)
.L1601:
	cmpl	$1, %eax
	jne	.L1597
	movq	(%r12), %rax
	movq	%r12, %rdi
	call	*24(%rax)
	jmp	.L1597
	.p2align 4,,10
	.p2align 3
.L1598:
	movl	8(%r12), %eax
	leal	-1(%rax), %edx
	movl	%edx, 8(%r12)
	jmp	.L1599
	.p2align 4,,10
	.p2align 3
.L1593:
	cmpb	$0, 176(%r12)
	jne	.L1595
	movq	144(%r12), %rax
	testq	%rax, %rax
	je	.L1595
	leaq	88(%rax), %rdx
	movl	96(%rax), %edi
	movb	$1, 176(%r12)
	leaq	20(%rsp), %rcx
	movq	%rdx, 24(%rsp)
	movl	88(%rax), %edx
	movl	$3, %esi
	movl	$-2147483639, 20(%rsp)
	call	epoll_ctl@PLT
.L1595:
	movq	%r15, %rdi
	call	pthread_mutex_unlock@PLT
	jmp	.L1594
	.p2align 4,,10
	.p2align 3
.L1600:
	movl	12(%r12), %eax
	leal	-1(%rax), %edx
	movl	%edx, 12(%r12)
	jmp	.L1601
	.p2align 4,,10
	.p2align 3
.L1608:
	movl	12(%rbp), %eax
	leal	-1(%rax), %edx
	movl	%edx, 12(%rbp)
	jmp	.L1609
	.p2align 4,,10
	.p2align 3
.L1591:
	movq	%r14, %xmm0
	punpcklqdq	%xmm0, %xmm0
	movups	%xmm0, 192(%r12)
	jmp	.L1592
	.p2align 4,,10
	.p2align 3
.L1590:
	movq	%r14, %xmm0
	punpcklqdq	%xmm0, %xmm0
	movups	%xmm0, 8(%rax)
	jmp	.L1597
.L1649:
	call	__stack_chk_fail@PLT
.L1611:
	endbr64
	movq	%rax, %r12
	jmp	.L1604
	.section	.gcc_except_table
.LLSDA9561:
	.byte	0xff
	.byte	0xff
	.byte	0x1
	.uleb128 .LLSDACSE9561-.LLSDACSB9561
.LLSDACSB9561:
	.uleb128 .LEHB40-.LFB9561
	.uleb128 .LEHE40-.LEHB40
	.uleb128 0
	.uleb128 0
	.uleb128 .LEHB41-.LFB9561
	.uleb128 .LEHE41-.LEHB41
	.uleb128 .L1611-.LFB9561
	.uleb128 0
	.uleb128 .LEHB42-.LFB9561
	.uleb128 .LEHE42-.LEHB42
	.uleb128 0
	.uleb128 0
.LLSDACSE9561:
	.text
	.cfi_endproc
	.section	.text.unlikely
	.cfi_startproc
	.cfi_personality 0x9b,DW.ref.__gxx_personality_v0
	.cfi_lsda 0x1b,.LLSDAC9561
	.type	_ZNSt17_Function_handlerIFvvEZN7openpal8TimerRef5StartIZN8asiodnp311LinkSession5StartEvEUlvE_EEbRKNS1_12TimeDurationERKT_EUlvE_E9_M_invokeERKSt9_Any_data.cold, @function
_ZNSt17_Function_handlerIFvvEZN7openpal8TimerRef5StartIZN8asiodnp311LinkSession5StartEvEUlvE_EEbRKNS1_12TimeDurationERKT_EUlvE_E9_M_invokeERKSt9_Any_data.cold:
.LFSB9561:
.L1571:
	.cfi_def_cfa_offset 128
	.cfi_offset 3, -56
	.cfi_offset 6, -48
	.cfi_offset 12, -40
	.cfi_offset 13, -32
	.cfi_offset 14, -24
	.cfi_offset 15, -16
.LEHB43:
	call	_ZSt20__throw_bad_weak_ptrv@PLT
.L1604:
	testq	%r14, %r14
	je	.L1605
	movq	%r14, %rdi
	call	_ZNSt16_Sp_counted_baseILN9__gnu_cxx12_Lock_policyE2EE10_M_releaseEv@PLT
.L1605:
	movq	%rbp, %rdi
	call	_ZNSt16_Sp_counted_baseILN9__gnu_cxx12_Lock_policyE2EE10_M_releaseEv@PLT
	movq	%r12, %rdi
	call	_Unwind_Resume@PLT
.LEHE43:
	.cfi_endproc
.LFE9561:
	.section	.gcc_except_table
.LLSDAC9561:
	.byte	0xff
	.byte	0xff
	.byte	0x1
	.uleb128 .LLSDACSEC9561-.LLSDACSBC9561
.LLSDACSBC9561:
	.uleb128 .LEHB43-.LCOLDB41
	.uleb128 .LEHE43-.LEHB43
	.uleb128 0
	.uleb128 0
.LLSDACSEC9561:
	.section	.text.unlikely
	.text
	.size	_ZNSt17_Function_handlerIFvvEZN7openpal8TimerRef5StartIZN8asiodnp311LinkSession5StartEvEUlvE_EEbRKNS1_12TimeDurationERKT_EUlvE_E9_M_invokeERKSt9_Any_data, .-_ZNSt17_Function_handlerIFvvEZN7openpal8TimerRef5StartIZN8asiodnp311LinkSession5StartEvEUlvE_EEbRKNS1_12TimeDurationERKT_EUlvE_E9_M_invokeERKSt9_Any_data
	.section	.text.unlikely
	.size	_ZNSt17_Function_handlerIFvvEZN7openpal8TimerRef5StartIZN8asiodnp311LinkSession5StartEvEUlvE_EEbRKNS1_12TimeDurationERKT_EUlvE_E9_M_invokeERKSt9_Any_data.cold, .-_ZNSt17_Function_handlerIFvvEZN7openpal8TimerRef5StartIZN8asiodnp311LinkSession5StartEvEUlvE_EEbRKNS1_12TimeDurationERKT_EUlvE_E9_M_invokeERKSt9_Any_data.cold
.LCOLDE41:
	.text
.LHOTE41:
	.section	.text._ZN4asio6detail18completion_handlerIZN7asiopal13IAsyncChannel8ShutdownEvEUlvE_E11do_completeEPNS0_15task_io_serviceEPNS0_25task_io_service_operationERKSt10error_codem,"axG",@progbits,_ZN4asio6detail18completion_handlerIZN7asiopal13IAsyncChannel8ShutdownEvEUlvE_E11do_completeEPNS0_15task_io_serviceEPNS0_25task_io_service_operationERKSt10error_codem,comdat
	.p2align 4
	.weak	_ZN4asio6detail18completion_handlerIZN7asiopal13IAsyncChannel8ShutdownEvEUlvE_E11do_completeEPNS0_15task_io_serviceEPNS0_25task_io_service_operationERKSt10error_codem
	.type	_ZN4asio6detail18completion_handlerIZN7asiopal13IAsyncChannel8ShutdownEvEUlvE_E11do_completeEPNS0_15task_io_serviceEPNS0_25task_io_service_operationERKSt10error_codem, @function
_ZN4asio6detail18completion_handlerIZN7asiopal13IAsyncChannel8ShutdownEvEUlvE_E11do_completeEPNS0_15task_io_serviceEPNS0_25task_io_service_operationERKSt10error_codem:
.LFB9681:
	.cfi_startproc
	.cfi_personality 0x9b,DW.ref.__gxx_personality_v0
	.cfi_lsda 0x1b,.LLSDA9681
	endbr64
	pushq	%r15
	.cfi_def_cfa_offset 16
	.cfi_offset 15, -16
	pushq	%r14
	.cfi_def_cfa_offset 24
	.cfi_offset 14, -24
	pushq	%r13
	.cfi_def_cfa_offset 32
	.cfi_offset 13, -32
	pushq	%r12
	.cfi_def_cfa_offset 40
	.cfi_offset 12, -40
	movq	%rsi, %r12
	pushq	%rbp
	.cfi_def_cfa_offset 48
	.cfi_offset 6, -48
	pushq	%rbx
	.cfi_def_cfa_offset 56
	.cfi_offset 3, -56
	movq	%rdi, %rbx
	subq	$56, %rsp
	.cfi_def_cfa_offset 112
	movq	24(%rsi), %r13
	movq	32(%rsi), %rbp
	movq	%fs:40, %rax
	movq	%rax, 40(%rsp)
	xorl	%eax, %eax
	data16	leaq	_ZN4asio6detail15keyword_tss_ptrINS0_10call_stackINS0_15task_io_serviceENS0_27task_io_service_thread_infoEE7contextEE6value_E@tlsgd(%rip), %rdi
	.value	0x6666
	rex64
	call	__tls_get_addr@PLT
	movq	(%rax), %rax
	testq	%rax, %rax
	je	.L1652
	movq	8(%rax), %rax
	testq	%rax, %rax
	je	.L1652
	cmpq	$0, (%rax)
	je	.L1772
.L1652:
	movq	%r12, %rdi
	call	_ZdlPv@PLT
.L1653:
	testq	%rbx, %rbx
	je	.L1654
	testq	%rbp, %rbp
	je	.L1655
	movq	_ZL28__gthrw___pthread_key_createPjPFvPvE@GOTPCREL(%rip), %r12
	leaq	8(%rbp), %rax
	testq	%r12, %r12
	je	.L1656
	lock addl	$1, (%rax)
.L1657:
	cmpb	$0, 57(%r13)
	jne	.L1728
	cmpb	$0, 58(%r13)
	je	.L1730
.L1728:
	testq	%r12, %r12
	je	.L1773
	lock addl	$1, (%rax)
.L1658:
	movq	%r13, %xmm0
	movq	%rbp, %xmm1
	movq	24(%r13), %rbx
	punpcklqdq	%xmm1, %xmm0
	movaps	%xmm0, 16(%rsp)
	testq	%r12, %r12
	je	.L1774
	lock addl	$1, (%rax)
	movq	24(%rsp), %r15
	jmp	.L1659
	.p2align 4,,10
	.p2align 3
.L1655:
	cmpb	$0, 57(%r13)
	jne	.L1724
	cmpb	$0, 58(%r13)
	je	.L1730
.L1724:
	movq	%r13, %xmm0
	movq	24(%r13), %rbx
	xorl	%r15d, %r15d
	movaps	%xmm0, 16(%rsp)
.L1659:
	leaq	16(%rsp), %rdi
	xorl	%eax, %eax
	movq	40(%rbx), %r14
	call	_ZN4asio28asio_handler_is_continuationEz@PLT
	movl	%eax, %r13d
	data16	leaq	_ZN4asio6detail15keyword_tss_ptrINS0_10call_stackINS0_15task_io_serviceENS0_27task_io_service_thread_infoEE7contextEE6value_E@tlsgd(%rip), %rdi
	.value	0x6666
	rex64
	call	__tls_get_addr@PLT
	movq	(%rax), %rax
	testq	%rax, %rax
	je	.L1660
	movq	8(%rax), %rax
	testq	%rax, %rax
	je	.L1660
	movq	(%rax), %r12
	testq	%r12, %r12
	je	.L1660
	movq	$0, (%rax)
	movzbl	(%r12), %eax
	cmpb	$39, %al
	jbe	.L1661
	movb	%al, 40(%r12)
.L1662:
	movq	_ZN4asio6detail18completion_handlerIZN7asiopal13IAsyncChannel16CheckForShutdownESt10shared_ptrIS3_EEUlvE_E11do_completeEPNS0_15task_io_serviceEPNS0_25task_io_service_operationERKSt10error_codem@GOTPCREL(%rip), %rax
	movq	%r15, 32(%r12)
	pxor	%xmm0, %xmm0
	movq	$0, (%r12)
	movq	%rax, 8(%r12)
	movq	16(%rsp), %rax
	movl	$0, 16(%r12)
	movq	%rax, 24(%r12)
	movq	48(%rbx), %rax
	movaps	%xmm0, 16(%rsp)
	leaq	24(%rax), %rdi
	call	pthread_mutex_lock@PLT
	movq	48(%rbx), %rdi
	cmpb	$0, 64(%rdi)
	je	.L1663
	cmpq	$0, 80(%rdi)
	movq	$0, (%r12)
	je	.L1664
	movq	80(%rdi), %rax
	movq	%r12, (%rax)
	movq	%r12, 80(%rdi)
.L1665:
	addq	$24, %rdi
	call	pthread_mutex_unlock@PLT
.L1681:
	testq	%rbp, %rbp
	je	.L1705
	movq	_ZL28__gthrw___pthread_key_createPjPFvPvE@GOTPCREL(%rip), %r12
	testq	%r12, %r12
	je	.L1694
	movl	$-1, %eax
	lock xaddl	%eax, 8(%rbp)
.L1695:
	cmpl	$1, %eax
	je	.L1775
.L1693:
	testq	%rbp, %rbp
	je	.L1705
	movq	_ZL28__gthrw___pthread_key_createPjPFvPvE@GOTPCREL(%rip), %r12
	testq	%r12, %r12
	je	.L1708
	movl	$-1, %eax
	lock xaddl	%eax, 8(%rbp)
.L1709:
	cmpl	$1, %eax
	je	.L1776
.L1705:
	sfence
.L1654:
	testq	%rbp, %rbp
	je	.L1651
	movq	_ZL28__gthrw___pthread_key_createPjPFvPvE@GOTPCREL(%rip), %r12
	testq	%r12, %r12
	je	.L1717
	movl	$-1, %eax
	lock xaddl	%eax, 8(%rbp)
	cmpl	$1, %eax
	je	.L1777
	.p2align 4,,10
	.p2align 3
.L1651:
	movq	40(%rsp), %rax
	xorq	%fs:40, %rax
	jne	.L1778
	addq	$56, %rsp
	.cfi_remember_state
	.cfi_def_cfa_offset 56
	popq	%rbx
	.cfi_def_cfa_offset 48
	popq	%rbp
	.cfi_def_cfa_offset 40
	popq	%r12
	.cfi_def_cfa_offset 32
	popq	%r13
	.cfi_def_cfa_offset 24
	popq	%r14
	.cfi_def_cfa_offset 16
	popq	%r15
	.cfi_def_cfa_offset 8
	ret
	.p2align 4,,10
	.p2align 3
.L1717:
	.cfi_restore_state
	movl	8(%rbp), %eax
	leal	-1(%rax), %edx
	movl	%edx, 8(%rbp)
	cmpl	$1, %eax
	jne	.L1651
.L1777:
	movq	0(%rbp), %rax
	movq	%rbp, %rdi
	call	*16(%rax)
	testq	%r12, %r12
	je	.L1720
	movl	$-1, %eax
	lock xaddl	%eax, 12(%rbp)
.L1721:
	cmpl	$1, %eax
	jne	.L1651
	movq	0(%rbp), %rax
	movq	%rbp, %rdi
	call	*24(%rax)
	jmp	.L1651
	.p2align 4,,10
	.p2align 3
.L1730:
	movq	48(%r13), %r14
	pxor	%xmm0, %xmm0
	movups	%xmm0, 40(%r13)
	testq	%r14, %r14
	je	.L1693
	movq	_ZL28__gthrw___pthread_key_createPjPFvPvE@GOTPCREL(%rip), %r12
	testq	%r12, %r12
	je	.L1699
	movl	$-1, %eax
	lock xaddl	%eax, 8(%r14)
.L1700:
	cmpl	$1, %eax
	jne	.L1693
	movq	(%r14), %rax
	movq	%r14, %rdi
	call	*16(%rax)
	testq	%r12, %r12
	je	.L1702
	movl	$-1, %eax
	lock xaddl	%eax, 12(%r14)
.L1703:
	cmpl	$1, %eax
	jne	.L1693
	movq	(%r14), %rax
	movq	%r14, %rdi
	call	*24(%rax)
	jmp	.L1693
	.p2align 4,,10
	.p2align 3
.L1773:
	addl	$1, 8(%rbp)
	jmp	.L1658
	.p2align 4,,10
	.p2align 3
.L1772:
	movzbl	40(%r12), %edx
	movb	%dl, (%r12)
	movq	%r12, (%rax)
	jmp	.L1653
	.p2align 4,,10
	.p2align 3
.L1661:
	movq	%r12, %rdi
	call	_ZdlPv@PLT
.L1660:
	movl	$41, %edi
.LEHB44:
	call	_Znwm@PLT
.LEHE44:
	movb	$40, 40(%rax)
	movq	%rax, %r12
	jmp	.L1662
	.p2align 4,,10
	.p2align 3
.L1656:
	addl	$1, 8(%rbp)
	jmp	.L1657
	.p2align 4,,10
	.p2align 3
.L1708:
	movl	8(%rbp), %eax
	leal	-1(%rax), %edx
	movl	%edx, 8(%rbp)
	jmp	.L1709
	.p2align 4,,10
	.p2align 3
.L1663:
	movb	$1, 64(%rdi)
	addq	$24, %rdi
	call	pthread_mutex_unlock@PLT
	movq	48(%rbx), %r15
	movq	$0, (%r12)
	cmpq	$0, 96(%r15)
	je	.L1667
	movq	96(%r15), %rax
	movq	%r12, (%rax)
	movq	%r12, 96(%r15)
.L1668:
	movq	40(%r14), %rbx
	cmpb	$0, 40(%rbx)
	jne	.L1733
	testb	%r13b, %r13b
	je	.L1669
.L1733:
	data16	leaq	_ZN4asio6detail15keyword_tss_ptrINS0_10call_stackINS0_15task_io_serviceENS0_27task_io_service_thread_infoEE7contextEE6value_E@tlsgd(%rip), %rdi
	.value	0x6666
	rex64
	call	__tls_get_addr@PLT
	movq	(%rax), %rax
	testq	%rax, %rax
	jne	.L1673
	jmp	.L1669
	.p2align 4,,10
	.p2align 3
.L1671:
	movq	16(%rax), %rax
	testq	%rax, %rax
	je	.L1669
.L1673:
	cmpq	(%rax), %rbx
	jne	.L1671
	movq	8(%rax), %rax
	testq	%rax, %rax
	je	.L1669
	addq	$1, 24(%rax)
	cmpq	$0, 16(%rax)
	movq	$0, (%r15)
	je	.L1674
	movq	16(%rax), %rdx
	movq	%r15, (%rdx)
	movq	%r15, 16(%rax)
	jmp	.L1681
	.p2align 4,,10
	.p2align 3
.L1669:
	lock addq	$1, 184(%rbx)
	leaq	48(%rbx), %r12
	movq	%r12, %rdi
	call	pthread_mutex_lock@PLT
	cmpq	$0, 200(%rbx)
	movq	$0, (%r15)
	je	.L1675
	movq	200(%rbx), %rax
	movq	%r15, (%rax)
	movq	%r15, 200(%rbx)
.L1676:
	movq	136(%rbx), %rax
	orq	$1, %rax
	movq	%rax, 136(%rbx)
	cmpq	$1, %rax
	je	.L1677
	movq	%r12, %rdi
	call	pthread_mutex_unlock@PLT
	leaq	88(%rbx), %rdi
	call	pthread_cond_signal@PLT
.L1678:
	movq	24(%rsp), %r13
	testq	%r13, %r13
	je	.L1681
	movq	_ZL28__gthrw___pthread_key_createPjPFvPvE@GOTPCREL(%rip), %r12
	testq	%r12, %r12
	je	.L1682
	movl	$-1, %eax
	lock xaddl	%eax, 8(%r13)
.L1683:
	cmpl	$1, %eax
	jne	.L1681
	movq	0(%r13), %rax
	movq	%r13, %rdi
	call	*16(%rax)
	testq	%r12, %r12
	je	.L1684
	movl	$-1, %eax
	lock xaddl	%eax, 12(%r13)
.L1685:
	cmpl	$1, %eax
	jne	.L1681
	movq	0(%r13), %rax
	movq	%r13, %rdi
	call	*24(%rax)
	jmp	.L1681
	.p2align 4,,10
	.p2align 3
.L1774:
	addl	$1, 8(%rbp)
	movq	%rbp, %r15
	jmp	.L1659
	.p2align 4,,10
	.p2align 3
.L1776:
	movq	0(%rbp), %rax
	movq	%rbp, %rdi
	call	*16(%rax)
	testq	%r12, %r12
	je	.L1711
	movl	$-1, %eax
	lock xaddl	%eax, 12(%rbp)
.L1712:
	cmpl	$1, %eax
	jne	.L1705
	movq	0(%rbp), %rax
	movq	%rbp, %rdi
	call	*24(%rax)
	jmp	.L1705
	.p2align 4,,10
	.p2align 3
.L1694:
	movl	8(%rbp), %eax
	leal	-1(%rax), %edx
	movl	%edx, 8(%rbp)
	jmp	.L1695
	.p2align 4,,10
	.p2align 3
.L1720:
	movl	12(%rbp), %eax
	leal	-1(%rax), %edx
	movl	%edx, 12(%rbp)
	jmp	.L1721
	.p2align 4,,10
	.p2align 3
.L1664:
	movq	%r12, %xmm0
	punpcklqdq	%xmm0, %xmm0
	movups	%xmm0, 72(%rdi)
	jmp	.L1665
	.p2align 4,,10
	.p2align 3
.L1775:
	movq	0(%rbp), %rax
	movq	%rbp, %rdi
	call	*16(%rax)
	testq	%r12, %r12
	je	.L1697
	movl	$-1, %eax
	lock xaddl	%eax, 12(%rbp)
.L1698:
	cmpl	$1, %eax
	jne	.L1693
	movq	0(%rbp), %rax
	movq	%rbp, %rdi
	call	*24(%rax)
	jmp	.L1693
	.p2align 4,,10
	.p2align 3
.L1697:
	movl	12(%rbp), %eax
	leal	-1(%rax), %edx
	movl	%edx, 12(%rbp)
	jmp	.L1698
	.p2align 4,,10
	.p2align 3
.L1675:
	movq	%r15, %xmm0
	punpcklqdq	%xmm0, %xmm0
	movups	%xmm0, 192(%rbx)
	jmp	.L1676
	.p2align 4,,10
	.p2align 3
.L1682:
	movl	8(%r13), %eax
	leal	-1(%rax), %edx
	movl	%edx, 8(%r13)
	jmp	.L1683
	.p2align 4,,10
	.p2align 3
.L1677:
	cmpb	$0, 176(%rbx)
	jne	.L1679
	movq	144(%rbx), %rax
	testq	%rax, %rax
	je	.L1679
	leaq	88(%rax), %rdx
	movb	$1, 176(%rbx)
	movl	96(%rax), %edi
	leaq	4(%rsp), %rcx
	movq	%rdx, 8(%rsp)
	movl	88(%rax), %edx
	movl	$3, %esi
	movl	$-2147483639, 4(%rsp)
	call	epoll_ctl@PLT
.L1679:
	movq	%r12, %rdi
	call	pthread_mutex_unlock@PLT
	jmp	.L1678
	.p2align 4,,10
	.p2align 3
.L1711:
	movl	12(%rbp), %eax
	leal	-1(%rax), %edx
	movl	%edx, 12(%rbp)
	jmp	.L1712
	.p2align 4,,10
	.p2align 3
.L1699:
	movl	8(%r14), %eax
	leal	-1(%rax), %edx
	movl	%edx, 8(%r14)
	jmp	.L1700
	.p2align 4,,10
	.p2align 3
.L1667:
	movq	%r12, %xmm0
	punpcklqdq	%xmm0, %xmm0
	movups	%xmm0, 88(%r15)
	jmp	.L1668
	.p2align 4,,10
	.p2align 3
.L1684:
	movl	12(%r13), %eax
	leal	-1(%rax), %edx
	movl	%edx, 12(%r13)
	jmp	.L1685
	.p2align 4,,10
	.p2align 3
.L1702:
	movl	12(%r14), %eax
	leal	-1(%rax), %edx
	movl	%edx, 12(%r14)
	jmp	.L1703
	.p2align 4,,10
	.p2align 3
.L1674:
	movq	%r15, %xmm0
	punpcklqdq	%xmm0, %xmm0
	movups	%xmm0, 8(%rax)
	jmp	.L1681
.L1778:
	call	__stack_chk_fail@PLT
.L1732:
	endbr64
	movq	%rax, %r12
.L1688:
	testq	%r15, %r15
	je	.L1689
	movq	%r15, %rdi
	call	_ZNSt16_Sp_counted_baseILN9__gnu_cxx12_Lock_policyE2EE10_M_releaseEv@PLT
.L1689:
	testq	%rbp, %rbp
	je	.L1707
	movq	%rbp, %rdi
	call	_ZNSt16_Sp_counted_baseILN9__gnu_cxx12_Lock_policyE2EE10_M_releaseEv@PLT
	movq	%rbp, %rdi
	call	_ZNSt16_Sp_counted_baseILN9__gnu_cxx12_Lock_policyE2EE10_M_releaseEv@PLT
.L1707:
	sfence
	testq	%rbp, %rbp
	je	.L1714
	movq	%rbp, %rdi
	call	_ZNSt16_Sp_counted_baseILN9__gnu_cxx12_Lock_policyE2EE10_M_releaseEv@PLT
.L1714:
	movq	%r12, %rdi
.LEHB45:
	call	_Unwind_Resume@PLT
.LEHE45:
	.cfi_endproc
.LFE9681:
	.section	.gcc_except_table
.LLSDA9681:
	.byte	0xff
	.byte	0xff
	.byte	0x1
	.uleb128 .LLSDACSE9681-.LLSDACSB9681
.LLSDACSB9681:
	.uleb128 .LEHB44-.LFB9681
	.uleb128 .LEHE44-.LEHB44
	.uleb128 .L1732-.LFB9681
	.uleb128 0
	.uleb128 .LEHB45-.LFB9681
	.uleb128 .LEHE45-.LEHB45
	.uleb128 0
	.uleb128 0
.LLSDACSE9681:
	.section	.text._ZN4asio6detail18completion_handlerIZN7asiopal13IAsyncChannel8ShutdownEvEUlvE_E11do_completeEPNS0_15task_io_serviceEPNS0_25task_io_service_operationERKSt10error_codem,"axG",@progbits,_ZN4asio6detail18completion_handlerIZN7asiopal13IAsyncChannel8ShutdownEvEUlvE_E11do_completeEPNS0_15task_io_serviceEPNS0_25task_io_service_operationERKSt10error_codem,comdat
	.size	_ZN4asio6detail18completion_handlerIZN7asiopal13IAsyncChannel8ShutdownEvEUlvE_E11do_completeEPNS0_15task_io_serviceEPNS0_25task_io_service_operationERKSt10error_codem, .-_ZN4asio6detail18completion_handlerIZN7asiopal13IAsyncChannel8ShutdownEvEUlvE_E11do_completeEPNS0_15task_io_serviceEPNS0_25task_io_service_operationERKSt10error_codem
	.section	.text.startup,"ax",@progbits
	.p2align 4
	.type	_GLOBAL__sub_I_LinkSession.cpp, @function
_GLOBAL__sub_I_LinkSession.cpp:
.LFB10470:
	.cfi_startproc
	endbr64
	pushq	%rbp
	.cfi_def_cfa_offset 16
	.cfi_offset 6, -16
	movq	_ZGVZN4asio15system_categoryEvE8instance@GOTPCREL(%rip), %rbp
	movzbl	0(%rbp), %eax
	testb	%al, %al
	je	.L1810
.L1781:
	movq	_ZGVZN4asio5error18get_netdb_categoryEvE8instance@GOTPCREL(%rip), %rbp
	movzbl	0(%rbp), %eax
	testb	%al, %al
	je	.L1811
.L1784:
	movq	_ZGVZN4asio5error21get_addrinfo_categoryEvE8instance@GOTPCREL(%rip), %rbp
	movzbl	0(%rbp), %eax
	testb	%al, %al
	je	.L1812
.L1787:
	movq	_ZGVZN4asio5error17get_misc_categoryEvE8instance@GOTPCREL(%rip), %rbp
	movzbl	0(%rbp), %eax
	testb	%al, %al
	je	.L1813
.L1790:
	movl	$5000, %edi
	call	_ZN7openpal12TimeDuration12MillisecondsEl@PLT
	movq	_ZGVN4asio6detail10call_stackINS0_15task_io_serviceENS0_27task_io_service_thread_infoEE4top_E@GOTPCREL(%rip), %rax
	cmpb	$0, (%rax)
	je	.L1814
.L1792:
	movq	_ZGVN4asio6detail12service_baseINS0_13epoll_reactorEE2idE@GOTPCREL(%rip), %rax
	cmpb	$0, (%rax)
	je	.L1815
.L1793:
	movq	_ZGVN4asio6detail12service_baseINS0_15task_io_serviceEE2idE@GOTPCREL(%rip), %rax
	cmpb	$0, (%rax)
	je	.L1816
.L1794:
	movq	_ZGVN4asio6detail10call_stackINS0_14strand_service11strand_implEhE4top_E@GOTPCREL(%rip), %rax
	cmpb	$0, (%rax)
	je	.L1817
.L1795:
	movq	_ZGVN4asio6detail12service_baseINS0_14strand_serviceEE2idE@GOTPCREL(%rip), %rax
	cmpb	$0, (%rax)
	je	.L1818
	popq	%rbp
	.cfi_remember_state
	.cfi_def_cfa_offset 8
	ret
.L1810:
	.cfi_restore_state
	movq	%rbp, %rdi
	call	__cxa_guard_acquire@PLT
	testl	%eax, %eax
	je	.L1781
	movq	_ZZN4asio15system_categoryEvE8instance@GOTPCREL(%rip), %rsi
	movq	_ZN4asio6detail15system_categoryD1Ev@GOTPCREL(%rip), %rdi
	leaq	__dso_handle(%rip), %rdx
	call	__cxa_atexit@PLT
	movq	%rbp, %rdi
	call	__cxa_guard_release@PLT
	jmp	.L1781
.L1818:
	movb	$1, (%rax)
	leaq	__dso_handle(%rip), %rdx
	movq	_ZN4asio6detail12service_baseINS0_14strand_serviceEE2idE@GOTPCREL(%rip), %rsi
	movq	_ZN4asio6detail10service_idINS0_14strand_serviceEED1Ev@GOTPCREL(%rip), %rdi
	popq	%rbp
	.cfi_remember_state
	.cfi_def_cfa_offset 8
	jmp	__cxa_atexit@PLT
.L1817:
	.cfi_restore_state
	movb	$1, (%rax)
	movq	_ZN4asio6detail10call_stackINS0_14strand_service11strand_implEhE4top_E@GOTPCREL(%rip), %rsi
	leaq	__dso_handle(%rip), %rdx
	movq	_ZN4asio6detail7tss_ptrINS0_10call_stackINS0_14strand_service11strand_implEhE7contextEED1Ev@GOTPCREL(%rip), %rdi
	call	__cxa_atexit@PLT
	jmp	.L1795
.L1816:
	movb	$1, (%rax)
	movq	_ZN4asio6detail12service_baseINS0_15task_io_serviceEE2idE@GOTPCREL(%rip), %rsi
	leaq	__dso_handle(%rip), %rdx
	movq	_ZN4asio6detail10service_idINS0_15task_io_serviceEED1Ev@GOTPCREL(%rip), %rdi
	call	__cxa_atexit@PLT
	jmp	.L1794
.L1815:
	movb	$1, (%rax)
	movq	_ZN4asio6detail12service_baseINS0_13epoll_reactorEE2idE@GOTPCREL(%rip), %rsi
	leaq	__dso_handle(%rip), %rdx
	movq	_ZN4asio6detail10service_idINS0_13epoll_reactorEED1Ev@GOTPCREL(%rip), %rdi
	call	__cxa_atexit@PLT
	jmp	.L1793
.L1814:
	movb	$1, (%rax)
	movq	_ZN4asio6detail10call_stackINS0_15task_io_serviceENS0_27task_io_service_thread_infoEE4top_E@GOTPCREL(%rip), %rsi
	leaq	__dso_handle(%rip), %rdx
	movq	_ZN4asio6detail7tss_ptrINS0_10call_stackINS0_15task_io_serviceENS0_27task_io_service_thread_infoEE7contextEED1Ev@GOTPCREL(%rip), %rdi
	call	__cxa_atexit@PLT
	jmp	.L1792
.L1813:
	movq	%rbp, %rdi
	call	__cxa_guard_acquire@PLT
	testl	%eax, %eax
	je	.L1790
	movq	_ZZN4asio5error17get_misc_categoryEvE8instance@GOTPCREL(%rip), %rsi
	movq	_ZN4asio5error6detail13misc_categoryD1Ev@GOTPCREL(%rip), %rdi
	leaq	__dso_handle(%rip), %rdx
	call	__cxa_atexit@PLT
	movq	%rbp, %rdi
	call	__cxa_guard_release@PLT
	jmp	.L1790
.L1812:
	movq	%rbp, %rdi
	call	__cxa_guard_acquire@PLT
	testl	%eax, %eax
	je	.L1787
	movq	_ZZN4asio5error21get_addrinfo_categoryEvE8instance@GOTPCREL(%rip), %rsi
	movq	_ZN4asio5error6detail17addrinfo_categoryD1Ev@GOTPCREL(%rip), %rdi
	leaq	__dso_handle(%rip), %rdx
	call	__cxa_atexit@PLT
	movq	%rbp, %rdi
	call	__cxa_guard_release@PLT
	jmp	.L1787
.L1811:
	movq	%rbp, %rdi
	call	__cxa_guard_acquire@PLT
	testl	%eax, %eax
	je	.L1784
	movq	_ZZN4asio5error18get_netdb_categoryEvE8instance@GOTPCREL(%rip), %rsi
	movq	_ZN4asio5error6detail14netdb_categoryD1Ev@GOTPCREL(%rip), %rdi
	leaq	__dso_handle(%rip), %rdx
	call	__cxa_atexit@PLT
	movq	%rbp, %rdi
	call	__cxa_guard_release@PLT
	jmp	.L1784
	.cfi_endproc
.LFE10470:
	.size	_GLOBAL__sub_I_LinkSession.cpp, .-_GLOBAL__sub_I_LinkSession.cpp
	.section	.init_array,"aw"
	.align 8
	.quad	_GLOBAL__sub_I_LinkSession.cpp
	.weak	_ZTSN7openpal10UncopyableE
	.section	.rodata._ZTSN7openpal10UncopyableE,"aG",@progbits,_ZTSN7openpal10UncopyableE,comdat
	.align 16
	.type	_ZTSN7openpal10UncopyableE, @object
	.size	_ZTSN7openpal10UncopyableE, 23
_ZTSN7openpal10UncopyableE:
	.string	"N7openpal10UncopyableE"
	.weak	_ZTIN7openpal10UncopyableE
	.section	.data.rel.ro._ZTIN7openpal10UncopyableE,"awG",@progbits,_ZTIN7openpal10UncopyableE,comdat
	.align 8
	.type	_ZTIN7openpal10UncopyableE, @object
	.size	_ZTIN7openpal10UncopyableE, 16
_ZTIN7openpal10UncopyableE:
	.quad	_ZTVN10__cxxabiv117__class_type_infoE+16
	.quad	_ZTSN7openpal10UncopyableE
	.weak	_ZTSSt23enable_shared_from_thisIN8asiodnp311LinkSessionEE
	.section	.rodata._ZTSSt23enable_shared_from_thisIN8asiodnp311LinkSessionEE,"aG",@progbits,_ZTSSt23enable_shared_from_thisIN8asiodnp311LinkSessionEE,comdat
	.align 32
	.type	_ZTSSt23enable_shared_from_thisIN8asiodnp311LinkSessionEE, @object
	.size	_ZTSSt23enable_shared_from_thisIN8asiodnp311LinkSessionEE, 54
_ZTSSt23enable_shared_from_thisIN8asiodnp311LinkSessionEE:
	.string	"St23enable_shared_from_thisIN8asiodnp311LinkSessionEE"
	.weak	_ZTISt23enable_shared_from_thisIN8asiodnp311LinkSessionEE
	.section	.data.rel.ro._ZTISt23enable_shared_from_thisIN8asiodnp311LinkSessionEE,"awG",@progbits,_ZTISt23enable_shared_from_thisIN8asiodnp311LinkSessionEE,comdat
	.align 8
	.type	_ZTISt23enable_shared_from_thisIN8asiodnp311LinkSessionEE, @object
	.size	_ZTISt23enable_shared_from_thisIN8asiodnp311LinkSessionEE, 16
_ZTISt23enable_shared_from_thisIN8asiodnp311LinkSessionEE:
	.quad	_ZTVN10__cxxabiv117__class_type_infoE+16
	.quad	_ZTSSt23enable_shared_from_thisIN8asiodnp311LinkSessionEE
	.weak	_ZGVN4asio6detail12service_baseINS0_14strand_serviceEE2idE
	.section	.bss._ZGVN4asio6detail12service_baseINS0_14strand_serviceEE2idE,"awG",@nobits,_ZGVN4asio6detail12service_baseINS0_14strand_serviceEE2idE,comdat
	.align 8
	.type	_ZGVN4asio6detail12service_baseINS0_14strand_serviceEE2idE, @gnu_unique_object
	.size	_ZGVN4asio6detail12service_baseINS0_14strand_serviceEE2idE, 8
_ZGVN4asio6detail12service_baseINS0_14strand_serviceEE2idE:
	.zero	8
	.weak	_ZGVN4asio6detail10call_stackINS0_14strand_service11strand_implEhE4top_E
	.section	.bss._ZGVN4asio6detail10call_stackINS0_14strand_service11strand_implEhE4top_E,"awG",@nobits,_ZGVN4asio6detail10call_stackINS0_14strand_service11strand_implEhE4top_E,comdat
	.align 8
	.type	_ZGVN4asio6detail10call_stackINS0_14strand_service11strand_implEhE4top_E, @gnu_unique_object
	.size	_ZGVN4asio6detail10call_stackINS0_14strand_service11strand_implEhE4top_E, 8
_ZGVN4asio6detail10call_stackINS0_14strand_service11strand_implEhE4top_E:
	.zero	8
	.weak	_ZGVN4asio6detail12service_baseINS0_15task_io_serviceEE2idE
	.section	.bss._ZGVN4asio6detail12service_baseINS0_15task_io_serviceEE2idE,"awG",@nobits,_ZGVN4asio6detail12service_baseINS0_15task_io_serviceEE2idE,comdat
	.align 8
	.type	_ZGVN4asio6detail12service_baseINS0_15task_io_serviceEE2idE, @gnu_unique_object
	.size	_ZGVN4asio6detail12service_baseINS0_15task_io_serviceEE2idE, 8
_ZGVN4asio6detail12service_baseINS0_15task_io_serviceEE2idE:
	.zero	8
	.weak	_ZGVN4asio6detail12service_baseINS0_13epoll_reactorEE2idE
	.section	.bss._ZGVN4asio6detail12service_baseINS0_13epoll_reactorEE2idE,"awG",@nobits,_ZGVN4asio6detail12service_baseINS0_13epoll_reactorEE2idE,comdat
	.align 8
	.type	_ZGVN4asio6detail12service_baseINS0_13epoll_reactorEE2idE, @gnu_unique_object
	.size	_ZGVN4asio6detail12service_baseINS0_13epoll_reactorEE2idE, 8
_ZGVN4asio6detail12service_baseINS0_13epoll_reactorEE2idE:
	.zero	8
	.weak	_ZGVN4asio6detail10call_stackINS0_15task_io_serviceENS0_27task_io_service_thread_infoEE4top_E
	.section	.bss._ZGVN4asio6detail10call_stackINS0_15task_io_serviceENS0_27task_io_service_thread_infoEE4top_E,"awG",@nobits,_ZGVN4asio6detail10call_stackINS0_15task_io_serviceENS0_27task_io_service_thread_infoEE4top_E,comdat
	.align 8
	.type	_ZGVN4asio6detail10call_stackINS0_15task_io_serviceENS0_27task_io_service_thread_infoEE4top_E, @gnu_unique_object
	.size	_ZGVN4asio6detail10call_stackINS0_15task_io_serviceENS0_27task_io_service_thread_infoEE4top_E, 8
_ZGVN4asio6detail10call_stackINS0_15task_io_serviceENS0_27task_io_service_thread_infoEE4top_E:
	.zero	8
	.weak	_ZN4asio6detail12service_baseINS0_14strand_serviceEE2idE
	.section	.bss._ZN4asio6detail12service_baseINS0_14strand_serviceEE2idE,"awG",@nobits,_ZN4asio6detail12service_baseINS0_14strand_serviceEE2idE,comdat
	.type	_ZN4asio6detail12service_baseINS0_14strand_serviceEE2idE, @gnu_unique_object
	.size	_ZN4asio6detail12service_baseINS0_14strand_serviceEE2idE, 1
_ZN4asio6detail12service_baseINS0_14strand_serviceEE2idE:
	.zero	1
	.weak	_ZN4asio6detail10call_stackINS0_14strand_service11strand_implEhE4top_E
	.section	.bss._ZN4asio6detail10call_stackINS0_14strand_service11strand_implEhE4top_E,"awG",@nobits,_ZN4asio6detail10call_stackINS0_14strand_service11strand_implEhE4top_E,comdat
	.type	_ZN4asio6detail10call_stackINS0_14strand_service11strand_implEhE4top_E, @gnu_unique_object
	.size	_ZN4asio6detail10call_stackINS0_14strand_service11strand_implEhE4top_E, 1
_ZN4asio6detail10call_stackINS0_14strand_service11strand_implEhE4top_E:
	.zero	1
	.weak	_ZN4asio6detail12service_baseINS0_15task_io_serviceEE2idE
	.section	.bss._ZN4asio6detail12service_baseINS0_15task_io_serviceEE2idE,"awG",@nobits,_ZN4asio6detail12service_baseINS0_15task_io_serviceEE2idE,comdat
	.type	_ZN4asio6detail12service_baseINS0_15task_io_serviceEE2idE, @gnu_unique_object
	.size	_ZN4asio6detail12service_baseINS0_15task_io_serviceEE2idE, 1
_ZN4asio6detail12service_baseINS0_15task_io_serviceEE2idE:
	.zero	1
	.weak	_ZN4asio6detail12service_baseINS0_13epoll_reactorEE2idE
	.section	.bss._ZN4asio6detail12service_baseINS0_13epoll_reactorEE2idE,"awG",@nobits,_ZN4asio6detail12service_baseINS0_13epoll_reactorEE2idE,comdat
	.type	_ZN4asio6detail12service_baseINS0_13epoll_reactorEE2idE, @gnu_unique_object
	.size	_ZN4asio6detail12service_baseINS0_13epoll_reactorEE2idE, 1
_ZN4asio6detail12service_baseINS0_13epoll_reactorEE2idE:
	.zero	1
	.weak	_ZN4asio6detail10call_stackINS0_15task_io_serviceENS0_27task_io_service_thread_infoEE4top_E
	.section	.bss._ZN4asio6detail10call_stackINS0_15task_io_serviceENS0_27task_io_service_thread_infoEE4top_E,"awG",@nobits,_ZN4asio6detail10call_stackINS0_15task_io_serviceENS0_27task_io_service_thread_infoEE4top_E,comdat
	.type	_ZN4asio6detail10call_stackINS0_15task_io_serviceENS0_27task_io_service_thread_infoEE4top_E, @gnu_unique_object
	.size	_ZN4asio6detail10call_stackINS0_15task_io_serviceENS0_27task_io_service_thread_infoEE4top_E, 1
_ZN4asio6detail10call_stackINS0_15task_io_serviceENS0_27task_io_service_thread_infoEE4top_E:
	.zero	1
	.weak	_ZTSN8opendnp310IFrameSinkE
	.section	.rodata._ZTSN8opendnp310IFrameSinkE,"aG",@progbits,_ZTSN8opendnp310IFrameSinkE,comdat
	.align 16
	.type	_ZTSN8opendnp310IFrameSinkE, @object
	.size	_ZTSN8opendnp310IFrameSinkE, 24
_ZTSN8opendnp310IFrameSinkE:
	.string	"N8opendnp310IFrameSinkE"
	.weak	_ZTIN8opendnp310IFrameSinkE
	.section	.data.rel.ro._ZTIN8opendnp310IFrameSinkE,"awG",@progbits,_ZTIN8opendnp310IFrameSinkE,comdat
	.align 8
	.type	_ZTIN8opendnp310IFrameSinkE, @object
	.size	_ZTIN8opendnp310IFrameSinkE, 16
_ZTIN8opendnp310IFrameSinkE:
	.quad	_ZTVN10__cxxabiv117__class_type_infoE+16
	.quad	_ZTSN8opendnp310IFrameSinkE
	.weak	_ZTSN8opendnp37ILinkTxE
	.section	.rodata._ZTSN8opendnp37ILinkTxE,"aG",@progbits,_ZTSN8opendnp37ILinkTxE,comdat
	.align 16
	.type	_ZTSN8opendnp37ILinkTxE, @object
	.size	_ZTSN8opendnp37ILinkTxE, 20
_ZTSN8opendnp37ILinkTxE:
	.string	"N8opendnp37ILinkTxE"
	.weak	_ZTIN8opendnp37ILinkTxE
	.section	.data.rel.ro._ZTIN8opendnp37ILinkTxE,"awG",@progbits,_ZTIN8opendnp37ILinkTxE,comdat
	.align 8
	.type	_ZTIN8opendnp37ILinkTxE, @object
	.size	_ZTIN8opendnp37ILinkTxE, 16
_ZTIN8opendnp37ILinkTxE:
	.quad	_ZTVN10__cxxabiv117__class_type_infoE+16
	.quad	_ZTSN8opendnp37ILinkTxE
	.weak	_ZTSN4asio6detail15system_categoryE
	.section	.rodata._ZTSN4asio6detail15system_categoryE,"aG",@progbits,_ZTSN4asio6detail15system_categoryE,comdat
	.align 32
	.type	_ZTSN4asio6detail15system_categoryE, @object
	.size	_ZTSN4asio6detail15system_categoryE, 32
_ZTSN4asio6detail15system_categoryE:
	.string	"N4asio6detail15system_categoryE"
	.weak	_ZTIN4asio6detail15system_categoryE
	.section	.data.rel.ro._ZTIN4asio6detail15system_categoryE,"awG",@progbits,_ZTIN4asio6detail15system_categoryE,comdat
	.align 8
	.type	_ZTIN4asio6detail15system_categoryE, @object
	.size	_ZTIN4asio6detail15system_categoryE, 24
_ZTIN4asio6detail15system_categoryE:
	.quad	_ZTVN10__cxxabiv120__si_class_type_infoE+16
	.quad	_ZTSN4asio6detail15system_categoryE
	.quad	_ZTINSt3_V214error_categoryE
	.weak	_ZTSN4asio5error6detail14netdb_categoryE
	.section	.rodata._ZTSN4asio5error6detail14netdb_categoryE,"aG",@progbits,_ZTSN4asio5error6detail14netdb_categoryE,comdat
	.align 32
	.type	_ZTSN4asio5error6detail14netdb_categoryE, @object
	.size	_ZTSN4asio5error6detail14netdb_categoryE, 37
_ZTSN4asio5error6detail14netdb_categoryE:
	.string	"N4asio5error6detail14netdb_categoryE"
	.weak	_ZTIN4asio5error6detail14netdb_categoryE
	.section	.data.rel.ro._ZTIN4asio5error6detail14netdb_categoryE,"awG",@progbits,_ZTIN4asio5error6detail14netdb_categoryE,comdat
	.align 8
	.type	_ZTIN4asio5error6detail14netdb_categoryE, @object
	.size	_ZTIN4asio5error6detail14netdb_categoryE, 24
_ZTIN4asio5error6detail14netdb_categoryE:
	.quad	_ZTVN10__cxxabiv120__si_class_type_infoE+16
	.quad	_ZTSN4asio5error6detail14netdb_categoryE
	.quad	_ZTINSt3_V214error_categoryE
	.weak	_ZTSN4asio5error6detail17addrinfo_categoryE
	.section	.rodata._ZTSN4asio5error6detail17addrinfo_categoryE,"aG",@progbits,_ZTSN4asio5error6detail17addrinfo_categoryE,comdat
	.align 32
	.type	_ZTSN4asio5error6detail17addrinfo_categoryE, @object
	.size	_ZTSN4asio5error6detail17addrinfo_categoryE, 40
_ZTSN4asio5error6detail17addrinfo_categoryE:
	.string	"N4asio5error6detail17addrinfo_categoryE"
	.weak	_ZTIN4asio5error6detail17addrinfo_categoryE
	.section	.data.rel.ro._ZTIN4asio5error6detail17addrinfo_categoryE,"awG",@progbits,_ZTIN4asio5error6detail17addrinfo_categoryE,comdat
	.align 8
	.type	_ZTIN4asio5error6detail17addrinfo_categoryE, @object
	.size	_ZTIN4asio5error6detail17addrinfo_categoryE, 24
_ZTIN4asio5error6detail17addrinfo_categoryE:
	.quad	_ZTVN10__cxxabiv120__si_class_type_infoE+16
	.quad	_ZTSN4asio5error6detail17addrinfo_categoryE
	.quad	_ZTINSt3_V214error_categoryE
	.weak	_ZTSN4asio5error6detail13misc_categoryE
	.section	.rodata._ZTSN4asio5error6detail13misc_categoryE,"aG",@progbits,_ZTSN4asio5error6detail13misc_categoryE,comdat
	.align 32
	.type	_ZTSN4asio5error6detail13misc_categoryE, @object
	.size	_ZTSN4asio5error6detail13misc_categoryE, 36
_ZTSN4asio5error6detail13misc_categoryE:
	.string	"N4asio5error6detail13misc_categoryE"
	.weak	_ZTIN4asio5error6detail13misc_categoryE
	.section	.data.rel.ro._ZTIN4asio5error6detail13misc_categoryE,"awG",@progbits,_ZTIN4asio5error6detail13misc_categoryE,comdat
	.align 8
	.type	_ZTIN4asio5error6detail13misc_categoryE, @object
	.size	_ZTIN4asio5error6detail13misc_categoryE, 24
_ZTIN4asio5error6detail13misc_categoryE:
	.quad	_ZTVN10__cxxabiv120__si_class_type_infoE+16
	.quad	_ZTSN4asio5error6detail13misc_categoryE
	.quad	_ZTINSt3_V214error_categoryE
	.weak	_ZTSN7asiopal9IResourceE
	.section	.rodata._ZTSN7asiopal9IResourceE,"aG",@progbits,_ZTSN7asiopal9IResourceE,comdat
	.align 16
	.type	_ZTSN7asiopal9IResourceE, @object
	.size	_ZTSN7asiopal9IResourceE, 21
_ZTSN7asiopal9IResourceE:
	.string	"N7asiopal9IResourceE"
	.weak	_ZTIN7asiopal9IResourceE
	.section	.data.rel.ro._ZTIN7asiopal9IResourceE,"awG",@progbits,_ZTIN7asiopal9IResourceE,comdat
	.align 8
	.type	_ZTIN7asiopal9IResourceE, @object
	.size	_ZTIN7asiopal9IResourceE, 16
_ZTIN7asiopal9IResourceE:
	.quad	_ZTVN10__cxxabiv117__class_type_infoE+16
	.quad	_ZTSN7asiopal9IResourceE
	.weak	_ZTSN7asiopal17IChannelCallbacksE
	.section	.rodata._ZTSN7asiopal17IChannelCallbacksE,"aG",@progbits,_ZTSN7asiopal17IChannelCallbacksE,comdat
	.align 16
	.type	_ZTSN7asiopal17IChannelCallbacksE, @object
	.size	_ZTSN7asiopal17IChannelCallbacksE, 30
_ZTSN7asiopal17IChannelCallbacksE:
	.string	"N7asiopal17IChannelCallbacksE"
	.weak	_ZTIN7asiopal17IChannelCallbacksE
	.section	.data.rel.ro._ZTIN7asiopal17IChannelCallbacksE,"awG",@progbits,_ZTIN7asiopal17IChannelCallbacksE,comdat
	.align 8
	.type	_ZTIN7asiopal17IChannelCallbacksE, @object
	.size	_ZTIN7asiopal17IChannelCallbacksE, 16
_ZTIN7asiopal17IChannelCallbacksE:
	.quad	_ZTVN10__cxxabiv117__class_type_infoE+16
	.quad	_ZTSN7asiopal17IChannelCallbacksE
	.weak	_ZTSN8asiodnp316ISessionAcceptorE
	.section	.rodata._ZTSN8asiodnp316ISessionAcceptorE,"aG",@progbits,_ZTSN8asiodnp316ISessionAcceptorE,comdat
	.align 16
	.type	_ZTSN8asiodnp316ISessionAcceptorE, @object
	.size	_ZTSN8asiodnp316ISessionAcceptorE, 30
_ZTSN8asiodnp316ISessionAcceptorE:
	.string	"N8asiodnp316ISessionAcceptorE"
	.weak	_ZTIN8asiodnp316ISessionAcceptorE
	.section	.data.rel.ro._ZTIN8asiodnp316ISessionAcceptorE,"awG",@progbits,_ZTIN8asiodnp316ISessionAcceptorE,comdat
	.align 8
	.type	_ZTIN8asiodnp316ISessionAcceptorE, @object
	.size	_ZTIN8asiodnp316ISessionAcceptorE, 16
_ZTIN8asiodnp316ISessionAcceptorE:
	.quad	_ZTVN10__cxxabiv117__class_type_infoE+16
	.quad	_ZTSN8asiodnp316ISessionAcceptorE
	.weak	_ZTSN8asiodnp311LinkSessionE
	.section	.rodata._ZTSN8asiodnp311LinkSessionE,"aG",@progbits,_ZTSN8asiodnp311LinkSessionE,comdat
	.align 16
	.type	_ZTSN8asiodnp311LinkSessionE, @object
	.size	_ZTSN8asiodnp311LinkSessionE, 25
_ZTSN8asiodnp311LinkSessionE:
	.string	"N8asiodnp311LinkSessionE"
	.weak	_ZTIN8asiodnp311LinkSessionE
	.section	.data.rel.ro._ZTIN8asiodnp311LinkSessionE,"awG",@progbits,_ZTIN8asiodnp311LinkSessionE,comdat
	.align 8
	.type	_ZTIN8asiodnp311LinkSessionE, @object
	.size	_ZTIN8asiodnp311LinkSessionE, 136
_ZTIN8asiodnp311LinkSessionE:
	.quad	_ZTVN10__cxxabiv121__vmi_class_type_infoE+16
	.quad	_ZTSN8asiodnp311LinkSessionE
	.long	0
	.long	7
	.quad	_ZTIN8opendnp37ILinkTxE
	.quad	2
	.quad	_ZTIN7asiopal17IChannelCallbacksE
	.quad	2050
	.quad	_ZTIN8opendnp310IFrameSinkE
	.quad	4096
	.quad	_ZTISt23enable_shared_from_thisIN8asiodnp311LinkSessionEE
	.quad	6146
	.quad	_ZTIN7asiopal9IResourceE
	.quad	10242
	.quad	_ZTIN8asiodnp316ISessionAcceptorE
	.quad	12288
	.quad	_ZTIN7openpal10UncopyableE
	.quad	0
	.section	.data.rel.ro,"aw"
	.align 8
	.type	_ZTIZN8asiodnp311LinkSession8ShutdownEvEUlvE_, @object
	.size	_ZTIZN8asiodnp311LinkSession8ShutdownEvEUlvE_, 16
_ZTIZN8asiodnp311LinkSession8ShutdownEvEUlvE_:
	.quad	_ZTVN10__cxxabiv117__class_type_infoE+16
	.quad	_ZTSZN8asiodnp311LinkSession8ShutdownEvEUlvE_
	.section	.rodata
	.align 32
	.type	_ZTSZN8asiodnp311LinkSession8ShutdownEvEUlvE_, @object
	.size	_ZTSZN8asiodnp311LinkSession8ShutdownEvEUlvE_, 43
_ZTSZN8asiodnp311LinkSession8ShutdownEvEUlvE_:
	.string	"*ZN8asiodnp311LinkSession8ShutdownEvEUlvE_"
	.section	.data.rel.ro
	.align 8
	.type	_ZTIZN7openpal8TimerRef5StartIZN8asiodnp311LinkSession5StartEvEUlvE_EEbRKNS_12TimeDurationERKT_EUlvE_, @object
	.size	_ZTIZN7openpal8TimerRef5StartIZN8asiodnp311LinkSession5StartEvEUlvE_EEbRKNS_12TimeDurationERKT_EUlvE_, 16
_ZTIZN7openpal8TimerRef5StartIZN8asiodnp311LinkSession5StartEvEUlvE_EEbRKNS_12TimeDurationERKT_EUlvE_:
	.quad	_ZTVN10__cxxabiv117__class_type_infoE+16
	.quad	_ZTSZN7openpal8TimerRef5StartIZN8asiodnp311LinkSession5StartEvEUlvE_EEbRKNS_12TimeDurationERKT_EUlvE_
	.section	.rodata
	.align 32
	.type	_ZTSZN7openpal8TimerRef5StartIZN8asiodnp311LinkSession5StartEvEUlvE_EEbRKNS_12TimeDurationERKT_EUlvE_, @object
	.size	_ZTSZN7openpal8TimerRef5StartIZN8asiodnp311LinkSession5StartEvEUlvE_EEbRKNS_12TimeDurationERKT_EUlvE_, 99
_ZTSZN7openpal8TimerRef5StartIZN8asiodnp311LinkSession5StartEvEUlvE_EEbRKNS_12TimeDurationERKT_EUlvE_:
	.string	"*ZN7openpal8TimerRef5StartIZN8asiodnp311LinkSession5StartEvEUlvE_EEbRKNS_12TimeDurationERKT_EUlvE_"
	.weak	_ZTVN4asio6detail15system_categoryE
	.section	.data.rel.ro._ZTVN4asio6detail15system_categoryE,"awG",@progbits,_ZTVN4asio6detail15system_categoryE,comdat
	.align 8
	.type	_ZTVN4asio6detail15system_categoryE, @object
	.size	_ZTVN4asio6detail15system_categoryE, 80
_ZTVN4asio6detail15system_categoryE:
	.quad	0
	.quad	_ZTIN4asio6detail15system_categoryE
	.quad	_ZN4asio6detail15system_categoryD1Ev
	.quad	_ZN4asio6detail15system_categoryD0Ev
	.quad	_ZNK4asio6detail15system_category4nameEv
	.quad	_ZNKSt3_V214error_category10_M_messageB5cxx11Ei
	.quad	_ZNK4asio6detail15system_category7messageB5cxx11Ei
	.quad	_ZNKSt3_V214error_category23default_error_conditionEi
	.quad	_ZNKSt3_V214error_category10equivalentEiRKSt15error_condition
	.quad	_ZNKSt3_V214error_category10equivalentERKSt10error_codei
	.weak	_ZTVN4asio5error6detail14netdb_categoryE
	.section	.data.rel.ro._ZTVN4asio5error6detail14netdb_categoryE,"awG",@progbits,_ZTVN4asio5error6detail14netdb_categoryE,comdat
	.align 8
	.type	_ZTVN4asio5error6detail14netdb_categoryE, @object
	.size	_ZTVN4asio5error6detail14netdb_categoryE, 80
_ZTVN4asio5error6detail14netdb_categoryE:
	.quad	0
	.quad	_ZTIN4asio5error6detail14netdb_categoryE
	.quad	_ZN4asio5error6detail14netdb_categoryD1Ev
	.quad	_ZN4asio5error6detail14netdb_categoryD0Ev
	.quad	_ZNK4asio5error6detail14netdb_category4nameEv
	.quad	_ZNKSt3_V214error_category10_M_messageB5cxx11Ei
	.quad	_ZNK4asio5error6detail14netdb_category7messageB5cxx11Ei
	.quad	_ZNKSt3_V214error_category23default_error_conditionEi
	.quad	_ZNKSt3_V214error_category10equivalentEiRKSt15error_condition
	.quad	_ZNKSt3_V214error_category10equivalentERKSt10error_codei
	.weak	_ZTVN4asio5error6detail17addrinfo_categoryE
	.section	.data.rel.ro._ZTVN4asio5error6detail17addrinfo_categoryE,"awG",@progbits,_ZTVN4asio5error6detail17addrinfo_categoryE,comdat
	.align 8
	.type	_ZTVN4asio5error6detail17addrinfo_categoryE, @object
	.size	_ZTVN4asio5error6detail17addrinfo_categoryE, 80
_ZTVN4asio5error6detail17addrinfo_categoryE:
	.quad	0
	.quad	_ZTIN4asio5error6detail17addrinfo_categoryE
	.quad	_ZN4asio5error6detail17addrinfo_categoryD1Ev
	.quad	_ZN4asio5error6detail17addrinfo_categoryD0Ev
	.quad	_ZNK4asio5error6detail17addrinfo_category4nameEv
	.quad	_ZNKSt3_V214error_category10_M_messageB5cxx11Ei
	.quad	_ZNK4asio5error6detail17addrinfo_category7messageB5cxx11Ei
	.quad	_ZNKSt3_V214error_category23default_error_conditionEi
	.quad	_ZNKSt3_V214error_category10equivalentEiRKSt15error_condition
	.quad	_ZNKSt3_V214error_category10equivalentERKSt10error_codei
	.weak	_ZTVN4asio5error6detail13misc_categoryE
	.section	.data.rel.ro._ZTVN4asio5error6detail13misc_categoryE,"awG",@progbits,_ZTVN4asio5error6detail13misc_categoryE,comdat
	.align 8
	.type	_ZTVN4asio5error6detail13misc_categoryE, @object
	.size	_ZTVN4asio5error6detail13misc_categoryE, 80
_ZTVN4asio5error6detail13misc_categoryE:
	.quad	0
	.quad	_ZTIN4asio5error6detail13misc_categoryE
	.quad	_ZN4asio5error6detail13misc_categoryD1Ev
	.quad	_ZN4asio5error6detail13misc_categoryD0Ev
	.quad	_ZNK4asio5error6detail13misc_category4nameEv
	.quad	_ZNKSt3_V214error_category10_M_messageB5cxx11Ei
	.quad	_ZNK4asio5error6detail13misc_category7messageB5cxx11Ei
	.quad	_ZNKSt3_V214error_category23default_error_conditionEi
	.quad	_ZNKSt3_V214error_category10equivalentEiRKSt15error_condition
	.quad	_ZNKSt3_V214error_category10equivalentERKSt10error_codei
	.weak	_ZTVN8asiodnp311LinkSessionE
	.section	.data.rel.ro._ZTVN8asiodnp311LinkSessionE,"awG",@progbits,_ZTVN8asiodnp311LinkSessionE,comdat
	.align 8
	.type	_ZTVN8asiodnp311LinkSessionE, @object
	.size	_ZTVN8asiodnp311LinkSessionE, 248
_ZTVN8asiodnp311LinkSessionE:
	.quad	0
	.quad	_ZTIN8asiodnp311LinkSessionE
	.quad	_ZN8asiodnp311LinkSessionD1Ev
	.quad	_ZN8asiodnp311LinkSessionD0Ev
	.quad	_ZN8asiodnp311LinkSession13BeginTransmitERKN7openpal6RSliceERN8opendnp312ILinkSessionE
	.quad	_ZN8asiodnp311LinkSession8ShutdownEv
	.quad	_ZN8asiodnp311LinkSession14OnReadCompleteERKSt10error_codem
	.quad	_ZN8asiodnp311LinkSession15OnWriteCompleteERKSt10error_codem
	.quad	_ZN8asiodnp311LinkSession7OnFrameERKN8opendnp316LinkHeaderFieldsERKN7openpal6RSliceE
	.quad	_ZN8asiodnp311LinkSession13AcceptSessionERKNSt7__cxx1112basic_stringIcSt11char_traitsIcESaIcEEESt10shared_ptrIN8opendnp311ISOEHandlerEES9_INSA_18IMasterApplicationEERKNS_17MasterStackConfigE
	.quad	-8
	.quad	_ZTIN8asiodnp311LinkSessionE
	.quad	_ZThn8_N8asiodnp311LinkSessionD1Ev
	.quad	_ZThn8_N8asiodnp311LinkSessionD0Ev
	.quad	_ZThn8_N8asiodnp311LinkSession14OnReadCompleteERKSt10error_codem
	.quad	_ZThn8_N8asiodnp311LinkSession15OnWriteCompleteERKSt10error_codem
	.quad	-16
	.quad	_ZTIN8asiodnp311LinkSessionE
	.quad	_ZThn16_N8asiodnp311LinkSessionD1Ev
	.quad	_ZThn16_N8asiodnp311LinkSessionD0Ev
	.quad	_ZThn16_N8asiodnp311LinkSession7OnFrameERKN8opendnp316LinkHeaderFieldsERKN7openpal6RSliceE
	.quad	-40
	.quad	_ZTIN8asiodnp311LinkSessionE
	.quad	_ZThn40_N8asiodnp311LinkSessionD1Ev
	.quad	_ZThn40_N8asiodnp311LinkSessionD0Ev
	.quad	_ZThn40_N8asiodnp311LinkSession8ShutdownEv
	.quad	-48
	.quad	_ZTIN8asiodnp311LinkSessionE
	.quad	_ZThn48_N8asiodnp311LinkSessionD1Ev
	.quad	_ZThn48_N8asiodnp311LinkSessionD0Ev
	.quad	_ZThn48_N8asiodnp311LinkSession13AcceptSessionERKNSt7__cxx1112basic_stringIcSt11char_traitsIcESaIcEEESt10shared_ptrIN8opendnp311ISOEHandlerEES9_INSA_18IMasterApplicationEERKNS_17MasterStackConfigE
	.weak	_ZGVZN4asio5error17get_misc_categoryEvE8instance
	.section	.bss._ZGVZN4asio5error17get_misc_categoryEvE8instance,"awG",@nobits,_ZGVZN4asio5error17get_misc_categoryEvE8instance,comdat
	.align 8
	.type	_ZGVZN4asio5error17get_misc_categoryEvE8instance, @gnu_unique_object
	.size	_ZGVZN4asio5error17get_misc_categoryEvE8instance, 8
_ZGVZN4asio5error17get_misc_categoryEvE8instance:
	.zero	8
	.weak	_ZZN4asio5error17get_misc_categoryEvE8instance
	.section	.data.rel._ZZN4asio5error17get_misc_categoryEvE8instance,"awG",@progbits,_ZZN4asio5error17get_misc_categoryEvE8instance,comdat
	.align 8
	.type	_ZZN4asio5error17get_misc_categoryEvE8instance, @gnu_unique_object
	.size	_ZZN4asio5error17get_misc_categoryEvE8instance, 8
_ZZN4asio5error17get_misc_categoryEvE8instance:
	.quad	_ZTVN4asio5error6detail13misc_categoryE+16
	.weak	_ZGVZN4asio5error21get_addrinfo_categoryEvE8instance
	.section	.bss._ZGVZN4asio5error21get_addrinfo_categoryEvE8instance,"awG",@nobits,_ZGVZN4asio5error21get_addrinfo_categoryEvE8instance,comdat
	.align 8
	.type	_ZGVZN4asio5error21get_addrinfo_categoryEvE8instance, @gnu_unique_object
	.size	_ZGVZN4asio5error21get_addrinfo_categoryEvE8instance, 8
_ZGVZN4asio5error21get_addrinfo_categoryEvE8instance:
	.zero	8
	.weak	_ZZN4asio5error21get_addrinfo_categoryEvE8instance
	.section	.data.rel._ZZN4asio5error21get_addrinfo_categoryEvE8instance,"awG",@progbits,_ZZN4asio5error21get_addrinfo_categoryEvE8instance,comdat
	.align 8
	.type	_ZZN4asio5error21get_addrinfo_categoryEvE8instance, @gnu_unique_object
	.size	_ZZN4asio5error21get_addrinfo_categoryEvE8instance, 8
_ZZN4asio5error21get_addrinfo_categoryEvE8instance:
	.quad	_ZTVN4asio5error6detail17addrinfo_categoryE+16
	.weak	_ZGVZN4asio5error18get_netdb_categoryEvE8instance
	.section	.bss._ZGVZN4asio5error18get_netdb_categoryEvE8instance,"awG",@nobits,_ZGVZN4asio5error18get_netdb_categoryEvE8instance,comdat
	.align 8
	.type	_ZGVZN4asio5error18get_netdb_categoryEvE8instance, @gnu_unique_object
	.size	_ZGVZN4asio5error18get_netdb_categoryEvE8instance, 8
_ZGVZN4asio5error18get_netdb_categoryEvE8instance:
	.zero	8
	.weak	_ZZN4asio5error18get_netdb_categoryEvE8instance
	.section	.data.rel._ZZN4asio5error18get_netdb_categoryEvE8instance,"awG",@progbits,_ZZN4asio5error18get_netdb_categoryEvE8instance,comdat
	.align 8
	.type	_ZZN4asio5error18get_netdb_categoryEvE8instance, @gnu_unique_object
	.size	_ZZN4asio5error18get_netdb_categoryEvE8instance, 8
_ZZN4asio5error18get_netdb_categoryEvE8instance:
	.quad	_ZTVN4asio5error6detail14netdb_categoryE+16
	.weak	_ZGVZN4asio15system_categoryEvE8instance
	.section	.bss._ZGVZN4asio15system_categoryEvE8instance,"awG",@nobits,_ZGVZN4asio15system_categoryEvE8instance,comdat
	.align 8
	.type	_ZGVZN4asio15system_categoryEvE8instance, @gnu_unique_object
	.size	_ZGVZN4asio15system_categoryEvE8instance, 8
_ZGVZN4asio15system_categoryEvE8instance:
	.zero	8
	.weak	_ZZN4asio15system_categoryEvE8instance
	.section	.data.rel._ZZN4asio15system_categoryEvE8instance,"awG",@progbits,_ZZN4asio15system_categoryEvE8instance,comdat
	.align 8
	.type	_ZZN4asio15system_categoryEvE8instance, @gnu_unique_object
	.size	_ZZN4asio15system_categoryEvE8instance, 8
_ZZN4asio15system_categoryEvE8instance:
	.quad	_ZTVN4asio6detail15system_categoryE+16
	.weak	_ZN4asio6detail15keyword_tss_ptrINS0_10call_stackINS0_15task_io_serviceENS0_27task_io_service_thread_infoEE7contextEE6value_E
	.section	.tbss._ZN4asio6detail15keyword_tss_ptrINS0_10call_stackINS0_15task_io_serviceENS0_27task_io_service_thread_infoEE7contextEE6value_E,"awTG",@nobits,_ZN4asio6detail15keyword_tss_ptrINS0_10call_stackINS0_15task_io_serviceENS0_27task_io_service_thread_infoEE7contextEE6value_E,comdat
	.align 8
	.type	_ZN4asio6detail15keyword_tss_ptrINS0_10call_stackINS0_15task_io_serviceENS0_27task_io_service_thread_infoEE7contextEE6value_E, @gnu_unique_object
	.size	_ZN4asio6detail15keyword_tss_ptrINS0_10call_stackINS0_15task_io_serviceENS0_27task_io_service_thread_infoEE7contextEE6value_E, 8
_ZN4asio6detail15keyword_tss_ptrINS0_10call_stackINS0_15task_io_serviceENS0_27task_io_service_thread_infoEE7contextEE6value_E:
	.zero	8
	.weakref	_ZL28__gthrw___pthread_key_createPjPFvPvE,__pthread_key_create
	.section	.rodata.cst16,"aM",@progbits,16
	.align 16
.LC5:
	.quad	8028075772644520015
	.quad	7310593917846626414
	.align 16
.LC6:
	.quad	2334381286471394643
	.quad	7959390400869068654
	.align 16
.LC7:
	.quad	8367816086596579155
	.quad	2338616625292734585
	.align 16
.LC8:
	.quad	7234013753529430881
	.quad	8243030355803531634
	.align 16
.LC9:
	.quad	2338615488418245701
	.quad	7959390400869068654
	.align 16
.LC10:
	.quad	7166182912791242836
	.quad	7214892426067994994
	.align 16
.LC11:
	.quad	2338616625293649263
	.quad	8031165433303558502
	.align 16
.LC12:
	.quad	7810775711721485344
	.quad	7812726531955123045
	.align 16
.LC13:
	.quad	8390045716486254408
	.quad	2891421386351273504
	.align 16
.LC14:
	.quad	7526769937477431150
	.quad	8532478930943832687
	.align 16
.LC15:
	.quad	2340027324477221221
	.quad	7020021577750243169
	.align 16
.LC16:
	.quad	8243123821706831956
	.quad	7809653110584451193
	.align 16
.LC17:
	.quad	2338623170819155049
	.quad	2338324160631043177
	.align 16
.LC18:
	.quad	7311138144931573614
	.quad	7019250824563089696
	.align 16
.LC19:
	.quad	7309955097514876993
	.quad	7809911847770287971
	.align 16
.LC20:
	.quad	2338053693894893669
	.quad	7234314212361855855
	.align 16
.LC21:
	.quad	2334956330985808928
	.quad	7310293695322153316
	.align 16
.LC22:
	.quad	8387231026764149601
	.quad	8245935278387126884
	.hidden	DW.ref.__gxx_personality_v0
	.weak	DW.ref.__gxx_personality_v0
	.section	.data.rel.local.DW.ref.__gxx_personality_v0,"awG",@progbits,DW.ref.__gxx_personality_v0,comdat
	.align 8
	.type	DW.ref.__gxx_personality_v0, @object
	.size	DW.ref.__gxx_personality_v0, 8
DW.ref.__gxx_personality_v0:
	.quad	__gxx_personality_v0
	.hidden	__dso_handle
	.ident	"GCC: (Ubuntu 9.4.0-1ubuntu1~20.04.1) 9.4.0"
	.section	.note.GNU-stack,"",@progbits
	.section	.note.gnu.property,"a"
	.align 8
	.long	 1f - 0f
	.long	 4f - 1f
	.long	 5
0:
	.string	 "GNU"
1:
	.align 8
	.long	 0xc0000002
	.long	 3f - 2f
2:
	.long	 0x3
3:
	.align 8
4:
