	.file	"MasterTasks.cpp"
	.text
	.section	.text._ZNSt23_Sp_counted_ptr_inplaceIN8opendnp313EventScanTaskESaIS1_ELN9__gnu_cxx12_Lock_policyE2EED2Ev,"axG",@progbits,_ZNSt23_Sp_counted_ptr_inplaceIN8opendnp313EventScanTaskESaIS1_ELN9__gnu_cxx12_Lock_policyE2EED5Ev,comdat
	.align 2
	.p2align 4
	.weak	_ZNSt23_Sp_counted_ptr_inplaceIN8opendnp313EventScanTaskESaIS1_ELN9__gnu_cxx12_Lock_policyE2EED2Ev
	.type	_ZNSt23_Sp_counted_ptr_inplaceIN8opendnp313EventScanTaskESaIS1_ELN9__gnu_cxx12_Lock_policyE2EED2Ev, @function
_ZNSt23_Sp_counted_ptr_inplaceIN8opendnp313EventScanTaskESaIS1_ELN9__gnu_cxx12_Lock_policyE2EED2Ev:
.LFB4488:
	.cfi_startproc
	endbr64
	ret
	.cfi_endproc
.LFE4488:
	.size	_ZNSt23_Sp_counted_ptr_inplaceIN8opendnp313EventScanTaskESaIS1_ELN9__gnu_cxx12_Lock_policyE2EED2Ev, .-_ZNSt23_Sp_counted_ptr_inplaceIN8opendnp313EventScanTaskESaIS1_ELN9__gnu_cxx12_Lock_policyE2EED2Ev
	.weak	_ZNSt23_Sp_counted_ptr_inplaceIN8opendnp313EventScanTaskESaIS1_ELN9__gnu_cxx12_Lock_policyE2EED1Ev
	.set	_ZNSt23_Sp_counted_ptr_inplaceIN8opendnp313EventScanTaskESaIS1_ELN9__gnu_cxx12_Lock_policyE2EED1Ev,_ZNSt23_Sp_counted_ptr_inplaceIN8opendnp313EventScanTaskESaIS1_ELN9__gnu_cxx12_Lock_policyE2EED2Ev
	.section	.text._ZNSt23_Sp_counted_ptr_inplaceIN8opendnp318SerialTimeSyncTaskESaIS1_ELN9__gnu_cxx12_Lock_policyE2EED2Ev,"axG",@progbits,_ZNSt23_Sp_counted_ptr_inplaceIN8opendnp318SerialTimeSyncTaskESaIS1_ELN9__gnu_cxx12_Lock_policyE2EED5Ev,comdat
	.align 2
	.p2align 4
	.weak	_ZNSt23_Sp_counted_ptr_inplaceIN8opendnp318SerialTimeSyncTaskESaIS1_ELN9__gnu_cxx12_Lock_policyE2EED2Ev
	.type	_ZNSt23_Sp_counted_ptr_inplaceIN8opendnp318SerialTimeSyncTaskESaIS1_ELN9__gnu_cxx12_Lock_policyE2EED2Ev, @function
_ZNSt23_Sp_counted_ptr_inplaceIN8opendnp318SerialTimeSyncTaskESaIS1_ELN9__gnu_cxx12_Lock_policyE2EED2Ev:
.LFB4495:
	.cfi_startproc
	endbr64
	ret
	.cfi_endproc
.LFE4495:
	.size	_ZNSt23_Sp_counted_ptr_inplaceIN8opendnp318SerialTimeSyncTaskESaIS1_ELN9__gnu_cxx12_Lock_policyE2EED2Ev, .-_ZNSt23_Sp_counted_ptr_inplaceIN8opendnp318SerialTimeSyncTaskESaIS1_ELN9__gnu_cxx12_Lock_policyE2EED2Ev
	.weak	_ZNSt23_Sp_counted_ptr_inplaceIN8opendnp318SerialTimeSyncTaskESaIS1_ELN9__gnu_cxx12_Lock_policyE2EED1Ev
	.set	_ZNSt23_Sp_counted_ptr_inplaceIN8opendnp318SerialTimeSyncTaskESaIS1_ELN9__gnu_cxx12_Lock_policyE2EED1Ev,_ZNSt23_Sp_counted_ptr_inplaceIN8opendnp318SerialTimeSyncTaskESaIS1_ELN9__gnu_cxx12_Lock_policyE2EED2Ev
	.section	.text._ZNSt23_Sp_counted_ptr_inplaceIN8opendnp318SerialTimeSyncTaskESaIS1_ELN9__gnu_cxx12_Lock_policyE2EE10_M_disposeEv,"axG",@progbits,_ZNSt23_Sp_counted_ptr_inplaceIN8opendnp318SerialTimeSyncTaskESaIS1_ELN9__gnu_cxx12_Lock_policyE2EE10_M_disposeEv,comdat
	.align 2
	.p2align 4
	.weak	_ZNSt23_Sp_counted_ptr_inplaceIN8opendnp318SerialTimeSyncTaskESaIS1_ELN9__gnu_cxx12_Lock_policyE2EE10_M_disposeEv
	.type	_ZNSt23_Sp_counted_ptr_inplaceIN8opendnp318SerialTimeSyncTaskESaIS1_ELN9__gnu_cxx12_Lock_policyE2EE10_M_disposeEv, @function
_ZNSt23_Sp_counted_ptr_inplaceIN8opendnp318SerialTimeSyncTaskESaIS1_ELN9__gnu_cxx12_Lock_policyE2EE10_M_disposeEv:
.LFB4498:
	.cfi_startproc
	endbr64
	movq	16(%rdi), %rax
	leaq	16(%rdi), %r8
	movq	%r8, %rdi
	movq	(%rax), %rax
	jmp	*%rax
	.cfi_endproc
.LFE4498:
	.size	_ZNSt23_Sp_counted_ptr_inplaceIN8opendnp318SerialTimeSyncTaskESaIS1_ELN9__gnu_cxx12_Lock_policyE2EE10_M_disposeEv, .-_ZNSt23_Sp_counted_ptr_inplaceIN8opendnp318SerialTimeSyncTaskESaIS1_ELN9__gnu_cxx12_Lock_policyE2EE10_M_disposeEv
	.section	.text._ZNSt23_Sp_counted_ptr_inplaceIN8opendnp322DisableUnsolicitedTaskESaIS1_ELN9__gnu_cxx12_Lock_policyE2EED2Ev,"axG",@progbits,_ZNSt23_Sp_counted_ptr_inplaceIN8opendnp322DisableUnsolicitedTaskESaIS1_ELN9__gnu_cxx12_Lock_policyE2EED5Ev,comdat
	.align 2
	.p2align 4
	.weak	_ZNSt23_Sp_counted_ptr_inplaceIN8opendnp322DisableUnsolicitedTaskESaIS1_ELN9__gnu_cxx12_Lock_policyE2EED2Ev
	.type	_ZNSt23_Sp_counted_ptr_inplaceIN8opendnp322DisableUnsolicitedTaskESaIS1_ELN9__gnu_cxx12_Lock_policyE2EED2Ev, @function
_ZNSt23_Sp_counted_ptr_inplaceIN8opendnp322DisableUnsolicitedTaskESaIS1_ELN9__gnu_cxx12_Lock_policyE2EED2Ev:
.LFB4502:
	.cfi_startproc
	endbr64
	ret
	.cfi_endproc
.LFE4502:
	.size	_ZNSt23_Sp_counted_ptr_inplaceIN8opendnp322DisableUnsolicitedTaskESaIS1_ELN9__gnu_cxx12_Lock_policyE2EED2Ev, .-_ZNSt23_Sp_counted_ptr_inplaceIN8opendnp322DisableUnsolicitedTaskESaIS1_ELN9__gnu_cxx12_Lock_policyE2EED2Ev
	.weak	_ZNSt23_Sp_counted_ptr_inplaceIN8opendnp322DisableUnsolicitedTaskESaIS1_ELN9__gnu_cxx12_Lock_policyE2EED1Ev
	.set	_ZNSt23_Sp_counted_ptr_inplaceIN8opendnp322DisableUnsolicitedTaskESaIS1_ELN9__gnu_cxx12_Lock_policyE2EED1Ev,_ZNSt23_Sp_counted_ptr_inplaceIN8opendnp322DisableUnsolicitedTaskESaIS1_ELN9__gnu_cxx12_Lock_policyE2EED2Ev
	.section	.text._ZNSt23_Sp_counted_ptr_inplaceIN8opendnp320StartupIntegrityPollESaIS1_ELN9__gnu_cxx12_Lock_policyE2EED2Ev,"axG",@progbits,_ZNSt23_Sp_counted_ptr_inplaceIN8opendnp320StartupIntegrityPollESaIS1_ELN9__gnu_cxx12_Lock_policyE2EED5Ev,comdat
	.align 2
	.p2align 4
	.weak	_ZNSt23_Sp_counted_ptr_inplaceIN8opendnp320StartupIntegrityPollESaIS1_ELN9__gnu_cxx12_Lock_policyE2EED2Ev
	.type	_ZNSt23_Sp_counted_ptr_inplaceIN8opendnp320StartupIntegrityPollESaIS1_ELN9__gnu_cxx12_Lock_policyE2EED2Ev, @function
_ZNSt23_Sp_counted_ptr_inplaceIN8opendnp320StartupIntegrityPollESaIS1_ELN9__gnu_cxx12_Lock_policyE2EED2Ev:
.LFB4509:
	.cfi_startproc
	endbr64
	ret
	.cfi_endproc
.LFE4509:
	.size	_ZNSt23_Sp_counted_ptr_inplaceIN8opendnp320StartupIntegrityPollESaIS1_ELN9__gnu_cxx12_Lock_policyE2EED2Ev, .-_ZNSt23_Sp_counted_ptr_inplaceIN8opendnp320StartupIntegrityPollESaIS1_ELN9__gnu_cxx12_Lock_policyE2EED2Ev
	.weak	_ZNSt23_Sp_counted_ptr_inplaceIN8opendnp320StartupIntegrityPollESaIS1_ELN9__gnu_cxx12_Lock_policyE2EED1Ev
	.set	_ZNSt23_Sp_counted_ptr_inplaceIN8opendnp320StartupIntegrityPollESaIS1_ELN9__gnu_cxx12_Lock_policyE2EED1Ev,_ZNSt23_Sp_counted_ptr_inplaceIN8opendnp320StartupIntegrityPollESaIS1_ELN9__gnu_cxx12_Lock_policyE2EED2Ev
	.section	.text._ZNSt23_Sp_counted_ptr_inplaceIN8opendnp315AssignClassTaskESaIS1_ELN9__gnu_cxx12_Lock_policyE2EED2Ev,"axG",@progbits,_ZNSt23_Sp_counted_ptr_inplaceIN8opendnp315AssignClassTaskESaIS1_ELN9__gnu_cxx12_Lock_policyE2EED5Ev,comdat
	.align 2
	.p2align 4
	.weak	_ZNSt23_Sp_counted_ptr_inplaceIN8opendnp315AssignClassTaskESaIS1_ELN9__gnu_cxx12_Lock_policyE2EED2Ev
	.type	_ZNSt23_Sp_counted_ptr_inplaceIN8opendnp315AssignClassTaskESaIS1_ELN9__gnu_cxx12_Lock_policyE2EED2Ev, @function
_ZNSt23_Sp_counted_ptr_inplaceIN8opendnp315AssignClassTaskESaIS1_ELN9__gnu_cxx12_Lock_policyE2EED2Ev:
.LFB4516:
	.cfi_startproc
	endbr64
	ret
	.cfi_endproc
.LFE4516:
	.size	_ZNSt23_Sp_counted_ptr_inplaceIN8opendnp315AssignClassTaskESaIS1_ELN9__gnu_cxx12_Lock_policyE2EED2Ev, .-_ZNSt23_Sp_counted_ptr_inplaceIN8opendnp315AssignClassTaskESaIS1_ELN9__gnu_cxx12_Lock_policyE2EED2Ev
	.weak	_ZNSt23_Sp_counted_ptr_inplaceIN8opendnp315AssignClassTaskESaIS1_ELN9__gnu_cxx12_Lock_policyE2EED1Ev
	.set	_ZNSt23_Sp_counted_ptr_inplaceIN8opendnp315AssignClassTaskESaIS1_ELN9__gnu_cxx12_Lock_policyE2EED1Ev,_ZNSt23_Sp_counted_ptr_inplaceIN8opendnp315AssignClassTaskESaIS1_ELN9__gnu_cxx12_Lock_policyE2EED2Ev
	.section	.text._ZNSt23_Sp_counted_ptr_inplaceIN8opendnp316ClearRestartTaskESaIS1_ELN9__gnu_cxx12_Lock_policyE2EED2Ev,"axG",@progbits,_ZNSt23_Sp_counted_ptr_inplaceIN8opendnp316ClearRestartTaskESaIS1_ELN9__gnu_cxx12_Lock_policyE2EED5Ev,comdat
	.align 2
	.p2align 4
	.weak	_ZNSt23_Sp_counted_ptr_inplaceIN8opendnp316ClearRestartTaskESaIS1_ELN9__gnu_cxx12_Lock_policyE2EED2Ev
	.type	_ZNSt23_Sp_counted_ptr_inplaceIN8opendnp316ClearRestartTaskESaIS1_ELN9__gnu_cxx12_Lock_policyE2EED2Ev, @function
_ZNSt23_Sp_counted_ptr_inplaceIN8opendnp316ClearRestartTaskESaIS1_ELN9__gnu_cxx12_Lock_policyE2EED2Ev:
.LFB4523:
	.cfi_startproc
	endbr64
	ret
	.cfi_endproc
.LFE4523:
	.size	_ZNSt23_Sp_counted_ptr_inplaceIN8opendnp316ClearRestartTaskESaIS1_ELN9__gnu_cxx12_Lock_policyE2EED2Ev, .-_ZNSt23_Sp_counted_ptr_inplaceIN8opendnp316ClearRestartTaskESaIS1_ELN9__gnu_cxx12_Lock_policyE2EED2Ev
	.weak	_ZNSt23_Sp_counted_ptr_inplaceIN8opendnp316ClearRestartTaskESaIS1_ELN9__gnu_cxx12_Lock_policyE2EED1Ev
	.set	_ZNSt23_Sp_counted_ptr_inplaceIN8opendnp316ClearRestartTaskESaIS1_ELN9__gnu_cxx12_Lock_policyE2EED1Ev,_ZNSt23_Sp_counted_ptr_inplaceIN8opendnp316ClearRestartTaskESaIS1_ELN9__gnu_cxx12_Lock_policyE2EED2Ev
	.section	.text._ZNSt23_Sp_counted_ptr_inplaceIN8opendnp321EnableUnsolicitedTaskESaIS1_ELN9__gnu_cxx12_Lock_policyE2EED2Ev,"axG",@progbits,_ZNSt23_Sp_counted_ptr_inplaceIN8opendnp321EnableUnsolicitedTaskESaIS1_ELN9__gnu_cxx12_Lock_policyE2EED5Ev,comdat
	.align 2
	.p2align 4
	.weak	_ZNSt23_Sp_counted_ptr_inplaceIN8opendnp321EnableUnsolicitedTaskESaIS1_ELN9__gnu_cxx12_Lock_policyE2EED2Ev
	.type	_ZNSt23_Sp_counted_ptr_inplaceIN8opendnp321EnableUnsolicitedTaskESaIS1_ELN9__gnu_cxx12_Lock_policyE2EED2Ev, @function
_ZNSt23_Sp_counted_ptr_inplaceIN8opendnp321EnableUnsolicitedTaskESaIS1_ELN9__gnu_cxx12_Lock_policyE2EED2Ev:
.LFB4530:
	.cfi_startproc
	endbr64
	ret
	.cfi_endproc
.LFE4530:
	.size	_ZNSt23_Sp_counted_ptr_inplaceIN8opendnp321EnableUnsolicitedTaskESaIS1_ELN9__gnu_cxx12_Lock_policyE2EED2Ev, .-_ZNSt23_Sp_counted_ptr_inplaceIN8opendnp321EnableUnsolicitedTaskESaIS1_ELN9__gnu_cxx12_Lock_policyE2EED2Ev
	.weak	_ZNSt23_Sp_counted_ptr_inplaceIN8opendnp321EnableUnsolicitedTaskESaIS1_ELN9__gnu_cxx12_Lock_policyE2EED1Ev
	.set	_ZNSt23_Sp_counted_ptr_inplaceIN8opendnp321EnableUnsolicitedTaskESaIS1_ELN9__gnu_cxx12_Lock_policyE2EED1Ev,_ZNSt23_Sp_counted_ptr_inplaceIN8opendnp321EnableUnsolicitedTaskESaIS1_ELN9__gnu_cxx12_Lock_policyE2EED2Ev
	.section	.text._ZNSt23_Sp_counted_ptr_inplaceIN8opendnp321EnableUnsolicitedTaskESaIS1_ELN9__gnu_cxx12_Lock_policyE2EE14_M_get_deleterERKSt9type_info,"axG",@progbits,_ZNSt23_Sp_counted_ptr_inplaceIN8opendnp321EnableUnsolicitedTaskESaIS1_ELN9__gnu_cxx12_Lock_policyE2EE14_M_get_deleterERKSt9type_info,comdat
	.align 2
	.p2align 4
	.weak	_ZNSt23_Sp_counted_ptr_inplaceIN8opendnp321EnableUnsolicitedTaskESaIS1_ELN9__gnu_cxx12_Lock_policyE2EE14_M_get_deleterERKSt9type_info
	.type	_ZNSt23_Sp_counted_ptr_inplaceIN8opendnp321EnableUnsolicitedTaskESaIS1_ELN9__gnu_cxx12_Lock_policyE2EE14_M_get_deleterERKSt9type_info, @function
_ZNSt23_Sp_counted_ptr_inplaceIN8opendnp321EnableUnsolicitedTaskESaIS1_ELN9__gnu_cxx12_Lock_policyE2EE14_M_get_deleterERKSt9type_info:
.LFB4535:
	.cfi_startproc
	endbr64
	pushq	%r12
	.cfi_def_cfa_offset 16
	.cfi_offset 12, -16
	pushq	%rbx
	.cfi_def_cfa_offset 24
	.cfi_offset 3, -24
	movq	%rdi, %rbx
	subq	$8, %rsp
	.cfi_def_cfa_offset 32
	cmpq	_ZZNSt19_Sp_make_shared_tag5_S_tiEvE5__tag@GOTPCREL(%rip), %rsi
	je	.L11
	movq	8(%rsi), %rdi
	movq	_ZTSSt19_Sp_make_shared_tag@GOTPCREL(%rip), %rsi
	cmpq	%rsi, %rdi
	je	.L11
	xorl	%r12d, %r12d
	cmpb	$42, (%rdi)
	je	.L10
	call	strcmp@PLT
	testl	%eax, %eax
	jne	.L10
.L11:
	leaq	16(%rbx), %r12
.L10:
	addq	$8, %rsp
	.cfi_def_cfa_offset 24
	movq	%r12, %rax
	popq	%rbx
	.cfi_def_cfa_offset 16
	popq	%r12
	.cfi_def_cfa_offset 8
	ret
	.cfi_endproc
.LFE4535:
	.size	_ZNSt23_Sp_counted_ptr_inplaceIN8opendnp321EnableUnsolicitedTaskESaIS1_ELN9__gnu_cxx12_Lock_policyE2EE14_M_get_deleterERKSt9type_info, .-_ZNSt23_Sp_counted_ptr_inplaceIN8opendnp321EnableUnsolicitedTaskESaIS1_ELN9__gnu_cxx12_Lock_policyE2EE14_M_get_deleterERKSt9type_info
	.section	.text._ZNSt23_Sp_counted_ptr_inplaceIN8opendnp316ClearRestartTaskESaIS1_ELN9__gnu_cxx12_Lock_policyE2EE14_M_get_deleterERKSt9type_info,"axG",@progbits,_ZNSt23_Sp_counted_ptr_inplaceIN8opendnp316ClearRestartTaskESaIS1_ELN9__gnu_cxx12_Lock_policyE2EE14_M_get_deleterERKSt9type_info,comdat
	.align 2
	.p2align 4
	.weak	_ZNSt23_Sp_counted_ptr_inplaceIN8opendnp316ClearRestartTaskESaIS1_ELN9__gnu_cxx12_Lock_policyE2EE14_M_get_deleterERKSt9type_info
	.type	_ZNSt23_Sp_counted_ptr_inplaceIN8opendnp316ClearRestartTaskESaIS1_ELN9__gnu_cxx12_Lock_policyE2EE14_M_get_deleterERKSt9type_info, @function
_ZNSt23_Sp_counted_ptr_inplaceIN8opendnp316ClearRestartTaskESaIS1_ELN9__gnu_cxx12_Lock_policyE2EE14_M_get_deleterERKSt9type_info:
.LFB4528:
	.cfi_startproc
	endbr64
	pushq	%r12
	.cfi_def_cfa_offset 16
	.cfi_offset 12, -16
	pushq	%rbx
	.cfi_def_cfa_offset 24
	.cfi_offset 3, -24
	movq	%rdi, %rbx
	subq	$8, %rsp
	.cfi_def_cfa_offset 32
	cmpq	_ZZNSt19_Sp_make_shared_tag5_S_tiEvE5__tag@GOTPCREL(%rip), %rsi
	je	.L17
	movq	8(%rsi), %rdi
	movq	_ZTSSt19_Sp_make_shared_tag@GOTPCREL(%rip), %rsi
	cmpq	%rsi, %rdi
	je	.L17
	xorl	%r12d, %r12d
	cmpb	$42, (%rdi)
	je	.L16
	call	strcmp@PLT
	testl	%eax, %eax
	jne	.L16
.L17:
	leaq	16(%rbx), %r12
.L16:
	addq	$8, %rsp
	.cfi_def_cfa_offset 24
	movq	%r12, %rax
	popq	%rbx
	.cfi_def_cfa_offset 16
	popq	%r12
	.cfi_def_cfa_offset 8
	ret
	.cfi_endproc
.LFE4528:
	.size	_ZNSt23_Sp_counted_ptr_inplaceIN8opendnp316ClearRestartTaskESaIS1_ELN9__gnu_cxx12_Lock_policyE2EE14_M_get_deleterERKSt9type_info, .-_ZNSt23_Sp_counted_ptr_inplaceIN8opendnp316ClearRestartTaskESaIS1_ELN9__gnu_cxx12_Lock_policyE2EE14_M_get_deleterERKSt9type_info
	.section	.text._ZNSt23_Sp_counted_ptr_inplaceIN8opendnp315AssignClassTaskESaIS1_ELN9__gnu_cxx12_Lock_policyE2EE14_M_get_deleterERKSt9type_info,"axG",@progbits,_ZNSt23_Sp_counted_ptr_inplaceIN8opendnp315AssignClassTaskESaIS1_ELN9__gnu_cxx12_Lock_policyE2EE14_M_get_deleterERKSt9type_info,comdat
	.align 2
	.p2align 4
	.weak	_ZNSt23_Sp_counted_ptr_inplaceIN8opendnp315AssignClassTaskESaIS1_ELN9__gnu_cxx12_Lock_policyE2EE14_M_get_deleterERKSt9type_info
	.type	_ZNSt23_Sp_counted_ptr_inplaceIN8opendnp315AssignClassTaskESaIS1_ELN9__gnu_cxx12_Lock_policyE2EE14_M_get_deleterERKSt9type_info, @function
_ZNSt23_Sp_counted_ptr_inplaceIN8opendnp315AssignClassTaskESaIS1_ELN9__gnu_cxx12_Lock_policyE2EE14_M_get_deleterERKSt9type_info:
.LFB4521:
	.cfi_startproc
	endbr64
	pushq	%r12
	.cfi_def_cfa_offset 16
	.cfi_offset 12, -16
	pushq	%rbx
	.cfi_def_cfa_offset 24
	.cfi_offset 3, -24
	movq	%rdi, %rbx
	subq	$8, %rsp
	.cfi_def_cfa_offset 32
	cmpq	_ZZNSt19_Sp_make_shared_tag5_S_tiEvE5__tag@GOTPCREL(%rip), %rsi
	je	.L23
	movq	8(%rsi), %rdi
	movq	_ZTSSt19_Sp_make_shared_tag@GOTPCREL(%rip), %rsi
	cmpq	%rsi, %rdi
	je	.L23
	xorl	%r12d, %r12d
	cmpb	$42, (%rdi)
	je	.L22
	call	strcmp@PLT
	testl	%eax, %eax
	jne	.L22
.L23:
	leaq	16(%rbx), %r12
.L22:
	addq	$8, %rsp
	.cfi_def_cfa_offset 24
	movq	%r12, %rax
	popq	%rbx
	.cfi_def_cfa_offset 16
	popq	%r12
	.cfi_def_cfa_offset 8
	ret
	.cfi_endproc
.LFE4521:
	.size	_ZNSt23_Sp_counted_ptr_inplaceIN8opendnp315AssignClassTaskESaIS1_ELN9__gnu_cxx12_Lock_policyE2EE14_M_get_deleterERKSt9type_info, .-_ZNSt23_Sp_counted_ptr_inplaceIN8opendnp315AssignClassTaskESaIS1_ELN9__gnu_cxx12_Lock_policyE2EE14_M_get_deleterERKSt9type_info
	.section	.text._ZNSt23_Sp_counted_ptr_inplaceIN8opendnp320StartupIntegrityPollESaIS1_ELN9__gnu_cxx12_Lock_policyE2EE14_M_get_deleterERKSt9type_info,"axG",@progbits,_ZNSt23_Sp_counted_ptr_inplaceIN8opendnp320StartupIntegrityPollESaIS1_ELN9__gnu_cxx12_Lock_policyE2EE14_M_get_deleterERKSt9type_info,comdat
	.align 2
	.p2align 4
	.weak	_ZNSt23_Sp_counted_ptr_inplaceIN8opendnp320StartupIntegrityPollESaIS1_ELN9__gnu_cxx12_Lock_policyE2EE14_M_get_deleterERKSt9type_info
	.type	_ZNSt23_Sp_counted_ptr_inplaceIN8opendnp320StartupIntegrityPollESaIS1_ELN9__gnu_cxx12_Lock_policyE2EE14_M_get_deleterERKSt9type_info, @function
_ZNSt23_Sp_counted_ptr_inplaceIN8opendnp320StartupIntegrityPollESaIS1_ELN9__gnu_cxx12_Lock_policyE2EE14_M_get_deleterERKSt9type_info:
.LFB4514:
	.cfi_startproc
	endbr64
	pushq	%r12
	.cfi_def_cfa_offset 16
	.cfi_offset 12, -16
	pushq	%rbx
	.cfi_def_cfa_offset 24
	.cfi_offset 3, -24
	movq	%rdi, %rbx
	subq	$8, %rsp
	.cfi_def_cfa_offset 32
	cmpq	_ZZNSt19_Sp_make_shared_tag5_S_tiEvE5__tag@GOTPCREL(%rip), %rsi
	je	.L29
	movq	8(%rsi), %rdi
	movq	_ZTSSt19_Sp_make_shared_tag@GOTPCREL(%rip), %rsi
	cmpq	%rsi, %rdi
	je	.L29
	xorl	%r12d, %r12d
	cmpb	$42, (%rdi)
	je	.L28
	call	strcmp@PLT
	testl	%eax, %eax
	jne	.L28
.L29:
	leaq	16(%rbx), %r12
.L28:
	addq	$8, %rsp
	.cfi_def_cfa_offset 24
	movq	%r12, %rax
	popq	%rbx
	.cfi_def_cfa_offset 16
	popq	%r12
	.cfi_def_cfa_offset 8
	ret
	.cfi_endproc
.LFE4514:
	.size	_ZNSt23_Sp_counted_ptr_inplaceIN8opendnp320StartupIntegrityPollESaIS1_ELN9__gnu_cxx12_Lock_policyE2EE14_M_get_deleterERKSt9type_info, .-_ZNSt23_Sp_counted_ptr_inplaceIN8opendnp320StartupIntegrityPollESaIS1_ELN9__gnu_cxx12_Lock_policyE2EE14_M_get_deleterERKSt9type_info
	.section	.text._ZNSt23_Sp_counted_ptr_inplaceIN8opendnp322DisableUnsolicitedTaskESaIS1_ELN9__gnu_cxx12_Lock_policyE2EE14_M_get_deleterERKSt9type_info,"axG",@progbits,_ZNSt23_Sp_counted_ptr_inplaceIN8opendnp322DisableUnsolicitedTaskESaIS1_ELN9__gnu_cxx12_Lock_policyE2EE14_M_get_deleterERKSt9type_info,comdat
	.align 2
	.p2align 4
	.weak	_ZNSt23_Sp_counted_ptr_inplaceIN8opendnp322DisableUnsolicitedTaskESaIS1_ELN9__gnu_cxx12_Lock_policyE2EE14_M_get_deleterERKSt9type_info
	.type	_ZNSt23_Sp_counted_ptr_inplaceIN8opendnp322DisableUnsolicitedTaskESaIS1_ELN9__gnu_cxx12_Lock_policyE2EE14_M_get_deleterERKSt9type_info, @function
_ZNSt23_Sp_counted_ptr_inplaceIN8opendnp322DisableUnsolicitedTaskESaIS1_ELN9__gnu_cxx12_Lock_policyE2EE14_M_get_deleterERKSt9type_info:
.LFB4507:
	.cfi_startproc
	endbr64
	pushq	%r12
	.cfi_def_cfa_offset 16
	.cfi_offset 12, -16
	pushq	%rbx
	.cfi_def_cfa_offset 24
	.cfi_offset 3, -24
	movq	%rdi, %rbx
	subq	$8, %rsp
	.cfi_def_cfa_offset 32
	cmpq	_ZZNSt19_Sp_make_shared_tag5_S_tiEvE5__tag@GOTPCREL(%rip), %rsi
	je	.L35
	movq	8(%rsi), %rdi
	movq	_ZTSSt19_Sp_make_shared_tag@GOTPCREL(%rip), %rsi
	cmpq	%rsi, %rdi
	je	.L35
	xorl	%r12d, %r12d
	cmpb	$42, (%rdi)
	je	.L34
	call	strcmp@PLT
	testl	%eax, %eax
	jne	.L34
.L35:
	leaq	16(%rbx), %r12
.L34:
	addq	$8, %rsp
	.cfi_def_cfa_offset 24
	movq	%r12, %rax
	popq	%rbx
	.cfi_def_cfa_offset 16
	popq	%r12
	.cfi_def_cfa_offset 8
	ret
	.cfi_endproc
.LFE4507:
	.size	_ZNSt23_Sp_counted_ptr_inplaceIN8opendnp322DisableUnsolicitedTaskESaIS1_ELN9__gnu_cxx12_Lock_policyE2EE14_M_get_deleterERKSt9type_info, .-_ZNSt23_Sp_counted_ptr_inplaceIN8opendnp322DisableUnsolicitedTaskESaIS1_ELN9__gnu_cxx12_Lock_policyE2EE14_M_get_deleterERKSt9type_info
	.section	.text._ZNSt23_Sp_counted_ptr_inplaceIN8opendnp318SerialTimeSyncTaskESaIS1_ELN9__gnu_cxx12_Lock_policyE2EE14_M_get_deleterERKSt9type_info,"axG",@progbits,_ZNSt23_Sp_counted_ptr_inplaceIN8opendnp318SerialTimeSyncTaskESaIS1_ELN9__gnu_cxx12_Lock_policyE2EE14_M_get_deleterERKSt9type_info,comdat
	.align 2
	.p2align 4
	.weak	_ZNSt23_Sp_counted_ptr_inplaceIN8opendnp318SerialTimeSyncTaskESaIS1_ELN9__gnu_cxx12_Lock_policyE2EE14_M_get_deleterERKSt9type_info
	.type	_ZNSt23_Sp_counted_ptr_inplaceIN8opendnp318SerialTimeSyncTaskESaIS1_ELN9__gnu_cxx12_Lock_policyE2EE14_M_get_deleterERKSt9type_info, @function
_ZNSt23_Sp_counted_ptr_inplaceIN8opendnp318SerialTimeSyncTaskESaIS1_ELN9__gnu_cxx12_Lock_policyE2EE14_M_get_deleterERKSt9type_info:
.LFB4500:
	.cfi_startproc
	endbr64
	pushq	%r12
	.cfi_def_cfa_offset 16
	.cfi_offset 12, -16
	pushq	%rbx
	.cfi_def_cfa_offset 24
	.cfi_offset 3, -24
	movq	%rdi, %rbx
	subq	$8, %rsp
	.cfi_def_cfa_offset 32
	cmpq	_ZZNSt19_Sp_make_shared_tag5_S_tiEvE5__tag@GOTPCREL(%rip), %rsi
	je	.L41
	movq	8(%rsi), %rdi
	movq	_ZTSSt19_Sp_make_shared_tag@GOTPCREL(%rip), %rsi
	cmpq	%rsi, %rdi
	je	.L41
	xorl	%r12d, %r12d
	cmpb	$42, (%rdi)
	je	.L40
	call	strcmp@PLT
	testl	%eax, %eax
	jne	.L40
.L41:
	leaq	16(%rbx), %r12
.L40:
	addq	$8, %rsp
	.cfi_def_cfa_offset 24
	movq	%r12, %rax
	popq	%rbx
	.cfi_def_cfa_offset 16
	popq	%r12
	.cfi_def_cfa_offset 8
	ret
	.cfi_endproc
.LFE4500:
	.size	_ZNSt23_Sp_counted_ptr_inplaceIN8opendnp318SerialTimeSyncTaskESaIS1_ELN9__gnu_cxx12_Lock_policyE2EE14_M_get_deleterERKSt9type_info, .-_ZNSt23_Sp_counted_ptr_inplaceIN8opendnp318SerialTimeSyncTaskESaIS1_ELN9__gnu_cxx12_Lock_policyE2EE14_M_get_deleterERKSt9type_info
	.section	.text._ZNSt23_Sp_counted_ptr_inplaceIN8opendnp313EventScanTaskESaIS1_ELN9__gnu_cxx12_Lock_policyE2EE14_M_get_deleterERKSt9type_info,"axG",@progbits,_ZNSt23_Sp_counted_ptr_inplaceIN8opendnp313EventScanTaskESaIS1_ELN9__gnu_cxx12_Lock_policyE2EE14_M_get_deleterERKSt9type_info,comdat
	.align 2
	.p2align 4
	.weak	_ZNSt23_Sp_counted_ptr_inplaceIN8opendnp313EventScanTaskESaIS1_ELN9__gnu_cxx12_Lock_policyE2EE14_M_get_deleterERKSt9type_info
	.type	_ZNSt23_Sp_counted_ptr_inplaceIN8opendnp313EventScanTaskESaIS1_ELN9__gnu_cxx12_Lock_policyE2EE14_M_get_deleterERKSt9type_info, @function
_ZNSt23_Sp_counted_ptr_inplaceIN8opendnp313EventScanTaskESaIS1_ELN9__gnu_cxx12_Lock_policyE2EE14_M_get_deleterERKSt9type_info:
.LFB4493:
	.cfi_startproc
	endbr64
	pushq	%r12
	.cfi_def_cfa_offset 16
	.cfi_offset 12, -16
	pushq	%rbx
	.cfi_def_cfa_offset 24
	.cfi_offset 3, -24
	movq	%rdi, %rbx
	subq	$8, %rsp
	.cfi_def_cfa_offset 32
	cmpq	_ZZNSt19_Sp_make_shared_tag5_S_tiEvE5__tag@GOTPCREL(%rip), %rsi
	je	.L47
	movq	8(%rsi), %rdi
	movq	_ZTSSt19_Sp_make_shared_tag@GOTPCREL(%rip), %rsi
	cmpq	%rsi, %rdi
	je	.L47
	xorl	%r12d, %r12d
	cmpb	$42, (%rdi)
	je	.L46
	call	strcmp@PLT
	testl	%eax, %eax
	jne	.L46
.L47:
	leaq	16(%rbx), %r12
.L46:
	addq	$8, %rsp
	.cfi_def_cfa_offset 24
	movq	%r12, %rax
	popq	%rbx
	.cfi_def_cfa_offset 16
	popq	%r12
	.cfi_def_cfa_offset 8
	ret
	.cfi_endproc
.LFE4493:
	.size	_ZNSt23_Sp_counted_ptr_inplaceIN8opendnp313EventScanTaskESaIS1_ELN9__gnu_cxx12_Lock_policyE2EE14_M_get_deleterERKSt9type_info, .-_ZNSt23_Sp_counted_ptr_inplaceIN8opendnp313EventScanTaskESaIS1_ELN9__gnu_cxx12_Lock_policyE2EE14_M_get_deleterERKSt9type_info
	.section	.text._ZNSt23_Sp_counted_ptr_inplaceIN8opendnp313EventScanTaskESaIS1_ELN9__gnu_cxx12_Lock_policyE2EE10_M_disposeEv,"axG",@progbits,_ZNSt23_Sp_counted_ptr_inplaceIN8opendnp313EventScanTaskESaIS1_ELN9__gnu_cxx12_Lock_policyE2EE10_M_disposeEv,comdat
	.align 2
	.p2align 4
	.weak	_ZNSt23_Sp_counted_ptr_inplaceIN8opendnp313EventScanTaskESaIS1_ELN9__gnu_cxx12_Lock_policyE2EE10_M_disposeEv
	.type	_ZNSt23_Sp_counted_ptr_inplaceIN8opendnp313EventScanTaskESaIS1_ELN9__gnu_cxx12_Lock_policyE2EE10_M_disposeEv, @function
_ZNSt23_Sp_counted_ptr_inplaceIN8opendnp313EventScanTaskESaIS1_ELN9__gnu_cxx12_Lock_policyE2EE10_M_disposeEv:
.LFB4491:
	.cfi_startproc
	endbr64
	movq	_ZTVN8opendnp312PollTaskBaseE@GOTPCREL(%rip), %rax
	addq	$16, %rdi
	addq	$16, %rax
	movq	%rax, (%rdi)
	jmp	_ZN8opendnp311IMasterTaskD2Ev@PLT
	.cfi_endproc
.LFE4491:
	.size	_ZNSt23_Sp_counted_ptr_inplaceIN8opendnp313EventScanTaskESaIS1_ELN9__gnu_cxx12_Lock_policyE2EE10_M_disposeEv, .-_ZNSt23_Sp_counted_ptr_inplaceIN8opendnp313EventScanTaskESaIS1_ELN9__gnu_cxx12_Lock_policyE2EE10_M_disposeEv
	.section	.text._ZNSt23_Sp_counted_ptr_inplaceIN8opendnp322DisableUnsolicitedTaskESaIS1_ELN9__gnu_cxx12_Lock_policyE2EE10_M_disposeEv,"axG",@progbits,_ZNSt23_Sp_counted_ptr_inplaceIN8opendnp322DisableUnsolicitedTaskESaIS1_ELN9__gnu_cxx12_Lock_policyE2EE10_M_disposeEv,comdat
	.align 2
	.p2align 4
	.weak	_ZNSt23_Sp_counted_ptr_inplaceIN8opendnp322DisableUnsolicitedTaskESaIS1_ELN9__gnu_cxx12_Lock_policyE2EE10_M_disposeEv
	.type	_ZNSt23_Sp_counted_ptr_inplaceIN8opendnp322DisableUnsolicitedTaskESaIS1_ELN9__gnu_cxx12_Lock_policyE2EE10_M_disposeEv, @function
_ZNSt23_Sp_counted_ptr_inplaceIN8opendnp322DisableUnsolicitedTaskESaIS1_ELN9__gnu_cxx12_Lock_policyE2EE10_M_disposeEv:
.LFB4505:
	.cfi_startproc
	endbr64
	movq	_ZTVN8opendnp322DisableUnsolicitedTaskE@GOTPCREL(%rip), %rax
	addq	$16, %rdi
	addq	$16, %rax
	movq	%rax, (%rdi)
	jmp	_ZN8opendnp311IMasterTaskD2Ev@PLT
	.cfi_endproc
.LFE4505:
	.size	_ZNSt23_Sp_counted_ptr_inplaceIN8opendnp322DisableUnsolicitedTaskESaIS1_ELN9__gnu_cxx12_Lock_policyE2EE10_M_disposeEv, .-_ZNSt23_Sp_counted_ptr_inplaceIN8opendnp322DisableUnsolicitedTaskESaIS1_ELN9__gnu_cxx12_Lock_policyE2EE10_M_disposeEv
	.section	.text._ZNSt23_Sp_counted_ptr_inplaceIN8opendnp320StartupIntegrityPollESaIS1_ELN9__gnu_cxx12_Lock_policyE2EE10_M_disposeEv,"axG",@progbits,_ZNSt23_Sp_counted_ptr_inplaceIN8opendnp320StartupIntegrityPollESaIS1_ELN9__gnu_cxx12_Lock_policyE2EE10_M_disposeEv,comdat
	.align 2
	.p2align 4
	.weak	_ZNSt23_Sp_counted_ptr_inplaceIN8opendnp320StartupIntegrityPollESaIS1_ELN9__gnu_cxx12_Lock_policyE2EE10_M_disposeEv
	.type	_ZNSt23_Sp_counted_ptr_inplaceIN8opendnp320StartupIntegrityPollESaIS1_ELN9__gnu_cxx12_Lock_policyE2EE10_M_disposeEv, @function
_ZNSt23_Sp_counted_ptr_inplaceIN8opendnp320StartupIntegrityPollESaIS1_ELN9__gnu_cxx12_Lock_policyE2EE10_M_disposeEv:
.LFB4512:
	.cfi_startproc
	endbr64
	movq	_ZTVN8opendnp312PollTaskBaseE@GOTPCREL(%rip), %rax
	addq	$16, %rdi
	addq	$16, %rax
	movq	%rax, (%rdi)
	jmp	_ZN8opendnp311IMasterTaskD2Ev@PLT
	.cfi_endproc
.LFE4512:
	.size	_ZNSt23_Sp_counted_ptr_inplaceIN8opendnp320StartupIntegrityPollESaIS1_ELN9__gnu_cxx12_Lock_policyE2EE10_M_disposeEv, .-_ZNSt23_Sp_counted_ptr_inplaceIN8opendnp320StartupIntegrityPollESaIS1_ELN9__gnu_cxx12_Lock_policyE2EE10_M_disposeEv
	.section	.text._ZNSt23_Sp_counted_ptr_inplaceIN8opendnp315AssignClassTaskESaIS1_ELN9__gnu_cxx12_Lock_policyE2EE10_M_disposeEv,"axG",@progbits,_ZNSt23_Sp_counted_ptr_inplaceIN8opendnp315AssignClassTaskESaIS1_ELN9__gnu_cxx12_Lock_policyE2EE10_M_disposeEv,comdat
	.align 2
	.p2align 4
	.weak	_ZNSt23_Sp_counted_ptr_inplaceIN8opendnp315AssignClassTaskESaIS1_ELN9__gnu_cxx12_Lock_policyE2EE10_M_disposeEv
	.type	_ZNSt23_Sp_counted_ptr_inplaceIN8opendnp315AssignClassTaskESaIS1_ELN9__gnu_cxx12_Lock_policyE2EE10_M_disposeEv, @function
_ZNSt23_Sp_counted_ptr_inplaceIN8opendnp315AssignClassTaskESaIS1_ELN9__gnu_cxx12_Lock_policyE2EE10_M_disposeEv:
.LFB4519:
	.cfi_startproc
	endbr64
	movq	_ZTVN8opendnp315AssignClassTaskE@GOTPCREL(%rip), %rax
	addq	$16, %rdi
	addq	$16, %rax
	movq	%rax, (%rdi)
	jmp	_ZN8opendnp311IMasterTaskD2Ev@PLT
	.cfi_endproc
.LFE4519:
	.size	_ZNSt23_Sp_counted_ptr_inplaceIN8opendnp315AssignClassTaskESaIS1_ELN9__gnu_cxx12_Lock_policyE2EE10_M_disposeEv, .-_ZNSt23_Sp_counted_ptr_inplaceIN8opendnp315AssignClassTaskESaIS1_ELN9__gnu_cxx12_Lock_policyE2EE10_M_disposeEv
	.section	.text._ZNSt23_Sp_counted_ptr_inplaceIN8opendnp316ClearRestartTaskESaIS1_ELN9__gnu_cxx12_Lock_policyE2EE10_M_disposeEv,"axG",@progbits,_ZNSt23_Sp_counted_ptr_inplaceIN8opendnp316ClearRestartTaskESaIS1_ELN9__gnu_cxx12_Lock_policyE2EE10_M_disposeEv,comdat
	.align 2
	.p2align 4
	.weak	_ZNSt23_Sp_counted_ptr_inplaceIN8opendnp316ClearRestartTaskESaIS1_ELN9__gnu_cxx12_Lock_policyE2EE10_M_disposeEv
	.type	_ZNSt23_Sp_counted_ptr_inplaceIN8opendnp316ClearRestartTaskESaIS1_ELN9__gnu_cxx12_Lock_policyE2EE10_M_disposeEv, @function
_ZNSt23_Sp_counted_ptr_inplaceIN8opendnp316ClearRestartTaskESaIS1_ELN9__gnu_cxx12_Lock_policyE2EE10_M_disposeEv:
.LFB4526:
	.cfi_startproc
	endbr64
	movq	_ZTVN8opendnp316ClearRestartTaskE@GOTPCREL(%rip), %rax
	addq	$16, %rdi
	addq	$16, %rax
	movq	%rax, (%rdi)
	jmp	_ZN8opendnp311IMasterTaskD2Ev@PLT
	.cfi_endproc
.LFE4526:
	.size	_ZNSt23_Sp_counted_ptr_inplaceIN8opendnp316ClearRestartTaskESaIS1_ELN9__gnu_cxx12_Lock_policyE2EE10_M_disposeEv, .-_ZNSt23_Sp_counted_ptr_inplaceIN8opendnp316ClearRestartTaskESaIS1_ELN9__gnu_cxx12_Lock_policyE2EE10_M_disposeEv
	.section	.text._ZNSt23_Sp_counted_ptr_inplaceIN8opendnp321EnableUnsolicitedTaskESaIS1_ELN9__gnu_cxx12_Lock_policyE2EE10_M_disposeEv,"axG",@progbits,_ZNSt23_Sp_counted_ptr_inplaceIN8opendnp321EnableUnsolicitedTaskESaIS1_ELN9__gnu_cxx12_Lock_policyE2EE10_M_disposeEv,comdat
	.align 2
	.p2align 4
	.weak	_ZNSt23_Sp_counted_ptr_inplaceIN8opendnp321EnableUnsolicitedTaskESaIS1_ELN9__gnu_cxx12_Lock_policyE2EE10_M_disposeEv
	.type	_ZNSt23_Sp_counted_ptr_inplaceIN8opendnp321EnableUnsolicitedTaskESaIS1_ELN9__gnu_cxx12_Lock_policyE2EE10_M_disposeEv, @function
_ZNSt23_Sp_counted_ptr_inplaceIN8opendnp321EnableUnsolicitedTaskESaIS1_ELN9__gnu_cxx12_Lock_policyE2EE10_M_disposeEv:
.LFB4533:
	.cfi_startproc
	endbr64
	movq	_ZTVN8opendnp321EnableUnsolicitedTaskE@GOTPCREL(%rip), %rax
	addq	$16, %rdi
	addq	$16, %rax
	movq	%rax, (%rdi)
	jmp	_ZN8opendnp311IMasterTaskD2Ev@PLT
	.cfi_endproc
.LFE4533:
	.size	_ZNSt23_Sp_counted_ptr_inplaceIN8opendnp321EnableUnsolicitedTaskESaIS1_ELN9__gnu_cxx12_Lock_policyE2EE10_M_disposeEv, .-_ZNSt23_Sp_counted_ptr_inplaceIN8opendnp321EnableUnsolicitedTaskESaIS1_ELN9__gnu_cxx12_Lock_policyE2EE10_M_disposeEv
	.section	.text._ZNSt23_Sp_counted_ptr_inplaceIN8opendnp321EnableUnsolicitedTaskESaIS1_ELN9__gnu_cxx12_Lock_policyE2EED0Ev,"axG",@progbits,_ZNSt23_Sp_counted_ptr_inplaceIN8opendnp321EnableUnsolicitedTaskESaIS1_ELN9__gnu_cxx12_Lock_policyE2EED5Ev,comdat
	.align 2
	.p2align 4
	.weak	_ZNSt23_Sp_counted_ptr_inplaceIN8opendnp321EnableUnsolicitedTaskESaIS1_ELN9__gnu_cxx12_Lock_policyE2EED0Ev
	.type	_ZNSt23_Sp_counted_ptr_inplaceIN8opendnp321EnableUnsolicitedTaskESaIS1_ELN9__gnu_cxx12_Lock_policyE2EED0Ev, @function
_ZNSt23_Sp_counted_ptr_inplaceIN8opendnp321EnableUnsolicitedTaskESaIS1_ELN9__gnu_cxx12_Lock_policyE2EED0Ev:
.LFB4532:
	.cfi_startproc
	endbr64
	movl	$120, %esi
	jmp	_ZdlPvm@PLT
	.cfi_endproc
.LFE4532:
	.size	_ZNSt23_Sp_counted_ptr_inplaceIN8opendnp321EnableUnsolicitedTaskESaIS1_ELN9__gnu_cxx12_Lock_policyE2EED0Ev, .-_ZNSt23_Sp_counted_ptr_inplaceIN8opendnp321EnableUnsolicitedTaskESaIS1_ELN9__gnu_cxx12_Lock_policyE2EED0Ev
	.section	.text._ZNSt23_Sp_counted_ptr_inplaceIN8opendnp316ClearRestartTaskESaIS1_ELN9__gnu_cxx12_Lock_policyE2EED0Ev,"axG",@progbits,_ZNSt23_Sp_counted_ptr_inplaceIN8opendnp316ClearRestartTaskESaIS1_ELN9__gnu_cxx12_Lock_policyE2EED5Ev,comdat
	.align 2
	.p2align 4
	.weak	_ZNSt23_Sp_counted_ptr_inplaceIN8opendnp316ClearRestartTaskESaIS1_ELN9__gnu_cxx12_Lock_policyE2EED0Ev
	.type	_ZNSt23_Sp_counted_ptr_inplaceIN8opendnp316ClearRestartTaskESaIS1_ELN9__gnu_cxx12_Lock_policyE2EED0Ev, @function
_ZNSt23_Sp_counted_ptr_inplaceIN8opendnp316ClearRestartTaskESaIS1_ELN9__gnu_cxx12_Lock_policyE2EED0Ev:
.LFB4525:
	.cfi_startproc
	endbr64
	movl	$112, %esi
	jmp	_ZdlPvm@PLT
	.cfi_endproc
.LFE4525:
	.size	_ZNSt23_Sp_counted_ptr_inplaceIN8opendnp316ClearRestartTaskESaIS1_ELN9__gnu_cxx12_Lock_policyE2EED0Ev, .-_ZNSt23_Sp_counted_ptr_inplaceIN8opendnp316ClearRestartTaskESaIS1_ELN9__gnu_cxx12_Lock_policyE2EED0Ev
	.section	.text._ZNSt23_Sp_counted_ptr_inplaceIN8opendnp315AssignClassTaskESaIS1_ELN9__gnu_cxx12_Lock_policyE2EED0Ev,"axG",@progbits,_ZNSt23_Sp_counted_ptr_inplaceIN8opendnp315AssignClassTaskESaIS1_ELN9__gnu_cxx12_Lock_policyE2EED5Ev,comdat
	.align 2
	.p2align 4
	.weak	_ZNSt23_Sp_counted_ptr_inplaceIN8opendnp315AssignClassTaskESaIS1_ELN9__gnu_cxx12_Lock_policyE2EED0Ev
	.type	_ZNSt23_Sp_counted_ptr_inplaceIN8opendnp315AssignClassTaskESaIS1_ELN9__gnu_cxx12_Lock_policyE2EED0Ev, @function
_ZNSt23_Sp_counted_ptr_inplaceIN8opendnp315AssignClassTaskESaIS1_ELN9__gnu_cxx12_Lock_policyE2EED0Ev:
.LFB4518:
	.cfi_startproc
	endbr64
	movl	$112, %esi
	jmp	_ZdlPvm@PLT
	.cfi_endproc
.LFE4518:
	.size	_ZNSt23_Sp_counted_ptr_inplaceIN8opendnp315AssignClassTaskESaIS1_ELN9__gnu_cxx12_Lock_policyE2EED0Ev, .-_ZNSt23_Sp_counted_ptr_inplaceIN8opendnp315AssignClassTaskESaIS1_ELN9__gnu_cxx12_Lock_policyE2EED0Ev
	.section	.text._ZNSt23_Sp_counted_ptr_inplaceIN8opendnp320StartupIntegrityPollESaIS1_ELN9__gnu_cxx12_Lock_policyE2EED0Ev,"axG",@progbits,_ZNSt23_Sp_counted_ptr_inplaceIN8opendnp320StartupIntegrityPollESaIS1_ELN9__gnu_cxx12_Lock_policyE2EED5Ev,comdat
	.align 2
	.p2align 4
	.weak	_ZNSt23_Sp_counted_ptr_inplaceIN8opendnp320StartupIntegrityPollESaIS1_ELN9__gnu_cxx12_Lock_policyE2EED0Ev
	.type	_ZNSt23_Sp_counted_ptr_inplaceIN8opendnp320StartupIntegrityPollESaIS1_ELN9__gnu_cxx12_Lock_policyE2EED0Ev, @function
_ZNSt23_Sp_counted_ptr_inplaceIN8opendnp320StartupIntegrityPollESaIS1_ELN9__gnu_cxx12_Lock_policyE2EED0Ev:
.LFB4511:
	.cfi_startproc
	endbr64
	movl	$136, %esi
	jmp	_ZdlPvm@PLT
	.cfi_endproc
.LFE4511:
	.size	_ZNSt23_Sp_counted_ptr_inplaceIN8opendnp320StartupIntegrityPollESaIS1_ELN9__gnu_cxx12_Lock_policyE2EED0Ev, .-_ZNSt23_Sp_counted_ptr_inplaceIN8opendnp320StartupIntegrityPollESaIS1_ELN9__gnu_cxx12_Lock_policyE2EED0Ev
	.section	.text._ZNSt23_Sp_counted_ptr_inplaceIN8opendnp322DisableUnsolicitedTaskESaIS1_ELN9__gnu_cxx12_Lock_policyE2EED0Ev,"axG",@progbits,_ZNSt23_Sp_counted_ptr_inplaceIN8opendnp322DisableUnsolicitedTaskESaIS1_ELN9__gnu_cxx12_Lock_policyE2EED5Ev,comdat
	.align 2
	.p2align 4
	.weak	_ZNSt23_Sp_counted_ptr_inplaceIN8opendnp322DisableUnsolicitedTaskESaIS1_ELN9__gnu_cxx12_Lock_policyE2EED0Ev
	.type	_ZNSt23_Sp_counted_ptr_inplaceIN8opendnp322DisableUnsolicitedTaskESaIS1_ELN9__gnu_cxx12_Lock_policyE2EED0Ev, @function
_ZNSt23_Sp_counted_ptr_inplaceIN8opendnp322DisableUnsolicitedTaskESaIS1_ELN9__gnu_cxx12_Lock_policyE2EED0Ev:
.LFB4504:
	.cfi_startproc
	endbr64
	movl	$120, %esi
	jmp	_ZdlPvm@PLT
	.cfi_endproc
.LFE4504:
	.size	_ZNSt23_Sp_counted_ptr_inplaceIN8opendnp322DisableUnsolicitedTaskESaIS1_ELN9__gnu_cxx12_Lock_policyE2EED0Ev, .-_ZNSt23_Sp_counted_ptr_inplaceIN8opendnp322DisableUnsolicitedTaskESaIS1_ELN9__gnu_cxx12_Lock_policyE2EED0Ev
	.section	.text._ZNSt23_Sp_counted_ptr_inplaceIN8opendnp318SerialTimeSyncTaskESaIS1_ELN9__gnu_cxx12_Lock_policyE2EED0Ev,"axG",@progbits,_ZNSt23_Sp_counted_ptr_inplaceIN8opendnp318SerialTimeSyncTaskESaIS1_ELN9__gnu_cxx12_Lock_policyE2EED5Ev,comdat
	.align 2
	.p2align 4
	.weak	_ZNSt23_Sp_counted_ptr_inplaceIN8opendnp318SerialTimeSyncTaskESaIS1_ELN9__gnu_cxx12_Lock_policyE2EED0Ev
	.type	_ZNSt23_Sp_counted_ptr_inplaceIN8opendnp318SerialTimeSyncTaskESaIS1_ELN9__gnu_cxx12_Lock_policyE2EED0Ev, @function
_ZNSt23_Sp_counted_ptr_inplaceIN8opendnp318SerialTimeSyncTaskESaIS1_ELN9__gnu_cxx12_Lock_policyE2EED0Ev:
.LFB4497:
	.cfi_startproc
	endbr64
	movl	$120, %esi
	jmp	_ZdlPvm@PLT
	.cfi_endproc
.LFE4497:
	.size	_ZNSt23_Sp_counted_ptr_inplaceIN8opendnp318SerialTimeSyncTaskESaIS1_ELN9__gnu_cxx12_Lock_policyE2EED0Ev, .-_ZNSt23_Sp_counted_ptr_inplaceIN8opendnp318SerialTimeSyncTaskESaIS1_ELN9__gnu_cxx12_Lock_policyE2EED0Ev
	.section	.text._ZNSt23_Sp_counted_ptr_inplaceIN8opendnp313EventScanTaskESaIS1_ELN9__gnu_cxx12_Lock_policyE2EED0Ev,"axG",@progbits,_ZNSt23_Sp_counted_ptr_inplaceIN8opendnp313EventScanTaskESaIS1_ELN9__gnu_cxx12_Lock_policyE2EED5Ev,comdat
	.align 2
	.p2align 4
	.weak	_ZNSt23_Sp_counted_ptr_inplaceIN8opendnp313EventScanTaskESaIS1_ELN9__gnu_cxx12_Lock_policyE2EED0Ev
	.type	_ZNSt23_Sp_counted_ptr_inplaceIN8opendnp313EventScanTaskESaIS1_ELN9__gnu_cxx12_Lock_policyE2EED0Ev, @function
_ZNSt23_Sp_counted_ptr_inplaceIN8opendnp313EventScanTaskESaIS1_ELN9__gnu_cxx12_Lock_policyE2EED0Ev:
.LFB4490:
	.cfi_startproc
	endbr64
	movl	$136, %esi
	jmp	_ZdlPvm@PLT
	.cfi_endproc
.LFE4490:
	.size	_ZNSt23_Sp_counted_ptr_inplaceIN8opendnp313EventScanTaskESaIS1_ELN9__gnu_cxx12_Lock_policyE2EED0Ev, .-_ZNSt23_Sp_counted_ptr_inplaceIN8opendnp313EventScanTaskESaIS1_ELN9__gnu_cxx12_Lock_policyE2EED0Ev
	.section	.text._ZNSt23_Sp_counted_ptr_inplaceIN8opendnp313EventScanTaskESaIS1_ELN9__gnu_cxx12_Lock_policyE2EE10_M_destroyEv,"axG",@progbits,_ZNSt23_Sp_counted_ptr_inplaceIN8opendnp313EventScanTaskESaIS1_ELN9__gnu_cxx12_Lock_policyE2EE10_M_destroyEv,comdat
	.align 2
	.p2align 4
	.weak	_ZNSt23_Sp_counted_ptr_inplaceIN8opendnp313EventScanTaskESaIS1_ELN9__gnu_cxx12_Lock_policyE2EE10_M_destroyEv
	.type	_ZNSt23_Sp_counted_ptr_inplaceIN8opendnp313EventScanTaskESaIS1_ELN9__gnu_cxx12_Lock_policyE2EE10_M_destroyEv, @function
_ZNSt23_Sp_counted_ptr_inplaceIN8opendnp313EventScanTaskESaIS1_ELN9__gnu_cxx12_Lock_policyE2EE10_M_destroyEv:
.LFB4492:
	.cfi_startproc
	endbr64
	jmp	_ZdlPv@PLT
	.cfi_endproc
.LFE4492:
	.size	_ZNSt23_Sp_counted_ptr_inplaceIN8opendnp313EventScanTaskESaIS1_ELN9__gnu_cxx12_Lock_policyE2EE10_M_destroyEv, .-_ZNSt23_Sp_counted_ptr_inplaceIN8opendnp313EventScanTaskESaIS1_ELN9__gnu_cxx12_Lock_policyE2EE10_M_destroyEv
	.section	.text._ZNSt23_Sp_counted_ptr_inplaceIN8opendnp318SerialTimeSyncTaskESaIS1_ELN9__gnu_cxx12_Lock_policyE2EE10_M_destroyEv,"axG",@progbits,_ZNSt23_Sp_counted_ptr_inplaceIN8opendnp318SerialTimeSyncTaskESaIS1_ELN9__gnu_cxx12_Lock_policyE2EE10_M_destroyEv,comdat
	.align 2
	.p2align 4
	.weak	_ZNSt23_Sp_counted_ptr_inplaceIN8opendnp318SerialTimeSyncTaskESaIS1_ELN9__gnu_cxx12_Lock_policyE2EE10_M_destroyEv
	.type	_ZNSt23_Sp_counted_ptr_inplaceIN8opendnp318SerialTimeSyncTaskESaIS1_ELN9__gnu_cxx12_Lock_policyE2EE10_M_destroyEv, @function
_ZNSt23_Sp_counted_ptr_inplaceIN8opendnp318SerialTimeSyncTaskESaIS1_ELN9__gnu_cxx12_Lock_policyE2EE10_M_destroyEv:
.LFB4499:
	.cfi_startproc
	endbr64
	jmp	_ZdlPv@PLT
	.cfi_endproc
.LFE4499:
	.size	_ZNSt23_Sp_counted_ptr_inplaceIN8opendnp318SerialTimeSyncTaskESaIS1_ELN9__gnu_cxx12_Lock_policyE2EE10_M_destroyEv, .-_ZNSt23_Sp_counted_ptr_inplaceIN8opendnp318SerialTimeSyncTaskESaIS1_ELN9__gnu_cxx12_Lock_policyE2EE10_M_destroyEv
	.section	.text._ZNSt23_Sp_counted_ptr_inplaceIN8opendnp322DisableUnsolicitedTaskESaIS1_ELN9__gnu_cxx12_Lock_policyE2EE10_M_destroyEv,"axG",@progbits,_ZNSt23_Sp_counted_ptr_inplaceIN8opendnp322DisableUnsolicitedTaskESaIS1_ELN9__gnu_cxx12_Lock_policyE2EE10_M_destroyEv,comdat
	.align 2
	.p2align 4
	.weak	_ZNSt23_Sp_counted_ptr_inplaceIN8opendnp322DisableUnsolicitedTaskESaIS1_ELN9__gnu_cxx12_Lock_policyE2EE10_M_destroyEv
	.type	_ZNSt23_Sp_counted_ptr_inplaceIN8opendnp322DisableUnsolicitedTaskESaIS1_ELN9__gnu_cxx12_Lock_policyE2EE10_M_destroyEv, @function
_ZNSt23_Sp_counted_ptr_inplaceIN8opendnp322DisableUnsolicitedTaskESaIS1_ELN9__gnu_cxx12_Lock_policyE2EE10_M_destroyEv:
.LFB4506:
	.cfi_startproc
	endbr64
	jmp	_ZdlPv@PLT
	.cfi_endproc
.LFE4506:
	.size	_ZNSt23_Sp_counted_ptr_inplaceIN8opendnp322DisableUnsolicitedTaskESaIS1_ELN9__gnu_cxx12_Lock_policyE2EE10_M_destroyEv, .-_ZNSt23_Sp_counted_ptr_inplaceIN8opendnp322DisableUnsolicitedTaskESaIS1_ELN9__gnu_cxx12_Lock_policyE2EE10_M_destroyEv
	.section	.text._ZNSt23_Sp_counted_ptr_inplaceIN8opendnp320StartupIntegrityPollESaIS1_ELN9__gnu_cxx12_Lock_policyE2EE10_M_destroyEv,"axG",@progbits,_ZNSt23_Sp_counted_ptr_inplaceIN8opendnp320StartupIntegrityPollESaIS1_ELN9__gnu_cxx12_Lock_policyE2EE10_M_destroyEv,comdat
	.align 2
	.p2align 4
	.weak	_ZNSt23_Sp_counted_ptr_inplaceIN8opendnp320StartupIntegrityPollESaIS1_ELN9__gnu_cxx12_Lock_policyE2EE10_M_destroyEv
	.type	_ZNSt23_Sp_counted_ptr_inplaceIN8opendnp320StartupIntegrityPollESaIS1_ELN9__gnu_cxx12_Lock_policyE2EE10_M_destroyEv, @function
_ZNSt23_Sp_counted_ptr_inplaceIN8opendnp320StartupIntegrityPollESaIS1_ELN9__gnu_cxx12_Lock_policyE2EE10_M_destroyEv:
.LFB4513:
	.cfi_startproc
	endbr64
	jmp	_ZdlPv@PLT
	.cfi_endproc
.LFE4513:
	.size	_ZNSt23_Sp_counted_ptr_inplaceIN8opendnp320StartupIntegrityPollESaIS1_ELN9__gnu_cxx12_Lock_policyE2EE10_M_destroyEv, .-_ZNSt23_Sp_counted_ptr_inplaceIN8opendnp320StartupIntegrityPollESaIS1_ELN9__gnu_cxx12_Lock_policyE2EE10_M_destroyEv
	.section	.text._ZNSt23_Sp_counted_ptr_inplaceIN8opendnp315AssignClassTaskESaIS1_ELN9__gnu_cxx12_Lock_policyE2EE10_M_destroyEv,"axG",@progbits,_ZNSt23_Sp_counted_ptr_inplaceIN8opendnp315AssignClassTaskESaIS1_ELN9__gnu_cxx12_Lock_policyE2EE10_M_destroyEv,comdat
	.align 2
	.p2align 4
	.weak	_ZNSt23_Sp_counted_ptr_inplaceIN8opendnp315AssignClassTaskESaIS1_ELN9__gnu_cxx12_Lock_policyE2EE10_M_destroyEv
	.type	_ZNSt23_Sp_counted_ptr_inplaceIN8opendnp315AssignClassTaskESaIS1_ELN9__gnu_cxx12_Lock_policyE2EE10_M_destroyEv, @function
_ZNSt23_Sp_counted_ptr_inplaceIN8opendnp315AssignClassTaskESaIS1_ELN9__gnu_cxx12_Lock_policyE2EE10_M_destroyEv:
.LFB4520:
	.cfi_startproc
	endbr64
	jmp	_ZdlPv@PLT
	.cfi_endproc
.LFE4520:
	.size	_ZNSt23_Sp_counted_ptr_inplaceIN8opendnp315AssignClassTaskESaIS1_ELN9__gnu_cxx12_Lock_policyE2EE10_M_destroyEv, .-_ZNSt23_Sp_counted_ptr_inplaceIN8opendnp315AssignClassTaskESaIS1_ELN9__gnu_cxx12_Lock_policyE2EE10_M_destroyEv
	.section	.text._ZNSt23_Sp_counted_ptr_inplaceIN8opendnp316ClearRestartTaskESaIS1_ELN9__gnu_cxx12_Lock_policyE2EE10_M_destroyEv,"axG",@progbits,_ZNSt23_Sp_counted_ptr_inplaceIN8opendnp316ClearRestartTaskESaIS1_ELN9__gnu_cxx12_Lock_policyE2EE10_M_destroyEv,comdat
	.align 2
	.p2align 4
	.weak	_ZNSt23_Sp_counted_ptr_inplaceIN8opendnp316ClearRestartTaskESaIS1_ELN9__gnu_cxx12_Lock_policyE2EE10_M_destroyEv
	.type	_ZNSt23_Sp_counted_ptr_inplaceIN8opendnp316ClearRestartTaskESaIS1_ELN9__gnu_cxx12_Lock_policyE2EE10_M_destroyEv, @function
_ZNSt23_Sp_counted_ptr_inplaceIN8opendnp316ClearRestartTaskESaIS1_ELN9__gnu_cxx12_Lock_policyE2EE10_M_destroyEv:
.LFB4527:
	.cfi_startproc
	endbr64
	jmp	_ZdlPv@PLT
	.cfi_endproc
.LFE4527:
	.size	_ZNSt23_Sp_counted_ptr_inplaceIN8opendnp316ClearRestartTaskESaIS1_ELN9__gnu_cxx12_Lock_policyE2EE10_M_destroyEv, .-_ZNSt23_Sp_counted_ptr_inplaceIN8opendnp316ClearRestartTaskESaIS1_ELN9__gnu_cxx12_Lock_policyE2EE10_M_destroyEv
	.section	.text._ZNSt23_Sp_counted_ptr_inplaceIN8opendnp321EnableUnsolicitedTaskESaIS1_ELN9__gnu_cxx12_Lock_policyE2EE10_M_destroyEv,"axG",@progbits,_ZNSt23_Sp_counted_ptr_inplaceIN8opendnp321EnableUnsolicitedTaskESaIS1_ELN9__gnu_cxx12_Lock_policyE2EE10_M_destroyEv,comdat
	.align 2
	.p2align 4
	.weak	_ZNSt23_Sp_counted_ptr_inplaceIN8opendnp321EnableUnsolicitedTaskESaIS1_ELN9__gnu_cxx12_Lock_policyE2EE10_M_destroyEv
	.type	_ZNSt23_Sp_counted_ptr_inplaceIN8opendnp321EnableUnsolicitedTaskESaIS1_ELN9__gnu_cxx12_Lock_policyE2EE10_M_destroyEv, @function
_ZNSt23_Sp_counted_ptr_inplaceIN8opendnp321EnableUnsolicitedTaskESaIS1_ELN9__gnu_cxx12_Lock_policyE2EE10_M_destroyEv:
.LFB4534:
	.cfi_startproc
	endbr64
	jmp	_ZdlPv@PLT
	.cfi_endproc
.LFE4534:
	.size	_ZNSt23_Sp_counted_ptr_inplaceIN8opendnp321EnableUnsolicitedTaskESaIS1_ELN9__gnu_cxx12_Lock_policyE2EE10_M_destroyEv, .-_ZNSt23_Sp_counted_ptr_inplaceIN8opendnp321EnableUnsolicitedTaskESaIS1_ELN9__gnu_cxx12_Lock_policyE2EE10_M_destroyEv
	.section	.text._ZN7openpal6LoggerD2Ev,"axG",@progbits,_ZN7openpal6LoggerD5Ev,comdat
	.align 2
	.p2align 4
	.weak	_ZN7openpal6LoggerD2Ev
	.type	_ZN7openpal6LoggerD2Ev, @function
_ZN7openpal6LoggerD2Ev:
.LFB2005:
	.cfi_startproc
	endbr64
	pushq	%r12
	.cfi_def_cfa_offset 16
	.cfi_offset 12, -16
	pushq	%rbp
	.cfi_def_cfa_offset 24
	.cfi_offset 6, -24
	pushq	%rbx
	.cfi_def_cfa_offset 32
	.cfi_offset 3, -32
	movq	24(%rdi), %rbp
	movq	%rdi, %rbx
	testq	%rbp, %rbp
	je	.L74
	movq	_ZL28__gthrw___pthread_key_createPjPFvPvE@GOTPCREL(%rip), %r12
	testq	%r12, %r12
	je	.L75
	movl	$-1, %eax
	lock xaddl	%eax, 8(%rbp)
	cmpl	$1, %eax
	je	.L88
	.p2align 4,,10
	.p2align 3
.L74:
	movq	8(%rbx), %rbp
	testq	%rbp, %rbp
	je	.L72
	movq	_ZL28__gthrw___pthread_key_createPjPFvPvE@GOTPCREL(%rip), %r12
	testq	%r12, %r12
	je	.L82
	movl	$-1, %eax
	lock xaddl	%eax, 8(%rbp)
	cmpl	$1, %eax
	je	.L89
.L72:
	popq	%rbx
	.cfi_remember_state
	.cfi_def_cfa_offset 24
	popq	%rbp
	.cfi_def_cfa_offset 16
	popq	%r12
	.cfi_def_cfa_offset 8
	ret
	.p2align 4,,10
	.p2align 3
.L75:
	.cfi_restore_state
	movl	8(%rbp), %eax
	leal	-1(%rax), %edx
	movl	%edx, 8(%rbp)
	cmpl	$1, %eax
	jne	.L74
.L88:
	movq	0(%rbp), %rax
	movq	%rbp, %rdi
	call	*16(%rax)
	testq	%r12, %r12
	je	.L78
	movl	$-1, %eax
	lock xaddl	%eax, 12(%rbp)
.L79:
	cmpl	$1, %eax
	jne	.L74
	movq	0(%rbp), %rax
	movq	%rbp, %rdi
	call	*24(%rax)
	jmp	.L74
	.p2align 4,,10
	.p2align 3
.L82:
	movl	8(%rbp), %eax
	leal	-1(%rax), %edx
	movl	%edx, 8(%rbp)
	cmpl	$1, %eax
	jne	.L72
.L89:
	movq	0(%rbp), %rax
	movq	%rbp, %rdi
	call	*16(%rax)
	testq	%r12, %r12
	je	.L85
	movl	$-1, %eax
	lock xaddl	%eax, 12(%rbp)
.L86:
	cmpl	$1, %eax
	jne	.L72
	movq	0(%rbp), %rax
	popq	%rbx
	.cfi_remember_state
	.cfi_def_cfa_offset 24
	movq	%rbp, %rdi
	popq	%rbp
	.cfi_def_cfa_offset 16
	popq	%r12
	.cfi_def_cfa_offset 8
	movq	24(%rax), %rax
	jmp	*%rax
	.p2align 4,,10
	.p2align 3
.L78:
	.cfi_restore_state
	movl	12(%rbp), %eax
	leal	-1(%rax), %edx
	movl	%edx, 12(%rbp)
	jmp	.L79
	.p2align 4,,10
	.p2align 3
.L85:
	movl	12(%rbp), %eax
	leal	-1(%rax), %edx
	movl	%edx, 12(%rbp)
	jmp	.L86
	.cfi_endproc
.LFE2005:
	.size	_ZN7openpal6LoggerD2Ev, .-_ZN7openpal6LoggerD2Ev
	.weak	_ZN7openpal6LoggerD1Ev
	.set	_ZN7openpal6LoggerD1Ev,_ZN7openpal6LoggerD2Ev
	.section	.text._ZNSt16_Sp_counted_baseILN9__gnu_cxx12_Lock_policyE2EE10_M_releaseEv,"axG",@progbits,_ZNSt16_Sp_counted_baseILN9__gnu_cxx12_Lock_policyE2EE10_M_releaseEv,comdat
	.align 2
	.p2align 4
	.weak	_ZNSt16_Sp_counted_baseILN9__gnu_cxx12_Lock_policyE2EE10_M_releaseEv
	.type	_ZNSt16_Sp_counted_baseILN9__gnu_cxx12_Lock_policyE2EE10_M_releaseEv, @function
_ZNSt16_Sp_counted_baseILN9__gnu_cxx12_Lock_policyE2EE10_M_releaseEv:
.LFB3518:
	.cfi_startproc
	endbr64
	pushq	%rbp
	.cfi_def_cfa_offset 16
	.cfi_offset 6, -16
	movq	%rdi, %rbp
	pushq	%rbx
	.cfi_def_cfa_offset 24
	.cfi_offset 3, -24
	subq	$8, %rsp
	.cfi_def_cfa_offset 32
	movq	_ZL28__gthrw___pthread_key_createPjPFvPvE@GOTPCREL(%rip), %rbx
	testq	%rbx, %rbx
	je	.L91
	movl	$-1, %eax
	lock xaddl	%eax, 8(%rdi)
	cmpl	$1, %eax
	je	.L99
.L90:
	addq	$8, %rsp
	.cfi_remember_state
	.cfi_def_cfa_offset 24
	popq	%rbx
	.cfi_def_cfa_offset 16
	popq	%rbp
	.cfi_def_cfa_offset 8
	ret
	.p2align 4,,10
	.p2align 3
.L91:
	.cfi_restore_state
	movl	8(%rdi), %eax
	leal	-1(%rax), %edx
	movl	%edx, 8(%rdi)
	cmpl	$1, %eax
	jne	.L90
.L99:
	movq	0(%rbp), %rax
	movq	%rbp, %rdi
	call	*16(%rax)
	testq	%rbx, %rbx
	je	.L95
	movl	$-1, %eax
	lock xaddl	%eax, 12(%rbp)
.L96:
	cmpl	$1, %eax
	jne	.L90
	movq	0(%rbp), %rax
	movq	%rbp, %rdi
	movq	24(%rax), %rax
	addq	$8, %rsp
	.cfi_remember_state
	.cfi_def_cfa_offset 24
	popq	%rbx
	.cfi_def_cfa_offset 16
	popq	%rbp
	.cfi_def_cfa_offset 8
	jmp	*%rax
	.p2align 4,,10
	.p2align 3
.L95:
	.cfi_restore_state
	movl	12(%rbp), %eax
	leal	-1(%rax), %edx
	movl	%edx, 12(%rbp)
	jmp	.L96
	.cfi_endproc
.LFE3518:
	.size	_ZNSt16_Sp_counted_baseILN9__gnu_cxx12_Lock_policyE2EE10_M_releaseEv, .-_ZNSt16_Sp_counted_baseILN9__gnu_cxx12_Lock_policyE2EE10_M_releaseEv
	.section	.text.unlikely,"ax",@progbits
	.align 2
.LCOLDB0:
	.text
.LHOTB0:
	.align 2
	.p2align 4
	.globl	_ZN8opendnp311MasterTasks10InitializeERNS_15MasterSchedulerE
	.type	_ZN8opendnp311MasterTasks10InitializeERNS_15MasterSchedulerE, @function
_ZN8opendnp311MasterTasks10InitializeERNS_15MasterSchedulerE:
.LFB3046:
	.cfi_startproc
	.cfi_personality 0x9b,DW.ref.__gxx_personality_v0
	.cfi_lsda 0x1b,.LLSDA3046
	endbr64
	pushq	%r14
	.cfi_def_cfa_offset 16
	.cfi_offset 14, -16
	pushq	%r13
	.cfi_def_cfa_offset 24
	.cfi_offset 13, -24
	pushq	%r12
	.cfi_def_cfa_offset 32
	.cfi_offset 12, -32
	movq	%rsi, %r12
	pushq	%rbp
	.cfi_def_cfa_offset 40
	.cfi_offset 6, -40
	movq	%rdi, %rbp
	pushq	%rbx
	.cfi_def_cfa_offset 48
	.cfi_offset 3, -48
	subq	$32, %rsp
	.cfi_def_cfa_offset 80
	movdqu	(%rdi), %xmm0
	movq	%fs:40, %rax
	movq	%rax, 24(%rsp)
	xorl	%eax, %eax
	movq	8(%rdi), %rax
	movaps	%xmm0, (%rsp)
	testq	%rax, %rax
	je	.L101
	cmpq	$0, _ZL28__gthrw___pthread_key_createPjPFvPvE@GOTPCREL(%rip)
	je	.L102
	lock addl	$1, 8(%rax)
.L101:
	movq	%rsp, %r13
	movq	%r12, %rdi
	movq	%r13, %rsi
.LEHB0:
	call	_ZN8opendnp315MasterScheduler8ScheduleERKSt10shared_ptrINS_11IMasterTaskEE@PLT
.LEHE0:
	movq	8(%rsp), %r14
	testq	%r14, %r14
	je	.L104
	movq	_ZL28__gthrw___pthread_key_createPjPFvPvE@GOTPCREL(%rip), %rbx
	testq	%rbx, %rbx
	je	.L105
	movl	$-1, %eax
	lock xaddl	%eax, 8(%r14)
	cmpl	$1, %eax
	je	.L232
	.p2align 4,,10
	.p2align 3
.L104:
	movdqu	16(%rbp), %xmm1
	movq	24(%rbp), %rax
	movaps	%xmm1, (%rsp)
	testq	%rax, %rax
	je	.L110
	cmpq	$0, _ZL28__gthrw___pthread_key_createPjPFvPvE@GOTPCREL(%rip)
	je	.L111
	lock addl	$1, 8(%rax)
.L110:
	movq	%r13, %rsi
	movq	%r12, %rdi
.LEHB1:
	call	_ZN8opendnp315MasterScheduler8ScheduleERKSt10shared_ptrINS_11IMasterTaskEE@PLT
.LEHE1:
	movq	8(%rsp), %r14
	testq	%r14, %r14
	je	.L113
	movq	_ZL28__gthrw___pthread_key_createPjPFvPvE@GOTPCREL(%rip), %rbx
	testq	%rbx, %rbx
	je	.L114
	movl	$-1, %eax
	lock xaddl	%eax, 8(%r14)
	cmpl	$1, %eax
	je	.L233
	.p2align 4,,10
	.p2align 3
.L113:
	movdqu	32(%rbp), %xmm2
	movq	40(%rbp), %rax
	movaps	%xmm2, (%rsp)
	testq	%rax, %rax
	je	.L119
	cmpq	$0, _ZL28__gthrw___pthread_key_createPjPFvPvE@GOTPCREL(%rip)
	je	.L120
	lock addl	$1, 8(%rax)
.L119:
	movq	%r13, %rsi
	movq	%r12, %rdi
.LEHB2:
	call	_ZN8opendnp315MasterScheduler8ScheduleERKSt10shared_ptrINS_11IMasterTaskEE@PLT
.LEHE2:
	movq	8(%rsp), %r14
	testq	%r14, %r14
	je	.L122
	movq	_ZL28__gthrw___pthread_key_createPjPFvPvE@GOTPCREL(%rip), %rbx
	testq	%rbx, %rbx
	je	.L123
	movl	$-1, %eax
	lock xaddl	%eax, 8(%r14)
	cmpl	$1, %eax
	je	.L234
	.p2align 4,,10
	.p2align 3
.L122:
	movdqu	48(%rbp), %xmm3
	movq	56(%rbp), %rax
	movaps	%xmm3, (%rsp)
	testq	%rax, %rax
	je	.L128
	cmpq	$0, _ZL28__gthrw___pthread_key_createPjPFvPvE@GOTPCREL(%rip)
	je	.L129
	lock addl	$1, 8(%rax)
.L128:
	movq	%r13, %rsi
	movq	%r12, %rdi
.LEHB3:
	call	_ZN8opendnp315MasterScheduler8ScheduleERKSt10shared_ptrINS_11IMasterTaskEE@PLT
.LEHE3:
	movq	8(%rsp), %r14
	testq	%r14, %r14
	je	.L131
	movq	_ZL28__gthrw___pthread_key_createPjPFvPvE@GOTPCREL(%rip), %rbx
	testq	%rbx, %rbx
	je	.L132
	movl	$-1, %eax
	lock xaddl	%eax, 8(%r14)
	cmpl	$1, %eax
	je	.L235
	.p2align 4,,10
	.p2align 3
.L131:
	movdqu	64(%rbp), %xmm4
	movq	72(%rbp), %rax
	movaps	%xmm4, (%rsp)
	testq	%rax, %rax
	je	.L137
	cmpq	$0, _ZL28__gthrw___pthread_key_createPjPFvPvE@GOTPCREL(%rip)
	je	.L138
	lock addl	$1, 8(%rax)
.L137:
	movq	%r13, %rsi
	movq	%r12, %rdi
.LEHB4:
	call	_ZN8opendnp315MasterScheduler8ScheduleERKSt10shared_ptrINS_11IMasterTaskEE@PLT
.LEHE4:
	movq	8(%rsp), %r14
	testq	%r14, %r14
	je	.L140
	movq	_ZL28__gthrw___pthread_key_createPjPFvPvE@GOTPCREL(%rip), %rbx
	testq	%rbx, %rbx
	je	.L141
	movl	$-1, %eax
	lock xaddl	%eax, 8(%r14)
	cmpl	$1, %eax
	je	.L236
	.p2align 4,,10
	.p2align 3
.L140:
	movdqu	80(%rbp), %xmm5
	movq	88(%rbp), %rax
	movaps	%xmm5, (%rsp)
	testq	%rax, %rax
	je	.L146
	cmpq	$0, _ZL28__gthrw___pthread_key_createPjPFvPvE@GOTPCREL(%rip)
	je	.L147
	lock addl	$1, 8(%rax)
.L146:
	movq	%r13, %rsi
	movq	%r12, %rdi
.LEHB5:
	call	_ZN8opendnp315MasterScheduler8ScheduleERKSt10shared_ptrINS_11IMasterTaskEE@PLT
.LEHE5:
	movq	8(%rsp), %r14
	testq	%r14, %r14
	je	.L149
	movq	_ZL28__gthrw___pthread_key_createPjPFvPvE@GOTPCREL(%rip), %rbx
	testq	%rbx, %rbx
	je	.L150
	movl	$-1, %eax
	lock xaddl	%eax, 8(%r14)
	cmpl	$1, %eax
	je	.L237
	.p2align 4,,10
	.p2align 3
.L149:
	movdqu	96(%rbp), %xmm6
	movq	104(%rbp), %rax
	movaps	%xmm6, (%rsp)
	testq	%rax, %rax
	je	.L155
	cmpq	$0, _ZL28__gthrw___pthread_key_createPjPFvPvE@GOTPCREL(%rip)
	je	.L156
	lock addl	$1, 8(%rax)
.L155:
	movq	%r13, %rsi
	movq	%r12, %rdi
.LEHB6:
	call	_ZN8opendnp315MasterScheduler8ScheduleERKSt10shared_ptrINS_11IMasterTaskEE@PLT
.LEHE6:
	movq	8(%rsp), %r13
	testq	%r13, %r13
	je	.L158
	movq	_ZL28__gthrw___pthread_key_createPjPFvPvE@GOTPCREL(%rip), %rbx
	testq	%rbx, %rbx
	je	.L159
	movl	$-1, %eax
	lock xaddl	%eax, 8(%r13)
	cmpl	$1, %eax
	je	.L238
	.p2align 4,,10
	.p2align 3
.L158:
	movq	112(%rbp), %rbx
	movq	120(%rbp), %rbp
	cmpq	%rbx, %rbp
	je	.L100
	.p2align 4,,10
	.p2align 3
.L165:
	movq	%rbx, %rsi
	movq	%r12, %rdi
	addq	$16, %rbx
.LEHB7:
	call	_ZN8opendnp315MasterScheduler8ScheduleERKSt10shared_ptrINS_11IMasterTaskEE@PLT
.LEHE7:
	cmpq	%rbx, %rbp
	jne	.L165
.L100:
	movq	24(%rsp), %rax
	xorq	%fs:40, %rax
	jne	.L239
	addq	$32, %rsp
	.cfi_remember_state
	.cfi_def_cfa_offset 48
	popq	%rbx
	.cfi_def_cfa_offset 40
	popq	%rbp
	.cfi_def_cfa_offset 32
	popq	%r12
	.cfi_def_cfa_offset 24
	popq	%r13
	.cfi_def_cfa_offset 16
	popq	%r14
	.cfi_def_cfa_offset 8
	ret
	.p2align 4,,10
	.p2align 3
.L111:
	.cfi_restore_state
	addl	$1, 8(%rax)
	jmp	.L110
	.p2align 4,,10
	.p2align 3
.L102:
	addl	$1, 8(%rax)
	jmp	.L101
	.p2align 4,,10
	.p2align 3
.L156:
	addl	$1, 8(%rax)
	jmp	.L155
	.p2align 4,,10
	.p2align 3
.L129:
	addl	$1, 8(%rax)
	jmp	.L128
	.p2align 4,,10
	.p2align 3
.L120:
	addl	$1, 8(%rax)
	jmp	.L119
	.p2align 4,,10
	.p2align 3
.L138:
	addl	$1, 8(%rax)
	jmp	.L137
	.p2align 4,,10
	.p2align 3
.L147:
	addl	$1, 8(%rax)
	jmp	.L146
	.p2align 4,,10
	.p2align 3
.L123:
	movl	8(%r14), %eax
	leal	-1(%rax), %edx
	movl	%edx, 8(%r14)
	cmpl	$1, %eax
	jne	.L122
.L234:
	movq	(%r14), %rax
	movq	%r14, %rdi
	call	*16(%rax)
	testq	%rbx, %rbx
	je	.L126
	movl	$-1, %eax
	lock xaddl	%eax, 12(%r14)
.L127:
	cmpl	$1, %eax
	jne	.L122
	movq	(%r14), %rax
	movq	%r14, %rdi
	call	*24(%rax)
	jmp	.L122
	.p2align 4,,10
	.p2align 3
.L132:
	movl	8(%r14), %eax
	leal	-1(%rax), %edx
	movl	%edx, 8(%r14)
	cmpl	$1, %eax
	jne	.L131
.L235:
	movq	(%r14), %rax
	movq	%r14, %rdi
	call	*16(%rax)
	testq	%rbx, %rbx
	je	.L135
	movl	$-1, %eax
	lock xaddl	%eax, 12(%r14)
.L136:
	cmpl	$1, %eax
	jne	.L131
	movq	(%r14), %rax
	movq	%r14, %rdi
	call	*24(%rax)
	jmp	.L131
	.p2align 4,,10
	.p2align 3
.L159:
	movl	8(%r13), %eax
	leal	-1(%rax), %edx
	movl	%edx, 8(%r13)
	cmpl	$1, %eax
	jne	.L158
.L238:
	movq	0(%r13), %rax
	movq	%r13, %rdi
	call	*16(%rax)
	testq	%rbx, %rbx
	je	.L162
	movl	$-1, %eax
	lock xaddl	%eax, 12(%r13)
.L163:
	cmpl	$1, %eax
	jne	.L158
	movq	0(%r13), %rax
	movq	%r13, %rdi
	call	*24(%rax)
	jmp	.L158
	.p2align 4,,10
	.p2align 3
.L105:
	movl	8(%r14), %eax
	leal	-1(%rax), %edx
	movl	%edx, 8(%r14)
	cmpl	$1, %eax
	jne	.L104
.L232:
	movq	(%r14), %rax
	movq	%r14, %rdi
	call	*16(%rax)
	testq	%rbx, %rbx
	je	.L108
	movl	$-1, %eax
	lock xaddl	%eax, 12(%r14)
.L109:
	cmpl	$1, %eax
	jne	.L104
	movq	(%r14), %rax
	movq	%r14, %rdi
	call	*24(%rax)
	jmp	.L104
	.p2align 4,,10
	.p2align 3
.L114:
	movl	8(%r14), %eax
	leal	-1(%rax), %edx
	movl	%edx, 8(%r14)
	cmpl	$1, %eax
	jne	.L113
.L233:
	movq	(%r14), %rax
	movq	%r14, %rdi
	call	*16(%rax)
	testq	%rbx, %rbx
	je	.L117
	movl	$-1, %eax
	lock xaddl	%eax, 12(%r14)
.L118:
	cmpl	$1, %eax
	jne	.L113
	movq	(%r14), %rax
	movq	%r14, %rdi
	call	*24(%rax)
	jmp	.L113
	.p2align 4,,10
	.p2align 3
.L141:
	movl	8(%r14), %eax
	leal	-1(%rax), %edx
	movl	%edx, 8(%r14)
	cmpl	$1, %eax
	jne	.L140
.L236:
	movq	(%r14), %rax
	movq	%r14, %rdi
	call	*16(%rax)
	testq	%rbx, %rbx
	je	.L144
	movl	$-1, %eax
	lock xaddl	%eax, 12(%r14)
.L145:
	cmpl	$1, %eax
	jne	.L140
	movq	(%r14), %rax
	movq	%r14, %rdi
	call	*24(%rax)
	jmp	.L140
	.p2align 4,,10
	.p2align 3
.L150:
	movl	8(%r14), %eax
	leal	-1(%rax), %edx
	movl	%edx, 8(%r14)
	cmpl	$1, %eax
	jne	.L149
.L237:
	movq	(%r14), %rax
	movq	%r14, %rdi
	call	*16(%rax)
	testq	%rbx, %rbx
	je	.L153
	movl	$-1, %eax
	lock xaddl	%eax, 12(%r14)
.L154:
	cmpl	$1, %eax
	jne	.L149
	movq	(%r14), %rax
	movq	%r14, %rdi
	call	*24(%rax)
	jmp	.L149
.L135:
	movl	12(%r14), %eax
	leal	-1(%rax), %edx
	movl	%edx, 12(%r14)
	jmp	.L136
.L117:
	movl	12(%r14), %eax
	leal	-1(%rax), %edx
	movl	%edx, 12(%r14)
	jmp	.L118
.L153:
	movl	12(%r14), %eax
	leal	-1(%rax), %edx
	movl	%edx, 12(%r14)
	jmp	.L154
.L126:
	movl	12(%r14), %eax
	leal	-1(%rax), %edx
	movl	%edx, 12(%r14)
	jmp	.L127
.L144:
	movl	12(%r14), %eax
	leal	-1(%rax), %edx
	movl	%edx, 12(%r14)
	jmp	.L145
.L108:
	movl	12(%r14), %eax
	leal	-1(%rax), %edx
	movl	%edx, 12(%r14)
	jmp	.L109
.L162:
	movl	12(%r13), %eax
	leal	-1(%rax), %edx
	movl	%edx, 12(%r13)
	jmp	.L163
.L239:
	call	__stack_chk_fail@PLT
.L184:
	endbr64
	movq	%rax, %rbp
	jmp	.L172
.L182:
	endbr64
	movq	%rax, %rbp
	jmp	.L168
.L181:
	endbr64
	movq	%rax, %rbp
	jmp	.L166
.L187:
	endbr64
	movq	%rax, %rbp
	jmp	.L178
.L186:
	endbr64
	movq	%rax, %rbp
	jmp	.L176
.L185:
	endbr64
	movq	%rax, %rbp
	jmp	.L174
.L183:
	endbr64
	movq	%rax, %rbp
	jmp	.L170
	.globl	__gxx_personality_v0
	.section	.gcc_except_table,"a",@progbits
.LLSDA3046:
	.byte	0xff
	.byte	0xff
	.byte	0x1
	.uleb128 .LLSDACSE3046-.LLSDACSB3046
.LLSDACSB3046:
	.uleb128 .LEHB0-.LFB3046
	.uleb128 .LEHE0-.LEHB0
	.uleb128 .L181-.LFB3046
	.uleb128 0
	.uleb128 .LEHB1-.LFB3046
	.uleb128 .LEHE1-.LEHB1
	.uleb128 .L182-.LFB3046
	.uleb128 0
	.uleb128 .LEHB2-.LFB3046
	.uleb128 .LEHE2-.LEHB2
	.uleb128 .L183-.LFB3046
	.uleb128 0
	.uleb128 .LEHB3-.LFB3046
	.uleb128 .LEHE3-.LEHB3
	.uleb128 .L184-.LFB3046
	.uleb128 0
	.uleb128 .LEHB4-.LFB3046
	.uleb128 .LEHE4-.LEHB4
	.uleb128 .L185-.LFB3046
	.uleb128 0
	.uleb128 .LEHB5-.LFB3046
	.uleb128 .LEHE5-.LEHB5
	.uleb128 .L186-.LFB3046
	.uleb128 0
	.uleb128 .LEHB6-.LFB3046
	.uleb128 .LEHE6-.LEHB6
	.uleb128 .L187-.LFB3046
	.uleb128 0
	.uleb128 .LEHB7-.LFB3046
	.uleb128 .LEHE7-.LEHB7
	.uleb128 0
	.uleb128 0
.LLSDACSE3046:
	.text
	.cfi_endproc
	.section	.text.unlikely
	.cfi_startproc
	.cfi_personality 0x9b,DW.ref.__gxx_personality_v0
	.cfi_lsda 0x1b,.LLSDAC3046
	.type	_ZN8opendnp311MasterTasks10InitializeERNS_15MasterSchedulerE.cold, @function
_ZN8opendnp311MasterTasks10InitializeERNS_15MasterSchedulerE.cold:
.LFSB3046:
.L172:
	.cfi_def_cfa_offset 80
	.cfi_offset 3, -48
	.cfi_offset 6, -40
	.cfi_offset 12, -32
	.cfi_offset 13, -24
	.cfi_offset 14, -16
	movq	8(%rsp), %rdi
	testq	%rdi, %rdi
	je	.L173
	call	_ZNSt16_Sp_counted_baseILN9__gnu_cxx12_Lock_policyE2EE10_M_releaseEv@PLT
.L173:
	movq	%rbp, %rdi
.LEHB8:
	call	_Unwind_Resume@PLT
.L168:
	movq	8(%rsp), %rdi
	testq	%rdi, %rdi
	je	.L169
	call	_ZNSt16_Sp_counted_baseILN9__gnu_cxx12_Lock_policyE2EE10_M_releaseEv@PLT
.L169:
	movq	%rbp, %rdi
	call	_Unwind_Resume@PLT
.L166:
	movq	8(%rsp), %rdi
	testq	%rdi, %rdi
	je	.L167
	call	_ZNSt16_Sp_counted_baseILN9__gnu_cxx12_Lock_policyE2EE10_M_releaseEv@PLT
.L167:
	movq	%rbp, %rdi
	call	_Unwind_Resume@PLT
.L178:
	movq	8(%rsp), %rdi
	testq	%rdi, %rdi
	je	.L179
	call	_ZNSt16_Sp_counted_baseILN9__gnu_cxx12_Lock_policyE2EE10_M_releaseEv@PLT
.L179:
	movq	%rbp, %rdi
	call	_Unwind_Resume@PLT
.L176:
	movq	8(%rsp), %rdi
	testq	%rdi, %rdi
	je	.L177
	call	_ZNSt16_Sp_counted_baseILN9__gnu_cxx12_Lock_policyE2EE10_M_releaseEv@PLT
.L177:
	movq	%rbp, %rdi
	call	_Unwind_Resume@PLT
.L174:
	movq	8(%rsp), %rdi
	testq	%rdi, %rdi
	je	.L175
	call	_ZNSt16_Sp_counted_baseILN9__gnu_cxx12_Lock_policyE2EE10_M_releaseEv@PLT
.L175:
	movq	%rbp, %rdi
	call	_Unwind_Resume@PLT
.L170:
	movq	8(%rsp), %rdi
	testq	%rdi, %rdi
	je	.L171
	call	_ZNSt16_Sp_counted_baseILN9__gnu_cxx12_Lock_policyE2EE10_M_releaseEv@PLT
.L171:
	movq	%rbp, %rdi
	call	_Unwind_Resume@PLT
.LEHE8:
	.cfi_endproc
.LFE3046:
	.section	.gcc_except_table
.LLSDAC3046:
	.byte	0xff
	.byte	0xff
	.byte	0x1
	.uleb128 .LLSDACSEC3046-.LLSDACSBC3046
.LLSDACSBC3046:
	.uleb128 .LEHB8-.LCOLDB0
	.uleb128 .LEHE8-.LEHB8
	.uleb128 0
	.uleb128 0
.LLSDACSEC3046:
	.section	.text.unlikely
	.text
	.size	_ZN8opendnp311MasterTasks10InitializeERNS_15MasterSchedulerE, .-_ZN8opendnp311MasterTasks10InitializeERNS_15MasterSchedulerE
	.section	.text.unlikely
	.size	_ZN8opendnp311MasterTasks10InitializeERNS_15MasterSchedulerE.cold, .-_ZN8opendnp311MasterTasks10InitializeERNS_15MasterSchedulerE.cold
.LCOLDE0:
	.text
.LHOTE0:
	.section	.text.unlikely
	.align 2
.LCOLDB1:
	.text
.LHOTB1:
	.align 2
	.p2align 4
	.globl	_ZN8opendnp311MasterTasksC2ERKNS_12MasterParamsERKN7openpal6LoggerERNS_18IMasterApplicationERNS_11ISOEHandlerE
	.type	_ZN8opendnp311MasterTasksC2ERKNS_12MasterParamsERKN7openpal6LoggerERNS_18IMasterApplicationERNS_11ISOEHandlerE, @function
_ZN8opendnp311MasterTasksC2ERKNS_12MasterParamsERKN7openpal6LoggerERNS_18IMasterApplicationERNS_11ISOEHandlerE:
.LFB3044:
	.cfi_startproc
	.cfi_personality 0x9b,DW.ref.__gxx_personality_v0
	.cfi_lsda 0x1b,.LLSDA3044
	endbr64
	pushq	%r15
	.cfi_def_cfa_offset 16
	.cfi_offset 15, -16
	pushq	%r14
	.cfi_def_cfa_offset 24
	.cfi_offset 14, -24
	pushq	%r13
	.cfi_def_cfa_offset 32
	.cfi_offset 13, -32
	movq	%rcx, %r13
	pushq	%r12
	.cfi_def_cfa_offset 40
	.cfi_offset 12, -40
	movq	%rsi, %r12
	pushq	%rbp
	.cfi_def_cfa_offset 48
	.cfi_offset 6, -48
	movq	%rdi, %rbp
	pushq	%rbx
	.cfi_def_cfa_offset 56
	.cfi_offset 3, -56
	movq	%rdx, %rbx
	subq	$88, %rsp
	.cfi_def_cfa_offset 144
	movq	%r8, 8(%rsp)
	movq	%fs:40, %rax
	movq	%rax, 72(%rsp)
	xorl	%eax, %eax
	movq	$0, (%rdi)
	movl	$120, %edi
.LEHB9:
	call	_Znwm@PLT
.LEHE9:
	movdqu	(%rbx), %xmm1
	movq	16(%r12), %rcx
	movq	%rax, %rsi
	movq	%rax, 16(%rsp)
	movzbl	11(%r12), %edx
	movabsq	$4294967297, %rax
	movq	%rax, 8(%rsi)
	movq	_ZTVSt23_Sp_counted_ptr_inplaceIN8opendnp321EnableUnsolicitedTaskESaIS1_ELN9__gnu_cxx12_Lock_policyE2EE@GOTPCREL(%rip), %rax
	movaps	%xmm1, 32(%rsp)
	addq	$16, %rax
	movq	%rax, (%rsi)
	leaq	16(%rsi), %rax
	movq	%rax, (%rsp)
	movq	8(%rbx), %rax
	testq	%rax, %rax
	je	.L241
	cmpq	$0, _ZL28__gthrw___pthread_key_createPjPFvPvE@GOTPCREL(%rip)
	je	.L242
	lock addl	$1, 8(%rax)
.L241:
	movdqu	16(%rbx), %xmm2
	movq	24(%rbx), %rax
	movaps	%xmm2, 48(%rsp)
	testq	%rax, %rax
	je	.L243
	cmpq	$0, _ZL28__gthrw___pthread_key_createPjPFvPvE@GOTPCREL(%rip)
	je	.L244
	lock addl	$1, 8(%rax)
.L243:
	leaq	32(%rsp), %r14
	movq	(%rsp), %rdi
	movq	%r13, %rsi
	movq	%r14, %r8
.LEHB10:
	call	_ZN8opendnp321EnableUnsolicitedTaskC1ERNS_18IMasterApplicationENS_10ClassFieldEN7openpal12TimeDurationENS4_6LoggerE@PLT
.LEHE10:
	movq	56(%rsp), %rdi
	testq	%rdi, %rdi
	je	.L246
	movq	_ZL28__gthrw___pthread_key_createPjPFvPvE@GOTPCREL(%rip), %r15
	testq	%r15, %r15
	je	.L247
	movl	$-1, %edx
	lock xaddl	%edx, 8(%rdi)
	cmpl	$1, %edx
	je	.L474
	.p2align 4,,10
	.p2align 3
.L246:
	movq	40(%rsp), %rdi
	testq	%rdi, %rdi
	je	.L253
	movq	_ZL28__gthrw___pthread_key_createPjPFvPvE@GOTPCREL(%rip), %r15
	testq	%r15, %r15
	je	.L254
	movl	$-1, %edx
	lock xaddl	%edx, 8(%rdi)
	cmpl	$1, %edx
	je	.L475
	.p2align 4,,10
	.p2align 3
.L253:
	movq	(%rsp), %xmm0
	movq	$0, 16(%rbp)
	movl	$112, %edi
	movhps	16(%rsp), %xmm0
	movups	%xmm0, 0(%rbp)
.LEHB11:
	call	_Znwm@PLT
.LEHE11:
	movq	%rax, %rsi
	movq	%rax, 16(%rsp)
	movdqu	(%rbx), %xmm3
	movabsq	$4294967297, %rax
	movq	%rax, 8(%rsi)
	movq	_ZTVSt23_Sp_counted_ptr_inplaceIN8opendnp316ClearRestartTaskESaIS1_ELN9__gnu_cxx12_Lock_policyE2EE@GOTPCREL(%rip), %rax
	movq	16(%r12), %rdx
	movaps	%xmm3, 32(%rsp)
	addq	$16, %rax
	movq	%rax, (%rsi)
	leaq	16(%rsi), %rax
	movq	%rax, (%rsp)
	movq	8(%rbx), %rax
	testq	%rax, %rax
	je	.L261
	cmpq	$0, _ZL28__gthrw___pthread_key_createPjPFvPvE@GOTPCREL(%rip)
	je	.L262
	lock addl	$1, 8(%rax)
.L261:
	movdqu	16(%rbx), %xmm4
	movq	24(%rbx), %rax
	movaps	%xmm4, 48(%rsp)
	testq	%rax, %rax
	je	.L263
	cmpq	$0, _ZL28__gthrw___pthread_key_createPjPFvPvE@GOTPCREL(%rip)
	je	.L264
	lock addl	$1, 8(%rax)
.L263:
	movq	(%rsp), %rdi
	movq	%r14, %rcx
	movq	%r13, %rsi
.LEHB12:
	call	_ZN8opendnp316ClearRestartTaskC1ERNS_18IMasterApplicationEN7openpal12TimeDurationENS3_6LoggerE@PLT
.LEHE12:
	movq	56(%rsp), %rdi
	testq	%rdi, %rdi
	je	.L266
	movq	_ZL28__gthrw___pthread_key_createPjPFvPvE@GOTPCREL(%rip), %r15
	testq	%r15, %r15
	je	.L267
	movl	$-1, %edx
	lock xaddl	%edx, 8(%rdi)
	cmpl	$1, %edx
	je	.L476
	.p2align 4,,10
	.p2align 3
.L266:
	movq	40(%rsp), %rdi
	testq	%rdi, %rdi
	je	.L273
	movq	_ZL28__gthrw___pthread_key_createPjPFvPvE@GOTPCREL(%rip), %r15
	testq	%r15, %r15
	je	.L274
	movl	$-1, %edx
	lock xaddl	%edx, 8(%rdi)
	cmpl	$1, %edx
	je	.L477
	.p2align 4,,10
	.p2align 3
.L273:
	movq	(%rsp), %xmm0
	movq	$0, 32(%rbp)
	movl	$112, %edi
	movhps	16(%rsp), %xmm0
	movups	%xmm0, 16(%rbp)
.LEHB13:
	call	_Znwm@PLT
.LEHE13:
	movq	%rax, %rcx
	movq	%rax, 16(%rsp)
	movdqu	(%rbx), %xmm5
	movabsq	$4294967297, %rax
	movq	%rax, 8(%rcx)
	movq	_ZTVSt23_Sp_counted_ptr_inplaceIN8opendnp315AssignClassTaskESaIS1_ELN9__gnu_cxx12_Lock_policyE2EE@GOTPCREL(%rip), %rax
	movq	16(%r12), %rdx
	movaps	%xmm5, 32(%rsp)
	addq	$16, %rax
	movq	%rax, (%rcx)
	leaq	16(%rcx), %rax
	movq	%rax, (%rsp)
	movq	8(%rbx), %rax
	testq	%rax, %rax
	je	.L282
	cmpq	$0, _ZL28__gthrw___pthread_key_createPjPFvPvE@GOTPCREL(%rip)
	je	.L283
	lock addl	$1, 8(%rax)
.L282:
	movdqu	16(%rbx), %xmm6
	movq	24(%rbx), %rax
	movaps	%xmm6, 48(%rsp)
	testq	%rax, %rax
	je	.L284
	cmpq	$0, _ZL28__gthrw___pthread_key_createPjPFvPvE@GOTPCREL(%rip)
	je	.L285
	lock addl	$1, 8(%rax)
.L284:
	movq	(%rsp), %rdi
	movq	%r14, %rcx
	movq	%r13, %rsi
.LEHB14:
	call	_ZN8opendnp315AssignClassTaskC1ERNS_18IMasterApplicationEN7openpal12TimeDurationENS3_6LoggerE@PLT
.LEHE14:
	movq	56(%rsp), %rdi
	testq	%rdi, %rdi
	je	.L287
	movq	_ZL28__gthrw___pthread_key_createPjPFvPvE@GOTPCREL(%rip), %r15
	testq	%r15, %r15
	je	.L288
	movl	$-1, %edx
	lock xaddl	%edx, 8(%rdi)
	cmpl	$1, %edx
	je	.L478
	.p2align 4,,10
	.p2align 3
.L287:
	movq	40(%rsp), %rdi
	testq	%rdi, %rdi
	je	.L294
	movq	_ZL28__gthrw___pthread_key_createPjPFvPvE@GOTPCREL(%rip), %r15
	testq	%r15, %r15
	je	.L295
	movl	$-1, %edx
	lock xaddl	%edx, 8(%rdi)
	cmpl	$1, %edx
	je	.L479
	.p2align 4,,10
	.p2align 3
.L294:
	movq	(%rsp), %xmm0
	movq	$0, 48(%rbp)
	movl	$136, %edi
	movhps	16(%rsp), %xmm0
	movups	%xmm0, 32(%rbp)
.LEHB15:
	call	_Znwm@PLT
.LEHE15:
	movq	%rax, %rsi
	movq	%rax, 16(%rsp)
	movdqu	(%rbx), %xmm7
	movabsq	$4294967297, %rax
	movq	16(%r12), %r8
	movzbl	12(%r12), %ecx
	movq	%rax, 8(%rsi)
	movq	_ZTVSt23_Sp_counted_ptr_inplaceIN8opendnp320StartupIntegrityPollESaIS1_ELN9__gnu_cxx12_Lock_policyE2EE@GOTPCREL(%rip), %rax
	movaps	%xmm7, 32(%rsp)
	addq	$16, %rax
	movq	%rax, (%rsi)
	leaq	16(%rsi), %rax
	movq	%rax, (%rsp)
	movq	8(%rbx), %rax
	testq	%rax, %rax
	je	.L303
	cmpq	$0, _ZL28__gthrw___pthread_key_createPjPFvPvE@GOTPCREL(%rip)
	je	.L304
	lock addl	$1, 8(%rax)
.L303:
	movdqu	16(%rbx), %xmm1
	movq	24(%rbx), %rax
	movaps	%xmm1, 48(%rsp)
	testq	%rax, %rax
	je	.L305
	cmpq	$0, _ZL28__gthrw___pthread_key_createPjPFvPvE@GOTPCREL(%rip)
	je	.L306
	lock addl	$1, 8(%rax)
.L305:
	movq	8(%rsp), %rdx
	movq	(%rsp), %rdi
	movq	%r14, %r9
	movq	%r13, %rsi
.LEHB16:
	call	_ZN8opendnp320StartupIntegrityPollC1ERNS_18IMasterApplicationERNS_11ISOEHandlerENS_10ClassFieldEN7openpal12TimeDurationENS6_6LoggerE@PLT
.LEHE16:
	movq	56(%rsp), %rdi
	testq	%rdi, %rdi
	je	.L308
	movq	_ZL28__gthrw___pthread_key_createPjPFvPvE@GOTPCREL(%rip), %r15
	testq	%r15, %r15
	je	.L309
	movl	$-1, %edx
	lock xaddl	%edx, 8(%rdi)
	cmpl	$1, %edx
	je	.L480
	.p2align 4,,10
	.p2align 3
.L308:
	movq	40(%rsp), %rdi
	testq	%rdi, %rdi
	je	.L315
	movq	_ZL28__gthrw___pthread_key_createPjPFvPvE@GOTPCREL(%rip), %r15
	testq	%r15, %r15
	je	.L316
	movl	$-1, %edx
	lock xaddl	%edx, 8(%rdi)
	cmpl	$1, %edx
	je	.L481
	.p2align 4,,10
	.p2align 3
.L315:
	movq	(%rsp), %xmm0
	movq	$0, 64(%rbp)
	movl	$120, %edi
	movhps	16(%rsp), %xmm0
	movups	%xmm0, 48(%rbp)
.LEHB17:
	call	_Znwm@PLT
.LEHE17:
	movq	%rax, %rcx
	movq	%rax, 16(%rsp)
	movdqu	(%rbx), %xmm2
	movabsq	$4294967297, %rax
	movq	%rax, 8(%rcx)
	movq	_ZTVSt23_Sp_counted_ptr_inplaceIN8opendnp322DisableUnsolicitedTaskESaIS1_ELN9__gnu_cxx12_Lock_policyE2EE@GOTPCREL(%rip), %rax
	movzbl	9(%r12), %edx
	movaps	%xmm2, 32(%rsp)
	addq	$16, %rax
	movq	%rax, (%rcx)
	leaq	16(%rcx), %rax
	movq	16(%r12), %rcx
	movq	%rax, (%rsp)
	movq	8(%rbx), %rax
	testq	%rax, %rax
	je	.L324
	cmpq	$0, _ZL28__gthrw___pthread_key_createPjPFvPvE@GOTPCREL(%rip)
	je	.L325
	lock addl	$1, 8(%rax)
.L324:
	movdqu	16(%rbx), %xmm3
	movq	24(%rbx), %rax
	movaps	%xmm3, 48(%rsp)
	testq	%rax, %rax
	je	.L326
	cmpq	$0, _ZL28__gthrw___pthread_key_createPjPFvPvE@GOTPCREL(%rip)
	je	.L327
	lock addl	$1, 8(%rax)
.L326:
	movq	(%rsp), %rdi
	movq	%r14, %r8
	movq	%r13, %rsi
.LEHB18:
	call	_ZN8opendnp322DisableUnsolicitedTaskC1ERNS_18IMasterApplicationEbN7openpal12TimeDurationENS3_6LoggerE@PLT
.LEHE18:
	movq	56(%rsp), %rdi
	testq	%rdi, %rdi
	je	.L329
	movq	_ZL28__gthrw___pthread_key_createPjPFvPvE@GOTPCREL(%rip), %r15
	testq	%r15, %r15
	je	.L330
	movl	$-1, %edx
	lock xaddl	%edx, 8(%rdi)
	cmpl	$1, %edx
	je	.L482
	.p2align 4,,10
	.p2align 3
.L329:
	movq	40(%rsp), %rdi
	testq	%rdi, %rdi
	je	.L336
	movq	_ZL28__gthrw___pthread_key_createPjPFvPvE@GOTPCREL(%rip), %r15
	testq	%r15, %r15
	je	.L337
	movl	$-1, %edx
	lock xaddl	%edx, 8(%rdi)
	cmpl	$1, %edx
	je	.L483
	.p2align 4,,10
	.p2align 3
.L336:
	movq	(%rsp), %xmm0
	movq	$0, 80(%rbp)
	movl	$120, %edi
	movhps	16(%rsp), %xmm0
	movups	%xmm0, 64(%rbp)
.LEHB19:
	call	_Znwm@PLT
.LEHE19:
	movq	%rax, %rsi
	movq	%rax, 16(%rsp)
	movdqu	(%rbx), %xmm4
	movabsq	$4294967297, %rax
	movq	%rax, 8(%rsi)
	movq	_ZTVSt23_Sp_counted_ptr_inplaceIN8opendnp318SerialTimeSyncTaskESaIS1_ELN9__gnu_cxx12_Lock_policyE2EE@GOTPCREL(%rip), %rax
	movaps	%xmm4, 32(%rsp)
	addq	$16, %rax
	movq	%rax, (%rsi)
	leaq	16(%rsi), %rax
	movq	%rax, (%rsp)
	movq	8(%rbx), %rax
	testq	%rax, %rax
	je	.L345
	cmpq	$0, _ZL28__gthrw___pthread_key_createPjPFvPvE@GOTPCREL(%rip)
	je	.L346
	lock addl	$1, 8(%rax)
.L345:
	movdqu	16(%rbx), %xmm5
	movq	24(%rbx), %rax
	movaps	%xmm5, 48(%rsp)
	testq	%rax, %rax
	je	.L347
	cmpq	$0, _ZL28__gthrw___pthread_key_createPjPFvPvE@GOTPCREL(%rip)
	je	.L348
	lock addl	$1, 8(%rax)
.L347:
	movq	(%rsp), %rdi
	movq	%r14, %rdx
	movq	%r13, %rsi
.LEHB20:
	call	_ZN8opendnp318SerialTimeSyncTaskC1ERNS_18IMasterApplicationEN7openpal6LoggerE@PLT
.LEHE20:
	movq	56(%rsp), %rdi
	testq	%rdi, %rdi
	je	.L350
	movq	_ZL28__gthrw___pthread_key_createPjPFvPvE@GOTPCREL(%rip), %r15
	testq	%r15, %r15
	je	.L351
	movl	$-1, %edx
	lock xaddl	%edx, 8(%rdi)
	cmpl	$1, %edx
	je	.L484
	.p2align 4,,10
	.p2align 3
.L350:
	movq	40(%rsp), %rdi
	testq	%rdi, %rdi
	je	.L357
	movq	_ZL28__gthrw___pthread_key_createPjPFvPvE@GOTPCREL(%rip), %r15
	testq	%r15, %r15
	je	.L358
	movl	$-1, %edx
	lock xaddl	%edx, 8(%rdi)
	cmpl	$1, %edx
	je	.L485
	.p2align 4,,10
	.p2align 3
.L357:
	movq	(%rsp), %xmm0
	movq	$0, 96(%rbp)
	movl	$136, %edi
	movhps	16(%rsp), %xmm0
	movups	%xmm0, 80(%rbp)
.LEHB21:
	call	_Znwm@PLT
.LEHE21:
	movq	%rax, %rcx
	movq	%rax, 16(%rsp)
	movdqu	(%rbx), %xmm6
	movabsq	$4294967297, %rax
	movq	%rax, 8(%rcx)
	movq	_ZTVSt23_Sp_counted_ptr_inplaceIN8opendnp313EventScanTaskESaIS1_ELN9__gnu_cxx12_Lock_policyE2EE@GOTPCREL(%rip), %rax
	movq	16(%r12), %r8
	movaps	%xmm6, 32(%rsp)
	addq	$16, %rax
	movq	%rax, (%rcx)
	leaq	16(%rcx), %rax
	movzbl	14(%r12), %ecx
	movq	%rax, (%rsp)
	movq	8(%rbx), %rax
	testq	%rax, %rax
	je	.L366
	cmpq	$0, _ZL28__gthrw___pthread_key_createPjPFvPvE@GOTPCREL(%rip)
	je	.L367
	lock addl	$1, 8(%rax)
.L366:
	movdqu	16(%rbx), %xmm7
	movq	24(%rbx), %rax
	movaps	%xmm7, 48(%rsp)
	testq	%rax, %rax
	je	.L368
	cmpq	$0, _ZL28__gthrw___pthread_key_createPjPFvPvE@GOTPCREL(%rip)
	je	.L369
	lock addl	$1, 8(%rax)
.L368:
	movq	8(%rsp), %rdx
	movq	(%rsp), %rdi
	movq	%r14, %r9
	movq	%r13, %rsi
.LEHB22:
	call	_ZN8opendnp313EventScanTaskC1ERNS_18IMasterApplicationERNS_11ISOEHandlerENS_10ClassFieldEN7openpal12TimeDurationENS6_6LoggerE@PLT
.LEHE22:
	movq	56(%rsp), %r12
	testq	%r12, %r12
	je	.L371
	movq	_ZL28__gthrw___pthread_key_createPjPFvPvE@GOTPCREL(%rip), %r15
	testq	%r15, %r15
	je	.L372
	movl	$-1, %edx
	lock xaddl	%edx, 8(%r12)
	cmpl	$1, %edx
	je	.L486
	.p2align 4,,10
	.p2align 3
.L371:
	movq	40(%rsp), %r12
	testq	%r12, %r12
	je	.L378
	movq	_ZL28__gthrw___pthread_key_createPjPFvPvE@GOTPCREL(%rip), %r15
	testq	%r15, %r15
	je	.L379
	movl	$-1, %edx
	lock xaddl	%edx, 8(%r12)
	cmpl	$1, %edx
	je	.L487
	.p2align 4,,10
	.p2align 3
.L378:
	movq	(%rsp), %xmm0
	movq	$0, 128(%rbp)
	movhps	16(%rsp), %xmm0
	movups	%xmm0, 96(%rbp)
	pxor	%xmm0, %xmm0
	movups	%xmm0, 112(%rbp)
	movq	72(%rsp), %rax
	xorq	%fs:40, %rax
	jne	.L488
	addq	$88, %rsp
	.cfi_remember_state
	.cfi_def_cfa_offset 56
	popq	%rbx
	.cfi_def_cfa_offset 48
	popq	%rbp
	.cfi_def_cfa_offset 40
	popq	%r12
	.cfi_def_cfa_offset 32
	popq	%r13
	.cfi_def_cfa_offset 24
	popq	%r14
	.cfi_def_cfa_offset 16
	popq	%r15
	.cfi_def_cfa_offset 8
	ret
	.p2align 4,,10
	.p2align 3
.L325:
	.cfi_restore_state
	addl	$1, 8(%rax)
	jmp	.L324
	.p2align 4,,10
	.p2align 3
.L306:
	addl	$1, 8(%rax)
	jmp	.L305
	.p2align 4,,10
	.p2align 3
.L346:
	addl	$1, 8(%rax)
	jmp	.L345
	.p2align 4,,10
	.p2align 3
.L327:
	addl	$1, 8(%rax)
	jmp	.L326
	.p2align 4,,10
	.p2align 3
.L367:
	addl	$1, 8(%rax)
	jmp	.L366
	.p2align 4,,10
	.p2align 3
.L348:
	addl	$1, 8(%rax)
	jmp	.L347
	.p2align 4,,10
	.p2align 3
.L242:
	addl	$1, 8(%rax)
	jmp	.L241
	.p2align 4,,10
	.p2align 3
.L369:
	addl	$1, 8(%rax)
	jmp	.L368
	.p2align 4,,10
	.p2align 3
.L262:
	addl	$1, 8(%rax)
	jmp	.L261
	.p2align 4,,10
	.p2align 3
.L244:
	addl	$1, 8(%rax)
	jmp	.L243
	.p2align 4,,10
	.p2align 3
.L264:
	addl	$1, 8(%rax)
	jmp	.L263
	.p2align 4,,10
	.p2align 3
.L283:
	addl	$1, 8(%rax)
	jmp	.L282
	.p2align 4,,10
	.p2align 3
.L304:
	addl	$1, 8(%rax)
	jmp	.L303
	.p2align 4,,10
	.p2align 3
.L285:
	addl	$1, 8(%rax)
	jmp	.L284
	.p2align 4,,10
	.p2align 3
.L288:
	movl	8(%rdi), %edx
	leal	-1(%rdx), %ecx
	movl	%ecx, 8(%rdi)
	cmpl	$1, %edx
	jne	.L287
.L478:
	movq	(%rdi), %rdx
	movq	%rdi, 24(%rsp)
	call	*16(%rdx)
	testq	%r15, %r15
	movq	24(%rsp), %rdi
	je	.L291
	movl	$-1, %eax
	lock xaddl	%eax, 12(%rdi)
.L292:
	cmpl	$1, %eax
	jne	.L287
	movq	(%rdi), %rax
	call	*24(%rax)
	jmp	.L287
	.p2align 4,,10
	.p2align 3
.L351:
	movl	8(%rdi), %edx
	leal	-1(%rdx), %ecx
	movl	%ecx, 8(%rdi)
	cmpl	$1, %edx
	jne	.L350
.L484:
	movq	(%rdi), %rdx
	movq	%rdi, 24(%rsp)
	call	*16(%rdx)
	testq	%r15, %r15
	movq	24(%rsp), %rdi
	je	.L354
	movl	$-1, %eax
	lock xaddl	%eax, 12(%rdi)
.L355:
	cmpl	$1, %eax
	jne	.L350
	movq	(%rdi), %rax
	call	*24(%rax)
	jmp	.L350
	.p2align 4,,10
	.p2align 3
.L337:
	movl	8(%rdi), %edx
	leal	-1(%rdx), %ecx
	movl	%ecx, 8(%rdi)
	cmpl	$1, %edx
	jne	.L336
.L483:
	movq	(%rdi), %rdx
	movq	%rdi, 24(%rsp)
	call	*16(%rdx)
	testq	%r15, %r15
	movq	24(%rsp), %rdi
	je	.L340
	movl	$-1, %eax
	lock xaddl	%eax, 12(%rdi)
.L341:
	cmpl	$1, %eax
	jne	.L336
	movq	(%rdi), %rax
	call	*24(%rax)
	jmp	.L336
	.p2align 4,,10
	.p2align 3
.L330:
	movl	8(%rdi), %edx
	leal	-1(%rdx), %ecx
	movl	%ecx, 8(%rdi)
	cmpl	$1, %edx
	jne	.L329
.L482:
	movq	(%rdi), %rdx
	movq	%rdi, 24(%rsp)
	call	*16(%rdx)
	testq	%r15, %r15
	movq	24(%rsp), %rdi
	je	.L333
	movl	$-1, %eax
	lock xaddl	%eax, 12(%rdi)
.L334:
	cmpl	$1, %eax
	jne	.L329
	movq	(%rdi), %rax
	call	*24(%rax)
	jmp	.L329
	.p2align 4,,10
	.p2align 3
.L309:
	movl	8(%rdi), %edx
	leal	-1(%rdx), %ecx
	movl	%ecx, 8(%rdi)
	cmpl	$1, %edx
	jne	.L308
.L480:
	movq	(%rdi), %rdx
	movq	%rdi, 24(%rsp)
	call	*16(%rdx)
	testq	%r15, %r15
	movq	24(%rsp), %rdi
	je	.L312
	movl	$-1, %eax
	lock xaddl	%eax, 12(%rdi)
.L313:
	cmpl	$1, %eax
	jne	.L308
	movq	(%rdi), %rax
	call	*24(%rax)
	jmp	.L308
	.p2align 4,,10
	.p2align 3
.L316:
	movl	8(%rdi), %edx
	leal	-1(%rdx), %ecx
	movl	%ecx, 8(%rdi)
	cmpl	$1, %edx
	jne	.L315
.L481:
	movq	(%rdi), %rdx
	movq	%rdi, 24(%rsp)
	call	*16(%rdx)
	testq	%r15, %r15
	movq	24(%rsp), %rdi
	je	.L319
	movl	$-1, %eax
	lock xaddl	%eax, 12(%rdi)
.L320:
	cmpl	$1, %eax
	jne	.L315
	movq	(%rdi), %rax
	call	*24(%rax)
	jmp	.L315
	.p2align 4,,10
	.p2align 3
.L267:
	movl	8(%rdi), %edx
	leal	-1(%rdx), %ecx
	movl	%ecx, 8(%rdi)
	cmpl	$1, %edx
	jne	.L266
.L476:
	movq	(%rdi), %rdx
	movq	%rdi, 24(%rsp)
	call	*16(%rdx)
	testq	%r15, %r15
	movq	24(%rsp), %rdi
	je	.L270
	movl	$-1, %eax
	lock xaddl	%eax, 12(%rdi)
.L271:
	cmpl	$1, %eax
	jne	.L266
	movq	(%rdi), %rax
	call	*24(%rax)
	jmp	.L266
	.p2align 4,,10
	.p2align 3
.L295:
	movl	8(%rdi), %edx
	leal	-1(%rdx), %ecx
	movl	%ecx, 8(%rdi)
	cmpl	$1, %edx
	jne	.L294
.L479:
	movq	(%rdi), %rdx
	movq	%rdi, 24(%rsp)
	call	*16(%rdx)
	testq	%r15, %r15
	movq	24(%rsp), %rdi
	je	.L298
	movl	$-1, %eax
	lock xaddl	%eax, 12(%rdi)
.L299:
	cmpl	$1, %eax
	jne	.L294
	movq	(%rdi), %rax
	call	*24(%rax)
	jmp	.L294
	.p2align 4,,10
	.p2align 3
.L247:
	movl	8(%rdi), %edx
	leal	-1(%rdx), %ecx
	movl	%ecx, 8(%rdi)
	cmpl	$1, %edx
	jne	.L246
.L474:
	movq	(%rdi), %rdx
	movq	%rdi, 24(%rsp)
	call	*16(%rdx)
	testq	%r15, %r15
	movq	24(%rsp), %rdi
	je	.L250
	movl	$-1, %eax
	lock xaddl	%eax, 12(%rdi)
.L251:
	cmpl	$1, %eax
	jne	.L246
	movq	(%rdi), %rax
	call	*24(%rax)
	jmp	.L246
	.p2align 4,,10
	.p2align 3
.L274:
	movl	8(%rdi), %edx
	leal	-1(%rdx), %ecx
	movl	%ecx, 8(%rdi)
	cmpl	$1, %edx
	jne	.L273
.L477:
	movq	(%rdi), %rdx
	movq	%rdi, 24(%rsp)
	call	*16(%rdx)
	testq	%r15, %r15
	movq	24(%rsp), %rdi
	je	.L277
	movl	$-1, %eax
	lock xaddl	%eax, 12(%rdi)
.L278:
	cmpl	$1, %eax
	jne	.L273
	movq	(%rdi), %rax
	call	*24(%rax)
	jmp	.L273
	.p2align 4,,10
	.p2align 3
.L372:
	movl	8(%r12), %edx
	leal	-1(%rdx), %ecx
	movl	%ecx, 8(%r12)
	cmpl	$1, %edx
	jne	.L371
.L486:
	movq	(%r12), %rdx
	movq	%r12, %rdi
	call	*16(%rdx)
	testq	%r15, %r15
	je	.L375
	movl	$-1, %eax
	lock xaddl	%eax, 12(%r12)
.L376:
	cmpl	$1, %eax
	jne	.L371
	movq	(%r12), %rax
	movq	%r12, %rdi
	call	*24(%rax)
	jmp	.L371
	.p2align 4,,10
	.p2align 3
.L358:
	movl	8(%rdi), %edx
	leal	-1(%rdx), %ecx
	movl	%ecx, 8(%rdi)
	cmpl	$1, %edx
	jne	.L357
.L485:
	movq	(%rdi), %rdx
	movq	%rdi, 24(%rsp)
	call	*16(%rdx)
	testq	%r15, %r15
	movq	24(%rsp), %rdi
	je	.L361
	movl	$-1, %eax
	lock xaddl	%eax, 12(%rdi)
.L362:
	cmpl	$1, %eax
	jne	.L357
	movq	(%rdi), %rax
	call	*24(%rax)
	jmp	.L357
	.p2align 4,,10
	.p2align 3
.L379:
	movl	8(%r12), %edx
	leal	-1(%rdx), %ecx
	movl	%ecx, 8(%r12)
	cmpl	$1, %edx
	jne	.L378
.L487:
	movq	(%r12), %rdx
	movq	%r12, %rdi
	call	*16(%rdx)
	testq	%r15, %r15
	je	.L382
	movl	$-1, %eax
	lock xaddl	%eax, 12(%r12)
.L383:
	cmpl	$1, %eax
	jne	.L378
	movq	(%r12), %rax
	movq	%r12, %rdi
	call	*24(%rax)
	jmp	.L378
	.p2align 4,,10
	.p2align 3
.L254:
	movl	8(%rdi), %edx
	leal	-1(%rdx), %ecx
	movl	%ecx, 8(%rdi)
	cmpl	$1, %edx
	jne	.L253
.L475:
	movq	(%rdi), %rdx
	movq	%rdi, 24(%rsp)
	call	*16(%rdx)
	testq	%r15, %r15
	movq	24(%rsp), %rdi
	je	.L257
	movl	$-1, %eax
	lock xaddl	%eax, 12(%rdi)
.L258:
	cmpl	$1, %eax
	jne	.L253
	movq	(%rdi), %rax
	call	*24(%rax)
	jmp	.L253
	.p2align 4,,10
	.p2align 3
.L333:
	movl	12(%rdi), %eax
	leal	-1(%rax), %edx
	movl	%edx, 12(%rdi)
	jmp	.L334
	.p2align 4,,10
	.p2align 3
.L375:
	movl	12(%r12), %eax
	leal	-1(%rax), %edx
	movl	%edx, 12(%r12)
	jmp	.L376
	.p2align 4,,10
	.p2align 3
.L340:
	movl	12(%rdi), %eax
	leal	-1(%rax), %edx
	movl	%edx, 12(%rdi)
	jmp	.L341
	.p2align 4,,10
	.p2align 3
.L319:
	movl	12(%rdi), %eax
	leal	-1(%rax), %edx
	movl	%edx, 12(%rdi)
	jmp	.L320
	.p2align 4,,10
	.p2align 3
.L312:
	movl	12(%rdi), %eax
	leal	-1(%rax), %edx
	movl	%edx, 12(%rdi)
	jmp	.L313
	.p2align 4,,10
	.p2align 3
.L257:
	movl	12(%rdi), %eax
	leal	-1(%rax), %edx
	movl	%edx, 12(%rdi)
	jmp	.L258
	.p2align 4,,10
	.p2align 3
.L277:
	movl	12(%rdi), %eax
	leal	-1(%rax), %edx
	movl	%edx, 12(%rdi)
	jmp	.L278
	.p2align 4,,10
	.p2align 3
.L250:
	movl	12(%rdi), %eax
	leal	-1(%rax), %edx
	movl	%edx, 12(%rdi)
	jmp	.L251
	.p2align 4,,10
	.p2align 3
.L354:
	movl	12(%rdi), %eax
	leal	-1(%rax), %edx
	movl	%edx, 12(%rdi)
	jmp	.L355
	.p2align 4,,10
	.p2align 3
.L291:
	movl	12(%rdi), %eax
	leal	-1(%rax), %edx
	movl	%edx, 12(%rdi)
	jmp	.L292
	.p2align 4,,10
	.p2align 3
.L298:
	movl	12(%rdi), %eax
	leal	-1(%rax), %edx
	movl	%edx, 12(%rdi)
	jmp	.L299
	.p2align 4,,10
	.p2align 3
.L270:
	movl	12(%rdi), %eax
	leal	-1(%rax), %edx
	movl	%edx, 12(%rdi)
	jmp	.L271
	.p2align 4,,10
	.p2align 3
.L382:
	movl	12(%r12), %eax
	leal	-1(%rax), %edx
	movl	%edx, 12(%r12)
	jmp	.L383
	.p2align 4,,10
	.p2align 3
.L361:
	movl	12(%rdi), %eax
	leal	-1(%rax), %edx
	movl	%edx, 12(%rdi)
	jmp	.L362
.L488:
	call	__stack_chk_fail@PLT
.L396:
	endbr64
	movq	%rax, %r12
	jmp	.L344
.L401:
	endbr64
	movq	%rax, %r12
	jmp	.L322
.L394:
	endbr64
	movq	%rax, %r12
	jmp	.L302
.L399:
	endbr64
	movq	%rax, %r12
	jmp	.L280
.L404:
	endbr64
	movq	%rax, %r12
	jmp	.L385
.L403:
	endbr64
	movq	%rax, %r12
	jmp	.L364
.L393:
	endbr64
	movq	%rax, %r12
	jmp	.L281
.L398:
	endbr64
	movq	%rax, %rbp
	jmp	.L260
.L395:
	endbr64
	movq	%rax, %r12
	jmp	.L323
.L400:
	endbr64
	movq	%rax, %r12
	jmp	.L301
.L397:
	endbr64
	movq	%rax, %r12
	jmp	.L365
.L402:
	endbr64
	movq	%rax, %r12
	jmp	.L343
.L405:
	endbr64
	movq	%rax, %r12
	jmp	.L384
	.section	.gcc_except_table
.LLSDA3044:
	.byte	0xff
	.byte	0xff
	.byte	0x1
	.uleb128 .LLSDACSE3044-.LLSDACSB3044
.LLSDACSB3044:
	.uleb128 .LEHB9-.LFB3044
	.uleb128 .LEHE9-.LEHB9
	.uleb128 0
	.uleb128 0
	.uleb128 .LEHB10-.LFB3044
	.uleb128 .LEHE10-.LEHB10
	.uleb128 .L398-.LFB3044
	.uleb128 0
	.uleb128 .LEHB11-.LFB3044
	.uleb128 .LEHE11-.LEHB11
	.uleb128 .L393-.LFB3044
	.uleb128 0
	.uleb128 .LEHB12-.LFB3044
	.uleb128 .LEHE12-.LEHB12
	.uleb128 .L399-.LFB3044
	.uleb128 0
	.uleb128 .LEHB13-.LFB3044
	.uleb128 .LEHE13-.LEHB13
	.uleb128 .L394-.LFB3044
	.uleb128 0
	.uleb128 .LEHB14-.LFB3044
	.uleb128 .LEHE14-.LEHB14
	.uleb128 .L400-.LFB3044
	.uleb128 0
	.uleb128 .LEHB15-.LFB3044
	.uleb128 .LEHE15-.LEHB15
	.uleb128 .L395-.LFB3044
	.uleb128 0
	.uleb128 .LEHB16-.LFB3044
	.uleb128 .LEHE16-.LEHB16
	.uleb128 .L401-.LFB3044
	.uleb128 0
	.uleb128 .LEHB17-.LFB3044
	.uleb128 .LEHE17-.LEHB17
	.uleb128 .L396-.LFB3044
	.uleb128 0
	.uleb128 .LEHB18-.LFB3044
	.uleb128 .LEHE18-.LEHB18
	.uleb128 .L402-.LFB3044
	.uleb128 0
	.uleb128 .LEHB19-.LFB3044
	.uleb128 .LEHE19-.LEHB19
	.uleb128 .L397-.LFB3044
	.uleb128 0
	.uleb128 .LEHB20-.LFB3044
	.uleb128 .LEHE20-.LEHB20
	.uleb128 .L403-.LFB3044
	.uleb128 0
	.uleb128 .LEHB21-.LFB3044
	.uleb128 .LEHE21-.LEHB21
	.uleb128 .L404-.LFB3044
	.uleb128 0
	.uleb128 .LEHB22-.LFB3044
	.uleb128 .LEHE22-.LEHB22
	.uleb128 .L405-.LFB3044
	.uleb128 0
.LLSDACSE3044:
	.text
	.cfi_endproc
	.section	.text.unlikely
	.cfi_startproc
	.cfi_personality 0x9b,DW.ref.__gxx_personality_v0
	.cfi_lsda 0x1b,.LLSDAC3044
	.type	_ZN8opendnp311MasterTasksC2ERKNS_12MasterParamsERKN7openpal6LoggerERNS_18IMasterApplicationERNS_11ISOEHandlerE.cold, @function
_ZN8opendnp311MasterTasksC2ERKNS_12MasterParamsERKN7openpal6LoggerERNS_18IMasterApplicationERNS_11ISOEHandlerE.cold:
.LFSB3044:
.L343:
	.cfi_def_cfa_offset 144
	.cfi_offset 3, -56
	.cfi_offset 6, -48
	.cfi_offset 12, -40
	.cfi_offset 13, -32
	.cfi_offset 14, -24
	.cfi_offset 15, -16
	movq	%r14, %rdi
	call	_ZN7openpal6LoggerD1Ev@PLT
	movq	16(%rsp), %rdi
	call	_ZdlPv@PLT
.L344:
	movq	56(%rbp), %rdi
	testq	%rdi, %rdi
	je	.L323
	call	_ZNSt16_Sp_counted_baseILN9__gnu_cxx12_Lock_policyE2EE10_M_releaseEv@PLT
	jmp	.L323
.L322:
	movq	%r14, %rdi
	call	_ZN7openpal6LoggerD1Ev@PLT
	movq	16(%rsp), %rdi
	call	_ZdlPv@PLT
.L323:
	movq	40(%rbp), %rdi
	testq	%rdi, %rdi
	je	.L302
	call	_ZNSt16_Sp_counted_baseILN9__gnu_cxx12_Lock_policyE2EE10_M_releaseEv@PLT
.L302:
	movq	24(%rbp), %rdi
	testq	%rdi, %rdi
	je	.L281
	call	_ZNSt16_Sp_counted_baseILN9__gnu_cxx12_Lock_policyE2EE10_M_releaseEv@PLT
	jmp	.L281
.L280:
	movq	%r14, %rdi
	call	_ZN7openpal6LoggerD1Ev@PLT
	movq	16(%rsp), %rdi
	call	_ZdlPv@PLT
.L281:
	movq	8(%rbp), %rdi
	testq	%rdi, %rdi
	je	.L391
	call	_ZNSt16_Sp_counted_baseILN9__gnu_cxx12_Lock_policyE2EE10_M_releaseEv@PLT
.L391:
	movq	%r12, %rdi
.LEHB23:
	call	_Unwind_Resume@PLT
.L384:
	movq	%r14, %rdi
	call	_ZN7openpal6LoggerD1Ev@PLT
	movq	16(%rsp), %rdi
	call	_ZdlPv@PLT
.L385:
	movq	88(%rbp), %rdi
	testq	%rdi, %rdi
	je	.L365
	call	_ZNSt16_Sp_counted_baseILN9__gnu_cxx12_Lock_policyE2EE10_M_releaseEv@PLT
.L365:
	movq	72(%rbp), %rdi
	testq	%rdi, %rdi
	je	.L344
	call	_ZNSt16_Sp_counted_baseILN9__gnu_cxx12_Lock_policyE2EE10_M_releaseEv@PLT
	jmp	.L344
.L364:
	movq	%r14, %rdi
	call	_ZN7openpal6LoggerD1Ev@PLT
	movq	16(%rsp), %rdi
	call	_ZdlPv@PLT
	jmp	.L365
.L260:
	movq	%r14, %rdi
	call	_ZN7openpal6LoggerD1Ev@PLT
	movq	16(%rsp), %rdi
	call	_ZdlPv@PLT
	movq	%rbp, %rdi
	call	_Unwind_Resume@PLT
.LEHE23:
.L301:
	movq	%r14, %rdi
	call	_ZN7openpal6LoggerD1Ev@PLT
	movq	16(%rsp), %rdi
	call	_ZdlPv@PLT
	jmp	.L302
	.cfi_endproc
.LFE3044:
	.section	.gcc_except_table
.LLSDAC3044:
	.byte	0xff
	.byte	0xff
	.byte	0x1
	.uleb128 .LLSDACSEC3044-.LLSDACSBC3044
.LLSDACSBC3044:
	.uleb128 .LEHB23-.LCOLDB1
	.uleb128 .LEHE23-.LEHB23
	.uleb128 0
	.uleb128 0
.LLSDACSEC3044:
	.section	.text.unlikely
	.text
	.size	_ZN8opendnp311MasterTasksC2ERKNS_12MasterParamsERKN7openpal6LoggerERNS_18IMasterApplicationERNS_11ISOEHandlerE, .-_ZN8opendnp311MasterTasksC2ERKNS_12MasterParamsERKN7openpal6LoggerERNS_18IMasterApplicationERNS_11ISOEHandlerE
	.section	.text.unlikely
	.size	_ZN8opendnp311MasterTasksC2ERKNS_12MasterParamsERKN7openpal6LoggerERNS_18IMasterApplicationERNS_11ISOEHandlerE.cold, .-_ZN8opendnp311MasterTasksC2ERKNS_12MasterParamsERKN7openpal6LoggerERNS_18IMasterApplicationERNS_11ISOEHandlerE.cold
.LCOLDE1:
	.text
.LHOTE1:
	.globl	_ZN8opendnp311MasterTasksC1ERKNS_12MasterParamsERKN7openpal6LoggerERNS_18IMasterApplicationERNS_11ISOEHandlerE
	.set	_ZN8opendnp311MasterTasksC1ERKNS_12MasterParamsERKN7openpal6LoggerERNS_18IMasterApplicationERNS_11ISOEHandlerE,_ZN8opendnp311MasterTasksC2ERKNS_12MasterParamsERKN7openpal6LoggerERNS_18IMasterApplicationERNS_11ISOEHandlerE
	.section	.rodata._ZNSt6vectorISt10shared_ptrIN8opendnp311IMasterTaskEESaIS3_EE17_M_realloc_insertIJRKS3_EEEvN9__gnu_cxx17__normal_iteratorIPS3_S5_EEDpOT_.str1.1,"aMS",@progbits,1
.LC2:
	.string	"vector::_M_realloc_insert"
	.section	.text._ZNSt6vectorISt10shared_ptrIN8opendnp311IMasterTaskEESaIS3_EE17_M_realloc_insertIJRKS3_EEEvN9__gnu_cxx17__normal_iteratorIPS3_S5_EEDpOT_,"axG",@progbits,_ZNSt6vectorISt10shared_ptrIN8opendnp311IMasterTaskEESaIS3_EE17_M_realloc_insertIJRKS3_EEEvN9__gnu_cxx17__normal_iteratorIPS3_S5_EEDpOT_,comdat
	.align 2
	.p2align 4
	.weak	_ZNSt6vectorISt10shared_ptrIN8opendnp311IMasterTaskEESaIS3_EE17_M_realloc_insertIJRKS3_EEEvN9__gnu_cxx17__normal_iteratorIPS3_S5_EEDpOT_
	.type	_ZNSt6vectorISt10shared_ptrIN8opendnp311IMasterTaskEESaIS3_EE17_M_realloc_insertIJRKS3_EEEvN9__gnu_cxx17__normal_iteratorIPS3_S5_EEDpOT_, @function
_ZNSt6vectorISt10shared_ptrIN8opendnp311IMasterTaskEESaIS3_EE17_M_realloc_insertIJRKS3_EEEvN9__gnu_cxx17__normal_iteratorIPS3_S5_EEDpOT_:
.LFB3663:
	.cfi_startproc
	endbr64
	movabsq	$576460752303423487, %rcx
	pushq	%r15
	.cfi_def_cfa_offset 16
	.cfi_offset 15, -16
	pushq	%r14
	.cfi_def_cfa_offset 24
	.cfi_offset 14, -24
	pushq	%r13
	.cfi_def_cfa_offset 32
	.cfi_offset 13, -32
	pushq	%r12
	.cfi_def_cfa_offset 40
	.cfi_offset 12, -40
	pushq	%rbp
	.cfi_def_cfa_offset 48
	.cfi_offset 6, -48
	pushq	%rbx
	.cfi_def_cfa_offset 56
	.cfi_offset 3, -56
	subq	$56, %rsp
	.cfi_def_cfa_offset 112
	movq	8(%rdi), %r14
	movq	(%rdi), %rbp
	movq	%r14, %rax
	subq	%rbp, %rax
	sarq	$4, %rax
	cmpq	%rcx, %rax
	je	.L526
	movq	%rsi, %rbx
	movq	%rdi, %r13
	subq	%rbp, %rsi
	testq	%rax, %rax
	je	.L512
	movabsq	$9223372036854775792, %r15
	leaq	(%rax,%rax), %rdi
	cmpq	%rdi, %rax
	jbe	.L527
.L491:
	movq	%r15, %rdi
	movq	%rdx, 40(%rsp)
	movq	%rsi, 16(%rsp)
	call	_Znwm@PLT
	movq	16(%rsp), %rsi
	movq	40(%rsp), %rdx
	addq	%rax, %r15
	movq	%rax, 8(%rsp)
	leaq	16(%rax), %r12
	movq	%r15, 32(%rsp)
.L511:
	movdqu	(%rdx), %xmm4
	movq	8(%rsp), %rdi
	movq	8(%rdx), %rax
	movaps	%xmm4, 16(%rsp)
	movups	%xmm4, (%rdi,%rsi)
	testq	%rax, %rax
	je	.L493
	cmpq	$0, _ZL28__gthrw___pthread_key_createPjPFvPvE@GOTPCREL(%rip)
	je	.L494
	lock addl	$1, 8(%rax)
.L493:
	cmpq	%rbp, %rbx
	je	.L495
	cmpq	$0, _ZL28__gthrw___pthread_key_createPjPFvPvE@GOTPCREL(%rip)
	je	.L528
	movq	8(%rsp), %rdx
	movq	%rbp, %r15
	jmp	.L497
	.p2align 4,,10
	.p2align 3
.L505:
	addq	$16, %r15
	addq	$16, %rdx
	cmpq	%r15, %rbx
	je	.L502
.L497:
	movq	(%r15), %rcx
	movq	$0, 8(%rdx)
	pxor	%xmm2, %xmm2
	movq	%rcx, (%rdx)
	movq	8(%r15), %rcx
	movq	%rcx, 8(%rdx)
	movups	%xmm2, (%r15)
	movq	8(%r15), %r12
	testq	%r12, %r12
	je	.L505
	lock subl	$1, 8(%r12)
	jne	.L505
	movq	(%r12), %rcx
	movq	%rdx, 16(%rsp)
	movq	%r12, %rdi
	call	*16(%rcx)
	lock subl	$1, 12(%r12)
	movq	16(%rsp), %rdx
	jne	.L505
	movq	(%r12), %rcx
	movq	%r12, %rdi
	addq	$16, %r15
	call	*24(%rcx)
	movq	16(%rsp), %rdx
	addq	$16, %rdx
	cmpq	%r15, %rbx
	jne	.L497
	.p2align 4,,10
	.p2align 3
.L502:
	movq	%rbx, %r12
	subq	%rbp, %r12
	addq	8(%rsp), %r12
	addq	$16, %r12
.L495:
	cmpq	%r14, %rbx
	je	.L508
	subq	%rbx, %r14
	xorl	%eax, %eax
	xorl	%edx, %edx
	leaq	-16(%r14), %rsi
	movq	%rsi, %rcx
	shrq	$4, %rcx
	addq	$1, %rcx
	.p2align 4,,10
	.p2align 3
.L509:
	movdqu	(%rbx,%rax), %xmm3
	addq	$1, %rdx
	movups	%xmm3, (%r12,%rax)
	addq	$16, %rax
	cmpq	%rdx, %rcx
	ja	.L509
	leaq	16(%r12,%rsi), %r12
.L508:
	testq	%rbp, %rbp
	je	.L510
	movq	%rbp, %rdi
	call	_ZdlPv@PLT
.L510:
	movq	8(%rsp), %xmm0
	movq	32(%rsp), %rax
	movq	%r12, %xmm6
	punpcklqdq	%xmm6, %xmm0
	movq	%rax, 16(%r13)
	movups	%xmm0, 0(%r13)
	addq	$56, %rsp
	.cfi_remember_state
	.cfi_def_cfa_offset 56
	popq	%rbx
	.cfi_def_cfa_offset 48
	popq	%rbp
	.cfi_def_cfa_offset 40
	popq	%r12
	.cfi_def_cfa_offset 32
	popq	%r13
	.cfi_def_cfa_offset 24
	popq	%r14
	.cfi_def_cfa_offset 16
	popq	%r15
	.cfi_def_cfa_offset 8
	ret
	.p2align 4,,10
	.p2align 3
.L528:
	.cfi_restore_state
	movq	8(%rsp), %r15
	movq	%rbp, %r12
	jmp	.L503
	.p2align 4,,10
	.p2align 3
.L500:
	addq	$16, %r12
	addq	$16, %r15
	cmpq	%r12, %rbx
	je	.L502
.L503:
	movq	(%r12), %rdx
	movq	$0, 8(%r15)
	pxor	%xmm1, %xmm1
	movq	%rdx, (%r15)
	movq	8(%r12), %rdx
	movq	%rdx, 8(%r15)
	movups	%xmm1, (%r12)
	movq	8(%r12), %rdi
	testq	%rdi, %rdi
	je	.L500
	movl	8(%rdi), %edx
	leal	-1(%rdx), %ecx
	movl	%ecx, 8(%rdi)
	cmpl	$1, %edx
	jne	.L500
	movq	(%rdi), %rdx
	movq	%rdi, 16(%rsp)
	call	*16(%rdx)
	movq	16(%rsp), %rdi
	movl	12(%rdi), %edx
	leal	-1(%rdx), %ecx
	movl	%ecx, 12(%rdi)
	cmpl	$1, %edx
	jne	.L500
	movq	(%rdi), %rdx
	call	*24(%rdx)
	jmp	.L500
	.p2align 4,,10
	.p2align 3
.L494:
	addl	$1, 8(%rax)
	jmp	.L493
	.p2align 4,,10
	.p2align 3
.L527:
	testq	%rdi, %rdi
	jne	.L492
	movq	$0, 32(%rsp)
	movl	$16, %r12d
	movq	$0, 8(%rsp)
	jmp	.L511
	.p2align 4,,10
	.p2align 3
.L512:
	movl	$16, %r15d
	jmp	.L491
.L526:
	leaq	.LC2(%rip), %rdi
	call	_ZSt20__throw_length_errorPKc@PLT
.L492:
	cmpq	%rcx, %rdi
	cmovbe	%rdi, %rcx
	movq	%rcx, %r15
	salq	$4, %r15
	jmp	.L491
	.cfi_endproc
.LFE3663:
	.size	_ZNSt6vectorISt10shared_ptrIN8opendnp311IMasterTaskEESaIS3_EE17_M_realloc_insertIJRKS3_EEEvN9__gnu_cxx17__normal_iteratorIPS3_S5_EEDpOT_, .-_ZNSt6vectorISt10shared_ptrIN8opendnp311IMasterTaskEESaIS3_EE17_M_realloc_insertIJRKS3_EEEvN9__gnu_cxx17__normal_iteratorIPS3_S5_EEDpOT_
	.text
	.align 2
	.p2align 4
	.globl	_ZN8opendnp311MasterTasks8BindTaskERKSt10shared_ptrINS_11IMasterTaskEE
	.type	_ZN8opendnp311MasterTasks8BindTaskERKSt10shared_ptrINS_11IMasterTaskEE, @function
_ZN8opendnp311MasterTasks8BindTaskERKSt10shared_ptrINS_11IMasterTaskEE:
.LFB3053:
	.cfi_startproc
	endbr64
	movq	%rsi, %rdx
	movq	120(%rdi), %rsi
	cmpq	128(%rdi), %rsi
	je	.L530
	movq	(%rdx), %rax
	movq	%rax, (%rsi)
	movq	8(%rdx), %rax
	movq	%rax, 8(%rsi)
	testq	%rax, %rax
	je	.L531
	cmpq	$0, _ZL28__gthrw___pthread_key_createPjPFvPvE@GOTPCREL(%rip)
	je	.L532
	lock addl	$1, 8(%rax)
	movq	120(%rdi), %rsi
.L531:
	addq	$16, %rsi
	movq	%rsi, 120(%rdi)
	ret
	.p2align 4,,10
	.p2align 3
.L530:
	addq	$112, %rdi
	jmp	_ZNSt6vectorISt10shared_ptrIN8opendnp311IMasterTaskEESaIS3_EE17_M_realloc_insertIJRKS3_EEEvN9__gnu_cxx17__normal_iteratorIPS3_S5_EEDpOT_@PLT
	.p2align 4,,10
	.p2align 3
.L532:
	addq	$16, %rsi
	addl	$1, 8(%rax)
	movq	%rsi, 120(%rdi)
	ret
	.cfi_endproc
.LFE3053:
	.size	_ZN8opendnp311MasterTasks8BindTaskERKSt10shared_ptrINS_11IMasterTaskEE, .-_ZN8opendnp311MasterTasks8BindTaskERKSt10shared_ptrINS_11IMasterTaskEE
	.section	.text.startup,"ax",@progbits
	.p2align 4
	.type	_GLOBAL__sub_I_MasterTasks.cpp, @function
_GLOBAL__sub_I_MasterTasks.cpp:
.LFB4610:
	.cfi_startproc
	endbr64
	movl	$5000, %edi
	jmp	_ZN7openpal12TimeDuration12MillisecondsEl@PLT
	.cfi_endproc
.LFE4610:
	.size	_GLOBAL__sub_I_MasterTasks.cpp, .-_GLOBAL__sub_I_MasterTasks.cpp
	.section	.init_array,"aw"
	.align 8
	.quad	_GLOBAL__sub_I_MasterTasks.cpp
	.weak	_ZTSSt11_Mutex_baseILN9__gnu_cxx12_Lock_policyE2EE
	.section	.rodata._ZTSSt11_Mutex_baseILN9__gnu_cxx12_Lock_policyE2EE,"aG",@progbits,_ZTSSt11_Mutex_baseILN9__gnu_cxx12_Lock_policyE2EE,comdat
	.align 32
	.type	_ZTSSt11_Mutex_baseILN9__gnu_cxx12_Lock_policyE2EE, @object
	.size	_ZTSSt11_Mutex_baseILN9__gnu_cxx12_Lock_policyE2EE, 47
_ZTSSt11_Mutex_baseILN9__gnu_cxx12_Lock_policyE2EE:
	.string	"St11_Mutex_baseILN9__gnu_cxx12_Lock_policyE2EE"
	.weak	_ZTISt11_Mutex_baseILN9__gnu_cxx12_Lock_policyE2EE
	.section	.data.rel.ro._ZTISt11_Mutex_baseILN9__gnu_cxx12_Lock_policyE2EE,"awG",@progbits,_ZTISt11_Mutex_baseILN9__gnu_cxx12_Lock_policyE2EE,comdat
	.align 8
	.type	_ZTISt11_Mutex_baseILN9__gnu_cxx12_Lock_policyE2EE, @object
	.size	_ZTISt11_Mutex_baseILN9__gnu_cxx12_Lock_policyE2EE, 16
_ZTISt11_Mutex_baseILN9__gnu_cxx12_Lock_policyE2EE:
	.quad	_ZTVN10__cxxabiv117__class_type_infoE+16
	.quad	_ZTSSt11_Mutex_baseILN9__gnu_cxx12_Lock_policyE2EE
	.weak	_ZTSSt19_Sp_make_shared_tag
	.section	.rodata._ZTSSt19_Sp_make_shared_tag,"aG",@progbits,_ZTSSt19_Sp_make_shared_tag,comdat
	.align 16
	.type	_ZTSSt19_Sp_make_shared_tag, @object
	.size	_ZTSSt19_Sp_make_shared_tag, 24
_ZTSSt19_Sp_make_shared_tag:
	.string	"St19_Sp_make_shared_tag"
	.weak	_ZTSSt16_Sp_counted_baseILN9__gnu_cxx12_Lock_policyE2EE
	.section	.rodata._ZTSSt16_Sp_counted_baseILN9__gnu_cxx12_Lock_policyE2EE,"aG",@progbits,_ZTSSt16_Sp_counted_baseILN9__gnu_cxx12_Lock_policyE2EE,comdat
	.align 32
	.type	_ZTSSt16_Sp_counted_baseILN9__gnu_cxx12_Lock_policyE2EE, @object
	.size	_ZTSSt16_Sp_counted_baseILN9__gnu_cxx12_Lock_policyE2EE, 52
_ZTSSt16_Sp_counted_baseILN9__gnu_cxx12_Lock_policyE2EE:
	.string	"St16_Sp_counted_baseILN9__gnu_cxx12_Lock_policyE2EE"
	.weak	_ZTISt16_Sp_counted_baseILN9__gnu_cxx12_Lock_policyE2EE
	.section	.data.rel.ro._ZTISt16_Sp_counted_baseILN9__gnu_cxx12_Lock_policyE2EE,"awG",@progbits,_ZTISt16_Sp_counted_baseILN9__gnu_cxx12_Lock_policyE2EE,comdat
	.align 8
	.type	_ZTISt16_Sp_counted_baseILN9__gnu_cxx12_Lock_policyE2EE, @object
	.size	_ZTISt16_Sp_counted_baseILN9__gnu_cxx12_Lock_policyE2EE, 24
_ZTISt16_Sp_counted_baseILN9__gnu_cxx12_Lock_policyE2EE:
	.quad	_ZTVN10__cxxabiv120__si_class_type_infoE+16
	.quad	_ZTSSt16_Sp_counted_baseILN9__gnu_cxx12_Lock_policyE2EE
	.quad	_ZTISt11_Mutex_baseILN9__gnu_cxx12_Lock_policyE2EE
	.weak	_ZTSSt23_Sp_counted_ptr_inplaceIN8opendnp321EnableUnsolicitedTaskESaIS1_ELN9__gnu_cxx12_Lock_policyE2EE
	.section	.rodata._ZTSSt23_Sp_counted_ptr_inplaceIN8opendnp321EnableUnsolicitedTaskESaIS1_ELN9__gnu_cxx12_Lock_policyE2EE,"aG",@progbits,_ZTSSt23_Sp_counted_ptr_inplaceIN8opendnp321EnableUnsolicitedTaskESaIS1_ELN9__gnu_cxx12_Lock_policyE2EE,comdat
	.align 32
	.type	_ZTSSt23_Sp_counted_ptr_inplaceIN8opendnp321EnableUnsolicitedTaskESaIS1_ELN9__gnu_cxx12_Lock_policyE2EE, @object
	.size	_ZTSSt23_Sp_counted_ptr_inplaceIN8opendnp321EnableUnsolicitedTaskESaIS1_ELN9__gnu_cxx12_Lock_policyE2EE, 100
_ZTSSt23_Sp_counted_ptr_inplaceIN8opendnp321EnableUnsolicitedTaskESaIS1_ELN9__gnu_cxx12_Lock_policyE2EE:
	.string	"St23_Sp_counted_ptr_inplaceIN8opendnp321EnableUnsolicitedTaskESaIS1_ELN9__gnu_cxx12_Lock_policyE2EE"
	.weak	_ZTISt23_Sp_counted_ptr_inplaceIN8opendnp321EnableUnsolicitedTaskESaIS1_ELN9__gnu_cxx12_Lock_policyE2EE
	.section	.data.rel.ro._ZTISt23_Sp_counted_ptr_inplaceIN8opendnp321EnableUnsolicitedTaskESaIS1_ELN9__gnu_cxx12_Lock_policyE2EE,"awG",@progbits,_ZTISt23_Sp_counted_ptr_inplaceIN8opendnp321EnableUnsolicitedTaskESaIS1_ELN9__gnu_cxx12_Lock_policyE2EE,comdat
	.align 8
	.type	_ZTISt23_Sp_counted_ptr_inplaceIN8opendnp321EnableUnsolicitedTaskESaIS1_ELN9__gnu_cxx12_Lock_policyE2EE, @object
	.size	_ZTISt23_Sp_counted_ptr_inplaceIN8opendnp321EnableUnsolicitedTaskESaIS1_ELN9__gnu_cxx12_Lock_policyE2EE, 24
_ZTISt23_Sp_counted_ptr_inplaceIN8opendnp321EnableUnsolicitedTaskESaIS1_ELN9__gnu_cxx12_Lock_policyE2EE:
	.quad	_ZTVN10__cxxabiv120__si_class_type_infoE+16
	.quad	_ZTSSt23_Sp_counted_ptr_inplaceIN8opendnp321EnableUnsolicitedTaskESaIS1_ELN9__gnu_cxx12_Lock_policyE2EE
	.quad	_ZTISt16_Sp_counted_baseILN9__gnu_cxx12_Lock_policyE2EE
	.weak	_ZTSSt23_Sp_counted_ptr_inplaceIN8opendnp316ClearRestartTaskESaIS1_ELN9__gnu_cxx12_Lock_policyE2EE
	.section	.rodata._ZTSSt23_Sp_counted_ptr_inplaceIN8opendnp316ClearRestartTaskESaIS1_ELN9__gnu_cxx12_Lock_policyE2EE,"aG",@progbits,_ZTSSt23_Sp_counted_ptr_inplaceIN8opendnp316ClearRestartTaskESaIS1_ELN9__gnu_cxx12_Lock_policyE2EE,comdat
	.align 32
	.type	_ZTSSt23_Sp_counted_ptr_inplaceIN8opendnp316ClearRestartTaskESaIS1_ELN9__gnu_cxx12_Lock_policyE2EE, @object
	.size	_ZTSSt23_Sp_counted_ptr_inplaceIN8opendnp316ClearRestartTaskESaIS1_ELN9__gnu_cxx12_Lock_policyE2EE, 95
_ZTSSt23_Sp_counted_ptr_inplaceIN8opendnp316ClearRestartTaskESaIS1_ELN9__gnu_cxx12_Lock_policyE2EE:
	.string	"St23_Sp_counted_ptr_inplaceIN8opendnp316ClearRestartTaskESaIS1_ELN9__gnu_cxx12_Lock_policyE2EE"
	.weak	_ZTISt23_Sp_counted_ptr_inplaceIN8opendnp316ClearRestartTaskESaIS1_ELN9__gnu_cxx12_Lock_policyE2EE
	.section	.data.rel.ro._ZTISt23_Sp_counted_ptr_inplaceIN8opendnp316ClearRestartTaskESaIS1_ELN9__gnu_cxx12_Lock_policyE2EE,"awG",@progbits,_ZTISt23_Sp_counted_ptr_inplaceIN8opendnp316ClearRestartTaskESaIS1_ELN9__gnu_cxx12_Lock_policyE2EE,comdat
	.align 8
	.type	_ZTISt23_Sp_counted_ptr_inplaceIN8opendnp316ClearRestartTaskESaIS1_ELN9__gnu_cxx12_Lock_policyE2EE, @object
	.size	_ZTISt23_Sp_counted_ptr_inplaceIN8opendnp316ClearRestartTaskESaIS1_ELN9__gnu_cxx12_Lock_policyE2EE, 24
_ZTISt23_Sp_counted_ptr_inplaceIN8opendnp316ClearRestartTaskESaIS1_ELN9__gnu_cxx12_Lock_policyE2EE:
	.quad	_ZTVN10__cxxabiv120__si_class_type_infoE+16
	.quad	_ZTSSt23_Sp_counted_ptr_inplaceIN8opendnp316ClearRestartTaskESaIS1_ELN9__gnu_cxx12_Lock_policyE2EE
	.quad	_ZTISt16_Sp_counted_baseILN9__gnu_cxx12_Lock_policyE2EE
	.weak	_ZTSSt23_Sp_counted_ptr_inplaceIN8opendnp315AssignClassTaskESaIS1_ELN9__gnu_cxx12_Lock_policyE2EE
	.section	.rodata._ZTSSt23_Sp_counted_ptr_inplaceIN8opendnp315AssignClassTaskESaIS1_ELN9__gnu_cxx12_Lock_policyE2EE,"aG",@progbits,_ZTSSt23_Sp_counted_ptr_inplaceIN8opendnp315AssignClassTaskESaIS1_ELN9__gnu_cxx12_Lock_policyE2EE,comdat
	.align 32
	.type	_ZTSSt23_Sp_counted_ptr_inplaceIN8opendnp315AssignClassTaskESaIS1_ELN9__gnu_cxx12_Lock_policyE2EE, @object
	.size	_ZTSSt23_Sp_counted_ptr_inplaceIN8opendnp315AssignClassTaskESaIS1_ELN9__gnu_cxx12_Lock_policyE2EE, 94
_ZTSSt23_Sp_counted_ptr_inplaceIN8opendnp315AssignClassTaskESaIS1_ELN9__gnu_cxx12_Lock_policyE2EE:
	.string	"St23_Sp_counted_ptr_inplaceIN8opendnp315AssignClassTaskESaIS1_ELN9__gnu_cxx12_Lock_policyE2EE"
	.weak	_ZTISt23_Sp_counted_ptr_inplaceIN8opendnp315AssignClassTaskESaIS1_ELN9__gnu_cxx12_Lock_policyE2EE
	.section	.data.rel.ro._ZTISt23_Sp_counted_ptr_inplaceIN8opendnp315AssignClassTaskESaIS1_ELN9__gnu_cxx12_Lock_policyE2EE,"awG",@progbits,_ZTISt23_Sp_counted_ptr_inplaceIN8opendnp315AssignClassTaskESaIS1_ELN9__gnu_cxx12_Lock_policyE2EE,comdat
	.align 8
	.type	_ZTISt23_Sp_counted_ptr_inplaceIN8opendnp315AssignClassTaskESaIS1_ELN9__gnu_cxx12_Lock_policyE2EE, @object
	.size	_ZTISt23_Sp_counted_ptr_inplaceIN8opendnp315AssignClassTaskESaIS1_ELN9__gnu_cxx12_Lock_policyE2EE, 24
_ZTISt23_Sp_counted_ptr_inplaceIN8opendnp315AssignClassTaskESaIS1_ELN9__gnu_cxx12_Lock_policyE2EE:
	.quad	_ZTVN10__cxxabiv120__si_class_type_infoE+16
	.quad	_ZTSSt23_Sp_counted_ptr_inplaceIN8opendnp315AssignClassTaskESaIS1_ELN9__gnu_cxx12_Lock_policyE2EE
	.quad	_ZTISt16_Sp_counted_baseILN9__gnu_cxx12_Lock_policyE2EE
	.weak	_ZTSSt23_Sp_counted_ptr_inplaceIN8opendnp320StartupIntegrityPollESaIS1_ELN9__gnu_cxx12_Lock_policyE2EE
	.section	.rodata._ZTSSt23_Sp_counted_ptr_inplaceIN8opendnp320StartupIntegrityPollESaIS1_ELN9__gnu_cxx12_Lock_policyE2EE,"aG",@progbits,_ZTSSt23_Sp_counted_ptr_inplaceIN8opendnp320StartupIntegrityPollESaIS1_ELN9__gnu_cxx12_Lock_policyE2EE,comdat
	.align 32
	.type	_ZTSSt23_Sp_counted_ptr_inplaceIN8opendnp320StartupIntegrityPollESaIS1_ELN9__gnu_cxx12_Lock_policyE2EE, @object
	.size	_ZTSSt23_Sp_counted_ptr_inplaceIN8opendnp320StartupIntegrityPollESaIS1_ELN9__gnu_cxx12_Lock_policyE2EE, 99
_ZTSSt23_Sp_counted_ptr_inplaceIN8opendnp320StartupIntegrityPollESaIS1_ELN9__gnu_cxx12_Lock_policyE2EE:
	.string	"St23_Sp_counted_ptr_inplaceIN8opendnp320StartupIntegrityPollESaIS1_ELN9__gnu_cxx12_Lock_policyE2EE"
	.weak	_ZTISt23_Sp_counted_ptr_inplaceIN8opendnp320StartupIntegrityPollESaIS1_ELN9__gnu_cxx12_Lock_policyE2EE
	.section	.data.rel.ro._ZTISt23_Sp_counted_ptr_inplaceIN8opendnp320StartupIntegrityPollESaIS1_ELN9__gnu_cxx12_Lock_policyE2EE,"awG",@progbits,_ZTISt23_Sp_counted_ptr_inplaceIN8opendnp320StartupIntegrityPollESaIS1_ELN9__gnu_cxx12_Lock_policyE2EE,comdat
	.align 8
	.type	_ZTISt23_Sp_counted_ptr_inplaceIN8opendnp320StartupIntegrityPollESaIS1_ELN9__gnu_cxx12_Lock_policyE2EE, @object
	.size	_ZTISt23_Sp_counted_ptr_inplaceIN8opendnp320StartupIntegrityPollESaIS1_ELN9__gnu_cxx12_Lock_policyE2EE, 24
_ZTISt23_Sp_counted_ptr_inplaceIN8opendnp320StartupIntegrityPollESaIS1_ELN9__gnu_cxx12_Lock_policyE2EE:
	.quad	_ZTVN10__cxxabiv120__si_class_type_infoE+16
	.quad	_ZTSSt23_Sp_counted_ptr_inplaceIN8opendnp320StartupIntegrityPollESaIS1_ELN9__gnu_cxx12_Lock_policyE2EE
	.quad	_ZTISt16_Sp_counted_baseILN9__gnu_cxx12_Lock_policyE2EE
	.weak	_ZTSSt23_Sp_counted_ptr_inplaceIN8opendnp322DisableUnsolicitedTaskESaIS1_ELN9__gnu_cxx12_Lock_policyE2EE
	.section	.rodata._ZTSSt23_Sp_counted_ptr_inplaceIN8opendnp322DisableUnsolicitedTaskESaIS1_ELN9__gnu_cxx12_Lock_policyE2EE,"aG",@progbits,_ZTSSt23_Sp_counted_ptr_inplaceIN8opendnp322DisableUnsolicitedTaskESaIS1_ELN9__gnu_cxx12_Lock_policyE2EE,comdat
	.align 32
	.type	_ZTSSt23_Sp_counted_ptr_inplaceIN8opendnp322DisableUnsolicitedTaskESaIS1_ELN9__gnu_cxx12_Lock_policyE2EE, @object
	.size	_ZTSSt23_Sp_counted_ptr_inplaceIN8opendnp322DisableUnsolicitedTaskESaIS1_ELN9__gnu_cxx12_Lock_policyE2EE, 101
_ZTSSt23_Sp_counted_ptr_inplaceIN8opendnp322DisableUnsolicitedTaskESaIS1_ELN9__gnu_cxx12_Lock_policyE2EE:
	.string	"St23_Sp_counted_ptr_inplaceIN8opendnp322DisableUnsolicitedTaskESaIS1_ELN9__gnu_cxx12_Lock_policyE2EE"
	.weak	_ZTISt23_Sp_counted_ptr_inplaceIN8opendnp322DisableUnsolicitedTaskESaIS1_ELN9__gnu_cxx12_Lock_policyE2EE
	.section	.data.rel.ro._ZTISt23_Sp_counted_ptr_inplaceIN8opendnp322DisableUnsolicitedTaskESaIS1_ELN9__gnu_cxx12_Lock_policyE2EE,"awG",@progbits,_ZTISt23_Sp_counted_ptr_inplaceIN8opendnp322DisableUnsolicitedTaskESaIS1_ELN9__gnu_cxx12_Lock_policyE2EE,comdat
	.align 8
	.type	_ZTISt23_Sp_counted_ptr_inplaceIN8opendnp322DisableUnsolicitedTaskESaIS1_ELN9__gnu_cxx12_Lock_policyE2EE, @object
	.size	_ZTISt23_Sp_counted_ptr_inplaceIN8opendnp322DisableUnsolicitedTaskESaIS1_ELN9__gnu_cxx12_Lock_policyE2EE, 24
_ZTISt23_Sp_counted_ptr_inplaceIN8opendnp322DisableUnsolicitedTaskESaIS1_ELN9__gnu_cxx12_Lock_policyE2EE:
	.quad	_ZTVN10__cxxabiv120__si_class_type_infoE+16
	.quad	_ZTSSt23_Sp_counted_ptr_inplaceIN8opendnp322DisableUnsolicitedTaskESaIS1_ELN9__gnu_cxx12_Lock_policyE2EE
	.quad	_ZTISt16_Sp_counted_baseILN9__gnu_cxx12_Lock_policyE2EE
	.weak	_ZTSSt23_Sp_counted_ptr_inplaceIN8opendnp318SerialTimeSyncTaskESaIS1_ELN9__gnu_cxx12_Lock_policyE2EE
	.section	.rodata._ZTSSt23_Sp_counted_ptr_inplaceIN8opendnp318SerialTimeSyncTaskESaIS1_ELN9__gnu_cxx12_Lock_policyE2EE,"aG",@progbits,_ZTSSt23_Sp_counted_ptr_inplaceIN8opendnp318SerialTimeSyncTaskESaIS1_ELN9__gnu_cxx12_Lock_policyE2EE,comdat
	.align 32
	.type	_ZTSSt23_Sp_counted_ptr_inplaceIN8opendnp318SerialTimeSyncTaskESaIS1_ELN9__gnu_cxx12_Lock_policyE2EE, @object
	.size	_ZTSSt23_Sp_counted_ptr_inplaceIN8opendnp318SerialTimeSyncTaskESaIS1_ELN9__gnu_cxx12_Lock_policyE2EE, 97
_ZTSSt23_Sp_counted_ptr_inplaceIN8opendnp318SerialTimeSyncTaskESaIS1_ELN9__gnu_cxx12_Lock_policyE2EE:
	.string	"St23_Sp_counted_ptr_inplaceIN8opendnp318SerialTimeSyncTaskESaIS1_ELN9__gnu_cxx12_Lock_policyE2EE"
	.weak	_ZTISt23_Sp_counted_ptr_inplaceIN8opendnp318SerialTimeSyncTaskESaIS1_ELN9__gnu_cxx12_Lock_policyE2EE
	.section	.data.rel.ro._ZTISt23_Sp_counted_ptr_inplaceIN8opendnp318SerialTimeSyncTaskESaIS1_ELN9__gnu_cxx12_Lock_policyE2EE,"awG",@progbits,_ZTISt23_Sp_counted_ptr_inplaceIN8opendnp318SerialTimeSyncTaskESaIS1_ELN9__gnu_cxx12_Lock_policyE2EE,comdat
	.align 8
	.type	_ZTISt23_Sp_counted_ptr_inplaceIN8opendnp318SerialTimeSyncTaskESaIS1_ELN9__gnu_cxx12_Lock_policyE2EE, @object
	.size	_ZTISt23_Sp_counted_ptr_inplaceIN8opendnp318SerialTimeSyncTaskESaIS1_ELN9__gnu_cxx12_Lock_policyE2EE, 24
_ZTISt23_Sp_counted_ptr_inplaceIN8opendnp318SerialTimeSyncTaskESaIS1_ELN9__gnu_cxx12_Lock_policyE2EE:
	.quad	_ZTVN10__cxxabiv120__si_class_type_infoE+16
	.quad	_ZTSSt23_Sp_counted_ptr_inplaceIN8opendnp318SerialTimeSyncTaskESaIS1_ELN9__gnu_cxx12_Lock_policyE2EE
	.quad	_ZTISt16_Sp_counted_baseILN9__gnu_cxx12_Lock_policyE2EE
	.weak	_ZTSSt23_Sp_counted_ptr_inplaceIN8opendnp313EventScanTaskESaIS1_ELN9__gnu_cxx12_Lock_policyE2EE
	.section	.rodata._ZTSSt23_Sp_counted_ptr_inplaceIN8opendnp313EventScanTaskESaIS1_ELN9__gnu_cxx12_Lock_policyE2EE,"aG",@progbits,_ZTSSt23_Sp_counted_ptr_inplaceIN8opendnp313EventScanTaskESaIS1_ELN9__gnu_cxx12_Lock_policyE2EE,comdat
	.align 32
	.type	_ZTSSt23_Sp_counted_ptr_inplaceIN8opendnp313EventScanTaskESaIS1_ELN9__gnu_cxx12_Lock_policyE2EE, @object
	.size	_ZTSSt23_Sp_counted_ptr_inplaceIN8opendnp313EventScanTaskESaIS1_ELN9__gnu_cxx12_Lock_policyE2EE, 92
_ZTSSt23_Sp_counted_ptr_inplaceIN8opendnp313EventScanTaskESaIS1_ELN9__gnu_cxx12_Lock_policyE2EE:
	.string	"St23_Sp_counted_ptr_inplaceIN8opendnp313EventScanTaskESaIS1_ELN9__gnu_cxx12_Lock_policyE2EE"
	.weak	_ZTISt23_Sp_counted_ptr_inplaceIN8opendnp313EventScanTaskESaIS1_ELN9__gnu_cxx12_Lock_policyE2EE
	.section	.data.rel.ro._ZTISt23_Sp_counted_ptr_inplaceIN8opendnp313EventScanTaskESaIS1_ELN9__gnu_cxx12_Lock_policyE2EE,"awG",@progbits,_ZTISt23_Sp_counted_ptr_inplaceIN8opendnp313EventScanTaskESaIS1_ELN9__gnu_cxx12_Lock_policyE2EE,comdat
	.align 8
	.type	_ZTISt23_Sp_counted_ptr_inplaceIN8opendnp313EventScanTaskESaIS1_ELN9__gnu_cxx12_Lock_policyE2EE, @object
	.size	_ZTISt23_Sp_counted_ptr_inplaceIN8opendnp313EventScanTaskESaIS1_ELN9__gnu_cxx12_Lock_policyE2EE, 24
_ZTISt23_Sp_counted_ptr_inplaceIN8opendnp313EventScanTaskESaIS1_ELN9__gnu_cxx12_Lock_policyE2EE:
	.quad	_ZTVN10__cxxabiv120__si_class_type_infoE+16
	.quad	_ZTSSt23_Sp_counted_ptr_inplaceIN8opendnp313EventScanTaskESaIS1_ELN9__gnu_cxx12_Lock_policyE2EE
	.quad	_ZTISt16_Sp_counted_baseILN9__gnu_cxx12_Lock_policyE2EE
	.weak	_ZTVSt23_Sp_counted_ptr_inplaceIN8opendnp321EnableUnsolicitedTaskESaIS1_ELN9__gnu_cxx12_Lock_policyE2EE
	.section	.data.rel.ro._ZTVSt23_Sp_counted_ptr_inplaceIN8opendnp321EnableUnsolicitedTaskESaIS1_ELN9__gnu_cxx12_Lock_policyE2EE,"awG",@progbits,_ZTVSt23_Sp_counted_ptr_inplaceIN8opendnp321EnableUnsolicitedTaskESaIS1_ELN9__gnu_cxx12_Lock_policyE2EE,comdat
	.align 8
	.type	_ZTVSt23_Sp_counted_ptr_inplaceIN8opendnp321EnableUnsolicitedTaskESaIS1_ELN9__gnu_cxx12_Lock_policyE2EE, @object
	.size	_ZTVSt23_Sp_counted_ptr_inplaceIN8opendnp321EnableUnsolicitedTaskESaIS1_ELN9__gnu_cxx12_Lock_policyE2EE, 56
_ZTVSt23_Sp_counted_ptr_inplaceIN8opendnp321EnableUnsolicitedTaskESaIS1_ELN9__gnu_cxx12_Lock_policyE2EE:
	.quad	0
	.quad	_ZTISt23_Sp_counted_ptr_inplaceIN8opendnp321EnableUnsolicitedTaskESaIS1_ELN9__gnu_cxx12_Lock_policyE2EE
	.quad	_ZNSt23_Sp_counted_ptr_inplaceIN8opendnp321EnableUnsolicitedTaskESaIS1_ELN9__gnu_cxx12_Lock_policyE2EED1Ev
	.quad	_ZNSt23_Sp_counted_ptr_inplaceIN8opendnp321EnableUnsolicitedTaskESaIS1_ELN9__gnu_cxx12_Lock_policyE2EED0Ev
	.quad	_ZNSt23_Sp_counted_ptr_inplaceIN8opendnp321EnableUnsolicitedTaskESaIS1_ELN9__gnu_cxx12_Lock_policyE2EE10_M_disposeEv
	.quad	_ZNSt23_Sp_counted_ptr_inplaceIN8opendnp321EnableUnsolicitedTaskESaIS1_ELN9__gnu_cxx12_Lock_policyE2EE10_M_destroyEv
	.quad	_ZNSt23_Sp_counted_ptr_inplaceIN8opendnp321EnableUnsolicitedTaskESaIS1_ELN9__gnu_cxx12_Lock_policyE2EE14_M_get_deleterERKSt9type_info
	.weak	_ZTVSt23_Sp_counted_ptr_inplaceIN8opendnp316ClearRestartTaskESaIS1_ELN9__gnu_cxx12_Lock_policyE2EE
	.section	.data.rel.ro._ZTVSt23_Sp_counted_ptr_inplaceIN8opendnp316ClearRestartTaskESaIS1_ELN9__gnu_cxx12_Lock_policyE2EE,"awG",@progbits,_ZTVSt23_Sp_counted_ptr_inplaceIN8opendnp316ClearRestartTaskESaIS1_ELN9__gnu_cxx12_Lock_policyE2EE,comdat
	.align 8
	.type	_ZTVSt23_Sp_counted_ptr_inplaceIN8opendnp316ClearRestartTaskESaIS1_ELN9__gnu_cxx12_Lock_policyE2EE, @object
	.size	_ZTVSt23_Sp_counted_ptr_inplaceIN8opendnp316ClearRestartTaskESaIS1_ELN9__gnu_cxx12_Lock_policyE2EE, 56
_ZTVSt23_Sp_counted_ptr_inplaceIN8opendnp316ClearRestartTaskESaIS1_ELN9__gnu_cxx12_Lock_policyE2EE:
	.quad	0
	.quad	_ZTISt23_Sp_counted_ptr_inplaceIN8opendnp316ClearRestartTaskESaIS1_ELN9__gnu_cxx12_Lock_policyE2EE
	.quad	_ZNSt23_Sp_counted_ptr_inplaceIN8opendnp316ClearRestartTaskESaIS1_ELN9__gnu_cxx12_Lock_policyE2EED1Ev
	.quad	_ZNSt23_Sp_counted_ptr_inplaceIN8opendnp316ClearRestartTaskESaIS1_ELN9__gnu_cxx12_Lock_policyE2EED0Ev
	.quad	_ZNSt23_Sp_counted_ptr_inplaceIN8opendnp316ClearRestartTaskESaIS1_ELN9__gnu_cxx12_Lock_policyE2EE10_M_disposeEv
	.quad	_ZNSt23_Sp_counted_ptr_inplaceIN8opendnp316ClearRestartTaskESaIS1_ELN9__gnu_cxx12_Lock_policyE2EE10_M_destroyEv
	.quad	_ZNSt23_Sp_counted_ptr_inplaceIN8opendnp316ClearRestartTaskESaIS1_ELN9__gnu_cxx12_Lock_policyE2EE14_M_get_deleterERKSt9type_info
	.weak	_ZTVSt23_Sp_counted_ptr_inplaceIN8opendnp315AssignClassTaskESaIS1_ELN9__gnu_cxx12_Lock_policyE2EE
	.section	.data.rel.ro._ZTVSt23_Sp_counted_ptr_inplaceIN8opendnp315AssignClassTaskESaIS1_ELN9__gnu_cxx12_Lock_policyE2EE,"awG",@progbits,_ZTVSt23_Sp_counted_ptr_inplaceIN8opendnp315AssignClassTaskESaIS1_ELN9__gnu_cxx12_Lock_policyE2EE,comdat
	.align 8
	.type	_ZTVSt23_Sp_counted_ptr_inplaceIN8opendnp315AssignClassTaskESaIS1_ELN9__gnu_cxx12_Lock_policyE2EE, @object
	.size	_ZTVSt23_Sp_counted_ptr_inplaceIN8opendnp315AssignClassTaskESaIS1_ELN9__gnu_cxx12_Lock_policyE2EE, 56
_ZTVSt23_Sp_counted_ptr_inplaceIN8opendnp315AssignClassTaskESaIS1_ELN9__gnu_cxx12_Lock_policyE2EE:
	.quad	0
	.quad	_ZTISt23_Sp_counted_ptr_inplaceIN8opendnp315AssignClassTaskESaIS1_ELN9__gnu_cxx12_Lock_policyE2EE
	.quad	_ZNSt23_Sp_counted_ptr_inplaceIN8opendnp315AssignClassTaskESaIS1_ELN9__gnu_cxx12_Lock_policyE2EED1Ev
	.quad	_ZNSt23_Sp_counted_ptr_inplaceIN8opendnp315AssignClassTaskESaIS1_ELN9__gnu_cxx12_Lock_policyE2EED0Ev
	.quad	_ZNSt23_Sp_counted_ptr_inplaceIN8opendnp315AssignClassTaskESaIS1_ELN9__gnu_cxx12_Lock_policyE2EE10_M_disposeEv
	.quad	_ZNSt23_Sp_counted_ptr_inplaceIN8opendnp315AssignClassTaskESaIS1_ELN9__gnu_cxx12_Lock_policyE2EE10_M_destroyEv
	.quad	_ZNSt23_Sp_counted_ptr_inplaceIN8opendnp315AssignClassTaskESaIS1_ELN9__gnu_cxx12_Lock_policyE2EE14_M_get_deleterERKSt9type_info
	.weak	_ZTVSt23_Sp_counted_ptr_inplaceIN8opendnp320StartupIntegrityPollESaIS1_ELN9__gnu_cxx12_Lock_policyE2EE
	.section	.data.rel.ro._ZTVSt23_Sp_counted_ptr_inplaceIN8opendnp320StartupIntegrityPollESaIS1_ELN9__gnu_cxx12_Lock_policyE2EE,"awG",@progbits,_ZTVSt23_Sp_counted_ptr_inplaceIN8opendnp320StartupIntegrityPollESaIS1_ELN9__gnu_cxx12_Lock_policyE2EE,comdat
	.align 8
	.type	_ZTVSt23_Sp_counted_ptr_inplaceIN8opendnp320StartupIntegrityPollESaIS1_ELN9__gnu_cxx12_Lock_policyE2EE, @object
	.size	_ZTVSt23_Sp_counted_ptr_inplaceIN8opendnp320StartupIntegrityPollESaIS1_ELN9__gnu_cxx12_Lock_policyE2EE, 56
_ZTVSt23_Sp_counted_ptr_inplaceIN8opendnp320StartupIntegrityPollESaIS1_ELN9__gnu_cxx12_Lock_policyE2EE:
	.quad	0
	.quad	_ZTISt23_Sp_counted_ptr_inplaceIN8opendnp320StartupIntegrityPollESaIS1_ELN9__gnu_cxx12_Lock_policyE2EE
	.quad	_ZNSt23_Sp_counted_ptr_inplaceIN8opendnp320StartupIntegrityPollESaIS1_ELN9__gnu_cxx12_Lock_policyE2EED1Ev
	.quad	_ZNSt23_Sp_counted_ptr_inplaceIN8opendnp320StartupIntegrityPollESaIS1_ELN9__gnu_cxx12_Lock_policyE2EED0Ev
	.quad	_ZNSt23_Sp_counted_ptr_inplaceIN8opendnp320StartupIntegrityPollESaIS1_ELN9__gnu_cxx12_Lock_policyE2EE10_M_disposeEv
	.quad	_ZNSt23_Sp_counted_ptr_inplaceIN8opendnp320StartupIntegrityPollESaIS1_ELN9__gnu_cxx12_Lock_policyE2EE10_M_destroyEv
	.quad	_ZNSt23_Sp_counted_ptr_inplaceIN8opendnp320StartupIntegrityPollESaIS1_ELN9__gnu_cxx12_Lock_policyE2EE14_M_get_deleterERKSt9type_info
	.weak	_ZTVSt23_Sp_counted_ptr_inplaceIN8opendnp322DisableUnsolicitedTaskESaIS1_ELN9__gnu_cxx12_Lock_policyE2EE
	.section	.data.rel.ro._ZTVSt23_Sp_counted_ptr_inplaceIN8opendnp322DisableUnsolicitedTaskESaIS1_ELN9__gnu_cxx12_Lock_policyE2EE,"awG",@progbits,_ZTVSt23_Sp_counted_ptr_inplaceIN8opendnp322DisableUnsolicitedTaskESaIS1_ELN9__gnu_cxx12_Lock_policyE2EE,comdat
	.align 8
	.type	_ZTVSt23_Sp_counted_ptr_inplaceIN8opendnp322DisableUnsolicitedTaskESaIS1_ELN9__gnu_cxx12_Lock_policyE2EE, @object
	.size	_ZTVSt23_Sp_counted_ptr_inplaceIN8opendnp322DisableUnsolicitedTaskESaIS1_ELN9__gnu_cxx12_Lock_policyE2EE, 56
_ZTVSt23_Sp_counted_ptr_inplaceIN8opendnp322DisableUnsolicitedTaskESaIS1_ELN9__gnu_cxx12_Lock_policyE2EE:
	.quad	0
	.quad	_ZTISt23_Sp_counted_ptr_inplaceIN8opendnp322DisableUnsolicitedTaskESaIS1_ELN9__gnu_cxx12_Lock_policyE2EE
	.quad	_ZNSt23_Sp_counted_ptr_inplaceIN8opendnp322DisableUnsolicitedTaskESaIS1_ELN9__gnu_cxx12_Lock_policyE2EED1Ev
	.quad	_ZNSt23_Sp_counted_ptr_inplaceIN8opendnp322DisableUnsolicitedTaskESaIS1_ELN9__gnu_cxx12_Lock_policyE2EED0Ev
	.quad	_ZNSt23_Sp_counted_ptr_inplaceIN8opendnp322DisableUnsolicitedTaskESaIS1_ELN9__gnu_cxx12_Lock_policyE2EE10_M_disposeEv
	.quad	_ZNSt23_Sp_counted_ptr_inplaceIN8opendnp322DisableUnsolicitedTaskESaIS1_ELN9__gnu_cxx12_Lock_policyE2EE10_M_destroyEv
	.quad	_ZNSt23_Sp_counted_ptr_inplaceIN8opendnp322DisableUnsolicitedTaskESaIS1_ELN9__gnu_cxx12_Lock_policyE2EE14_M_get_deleterERKSt9type_info
	.weak	_ZTVSt23_Sp_counted_ptr_inplaceIN8opendnp318SerialTimeSyncTaskESaIS1_ELN9__gnu_cxx12_Lock_policyE2EE
	.section	.data.rel.ro._ZTVSt23_Sp_counted_ptr_inplaceIN8opendnp318SerialTimeSyncTaskESaIS1_ELN9__gnu_cxx12_Lock_policyE2EE,"awG",@progbits,_ZTVSt23_Sp_counted_ptr_inplaceIN8opendnp318SerialTimeSyncTaskESaIS1_ELN9__gnu_cxx12_Lock_policyE2EE,comdat
	.align 8
	.type	_ZTVSt23_Sp_counted_ptr_inplaceIN8opendnp318SerialTimeSyncTaskESaIS1_ELN9__gnu_cxx12_Lock_policyE2EE, @object
	.size	_ZTVSt23_Sp_counted_ptr_inplaceIN8opendnp318SerialTimeSyncTaskESaIS1_ELN9__gnu_cxx12_Lock_policyE2EE, 56
_ZTVSt23_Sp_counted_ptr_inplaceIN8opendnp318SerialTimeSyncTaskESaIS1_ELN9__gnu_cxx12_Lock_policyE2EE:
	.quad	0
	.quad	_ZTISt23_Sp_counted_ptr_inplaceIN8opendnp318SerialTimeSyncTaskESaIS1_ELN9__gnu_cxx12_Lock_policyE2EE
	.quad	_ZNSt23_Sp_counted_ptr_inplaceIN8opendnp318SerialTimeSyncTaskESaIS1_ELN9__gnu_cxx12_Lock_policyE2EED1Ev
	.quad	_ZNSt23_Sp_counted_ptr_inplaceIN8opendnp318SerialTimeSyncTaskESaIS1_ELN9__gnu_cxx12_Lock_policyE2EED0Ev
	.quad	_ZNSt23_Sp_counted_ptr_inplaceIN8opendnp318SerialTimeSyncTaskESaIS1_ELN9__gnu_cxx12_Lock_policyE2EE10_M_disposeEv
	.quad	_ZNSt23_Sp_counted_ptr_inplaceIN8opendnp318SerialTimeSyncTaskESaIS1_ELN9__gnu_cxx12_Lock_policyE2EE10_M_destroyEv
	.quad	_ZNSt23_Sp_counted_ptr_inplaceIN8opendnp318SerialTimeSyncTaskESaIS1_ELN9__gnu_cxx12_Lock_policyE2EE14_M_get_deleterERKSt9type_info
	.weak	_ZTVSt23_Sp_counted_ptr_inplaceIN8opendnp313EventScanTaskESaIS1_ELN9__gnu_cxx12_Lock_policyE2EE
	.section	.data.rel.ro._ZTVSt23_Sp_counted_ptr_inplaceIN8opendnp313EventScanTaskESaIS1_ELN9__gnu_cxx12_Lock_policyE2EE,"awG",@progbits,_ZTVSt23_Sp_counted_ptr_inplaceIN8opendnp313EventScanTaskESaIS1_ELN9__gnu_cxx12_Lock_policyE2EE,comdat
	.align 8
	.type	_ZTVSt23_Sp_counted_ptr_inplaceIN8opendnp313EventScanTaskESaIS1_ELN9__gnu_cxx12_Lock_policyE2EE, @object
	.size	_ZTVSt23_Sp_counted_ptr_inplaceIN8opendnp313EventScanTaskESaIS1_ELN9__gnu_cxx12_Lock_policyE2EE, 56
_ZTVSt23_Sp_counted_ptr_inplaceIN8opendnp313EventScanTaskESaIS1_ELN9__gnu_cxx12_Lock_policyE2EE:
	.quad	0
	.quad	_ZTISt23_Sp_counted_ptr_inplaceIN8opendnp313EventScanTaskESaIS1_ELN9__gnu_cxx12_Lock_policyE2EE
	.quad	_ZNSt23_Sp_counted_ptr_inplaceIN8opendnp313EventScanTaskESaIS1_ELN9__gnu_cxx12_Lock_policyE2EED1Ev
	.quad	_ZNSt23_Sp_counted_ptr_inplaceIN8opendnp313EventScanTaskESaIS1_ELN9__gnu_cxx12_Lock_policyE2EED0Ev
	.quad	_ZNSt23_Sp_counted_ptr_inplaceIN8opendnp313EventScanTaskESaIS1_ELN9__gnu_cxx12_Lock_policyE2EE10_M_disposeEv
	.quad	_ZNSt23_Sp_counted_ptr_inplaceIN8opendnp313EventScanTaskESaIS1_ELN9__gnu_cxx12_Lock_policyE2EE10_M_destroyEv
	.quad	_ZNSt23_Sp_counted_ptr_inplaceIN8opendnp313EventScanTaskESaIS1_ELN9__gnu_cxx12_Lock_policyE2EE14_M_get_deleterERKSt9type_info
	.weak	_ZZNSt19_Sp_make_shared_tag5_S_tiEvE5__tag
	.section	.rodata._ZZNSt19_Sp_make_shared_tag5_S_tiEvE5__tag,"aG",@progbits,_ZZNSt19_Sp_make_shared_tag5_S_tiEvE5__tag,comdat
	.align 8
	.type	_ZZNSt19_Sp_make_shared_tag5_S_tiEvE5__tag, @gnu_unique_object
	.size	_ZZNSt19_Sp_make_shared_tag5_S_tiEvE5__tag, 16
_ZZNSt19_Sp_make_shared_tag5_S_tiEvE5__tag:
	.zero	16
	.weakref	_ZL28__gthrw___pthread_key_createPjPFvPvE,__pthread_key_create
	.hidden	DW.ref.__gxx_personality_v0
	.weak	DW.ref.__gxx_personality_v0
	.section	.data.rel.local.DW.ref.__gxx_personality_v0,"awG",@progbits,DW.ref.__gxx_personality_v0,comdat
	.align 8
	.type	DW.ref.__gxx_personality_v0, @object
	.size	DW.ref.__gxx_personality_v0, 8
DW.ref.__gxx_personality_v0:
	.quad	__gxx_personality_v0
	.ident	"GCC: (Ubuntu 9.4.0-1ubuntu1~20.04.1) 9.4.0"
	.section	.note.GNU-stack,"",@progbits
	.section	.note.gnu.property,"a"
	.align 8
	.long	 1f - 0f
	.long	 4f - 1f
	.long	 5
0:
	.string	 "GNU"
1:
	.align 8
	.long	 0xc0000002
	.long	 3f - 2f
2:
	.long	 0x3
3:
	.align 8
4:
