	.file	"MasterContext.cpp"
	.text
	.section	.text._ZN8opendnp318IMasterApplication12OnReceiveIINERKNS_8IINFieldE,"axG",@progbits,_ZN8opendnp318IMasterApplication12OnReceiveIINERKNS_8IINFieldE,comdat
	.align 2
	.p2align 4
	.weak	_ZN8opendnp318IMasterApplication12OnReceiveIINERKNS_8IINFieldE
	.type	_ZN8opendnp318IMasterApplication12OnReceiveIINERKNS_8IINFieldE, @function
_ZN8opendnp318IMasterApplication12OnReceiveIINERKNS_8IINFieldE:
.LFB2490:
	.cfi_startproc
	endbr64
	ret
	.cfi_endproc
.LFE2490:
	.size	_ZN8opendnp318IMasterApplication12OnReceiveIINERKNS_8IINFieldE, .-_ZN8opendnp318IMasterApplication12OnReceiveIINERKNS_8IINFieldE
	.section	.text._ZN8opendnp318IMasterApplication6OnOpenEv,"axG",@progbits,_ZN8opendnp318IMasterApplication6OnOpenEv,comdat
	.align 2
	.p2align 4
	.weak	_ZN8opendnp318IMasterApplication6OnOpenEv
	.type	_ZN8opendnp318IMasterApplication6OnOpenEv, @function
_ZN8opendnp318IMasterApplication6OnOpenEv:
.LFB2493:
	.cfi_startproc
	endbr64
	ret
	.cfi_endproc
.LFE2493:
	.size	_ZN8opendnp318IMasterApplication6OnOpenEv, .-_ZN8opendnp318IMasterApplication6OnOpenEv
	.section	.text._ZN8opendnp318IMasterApplication7OnCloseEv,"axG",@progbits,_ZN8opendnp318IMasterApplication7OnCloseEv,comdat
	.align 2
	.p2align 4
	.weak	_ZN8opendnp318IMasterApplication7OnCloseEv
	.type	_ZN8opendnp318IMasterApplication7OnCloseEv, @function
_ZN8opendnp318IMasterApplication7OnCloseEv:
.LFB2494:
	.cfi_startproc
	endbr64
	ret
	.cfi_endproc
.LFE2494:
	.size	_ZN8opendnp318IMasterApplication7OnCloseEv, .-_ZN8opendnp318IMasterApplication7OnCloseEv
	.section	.text._ZN8opendnp312NullTaskLock7AcquireERNS_17IScheduleCallbackE,"axG",@progbits,_ZN8opendnp312NullTaskLock7AcquireERNS_17IScheduleCallbackE,comdat
	.align 2
	.p2align 4
	.weak	_ZN8opendnp312NullTaskLock7AcquireERNS_17IScheduleCallbackE
	.type	_ZN8opendnp312NullTaskLock7AcquireERNS_17IScheduleCallbackE, @function
_ZN8opendnp312NullTaskLock7AcquireERNS_17IScheduleCallbackE:
.LFB3088:
	.cfi_startproc
	endbr64
	movl	$1, %eax
	ret
	.cfi_endproc
.LFE3088:
	.size	_ZN8opendnp312NullTaskLock7AcquireERNS_17IScheduleCallbackE, .-_ZN8opendnp312NullTaskLock7AcquireERNS_17IScheduleCallbackE
	.section	.text._ZN8opendnp312NullTaskLock7ReleaseERNS_17IScheduleCallbackE,"axG",@progbits,_ZN8opendnp312NullTaskLock7ReleaseERNS_17IScheduleCallbackE,comdat
	.align 2
	.p2align 4
	.weak	_ZN8opendnp312NullTaskLock7ReleaseERNS_17IScheduleCallbackE
	.type	_ZN8opendnp312NullTaskLock7ReleaseERNS_17IScheduleCallbackE, @function
_ZN8opendnp312NullTaskLock7ReleaseERNS_17IScheduleCallbackE:
.LFB3089:
	.cfi_startproc
	endbr64
	movl	$1, %eax
	ret
	.cfi_endproc
.LFE3089:
	.size	_ZN8opendnp312NullTaskLock7ReleaseERNS_17IScheduleCallbackE, .-_ZN8opendnp312NullTaskLock7ReleaseERNS_17IScheduleCallbackE
	.section	.text._ZN8opendnp38MContext17RecordLastRequestERKN7openpal6RSliceE,"axG",@progbits,_ZN8opendnp38MContext17RecordLastRequestERKN7openpal6RSliceE,comdat
	.align 2
	.p2align 4
	.weak	_ZN8opendnp38MContext17RecordLastRequestERKN7openpal6RSliceE
	.type	_ZN8opendnp38MContext17RecordLastRequestERKN7openpal6RSliceE, @function
_ZN8opendnp38MContext17RecordLastRequestERKN7openpal6RSliceE:
.LFB3102:
	.cfi_startproc
	endbr64
	ret
	.cfi_endproc
.LFE3102:
	.size	_ZN8opendnp38MContext17RecordLastRequestERKN7openpal6RSliceE, .-_ZN8opendnp38MContext17RecordLastRequestERKN7openpal6RSliceE
	.section	.text._ZN8opendnp38MContext21MeetsUserRequirementsERKSt10shared_ptrINS_11IMasterTaskEE,"axG",@progbits,_ZN8opendnp38MContext21MeetsUserRequirementsERKSt10shared_ptrINS_11IMasterTaskEE,comdat
	.align 2
	.p2align 4
	.weak	_ZN8opendnp38MContext21MeetsUserRequirementsERKSt10shared_ptrINS_11IMasterTaskEE
	.type	_ZN8opendnp38MContext21MeetsUserRequirementsERKSt10shared_ptrINS_11IMasterTaskEE, @function
_ZN8opendnp38MContext21MeetsUserRequirementsERKSt10shared_ptrINS_11IMasterTaskEE:
.LFB3103:
	.cfi_startproc
	endbr64
	movl	$1, %eax
	ret
	.cfi_endproc
.LFE3103:
	.size	_ZN8opendnp38MContext21MeetsUserRequirementsERKSt10shared_ptrINS_11IMasterTaskEE, .-_ZN8opendnp38MContext21MeetsUserRequirementsERKSt10shared_ptrINS_11IMasterTaskEE
	.section	.text._ZN8opendnp38MContext6CanRunERKNS_11IMasterTaskE,"axG",@progbits,_ZN8opendnp38MContext6CanRunERKNS_11IMasterTaskE,comdat
	.align 2
	.p2align 4
	.weak	_ZN8opendnp38MContext6CanRunERKNS_11IMasterTaskE
	.type	_ZN8opendnp38MContext6CanRunERKNS_11IMasterTaskE, @function
_ZN8opendnp38MContext6CanRunERKNS_11IMasterTaskE:
.LFB3104:
	.cfi_startproc
	endbr64
	movl	$1, %eax
	ret
	.cfi_endproc
.LFE3104:
	.size	_ZN8opendnp38MContext6CanRunERKNS_11IMasterTaskE, .-_ZN8opendnp38MContext6CanRunERKNS_11IMasterTaskE
	.text
	.p2align 4
	.type	_ZNSt14_Function_base13_Base_managerIZN8opendnp38MContext16PostCheckForTaskEvEUlvE_E10_M_managerERSt9_Any_dataRKS5_St18_Manager_operation, @function
_ZNSt14_Function_base13_Base_managerIZN8opendnp38MContext16PostCheckForTaskEvEUlvE_E10_M_managerERSt9_Any_dataRKS5_St18_Manager_operation:
.LFB4138:
	.cfi_startproc
	endbr64
	cmpl	$2, %edx
	je	.L11
	ja	.L12
	testl	%edx, %edx
	je	.L14
	movq	%rsi, (%rdi)
.L12:
	xorl	%eax, %eax
	ret
	.p2align 4,,10
	.p2align 3
.L11:
	movq	(%rsi), %rax
	movq	%rax, (%rdi)
	xorl	%eax, %eax
	ret
	.p2align 4,,10
	.p2align 3
.L14:
	leaq	_ZTIZN8opendnp38MContext16PostCheckForTaskEvEUlvE_(%rip), %rax
	movq	%rax, (%rdi)
	xorl	%eax, %eax
	ret
	.cfi_endproc
.LFE4138:
	.size	_ZNSt14_Function_base13_Base_managerIZN8opendnp38MContext16PostCheckForTaskEvEUlvE_E10_M_managerERSt9_Any_dataRKS5_St18_Manager_operation, .-_ZNSt14_Function_base13_Base_managerIZN8opendnp38MContext16PostCheckForTaskEvEUlvE_E10_M_managerERSt9_Any_dataRKS5_St18_Manager_operation
	.p2align 4
	.type	_ZNSt14_Function_base13_Base_managerIZN8opendnp38MContext12AddClassScanERKNS1_10ClassFieldEN7openpal12TimeDurationENS1_10TaskConfigEEUlRNS1_12HeaderWriterEE_E10_M_managerERSt9_Any_dataRKSD_St18_Manager_operation, @function
_ZNSt14_Function_base13_Base_managerIZN8opendnp38MContext12AddClassScanERKNS1_10ClassFieldEN7openpal12TimeDurationENS1_10TaskConfigEEUlRNS1_12HeaderWriterEE_E10_M_managerERSt9_Any_dataRKSD_St18_Manager_operation:
.LFB4162:
	.cfi_startproc
	endbr64
	cmpl	$2, %edx
	je	.L16
	ja	.L17
	testl	%edx, %edx
	je	.L19
	movq	%rsi, (%rdi)
.L17:
	xorl	%eax, %eax
	ret
	.p2align 4,,10
	.p2align 3
.L16:
	movzbl	(%rsi), %eax
	movb	%al, (%rdi)
	xorl	%eax, %eax
	ret
	.p2align 4,,10
	.p2align 3
.L19:
	leaq	_ZTIZN8opendnp38MContext12AddClassScanERKNS_10ClassFieldEN7openpal12TimeDurationENS_10TaskConfigEEUlRNS_12HeaderWriterEE_(%rip), %rax
	movq	%rax, (%rdi)
	xorl	%eax, %eax
	ret
	.cfi_endproc
.LFE4162:
	.size	_ZNSt14_Function_base13_Base_managerIZN8opendnp38MContext12AddClassScanERKNS1_10ClassFieldEN7openpal12TimeDurationENS1_10TaskConfigEEUlRNS1_12HeaderWriterEE_E10_M_managerERSt9_Any_dataRKSD_St18_Manager_operation, .-_ZNSt14_Function_base13_Base_managerIZN8opendnp38MContext12AddClassScanERKNS1_10ClassFieldEN7openpal12TimeDurationENS1_10TaskConfigEEUlRNS1_12HeaderWriterEE_E10_M_managerERSt9_Any_dataRKSD_St18_Manager_operation
	.p2align 4
	.type	_ZNSt14_Function_base13_Base_managerIZN8opendnp38MContext17AddAllObjectsScanENS1_16GroupVariationIDEN7openpal12TimeDurationENS1_10TaskConfigEEUlRNS1_12HeaderWriterEE_E10_M_managerERSt9_Any_dataRKSB_St18_Manager_operation, @function
_ZNSt14_Function_base13_Base_managerIZN8opendnp38MContext17AddAllObjectsScanENS1_16GroupVariationIDEN7openpal12TimeDurationENS1_10TaskConfigEEUlRNS1_12HeaderWriterEE_E10_M_managerERSt9_Any_dataRKSB_St18_Manager_operation:
.LFB4166:
	.cfi_startproc
	endbr64
	cmpl	$2, %edx
	je	.L21
	ja	.L22
	testl	%edx, %edx
	je	.L24
	movq	%rsi, (%rdi)
.L22:
	xorl	%eax, %eax
	ret
	.p2align 4,,10
	.p2align 3
.L21:
	movzwl	(%rsi), %eax
	movw	%ax, (%rdi)
	xorl	%eax, %eax
	ret
	.p2align 4,,10
	.p2align 3
.L24:
	leaq	_ZTIZN8opendnp38MContext17AddAllObjectsScanENS_16GroupVariationIDEN7openpal12TimeDurationENS_10TaskConfigEEUlRNS_12HeaderWriterEE_(%rip), %rax
	movq	%rax, (%rdi)
	xorl	%eax, %eax
	ret
	.cfi_endproc
.LFE4166:
	.size	_ZNSt14_Function_base13_Base_managerIZN8opendnp38MContext17AddAllObjectsScanENS1_16GroupVariationIDEN7openpal12TimeDurationENS1_10TaskConfigEEUlRNS1_12HeaderWriterEE_E10_M_managerERSt9_Any_dataRKSB_St18_Manager_operation, .-_ZNSt14_Function_base13_Base_managerIZN8opendnp38MContext17AddAllObjectsScanENS1_16GroupVariationIDEN7openpal12TimeDurationENS1_10TaskConfigEEUlRNS1_12HeaderWriterEE_E10_M_managerERSt9_Any_dataRKSB_St18_Manager_operation
	.p2align 4
	.type	_ZNSt14_Function_base13_Base_managerIZN8opendnp38MContext12AddRangeScanENS1_16GroupVariationIDEttN7openpal12TimeDurationENS1_10TaskConfigEEUlRNS1_12HeaderWriterEE_E10_M_managerERSt9_Any_dataRKSB_St18_Manager_operation, @function
_ZNSt14_Function_base13_Base_managerIZN8opendnp38MContext12AddRangeScanENS1_16GroupVariationIDEttN7openpal12TimeDurationENS1_10TaskConfigEEUlRNS1_12HeaderWriterEE_E10_M_managerERSt9_Any_dataRKSB_St18_Manager_operation:
.LFB4171:
	.cfi_startproc
	endbr64
	cmpl	$2, %edx
	je	.L26
	ja	.L27
	testl	%edx, %edx
	je	.L29
	movq	%rsi, (%rdi)
.L27:
	xorl	%eax, %eax
	ret
	.p2align 4,,10
	.p2align 3
.L26:
	movl	(%rsi), %eax
	movl	%eax, (%rdi)
	movzwl	4(%rsi), %eax
	movw	%ax, 4(%rdi)
	xorl	%eax, %eax
	ret
	.p2align 4,,10
	.p2align 3
.L29:
	leaq	_ZTIZN8opendnp38MContext12AddRangeScanENS_16GroupVariationIDEttN7openpal12TimeDurationENS_10TaskConfigEEUlRNS_12HeaderWriterEE_(%rip), %rax
	movq	%rax, (%rdi)
	xorl	%eax, %eax
	ret
	.cfi_endproc
.LFE4171:
	.size	_ZNSt14_Function_base13_Base_managerIZN8opendnp38MContext12AddRangeScanENS1_16GroupVariationIDEttN7openpal12TimeDurationENS1_10TaskConfigEEUlRNS1_12HeaderWriterEE_E10_M_managerERSt9_Any_dataRKSB_St18_Manager_operation, .-_ZNSt14_Function_base13_Base_managerIZN8opendnp38MContext12AddRangeScanENS1_16GroupVariationIDEttN7openpal12TimeDurationENS1_10TaskConfigEEUlRNS1_12HeaderWriterEE_E10_M_managerERSt9_Any_dataRKSB_St18_Manager_operation
	.p2align 4
	.type	_ZNSt14_Function_base13_Base_managerIZN8opendnp38MContext11ScanClassesERKNS1_10ClassFieldENS1_10TaskConfigEEUlRNS1_12HeaderWriterEE_E10_M_managerERSt9_Any_dataRKSB_St18_Manager_operation, @function
_ZNSt14_Function_base13_Base_managerIZN8opendnp38MContext11ScanClassesERKNS1_10ClassFieldENS1_10TaskConfigEEUlRNS1_12HeaderWriterEE_E10_M_managerERSt9_Any_dataRKSB_St18_Manager_operation:
.LFB4176:
	.cfi_startproc
	endbr64
	cmpl	$2, %edx
	je	.L31
	ja	.L32
	testl	%edx, %edx
	je	.L34
	movq	%rsi, (%rdi)
.L32:
	xorl	%eax, %eax
	ret
	.p2align 4,,10
	.p2align 3
.L31:
	movzbl	(%rsi), %eax
	movb	%al, (%rdi)
	xorl	%eax, %eax
	ret
	.p2align 4,,10
	.p2align 3
.L34:
	leaq	_ZTIZN8opendnp38MContext11ScanClassesERKNS_10ClassFieldENS_10TaskConfigEEUlRNS_12HeaderWriterEE_(%rip), %rax
	movq	%rax, (%rdi)
	xorl	%eax, %eax
	ret
	.cfi_endproc
.LFE4176:
	.size	_ZNSt14_Function_base13_Base_managerIZN8opendnp38MContext11ScanClassesERKNS1_10ClassFieldENS1_10TaskConfigEEUlRNS1_12HeaderWriterEE_E10_M_managerERSt9_Any_dataRKSB_St18_Manager_operation, .-_ZNSt14_Function_base13_Base_managerIZN8opendnp38MContext11ScanClassesERKNS1_10ClassFieldENS1_10TaskConfigEEUlRNS1_12HeaderWriterEE_E10_M_managerERSt9_Any_dataRKSB_St18_Manager_operation
	.p2align 4
	.type	_ZNSt14_Function_base13_Base_managerIZN8opendnp38MContext14ScanAllObjectsENS1_16GroupVariationIDENS1_10TaskConfigEEUlRNS1_12HeaderWriterEE_E10_M_managerERSt9_Any_dataRKS9_St18_Manager_operation, @function
_ZNSt14_Function_base13_Base_managerIZN8opendnp38MContext14ScanAllObjectsENS1_16GroupVariationIDENS1_10TaskConfigEEUlRNS1_12HeaderWriterEE_E10_M_managerERSt9_Any_dataRKS9_St18_Manager_operation:
.LFB4180:
	.cfi_startproc
	endbr64
	cmpl	$2, %edx
	je	.L36
	ja	.L37
	testl	%edx, %edx
	je	.L39
	movq	%rsi, (%rdi)
.L37:
	xorl	%eax, %eax
	ret
	.p2align 4,,10
	.p2align 3
.L36:
	movzwl	(%rsi), %eax
	movw	%ax, (%rdi)
	xorl	%eax, %eax
	ret
	.p2align 4,,10
	.p2align 3
.L39:
	leaq	_ZTIZN8opendnp38MContext14ScanAllObjectsENS_16GroupVariationIDENS_10TaskConfigEEUlRNS_12HeaderWriterEE_(%rip), %rax
	movq	%rax, (%rdi)
	xorl	%eax, %eax
	ret
	.cfi_endproc
.LFE4180:
	.size	_ZNSt14_Function_base13_Base_managerIZN8opendnp38MContext14ScanAllObjectsENS1_16GroupVariationIDENS1_10TaskConfigEEUlRNS1_12HeaderWriterEE_E10_M_managerERSt9_Any_dataRKS9_St18_Manager_operation, .-_ZNSt14_Function_base13_Base_managerIZN8opendnp38MContext14ScanAllObjectsENS1_16GroupVariationIDENS1_10TaskConfigEEUlRNS1_12HeaderWriterEE_E10_M_managerERSt9_Any_dataRKS9_St18_Manager_operation
	.p2align 4
	.type	_ZNSt14_Function_base13_Base_managerIZN8opendnp38MContext9ScanRangeENS1_16GroupVariationIDEttNS1_10TaskConfigEEUlRNS1_12HeaderWriterEE_E10_M_managerERSt9_Any_dataRKS9_St18_Manager_operation, @function
_ZNSt14_Function_base13_Base_managerIZN8opendnp38MContext9ScanRangeENS1_16GroupVariationIDEttNS1_10TaskConfigEEUlRNS1_12HeaderWriterEE_E10_M_managerERSt9_Any_dataRKS9_St18_Manager_operation:
.LFB4184:
	.cfi_startproc
	endbr64
	cmpl	$2, %edx
	je	.L41
	ja	.L42
	testl	%edx, %edx
	je	.L44
	movq	%rsi, (%rdi)
.L42:
	xorl	%eax, %eax
	ret
	.p2align 4,,10
	.p2align 3
.L41:
	movl	(%rsi), %eax
	movl	%eax, (%rdi)
	movzwl	4(%rsi), %eax
	movw	%ax, 4(%rdi)
	xorl	%eax, %eax
	ret
	.p2align 4,,10
	.p2align 3
.L44:
	leaq	_ZTIZN8opendnp38MContext9ScanRangeENS_16GroupVariationIDEttNS_10TaskConfigEEUlRNS_12HeaderWriterEE_(%rip), %rax
	movq	%rax, (%rdi)
	xorl	%eax, %eax
	ret
	.cfi_endproc
.LFE4184:
	.size	_ZNSt14_Function_base13_Base_managerIZN8opendnp38MContext9ScanRangeENS1_16GroupVariationIDEttNS1_10TaskConfigEEUlRNS1_12HeaderWriterEE_E10_M_managerERSt9_Any_dataRKS9_St18_Manager_operation, .-_ZNSt14_Function_base13_Base_managerIZN8opendnp38MContext9ScanRangeENS1_16GroupVariationIDEttNS1_10TaskConfigEEUlRNS1_12HeaderWriterEE_E10_M_managerERSt9_Any_dataRKS9_St18_Manager_operation
	.p2align 4
	.type	_ZNSt14_Function_base13_Base_managerIZN7openpal8TimerRef5StartIZN8opendnp38MContext18StartResponseTimerEvEUlvE_EEbRKNS1_12TimeDurationERKT_EUlvE_E10_M_managerERSt9_Any_dataRKSF_St18_Manager_operation, @function
_ZNSt14_Function_base13_Base_managerIZN7openpal8TimerRef5StartIZN8opendnp38MContext18StartResponseTimerEvEUlvE_EEbRKNS1_12TimeDurationERKT_EUlvE_E10_M_managerERSt9_Any_dataRKSF_St18_Manager_operation:
.LFB4318:
	.cfi_startproc
	endbr64
	cmpl	$2, %edx
	je	.L46
	ja	.L47
	testl	%edx, %edx
	je	.L49
	movq	%rsi, (%rdi)
.L47:
	xorl	%eax, %eax
	ret
	.p2align 4,,10
	.p2align 3
.L46:
	movdqu	(%rsi), %xmm0
	xorl	%eax, %eax
	movups	%xmm0, (%rdi)
	ret
	.p2align 4,,10
	.p2align 3
.L49:
	leaq	_ZTIZN7openpal8TimerRef5StartIZN8opendnp38MContext18StartResponseTimerEvEUlvE_EEbRKNS_12TimeDurationERKT_EUlvE_(%rip), %rax
	movq	%rax, (%rdi)
	xorl	%eax, %eax
	ret
	.cfi_endproc
.LFE4318:
	.size	_ZNSt14_Function_base13_Base_managerIZN7openpal8TimerRef5StartIZN8opendnp38MContext18StartResponseTimerEvEUlvE_EEbRKNS1_12TimeDurationERKT_EUlvE_E10_M_managerERSt9_Any_dataRKSF_St18_Manager_operation, .-_ZNSt14_Function_base13_Base_managerIZN7openpal8TimerRef5StartIZN8opendnp38MContext18StartResponseTimerEvEUlvE_EEbRKNS1_12TimeDurationERKT_EUlvE_E10_M_managerERSt9_Any_dataRKSF_St18_Manager_operation
	.p2align 4
	.type	_ZNSt14_Function_base13_Base_managerIZN7openpal8TimerRef7RestartIZN8opendnp38MContext19SetTaskStartTimeoutERKNS1_18MonotonicTimestampEEUlvE_EEvS8_RKT_EUlvE_E10_M_managerERSt9_Any_dataRKSF_St18_Manager_operation, @function
_ZNSt14_Function_base13_Base_managerIZN7openpal8TimerRef7RestartIZN8opendnp38MContext19SetTaskStartTimeoutERKNS1_18MonotonicTimestampEEUlvE_EEvS8_RKT_EUlvE_E10_M_managerERSt9_Any_dataRKSF_St18_Manager_operation:
.LFB4399:
	.cfi_startproc
	endbr64
	cmpl	$2, %edx
	je	.L51
	ja	.L52
	testl	%edx, %edx
	je	.L54
	movq	%rsi, (%rdi)
.L52:
	xorl	%eax, %eax
	ret
	.p2align 4,,10
	.p2align 3
.L51:
	movdqu	(%rsi), %xmm0
	xorl	%eax, %eax
	movups	%xmm0, (%rdi)
	ret
	.p2align 4,,10
	.p2align 3
.L54:
	leaq	_ZTIZN7openpal8TimerRef7RestartIZN8opendnp38MContext19SetTaskStartTimeoutERKNS_18MonotonicTimestampEEUlvE_EEvS6_RKT_EUlvE_(%rip), %rax
	movq	%rax, (%rdi)
	xorl	%eax, %eax
	ret
	.cfi_endproc
.LFE4399:
	.size	_ZNSt14_Function_base13_Base_managerIZN7openpal8TimerRef7RestartIZN8opendnp38MContext19SetTaskStartTimeoutERKNS1_18MonotonicTimestampEEUlvE_EEvS8_RKT_EUlvE_E10_M_managerERSt9_Any_dataRKSF_St18_Manager_operation, .-_ZNSt14_Function_base13_Base_managerIZN7openpal8TimerRef7RestartIZN8opendnp38MContext19SetTaskStartTimeoutERKNS1_18MonotonicTimestampEEUlvE_EEvS8_RKT_EUlvE_E10_M_managerERSt9_Any_dataRKSF_St18_Manager_operation
	.p2align 4
	.type	_ZNSt14_Function_base13_Base_managerIZN7openpal8TimerRef7RestartIZN8opendnp38MContext14StartTask_IdleEvEUlvE_EEvRKNS1_18MonotonicTimestampERKT_EUlvE_E10_M_managerERSt9_Any_dataRKSF_St18_Manager_operation, @function
_ZNSt14_Function_base13_Base_managerIZN7openpal8TimerRef7RestartIZN8opendnp38MContext14StartTask_IdleEvEUlvE_EEvRKNS1_18MonotonicTimestampERKT_EUlvE_E10_M_managerERSt9_Any_dataRKSF_St18_Manager_operation:
.LFB4403:
	.cfi_startproc
	endbr64
	cmpl	$2, %edx
	je	.L56
	ja	.L57
	testl	%edx, %edx
	je	.L59
	movq	%rsi, (%rdi)
.L57:
	xorl	%eax, %eax
	ret
	.p2align 4,,10
	.p2align 3
.L56:
	movdqu	(%rsi), %xmm0
	xorl	%eax, %eax
	movups	%xmm0, (%rdi)
	ret
	.p2align 4,,10
	.p2align 3
.L59:
	leaq	_ZTIZN7openpal8TimerRef7RestartIZN8opendnp38MContext14StartTask_IdleEvEUlvE_EEvRKNS_18MonotonicTimestampERKT_EUlvE_(%rip), %rax
	movq	%rax, (%rdi)
	xorl	%eax, %eax
	ret
	.cfi_endproc
.LFE4403:
	.size	_ZNSt14_Function_base13_Base_managerIZN7openpal8TimerRef7RestartIZN8opendnp38MContext14StartTask_IdleEvEUlvE_EEvRKNS1_18MonotonicTimestampERKT_EUlvE_E10_M_managerERSt9_Any_dataRKSF_St18_Manager_operation, .-_ZNSt14_Function_base13_Base_managerIZN7openpal8TimerRef7RestartIZN8opendnp38MContext14StartTask_IdleEvEUlvE_EEvRKNS1_18MonotonicTimestampERKT_EUlvE_E10_M_managerERSt9_Any_dataRKSF_St18_Manager_operation
	.section	.text._ZNSt23_Sp_counted_ptr_inplaceIN8opendnp320RestartOperationTaskESaIS1_ELN9__gnu_cxx12_Lock_policyE2EED2Ev,"axG",@progbits,_ZNSt23_Sp_counted_ptr_inplaceIN8opendnp320RestartOperationTaskESaIS1_ELN9__gnu_cxx12_Lock_policyE2EED5Ev,comdat
	.align 2
	.p2align 4
	.weak	_ZNSt23_Sp_counted_ptr_inplaceIN8opendnp320RestartOperationTaskESaIS1_ELN9__gnu_cxx12_Lock_policyE2EED2Ev
	.type	_ZNSt23_Sp_counted_ptr_inplaceIN8opendnp320RestartOperationTaskESaIS1_ELN9__gnu_cxx12_Lock_policyE2EED2Ev, @function
_ZNSt23_Sp_counted_ptr_inplaceIN8opendnp320RestartOperationTaskESaIS1_ELN9__gnu_cxx12_Lock_policyE2EED2Ev:
.LFB4955:
	.cfi_startproc
	endbr64
	ret
	.cfi_endproc
.LFE4955:
	.size	_ZNSt23_Sp_counted_ptr_inplaceIN8opendnp320RestartOperationTaskESaIS1_ELN9__gnu_cxx12_Lock_policyE2EED2Ev, .-_ZNSt23_Sp_counted_ptr_inplaceIN8opendnp320RestartOperationTaskESaIS1_ELN9__gnu_cxx12_Lock_policyE2EED2Ev
	.weak	_ZNSt23_Sp_counted_ptr_inplaceIN8opendnp320RestartOperationTaskESaIS1_ELN9__gnu_cxx12_Lock_policyE2EED1Ev
	.set	_ZNSt23_Sp_counted_ptr_inplaceIN8opendnp320RestartOperationTaskESaIS1_ELN9__gnu_cxx12_Lock_policyE2EED1Ev,_ZNSt23_Sp_counted_ptr_inplaceIN8opendnp320RestartOperationTaskESaIS1_ELN9__gnu_cxx12_Lock_policyE2EED2Ev
	.section	.text._ZNSt23_Sp_counted_ptr_inplaceIN8opendnp317EmptyResponseTaskESaIS1_ELN9__gnu_cxx12_Lock_policyE2EED2Ev,"axG",@progbits,_ZNSt23_Sp_counted_ptr_inplaceIN8opendnp317EmptyResponseTaskESaIS1_ELN9__gnu_cxx12_Lock_policyE2EED5Ev,comdat
	.align 2
	.p2align 4
	.weak	_ZNSt23_Sp_counted_ptr_inplaceIN8opendnp317EmptyResponseTaskESaIS1_ELN9__gnu_cxx12_Lock_policyE2EED2Ev
	.type	_ZNSt23_Sp_counted_ptr_inplaceIN8opendnp317EmptyResponseTaskESaIS1_ELN9__gnu_cxx12_Lock_policyE2EED2Ev, @function
_ZNSt23_Sp_counted_ptr_inplaceIN8opendnp317EmptyResponseTaskESaIS1_ELN9__gnu_cxx12_Lock_policyE2EED2Ev:
.LFB4962:
	.cfi_startproc
	endbr64
	ret
	.cfi_endproc
.LFE4962:
	.size	_ZNSt23_Sp_counted_ptr_inplaceIN8opendnp317EmptyResponseTaskESaIS1_ELN9__gnu_cxx12_Lock_policyE2EED2Ev, .-_ZNSt23_Sp_counted_ptr_inplaceIN8opendnp317EmptyResponseTaskESaIS1_ELN9__gnu_cxx12_Lock_policyE2EED2Ev
	.weak	_ZNSt23_Sp_counted_ptr_inplaceIN8opendnp317EmptyResponseTaskESaIS1_ELN9__gnu_cxx12_Lock_policyE2EED1Ev
	.set	_ZNSt23_Sp_counted_ptr_inplaceIN8opendnp317EmptyResponseTaskESaIS1_ELN9__gnu_cxx12_Lock_policyE2EED1Ev,_ZNSt23_Sp_counted_ptr_inplaceIN8opendnp317EmptyResponseTaskESaIS1_ELN9__gnu_cxx12_Lock_policyE2EED2Ev
	.section	.text._ZNSt23_Sp_counted_ptr_inplaceIN8opendnp317EmptyResponseTaskESaIS1_ELN9__gnu_cxx12_Lock_policyE2EE10_M_disposeEv,"axG",@progbits,_ZNSt23_Sp_counted_ptr_inplaceIN8opendnp317EmptyResponseTaskESaIS1_ELN9__gnu_cxx12_Lock_policyE2EE10_M_disposeEv,comdat
	.align 2
	.p2align 4
	.weak	_ZNSt23_Sp_counted_ptr_inplaceIN8opendnp317EmptyResponseTaskESaIS1_ELN9__gnu_cxx12_Lock_policyE2EE10_M_disposeEv
	.type	_ZNSt23_Sp_counted_ptr_inplaceIN8opendnp317EmptyResponseTaskESaIS1_ELN9__gnu_cxx12_Lock_policyE2EE10_M_disposeEv, @function
_ZNSt23_Sp_counted_ptr_inplaceIN8opendnp317EmptyResponseTaskESaIS1_ELN9__gnu_cxx12_Lock_policyE2EE10_M_disposeEv:
.LFB4965:
	.cfi_startproc
	endbr64
	movq	16(%rdi), %rax
	leaq	16(%rdi), %r8
	movq	%r8, %rdi
	movq	(%rax), %rax
	jmp	*%rax
	.cfi_endproc
.LFE4965:
	.size	_ZNSt23_Sp_counted_ptr_inplaceIN8opendnp317EmptyResponseTaskESaIS1_ELN9__gnu_cxx12_Lock_policyE2EE10_M_disposeEv, .-_ZNSt23_Sp_counted_ptr_inplaceIN8opendnp317EmptyResponseTaskESaIS1_ELN9__gnu_cxx12_Lock_policyE2EE10_M_disposeEv
	.section	.text._ZNSt23_Sp_counted_ptr_inplaceIN8opendnp312UserPollTaskESaIS1_ELN9__gnu_cxx12_Lock_policyE2EED2Ev,"axG",@progbits,_ZNSt23_Sp_counted_ptr_inplaceIN8opendnp312UserPollTaskESaIS1_ELN9__gnu_cxx12_Lock_policyE2EED5Ev,comdat
	.align 2
	.p2align 4
	.weak	_ZNSt23_Sp_counted_ptr_inplaceIN8opendnp312UserPollTaskESaIS1_ELN9__gnu_cxx12_Lock_policyE2EED2Ev
	.type	_ZNSt23_Sp_counted_ptr_inplaceIN8opendnp312UserPollTaskESaIS1_ELN9__gnu_cxx12_Lock_policyE2EED2Ev, @function
_ZNSt23_Sp_counted_ptr_inplaceIN8opendnp312UserPollTaskESaIS1_ELN9__gnu_cxx12_Lock_policyE2EED2Ev:
.LFB4969:
	.cfi_startproc
	endbr64
	ret
	.cfi_endproc
.LFE4969:
	.size	_ZNSt23_Sp_counted_ptr_inplaceIN8opendnp312UserPollTaskESaIS1_ELN9__gnu_cxx12_Lock_policyE2EED2Ev, .-_ZNSt23_Sp_counted_ptr_inplaceIN8opendnp312UserPollTaskESaIS1_ELN9__gnu_cxx12_Lock_policyE2EED2Ev
	.weak	_ZNSt23_Sp_counted_ptr_inplaceIN8opendnp312UserPollTaskESaIS1_ELN9__gnu_cxx12_Lock_policyE2EED1Ev
	.set	_ZNSt23_Sp_counted_ptr_inplaceIN8opendnp312UserPollTaskESaIS1_ELN9__gnu_cxx12_Lock_policyE2EED1Ev,_ZNSt23_Sp_counted_ptr_inplaceIN8opendnp312UserPollTaskESaIS1_ELN9__gnu_cxx12_Lock_policyE2EED2Ev
	.section	.text._ZNSt23_Sp_counted_ptr_inplaceIN8opendnp320RestartOperationTaskESaIS1_ELN9__gnu_cxx12_Lock_policyE2EE10_M_destroyEv,"axG",@progbits,_ZNSt23_Sp_counted_ptr_inplaceIN8opendnp320RestartOperationTaskESaIS1_ELN9__gnu_cxx12_Lock_policyE2EE10_M_destroyEv,comdat
	.align 2
	.p2align 4
	.weak	_ZNSt23_Sp_counted_ptr_inplaceIN8opendnp320RestartOperationTaskESaIS1_ELN9__gnu_cxx12_Lock_policyE2EE10_M_destroyEv
	.type	_ZNSt23_Sp_counted_ptr_inplaceIN8opendnp320RestartOperationTaskESaIS1_ELN9__gnu_cxx12_Lock_policyE2EE10_M_destroyEv, @function
_ZNSt23_Sp_counted_ptr_inplaceIN8opendnp320RestartOperationTaskESaIS1_ELN9__gnu_cxx12_Lock_policyE2EE10_M_destroyEv:
.LFB4959:
	.cfi_startproc
	endbr64
	jmp	_ZdlPv@PLT
	.cfi_endproc
.LFE4959:
	.size	_ZNSt23_Sp_counted_ptr_inplaceIN8opendnp320RestartOperationTaskESaIS1_ELN9__gnu_cxx12_Lock_policyE2EE10_M_destroyEv, .-_ZNSt23_Sp_counted_ptr_inplaceIN8opendnp320RestartOperationTaskESaIS1_ELN9__gnu_cxx12_Lock_policyE2EE10_M_destroyEv
	.section	.text._ZNSt23_Sp_counted_ptr_inplaceIN8opendnp317EmptyResponseTaskESaIS1_ELN9__gnu_cxx12_Lock_policyE2EE10_M_destroyEv,"axG",@progbits,_ZNSt23_Sp_counted_ptr_inplaceIN8opendnp317EmptyResponseTaskESaIS1_ELN9__gnu_cxx12_Lock_policyE2EE10_M_destroyEv,comdat
	.align 2
	.p2align 4
	.weak	_ZNSt23_Sp_counted_ptr_inplaceIN8opendnp317EmptyResponseTaskESaIS1_ELN9__gnu_cxx12_Lock_policyE2EE10_M_destroyEv
	.type	_ZNSt23_Sp_counted_ptr_inplaceIN8opendnp317EmptyResponseTaskESaIS1_ELN9__gnu_cxx12_Lock_policyE2EE10_M_destroyEv, @function
_ZNSt23_Sp_counted_ptr_inplaceIN8opendnp317EmptyResponseTaskESaIS1_ELN9__gnu_cxx12_Lock_policyE2EE10_M_destroyEv:
.LFB4966:
	.cfi_startproc
	endbr64
	jmp	_ZdlPv@PLT
	.cfi_endproc
.LFE4966:
	.size	_ZNSt23_Sp_counted_ptr_inplaceIN8opendnp317EmptyResponseTaskESaIS1_ELN9__gnu_cxx12_Lock_policyE2EE10_M_destroyEv, .-_ZNSt23_Sp_counted_ptr_inplaceIN8opendnp317EmptyResponseTaskESaIS1_ELN9__gnu_cxx12_Lock_policyE2EE10_M_destroyEv
	.section	.text._ZNSt23_Sp_counted_ptr_inplaceIN8opendnp312UserPollTaskESaIS1_ELN9__gnu_cxx12_Lock_policyE2EE10_M_destroyEv,"axG",@progbits,_ZNSt23_Sp_counted_ptr_inplaceIN8opendnp312UserPollTaskESaIS1_ELN9__gnu_cxx12_Lock_policyE2EE10_M_destroyEv,comdat
	.align 2
	.p2align 4
	.weak	_ZNSt23_Sp_counted_ptr_inplaceIN8opendnp312UserPollTaskESaIS1_ELN9__gnu_cxx12_Lock_policyE2EE10_M_destroyEv
	.type	_ZNSt23_Sp_counted_ptr_inplaceIN8opendnp312UserPollTaskESaIS1_ELN9__gnu_cxx12_Lock_policyE2EE10_M_destroyEv, @function
_ZNSt23_Sp_counted_ptr_inplaceIN8opendnp312UserPollTaskESaIS1_ELN9__gnu_cxx12_Lock_policyE2EE10_M_destroyEv:
.LFB4973:
	.cfi_startproc
	endbr64
	jmp	_ZdlPv@PLT
	.cfi_endproc
.LFE4973:
	.size	_ZNSt23_Sp_counted_ptr_inplaceIN8opendnp312UserPollTaskESaIS1_ELN9__gnu_cxx12_Lock_policyE2EE10_M_destroyEv, .-_ZNSt23_Sp_counted_ptr_inplaceIN8opendnp312UserPollTaskESaIS1_ELN9__gnu_cxx12_Lock_policyE2EE10_M_destroyEv
	.section	.text._ZNSt23_Sp_counted_ptr_inplaceIN8opendnp312UserPollTaskESaIS1_ELN9__gnu_cxx12_Lock_policyE2EED0Ev,"axG",@progbits,_ZNSt23_Sp_counted_ptr_inplaceIN8opendnp312UserPollTaskESaIS1_ELN9__gnu_cxx12_Lock_policyE2EED5Ev,comdat
	.align 2
	.p2align 4
	.weak	_ZNSt23_Sp_counted_ptr_inplaceIN8opendnp312UserPollTaskESaIS1_ELN9__gnu_cxx12_Lock_policyE2EED0Ev
	.type	_ZNSt23_Sp_counted_ptr_inplaceIN8opendnp312UserPollTaskESaIS1_ELN9__gnu_cxx12_Lock_policyE2EED0Ev, @function
_ZNSt23_Sp_counted_ptr_inplaceIN8opendnp312UserPollTaskESaIS1_ELN9__gnu_cxx12_Lock_policyE2EED0Ev:
.LFB4971:
	.cfi_startproc
	endbr64
	movl	$176, %esi
	jmp	_ZdlPvm@PLT
	.cfi_endproc
.LFE4971:
	.size	_ZNSt23_Sp_counted_ptr_inplaceIN8opendnp312UserPollTaskESaIS1_ELN9__gnu_cxx12_Lock_policyE2EED0Ev, .-_ZNSt23_Sp_counted_ptr_inplaceIN8opendnp312UserPollTaskESaIS1_ELN9__gnu_cxx12_Lock_policyE2EED0Ev
	.section	.text._ZNSt23_Sp_counted_ptr_inplaceIN8opendnp317EmptyResponseTaskESaIS1_ELN9__gnu_cxx12_Lock_policyE2EED0Ev,"axG",@progbits,_ZNSt23_Sp_counted_ptr_inplaceIN8opendnp317EmptyResponseTaskESaIS1_ELN9__gnu_cxx12_Lock_policyE2EED5Ev,comdat
	.align 2
	.p2align 4
	.weak	_ZNSt23_Sp_counted_ptr_inplaceIN8opendnp317EmptyResponseTaskESaIS1_ELN9__gnu_cxx12_Lock_policyE2EED0Ev
	.type	_ZNSt23_Sp_counted_ptr_inplaceIN8opendnp317EmptyResponseTaskESaIS1_ELN9__gnu_cxx12_Lock_policyE2EED0Ev, @function
_ZNSt23_Sp_counted_ptr_inplaceIN8opendnp317EmptyResponseTaskESaIS1_ELN9__gnu_cxx12_Lock_policyE2EED0Ev:
.LFB4964:
	.cfi_startproc
	endbr64
	movl	$176, %esi
	jmp	_ZdlPvm@PLT
	.cfi_endproc
.LFE4964:
	.size	_ZNSt23_Sp_counted_ptr_inplaceIN8opendnp317EmptyResponseTaskESaIS1_ELN9__gnu_cxx12_Lock_policyE2EED0Ev, .-_ZNSt23_Sp_counted_ptr_inplaceIN8opendnp317EmptyResponseTaskESaIS1_ELN9__gnu_cxx12_Lock_policyE2EED0Ev
	.section	.text._ZNSt23_Sp_counted_ptr_inplaceIN8opendnp320RestartOperationTaskESaIS1_ELN9__gnu_cxx12_Lock_policyE2EED0Ev,"axG",@progbits,_ZNSt23_Sp_counted_ptr_inplaceIN8opendnp320RestartOperationTaskESaIS1_ELN9__gnu_cxx12_Lock_policyE2EED5Ev,comdat
	.align 2
	.p2align 4
	.weak	_ZNSt23_Sp_counted_ptr_inplaceIN8opendnp320RestartOperationTaskESaIS1_ELN9__gnu_cxx12_Lock_policyE2EED0Ev
	.type	_ZNSt23_Sp_counted_ptr_inplaceIN8opendnp320RestartOperationTaskESaIS1_ELN9__gnu_cxx12_Lock_policyE2EED0Ev, @function
_ZNSt23_Sp_counted_ptr_inplaceIN8opendnp320RestartOperationTaskESaIS1_ELN9__gnu_cxx12_Lock_policyE2EED0Ev:
.LFB4957:
	.cfi_startproc
	endbr64
	movl	$208, %esi
	jmp	_ZdlPvm@PLT
	.cfi_endproc
.LFE4957:
	.size	_ZNSt23_Sp_counted_ptr_inplaceIN8opendnp320RestartOperationTaskESaIS1_ELN9__gnu_cxx12_Lock_policyE2EED0Ev, .-_ZNSt23_Sp_counted_ptr_inplaceIN8opendnp320RestartOperationTaskESaIS1_ELN9__gnu_cxx12_Lock_policyE2EED0Ev
	.section	.text._ZNSt23_Sp_counted_ptr_inplaceIN8opendnp312UserPollTaskESaIS1_ELN9__gnu_cxx12_Lock_policyE2EE14_M_get_deleterERKSt9type_info,"axG",@progbits,_ZNSt23_Sp_counted_ptr_inplaceIN8opendnp312UserPollTaskESaIS1_ELN9__gnu_cxx12_Lock_policyE2EE14_M_get_deleterERKSt9type_info,comdat
	.align 2
	.p2align 4
	.weak	_ZNSt23_Sp_counted_ptr_inplaceIN8opendnp312UserPollTaskESaIS1_ELN9__gnu_cxx12_Lock_policyE2EE14_M_get_deleterERKSt9type_info
	.type	_ZNSt23_Sp_counted_ptr_inplaceIN8opendnp312UserPollTaskESaIS1_ELN9__gnu_cxx12_Lock_policyE2EE14_M_get_deleterERKSt9type_info, @function
_ZNSt23_Sp_counted_ptr_inplaceIN8opendnp312UserPollTaskESaIS1_ELN9__gnu_cxx12_Lock_policyE2EE14_M_get_deleterERKSt9type_info:
.LFB4974:
	.cfi_startproc
	endbr64
	pushq	%r12
	.cfi_def_cfa_offset 16
	.cfi_offset 12, -16
	pushq	%rbx
	.cfi_def_cfa_offset 24
	.cfi_offset 3, -24
	movq	%rdi, %rbx
	subq	$8, %rsp
	.cfi_def_cfa_offset 32
	cmpq	_ZZNSt19_Sp_make_shared_tag5_S_tiEvE5__tag@GOTPCREL(%rip), %rsi
	je	.L71
	movq	8(%rsi), %rdi
	movq	_ZTSSt19_Sp_make_shared_tag@GOTPCREL(%rip), %rsi
	cmpq	%rsi, %rdi
	je	.L71
	xorl	%r12d, %r12d
	cmpb	$42, (%rdi)
	je	.L70
	call	strcmp@PLT
	testl	%eax, %eax
	jne	.L70
.L71:
	leaq	16(%rbx), %r12
.L70:
	addq	$8, %rsp
	.cfi_def_cfa_offset 24
	movq	%r12, %rax
	popq	%rbx
	.cfi_def_cfa_offset 16
	popq	%r12
	.cfi_def_cfa_offset 8
	ret
	.cfi_endproc
.LFE4974:
	.size	_ZNSt23_Sp_counted_ptr_inplaceIN8opendnp312UserPollTaskESaIS1_ELN9__gnu_cxx12_Lock_policyE2EE14_M_get_deleterERKSt9type_info, .-_ZNSt23_Sp_counted_ptr_inplaceIN8opendnp312UserPollTaskESaIS1_ELN9__gnu_cxx12_Lock_policyE2EE14_M_get_deleterERKSt9type_info
	.section	.text._ZNSt23_Sp_counted_ptr_inplaceIN8opendnp317EmptyResponseTaskESaIS1_ELN9__gnu_cxx12_Lock_policyE2EE14_M_get_deleterERKSt9type_info,"axG",@progbits,_ZNSt23_Sp_counted_ptr_inplaceIN8opendnp317EmptyResponseTaskESaIS1_ELN9__gnu_cxx12_Lock_policyE2EE14_M_get_deleterERKSt9type_info,comdat
	.align 2
	.p2align 4
	.weak	_ZNSt23_Sp_counted_ptr_inplaceIN8opendnp317EmptyResponseTaskESaIS1_ELN9__gnu_cxx12_Lock_policyE2EE14_M_get_deleterERKSt9type_info
	.type	_ZNSt23_Sp_counted_ptr_inplaceIN8opendnp317EmptyResponseTaskESaIS1_ELN9__gnu_cxx12_Lock_policyE2EE14_M_get_deleterERKSt9type_info, @function
_ZNSt23_Sp_counted_ptr_inplaceIN8opendnp317EmptyResponseTaskESaIS1_ELN9__gnu_cxx12_Lock_policyE2EE14_M_get_deleterERKSt9type_info:
.LFB4967:
	.cfi_startproc
	endbr64
	pushq	%r12
	.cfi_def_cfa_offset 16
	.cfi_offset 12, -16
	pushq	%rbx
	.cfi_def_cfa_offset 24
	.cfi_offset 3, -24
	movq	%rdi, %rbx
	subq	$8, %rsp
	.cfi_def_cfa_offset 32
	cmpq	_ZZNSt19_Sp_make_shared_tag5_S_tiEvE5__tag@GOTPCREL(%rip), %rsi
	je	.L77
	movq	8(%rsi), %rdi
	movq	_ZTSSt19_Sp_make_shared_tag@GOTPCREL(%rip), %rsi
	cmpq	%rsi, %rdi
	je	.L77
	xorl	%r12d, %r12d
	cmpb	$42, (%rdi)
	je	.L76
	call	strcmp@PLT
	testl	%eax, %eax
	jne	.L76
.L77:
	leaq	16(%rbx), %r12
.L76:
	addq	$8, %rsp
	.cfi_def_cfa_offset 24
	movq	%r12, %rax
	popq	%rbx
	.cfi_def_cfa_offset 16
	popq	%r12
	.cfi_def_cfa_offset 8
	ret
	.cfi_endproc
.LFE4967:
	.size	_ZNSt23_Sp_counted_ptr_inplaceIN8opendnp317EmptyResponseTaskESaIS1_ELN9__gnu_cxx12_Lock_policyE2EE14_M_get_deleterERKSt9type_info, .-_ZNSt23_Sp_counted_ptr_inplaceIN8opendnp317EmptyResponseTaskESaIS1_ELN9__gnu_cxx12_Lock_policyE2EE14_M_get_deleterERKSt9type_info
	.section	.text._ZNSt23_Sp_counted_ptr_inplaceIN8opendnp320RestartOperationTaskESaIS1_ELN9__gnu_cxx12_Lock_policyE2EE14_M_get_deleterERKSt9type_info,"axG",@progbits,_ZNSt23_Sp_counted_ptr_inplaceIN8opendnp320RestartOperationTaskESaIS1_ELN9__gnu_cxx12_Lock_policyE2EE14_M_get_deleterERKSt9type_info,comdat
	.align 2
	.p2align 4
	.weak	_ZNSt23_Sp_counted_ptr_inplaceIN8opendnp320RestartOperationTaskESaIS1_ELN9__gnu_cxx12_Lock_policyE2EE14_M_get_deleterERKSt9type_info
	.type	_ZNSt23_Sp_counted_ptr_inplaceIN8opendnp320RestartOperationTaskESaIS1_ELN9__gnu_cxx12_Lock_policyE2EE14_M_get_deleterERKSt9type_info, @function
_ZNSt23_Sp_counted_ptr_inplaceIN8opendnp320RestartOperationTaskESaIS1_ELN9__gnu_cxx12_Lock_policyE2EE14_M_get_deleterERKSt9type_info:
.LFB4960:
	.cfi_startproc
	endbr64
	pushq	%r12
	.cfi_def_cfa_offset 16
	.cfi_offset 12, -16
	pushq	%rbx
	.cfi_def_cfa_offset 24
	.cfi_offset 3, -24
	movq	%rdi, %rbx
	subq	$8, %rsp
	.cfi_def_cfa_offset 32
	cmpq	_ZZNSt19_Sp_make_shared_tag5_S_tiEvE5__tag@GOTPCREL(%rip), %rsi
	je	.L83
	movq	8(%rsi), %rdi
	movq	_ZTSSt19_Sp_make_shared_tag@GOTPCREL(%rip), %rsi
	cmpq	%rsi, %rdi
	je	.L83
	xorl	%r12d, %r12d
	cmpb	$42, (%rdi)
	je	.L82
	call	strcmp@PLT
	testl	%eax, %eax
	jne	.L82
.L83:
	leaq	16(%rbx), %r12
.L82:
	addq	$8, %rsp
	.cfi_def_cfa_offset 24
	movq	%r12, %rax
	popq	%rbx
	.cfi_def_cfa_offset 16
	popq	%r12
	.cfi_def_cfa_offset 8
	ret
	.cfi_endproc
.LFE4960:
	.size	_ZNSt23_Sp_counted_ptr_inplaceIN8opendnp320RestartOperationTaskESaIS1_ELN9__gnu_cxx12_Lock_policyE2EE14_M_get_deleterERKSt9type_info, .-_ZNSt23_Sp_counted_ptr_inplaceIN8opendnp320RestartOperationTaskESaIS1_ELN9__gnu_cxx12_Lock_policyE2EE14_M_get_deleterERKSt9type_info
	.text
	.p2align 4
	.type	_ZNSt17_Function_handlerIFbRN8opendnp312HeaderWriterEEZNS0_8MContext12AddClassScanERKNS0_10ClassFieldEN7openpal12TimeDurationENS0_10TaskConfigEEUlS2_E_E9_M_invokeERKSt9_Any_dataS2_, @function
_ZNSt17_Function_handlerIFbRN8opendnp312HeaderWriterEEZNS0_8MContext12AddClassScanERKNS0_10ClassFieldEN7openpal12TimeDurationENS0_10TaskConfigEEUlS2_E_E9_M_invokeERKSt9_Any_dataS2_:
.LFB4160:
	.cfi_startproc
	endbr64
	movq	%rdi, %r8
	movq	%rsi, %rdi
	movq	%r8, %rsi
	jmp	_ZN8opendnp35build17WriteClassHeadersERNS_12HeaderWriterERKNS_10ClassFieldE@PLT
	.cfi_endproc
.LFE4160:
	.size	_ZNSt17_Function_handlerIFbRN8opendnp312HeaderWriterEEZNS0_8MContext12AddClassScanERKNS0_10ClassFieldEN7openpal12TimeDurationENS0_10TaskConfigEEUlS2_E_E9_M_invokeERKSt9_Any_dataS2_, .-_ZNSt17_Function_handlerIFbRN8opendnp312HeaderWriterEEZNS0_8MContext12AddClassScanERKNS0_10ClassFieldEN7openpal12TimeDurationENS0_10TaskConfigEEUlS2_E_E9_M_invokeERKSt9_Any_dataS2_
	.p2align 4
	.type	_ZNSt17_Function_handlerIFbRN8opendnp312HeaderWriterEEZNS0_8MContext11ScanClassesERKNS0_10ClassFieldENS0_10TaskConfigEEUlS2_E_E9_M_invokeERKSt9_Any_dataS2_, @function
_ZNSt17_Function_handlerIFbRN8opendnp312HeaderWriterEEZNS0_8MContext11ScanClassesERKNS0_10ClassFieldENS0_10TaskConfigEEUlS2_E_E9_M_invokeERKSt9_Any_dataS2_:
.LFB4175:
	.cfi_startproc
	endbr64
	movq	%rdi, %r8
	movq	%rsi, %rdi
	movq	%r8, %rsi
	jmp	_ZN8opendnp35build17WriteClassHeadersERNS_12HeaderWriterERKNS_10ClassFieldE@PLT
	.cfi_endproc
.LFE4175:
	.size	_ZNSt17_Function_handlerIFbRN8opendnp312HeaderWriterEEZNS0_8MContext11ScanClassesERKNS0_10ClassFieldENS0_10TaskConfigEEUlS2_E_E9_M_invokeERKSt9_Any_dataS2_, .-_ZNSt17_Function_handlerIFbRN8opendnp312HeaderWriterEEZNS0_8MContext11ScanClassesERKNS0_10ClassFieldENS0_10TaskConfigEEUlS2_E_E9_M_invokeERKSt9_Any_dataS2_
	.p2align 4
	.type	_ZNSt17_Function_handlerIFbRN8opendnp312HeaderWriterEEZNS0_8MContext17AddAllObjectsScanENS0_16GroupVariationIDEN7openpal12TimeDurationENS0_10TaskConfigEEUlS2_E_E9_M_invokeERKSt9_Any_dataS2_, @function
_ZNSt17_Function_handlerIFbRN8opendnp312HeaderWriterEEZNS0_8MContext17AddAllObjectsScanENS0_16GroupVariationIDEN7openpal12TimeDurationENS0_10TaskConfigEEUlS2_E_E9_M_invokeERKSt9_Any_dataS2_:
.LFB4165:
	.cfi_startproc
	endbr64
	movq	%rdi, %r8
	movq	%rsi, %rdi
	movl	$6, %edx
	movzwl	(%r8), %esi
	jmp	_ZN8opendnp312HeaderWriter11WriteHeaderENS_16GroupVariationIDENS_13QualifierCodeE@PLT
	.cfi_endproc
.LFE4165:
	.size	_ZNSt17_Function_handlerIFbRN8opendnp312HeaderWriterEEZNS0_8MContext17AddAllObjectsScanENS0_16GroupVariationIDEN7openpal12TimeDurationENS0_10TaskConfigEEUlS2_E_E9_M_invokeERKSt9_Any_dataS2_, .-_ZNSt17_Function_handlerIFbRN8opendnp312HeaderWriterEEZNS0_8MContext17AddAllObjectsScanENS0_16GroupVariationIDEN7openpal12TimeDurationENS0_10TaskConfigEEUlS2_E_E9_M_invokeERKSt9_Any_dataS2_
	.section	.text.unlikely,"ax",@progbits
	.align 2
.LCOLDB0:
	.text
.LHOTB0:
	.align 2
	.p2align 4
	.globl	_ZN8opendnp38MContext19SetTaskStartTimeoutERKN7openpal18MonotonicTimestampE
	.type	_ZN8opendnp38MContext19SetTaskStartTimeoutERKN7openpal18MonotonicTimestampE, @function
_ZN8opendnp38MContext19SetTaskStartTimeoutERKN7openpal18MonotonicTimestampE:
.LFB3461:
	.cfi_startproc
	.cfi_personality 0x9b,DW.ref.__gxx_personality_v0
	.cfi_lsda 0x1b,.LLSDA3461
	endbr64
	pushq	%r12
	.cfi_def_cfa_offset 16
	.cfi_offset 12, -16
	leaq	_ZNSt14_Function_base13_Base_managerIZN7openpal8TimerRef7RestartIZN8opendnp38MContext19SetTaskStartTimeoutERKNS1_18MonotonicTimestampEEUlvE_EEvS8_RKT_EUlvE_E10_M_managerERSt9_Any_dataRKSF_St18_Manager_operation(%rip), %rcx
	leaq	224(%rdi), %r8
	pushq	%rbp
	.cfi_def_cfa_offset 24
	.cfi_offset 6, -24
	movq	%rcx, %xmm0
	subq	$56, %rsp
	.cfi_def_cfa_offset 80
	movq	%fs:40, %rax
	movq	%rax, 40(%rsp)
	xorl	%eax, %eax
	leaq	_ZNSt17_Function_handlerIFvvEZN7openpal8TimerRef7RestartIZN8opendnp38MContext19SetTaskStartTimeoutERKNS1_18MonotonicTimestampEEUlvE_EEvS8_RKT_EUlvE_E9_M_invokeERKSt9_Any_data(%rip), %rax
	movq	%rsp, %rbp
	movq	%r8, (%rsp)
	movq	%rax, %xmm1
	movq	%rdi, 8(%rsp)
	movq	%rbp, %rdx
	movq	%r8, %rdi
	punpcklqdq	%xmm1, %xmm0
	movaps	%xmm0, 16(%rsp)
.LEHB0:
	call	_ZN7openpal8TimerRef13RestartActionERKNS_18MonotonicTimestampERKSt8functionIFvvEE@PLT
.LEHE0:
	movq	16(%rsp), %rax
	testq	%rax, %rax
	je	.L91
	movl	$3, %edx
	movq	%rbp, %rsi
	movq	%rbp, %rdi
	call	*%rax
.L91:
	movq	40(%rsp), %rax
	xorq	%fs:40, %rax
	jne	.L104
	addq	$56, %rsp
	.cfi_remember_state
	.cfi_def_cfa_offset 24
	popq	%rbp
	.cfi_def_cfa_offset 16
	popq	%r12
	.cfi_def_cfa_offset 8
	ret
.L104:
	.cfi_restore_state
	call	__stack_chk_fail@PLT
.L96:
	endbr64
	movq	%rax, %r12
	jmp	.L93
	.globl	__gxx_personality_v0
	.section	.gcc_except_table,"a",@progbits
.LLSDA3461:
	.byte	0xff
	.byte	0xff
	.byte	0x1
	.uleb128 .LLSDACSE3461-.LLSDACSB3461
.LLSDACSB3461:
	.uleb128 .LEHB0-.LFB3461
	.uleb128 .LEHE0-.LEHB0
	.uleb128 .L96-.LFB3461
	.uleb128 0
.LLSDACSE3461:
	.text
	.cfi_endproc
	.section	.text.unlikely
	.cfi_startproc
	.cfi_personality 0x9b,DW.ref.__gxx_personality_v0
	.cfi_lsda 0x1b,.LLSDAC3461
	.type	_ZN8opendnp38MContext19SetTaskStartTimeoutERKN7openpal18MonotonicTimestampE.cold, @function
_ZN8opendnp38MContext19SetTaskStartTimeoutERKN7openpal18MonotonicTimestampE.cold:
.LFSB3461:
.L93:
	.cfi_def_cfa_offset 80
	.cfi_offset 6, -24
	.cfi_offset 12, -16
	movq	16(%rsp), %rax
	testq	%rax, %rax
	je	.L94
	movl	$3, %edx
	movq	%rbp, %rsi
	movq	%rbp, %rdi
	call	*%rax
.L94:
	movq	%r12, %rdi
.LEHB1:
	call	_Unwind_Resume@PLT
.LEHE1:
	.cfi_endproc
.LFE3461:
	.section	.gcc_except_table
.LLSDAC3461:
	.byte	0xff
	.byte	0xff
	.byte	0x1
	.uleb128 .LLSDACSEC3461-.LLSDACSBC3461
.LLSDACSBC3461:
	.uleb128 .LEHB1-.LCOLDB0
	.uleb128 .LEHE1-.LEHB1
	.uleb128 0
	.uleb128 0
.LLSDACSEC3461:
	.section	.text.unlikely
	.text
	.size	_ZN8opendnp38MContext19SetTaskStartTimeoutERKN7openpal18MonotonicTimestampE, .-_ZN8opendnp38MContext19SetTaskStartTimeoutERKN7openpal18MonotonicTimestampE
	.section	.text.unlikely
	.size	_ZN8opendnp38MContext19SetTaskStartTimeoutERKN7openpal18MonotonicTimestampE.cold, .-_ZN8opendnp38MContext19SetTaskStartTimeoutERKN7openpal18MonotonicTimestampE.cold
.LCOLDE0:
	.text
.LHOTE0:
	.section	.text._ZN7openpal5ArrayIhjED2Ev,"axG",@progbits,_ZN7openpal5ArrayIhjED5Ev,comdat
	.align 2
	.p2align 4
	.weak	_ZN7openpal5ArrayIhjED2Ev
	.type	_ZN7openpal5ArrayIhjED2Ev, @function
_ZN7openpal5ArrayIhjED2Ev:
.LFB3741:
	.cfi_startproc
	endbr64
	movq	_ZTVN7openpal5ArrayIhjEE@GOTPCREL(%rip), %rax
	addq	$16, %rax
	movq	%rax, (%rdi)
	movq	16(%rdi), %rdi
	testq	%rdi, %rdi
	je	.L105
	jmp	_ZdaPv@PLT
	.p2align 4,,10
	.p2align 3
.L105:
	ret
	.cfi_endproc
.LFE3741:
	.size	_ZN7openpal5ArrayIhjED2Ev, .-_ZN7openpal5ArrayIhjED2Ev
	.weak	_ZN7openpal5ArrayIhjED1Ev
	.set	_ZN7openpal5ArrayIhjED1Ev,_ZN7openpal5ArrayIhjED2Ev
	.section	.text._ZN7openpal5ArrayIhjED0Ev,"axG",@progbits,_ZN7openpal5ArrayIhjED5Ev,comdat
	.align 2
	.p2align 4
	.weak	_ZN7openpal5ArrayIhjED0Ev
	.type	_ZN7openpal5ArrayIhjED0Ev, @function
_ZN7openpal5ArrayIhjED0Ev:
.LFB3743:
	.cfi_startproc
	endbr64
	movq	_ZTVN7openpal5ArrayIhjEE@GOTPCREL(%rip), %rax
	pushq	%rbp
	.cfi_def_cfa_offset 16
	.cfi_offset 6, -16
	movq	%rdi, %rbp
	addq	$16, %rax
	movq	%rax, (%rdi)
	movq	16(%rdi), %rdi
	testq	%rdi, %rdi
	je	.L108
	call	_ZdaPv@PLT
.L108:
	movq	%rbp, %rdi
	movl	$24, %esi
	popq	%rbp
	.cfi_def_cfa_offset 8
	jmp	_ZdlPvm@PLT
	.cfi_endproc
.LFE3743:
	.size	_ZN7openpal5ArrayIhjED0Ev, .-_ZN7openpal5ArrayIhjED0Ev
	.text
	.p2align 4
	.type	_ZNSt17_Function_handlerIFvvEZN7openpal8TimerRef7RestartIZN8opendnp38MContext19SetTaskStartTimeoutERKNS1_18MonotonicTimestampEEUlvE_EEvS8_RKT_EUlvE_E9_M_invokeERKSt9_Any_data, @function
_ZNSt17_Function_handlerIFvvEZN7openpal8TimerRef7RestartIZN8opendnp38MContext19SetTaskStartTimeoutERKNS1_18MonotonicTimestampEEUlvE_EEvS8_RKT_EUlvE_E9_M_invokeERKSt9_Any_data:
.LFB4398:
	.cfi_startproc
	endbr64
	pushq	%rbx
	.cfi_def_cfa_offset 16
	.cfi_offset 3, -16
	subq	$16, %rsp
	.cfi_def_cfa_offset 32
	movq	8(%rdi), %rbx
	movq	%fs:40, %rax
	movq	%rax, 8(%rsp)
	xorl	%eax, %eax
	movq	(%rdi), %rax
	movq	56(%rbx), %rdi
	movq	$0, 8(%rax)
	movq	(%rdi), %rax
	call	*16(%rax)
	movq	%rsp, %rsi
	leaq	376(%rbx), %rdi
	movq	%rax, (%rsp)
	call	_ZN8opendnp315MasterScheduler21CheckTaskStartTimeoutERKN7openpal18MonotonicTimestampE@PLT
	movq	8(%rsp), %rax
	xorq	%fs:40, %rax
	jne	.L116
	addq	$16, %rsp
	.cfi_remember_state
	.cfi_def_cfa_offset 16
	popq	%rbx
	.cfi_def_cfa_offset 8
	ret
.L116:
	.cfi_restore_state
	call	__stack_chk_fail@PLT
	.cfi_endproc
.LFE4398:
	.size	_ZNSt17_Function_handlerIFvvEZN7openpal8TimerRef7RestartIZN8opendnp38MContext19SetTaskStartTimeoutERKNS1_18MonotonicTimestampEEUlvE_EEvS8_RKT_EUlvE_E9_M_invokeERKSt9_Any_data, .-_ZNSt17_Function_handlerIFvvEZN7openpal8TimerRef7RestartIZN8opendnp38MContext19SetTaskStartTimeoutERKNS1_18MonotonicTimestampEEUlvE_EEvS8_RKT_EUlvE_E9_M_invokeERKSt9_Any_data
	.p2align 4
	.type	_ZNSt14_Function_base13_Base_managerIZN8opendnp38MContext5WriteERKNS1_15TimeAndIntervalEtNS1_10TaskConfigEEUlRNS1_12HeaderWriterEE_E10_M_managerERSt9_Any_dataRKSB_St18_Manager_operation, @function
_ZNSt14_Function_base13_Base_managerIZN8opendnp38MContext5WriteERKNS1_15TimeAndIntervalEtNS1_10TaskConfigEEUlRNS1_12HeaderWriterEE_E10_M_managerERSt9_Any_dataRKSB_St18_Manager_operation:
.LFB4923:
	.cfi_startproc
	endbr64
	pushq	%rbp
	.cfi_def_cfa_offset 16
	.cfi_offset 6, -16
	pushq	%rbx
	.cfi_def_cfa_offset 24
	.cfi_offset 3, -24
	movq	%rdi, %rbx
	subq	$8, %rsp
	.cfi_def_cfa_offset 32
	cmpl	$2, %edx
	je	.L118
	ja	.L119
	testl	%edx, %edx
	je	.L129
	movq	(%rsi), %rax
	movq	%rax, (%rdi)
.L123:
	addq	$8, %rsp
	.cfi_remember_state
	.cfi_def_cfa_offset 24
	xorl	%eax, %eax
	popq	%rbx
	.cfi_def_cfa_offset 16
	popq	%rbp
	.cfi_def_cfa_offset 8
	ret
	.p2align 4,,10
	.p2align 3
.L119:
	.cfi_restore_state
	cmpl	$3, %edx
	jne	.L123
	movq	(%rdi), %rdi
	testq	%rdi, %rdi
	je	.L123
	movl	$24, %esi
	call	_ZdlPvm@PLT
	addq	$8, %rsp
	.cfi_remember_state
	.cfi_def_cfa_offset 24
	xorl	%eax, %eax
	popq	%rbx
	.cfi_def_cfa_offset 16
	popq	%rbp
	.cfi_def_cfa_offset 8
	ret
	.p2align 4,,10
	.p2align 3
.L118:
	.cfi_restore_state
	movq	(%rsi), %rbp
	movl	$24, %edi
	call	_Znwm@PLT
	movdqu	0(%rbp), %xmm0
	movups	%xmm0, (%rax)
	movq	16(%rbp), %rdx
	movq	%rdx, 16(%rax)
	movq	%rax, (%rbx)
	addq	$8, %rsp
	.cfi_remember_state
	.cfi_def_cfa_offset 24
	xorl	%eax, %eax
	popq	%rbx
	.cfi_def_cfa_offset 16
	popq	%rbp
	.cfi_def_cfa_offset 8
	ret
	.p2align 4,,10
	.p2align 3
.L129:
	.cfi_restore_state
	leaq	_ZTIZN8opendnp38MContext5WriteERKNS_15TimeAndIntervalEtNS_10TaskConfigEEUlRNS_12HeaderWriterEE_(%rip), %rax
	movq	%rax, (%rdi)
	addq	$8, %rsp
	.cfi_def_cfa_offset 24
	xorl	%eax, %eax
	popq	%rbx
	.cfi_def_cfa_offset 16
	popq	%rbp
	.cfi_def_cfa_offset 8
	ret
	.cfi_endproc
.LFE4923:
	.size	_ZNSt14_Function_base13_Base_managerIZN8opendnp38MContext5WriteERKNS1_15TimeAndIntervalEtNS1_10TaskConfigEEUlRNS1_12HeaderWriterEE_E10_M_managerERSt9_Any_dataRKSB_St18_Manager_operation, .-_ZNSt14_Function_base13_Base_managerIZN8opendnp38MContext5WriteERKNS1_15TimeAndIntervalEtNS1_10TaskConfigEEUlRNS1_12HeaderWriterEE_E10_M_managerERSt9_Any_dataRKSB_St18_Manager_operation
	.p2align 4
	.type	_ZNSt17_Function_handlerIFbRN8opendnp312HeaderWriterEEZNS0_8MContext5WriteERKNS0_15TimeAndIntervalEtNS0_10TaskConfigEEUlS2_E_E9_M_invokeERKSt9_Any_dataS2_, @function
_ZNSt17_Function_handlerIFbRN8opendnp312HeaderWriterEEZNS0_8MContext5WriteERKNS0_15TimeAndIntervalEtNS0_10TaskConfigEEUlS2_E_E9_M_invokeERKSt9_Any_dataS2_:
.LFB4922:
	.cfi_startproc
	endbr64
	pushq	%r13
	.cfi_def_cfa_offset 16
	.cfi_offset 13, -16
	movl	$15, %ecx
	movl	$40, %edx
	pushq	%r12
	.cfi_def_cfa_offset 24
	.cfi_offset 12, -24
	pushq	%rbp
	.cfi_def_cfa_offset 32
	.cfi_offset 6, -32
	pushq	%rbx
	.cfi_def_cfa_offset 40
	.cfi_offset 3, -40
	movq	%rsi, %rbx
	movl	$1074, %esi
	subq	$8, %rsp
	.cfi_def_cfa_offset 48
	movq	(%rdi), %rbp
	movq	%rbx, %rdi
	movzwl	16(%rbp), %r13d
	call	_ZN8opendnp312HeaderWriter22WriteHeaderWithReserveENS_16GroupVariationIDENS_13QualifierCodeEj@PLT
	movl	%eax, %r12d
	testb	%al, %al
	jne	.L136
	addq	$8, %rsp
	.cfi_remember_state
	.cfi_def_cfa_offset 40
	movl	%r12d, %eax
	popq	%rbx
	.cfi_def_cfa_offset 32
	popq	%rbp
	.cfi_def_cfa_offset 24
	popq	%r12
	.cfi_def_cfa_offset 16
	popq	%r13
	.cfi_def_cfa_offset 8
	ret
	.p2align 4,,10
	.p2align 3
.L136:
	.cfi_restore_state
	movq	(%rbx), %rdi
	movl	$1, %edx
	movl	$2, %esi
	movq	8(%rdi), %rax
	movw	%dx, (%rax)
	call	_ZN7openpal6WSlice7AdvanceEj@PLT
	movq	(%rbx), %rdi
	movl	$2, %esi
	movq	8(%rdi), %rax
	movw	%r13w, (%rax)
	call	_ZN7openpal6WSlice7AdvanceEj@PLT
	movq	(%rbx), %rsi
	movq	%rbp, %rdi
	call	_ZN8opendnp311Group50Var411WriteTargetERKNS_15TimeAndIntervalERN7openpal6WSliceE@PLT
	addq	$8, %rsp
	.cfi_def_cfa_offset 40
	movl	%r12d, %eax
	popq	%rbx
	.cfi_def_cfa_offset 32
	popq	%rbp
	.cfi_def_cfa_offset 24
	popq	%r12
	.cfi_def_cfa_offset 16
	popq	%r13
	.cfi_def_cfa_offset 8
	ret
	.cfi_endproc
.LFE4922:
	.size	_ZNSt17_Function_handlerIFbRN8opendnp312HeaderWriterEEZNS0_8MContext5WriteERKNS0_15TimeAndIntervalEtNS0_10TaskConfigEEUlS2_E_E9_M_invokeERKSt9_Any_dataS2_, .-_ZNSt17_Function_handlerIFbRN8opendnp312HeaderWriterEEZNS0_8MContext5WriteERKNS0_15TimeAndIntervalEtNS0_10TaskConfigEEUlS2_E_E9_M_invokeERKSt9_Any_dataS2_
	.section	.text._ZN8opendnp38MContext6CanRunERKNS_11IMasterTaskE,"axG",@progbits,_ZN8opendnp38MContext6CanRunERKNS_11IMasterTaskE,comdat
	.p2align 4
	.weak	_ZThn16_N8opendnp38MContext6CanRunERKNS_11IMasterTaskE
	.type	_ZThn16_N8opendnp38MContext6CanRunERKNS_11IMasterTaskE, @function
_ZThn16_N8opendnp38MContext6CanRunERKNS_11IMasterTaskE:
.LFB5211:
	.cfi_startproc
	endbr64
	movl	$1, %eax
	ret
	.cfi_endproc
.LFE5211:
	.size	_ZThn16_N8opendnp38MContext6CanRunERKNS_11IMasterTaskE, .-_ZThn16_N8opendnp38MContext6CanRunERKNS_11IMasterTaskE
	.text
	.p2align 4
	.type	_ZNSt17_Function_handlerIFbRN8opendnp312HeaderWriterEEZNS0_8MContext14ScanAllObjectsENS0_16GroupVariationIDENS0_10TaskConfigEEUlS2_E_E9_M_invokeERKSt9_Any_dataS2_, @function
_ZNSt17_Function_handlerIFbRN8opendnp312HeaderWriterEEZNS0_8MContext14ScanAllObjectsENS0_16GroupVariationIDENS0_10TaskConfigEEUlS2_E_E9_M_invokeERKSt9_Any_dataS2_:
.LFB5210:
	.cfi_startproc
	endbr64
	movq	%rdi, %r8
	movq	%rsi, %rdi
	movl	$6, %edx
	movzwl	(%r8), %esi
	jmp	_ZN8opendnp312HeaderWriter11WriteHeaderENS_16GroupVariationIDENS_13QualifierCodeE@PLT
	.cfi_endproc
.LFE5210:
	.size	_ZNSt17_Function_handlerIFbRN8opendnp312HeaderWriterEEZNS0_8MContext14ScanAllObjectsENS0_16GroupVariationIDENS0_10TaskConfigEEUlS2_E_E9_M_invokeERKSt9_Any_dataS2_, .-_ZNSt17_Function_handlerIFbRN8opendnp312HeaderWriterEEZNS0_8MContext14ScanAllObjectsENS0_16GroupVariationIDENS0_10TaskConfigEEUlS2_E_E9_M_invokeERKSt9_Any_dataS2_
	.p2align 4
	.type	_ZNSt17_Function_handlerIFbRN8opendnp312HeaderWriterEEZNS0_8MContext9ScanRangeENS0_16GroupVariationIDEttNS0_10TaskConfigEEUlS2_E_E9_M_invokeERKSt9_Any_dataS2_, @function
_ZNSt17_Function_handlerIFbRN8opendnp312HeaderWriterEEZNS0_8MContext9ScanRangeENS0_16GroupVariationIDEttNS0_10TaskConfigEEUlS2_E_E9_M_invokeERKSt9_Any_dataS2_:
.LFB4183:
	.cfi_startproc
	endbr64
	pushq	%r13
	.cfi_def_cfa_offset 16
	.cfi_offset 13, -16
	movl	$4, %ecx
	movl	$1, %edx
	pushq	%r12
	.cfi_def_cfa_offset 24
	.cfi_offset 12, -24
	pushq	%rbp
	.cfi_def_cfa_offset 32
	.cfi_offset 6, -32
	pushq	%rbx
	.cfi_def_cfa_offset 40
	.cfi_offset 3, -40
	movq	%rsi, %rbx
	subq	$8, %rsp
	.cfi_def_cfa_offset 48
	movzwl	(%rdi), %esi
	movzwl	4(%rdi), %ebp
	movzwl	2(%rdi), %r13d
	movq	%rbx, %rdi
	call	_ZN8opendnp312HeaderWriter22WriteHeaderWithReserveENS_16GroupVariationIDENS_13QualifierCodeEj@PLT
	movl	%eax, %r12d
	testb	%al, %al
	jne	.L145
	addq	$8, %rsp
	.cfi_remember_state
	.cfi_def_cfa_offset 40
	movl	%r12d, %eax
	popq	%rbx
	.cfi_def_cfa_offset 32
	popq	%rbp
	.cfi_def_cfa_offset 24
	popq	%r12
	.cfi_def_cfa_offset 16
	popq	%r13
	.cfi_def_cfa_offset 8
	ret
	.p2align 4,,10
	.p2align 3
.L145:
	.cfi_restore_state
	movq	(%rbx), %rdi
	movl	$2, %esi
	movq	8(%rdi), %rax
	movw	%r13w, (%rax)
	call	_ZN7openpal6WSlice7AdvanceEj@PLT
	movq	(%rbx), %rdi
	movl	$2, %esi
	movq	8(%rdi), %rax
	movw	%bp, (%rax)
	call	_ZN7openpal6WSlice7AdvanceEj@PLT
	addq	$8, %rsp
	.cfi_def_cfa_offset 40
	movl	%r12d, %eax
	popq	%rbx
	.cfi_def_cfa_offset 32
	popq	%rbp
	.cfi_def_cfa_offset 24
	popq	%r12
	.cfi_def_cfa_offset 16
	popq	%r13
	.cfi_def_cfa_offset 8
	ret
	.cfi_endproc
.LFE4183:
	.size	_ZNSt17_Function_handlerIFbRN8opendnp312HeaderWriterEEZNS0_8MContext9ScanRangeENS0_16GroupVariationIDEttNS0_10TaskConfigEEUlS2_E_E9_M_invokeERKSt9_Any_dataS2_, .-_ZNSt17_Function_handlerIFbRN8opendnp312HeaderWriterEEZNS0_8MContext9ScanRangeENS0_16GroupVariationIDEttNS0_10TaskConfigEEUlS2_E_E9_M_invokeERKSt9_Any_dataS2_
	.p2align 4
	.type	_ZNSt17_Function_handlerIFbRN8opendnp312HeaderWriterEEZNS0_8MContext12AddRangeScanENS0_16GroupVariationIDEttN7openpal12TimeDurationENS0_10TaskConfigEEUlS2_E_E9_M_invokeERKSt9_Any_dataS2_, @function
_ZNSt17_Function_handlerIFbRN8opendnp312HeaderWriterEEZNS0_8MContext12AddRangeScanENS0_16GroupVariationIDEttN7openpal12TimeDurationENS0_10TaskConfigEEUlS2_E_E9_M_invokeERKSt9_Any_dataS2_:
.LFB4170:
	.cfi_startproc
	endbr64
	pushq	%r13
	.cfi_def_cfa_offset 16
	.cfi_offset 13, -16
	movl	$4, %ecx
	movl	$1, %edx
	pushq	%r12
	.cfi_def_cfa_offset 24
	.cfi_offset 12, -24
	pushq	%rbp
	.cfi_def_cfa_offset 32
	.cfi_offset 6, -32
	pushq	%rbx
	.cfi_def_cfa_offset 40
	.cfi_offset 3, -40
	movq	%rsi, %rbx
	subq	$8, %rsp
	.cfi_def_cfa_offset 48
	movzwl	(%rdi), %esi
	movzwl	4(%rdi), %ebp
	movzwl	2(%rdi), %r13d
	movq	%rbx, %rdi
	call	_ZN8opendnp312HeaderWriter22WriteHeaderWithReserveENS_16GroupVariationIDENS_13QualifierCodeEj@PLT
	movl	%eax, %r12d
	testb	%al, %al
	jne	.L152
	addq	$8, %rsp
	.cfi_remember_state
	.cfi_def_cfa_offset 40
	movl	%r12d, %eax
	popq	%rbx
	.cfi_def_cfa_offset 32
	popq	%rbp
	.cfi_def_cfa_offset 24
	popq	%r12
	.cfi_def_cfa_offset 16
	popq	%r13
	.cfi_def_cfa_offset 8
	ret
	.p2align 4,,10
	.p2align 3
.L152:
	.cfi_restore_state
	movq	(%rbx), %rdi
	movl	$2, %esi
	movq	8(%rdi), %rax
	movw	%r13w, (%rax)
	call	_ZN7openpal6WSlice7AdvanceEj@PLT
	movq	(%rbx), %rdi
	movl	$2, %esi
	movq	8(%rdi), %rax
	movw	%bp, (%rax)
	call	_ZN7openpal6WSlice7AdvanceEj@PLT
	addq	$8, %rsp
	.cfi_def_cfa_offset 40
	movl	%r12d, %eax
	popq	%rbx
	.cfi_def_cfa_offset 32
	popq	%rbp
	.cfi_def_cfa_offset 24
	popq	%r12
	.cfi_def_cfa_offset 16
	popq	%r13
	.cfi_def_cfa_offset 8
	ret
	.cfi_endproc
.LFE4170:
	.size	_ZNSt17_Function_handlerIFbRN8opendnp312HeaderWriterEEZNS0_8MContext12AddRangeScanENS0_16GroupVariationIDEttN7openpal12TimeDurationENS0_10TaskConfigEEUlS2_E_E9_M_invokeERKSt9_Any_dataS2_, .-_ZNSt17_Function_handlerIFbRN8opendnp312HeaderWriterEEZNS0_8MContext12AddRangeScanENS0_16GroupVariationIDEttN7openpal12TimeDurationENS0_10TaskConfigEEUlS2_E_E9_M_invokeERKSt9_Any_dataS2_
	.section	.text._ZNSt23_Sp_counted_ptr_inplaceIN8opendnp312UserPollTaskESaIS1_ELN9__gnu_cxx12_Lock_policyE2EE10_M_disposeEv,"axG",@progbits,_ZNSt23_Sp_counted_ptr_inplaceIN8opendnp312UserPollTaskESaIS1_ELN9__gnu_cxx12_Lock_policyE2EE10_M_disposeEv,comdat
	.align 2
	.p2align 4
	.weak	_ZNSt23_Sp_counted_ptr_inplaceIN8opendnp312UserPollTaskESaIS1_ELN9__gnu_cxx12_Lock_policyE2EE10_M_disposeEv
	.type	_ZNSt23_Sp_counted_ptr_inplaceIN8opendnp312UserPollTaskESaIS1_ELN9__gnu_cxx12_Lock_policyE2EE10_M_disposeEv, @function
_ZNSt23_Sp_counted_ptr_inplaceIN8opendnp312UserPollTaskESaIS1_ELN9__gnu_cxx12_Lock_policyE2EE10_M_disposeEv:
.LFB4972:
	.cfi_startproc
	.cfi_personality 0x9b,DW.ref.__gxx_personality_v0
	.cfi_lsda 0x1b,.LLSDA4972
	endbr64
	pushq	%rbp
	.cfi_def_cfa_offset 16
	.cfi_offset 6, -16
	leaq	16(%rdi), %rbp
	pushq	%rbx
	.cfi_def_cfa_offset 24
	.cfi_offset 3, -24
	movq	%rdi, %rbx
	subq	$8, %rsp
	.cfi_def_cfa_offset 32
	movq	_ZTVN8opendnp312UserPollTaskE@GOTPCREL(%rip), %rax
	addq	$16, %rax
	movq	%rax, 16(%rdi)
	movq	136(%rdi), %rax
	testq	%rax, %rax
	je	.L154
	leaq	120(%rdi), %rdi
	movl	$3, %edx
	movq	%rdi, %rsi
	call	*%rax
.L154:
	movq	_ZTVN8opendnp312PollTaskBaseE@GOTPCREL(%rip), %rax
	movq	%rbp, %rdi
	addq	$16, %rax
	movq	%rax, 16(%rbx)
	addq	$8, %rsp
	.cfi_def_cfa_offset 24
	popq	%rbx
	.cfi_def_cfa_offset 16
	popq	%rbp
	.cfi_def_cfa_offset 8
	jmp	_ZN8opendnp311IMasterTaskD2Ev@PLT
	.cfi_endproc
.LFE4972:
	.section	.gcc_except_table
.LLSDA4972:
	.byte	0xff
	.byte	0xff
	.byte	0x1
	.uleb128 .LLSDACSE4972-.LLSDACSB4972
.LLSDACSB4972:
.LLSDACSE4972:
	.section	.text._ZNSt23_Sp_counted_ptr_inplaceIN8opendnp312UserPollTaskESaIS1_ELN9__gnu_cxx12_Lock_policyE2EE10_M_disposeEv,"axG",@progbits,_ZNSt23_Sp_counted_ptr_inplaceIN8opendnp312UserPollTaskESaIS1_ELN9__gnu_cxx12_Lock_policyE2EE10_M_disposeEv,comdat
	.size	_ZNSt23_Sp_counted_ptr_inplaceIN8opendnp312UserPollTaskESaIS1_ELN9__gnu_cxx12_Lock_policyE2EE10_M_disposeEv, .-_ZNSt23_Sp_counted_ptr_inplaceIN8opendnp312UserPollTaskESaIS1_ELN9__gnu_cxx12_Lock_policyE2EE10_M_disposeEv
	.section	.text._ZNSt23_Sp_counted_ptr_inplaceIN8opendnp320RestartOperationTaskESaIS1_ELN9__gnu_cxx12_Lock_policyE2EE10_M_disposeEv,"axG",@progbits,_ZNSt23_Sp_counted_ptr_inplaceIN8opendnp320RestartOperationTaskESaIS1_ELN9__gnu_cxx12_Lock_policyE2EE10_M_disposeEv,comdat
	.align 2
	.p2align 4
	.weak	_ZNSt23_Sp_counted_ptr_inplaceIN8opendnp320RestartOperationTaskESaIS1_ELN9__gnu_cxx12_Lock_policyE2EE10_M_disposeEv
	.type	_ZNSt23_Sp_counted_ptr_inplaceIN8opendnp320RestartOperationTaskESaIS1_ELN9__gnu_cxx12_Lock_policyE2EE10_M_disposeEv, @function
_ZNSt23_Sp_counted_ptr_inplaceIN8opendnp320RestartOperationTaskESaIS1_ELN9__gnu_cxx12_Lock_policyE2EE10_M_disposeEv:
.LFB4958:
	.cfi_startproc
	.cfi_personality 0x9b,DW.ref.__gxx_personality_v0
	.cfi_lsda 0x1b,.LLSDA4958
	endbr64
	pushq	%rbp
	.cfi_def_cfa_offset 16
	.cfi_offset 6, -16
	leaq	16(%rdi), %rbp
	pushq	%rbx
	.cfi_def_cfa_offset 24
	.cfi_offset 3, -24
	movq	%rdi, %rbx
	subq	$8, %rsp
	.cfi_def_cfa_offset 32
	movq	_ZTVN8opendnp320RestartOperationTaskE@GOTPCREL(%rip), %rax
	leaq	16(%rax), %rdx
	addq	$160, %rax
	movq	%rax, 144(%rdi)
	movq	184(%rdi), %rax
	movq	%rdx, 16(%rdi)
	testq	%rax, %rax
	je	.L160
	leaq	168(%rdi), %rdi
	movl	$3, %edx
	movq	%rdi, %rsi
	call	*%rax
.L160:
	movq	_ZTVN8opendnp321SimpleRequestTaskBaseE@GOTPCREL(%rip), %rax
	addq	$16, %rax
	movq	%rax, 16(%rbx)
	movq	128(%rbx), %rax
	testq	%rax, %rax
	je	.L161
	leaq	112(%rbx), %rdi
	movl	$3, %edx
	movq	%rdi, %rsi
	call	*%rax
.L161:
	addq	$8, %rsp
	.cfi_def_cfa_offset 24
	movq	%rbp, %rdi
	popq	%rbx
	.cfi_def_cfa_offset 16
	popq	%rbp
	.cfi_def_cfa_offset 8
	jmp	_ZN8opendnp311IMasterTaskD2Ev@PLT
	.cfi_endproc
.LFE4958:
	.section	.gcc_except_table
.LLSDA4958:
	.byte	0xff
	.byte	0xff
	.byte	0x1
	.uleb128 .LLSDACSE4958-.LLSDACSB4958
.LLSDACSB4958:
.LLSDACSE4958:
	.section	.text._ZNSt23_Sp_counted_ptr_inplaceIN8opendnp320RestartOperationTaskESaIS1_ELN9__gnu_cxx12_Lock_policyE2EE10_M_disposeEv,"axG",@progbits,_ZNSt23_Sp_counted_ptr_inplaceIN8opendnp320RestartOperationTaskESaIS1_ELN9__gnu_cxx12_Lock_policyE2EE10_M_disposeEv,comdat
	.size	_ZNSt23_Sp_counted_ptr_inplaceIN8opendnp320RestartOperationTaskESaIS1_ELN9__gnu_cxx12_Lock_policyE2EE10_M_disposeEv, .-_ZNSt23_Sp_counted_ptr_inplaceIN8opendnp320RestartOperationTaskESaIS1_ELN9__gnu_cxx12_Lock_policyE2EE10_M_disposeEv
	.section	.text.unlikely
.LCOLDB1:
	.text
.LHOTB1:
	.p2align 4
	.globl	_ZThn16_N8opendnp38MContext19SetTaskStartTimeoutERKN7openpal18MonotonicTimestampE
	.type	_ZThn16_N8opendnp38MContext19SetTaskStartTimeoutERKN7openpal18MonotonicTimestampE, @function
_ZThn16_N8opendnp38MContext19SetTaskStartTimeoutERKN7openpal18MonotonicTimestampE:
.LFB5213:
	.cfi_startproc
	.cfi_personality 0x9b,DW.ref.__gxx_personality_v0
	.cfi_lsda 0x1b,.LLSDA5213
	endbr64
	pushq	%r12
	.cfi_def_cfa_offset 16
	.cfi_offset 12, -16
	leaq	_ZNSt14_Function_base13_Base_managerIZN7openpal8TimerRef7RestartIZN8opendnp38MContext19SetTaskStartTimeoutERKNS1_18MonotonicTimestampEEUlvE_EEvS8_RKT_EUlvE_E10_M_managerERSt9_Any_dataRKSF_St18_Manager_operation(%rip), %rcx
	pushq	%rbp
	.cfi_def_cfa_offset 24
	.cfi_offset 6, -24
	movq	%rcx, %xmm0
	subq	$56, %rsp
	.cfi_def_cfa_offset 80
	movq	%fs:40, %rax
	movq	%rax, 40(%rsp)
	xorl	%eax, %eax
	leaq	-16(%rdi), %rax
	movq	%rsp, %rbp
	addq	$208, %rdi
	movq	%rax, 8(%rsp)
	leaq	_ZNSt17_Function_handlerIFvvEZN7openpal8TimerRef7RestartIZN8opendnp38MContext19SetTaskStartTimeoutERKNS1_18MonotonicTimestampEEUlvE_EEvS8_RKT_EUlvE_E9_M_invokeERKSt9_Any_data(%rip), %rax
	movq	%rbp, %rdx
	movq	%rax, %xmm1
	movq	%rdi, (%rsp)
	punpcklqdq	%xmm1, %xmm0
	movaps	%xmm0, 16(%rsp)
.LEHB2:
	call	_ZN7openpal8TimerRef13RestartActionERKNS_18MonotonicTimestampERKSt8functionIFvvEE@PLT
.LEHE2:
	movq	16(%rsp), %rax
	testq	%rax, %rax
	je	.L169
	movl	$3, %edx
	movq	%rbp, %rsi
	movq	%rbp, %rdi
	call	*%rax
.L169:
	movq	40(%rsp), %rax
	xorq	%fs:40, %rax
	jne	.L182
	addq	$56, %rsp
	.cfi_remember_state
	.cfi_def_cfa_offset 24
	popq	%rbp
	.cfi_def_cfa_offset 16
	popq	%r12
	.cfi_def_cfa_offset 8
	ret
.L182:
	.cfi_restore_state
	call	__stack_chk_fail@PLT
.L174:
	endbr64
	movq	%rax, %r12
	jmp	.L171
	.section	.gcc_except_table
.LLSDA5213:
	.byte	0xff
	.byte	0xff
	.byte	0x1
	.uleb128 .LLSDACSE5213-.LLSDACSB5213
.LLSDACSB5213:
	.uleb128 .LEHB2-.LFB5213
	.uleb128 .LEHE2-.LEHB2
	.uleb128 .L174-.LFB5213
	.uleb128 0
.LLSDACSE5213:
	.text
	.cfi_endproc
	.section	.text.unlikely
	.cfi_startproc
	.cfi_personality 0x9b,DW.ref.__gxx_personality_v0
	.cfi_lsda 0x1b,.LLSDAC5213
	.type	_ZThn16_N8opendnp38MContext19SetTaskStartTimeoutERKN7openpal18MonotonicTimestampE.cold, @function
_ZThn16_N8opendnp38MContext19SetTaskStartTimeoutERKN7openpal18MonotonicTimestampE.cold:
.LFSB5213:
.L171:
	.cfi_def_cfa_offset 80
	.cfi_offset 6, -24
	.cfi_offset 12, -16
	movq	16(%rsp), %rax
	testq	%rax, %rax
	je	.L172
	movl	$3, %edx
	movq	%rbp, %rsi
	movq	%rbp, %rdi
	call	*%rax
.L172:
	movq	%r12, %rdi
.LEHB3:
	call	_Unwind_Resume@PLT
.LEHE3:
	.cfi_endproc
.LFE5213:
	.section	.gcc_except_table
.LLSDAC5213:
	.byte	0xff
	.byte	0xff
	.byte	0x1
	.uleb128 .LLSDACSEC5213-.LLSDACSBC5213
.LLSDACSBC5213:
	.uleb128 .LEHB3-.LCOLDB1
	.uleb128 .LEHE3-.LEHB3
	.uleb128 0
	.uleb128 0
.LLSDACSEC5213:
	.section	.text.unlikely
	.text
	.size	_ZThn16_N8opendnp38MContext19SetTaskStartTimeoutERKN7openpal18MonotonicTimestampE, .-_ZThn16_N8opendnp38MContext19SetTaskStartTimeoutERKN7openpal18MonotonicTimestampE
	.section	.text.unlikely
	.size	_ZThn16_N8opendnp38MContext19SetTaskStartTimeoutERKN7openpal18MonotonicTimestampE.cold, .-_ZThn16_N8opendnp38MContext19SetTaskStartTimeoutERKN7openpal18MonotonicTimestampE.cold
.LCOLDE1:
	.text
.LHOTE1:
	.section	.text._ZN8opendnp38MContextD0Ev,"axG",@progbits,_ZN8opendnp38MContextD5Ev,comdat
	.align 2
	.p2align 4
	.weak	_ZN8opendnp38MContextD0Ev
	.type	_ZN8opendnp38MContextD0Ev, @function
_ZN8opendnp38MContextD0Ev:
.LFB4936:
	.cfi_startproc
	endbr64
	pushq	%r13
	.cfi_def_cfa_offset 16
	.cfi_offset 13, -16
	pushq	%r12
	.cfi_def_cfa_offset 24
	.cfi_offset 12, -24
	pushq	%rbp
	.cfi_def_cfa_offset 32
	.cfi_offset 6, -32
	movq	%rdi, %rbp
	pushq	%rbx
	.cfi_def_cfa_offset 40
	.cfi_offset 3, -40
	subq	$8, %rsp
	.cfi_def_cfa_offset 48
	movq	_ZTVN8opendnp38MContextE@GOTPCREL(%rip), %rax
	leaq	128(%rax), %rdx
	leaq	16(%rax), %rcx
	addq	$152, %rax
	movq	%rax, 16(%rdi)
	movq	_ZTVN7openpal5ArrayIhjEE@GOTPCREL(%rip), %rax
	movq	%rcx, %xmm0
	movq	%rdx, %xmm1
	punpcklqdq	%xmm1, %xmm0
	addq	$16, %rax
	movups	%xmm0, (%rdi)
	movq	%rax, 488(%rdi)
	movq	504(%rdi), %rdi
	testq	%rdi, %rdi
	je	.L184
	call	_ZdaPv@PLT
.L184:
	movq	408(%rbp), %rdi
	testq	%rdi, %rdi
	je	.L185
	movq	480(%rbp), %rax
	movq	448(%rbp), %rbx
	leaq	8(%rax), %r12
	cmpq	%rbx, %r12
	jbe	.L186
	.p2align 4,,10
	.p2align 3
.L187:
	movq	(%rbx), %rdi
	addq	$8, %rbx
	call	_ZdlPv@PLT
	cmpq	%rbx, %r12
	ja	.L187
	movq	408(%rbp), %rdi
.L186:
	call	_ZdlPv@PLT
.L185:
	movq	392(%rbp), %rbx
	movq	384(%rbp), %r12
	cmpq	%r12, %rbx
	je	.L188
	cmpq	$0, _ZL28__gthrw___pthread_key_createPjPFvPvE@GOTPCREL(%rip)
	je	.L195
	movq	8(%r12), %r13
	testq	%r13, %r13
	jne	.L330
	.p2align 4,,10
	.p2align 3
.L197:
	addq	$16, %r12
	cmpq	%r12, %rbx
	je	.L194
.L189:
	movq	8(%r12), %r13
	testq	%r13, %r13
	je	.L197
.L330:
	lock subl	$1, 8(%r13)
	jne	.L197
	movq	0(%r13), %rax
	movq	%r13, %rdi
	call	*16(%rax)
	lock subl	$1, 12(%r13)
	jne	.L197
	movq	0(%r13), %rax
	addq	$16, %r12
	movq	%r13, %rdi
	call	*24(%rax)
	cmpq	%r12, %rbx
	jne	.L189
	.p2align 4,,10
	.p2align 3
.L194:
	movq	384(%rbp), %r12
.L188:
	testq	%r12, %r12
	je	.L199
	movq	%r12, %rdi
	call	_ZdlPv@PLT
.L199:
	movq	360(%rbp), %rbx
	movq	352(%rbp), %r12
	cmpq	%r12, %rbx
	je	.L200
	cmpq	$0, _ZL28__gthrw___pthread_key_createPjPFvPvE@GOTPCREL(%rip)
	je	.L207
	movq	8(%r12), %r13
	testq	%r13, %r13
	jne	.L331
	.p2align 4,,10
	.p2align 3
.L209:
	addq	$16, %r12
	cmpq	%r12, %rbx
	je	.L206
.L201:
	movq	8(%r12), %r13
	testq	%r13, %r13
	je	.L209
.L331:
	lock subl	$1, 8(%r13)
	jne	.L209
	movq	0(%r13), %rax
	movq	%r13, %rdi
	call	*16(%rax)
	lock subl	$1, 12(%r13)
	jne	.L209
	movq	0(%r13), %rax
	addq	$16, %r12
	movq	%r13, %rdi
	call	*24(%rax)
	cmpq	%r12, %rbx
	jne	.L201
	.p2align 4,,10
	.p2align 3
.L206:
	movq	352(%rbp), %r12
.L200:
	testq	%r12, %r12
	je	.L211
	movq	%r12, %rdi
	call	_ZdlPv@PLT
.L211:
	movq	344(%rbp), %r12
	testq	%r12, %r12
	je	.L213
	movq	_ZL28__gthrw___pthread_key_createPjPFvPvE@GOTPCREL(%rip), %rbx
	testq	%rbx, %rbx
	je	.L214
	movl	$-1, %eax
	lock xaddl	%eax, 8(%r12)
	cmpl	$1, %eax
	je	.L332
	.p2align 4,,10
	.p2align 3
.L213:
	movq	328(%rbp), %r12
	testq	%r12, %r12
	je	.L220
	movq	_ZL28__gthrw___pthread_key_createPjPFvPvE@GOTPCREL(%rip), %rbx
	testq	%rbx, %rbx
	je	.L221
	movl	$-1, %eax
	lock xaddl	%eax, 8(%r12)
	cmpl	$1, %eax
	je	.L333
	.p2align 4,,10
	.p2align 3
.L220:
	movq	312(%rbp), %r12
	testq	%r12, %r12
	je	.L227
	movq	_ZL28__gthrw___pthread_key_createPjPFvPvE@GOTPCREL(%rip), %rbx
	testq	%rbx, %rbx
	je	.L228
	movl	$-1, %eax
	lock xaddl	%eax, 8(%r12)
	cmpl	$1, %eax
	je	.L334
	.p2align 4,,10
	.p2align 3
.L227:
	movq	296(%rbp), %r12
	testq	%r12, %r12
	je	.L234
	movq	_ZL28__gthrw___pthread_key_createPjPFvPvE@GOTPCREL(%rip), %rbx
	testq	%rbx, %rbx
	je	.L235
	movl	$-1, %eax
	lock xaddl	%eax, 8(%r12)
	cmpl	$1, %eax
	je	.L335
	.p2align 4,,10
	.p2align 3
.L234:
	movq	280(%rbp), %r12
	testq	%r12, %r12
	je	.L241
	movq	_ZL28__gthrw___pthread_key_createPjPFvPvE@GOTPCREL(%rip), %rbx
	testq	%rbx, %rbx
	je	.L242
	movl	$-1, %eax
	lock xaddl	%eax, 8(%r12)
	cmpl	$1, %eax
	je	.L336
	.p2align 4,,10
	.p2align 3
.L241:
	movq	264(%rbp), %r12
	testq	%r12, %r12
	je	.L248
	movq	_ZL28__gthrw___pthread_key_createPjPFvPvE@GOTPCREL(%rip), %rbx
	testq	%rbx, %rbx
	je	.L249
	movl	$-1, %eax
	lock xaddl	%eax, 8(%r12)
	cmpl	$1, %eax
	je	.L337
	.p2align 4,,10
	.p2align 3
.L248:
	movq	248(%rbp), %r12
	testq	%r12, %r12
	je	.L255
	movq	_ZL28__gthrw___pthread_key_createPjPFvPvE@GOTPCREL(%rip), %rbx
	testq	%rbx, %rbx
	je	.L256
	movl	$-1, %eax
	lock xaddl	%eax, 8(%r12)
	cmpl	$1, %eax
	je	.L338
	.p2align 4,,10
	.p2align 3
.L255:
	leaq	224(%rbp), %rdi
	call	_ZN7openpal8TimerRefD1Ev@PLT
	leaq	208(%rbp), %rdi
	call	_ZN7openpal8TimerRefD1Ev@PLT
	leaq	192(%rbp), %rdi
	call	_ZN7openpal8TimerRefD1Ev@PLT
	movq	184(%rbp), %r12
	testq	%r12, %r12
	je	.L262
	movq	_ZL28__gthrw___pthread_key_createPjPFvPvE@GOTPCREL(%rip), %rbx
	testq	%rbx, %rbx
	je	.L263
	movl	$-1, %eax
	lock xaddl	%eax, 8(%r12)
	cmpl	$1, %eax
	je	.L339
	.p2align 4,,10
	.p2align 3
.L262:
	movq	152(%rbp), %r12
	testq	%r12, %r12
	je	.L269
	movq	_ZL28__gthrw___pthread_key_createPjPFvPvE@GOTPCREL(%rip), %rbx
	testq	%rbx, %rbx
	je	.L270
	movl	$-1, %eax
	lock xaddl	%eax, 8(%r12)
	cmpl	$1, %eax
	je	.L340
	.p2align 4,,10
	.p2align 3
.L269:
	movq	136(%rbp), %r12
	testq	%r12, %r12
	je	.L276
	movq	_ZL28__gthrw___pthread_key_createPjPFvPvE@GOTPCREL(%rip), %rbx
	testq	%rbx, %rbx
	je	.L277
	movl	$-1, %eax
	lock xaddl	%eax, 8(%r12)
	cmpl	$1, %eax
	je	.L341
	.p2align 4,,10
	.p2align 3
.L276:
	movq	80(%rbp), %r12
	testq	%r12, %r12
	je	.L283
	movq	_ZL28__gthrw___pthread_key_createPjPFvPvE@GOTPCREL(%rip), %rbx
	testq	%rbx, %rbx
	je	.L284
	movl	$-1, %eax
	lock xaddl	%eax, 8(%r12)
	cmpl	$1, %eax
	je	.L342
	.p2align 4,,10
	.p2align 3
.L283:
	movq	64(%rbp), %r12
	testq	%r12, %r12
	je	.L290
	movq	_ZL28__gthrw___pthread_key_createPjPFvPvE@GOTPCREL(%rip), %rbx
	testq	%rbx, %rbx
	je	.L291
	movl	$-1, %eax
	lock xaddl	%eax, 8(%r12)
	cmpl	$1, %eax
	je	.L343
	.p2align 4,,10
	.p2align 3
.L290:
	movq	48(%rbp), %r12
	testq	%r12, %r12
	je	.L297
	movq	_ZL28__gthrw___pthread_key_createPjPFvPvE@GOTPCREL(%rip), %rbx
	testq	%rbx, %rbx
	je	.L298
	movl	$-1, %eax
	lock xaddl	%eax, 8(%r12)
	cmpl	$1, %eax
	je	.L344
	.p2align 4,,10
	.p2align 3
.L297:
	movq	32(%rbp), %r12
	testq	%r12, %r12
	je	.L304
	movq	_ZL28__gthrw___pthread_key_createPjPFvPvE@GOTPCREL(%rip), %rbx
	testq	%rbx, %rbx
	je	.L305
	movl	$-1, %eax
	lock xaddl	%eax, 8(%r12)
	cmpl	$1, %eax
	je	.L345
.L304:
	addq	$8, %rsp
	.cfi_remember_state
	.cfi_def_cfa_offset 40
	movq	%rbp, %rdi
	movl	$520, %esi
	popq	%rbx
	.cfi_def_cfa_offset 32
	popq	%rbp
	.cfi_def_cfa_offset 24
	popq	%r12
	.cfi_def_cfa_offset 16
	popq	%r13
	.cfi_def_cfa_offset 8
	jmp	_ZdlPvm@PLT
	.p2align 4,,10
	.p2align 3
.L193:
	.cfi_restore_state
	movq	0(%r13), %rax
	movq	%r13, %rdi
	call	*16(%rax)
	movl	12(%r13), %eax
	leal	-1(%rax), %edx
	movl	%edx, 12(%r13)
	cmpl	$1, %eax
	jne	.L192
	movq	0(%r13), %rax
	movq	%r13, %rdi
	call	*24(%rax)
	.p2align 4,,10
	.p2align 3
.L192:
	addq	$16, %r12
	cmpq	%r12, %rbx
	je	.L194
.L195:
	movq	8(%r12), %r13
	testq	%r13, %r13
	je	.L192
	movl	8(%r13), %eax
	leal	-1(%rax), %edx
	movl	%edx, 8(%r13)
	cmpl	$1, %eax
	jne	.L192
	jmp	.L193
	.p2align 4,,10
	.p2align 3
.L205:
	movq	0(%r13), %rax
	movq	%r13, %rdi
	call	*16(%rax)
	movl	12(%r13), %eax
	leal	-1(%rax), %edx
	movl	%edx, 12(%r13)
	cmpl	$1, %eax
	jne	.L204
	movq	0(%r13), %rax
	movq	%r13, %rdi
	call	*24(%rax)
	.p2align 4,,10
	.p2align 3
.L204:
	addq	$16, %r12
	cmpq	%r12, %rbx
	je	.L206
.L207:
	movq	8(%r12), %r13
	testq	%r13, %r13
	je	.L204
	movl	8(%r13), %eax
	leal	-1(%rax), %edx
	movl	%edx, 8(%r13)
	cmpl	$1, %eax
	jne	.L204
	jmp	.L205
	.p2align 4,,10
	.p2align 3
.L305:
	movl	8(%r12), %eax
	leal	-1(%rax), %edx
	movl	%edx, 8(%r12)
	cmpl	$1, %eax
	jne	.L304
.L345:
	movq	(%r12), %rax
	movq	%r12, %rdi
	call	*16(%rax)
	testq	%rbx, %rbx
	je	.L308
	movl	$-1, %eax
	lock xaddl	%eax, 12(%r12)
.L309:
	cmpl	$1, %eax
	jne	.L304
	movq	(%r12), %rax
	movq	%r12, %rdi
	call	*24(%rax)
	jmp	.L304
	.p2align 4,,10
	.p2align 3
.L214:
	movl	8(%r12), %eax
	leal	-1(%rax), %edx
	movl	%edx, 8(%r12)
	cmpl	$1, %eax
	jne	.L213
.L332:
	movq	(%r12), %rax
	movq	%r12, %rdi
	call	*16(%rax)
	testq	%rbx, %rbx
	je	.L217
	movl	$-1, %eax
	lock xaddl	%eax, 12(%r12)
.L218:
	cmpl	$1, %eax
	jne	.L213
	movq	(%r12), %rax
	movq	%r12, %rdi
	call	*24(%rax)
	jmp	.L213
	.p2align 4,,10
	.p2align 3
.L228:
	movl	8(%r12), %eax
	leal	-1(%rax), %edx
	movl	%edx, 8(%r12)
	cmpl	$1, %eax
	jne	.L227
.L334:
	movq	(%r12), %rax
	movq	%r12, %rdi
	call	*16(%rax)
	testq	%rbx, %rbx
	je	.L231
	movl	$-1, %eax
	lock xaddl	%eax, 12(%r12)
.L232:
	cmpl	$1, %eax
	jne	.L227
	movq	(%r12), %rax
	movq	%r12, %rdi
	call	*24(%rax)
	jmp	.L227
	.p2align 4,,10
	.p2align 3
.L221:
	movl	8(%r12), %eax
	leal	-1(%rax), %edx
	movl	%edx, 8(%r12)
	cmpl	$1, %eax
	jne	.L220
.L333:
	movq	(%r12), %rax
	movq	%r12, %rdi
	call	*16(%rax)
	testq	%rbx, %rbx
	je	.L224
	movl	$-1, %eax
	lock xaddl	%eax, 12(%r12)
.L225:
	cmpl	$1, %eax
	jne	.L220
	movq	(%r12), %rax
	movq	%r12, %rdi
	call	*24(%rax)
	jmp	.L220
	.p2align 4,,10
	.p2align 3
.L242:
	movl	8(%r12), %eax
	leal	-1(%rax), %edx
	movl	%edx, 8(%r12)
	cmpl	$1, %eax
	jne	.L241
.L336:
	movq	(%r12), %rax
	movq	%r12, %rdi
	call	*16(%rax)
	testq	%rbx, %rbx
	je	.L245
	movl	$-1, %eax
	lock xaddl	%eax, 12(%r12)
.L246:
	cmpl	$1, %eax
	jne	.L241
	movq	(%r12), %rax
	movq	%r12, %rdi
	call	*24(%rax)
	jmp	.L241
	.p2align 4,,10
	.p2align 3
.L235:
	movl	8(%r12), %eax
	leal	-1(%rax), %edx
	movl	%edx, 8(%r12)
	cmpl	$1, %eax
	jne	.L234
.L335:
	movq	(%r12), %rax
	movq	%r12, %rdi
	call	*16(%rax)
	testq	%rbx, %rbx
	je	.L238
	movl	$-1, %eax
	lock xaddl	%eax, 12(%r12)
.L239:
	cmpl	$1, %eax
	jne	.L234
	movq	(%r12), %rax
	movq	%r12, %rdi
	call	*24(%rax)
	jmp	.L234
	.p2align 4,,10
	.p2align 3
.L256:
	movl	8(%r12), %eax
	leal	-1(%rax), %edx
	movl	%edx, 8(%r12)
	cmpl	$1, %eax
	jne	.L255
.L338:
	movq	(%r12), %rax
	movq	%r12, %rdi
	call	*16(%rax)
	testq	%rbx, %rbx
	je	.L259
	movl	$-1, %eax
	lock xaddl	%eax, 12(%r12)
.L260:
	cmpl	$1, %eax
	jne	.L255
	movq	(%r12), %rax
	movq	%r12, %rdi
	call	*24(%rax)
	jmp	.L255
	.p2align 4,,10
	.p2align 3
.L249:
	movl	8(%r12), %eax
	leal	-1(%rax), %edx
	movl	%edx, 8(%r12)
	cmpl	$1, %eax
	jne	.L248
.L337:
	movq	(%r12), %rax
	movq	%r12, %rdi
	call	*16(%rax)
	testq	%rbx, %rbx
	je	.L252
	movl	$-1, %eax
	lock xaddl	%eax, 12(%r12)
.L253:
	cmpl	$1, %eax
	jne	.L248
	movq	(%r12), %rax
	movq	%r12, %rdi
	call	*24(%rax)
	jmp	.L248
	.p2align 4,,10
	.p2align 3
.L270:
	movl	8(%r12), %eax
	leal	-1(%rax), %edx
	movl	%edx, 8(%r12)
	cmpl	$1, %eax
	jne	.L269
.L340:
	movq	(%r12), %rax
	movq	%r12, %rdi
	call	*16(%rax)
	testq	%rbx, %rbx
	je	.L273
	movl	$-1, %eax
	lock xaddl	%eax, 12(%r12)
.L274:
	cmpl	$1, %eax
	jne	.L269
	movq	(%r12), %rax
	movq	%r12, %rdi
	call	*24(%rax)
	jmp	.L269
	.p2align 4,,10
	.p2align 3
.L263:
	movl	8(%r12), %eax
	leal	-1(%rax), %edx
	movl	%edx, 8(%r12)
	cmpl	$1, %eax
	jne	.L262
.L339:
	movq	(%r12), %rax
	movq	%r12, %rdi
	call	*16(%rax)
	testq	%rbx, %rbx
	je	.L266
	movl	$-1, %eax
	lock xaddl	%eax, 12(%r12)
.L267:
	cmpl	$1, %eax
	jne	.L262
	movq	(%r12), %rax
	movq	%r12, %rdi
	call	*24(%rax)
	jmp	.L262
	.p2align 4,,10
	.p2align 3
.L284:
	movl	8(%r12), %eax
	leal	-1(%rax), %edx
	movl	%edx, 8(%r12)
	cmpl	$1, %eax
	jne	.L283
.L342:
	movq	(%r12), %rax
	movq	%r12, %rdi
	call	*16(%rax)
	testq	%rbx, %rbx
	je	.L287
	movl	$-1, %eax
	lock xaddl	%eax, 12(%r12)
.L288:
	cmpl	$1, %eax
	jne	.L283
	movq	(%r12), %rax
	movq	%r12, %rdi
	call	*24(%rax)
	jmp	.L283
	.p2align 4,,10
	.p2align 3
.L277:
	movl	8(%r12), %eax
	leal	-1(%rax), %edx
	movl	%edx, 8(%r12)
	cmpl	$1, %eax
	jne	.L276
.L341:
	movq	(%r12), %rax
	movq	%r12, %rdi
	call	*16(%rax)
	testq	%rbx, %rbx
	je	.L280
	movl	$-1, %eax
	lock xaddl	%eax, 12(%r12)
.L281:
	cmpl	$1, %eax
	jne	.L276
	movq	(%r12), %rax
	movq	%r12, %rdi
	call	*24(%rax)
	jmp	.L276
	.p2align 4,,10
	.p2align 3
.L298:
	movl	8(%r12), %eax
	leal	-1(%rax), %edx
	movl	%edx, 8(%r12)
	cmpl	$1, %eax
	jne	.L297
.L344:
	movq	(%r12), %rax
	movq	%r12, %rdi
	call	*16(%rax)
	testq	%rbx, %rbx
	je	.L301
	movl	$-1, %eax
	lock xaddl	%eax, 12(%r12)
.L302:
	cmpl	$1, %eax
	jne	.L297
	movq	(%r12), %rax
	movq	%r12, %rdi
	call	*24(%rax)
	jmp	.L297
	.p2align 4,,10
	.p2align 3
.L291:
	movl	8(%r12), %eax
	leal	-1(%rax), %edx
	movl	%edx, 8(%r12)
	cmpl	$1, %eax
	jne	.L290
.L343:
	movq	(%r12), %rax
	movq	%r12, %rdi
	call	*16(%rax)
	testq	%rbx, %rbx
	je	.L294
	movl	$-1, %eax
	lock xaddl	%eax, 12(%r12)
.L295:
	cmpl	$1, %eax
	jne	.L290
	movq	(%r12), %rax
	movq	%r12, %rdi
	call	*24(%rax)
	jmp	.L290
	.p2align 4,,10
	.p2align 3
.L217:
	movl	12(%r12), %eax
	leal	-1(%rax), %edx
	movl	%edx, 12(%r12)
	jmp	.L218
	.p2align 4,,10
	.p2align 3
.L308:
	movl	12(%r12), %eax
	leal	-1(%rax), %edx
	movl	%edx, 12(%r12)
	jmp	.L309
	.p2align 4,,10
	.p2align 3
.L224:
	movl	12(%r12), %eax
	leal	-1(%rax), %edx
	movl	%edx, 12(%r12)
	jmp	.L225
	.p2align 4,,10
	.p2align 3
.L245:
	movl	12(%r12), %eax
	leal	-1(%rax), %edx
	movl	%edx, 12(%r12)
	jmp	.L246
	.p2align 4,,10
	.p2align 3
.L231:
	movl	12(%r12), %eax
	leal	-1(%rax), %edx
	movl	%edx, 12(%r12)
	jmp	.L232
	.p2align 4,,10
	.p2align 3
.L238:
	movl	12(%r12), %eax
	leal	-1(%rax), %edx
	movl	%edx, 12(%r12)
	jmp	.L239
	.p2align 4,,10
	.p2align 3
.L252:
	movl	12(%r12), %eax
	leal	-1(%rax), %edx
	movl	%edx, 12(%r12)
	jmp	.L253
	.p2align 4,,10
	.p2align 3
.L301:
	movl	12(%r12), %eax
	leal	-1(%rax), %edx
	movl	%edx, 12(%r12)
	jmp	.L302
	.p2align 4,,10
	.p2align 3
.L287:
	movl	12(%r12), %eax
	leal	-1(%rax), %edx
	movl	%edx, 12(%r12)
	jmp	.L288
	.p2align 4,,10
	.p2align 3
.L294:
	movl	12(%r12), %eax
	leal	-1(%rax), %edx
	movl	%edx, 12(%r12)
	jmp	.L295
	.p2align 4,,10
	.p2align 3
.L259:
	movl	12(%r12), %eax
	leal	-1(%rax), %edx
	movl	%edx, 12(%r12)
	jmp	.L260
	.p2align 4,,10
	.p2align 3
.L266:
	movl	12(%r12), %eax
	leal	-1(%rax), %edx
	movl	%edx, 12(%r12)
	jmp	.L267
	.p2align 4,,10
	.p2align 3
.L273:
	movl	12(%r12), %eax
	leal	-1(%rax), %edx
	movl	%edx, 12(%r12)
	jmp	.L274
	.p2align 4,,10
	.p2align 3
.L280:
	movl	12(%r12), %eax
	leal	-1(%rax), %edx
	movl	%edx, 12(%r12)
	jmp	.L281
	.cfi_endproc
.LFE4936:
	.size	_ZN8opendnp38MContextD0Ev, .-_ZN8opendnp38MContextD0Ev
	.section	.text._ZN8opendnp38MContextD2Ev,"axG",@progbits,_ZN8opendnp38MContextD5Ev,comdat
	.align 2
	.p2align 4
	.weak	_ZN8opendnp38MContextD2Ev
	.type	_ZN8opendnp38MContextD2Ev, @function
_ZN8opendnp38MContextD2Ev:
.LFB4934:
	.cfi_startproc
	endbr64
	pushq	%r13
	.cfi_def_cfa_offset 16
	.cfi_offset 13, -16
	pushq	%r12
	.cfi_def_cfa_offset 24
	.cfi_offset 12, -24
	pushq	%rbp
	.cfi_def_cfa_offset 32
	.cfi_offset 6, -32
	pushq	%rbx
	.cfi_def_cfa_offset 40
	.cfi_offset 3, -40
	movq	%rdi, %rbx
	subq	$8, %rsp
	.cfi_def_cfa_offset 48
	movq	_ZTVN8opendnp38MContextE@GOTPCREL(%rip), %rax
	leaq	128(%rax), %rdx
	leaq	16(%rax), %rcx
	addq	$152, %rax
	movq	%rax, 16(%rdi)
	movq	_ZTVN7openpal5ArrayIhjEE@GOTPCREL(%rip), %rax
	movq	%rcx, %xmm0
	movq	%rdx, %xmm1
	punpcklqdq	%xmm1, %xmm0
	addq	$16, %rax
	movups	%xmm0, (%rdi)
	movq	%rax, 488(%rdi)
	movq	504(%rdi), %rdi
	testq	%rdi, %rdi
	je	.L347
	call	_ZdaPv@PLT
.L347:
	movq	408(%rbx), %rdi
	testq	%rdi, %rdi
	je	.L348
	movq	480(%rbx), %rax
	movq	448(%rbx), %rbp
	leaq	8(%rax), %r12
	cmpq	%rbp, %r12
	jbe	.L349
	.p2align 4,,10
	.p2align 3
.L350:
	movq	0(%rbp), %rdi
	addq	$8, %rbp
	call	_ZdlPv@PLT
	cmpq	%rbp, %r12
	ja	.L350
	movq	408(%rbx), %rdi
.L349:
	call	_ZdlPv@PLT
.L348:
	movq	392(%rbx), %r13
	movq	384(%rbx), %rbp
	cmpq	%rbp, %r13
	je	.L351
	cmpq	$0, _ZL28__gthrw___pthread_key_createPjPFvPvE@GOTPCREL(%rip)
	je	.L358
	movq	8(%rbp), %r12
	testq	%r12, %r12
	jne	.L493
	.p2align 4,,10
	.p2align 3
.L360:
	addq	$16, %rbp
	cmpq	%rbp, %r13
	je	.L357
.L352:
	movq	8(%rbp), %r12
	testq	%r12, %r12
	je	.L360
.L493:
	lock subl	$1, 8(%r12)
	jne	.L360
	movq	(%r12), %rax
	movq	%r12, %rdi
	call	*16(%rax)
	lock subl	$1, 12(%r12)
	jne	.L360
	movq	(%r12), %rax
	addq	$16, %rbp
	movq	%r12, %rdi
	call	*24(%rax)
	cmpq	%rbp, %r13
	jne	.L352
	.p2align 4,,10
	.p2align 3
.L357:
	movq	384(%rbx), %rbp
.L351:
	testq	%rbp, %rbp
	je	.L362
	movq	%rbp, %rdi
	call	_ZdlPv@PLT
.L362:
	movq	360(%rbx), %r13
	movq	352(%rbx), %rbp
	cmpq	%rbp, %r13
	je	.L363
	cmpq	$0, _ZL28__gthrw___pthread_key_createPjPFvPvE@GOTPCREL(%rip)
	je	.L370
	movq	8(%rbp), %r12
	testq	%r12, %r12
	jne	.L494
	.p2align 4,,10
	.p2align 3
.L372:
	addq	$16, %rbp
	cmpq	%rbp, %r13
	je	.L369
.L364:
	movq	8(%rbp), %r12
	testq	%r12, %r12
	je	.L372
.L494:
	lock subl	$1, 8(%r12)
	jne	.L372
	movq	(%r12), %rax
	movq	%r12, %rdi
	call	*16(%rax)
	lock subl	$1, 12(%r12)
	jne	.L372
	movq	(%r12), %rax
	addq	$16, %rbp
	movq	%r12, %rdi
	call	*24(%rax)
	cmpq	%rbp, %r13
	jne	.L364
	.p2align 4,,10
	.p2align 3
.L369:
	movq	352(%rbx), %rbp
.L363:
	testq	%rbp, %rbp
	je	.L374
	movq	%rbp, %rdi
	call	_ZdlPv@PLT
.L374:
	movq	344(%rbx), %r12
	testq	%r12, %r12
	je	.L376
	movq	_ZL28__gthrw___pthread_key_createPjPFvPvE@GOTPCREL(%rip), %rbp
	testq	%rbp, %rbp
	je	.L377
	movl	$-1, %eax
	lock xaddl	%eax, 8(%r12)
	cmpl	$1, %eax
	je	.L495
	.p2align 4,,10
	.p2align 3
.L376:
	movq	328(%rbx), %r12
	testq	%r12, %r12
	je	.L383
	movq	_ZL28__gthrw___pthread_key_createPjPFvPvE@GOTPCREL(%rip), %rbp
	testq	%rbp, %rbp
	je	.L384
	movl	$-1, %eax
	lock xaddl	%eax, 8(%r12)
	cmpl	$1, %eax
	je	.L496
	.p2align 4,,10
	.p2align 3
.L383:
	movq	312(%rbx), %r12
	testq	%r12, %r12
	je	.L390
	movq	_ZL28__gthrw___pthread_key_createPjPFvPvE@GOTPCREL(%rip), %rbp
	testq	%rbp, %rbp
	je	.L391
	movl	$-1, %eax
	lock xaddl	%eax, 8(%r12)
	cmpl	$1, %eax
	je	.L497
	.p2align 4,,10
	.p2align 3
.L390:
	movq	296(%rbx), %r12
	testq	%r12, %r12
	je	.L397
	movq	_ZL28__gthrw___pthread_key_createPjPFvPvE@GOTPCREL(%rip), %rbp
	testq	%rbp, %rbp
	je	.L398
	movl	$-1, %eax
	lock xaddl	%eax, 8(%r12)
	cmpl	$1, %eax
	je	.L498
	.p2align 4,,10
	.p2align 3
.L397:
	movq	280(%rbx), %r12
	testq	%r12, %r12
	je	.L404
	movq	_ZL28__gthrw___pthread_key_createPjPFvPvE@GOTPCREL(%rip), %rbp
	testq	%rbp, %rbp
	je	.L405
	movl	$-1, %eax
	lock xaddl	%eax, 8(%r12)
	cmpl	$1, %eax
	je	.L499
	.p2align 4,,10
	.p2align 3
.L404:
	movq	264(%rbx), %r12
	testq	%r12, %r12
	je	.L411
	movq	_ZL28__gthrw___pthread_key_createPjPFvPvE@GOTPCREL(%rip), %rbp
	testq	%rbp, %rbp
	je	.L412
	movl	$-1, %eax
	lock xaddl	%eax, 8(%r12)
	cmpl	$1, %eax
	je	.L500
	.p2align 4,,10
	.p2align 3
.L411:
	movq	248(%rbx), %r12
	testq	%r12, %r12
	je	.L418
	movq	_ZL28__gthrw___pthread_key_createPjPFvPvE@GOTPCREL(%rip), %rbp
	testq	%rbp, %rbp
	je	.L419
	movl	$-1, %eax
	lock xaddl	%eax, 8(%r12)
	cmpl	$1, %eax
	je	.L501
	.p2align 4,,10
	.p2align 3
.L418:
	leaq	224(%rbx), %rdi
	call	_ZN7openpal8TimerRefD1Ev@PLT
	leaq	208(%rbx), %rdi
	call	_ZN7openpal8TimerRefD1Ev@PLT
	leaq	192(%rbx), %rdi
	call	_ZN7openpal8TimerRefD1Ev@PLT
	movq	184(%rbx), %r12
	testq	%r12, %r12
	je	.L425
	movq	_ZL28__gthrw___pthread_key_createPjPFvPvE@GOTPCREL(%rip), %rbp
	testq	%rbp, %rbp
	je	.L426
	movl	$-1, %eax
	lock xaddl	%eax, 8(%r12)
	cmpl	$1, %eax
	je	.L502
	.p2align 4,,10
	.p2align 3
.L425:
	movq	152(%rbx), %r12
	testq	%r12, %r12
	je	.L432
	movq	_ZL28__gthrw___pthread_key_createPjPFvPvE@GOTPCREL(%rip), %rbp
	testq	%rbp, %rbp
	je	.L433
	movl	$-1, %eax
	lock xaddl	%eax, 8(%r12)
	cmpl	$1, %eax
	je	.L503
	.p2align 4,,10
	.p2align 3
.L432:
	movq	136(%rbx), %r12
	testq	%r12, %r12
	je	.L439
	movq	_ZL28__gthrw___pthread_key_createPjPFvPvE@GOTPCREL(%rip), %rbp
	testq	%rbp, %rbp
	je	.L440
	movl	$-1, %eax
	lock xaddl	%eax, 8(%r12)
	cmpl	$1, %eax
	je	.L504
	.p2align 4,,10
	.p2align 3
.L439:
	movq	80(%rbx), %r12
	testq	%r12, %r12
	je	.L446
	movq	_ZL28__gthrw___pthread_key_createPjPFvPvE@GOTPCREL(%rip), %rbp
	testq	%rbp, %rbp
	je	.L447
	movl	$-1, %eax
	lock xaddl	%eax, 8(%r12)
	cmpl	$1, %eax
	je	.L505
	.p2align 4,,10
	.p2align 3
.L446:
	movq	64(%rbx), %r12
	testq	%r12, %r12
	je	.L453
	movq	_ZL28__gthrw___pthread_key_createPjPFvPvE@GOTPCREL(%rip), %rbp
	testq	%rbp, %rbp
	je	.L454
	movl	$-1, %eax
	lock xaddl	%eax, 8(%r12)
	cmpl	$1, %eax
	je	.L506
	.p2align 4,,10
	.p2align 3
.L453:
	movq	48(%rbx), %r12
	testq	%r12, %r12
	je	.L460
	movq	_ZL28__gthrw___pthread_key_createPjPFvPvE@GOTPCREL(%rip), %rbp
	testq	%rbp, %rbp
	je	.L461
	movl	$-1, %eax
	lock xaddl	%eax, 8(%r12)
	cmpl	$1, %eax
	je	.L507
	.p2align 4,,10
	.p2align 3
.L460:
	movq	32(%rbx), %r12
	testq	%r12, %r12
	je	.L346
	movq	_ZL28__gthrw___pthread_key_createPjPFvPvE@GOTPCREL(%rip), %rbp
	testq	%rbp, %rbp
	je	.L468
	movl	$-1, %eax
	lock xaddl	%eax, 8(%r12)
	cmpl	$1, %eax
	je	.L508
.L346:
	addq	$8, %rsp
	.cfi_remember_state
	.cfi_def_cfa_offset 40
	popq	%rbx
	.cfi_def_cfa_offset 32
	popq	%rbp
	.cfi_def_cfa_offset 24
	popq	%r12
	.cfi_def_cfa_offset 16
	popq	%r13
	.cfi_def_cfa_offset 8
	ret
	.p2align 4,,10
	.p2align 3
.L356:
	.cfi_restore_state
	movq	(%r12), %rax
	movq	%r12, %rdi
	call	*16(%rax)
	movl	12(%r12), %eax
	leal	-1(%rax), %edx
	movl	%edx, 12(%r12)
	cmpl	$1, %eax
	jne	.L355
	movq	(%r12), %rax
	movq	%r12, %rdi
	call	*24(%rax)
	.p2align 4,,10
	.p2align 3
.L355:
	addq	$16, %rbp
	cmpq	%rbp, %r13
	je	.L357
.L358:
	movq	8(%rbp), %r12
	testq	%r12, %r12
	je	.L355
	movl	8(%r12), %eax
	leal	-1(%rax), %edx
	movl	%edx, 8(%r12)
	cmpl	$1, %eax
	jne	.L355
	jmp	.L356
	.p2align 4,,10
	.p2align 3
.L368:
	movq	(%r12), %rax
	movq	%r12, %rdi
	call	*16(%rax)
	movl	12(%r12), %eax
	leal	-1(%rax), %edx
	movl	%edx, 12(%r12)
	cmpl	$1, %eax
	jne	.L367
	movq	(%r12), %rax
	movq	%r12, %rdi
	call	*24(%rax)
	.p2align 4,,10
	.p2align 3
.L367:
	addq	$16, %rbp
	cmpq	%rbp, %r13
	je	.L369
.L370:
	movq	8(%rbp), %r12
	testq	%r12, %r12
	je	.L367
	movl	8(%r12), %eax
	leal	-1(%rax), %edx
	movl	%edx, 8(%r12)
	cmpl	$1, %eax
	jne	.L367
	jmp	.L368
	.p2align 4,,10
	.p2align 3
.L468:
	movl	8(%r12), %eax
	leal	-1(%rax), %edx
	movl	%edx, 8(%r12)
	cmpl	$1, %eax
	jne	.L346
.L508:
	movq	(%r12), %rax
	movq	%r12, %rdi
	call	*16(%rax)
	testq	%rbp, %rbp
	je	.L471
	movl	$-1, %eax
	lock xaddl	%eax, 12(%r12)
.L472:
	cmpl	$1, %eax
	jne	.L346
	movq	(%r12), %rax
	movq	%r12, %rdi
	movq	24(%rax), %rax
	addq	$8, %rsp
	.cfi_remember_state
	.cfi_def_cfa_offset 40
	popq	%rbx
	.cfi_def_cfa_offset 32
	popq	%rbp
	.cfi_def_cfa_offset 24
	popq	%r12
	.cfi_def_cfa_offset 16
	popq	%r13
	.cfi_def_cfa_offset 8
	jmp	*%rax
	.p2align 4,,10
	.p2align 3
.L377:
	.cfi_restore_state
	movl	8(%r12), %eax
	leal	-1(%rax), %edx
	movl	%edx, 8(%r12)
	cmpl	$1, %eax
	jne	.L376
.L495:
	movq	(%r12), %rax
	movq	%r12, %rdi
	call	*16(%rax)
	testq	%rbp, %rbp
	je	.L380
	movl	$-1, %eax
	lock xaddl	%eax, 12(%r12)
.L381:
	cmpl	$1, %eax
	jne	.L376
	movq	(%r12), %rax
	movq	%r12, %rdi
	call	*24(%rax)
	jmp	.L376
	.p2align 4,,10
	.p2align 3
.L391:
	movl	8(%r12), %eax
	leal	-1(%rax), %edx
	movl	%edx, 8(%r12)
	cmpl	$1, %eax
	jne	.L390
.L497:
	movq	(%r12), %rax
	movq	%r12, %rdi
	call	*16(%rax)
	testq	%rbp, %rbp
	je	.L394
	movl	$-1, %eax
	lock xaddl	%eax, 12(%r12)
.L395:
	cmpl	$1, %eax
	jne	.L390
	movq	(%r12), %rax
	movq	%r12, %rdi
	call	*24(%rax)
	jmp	.L390
	.p2align 4,,10
	.p2align 3
.L384:
	movl	8(%r12), %eax
	leal	-1(%rax), %edx
	movl	%edx, 8(%r12)
	cmpl	$1, %eax
	jne	.L383
.L496:
	movq	(%r12), %rax
	movq	%r12, %rdi
	call	*16(%rax)
	testq	%rbp, %rbp
	je	.L387
	movl	$-1, %eax
	lock xaddl	%eax, 12(%r12)
.L388:
	cmpl	$1, %eax
	jne	.L383
	movq	(%r12), %rax
	movq	%r12, %rdi
	call	*24(%rax)
	jmp	.L383
	.p2align 4,,10
	.p2align 3
.L405:
	movl	8(%r12), %eax
	leal	-1(%rax), %edx
	movl	%edx, 8(%r12)
	cmpl	$1, %eax
	jne	.L404
.L499:
	movq	(%r12), %rax
	movq	%r12, %rdi
	call	*16(%rax)
	testq	%rbp, %rbp
	je	.L408
	movl	$-1, %eax
	lock xaddl	%eax, 12(%r12)
.L409:
	cmpl	$1, %eax
	jne	.L404
	movq	(%r12), %rax
	movq	%r12, %rdi
	call	*24(%rax)
	jmp	.L404
	.p2align 4,,10
	.p2align 3
.L398:
	movl	8(%r12), %eax
	leal	-1(%rax), %edx
	movl	%edx, 8(%r12)
	cmpl	$1, %eax
	jne	.L397
.L498:
	movq	(%r12), %rax
	movq	%r12, %rdi
	call	*16(%rax)
	testq	%rbp, %rbp
	je	.L401
	movl	$-1, %eax
	lock xaddl	%eax, 12(%r12)
.L402:
	cmpl	$1, %eax
	jne	.L397
	movq	(%r12), %rax
	movq	%r12, %rdi
	call	*24(%rax)
	jmp	.L397
	.p2align 4,,10
	.p2align 3
.L419:
	movl	8(%r12), %eax
	leal	-1(%rax), %edx
	movl	%edx, 8(%r12)
	cmpl	$1, %eax
	jne	.L418
.L501:
	movq	(%r12), %rax
	movq	%r12, %rdi
	call	*16(%rax)
	testq	%rbp, %rbp
	je	.L422
	movl	$-1, %eax
	lock xaddl	%eax, 12(%r12)
.L423:
	cmpl	$1, %eax
	jne	.L418
	movq	(%r12), %rax
	movq	%r12, %rdi
	call	*24(%rax)
	jmp	.L418
	.p2align 4,,10
	.p2align 3
.L412:
	movl	8(%r12), %eax
	leal	-1(%rax), %edx
	movl	%edx, 8(%r12)
	cmpl	$1, %eax
	jne	.L411
.L500:
	movq	(%r12), %rax
	movq	%r12, %rdi
	call	*16(%rax)
	testq	%rbp, %rbp
	je	.L415
	movl	$-1, %eax
	lock xaddl	%eax, 12(%r12)
.L416:
	cmpl	$1, %eax
	jne	.L411
	movq	(%r12), %rax
	movq	%r12, %rdi
	call	*24(%rax)
	jmp	.L411
	.p2align 4,,10
	.p2align 3
.L433:
	movl	8(%r12), %eax
	leal	-1(%rax), %edx
	movl	%edx, 8(%r12)
	cmpl	$1, %eax
	jne	.L432
.L503:
	movq	(%r12), %rax
	movq	%r12, %rdi
	call	*16(%rax)
	testq	%rbp, %rbp
	je	.L436
	movl	$-1, %eax
	lock xaddl	%eax, 12(%r12)
.L437:
	cmpl	$1, %eax
	jne	.L432
	movq	(%r12), %rax
	movq	%r12, %rdi
	call	*24(%rax)
	jmp	.L432
	.p2align 4,,10
	.p2align 3
.L426:
	movl	8(%r12), %eax
	leal	-1(%rax), %edx
	movl	%edx, 8(%r12)
	cmpl	$1, %eax
	jne	.L425
.L502:
	movq	(%r12), %rax
	movq	%r12, %rdi
	call	*16(%rax)
	testq	%rbp, %rbp
	je	.L429
	movl	$-1, %eax
	lock xaddl	%eax, 12(%r12)
.L430:
	cmpl	$1, %eax
	jne	.L425
	movq	(%r12), %rax
	movq	%r12, %rdi
	call	*24(%rax)
	jmp	.L425
	.p2align 4,,10
	.p2align 3
.L447:
	movl	8(%r12), %eax
	leal	-1(%rax), %edx
	movl	%edx, 8(%r12)
	cmpl	$1, %eax
	jne	.L446
.L505:
	movq	(%r12), %rax
	movq	%r12, %rdi
	call	*16(%rax)
	testq	%rbp, %rbp
	je	.L450
	movl	$-1, %eax
	lock xaddl	%eax, 12(%r12)
.L451:
	cmpl	$1, %eax
	jne	.L446
	movq	(%r12), %rax
	movq	%r12, %rdi
	call	*24(%rax)
	jmp	.L446
	.p2align 4,,10
	.p2align 3
.L440:
	movl	8(%r12), %eax
	leal	-1(%rax), %edx
	movl	%edx, 8(%r12)
	cmpl	$1, %eax
	jne	.L439
.L504:
	movq	(%r12), %rax
	movq	%r12, %rdi
	call	*16(%rax)
	testq	%rbp, %rbp
	je	.L443
	movl	$-1, %eax
	lock xaddl	%eax, 12(%r12)
.L444:
	cmpl	$1, %eax
	jne	.L439
	movq	(%r12), %rax
	movq	%r12, %rdi
	call	*24(%rax)
	jmp	.L439
	.p2align 4,,10
	.p2align 3
.L461:
	movl	8(%r12), %eax
	leal	-1(%rax), %edx
	movl	%edx, 8(%r12)
	cmpl	$1, %eax
	jne	.L460
.L507:
	movq	(%r12), %rax
	movq	%r12, %rdi
	call	*16(%rax)
	testq	%rbp, %rbp
	je	.L464
	movl	$-1, %eax
	lock xaddl	%eax, 12(%r12)
.L465:
	cmpl	$1, %eax
	jne	.L460
	movq	(%r12), %rax
	movq	%r12, %rdi
	call	*24(%rax)
	jmp	.L460
	.p2align 4,,10
	.p2align 3
.L454:
	movl	8(%r12), %eax
	leal	-1(%rax), %edx
	movl	%edx, 8(%r12)
	cmpl	$1, %eax
	jne	.L453
.L506:
	movq	(%r12), %rax
	movq	%r12, %rdi
	call	*16(%rax)
	testq	%rbp, %rbp
	je	.L457
	movl	$-1, %eax
	lock xaddl	%eax, 12(%r12)
.L458:
	cmpl	$1, %eax
	jne	.L453
	movq	(%r12), %rax
	movq	%r12, %rdi
	call	*24(%rax)
	jmp	.L453
	.p2align 4,,10
	.p2align 3
.L380:
	movl	12(%r12), %eax
	leal	-1(%rax), %edx
	movl	%edx, 12(%r12)
	jmp	.L381
	.p2align 4,,10
	.p2align 3
.L471:
	movl	12(%r12), %eax
	leal	-1(%rax), %edx
	movl	%edx, 12(%r12)
	jmp	.L472
	.p2align 4,,10
	.p2align 3
.L387:
	movl	12(%r12), %eax
	leal	-1(%rax), %edx
	movl	%edx, 12(%r12)
	jmp	.L388
	.p2align 4,,10
	.p2align 3
.L408:
	movl	12(%r12), %eax
	leal	-1(%rax), %edx
	movl	%edx, 12(%r12)
	jmp	.L409
	.p2align 4,,10
	.p2align 3
.L394:
	movl	12(%r12), %eax
	leal	-1(%rax), %edx
	movl	%edx, 12(%r12)
	jmp	.L395
	.p2align 4,,10
	.p2align 3
.L401:
	movl	12(%r12), %eax
	leal	-1(%rax), %edx
	movl	%edx, 12(%r12)
	jmp	.L402
	.p2align 4,,10
	.p2align 3
.L415:
	movl	12(%r12), %eax
	leal	-1(%rax), %edx
	movl	%edx, 12(%r12)
	jmp	.L416
	.p2align 4,,10
	.p2align 3
.L464:
	movl	12(%r12), %eax
	leal	-1(%rax), %edx
	movl	%edx, 12(%r12)
	jmp	.L465
	.p2align 4,,10
	.p2align 3
.L450:
	movl	12(%r12), %eax
	leal	-1(%rax), %edx
	movl	%edx, 12(%r12)
	jmp	.L451
	.p2align 4,,10
	.p2align 3
.L457:
	movl	12(%r12), %eax
	leal	-1(%rax), %edx
	movl	%edx, 12(%r12)
	jmp	.L458
	.p2align 4,,10
	.p2align 3
.L422:
	movl	12(%r12), %eax
	leal	-1(%rax), %edx
	movl	%edx, 12(%r12)
	jmp	.L423
	.p2align 4,,10
	.p2align 3
.L429:
	movl	12(%r12), %eax
	leal	-1(%rax), %edx
	movl	%edx, 12(%r12)
	jmp	.L430
	.p2align 4,,10
	.p2align 3
.L436:
	movl	12(%r12), %eax
	leal	-1(%rax), %edx
	movl	%edx, 12(%r12)
	jmp	.L437
	.p2align 4,,10
	.p2align 3
.L443:
	movl	12(%r12), %eax
	leal	-1(%rax), %edx
	movl	%edx, 12(%r12)
	jmp	.L444
	.cfi_endproc
.LFE4934:
	.size	_ZN8opendnp38MContextD2Ev, .-_ZN8opendnp38MContextD2Ev
	.weak	_ZN8opendnp38MContextD1Ev
	.set	_ZN8opendnp38MContextD1Ev,_ZN8opendnp38MContextD2Ev
	.text
	.align 2
	.p2align 4
	.globl	_ZN8opendnp38MContext16OnLowerLayerDownEv
	.type	_ZN8opendnp38MContext16OnLowerLayerDownEv, @function
_ZN8opendnp38MContext16OnLowerLayerDownEv:
.LFB3398:
	.cfi_startproc
	endbr64
	pushq	%r13
	.cfi_def_cfa_offset 16
	.cfi_offset 13, -16
	pushq	%r12
	.cfi_def_cfa_offset 24
	.cfi_offset 12, -24
	pushq	%rbp
	.cfi_def_cfa_offset 32
	.cfi_offset 6, -32
	pushq	%rbx
	.cfi_def_cfa_offset 40
	.cfi_offset 3, -40
	subq	$24, %rsp
	.cfi_def_cfa_offset 64
	movzbl	168(%rdi), %r12d
	movq	%fs:40, %rax
	movq	%rax, 8(%rsp)
	xorl	%eax, %eax
	testb	%r12b, %r12b
	je	.L509
	movq	%rdi, %rbx
	movq	56(%rdi), %rdi
	movq	(%rdi), %rax
	call	*16(%rax)
	leaq	376(%rbx), %rdi
	movq	%rsp, %rsi
	movq	%rax, (%rsp)
	call	_ZN8opendnp315MasterScheduler8ShutdownERKN7openpal18MonotonicTimestampE@PLT
	movq	176(%rbx), %rdi
	testq	%rdi, %rdi
	je	.L512
	movq	(%rsp), %rsi
	call	_ZN8opendnp311IMasterTask17OnLowerLayerCloseEN7openpal18MonotonicTimestampE@PLT
	movq	184(%rbx), %rbp
	pxor	%xmm0, %xmm0
	movups	%xmm0, 176(%rbx)
	testq	%rbp, %rbp
	je	.L512
	movq	_ZL28__gthrw___pthread_key_createPjPFvPvE@GOTPCREL(%rip), %r13
	testq	%r13, %r13
	je	.L514
	movl	$-1, %eax
	lock xaddl	%eax, 8(%rbp)
.L515:
	cmpl	$1, %eax
	jne	.L512
	movq	0(%rbp), %rax
	movq	%rbp, %rdi
	call	*16(%rax)
	testq	%r13, %r13
	je	.L516
	movl	$-1, %eax
	lock xaddl	%eax, 12(%rbp)
.L517:
	cmpl	$1, %eax
	jne	.L512
	movq	0(%rbp), %rax
	movq	%rbp, %rdi
	call	*24(%rax)
	.p2align 4,,10
	.p2align 3
.L512:
	movq	160(%rbx), %rdi
	movl	$0, 512(%rbx)
	movq	(%rdi), %rax
	movq	8(%rax), %rax
	cmpq	_ZN8opendnp312NullTaskLock7ReleaseERNS_17IScheduleCallbackE@GOTPCREL(%rip), %rax
	jne	.L528
.L518:
	leaq	192(%rbx), %rdi
	call	_ZN7openpal8TimerRef6CancelEv@PLT
	leaq	224(%rbx), %rdi
	call	_ZN7openpal8TimerRef6CancelEv@PLT
	leaq	208(%rbx), %rdi
	call	_ZN7openpal8TimerRef6CancelEv@PLT
	movq	144(%rbx), %rdi
	xorl	%eax, %eax
	movb	$0, 171(%rbx)
	movw	%ax, 168(%rbx)
	movq	(%rdi), %rax
	movb	$0, 170(%rbx)
	movq	80(%rax), %rax
	cmpq	_ZN8opendnp318IMasterApplication7OnCloseEv@GOTPCREL(%rip), %rax
	jne	.L529
.L509:
	movq	8(%rsp), %rax
	xorq	%fs:40, %rax
	jne	.L530
	addq	$24, %rsp
	.cfi_remember_state
	.cfi_def_cfa_offset 40
	movl	%r12d, %eax
	popq	%rbx
	.cfi_def_cfa_offset 32
	popq	%rbp
	.cfi_def_cfa_offset 24
	popq	%r12
	.cfi_def_cfa_offset 16
	popq	%r13
	.cfi_def_cfa_offset 8
	ret
	.p2align 4,,10
	.p2align 3
.L528:
	.cfi_restore_state
	leaq	8(%rbx), %rsi
	call	*%rax
	jmp	.L518
	.p2align 4,,10
	.p2align 3
.L529:
	call	*%rax
	jmp	.L509
	.p2align 4,,10
	.p2align 3
.L514:
	movl	8(%rbp), %eax
	leal	-1(%rax), %edx
	movl	%edx, 8(%rbp)
	jmp	.L515
	.p2align 4,,10
	.p2align 3
.L516:
	movl	12(%rbp), %eax
	leal	-1(%rax), %edx
	movl	%edx, 12(%rbp)
	jmp	.L517
.L530:
	call	__stack_chk_fail@PLT
	.cfi_endproc
.LFE3398:
	.size	_ZN8opendnp38MContext16OnLowerLayerDownEv, .-_ZN8opendnp38MContext16OnLowerLayerDownEv
	.section	.text._ZN7openpal6LoggerD2Ev,"axG",@progbits,_ZN7openpal6LoggerD5Ev,comdat
	.align 2
	.p2align 4
	.weak	_ZN7openpal6LoggerD2Ev
	.type	_ZN7openpal6LoggerD2Ev, @function
_ZN7openpal6LoggerD2Ev:
.LFB2119:
	.cfi_startproc
	endbr64
	pushq	%r12
	.cfi_def_cfa_offset 16
	.cfi_offset 12, -16
	pushq	%rbp
	.cfi_def_cfa_offset 24
	.cfi_offset 6, -24
	pushq	%rbx
	.cfi_def_cfa_offset 32
	.cfi_offset 3, -32
	movq	24(%rdi), %rbp
	movq	%rdi, %rbx
	testq	%rbp, %rbp
	je	.L533
	movq	_ZL28__gthrw___pthread_key_createPjPFvPvE@GOTPCREL(%rip), %r12
	testq	%r12, %r12
	je	.L534
	movl	$-1, %eax
	lock xaddl	%eax, 8(%rbp)
	cmpl	$1, %eax
	je	.L547
	.p2align 4,,10
	.p2align 3
.L533:
	movq	8(%rbx), %rbp
	testq	%rbp, %rbp
	je	.L531
	movq	_ZL28__gthrw___pthread_key_createPjPFvPvE@GOTPCREL(%rip), %r12
	testq	%r12, %r12
	je	.L541
	movl	$-1, %eax
	lock xaddl	%eax, 8(%rbp)
	cmpl	$1, %eax
	je	.L548
.L531:
	popq	%rbx
	.cfi_remember_state
	.cfi_def_cfa_offset 24
	popq	%rbp
	.cfi_def_cfa_offset 16
	popq	%r12
	.cfi_def_cfa_offset 8
	ret
	.p2align 4,,10
	.p2align 3
.L534:
	.cfi_restore_state
	movl	8(%rbp), %eax
	leal	-1(%rax), %edx
	movl	%edx, 8(%rbp)
	cmpl	$1, %eax
	jne	.L533
.L547:
	movq	0(%rbp), %rax
	movq	%rbp, %rdi
	call	*16(%rax)
	testq	%r12, %r12
	je	.L537
	movl	$-1, %eax
	lock xaddl	%eax, 12(%rbp)
.L538:
	cmpl	$1, %eax
	jne	.L533
	movq	0(%rbp), %rax
	movq	%rbp, %rdi
	call	*24(%rax)
	jmp	.L533
	.p2align 4,,10
	.p2align 3
.L541:
	movl	8(%rbp), %eax
	leal	-1(%rax), %edx
	movl	%edx, 8(%rbp)
	cmpl	$1, %eax
	jne	.L531
.L548:
	movq	0(%rbp), %rax
	movq	%rbp, %rdi
	call	*16(%rax)
	testq	%r12, %r12
	je	.L544
	movl	$-1, %eax
	lock xaddl	%eax, 12(%rbp)
.L545:
	cmpl	$1, %eax
	jne	.L531
	movq	0(%rbp), %rax
	popq	%rbx
	.cfi_remember_state
	.cfi_def_cfa_offset 24
	movq	%rbp, %rdi
	popq	%rbp
	.cfi_def_cfa_offset 16
	popq	%r12
	.cfi_def_cfa_offset 8
	movq	24(%rax), %rax
	jmp	*%rax
	.p2align 4,,10
	.p2align 3
.L537:
	.cfi_restore_state
	movl	12(%rbp), %eax
	leal	-1(%rax), %edx
	movl	%edx, 12(%rbp)
	jmp	.L538
	.p2align 4,,10
	.p2align 3
.L544:
	movl	12(%rbp), %eax
	leal	-1(%rax), %edx
	movl	%edx, 12(%rbp)
	jmp	.L545
	.cfi_endproc
.LFE2119:
	.size	_ZN7openpal6LoggerD2Ev, .-_ZN7openpal6LoggerD2Ev
	.weak	_ZN7openpal6LoggerD1Ev
	.set	_ZN7openpal6LoggerD1Ev,_ZN7openpal6LoggerD2Ev
	.section	.text._ZN8opendnp311MasterTasksD2Ev,"axG",@progbits,_ZN8opendnp311MasterTasksD5Ev,comdat
	.align 2
	.p2align 4
	.weak	_ZN8opendnp311MasterTasksD2Ev
	.type	_ZN8opendnp311MasterTasksD2Ev, @function
_ZN8opendnp311MasterTasksD2Ev:
.LFB3390:
	.cfi_startproc
	endbr64
	pushq	%r13
	.cfi_def_cfa_offset 16
	.cfi_offset 13, -16
	pushq	%r12
	.cfi_def_cfa_offset 24
	.cfi_offset 12, -24
	pushq	%rbp
	.cfi_def_cfa_offset 32
	.cfi_offset 6, -32
	pushq	%rbx
	.cfi_def_cfa_offset 40
	.cfi_offset 3, -40
	movq	%rdi, %rbx
	subq	$8, %rsp
	.cfi_def_cfa_offset 48
	movq	120(%rdi), %r13
	movq	112(%rdi), %rbp
	cmpq	%rbp, %r13
	je	.L550
	cmpq	$0, _ZL28__gthrw___pthread_key_createPjPFvPvE@GOTPCREL(%rip)
	je	.L557
	movq	8(%rbp), %r12
	testq	%r12, %r12
	jne	.L618
	.p2align 4,,10
	.p2align 3
.L559:
	addq	$16, %rbp
	cmpq	%rbp, %r13
	je	.L556
.L551:
	movq	8(%rbp), %r12
	testq	%r12, %r12
	je	.L559
.L618:
	lock subl	$1, 8(%r12)
	jne	.L559
	movq	(%r12), %rax
	movq	%r12, %rdi
	call	*16(%rax)
	lock subl	$1, 12(%r12)
	jne	.L559
	movq	(%r12), %rax
	addq	$16, %rbp
	movq	%r12, %rdi
	call	*24(%rax)
	cmpq	%rbp, %r13
	jne	.L551
	.p2align 4,,10
	.p2align 3
.L556:
	movq	112(%rbx), %rbp
.L550:
	testq	%rbp, %rbp
	je	.L561
	movq	%rbp, %rdi
	call	_ZdlPv@PLT
.L561:
	movq	104(%rbx), %r12
	testq	%r12, %r12
	je	.L563
	movq	_ZL28__gthrw___pthread_key_createPjPFvPvE@GOTPCREL(%rip), %rbp
	testq	%rbp, %rbp
	je	.L564
	movl	$-1, %eax
	lock xaddl	%eax, 8(%r12)
	cmpl	$1, %eax
	je	.L619
	.p2align 4,,10
	.p2align 3
.L563:
	movq	88(%rbx), %r12
	testq	%r12, %r12
	je	.L570
	movq	_ZL28__gthrw___pthread_key_createPjPFvPvE@GOTPCREL(%rip), %rbp
	testq	%rbp, %rbp
	je	.L571
	movl	$-1, %eax
	lock xaddl	%eax, 8(%r12)
	cmpl	$1, %eax
	je	.L620
	.p2align 4,,10
	.p2align 3
.L570:
	movq	72(%rbx), %r12
	testq	%r12, %r12
	je	.L577
	movq	_ZL28__gthrw___pthread_key_createPjPFvPvE@GOTPCREL(%rip), %rbp
	testq	%rbp, %rbp
	je	.L578
	movl	$-1, %eax
	lock xaddl	%eax, 8(%r12)
	cmpl	$1, %eax
	je	.L621
	.p2align 4,,10
	.p2align 3
.L577:
	movq	56(%rbx), %r12
	testq	%r12, %r12
	je	.L584
	movq	_ZL28__gthrw___pthread_key_createPjPFvPvE@GOTPCREL(%rip), %rbp
	testq	%rbp, %rbp
	je	.L585
	movl	$-1, %eax
	lock xaddl	%eax, 8(%r12)
	cmpl	$1, %eax
	je	.L622
	.p2align 4,,10
	.p2align 3
.L584:
	movq	40(%rbx), %r12
	testq	%r12, %r12
	je	.L591
	movq	_ZL28__gthrw___pthread_key_createPjPFvPvE@GOTPCREL(%rip), %rbp
	testq	%rbp, %rbp
	je	.L592
	movl	$-1, %eax
	lock xaddl	%eax, 8(%r12)
	cmpl	$1, %eax
	je	.L623
	.p2align 4,,10
	.p2align 3
.L591:
	movq	24(%rbx), %r12
	testq	%r12, %r12
	je	.L598
	movq	_ZL28__gthrw___pthread_key_createPjPFvPvE@GOTPCREL(%rip), %rbp
	testq	%rbp, %rbp
	je	.L599
	movl	$-1, %eax
	lock xaddl	%eax, 8(%r12)
	cmpl	$1, %eax
	je	.L624
	.p2align 4,,10
	.p2align 3
.L598:
	movq	8(%rbx), %r12
	testq	%r12, %r12
	je	.L549
	movq	_ZL28__gthrw___pthread_key_createPjPFvPvE@GOTPCREL(%rip), %rbp
	testq	%rbp, %rbp
	je	.L606
	movl	$-1, %eax
	lock xaddl	%eax, 8(%r12)
	cmpl	$1, %eax
	je	.L625
.L549:
	addq	$8, %rsp
	.cfi_remember_state
	.cfi_def_cfa_offset 40
	popq	%rbx
	.cfi_def_cfa_offset 32
	popq	%rbp
	.cfi_def_cfa_offset 24
	popq	%r12
	.cfi_def_cfa_offset 16
	popq	%r13
	.cfi_def_cfa_offset 8
	ret
	.p2align 4,,10
	.p2align 3
.L555:
	.cfi_restore_state
	movq	(%r12), %rax
	movq	%r12, %rdi
	call	*16(%rax)
	movl	12(%r12), %eax
	leal	-1(%rax), %edx
	movl	%edx, 12(%r12)
	cmpl	$1, %eax
	jne	.L554
	movq	(%r12), %rax
	movq	%r12, %rdi
	call	*24(%rax)
	.p2align 4,,10
	.p2align 3
.L554:
	addq	$16, %rbp
	cmpq	%rbp, %r13
	je	.L556
.L557:
	movq	8(%rbp), %r12
	testq	%r12, %r12
	je	.L554
	movl	8(%r12), %eax
	leal	-1(%rax), %edx
	movl	%edx, 8(%r12)
	cmpl	$1, %eax
	jne	.L554
	jmp	.L555
	.p2align 4,,10
	.p2align 3
.L606:
	movl	8(%r12), %eax
	leal	-1(%rax), %edx
	movl	%edx, 8(%r12)
	cmpl	$1, %eax
	jne	.L549
.L625:
	movq	(%r12), %rax
	movq	%r12, %rdi
	call	*16(%rax)
	testq	%rbp, %rbp
	je	.L609
	movl	$-1, %eax
	lock xaddl	%eax, 12(%r12)
.L610:
	cmpl	$1, %eax
	jne	.L549
	movq	(%r12), %rax
	movq	%r12, %rdi
	movq	24(%rax), %rax
	addq	$8, %rsp
	.cfi_remember_state
	.cfi_def_cfa_offset 40
	popq	%rbx
	.cfi_def_cfa_offset 32
	popq	%rbp
	.cfi_def_cfa_offset 24
	popq	%r12
	.cfi_def_cfa_offset 16
	popq	%r13
	.cfi_def_cfa_offset 8
	jmp	*%rax
	.p2align 4,,10
	.p2align 3
.L571:
	.cfi_restore_state
	movl	8(%r12), %eax
	leal	-1(%rax), %edx
	movl	%edx, 8(%r12)
	cmpl	$1, %eax
	jne	.L570
.L620:
	movq	(%r12), %rax
	movq	%r12, %rdi
	call	*16(%rax)
	testq	%rbp, %rbp
	je	.L574
	movl	$-1, %eax
	lock xaddl	%eax, 12(%r12)
.L575:
	cmpl	$1, %eax
	jne	.L570
	movq	(%r12), %rax
	movq	%r12, %rdi
	call	*24(%rax)
	jmp	.L570
	.p2align 4,,10
	.p2align 3
.L564:
	movl	8(%r12), %eax
	leal	-1(%rax), %edx
	movl	%edx, 8(%r12)
	cmpl	$1, %eax
	jne	.L563
.L619:
	movq	(%r12), %rax
	movq	%r12, %rdi
	call	*16(%rax)
	testq	%rbp, %rbp
	je	.L567
	movl	$-1, %eax
	lock xaddl	%eax, 12(%r12)
.L568:
	cmpl	$1, %eax
	jne	.L563
	movq	(%r12), %rax
	movq	%r12, %rdi
	call	*24(%rax)
	jmp	.L563
	.p2align 4,,10
	.p2align 3
.L585:
	movl	8(%r12), %eax
	leal	-1(%rax), %edx
	movl	%edx, 8(%r12)
	cmpl	$1, %eax
	jne	.L584
.L622:
	movq	(%r12), %rax
	movq	%r12, %rdi
	call	*16(%rax)
	testq	%rbp, %rbp
	je	.L588
	movl	$-1, %eax
	lock xaddl	%eax, 12(%r12)
.L589:
	cmpl	$1, %eax
	jne	.L584
	movq	(%r12), %rax
	movq	%r12, %rdi
	call	*24(%rax)
	jmp	.L584
	.p2align 4,,10
	.p2align 3
.L578:
	movl	8(%r12), %eax
	leal	-1(%rax), %edx
	movl	%edx, 8(%r12)
	cmpl	$1, %eax
	jne	.L577
.L621:
	movq	(%r12), %rax
	movq	%r12, %rdi
	call	*16(%rax)
	testq	%rbp, %rbp
	je	.L581
	movl	$-1, %eax
	lock xaddl	%eax, 12(%r12)
.L582:
	cmpl	$1, %eax
	jne	.L577
	movq	(%r12), %rax
	movq	%r12, %rdi
	call	*24(%rax)
	jmp	.L577
	.p2align 4,,10
	.p2align 3
.L599:
	movl	8(%r12), %eax
	leal	-1(%rax), %edx
	movl	%edx, 8(%r12)
	cmpl	$1, %eax
	jne	.L598
.L624:
	movq	(%r12), %rax
	movq	%r12, %rdi
	call	*16(%rax)
	testq	%rbp, %rbp
	je	.L602
	movl	$-1, %eax
	lock xaddl	%eax, 12(%r12)
.L603:
	cmpl	$1, %eax
	jne	.L598
	movq	(%r12), %rax
	movq	%r12, %rdi
	call	*24(%rax)
	jmp	.L598
	.p2align 4,,10
	.p2align 3
.L592:
	movl	8(%r12), %eax
	leal	-1(%rax), %edx
	movl	%edx, 8(%r12)
	cmpl	$1, %eax
	jne	.L591
.L623:
	movq	(%r12), %rax
	movq	%r12, %rdi
	call	*16(%rax)
	testq	%rbp, %rbp
	je	.L595
	movl	$-1, %eax
	lock xaddl	%eax, 12(%r12)
.L596:
	cmpl	$1, %eax
	jne	.L591
	movq	(%r12), %rax
	movq	%r12, %rdi
	call	*24(%rax)
	jmp	.L591
	.p2align 4,,10
	.p2align 3
.L567:
	movl	12(%r12), %eax
	leal	-1(%rax), %edx
	movl	%edx, 12(%r12)
	jmp	.L568
	.p2align 4,,10
	.p2align 3
.L574:
	movl	12(%r12), %eax
	leal	-1(%rax), %edx
	movl	%edx, 12(%r12)
	jmp	.L575
	.p2align 4,,10
	.p2align 3
.L609:
	movl	12(%r12), %eax
	leal	-1(%rax), %edx
	movl	%edx, 12(%r12)
	jmp	.L610
	.p2align 4,,10
	.p2align 3
.L581:
	movl	12(%r12), %eax
	leal	-1(%rax), %edx
	movl	%edx, 12(%r12)
	jmp	.L582
	.p2align 4,,10
	.p2align 3
.L602:
	movl	12(%r12), %eax
	leal	-1(%rax), %edx
	movl	%edx, 12(%r12)
	jmp	.L603
	.p2align 4,,10
	.p2align 3
.L588:
	movl	12(%r12), %eax
	leal	-1(%rax), %edx
	movl	%edx, 12(%r12)
	jmp	.L589
	.p2align 4,,10
	.p2align 3
.L595:
	movl	12(%r12), %eax
	leal	-1(%rax), %edx
	movl	%edx, 12(%r12)
	jmp	.L596
	.cfi_endproc
.LFE3390:
	.size	_ZN8opendnp311MasterTasksD2Ev, .-_ZN8opendnp311MasterTasksD2Ev
	.weak	_ZN8opendnp311MasterTasksD1Ev
	.set	_ZN8opendnp311MasterTasksD1Ev,_ZN8opendnp311MasterTasksD2Ev
	.text
	.align 2
	.p2align 4
	.globl	_ZN8opendnp38MContext10ProcessIINERKNS_8IINFieldE
	.type	_ZN8opendnp38MContext10ProcessIINERKNS_8IINFieldE, @function
_ZN8opendnp38MContext10ProcessIINERKNS_8IINFieldE:
.LFB3409:
	.cfi_startproc
	endbr64
	pushq	%rbp
	.cfi_def_cfa_offset 16
	.cfi_offset 6, -16
	movq	%rsi, %rbp
	movl	$7, %esi
	pushq	%rbx
	.cfi_def_cfa_offset 24
	.cfi_offset 3, -24
	movq	%rdi, %rbx
	movq	%rbp, %rdi
	subq	$8, %rsp
	.cfi_def_cfa_offset 32
	call	_ZNK8opendnp38IINField5IsSetENS_6IINBitE@PLT
	testb	%al, %al
	je	.L627
	cmpb	$0, 98(%rbx)
	je	.L652
.L627:
	movl	$11, %esi
	movq	%rbp, %rdi
	call	_ZNK8opendnp38IINField5IsSetENS_6IINBitE@PLT
	testb	%al, %al
	je	.L628
	cmpb	$0, 101(%rbx)
	jne	.L653
.L628:
	movl	$4, %esi
	movq	%rbp, %rdi
	call	_ZNK8opendnp38IINField5IsSetENS_6IINBitE@PLT
	testb	%al, %al
	je	.L629
	cmpb	$1, 96(%rbx)
	je	.L654
.L629:
	movl	$1, %esi
	movq	%rbp, %rdi
	call	_ZNK8opendnp38IINField5IsSetENS_6IINBitE@PLT
	testb	%al, %al
	je	.L633
	leaq	102(%rbx), %rdi
	call	_ZNK8opendnp310ClassField9HasClass1Ev@PLT
	testb	%al, %al
	je	.L633
.L637:
	movq	336(%rbx), %rdi
	call	_ZN8opendnp311IMasterTask6DemandEv@PLT
.L634:
	movq	144(%rbx), %rdi
	movq	(%rdi), %rax
	movq	48(%rax), %rax
	cmpq	_ZN8opendnp318IMasterApplication12OnReceiveIINERKNS_8IINFieldE@GOTPCREL(%rip), %rax
	jne	.L655
	addq	$8, %rsp
	.cfi_remember_state
	.cfi_def_cfa_offset 24
	popq	%rbx
	.cfi_def_cfa_offset 16
	popq	%rbp
	.cfi_def_cfa_offset 8
	ret
	.p2align 4,,10
	.p2align 3
.L633:
	.cfi_restore_state
	movl	$2, %esi
	movq	%rbp, %rdi
	call	_ZNK8opendnp38IINField5IsSetENS_6IINBitE@PLT
	testb	%al, %al
	je	.L632
	leaq	102(%rbx), %rdi
	call	_ZNK8opendnp310ClassField9HasClass2Ev@PLT
	testb	%al, %al
	jne	.L637
.L632:
	movl	$3, %esi
	movq	%rbp, %rdi
	call	_ZNK8opendnp38IINField5IsSetENS_6IINBitE@PLT
	testb	%al, %al
	je	.L634
	leaq	102(%rbx), %rdi
	call	_ZNK8opendnp310ClassField9HasClass3Ev@PLT
	testb	%al, %al
	jne	.L637
	jmp	.L634
	.p2align 4,,10
	.p2align 3
.L655:
	addq	$8, %rsp
	.cfi_remember_state
	.cfi_def_cfa_offset 24
	movq	%rbp, %rsi
	popq	%rbx
	.cfi_def_cfa_offset 16
	popq	%rbp
	.cfi_def_cfa_offset 8
	jmp	*%rax
	.p2align 4,,10
	.p2align 3
.L652:
	.cfi_restore_state
	movq	256(%rbx), %rdi
	call	_ZN8opendnp311IMasterTask6DemandEv@PLT
	movq	272(%rbx), %rdi
	call	_ZN8opendnp311IMasterTask6DemandEv@PLT
	movq	288(%rbx), %rdi
	call	_ZN8opendnp311IMasterTask6DemandEv@PLT
	movq	240(%rbx), %rdi
	call	_ZN8opendnp311IMasterTask6DemandEv@PLT
	jmp	.L627
	.p2align 4,,10
	.p2align 3
.L653:
	movq	288(%rbx), %rdi
	call	_ZN8opendnp311IMasterTask6DemandEv@PLT
	jmp	.L628
	.p2align 4,,10
	.p2align 3
.L654:
	movq	320(%rbx), %rdi
	call	_ZN8opendnp311IMasterTask6DemandEv@PLT
	jmp	.L629
	.cfi_endproc
.LFE3409:
	.size	_ZN8opendnp38MContext10ProcessIINERKNS_8IINFieldE, .-_ZN8opendnp38MContext10ProcessIINERKNS_8IINFieldE
	.section	.text.unlikely
	.align 2
.LCOLDB2:
	.text
.LHOTB2:
	.align 2
	.p2align 4
	.globl	_ZN8opendnp38MContext8TransmitERKN7openpal6RSliceE
	.type	_ZN8opendnp38MContext8TransmitERKN7openpal6RSliceE, @function
_ZN8opendnp38MContext8TransmitERKN7openpal6RSliceE:
.LFB3414:
	.cfi_startproc
	.cfi_personality 0x9b,DW.ref.__gxx_personality_v0
	.cfi_lsda 0x1b,.LLSDA3414
	endbr64
	pushq	%r13
	.cfi_def_cfa_offset 16
	.cfi_offset 13, -16
	pushq	%r12
	.cfi_def_cfa_offset 24
	.cfi_offset 12, -24
	pushq	%rbp
	.cfi_def_cfa_offset 32
	.cfi_offset 6, -32
	movq	%rsi, %rbp
	pushq	%rbx
	.cfi_def_cfa_offset 40
	.cfi_offset 3, -40
	movq	%rdi, %rbx
	subq	$56, %rsp
	.cfi_def_cfa_offset 96
	movdqu	24(%rdi), %xmm0
	movq	%fs:40, %rax
	movq	%rax, 40(%rsp)
	xorl	%eax, %eax
	movq	32(%rdi), %rax
	movaps	%xmm0, (%rsp)
	testq	%rax, %rax
	je	.L657
	cmpq	$0, _ZL28__gthrw___pthread_key_createPjPFvPvE@GOTPCREL(%rip)
	je	.L658
	lock addl	$1, 8(%rax)
.L657:
	movdqu	40(%rbx), %xmm1
	movq	48(%rbx), %rax
	movaps	%xmm1, 16(%rsp)
	testq	%rax, %rax
	je	.L659
	cmpq	$0, _ZL28__gthrw___pthread_key_createPjPFvPvE@GOTPCREL(%rip)
	je	.L660
	lock addl	$1, 8(%rax)
.L659:
	movq	%rsp, %r12
	movq	%rbp, %rsi
	movq	%r12, %rdi
.LEHB4:
	call	_ZN8opendnp37logging20ParseAndLogRequestTxEN7openpal6LoggerERKNS1_6RSliceE@PLT
.LEHE4:
	movq	24(%rsp), %r12
	testq	%r12, %r12
	je	.L662
	movq	_ZL28__gthrw___pthread_key_createPjPFvPvE@GOTPCREL(%rip), %r13
	testq	%r13, %r13
	je	.L663
	movl	$-1, %eax
	lock xaddl	%eax, 8(%r12)
	cmpl	$1, %eax
	je	.L686
	.p2align 4,,10
	.p2align 3
.L662:
	movq	8(%rsp), %r12
	testq	%r12, %r12
	je	.L669
	movq	_ZL28__gthrw___pthread_key_createPjPFvPvE@GOTPCREL(%rip), %r13
	testq	%r13, %r13
	je	.L670
	movl	$-1, %eax
	lock xaddl	%eax, 8(%r12)
	cmpl	$1, %eax
	je	.L687
	.p2align 4,,10
	.p2align 3
.L669:
	movq	72(%rbx), %rdi
	movb	$1, 169(%rbx)
	movq	%rbp, %rsi
	movq	(%rdi), %rax
.LEHB5:
	call	*16(%rax)
.LEHE5:
	movq	40(%rsp), %rax
	xorq	%fs:40, %rax
	jne	.L688
	addq	$56, %rsp
	.cfi_remember_state
	.cfi_def_cfa_offset 40
	popq	%rbx
	.cfi_def_cfa_offset 32
	popq	%rbp
	.cfi_def_cfa_offset 24
	popq	%r12
	.cfi_def_cfa_offset 16
	popq	%r13
	.cfi_def_cfa_offset 8
	ret
	.p2align 4,,10
	.p2align 3
.L658:
	.cfi_restore_state
	addl	$1, 8(%rax)
	jmp	.L657
	.p2align 4,,10
	.p2align 3
.L660:
	addl	$1, 8(%rax)
	jmp	.L659
	.p2align 4,,10
	.p2align 3
.L670:
	movl	8(%r12), %eax
	leal	-1(%rax), %edx
	movl	%edx, 8(%r12)
	cmpl	$1, %eax
	jne	.L669
.L687:
	movq	(%r12), %rax
	movq	%r12, %rdi
	call	*16(%rax)
	testq	%r13, %r13
	je	.L673
	movl	$-1, %eax
	lock xaddl	%eax, 12(%r12)
.L674:
	cmpl	$1, %eax
	jne	.L669
	movq	(%r12), %rax
	movq	%r12, %rdi
	call	*24(%rax)
	jmp	.L669
	.p2align 4,,10
	.p2align 3
.L663:
	movl	8(%r12), %eax
	leal	-1(%rax), %edx
	movl	%edx, 8(%r12)
	cmpl	$1, %eax
	jne	.L662
.L686:
	movq	(%r12), %rax
	movq	%r12, %rdi
	call	*16(%rax)
	testq	%r13, %r13
	je	.L666
	movl	$-1, %eax
	lock xaddl	%eax, 12(%r12)
.L667:
	cmpl	$1, %eax
	jne	.L662
	movq	(%r12), %rax
	movq	%r12, %rdi
	call	*24(%rax)
	jmp	.L662
	.p2align 4,,10
	.p2align 3
.L666:
	movl	12(%r12), %eax
	leal	-1(%rax), %edx
	movl	%edx, 12(%r12)
	jmp	.L667
	.p2align 4,,10
	.p2align 3
.L673:
	movl	12(%r12), %eax
	leal	-1(%rax), %edx
	movl	%edx, 12(%r12)
	jmp	.L674
.L688:
	call	__stack_chk_fail@PLT
.L677:
	endbr64
	movq	%rax, %rbp
	jmp	.L675
	.section	.gcc_except_table
.LLSDA3414:
	.byte	0xff
	.byte	0xff
	.byte	0x1
	.uleb128 .LLSDACSE3414-.LLSDACSB3414
.LLSDACSB3414:
	.uleb128 .LEHB4-.LFB3414
	.uleb128 .LEHE4-.LEHB4
	.uleb128 .L677-.LFB3414
	.uleb128 0
	.uleb128 .LEHB5-.LFB3414
	.uleb128 .LEHE5-.LEHB5
	.uleb128 0
	.uleb128 0
.LLSDACSE3414:
	.text
	.cfi_endproc
	.section	.text.unlikely
	.cfi_startproc
	.cfi_personality 0x9b,DW.ref.__gxx_personality_v0
	.cfi_lsda 0x1b,.LLSDAC3414
	.type	_ZN8opendnp38MContext8TransmitERKN7openpal6RSliceE.cold, @function
_ZN8opendnp38MContext8TransmitERKN7openpal6RSliceE.cold:
.LFSB3414:
.L675:
	.cfi_def_cfa_offset 96
	.cfi_offset 3, -40
	.cfi_offset 6, -32
	.cfi_offset 12, -24
	.cfi_offset 13, -16
	movq	%r12, %rdi
	call	_ZN7openpal6LoggerD1Ev@PLT
	movq	%rbp, %rdi
.LEHB6:
	call	_Unwind_Resume@PLT
.LEHE6:
	.cfi_endproc
.LFE3414:
	.section	.gcc_except_table
.LLSDAC3414:
	.byte	0xff
	.byte	0xff
	.byte	0x1
	.uleb128 .LLSDACSEC3414-.LLSDACSBC3414
.LLSDACSBC3414:
	.uleb128 .LEHB6-.LCOLDB2
	.uleb128 .LEHE6-.LEHB6
	.uleb128 0
	.uleb128 0
.LLSDACSEC3414:
	.section	.text.unlikely
	.text
	.size	_ZN8opendnp38MContext8TransmitERKN7openpal6RSliceE, .-_ZN8opendnp38MContext8TransmitERKN7openpal6RSliceE
	.section	.text.unlikely
	.size	_ZN8opendnp38MContext8TransmitERKN7openpal6RSliceE.cold, .-_ZN8opendnp38MContext8TransmitERKN7openpal6RSliceE.cold
.LCOLDE2:
	.text
.LHOTE2:
	.align 2
	.p2align 4
	.globl	_ZN8opendnp38MContext20CheckConfirmTransmitEv
	.type	_ZN8opendnp38MContext20CheckConfirmTransmitEv, @function
_ZN8opendnp38MContext20CheckConfirmTransmitEv:
.LFB3413:
	.cfi_startproc
	endbr64
	pushq	%r13
	.cfi_def_cfa_offset 16
	.cfi_offset 13, -16
	pushq	%r12
	.cfi_def_cfa_offset 24
	.cfi_offset 12, -24
	pushq	%rbp
	.cfi_def_cfa_offset 32
	.cfi_offset 6, -32
	pushq	%rbx
	.cfi_def_cfa_offset 40
	.cfi_offset 3, -40
	subq	$88, %rsp
	.cfi_def_cfa_offset 128
	movq	%fs:40, %rax
	movq	%rax, 72(%rsp)
	xorl	%eax, %eax
	movzbl	169(%rdi), %eax
	testb	%al, %al
	jne	.L693
	movq	424(%rdi), %rdx
	movq	%rdi, %rbx
	cmpq	456(%rdi), %rdx
	je	.L689
	movl	(%rdx), %eax
	movzbl	(%rdx), %r13d
	leaq	32(%rsp), %r12
	leaq	16(%rsp), %rbp
	leaq	488(%rdi), %rdi
	movl	%eax, 10(%rsp)
	movzwl	4(%rdx), %eax
	movw	%ax, 14(%rsp)
	call	_ZN7openpal6Buffer9GetWSliceEv@PLT
	movq	%rbp, %rsi
	movq	%r12, %rdi
	movq	%rdx, 24(%rsp)
	movl	%eax, 16(%rsp)
	call	_ZN8opendnp311APDUWrapperC1ERKN7openpal6WSliceE@PLT
	movl	%r13d, %esi
	movq	%r12, %rdi
	call	_ZN8opendnp311APDUWrapper11SetFunctionENS_12FunctionCodeE@PLT
	movzbl	12(%rsp), %eax
	movzbl	11(%rsp), %esi
	movq	%r12, %rdi
	salq	$8, %rax
	orq	%rax, %rsi
	movzbl	13(%rsp), %eax
	salq	$16, %rax
	orq	%rsi, %rax
	movzbl	14(%rsp), %esi
	salq	$24, %rsi
	orq	%rsi, %rax
	movzbl	15(%rsp), %esi
	salq	$32, %rsi
	orq	%rax, %rsi
	call	_ZN8opendnp311APDUWrapper10SetControlENS_15AppControlFieldE@PLT
	movq	%r12, %rdi
	call	_ZNK8opendnp311APDUWrapper8ToRSliceEv@PLT
	movq	%rbp, %rsi
	movq	%rbx, %rdi
	movl	%eax, 16(%rsp)
	movq	%rdx, 24(%rsp)
	call	_ZN8opendnp38MContext8TransmitERKN7openpal6RSliceE@PLT
	movq	440(%rbx), %rcx
	movq	424(%rbx), %rax
	leaq	-6(%rcx), %rdx
	cmpq	%rdx, %rax
	je	.L691
	addq	$6, %rax
	movq	%rax, 424(%rbx)
	movl	$1, %eax
.L689:
	movq	72(%rsp), %rcx
	xorq	%fs:40, %rcx
	jne	.L695
	addq	$88, %rsp
	.cfi_remember_state
	.cfi_def_cfa_offset 40
	popq	%rbx
	.cfi_def_cfa_offset 32
	popq	%rbp
	.cfi_def_cfa_offset 24
	popq	%r12
	.cfi_def_cfa_offset 16
	popq	%r13
	.cfi_def_cfa_offset 8
	ret
	.p2align 4,,10
	.p2align 3
.L693:
	.cfi_restore_state
	xorl	%eax, %eax
	jmp	.L689
	.p2align 4,,10
	.p2align 3
.L691:
	movq	432(%rbx), %rdi
	call	_ZdlPv@PLT
	movq	448(%rbx), %rdx
	movq	8(%rdx), %rax
	addq	$8, %rdx
	movq	%rdx, %xmm1
	movq	%rax, %xmm0
	addq	$510, %rax
	punpcklqdq	%xmm0, %xmm0
	movups	%xmm0, 424(%rbx)
	movq	%rax, %xmm0
	movl	$1, %eax
	punpcklqdq	%xmm1, %xmm0
	movups	%xmm0, 440(%rbx)
	jmp	.L689
.L695:
	call	__stack_chk_fail@PLT
	.cfi_endproc
.LFE3413:
	.size	_ZN8opendnp38MContext20CheckConfirmTransmitEv, .-_ZN8opendnp38MContext20CheckConfirmTransmitEv
	.section	.rodata.str1.8,"aMS",@progbits,1
	.align 8
.LC3:
	.string	"cannot create std::deque larger than max_size()"
	.text
	.align 2
	.p2align 4
	.globl	_ZN8opendnp38MContext12QueueConfirmERKNS_10APDUHeaderE
	.type	_ZN8opendnp38MContext12QueueConfirmERKNS_10APDUHeaderE, @function
_ZN8opendnp38MContext12QueueConfirmERKNS_10APDUHeaderE:
.LFB3412:
	.cfi_startproc
	endbr64
	pushq	%r15
	.cfi_def_cfa_offset 16
	.cfi_offset 15, -16
	pushq	%r14
	.cfi_def_cfa_offset 24
	.cfi_offset 14, -24
	pushq	%r13
	.cfi_def_cfa_offset 32
	.cfi_offset 13, -32
	pushq	%r12
	.cfi_def_cfa_offset 40
	.cfi_offset 12, -40
	pushq	%rbp
	.cfi_def_cfa_offset 48
	.cfi_offset 6, -48
	movq	%rdi, %rbp
	pushq	%rbx
	.cfi_def_cfa_offset 56
	.cfi_offset 3, -56
	movq	%rsi, %rbx
	subq	$8, %rsp
	.cfi_def_cfa_offset 64
	movq	472(%rdi), %rcx
	movq	456(%rdi), %rax
	leaq	-6(%rcx), %rdx
	cmpq	%rdx, %rax
	je	.L697
	movl	(%rsi), %edx
	addq	$6, %rax
	movl	%edx, -6(%rax)
	movzwl	4(%rsi), %edx
	movw	%dx, -2(%rax)
	movq	%rax, 456(%rdi)
.L698:
	addq	$8, %rsp
	.cfi_remember_state
	.cfi_def_cfa_offset 56
	movq	%rbp, %rdi
	popq	%rbx
	.cfi_def_cfa_offset 48
	popq	%rbp
	.cfi_def_cfa_offset 40
	popq	%r12
	.cfi_def_cfa_offset 32
	popq	%r13
	.cfi_def_cfa_offset 24
	popq	%r14
	.cfi_def_cfa_offset 16
	popq	%r15
	.cfi_def_cfa_offset 8
	jmp	_ZN8opendnp38MContext20CheckConfirmTransmitEv@PLT
	.p2align 4,,10
	.p2align 3
.L697:
	.cfi_restore_state
	movq	480(%rdi), %r13
	movq	448(%rdi), %rsi
	subq	464(%rdi), %rax
	movabsq	$-6148914691236517205, %rdi
	movq	%r13, %r12
	sarq	%rax
	subq	%rsi, %r12
	imulq	%rdi, %rax
	movq	%r12, %rcx
	sarq	$3, %rcx
	leaq	-5(%rcx,%rcx,4), %rdx
	movq	%rdx, %r8
	salq	$4, %r8
	addq	%r8, %rdx
	addq	%rax, %rdx
	movq	440(%rbp), %rax
	subq	424(%rbp), %rax
	sarq	%rax
	imulq	%rdi, %rax
	addq	%rdx, %rax
	movabsq	$1537228672809129301, %rdx
	cmpq	%rdx, %rax
	je	.L707
	movq	408(%rbp), %rdi
	movq	416(%rbp), %rdx
	movq	%r13, %rax
	subq	%rdi, %rax
	movq	%rdx, %r9
	sarq	$3, %rax
	subq	%rax, %r9
	cmpq	$1, %r9
	jbe	.L708
.L700:
	movl	$510, %edi
	call	_Znwm@PLT
	movl	(%rbx), %edx
	movq	%rax, 8(%r13)
	movq	456(%rbp), %rax
	movl	%edx, (%rax)
	movzwl	4(%rbx), %edx
	movw	%dx, 4(%rax)
	movq	480(%rbp), %rdx
	movq	8(%rdx), %rax
	addq	$8, %rdx
	movq	%rdx, %xmm1
	movq	%rax, %xmm0
	addq	$510, %rax
	punpcklqdq	%xmm0, %xmm0
	movups	%xmm0, 456(%rbp)
	movq	%rax, %xmm0
	punpcklqdq	%xmm1, %xmm0
	movups	%xmm0, 472(%rbp)
	jmp	.L698
	.p2align 4,,10
	.p2align 3
.L708:
	leaq	2(%rcx), %r14
	leaq	(%r14,%r14), %rax
	cmpq	%rax, %rdx
	ja	.L709
	testq	%rdx, %rdx
	movl	$1, %eax
	cmovne	%rdx, %rax
	leaq	2(%rdx,%rax), %r13
	movabsq	$1152921504606846975, %rax
	cmpq	%rax, %r13
	ja	.L710
	leaq	0(,%r13,8), %rdi
	call	_Znwm@PLT
	movq	448(%rbp), %rsi
	movq	%rax, %r15
	movq	%r13, %rax
	subq	%r14, %rax
	shrq	%rax
	leaq	(%r15,%rax,8), %r14
	movq	480(%rbp), %rax
	leaq	8(%rax), %rdx
	cmpq	%rsi, %rdx
	je	.L705
	subq	%rsi, %rdx
	movq	%r14, %rdi
	call	memmove@PLT
.L705:
	movq	408(%rbp), %rdi
	call	_ZdlPv@PLT
	movq	%r15, 408(%rbp)
	movq	%r13, 416(%rbp)
.L703:
	movq	(%r14), %rax
	movq	(%r14), %xmm0
	leaq	(%r14,%r12), %r13
	movq	%r14, 448(%rbp)
	movq	%r13, 480(%rbp)
	addq	$510, %rax
	movq	%rax, %xmm2
	punpcklqdq	%xmm2, %xmm0
	movups	%xmm0, 432(%rbp)
	movq	0(%r13), %rax
	movq	%rax, 464(%rbp)
	addq	$510, %rax
	movq	%rax, 472(%rbp)
	jmp	.L700
	.p2align 4,,10
	.p2align 3
.L709:
	subq	%r14, %rdx
	addq	$8, %r13
	shrq	%rdx
	leaq	(%rdi,%rdx,8), %r14
	movq	%r13, %rdx
	subq	%rsi, %rdx
	cmpq	%r14, %rsi
	jbe	.L702
	cmpq	%r13, %rsi
	je	.L703
	movq	%r14, %rdi
	call	memmove@PLT
	jmp	.L703
	.p2align 4,,10
	.p2align 3
.L702:
	cmpq	%r13, %rsi
	je	.L703
	leaq	8(%r12), %rdi
	subq	%rdx, %rdi
	addq	%r14, %rdi
	call	memmove@PLT
	jmp	.L703
.L707:
	leaq	.LC3(%rip), %rdi
	call	_ZSt20__throw_length_errorPKc@PLT
.L710:
	call	_ZSt17__throw_bad_allocv@PLT
	.cfi_endproc
.LFE3412:
	.size	_ZN8opendnp38MContext12QueueConfirmERKNS_10APDUHeaderE, .-_ZN8opendnp38MContext12QueueConfirmERKNS_10APDUHeaderE
	.section	.rodata.str1.8
	.align 8
.LC4:
	.string	"Ignoring unsolicited response without UNS bit set"
	.align 8
.LC5:
	.string	"/home/kimchaer/Desktop/OpenPLC_v3/utils/dnp3_src/cpp/libs/src/opendnp3/master/MasterContext.cpp(266)"
	.text
	.align 2
	.p2align 4
	.globl	_ZN8opendnp38MContext26ProcessUnsolicitedResponseERKNS_18APDUResponseHeaderERKN7openpal6RSliceE
	.type	_ZN8opendnp38MContext26ProcessUnsolicitedResponseERKNS_18APDUResponseHeaderERKN7openpal6RSliceE, @function
_ZN8opendnp38MContext26ProcessUnsolicitedResponseERKNS_18APDUResponseHeaderERKN7openpal6RSliceE:
.LFB3410:
	.cfi_startproc
	endbr64
	pushq	%r12
	.cfi_def_cfa_offset 16
	.cfi_offset 12, -16
	movq	%rdi, %r12
	pushq	%rbp
	.cfi_def_cfa_offset 24
	.cfi_offset 6, -24
	leaq	24(%rdi), %rbp
	pushq	%rbx
	.cfi_def_cfa_offset 32
	.cfi_offset 3, -32
	subq	$16, %rsp
	.cfi_def_cfa_offset 48
	movq	%fs:40, %rax
	movq	%rax, 8(%rsp)
	xorl	%eax, %eax
	cmpb	$0, 4(%rsi)
	je	.L720
	movq	%rdx, %rdi
	movq	128(%r12), %rdx
	movq	%rsi, %rbx
	movq	%rbp, %rsi
	call	_ZN8opendnp318MeasurementHandler19ProcessMeasurementsERKN7openpal6RSliceERNS1_6LoggerEPNS_11ISOEHandlerE@PLT
	testb	%al, %al
	je	.L721
.L714:
	leaq	6(%rbx), %rsi
	movq	%r12, %rdi
	call	_ZN8opendnp38MContext10ProcessIINERKNS_8IINFieldE@PLT
.L711:
	movq	8(%rsp), %rax
	xorq	%fs:40, %rax
	jne	.L722
	addq	$16, %rsp
	.cfi_remember_state
	.cfi_def_cfa_offset 32
	popq	%rbx
	.cfi_def_cfa_offset 24
	popq	%rbp
	.cfi_def_cfa_offset 16
	popq	%r12
	.cfi_def_cfa_offset 8
	ret
	.p2align 4,,10
	.p2align 3
.L721:
	.cfi_restore_state
	cmpb	$0, 3(%rbx)
	je	.L714
	movzbl	5(%rbx), %edi
	call	_ZN8opendnp310APDUHeader18UnsolicitedConfirmEh@PLT
	movq	%rsp, %rsi
	movq	%r12, %rdi
	movzbl	%ah, %edx
	movb	%al, (%rsp)
	movb	%dl, 1(%rsp)
	movq	%rax, %rdx
	shrq	$16, %rdx
	movb	%dl, 2(%rsp)
	movq	%rax, %rdx
	shrq	$24, %rdx
	movb	%dl, 3(%rsp)
	movq	%rax, %rdx
	shrq	$40, %rax
	shrq	$32, %rdx
	movb	%al, 5(%rsp)
	movb	%dl, 4(%rsp)
	call	_ZN8opendnp38MContext12QueueConfirmERKNS_10APDUHeaderE@PLT
	jmp	.L714
	.p2align 4,,10
	.p2align 3
.L720:
	movq	%rsp, %r12
	movq	%rbp, %rdi
	movl	$4, (%rsp)
	movq	%r12, %rsi
	call	_ZNK7openpal6Logger9IsEnabledERKNS_10LogFiltersE@PLT
	testb	%al, %al
	je	.L711
	leaq	.LC4(%rip), %rcx
	leaq	.LC5(%rip), %rdx
	movq	%r12, %rsi
	movq	%rbp, %rdi
	movl	$4, (%rsp)
	call	_ZN7openpal6Logger3LogERKNS_10LogFiltersEPKcS5_@PLT
	jmp	.L711
.L722:
	call	__stack_chk_fail@PLT
	.cfi_endproc
.LFE3410:
	.size	_ZN8opendnp38MContext26ProcessUnsolicitedResponseERKNS_18APDUResponseHeaderERKN7openpal6RSliceE, .-_ZN8opendnp38MContext26ProcessUnsolicitedResponseERKNS_18APDUResponseHeaderERKN7openpal6RSliceE
	.section	.text.unlikely
	.align 2
.LCOLDB6:
	.text
.LHOTB6:
	.align 2
	.p2align 4
	.globl	_ZN8opendnp38MContext18StartResponseTimerEv
	.type	_ZN8opendnp38MContext18StartResponseTimerEv, @function
_ZN8opendnp38MContext18StartResponseTimerEv:
.LFB3415:
	.cfi_startproc
	.cfi_personality 0x9b,DW.ref.__gxx_personality_v0
	.cfi_lsda 0x1b,.LLSDA3415
	endbr64
	pushq	%r12
	.cfi_def_cfa_offset 16
	.cfi_offset 12, -16
	leaq	_ZNSt14_Function_base13_Base_managerIZN7openpal8TimerRef5StartIZN8opendnp38MContext18StartResponseTimerEvEUlvE_EEbRKNS1_12TimeDurationERKT_EUlvE_E10_M_managerERSt9_Any_dataRKSF_St18_Manager_operation(%rip), %rcx
	leaq	192(%rdi), %r8
	pushq	%rbp
	.cfi_def_cfa_offset 24
	.cfi_offset 6, -24
	movq	%rcx, %xmm0
	leaq	88(%rdi), %rsi
	subq	$56, %rsp
	.cfi_def_cfa_offset 80
	movq	%fs:40, %rax
	movq	%rax, 40(%rsp)
	xorl	%eax, %eax
	leaq	_ZNSt17_Function_handlerIFvvEZN7openpal8TimerRef5StartIZN8opendnp38MContext18StartResponseTimerEvEUlvE_EEbRKNS1_12TimeDurationERKT_EUlvE_E9_M_invokeERKSt9_Any_data(%rip), %rax
	movq	%rsp, %rbp
	movq	%r8, (%rsp)
	movq	%rax, %xmm1
	movq	%rdi, 8(%rsp)
	movq	%rbp, %rdx
	movq	%r8, %rdi
	punpcklqdq	%xmm1, %xmm0
	movaps	%xmm0, 16(%rsp)
.LEHB7:
	call	_ZN7openpal8TimerRef11StartActionERKNS_12TimeDurationERKSt8functionIFvvEE@PLT
.LEHE7:
	movq	16(%rsp), %rax
	testq	%rax, %rax
	je	.L723
	movl	$3, %edx
	movq	%rbp, %rsi
	movq	%rbp, %rdi
	call	*%rax
.L723:
	movq	40(%rsp), %rax
	xorq	%fs:40, %rax
	jne	.L736
	addq	$56, %rsp
	.cfi_remember_state
	.cfi_def_cfa_offset 24
	popq	%rbp
	.cfi_def_cfa_offset 16
	popq	%r12
	.cfi_def_cfa_offset 8
	ret
.L736:
	.cfi_restore_state
	call	__stack_chk_fail@PLT
.L728:
	endbr64
	movq	%rax, %r12
	jmp	.L725
	.section	.gcc_except_table
.LLSDA3415:
	.byte	0xff
	.byte	0xff
	.byte	0x1
	.uleb128 .LLSDACSE3415-.LLSDACSB3415
.LLSDACSB3415:
	.uleb128 .LEHB7-.LFB3415
	.uleb128 .LEHE7-.LEHB7
	.uleb128 .L728-.LFB3415
	.uleb128 0
.LLSDACSE3415:
	.text
	.cfi_endproc
	.section	.text.unlikely
	.cfi_startproc
	.cfi_personality 0x9b,DW.ref.__gxx_personality_v0
	.cfi_lsda 0x1b,.LLSDAC3415
	.type	_ZN8opendnp38MContext18StartResponseTimerEv.cold, @function
_ZN8opendnp38MContext18StartResponseTimerEv.cold:
.LFSB3415:
.L725:
	.cfi_def_cfa_offset 80
	.cfi_offset 6, -24
	.cfi_offset 12, -16
	movq	16(%rsp), %rax
	testq	%rax, %rax
	je	.L726
	movl	$3, %edx
	movq	%rbp, %rsi
	movq	%rbp, %rdi
	call	*%rax
.L726:
	movq	%r12, %rdi
.LEHB8:
	call	_Unwind_Resume@PLT
.LEHE8:
	.cfi_endproc
.LFE3415:
	.section	.gcc_except_table
.LLSDAC3415:
	.byte	0xff
	.byte	0xff
	.byte	0x1
	.uleb128 .LLSDACSEC3415-.LLSDACSBC3415
.LLSDACSBC3415:
	.uleb128 .LEHB8-.LCOLDB6
	.uleb128 .LEHE8-.LEHB8
	.uleb128 0
	.uleb128 0
.LLSDACSEC3415:
	.section	.text.unlikely
	.text
	.size	_ZN8opendnp38MContext18StartResponseTimerEv, .-_ZN8opendnp38MContext18StartResponseTimerEv
	.section	.text.unlikely
	.size	_ZN8opendnp38MContext18StartResponseTimerEv.cold, .-_ZN8opendnp38MContext18StartResponseTimerEv.cold
.LCOLDE6:
	.text
.LHOTE6:
	.section	.text.unlikely
	.align 2
.LCOLDB7:
	.text
.LHOTB7:
	.align 2
	.p2align 4
	.globl	_ZN8opendnp38MContext16PostCheckForTaskEv
	.type	_ZN8opendnp38MContext16PostCheckForTaskEv, @function
_ZN8opendnp38MContext16PostCheckForTaskEv:
.LFB3417:
	.cfi_startproc
	.cfi_personality 0x9b,DW.ref.__gxx_personality_v0
	.cfi_lsda 0x1b,.LLSDA3417
	endbr64
	pushq	%r12
	.cfi_def_cfa_offset 16
	.cfi_offset 12, -16
	leaq	_ZNSt17_Function_handlerIFvvEZN8opendnp38MContext16PostCheckForTaskEvEUlvE_E9_M_invokeERKSt9_Any_data(%rip), %rdx
	leaq	_ZNSt14_Function_base13_Base_managerIZN8opendnp38MContext16PostCheckForTaskEvEUlvE_E10_M_managerERSt9_Any_dataRKS5_St18_Manager_operation(%rip), %rcx
	pushq	%rbp
	.cfi_def_cfa_offset 24
	.cfi_offset 6, -24
	movq	%rcx, %xmm0
	movq	%rdx, %xmm1
	punpcklqdq	%xmm1, %xmm0
	subq	$56, %rsp
	.cfi_def_cfa_offset 80
	movq	56(%rdi), %r8
	movq	%fs:40, %rax
	movq	%rax, 40(%rsp)
	xorl	%eax, %eax
	movq	%rsp, %rbp
	movq	(%r8), %rax
	movq	%rbp, %rsi
	movq	%rdi, (%rsp)
	movq	%r8, %rdi
	movaps	%xmm0, 16(%rsp)
.LEHB9:
	call	*40(%rax)
.LEHE9:
	movq	16(%rsp), %rax
	testq	%rax, %rax
	je	.L737
	movl	$3, %edx
	movq	%rbp, %rsi
	movq	%rbp, %rdi
	call	*%rax
.L737:
	movq	40(%rsp), %rax
	xorq	%fs:40, %rax
	jne	.L750
	addq	$56, %rsp
	.cfi_remember_state
	.cfi_def_cfa_offset 24
	popq	%rbp
	.cfi_def_cfa_offset 16
	popq	%r12
	.cfi_def_cfa_offset 8
	ret
.L750:
	.cfi_restore_state
	call	__stack_chk_fail@PLT
.L742:
	endbr64
	movq	%rax, %r12
	jmp	.L739
	.section	.gcc_except_table
.LLSDA3417:
	.byte	0xff
	.byte	0xff
	.byte	0x1
	.uleb128 .LLSDACSE3417-.LLSDACSB3417
.LLSDACSB3417:
	.uleb128 .LEHB9-.LFB3417
	.uleb128 .LEHE9-.LEHB9
	.uleb128 .L742-.LFB3417
	.uleb128 0
.LLSDACSE3417:
	.text
	.cfi_endproc
	.section	.text.unlikely
	.cfi_startproc
	.cfi_personality 0x9b,DW.ref.__gxx_personality_v0
	.cfi_lsda 0x1b,.LLSDAC3417
	.type	_ZN8opendnp38MContext16PostCheckForTaskEv.cold, @function
_ZN8opendnp38MContext16PostCheckForTaskEv.cold:
.LFSB3417:
.L739:
	.cfi_def_cfa_offset 80
	.cfi_offset 6, -24
	.cfi_offset 12, -16
	movq	16(%rsp), %rax
	testq	%rax, %rax
	je	.L740
	movl	$3, %edx
	movq	%rbp, %rsi
	movq	%rbp, %rdi
	call	*%rax
.L740:
	movq	%r12, %rdi
.LEHB10:
	call	_Unwind_Resume@PLT
.LEHE10:
	.cfi_endproc
.LFE3417:
	.section	.gcc_except_table
.LLSDAC3417:
	.byte	0xff
	.byte	0xff
	.byte	0x1
	.uleb128 .LLSDACSEC3417-.LLSDACSBC3417
.LLSDACSBC3417:
	.uleb128 .LEHB10-.LCOLDB7
	.uleb128 .LEHE10-.LEHB10
	.uleb128 0
	.uleb128 0
.LLSDACSEC3417:
	.section	.text.unlikely
	.text
	.size	_ZN8opendnp38MContext16PostCheckForTaskEv, .-_ZN8opendnp38MContext16PostCheckForTaskEv
	.section	.text.unlikely
	.size	_ZN8opendnp38MContext16PostCheckForTaskEv.cold, .-_ZN8opendnp38MContext16PostCheckForTaskEv.cold
.LCOLDE7:
	.text
.LHOTE7:
	.section	.text._ZN8opendnp38MContext13OnPendingTaskEv,"axG",@progbits,_ZN8opendnp38MContext13OnPendingTaskEv,comdat
	.align 2
	.p2align 4
	.weak	_ZN8opendnp38MContext13OnPendingTaskEv
	.type	_ZN8opendnp38MContext13OnPendingTaskEv, @function
_ZN8opendnp38MContext13OnPendingTaskEv:
.LFB3105:
	.cfi_startproc
	endbr64
	jmp	_ZN8opendnp38MContext16PostCheckForTaskEv@PLT
	.cfi_endproc
.LFE3105:
	.size	_ZN8opendnp38MContext13OnPendingTaskEv, .-_ZN8opendnp38MContext13OnPendingTaskEv
	.text
	.align 2
	.p2align 4
	.globl	_ZN8opendnp38MContext14OnLowerLayerUpEv
	.type	_ZN8opendnp38MContext14OnLowerLayerUpEv, @function
_ZN8opendnp38MContext14OnLowerLayerUpEv:
.LFB3397:
	.cfi_startproc
	endbr64
	xorl	%eax, %eax
	cmpb	$0, 168(%rdi)
	je	.L760
	ret
	.p2align 4,,10
	.p2align 3
.L760:
	pushq	%rbx
	.cfi_def_cfa_offset 16
	.cfi_offset 3, -16
	leaq	376(%rdi), %rsi
	movq	%rdi, %rbx
	leaq	240(%rdi), %rdi
	subq	$16, %rsp
	.cfi_def_cfa_offset 32
	movb	$1, -72(%rdi)
	call	_ZN8opendnp311MasterTasks10InitializeERNS_15MasterSchedulerE@PLT
	movq	%rbx, %rdi
	call	_ZN8opendnp38MContext16PostCheckForTaskEv@PLT
	movq	144(%rbx), %rdi
	movq	(%rdi), %rax
	movq	72(%rax), %rdx
	cmpq	_ZN8opendnp318IMasterApplication6OnOpenEv@GOTPCREL(%rip), %rdx
	movl	$1, %eax
	jne	.L761
.L752:
	addq	$16, %rsp
	.cfi_remember_state
	.cfi_def_cfa_offset 16
	popq	%rbx
	.cfi_def_cfa_offset 8
	ret
	.p2align 4,,10
	.p2align 3
.L761:
	.cfi_restore_state
	movb	%al, 15(%rsp)
	call	*%rdx
	movzbl	15(%rsp), %eax
	jmp	.L752
	.cfi_endproc
.LFE3397:
	.size	_ZN8opendnp38MContext14OnLowerLayerUpEv, .-_ZN8opendnp38MContext14OnLowerLayerUpEv
	.align 2
	.p2align 4
	.globl	_ZN8opendnp38MContext18CompleteActiveTaskEv
	.type	_ZN8opendnp38MContext18CompleteActiveTaskEv, @function
_ZN8opendnp38MContext18CompleteActiveTaskEv:
.LFB3403:
	.cfi_startproc
	endbr64
	pushq	%r12
	.cfi_def_cfa_offset 16
	.cfi_offset 12, -16
	pushq	%rbp
	.cfi_def_cfa_offset 24
	.cfi_offset 6, -24
	movq	%rdi, %rbp
	pushq	%rbx
	.cfi_def_cfa_offset 32
	.cfi_offset 3, -32
	movq	176(%rdi), %rdi
	testq	%rdi, %rdi
	je	.L762
	movq	(%rdi), %rax
	call	*48(%rax)
	testb	%al, %al
	jne	.L774
	movq	184(%rbp), %r12
	pxor	%xmm0, %xmm0
	movups	%xmm0, 176(%rbp)
	testq	%r12, %r12
	je	.L765
	movq	_ZL28__gthrw___pthread_key_createPjPFvPvE@GOTPCREL(%rip), %rbx
	testq	%rbx, %rbx
	je	.L767
	movl	$-1, %eax
	lock xaddl	%eax, 8(%r12)
.L768:
	cmpl	$1, %eax
	jne	.L765
	movq	(%r12), %rax
	movq	%r12, %rdi
	call	*16(%rax)
	testq	%rbx, %rbx
	je	.L770
	movl	$-1, %eax
	lock xaddl	%eax, 12(%r12)
.L771:
	cmpl	$1, %eax
	jne	.L765
	movq	(%r12), %rax
	movq	%r12, %rdi
	call	*24(%rax)
	jmp	.L765
	.p2align 4,,10
	.p2align 3
.L774:
	leaq	176(%rbp), %rsi
	leaq	376(%rbp), %rdi
	call	_ZN8opendnp315MasterScheduler8ScheduleERKSt10shared_ptrINS_11IMasterTaskEE@PLT
.L765:
	movq	160(%rbp), %rdi
	movq	(%rdi), %rax
	movq	8(%rax), %rax
	cmpq	_ZN8opendnp312NullTaskLock7ReleaseERNS_17IScheduleCallbackE@GOTPCREL(%rip), %rax
	jne	.L775
	popq	%rbx
	.cfi_remember_state
	.cfi_def_cfa_offset 24
	movq	%rbp, %rdi
	popq	%rbp
	.cfi_def_cfa_offset 16
	popq	%r12
	.cfi_def_cfa_offset 8
	jmp	_ZN8opendnp38MContext16PostCheckForTaskEv@PLT
	.p2align 4,,10
	.p2align 3
.L762:
	.cfi_restore_state
	popq	%rbx
	.cfi_remember_state
	.cfi_def_cfa_offset 24
	popq	%rbp
	.cfi_def_cfa_offset 16
	popq	%r12
	.cfi_def_cfa_offset 8
	ret
	.p2align 4,,10
	.p2align 3
.L767:
	.cfi_restore_state
	movl	8(%r12), %eax
	leal	-1(%rax), %edx
	movl	%edx, 8(%r12)
	jmp	.L768
	.p2align 4,,10
	.p2align 3
.L775:
	leaq	8(%rbp), %rsi
	call	*%rax
	popq	%rbx
	.cfi_remember_state
	.cfi_def_cfa_offset 24
	movq	%rbp, %rdi
	popq	%rbp
	.cfi_def_cfa_offset 16
	popq	%r12
	.cfi_def_cfa_offset 8
	jmp	_ZN8opendnp38MContext16PostCheckForTaskEv@PLT
	.p2align 4,,10
	.p2align 3
.L770:
	.cfi_restore_state
	movl	12(%r12), %eax
	leal	-1(%rax), %edx
	movl	%edx, 12(%r12)
	jmp	.L771
	.cfi_endproc
.LFE3403:
	.size	_ZN8opendnp38MContext18CompleteActiveTaskEv, .-_ZN8opendnp38MContext18CompleteActiveTaskEv
	.section	.text._ZN8opendnp38MContext13OnPendingTaskEv,"axG",@progbits,_ZN8opendnp38MContext13OnPendingTaskEv,comdat
	.p2align 4
	.weak	_ZThn8_N8opendnp38MContext13OnPendingTaskEv
	.type	_ZThn8_N8opendnp38MContext13OnPendingTaskEv, @function
_ZThn8_N8opendnp38MContext13OnPendingTaskEv:
.LFB5212:
	.cfi_startproc
	endbr64
	subq	$8, %rdi
	jmp	_ZN8opendnp38MContext16PostCheckForTaskEv@PLT
	.cfi_endproc
.LFE5212:
	.size	_ZThn8_N8opendnp38MContext13OnPendingTaskEv, .-_ZThn8_N8opendnp38MContext13OnPendingTaskEv
	.text
	.align 2
	.p2align 4
	.globl	_ZN8opendnp38MContext25ScheduleRecurringPollTaskERKSt10shared_ptrINS_11IMasterTaskEE
	.type	_ZN8opendnp38MContext25ScheduleRecurringPollTaskERKSt10shared_ptrINS_11IMasterTaskEE, @function
_ZN8opendnp38MContext25ScheduleRecurringPollTaskERKSt10shared_ptrINS_11IMasterTaskEE:
.LFB3463:
	.cfi_startproc
	endbr64
	pushq	%r12
	.cfi_def_cfa_offset 16
	.cfi_offset 12, -16
	movq	%rsi, %r12
	pushq	%rbp
	.cfi_def_cfa_offset 24
	.cfi_offset 6, -24
	movq	%rdi, %rbp
	addq	$240, %rdi
	subq	$8, %rsp
	.cfi_def_cfa_offset 32
	call	_ZN8opendnp311MasterTasks8BindTaskERKSt10shared_ptrINS_11IMasterTaskEE@PLT
	cmpb	$0, 168(%rbp)
	jne	.L780
	addq	$8, %rsp
	.cfi_remember_state
	.cfi_def_cfa_offset 24
	popq	%rbp
	.cfi_def_cfa_offset 16
	popq	%r12
	.cfi_def_cfa_offset 8
	ret
	.p2align 4,,10
	.p2align 3
.L780:
	.cfi_restore_state
	leaq	376(%rbp), %rdi
	movq	%r12, %rsi
	call	_ZN8opendnp315MasterScheduler8ScheduleERKSt10shared_ptrINS_11IMasterTaskEE@PLT
	addq	$8, %rsp
	.cfi_def_cfa_offset 24
	movq	%rbp, %rdi
	popq	%rbp
	.cfi_def_cfa_offset 16
	popq	%r12
	.cfi_def_cfa_offset 8
	jmp	_ZN8opendnp38MContext16PostCheckForTaskEv@PLT
	.cfi_endproc
.LFE3463:
	.size	_ZN8opendnp38MContext25ScheduleRecurringPollTaskERKSt10shared_ptrINS_11IMasterTaskEE, .-_ZN8opendnp38MContext25ScheduleRecurringPollTaskERKSt10shared_ptrINS_11IMasterTaskEE
	.align 2
	.p2align 4
	.globl	_ZN8opendnp38MContext16ResumeActiveTaskEv
	.type	_ZN8opendnp38MContext16ResumeActiveTaskEv, @function
_ZN8opendnp38MContext16ResumeActiveTaskEv:
.LFB3469:
	.cfi_startproc
	endbr64
	pushq	%r13
	.cfi_def_cfa_offset 16
	.cfi_offset 13, -16
	pushq	%r12
	.cfi_def_cfa_offset 24
	.cfi_offset 12, -24
	pushq	%rbp
	.cfi_def_cfa_offset 32
	.cfi_offset 6, -32
	movq	%rdi, %rbp
	subq	$64, %rsp
	.cfi_def_cfa_offset 96
	movq	160(%rdi), %rdi
	movq	%fs:40, %rax
	movq	%rax, 56(%rsp)
	xorl	%eax, %eax
	movq	(%rdi), %rax
	movq	(%rax), %rax
	cmpq	_ZN8opendnp312NullTaskLock7AcquireERNS_17IScheduleCallbackE@GOTPCREL(%rip), %rax
	jne	.L782
.L785:
	leaq	488(%rbp), %rdi
	leaq	16(%rsp), %r12
	movq	%rsp, %r13
	call	_ZN7openpal6Buffer9GetWSliceEv@PLT
	movq	%r13, %rsi
	movq	%r12, %rdi
	movl	%eax, (%rsp)
	movq	%rdx, 8(%rsp)
	call	_ZN8opendnp311APDURequestC1ERKN7openpal6WSliceE@PLT
	movq	176(%rbp), %rdi
	movzbl	170(%rbp), %edx
	movq	%r12, %rsi
	movq	(%rdi), %rax
	call	*56(%rax)
	testb	%al, %al
	jne	.L792
	movq	56(%rbp), %rdi
	movq	176(%rbp), %r12
	movq	(%rdi), %rax
	call	*16(%rax)
	movq	%r12, %rdi
	movq	%rax, %rsi
	call	_ZN8opendnp311IMasterTask15OnInternalErrorEN7openpal18MonotonicTimestampE@PLT
	movq	%rbp, %rdi
	call	_ZN8opendnp38MContext18CompleteActiveTaskEv@PLT
	xorl	%eax, %eax
.L781:
	movq	56(%rsp), %rcx
	xorq	%fs:40, %rcx
	jne	.L793
	addq	$64, %rsp
	.cfi_remember_state
	.cfi_def_cfa_offset 32
	popq	%rbp
	.cfi_def_cfa_offset 24
	popq	%r12
	.cfi_def_cfa_offset 16
	popq	%r13
	.cfi_def_cfa_offset 8
	ret
	.p2align 4,,10
	.p2align 3
.L782:
	.cfi_restore_state
	leaq	8(%rbp), %rsi
	call	*%rax
	testb	%al, %al
	jne	.L785
	movl	$1, %eax
	jmp	.L781
	.p2align 4,,10
	.p2align 3
.L792:
	movq	%rbp, %rdi
	call	_ZN8opendnp38MContext18StartResponseTimerEv@PLT
	movq	%r12, %rdi
	call	_ZNK8opendnp311APDUWrapper8ToRSliceEv@PLT
	movl	%eax, (%rsp)
	movq	0(%rbp), %rax
	movq	%rdx, 8(%rsp)
	movq	56(%rax), %rax
	cmpq	_ZN8opendnp38MContext17RecordLastRequestERKN7openpal6RSliceE@GOTPCREL(%rip), %rax
	jne	.L794
.L788:
	movq	%r13, %rsi
	movq	%rbp, %rdi
	call	_ZN8opendnp38MContext8TransmitERKN7openpal6RSliceE@PLT
	movl	$2, %eax
	jmp	.L781
	.p2align 4,,10
	.p2align 3
.L794:
	movq	%r13, %rsi
	movq	%rbp, %rdi
	call	*%rax
	jmp	.L788
.L793:
	call	__stack_chk_fail@PLT
	.cfi_endproc
.LFE3469:
	.size	_ZN8opendnp38MContext16ResumeActiveTaskEv, .-_ZN8opendnp38MContext16ResumeActiveTaskEv
	.section	.rodata.str1.1,"aMS",@progbits,1
.LC8:
	.string	"Begining task: %s"
	.section	.rodata.str1.8
	.align 8
.LC9:
	.string	"/home/kimchaer/Desktop/OpenPLC_v3/utils/dnp3_src/cpp/libs/src/opendnp3/master/MasterContext.cpp(477)"
	.text
	.align 2
	.p2align 4
	.globl	_ZN8opendnp38MContext12BeginNewTaskERKSt10shared_ptrINS_11IMasterTaskEE
	.type	_ZN8opendnp38MContext12BeginNewTaskERKSt10shared_ptrINS_11IMasterTaskEE, @function
_ZN8opendnp38MContext12BeginNewTaskERKSt10shared_ptrINS_11IMasterTaskEE:
.LFB3466:
	.cfi_startproc
	endbr64
	pushq	%r14
	.cfi_def_cfa_offset 16
	.cfi_offset 14, -16
	pushq	%r13
	.cfi_def_cfa_offset 24
	.cfi_offset 13, -24
	pushq	%r12
	.cfi_def_cfa_offset 32
	.cfi_offset 12, -32
	pushq	%rbp
	.cfi_def_cfa_offset 40
	.cfi_offset 6, -40
	movq	%rdi, %rbp
	pushq	%rbx
	.cfi_def_cfa_offset 48
	.cfi_offset 3, -48
	subq	$144, %rsp
	.cfi_def_cfa_offset 192
	movq	(%rsi), %rdi
	movq	8(%rsi), %rbx
	movq	%fs:40, %rax
	movq	%rax, 136(%rsp)
	xorl	%eax, %eax
	movq	184(%rbp), %r12
	movq	%rdi, 176(%rbp)
	cmpq	%r12, %rbx
	je	.L796
	testq	%rbx, %rbx
	je	.L797
	cmpq	$0, _ZL28__gthrw___pthread_key_createPjPFvPvE@GOTPCREL(%rip)
	je	.L798
	lock addl	$1, 8(%rbx)
	movq	184(%rbp), %r12
.L797:
	testq	%r12, %r12
	je	.L800
.L817:
	movq	_ZL28__gthrw___pthread_key_createPjPFvPvE@GOTPCREL(%rip), %r13
	testq	%r13, %r13
	je	.L801
	movl	$-1, %eax
	lock xaddl	%eax, 8(%r12)
.L802:
	cmpl	$1, %eax
	je	.L815
.L800:
	movq	%rbx, 184(%rbp)
	movq	176(%rbp), %rdi
.L796:
	call	_ZN8opendnp311IMasterTask7OnStartEv@PLT
	leaq	24(%rbp), %r12
	leaq	12(%rsp), %r13
	movl	$8, 12(%rsp)
	movq	%r13, %rsi
	movq	%r12, %rdi
	call	_ZNK7openpal6Logger9IsEnabledERKNS_10LogFiltersE@PLT
	testb	%al, %al
	je	.L806
	movq	176(%rbp), %rdi
	leaq	16(%rsp), %r14
	movq	(%rdi), %rax
	call	*24(%rax)
	movl	$120, %ecx
	movl	$1, %edx
	movq	%r14, %rdi
	movq	%rax, %r9
	movl	$120, %esi
	leaq	.LC8(%rip), %r8
	xorl	%eax, %eax
	call	__snprintf_chk@PLT
	movq	%r14, %rcx
	movq	%r13, %rsi
	movq	%r12, %rdi
	leaq	.LC9(%rip), %rdx
	movl	$8, 12(%rsp)
	call	_ZN7openpal6Logger3LogERKNS_10LogFiltersEPKcS5_@PLT
.L806:
	movq	%rbp, %rdi
	call	_ZN8opendnp38MContext16ResumeActiveTaskEv@PLT
	movq	136(%rsp), %rcx
	xorq	%fs:40, %rcx
	jne	.L816
	addq	$144, %rsp
	.cfi_remember_state
	.cfi_def_cfa_offset 48
	popq	%rbx
	.cfi_def_cfa_offset 40
	popq	%rbp
	.cfi_def_cfa_offset 32
	popq	%r12
	.cfi_def_cfa_offset 24
	popq	%r13
	.cfi_def_cfa_offset 16
	popq	%r14
	.cfi_def_cfa_offset 8
	ret
	.p2align 4,,10
	.p2align 3
.L798:
	.cfi_restore_state
	addl	$1, 8(%rbx)
	testq	%r12, %r12
	jne	.L817
	jmp	.L800
	.p2align 4,,10
	.p2align 3
.L815:
	movq	(%r12), %rax
	movq	%r12, %rdi
	call	*16(%rax)
	testq	%r13, %r13
	je	.L804
	movl	$-1, %eax
	lock xaddl	%eax, 12(%r12)
.L805:
	cmpl	$1, %eax
	jne	.L800
	movq	(%r12), %rax
	movq	%r12, %rdi
	call	*24(%rax)
	jmp	.L800
	.p2align 4,,10
	.p2align 3
.L801:
	movl	8(%r12), %eax
	leal	-1(%rax), %edx
	movl	%edx, 8(%r12)
	jmp	.L802
	.p2align 4,,10
	.p2align 3
.L804:
	movl	12(%r12), %eax
	leal	-1(%rax), %edx
	movl	%edx, 12(%r12)
	jmp	.L805
.L816:
	call	__stack_chk_fail@PLT
	.cfi_endproc
.LFE3466:
	.size	_ZN8opendnp38MContext12BeginNewTaskERKSt10shared_ptrINS_11IMasterTaskEE, .-_ZN8opendnp38MContext12BeginNewTaskERKSt10shared_ptrINS_11IMasterTaskEE
	.align 2
	.p2align 4
	.globl	_ZN8opendnp38MContext19StartTask_TaskReadyEv
	.type	_ZN8opendnp38MContext19StartTask_TaskReadyEv, @function
_ZN8opendnp38MContext19StartTask_TaskReadyEv:
.LFB3475:
	.cfi_startproc
	endbr64
	cmpb	$0, 169(%rdi)
	je	.L820
	movl	$1, %eax
	ret
	.p2align 4,,10
	.p2align 3
.L820:
	jmp	_ZN8opendnp38MContext16ResumeActiveTaskEv@PLT
	.cfi_endproc
.LFE3475:
	.size	_ZN8opendnp38MContext19StartTask_TaskReadyEv, .-_ZN8opendnp38MContext19StartTask_TaskReadyEv
	.section	.rodata.str1.8
	.align 8
.LC10:
	.string	"Response with bad sequence: %u"
	.align 8
.LC11:
	.string	"/home/kimchaer/Desktop/OpenPLC_v3/utils/dnp3_src/cpp/libs/src/opendnp3/master/MasterContext.cpp(589)"
	.text
	.align 2
	.p2align 4
	.globl	_ZN8opendnp38MContext26OnResponse_WaitForResponseERKNS_18APDUResponseHeaderERKN7openpal6RSliceE
	.type	_ZN8opendnp38MContext26OnResponse_WaitForResponseERKNS_18APDUResponseHeaderERKN7openpal6RSliceE, @function
_ZN8opendnp38MContext26OnResponse_WaitForResponseERKNS_18APDUResponseHeaderERKN7openpal6RSliceE:
.LFB3476:
	.cfi_startproc
	endbr64
	pushq	%r14
	.cfi_def_cfa_offset 16
	.cfi_offset 14, -16
	pushq	%r13
	.cfi_def_cfa_offset 24
	.cfi_offset 13, -24
	pushq	%r12
	.cfi_def_cfa_offset 32
	.cfi_offset 12, -32
	pushq	%rbp
	.cfi_def_cfa_offset 40
	.cfi_offset 6, -40
	movq	%rdi, %rbp
	pushq	%rbx
	.cfi_def_cfa_offset 48
	.cfi_offset 3, -48
	movq	%rsi, %rbx
	subq	$144, %rsp
	.cfi_def_cfa_offset 192
	movq	%fs:40, %rax
	movq	%rax, 136(%rsp)
	xorl	%eax, %eax
	movzbl	170(%rdi), %eax
	cmpb	%al, 5(%rsi)
	jne	.L832
	leaq	192(%rdi), %rdi
	movq	%rdx, %r12
	call	_ZN7openpal8TimerRef6CancelEv@PLT
	movzbl	170(%rbp), %eax
	movq	56(%rbp), %rdi
	addl	$1, %eax
	andl	$15, %eax
	movb	%al, 170(%rbp)
	movq	(%rdi), %rax
	call	*16(%rax)
	movq	176(%rbp), %rdi
	movq	%r12, %rdx
	movq	%rbx, %rsi
	movq	%rax, %rcx
	call	_ZN8opendnp311IMasterTask10OnResponseERKNS_18APDUResponseHeaderERKN7openpal6RSliceENS4_18MonotonicTimestampE@PLT
	cmpb	$0, 3(%rbx)
	movl	%eax, %r12d
	jne	.L833
	movq	%rbp, %rdi
	cmpb	$3, %r12b
	je	.L825
.L835:
	cmpb	$4, %r12b
	jne	.L826
	call	_ZN8opendnp38MContext18StartResponseTimerEv@PLT
	movl	$2, %r12d
.L821:
	movq	136(%rsp), %rax
	xorq	%fs:40, %rax
	jne	.L834
	addq	$144, %rsp
	.cfi_remember_state
	.cfi_def_cfa_offset 48
	movl	%r12d, %eax
	popq	%rbx
	.cfi_def_cfa_offset 40
	popq	%rbp
	.cfi_def_cfa_offset 32
	popq	%r12
	.cfi_def_cfa_offset 24
	popq	%r13
	.cfi_def_cfa_offset 16
	popq	%r14
	.cfi_def_cfa_offset 8
	ret
	.p2align 4,,10
	.p2align 3
.L826:
	.cfi_restore_state
	call	_ZN8opendnp38MContext18CompleteActiveTaskEv@PLT
	xorl	%r12d, %r12d
	jmp	.L821
	.p2align 4,,10
	.p2align 3
.L825:
	call	_ZN8opendnp38MContext19StartTask_TaskReadyEv@PLT
	movl	%eax, %r12d
	jmp	.L821
	.p2align 4,,10
	.p2align 3
.L833:
	movzbl	5(%rbx), %edi
	call	_ZN8opendnp310APDUHeader16SolicitedConfirmEh@PLT
	movq	%rbp, %rdi
	leaq	8(%rsp), %rsi
	movzbl	%ah, %edx
	movb	%al, 8(%rsp)
	movb	%dl, 9(%rsp)
	movq	%rax, %rdx
	shrq	$16, %rdx
	movb	%dl, 10(%rsp)
	movq	%rax, %rdx
	shrq	$24, %rdx
	movb	%dl, 11(%rsp)
	movq	%rax, %rdx
	shrq	$40, %rax
	shrq	$32, %rdx
	movb	%al, 13(%rsp)
	movb	%dl, 12(%rsp)
	call	_ZN8opendnp38MContext12QueueConfirmERKNS_10APDUHeaderE@PLT
	movq	%rbp, %rdi
	cmpb	$3, %r12b
	jne	.L835
	jmp	.L825
	.p2align 4,,10
	.p2align 3
.L832:
	addq	$24, %rbp
	leaq	8(%rsp), %r13
	movl	$4, 8(%rsp)
	movl	$2, %r12d
	movq	%r13, %rsi
	movq	%rbp, %rdi
	call	_ZNK7openpal6Logger9IsEnabledERKNS_10LogFiltersE@PLT
	testb	%al, %al
	je	.L821
	leaq	16(%rsp), %r14
	movzbl	5(%rbx), %r9d
	movl	$120, %ecx
	xorl	%eax, %eax
	movq	%r14, %rdi
	movl	$1, %edx
	movl	$120, %esi
	leaq	.LC10(%rip), %r8
	call	__snprintf_chk@PLT
	movq	%r14, %rcx
	movq	%r13, %rsi
	movq	%rbp, %rdi
	leaq	.LC11(%rip), %rdx
	movl	$4, 8(%rsp)
	call	_ZN7openpal6Logger3LogERKNS_10LogFiltersEPKcS5_@PLT
	jmp	.L821
.L834:
	call	__stack_chk_fail@PLT
	.cfi_endproc
.LFE3476:
	.size	_ZN8opendnp38MContext26OnResponse_WaitForResponseERKNS_18APDUResponseHeaderERKN7openpal6RSliceE, .-_ZN8opendnp38MContext26OnResponse_WaitForResponseERKNS_18APDUResponseHeaderERKN7openpal6RSliceE
	.section	.rodata.str1.8
	.align 8
.LC12:
	.string	"Not expecting a response, sequence: %u"
	.align 8
.LC13:
	.string	"/home/kimchaer/Desktop/OpenPLC_v3/utils/dnp3_src/cpp/libs/src/opendnp3/master/MasterContext.cpp(515)"
	.text
	.align 2
	.p2align 4
	.globl	_ZN8opendnp38MContext15OnResponseEventERKNS_18APDUResponseHeaderERKN7openpal6RSliceE
	.type	_ZN8opendnp38MContext15OnResponseEventERKNS_18APDUResponseHeaderERKN7openpal6RSliceE, @function
_ZN8opendnp38MContext15OnResponseEventERKNS_18APDUResponseHeaderERKN7openpal6RSliceE:
.LFB3470:
	.cfi_startproc
	endbr64
	pushq	%r15
	.cfi_def_cfa_offset 16
	.cfi_offset 15, -16
	pushq	%r14
	.cfi_def_cfa_offset 24
	.cfi_offset 14, -24
	pushq	%r13
	.cfi_def_cfa_offset 32
	.cfi_offset 13, -32
	pushq	%r12
	.cfi_def_cfa_offset 40
	.cfi_offset 12, -40
	movq	%rsi, %r12
	pushq	%rbp
	.cfi_def_cfa_offset 48
	.cfi_offset 6, -48
	movq	%rdi, %rbp
	subq	$144, %rsp
	.cfi_def_cfa_offset 192
	movq	%fs:40, %rax
	movq	%rax, 136(%rsp)
	xorl	%eax, %eax
	cmpl	$2, 512(%rdi)
	je	.L845
	leaq	24(%rdi), %r13
	leaq	12(%rsp), %r14
	movl	$4, 12(%rsp)
	movq	%r14, %rsi
	movq	%r13, %rdi
	call	_ZNK7openpal6Logger9IsEnabledERKNS_10LogFiltersE@PLT
	testb	%al, %al
	jne	.L846
.L839:
	movl	512(%rbp), %eax
.L836:
	movq	136(%rsp), %rcx
	xorq	%fs:40, %rcx
	jne	.L847
	addq	$144, %rsp
	.cfi_remember_state
	.cfi_def_cfa_offset 48
	popq	%rbp
	.cfi_def_cfa_offset 40
	popq	%r12
	.cfi_def_cfa_offset 32
	popq	%r13
	.cfi_def_cfa_offset 24
	popq	%r14
	.cfi_def_cfa_offset 16
	popq	%r15
	.cfi_def_cfa_offset 8
	ret
	.p2align 4,,10
	.p2align 3
.L846:
	.cfi_restore_state
	leaq	16(%rsp), %r15
	movzbl	5(%r12), %r9d
	movl	$120, %ecx
	xorl	%eax, %eax
	movq	%r15, %rdi
	movl	$1, %edx
	movl	$120, %esi
	leaq	.LC12(%rip), %r8
	call	__snprintf_chk@PLT
	movq	%r15, %rcx
	movq	%r14, %rsi
	movq	%r13, %rdi
	leaq	.LC13(%rip), %rdx
	movl	$4, 12(%rsp)
	call	_ZN7openpal6Logger3LogERKNS_10LogFiltersEPKcS5_@PLT
	jmp	.L839
	.p2align 4,,10
	.p2align 3
.L845:
	call	_ZN8opendnp38MContext26OnResponse_WaitForResponseERKNS_18APDUResponseHeaderERKN7openpal6RSliceE@PLT
	jmp	.L836
.L847:
	call	__stack_chk_fail@PLT
	.cfi_endproc
.LFE3470:
	.size	_ZN8opendnp38MContext15OnResponseEventERKNS_18APDUResponseHeaderERKN7openpal6RSliceE, .-_ZN8opendnp38MContext15OnResponseEventERKNS_18APDUResponseHeaderERKN7openpal6RSliceE
	.align 2
	.p2align 4
	.globl	_ZN8opendnp38MContext15ProcessResponseERKNS_18APDUResponseHeaderERKN7openpal6RSliceE
	.type	_ZN8opendnp38MContext15ProcessResponseERKNS_18APDUResponseHeaderERKN7openpal6RSliceE, @function
_ZN8opendnp38MContext15ProcessResponseERKNS_18APDUResponseHeaderERKN7openpal6RSliceE:
.LFB3411:
	.cfi_startproc
	endbr64
	pushq	%rbp
	.cfi_def_cfa_offset 16
	.cfi_offset 6, -16
	movq	%rdi, %rbp
	pushq	%rbx
	.cfi_def_cfa_offset 24
	.cfi_offset 3, -24
	movq	%rsi, %rbx
	subq	$8, %rsp
	.cfi_def_cfa_offset 32
	call	_ZN8opendnp38MContext15OnResponseEventERKNS_18APDUResponseHeaderERKN7openpal6RSliceE@PLT
	leaq	6(%rbx), %rsi
	movq	%rbp, %rdi
	movl	%eax, 512(%rbp)
	addq	$8, %rsp
	.cfi_def_cfa_offset 24
	popq	%rbx
	.cfi_def_cfa_offset 16
	popq	%rbp
	.cfi_def_cfa_offset 8
	jmp	_ZN8opendnp38MContext10ProcessIINERKNS_8IINFieldE@PLT
	.cfi_endproc
.LFE3411:
	.size	_ZN8opendnp38MContext15ProcessResponseERKNS_18APDUResponseHeaderERKN7openpal6RSliceE, .-_ZN8opendnp38MContext15ProcessResponseERKNS_18APDUResponseHeaderERKN7openpal6RSliceE
	.section	.rodata.str1.8
	.align 8
.LC14:
	.string	"Ignoring unsupported function code: %s"
	.align 8
.LC15:
	.string	"/home/kimchaer/Desktop/OpenPLC_v3/utils/dnp3_src/cpp/libs/src/opendnp3/master/MasterContext.cpp(220)"
	.text
	.align 2
	.p2align 4
	.globl	_ZN8opendnp38MContext11ProcessAPDUERKNS_18APDUResponseHeaderERKN7openpal6RSliceE
	.type	_ZN8opendnp38MContext11ProcessAPDUERKNS_18APDUResponseHeaderERKN7openpal6RSliceE, @function
_ZN8opendnp38MContext11ProcessAPDUERKNS_18APDUResponseHeaderERKN7openpal6RSliceE:
.LFB3408:
	.cfi_startproc
	endbr64
	pushq	%r14
	.cfi_def_cfa_offset 16
	.cfi_offset 14, -16
	pushq	%r13
	.cfi_def_cfa_offset 24
	.cfi_offset 13, -24
	pushq	%r12
	.cfi_def_cfa_offset 32
	.cfi_offset 12, -32
	pushq	%rbp
	.cfi_def_cfa_offset 40
	.cfi_offset 6, -40
	movq	%rsi, %rbp
	subq	$152, %rsp
	.cfi_def_cfa_offset 192
	movq	%fs:40, %rax
	movq	%rax, 136(%rsp)
	xorl	%eax, %eax
	movzbl	(%rsi), %eax
	cmpb	$-127, %al
	je	.L851
	cmpb	$-126, %al
	jne	.L852
	call	_ZN8opendnp38MContext26ProcessUnsolicitedResponseERKNS_18APDUResponseHeaderERKN7openpal6RSliceE@PLT
.L850:
	movq	136(%rsp), %rax
	xorq	%fs:40, %rax
	jne	.L859
	addq	$152, %rsp
	.cfi_remember_state
	.cfi_def_cfa_offset 40
	popq	%rbp
	.cfi_def_cfa_offset 32
	popq	%r12
	.cfi_def_cfa_offset 24
	popq	%r13
	.cfi_def_cfa_offset 16
	popq	%r14
	.cfi_def_cfa_offset 8
	ret
	.p2align 4,,10
	.p2align 3
.L851:
	.cfi_restore_state
	call	_ZN8opendnp38MContext15ProcessResponseERKNS_18APDUResponseHeaderERKN7openpal6RSliceE@PLT
	jmp	.L850
	.p2align 4,,10
	.p2align 3
.L852:
	leaq	24(%rdi), %r12
	leaq	12(%rsp), %r13
	movl	$4, 12(%rsp)
	movq	%r13, %rsi
	movq	%r12, %rdi
	call	_ZNK7openpal6Logger9IsEnabledERKNS_10LogFiltersE@PLT
	testb	%al, %al
	je	.L850
	movzbl	0(%rbp), %edi
	leaq	16(%rsp), %r14
	call	_ZN8opendnp320FunctionCodeToStringENS_12FunctionCodeE@PLT
	movq	%r14, %rdi
	movl	$120, %ecx
	leaq	.LC14(%rip), %r8
	movq	%rax, %r9
	movl	$1, %edx
	movl	$120, %esi
	xorl	%eax, %eax
	call	__snprintf_chk@PLT
	movq	%r14, %rcx
	movq	%r13, %rsi
	movq	%r12, %rdi
	leaq	.LC15(%rip), %rdx
	movl	$4, 12(%rsp)
	call	_ZN7openpal6Logger3LogERKNS_10LogFiltersEPKcS5_@PLT
	jmp	.L850
.L859:
	call	__stack_chk_fail@PLT
	.cfi_endproc
.LFE3408:
	.size	_ZN8opendnp38MContext11ProcessAPDUERKNS_18APDUResponseHeaderERKN7openpal6RSliceE, .-_ZN8opendnp38MContext11ProcessAPDUERKNS_18APDUResponseHeaderERKN7openpal6RSliceE
	.align 2
	.p2align 4
	.globl	_ZN8opendnp38MContext14OnParsedHeaderERKN7openpal6RSliceERKNS_18APDUResponseHeaderES4_
	.type	_ZN8opendnp38MContext14OnParsedHeaderERKN7openpal6RSliceERKNS_18APDUResponseHeaderES4_, @function
_ZN8opendnp38MContext14OnParsedHeaderERKN7openpal6RSliceERKNS_18APDUResponseHeaderES4_:
.LFB3404:
	.cfi_startproc
	endbr64
	movq	%rdx, %rsi
	movq	%rcx, %rdx
	jmp	_ZN8opendnp38MContext11ProcessAPDUERKNS_18APDUResponseHeaderERKN7openpal6RSliceE@PLT
	.cfi_endproc
.LFE3404:
	.size	_ZN8opendnp38MContext14OnParsedHeaderERKN7openpal6RSliceERKNS_18APDUResponseHeaderES4_, .-_ZN8opendnp38MContext14OnParsedHeaderERKN7openpal6RSliceERKNS_18APDUResponseHeaderES4_
	.set	_ZN8opendnp38MContext14OnParsedHeaderERKN7openpal6RSliceERKNS_18APDUResponseHeaderES4_.localalias,_ZN8opendnp38MContext14OnParsedHeaderERKN7openpal6RSliceERKNS_18APDUResponseHeaderES4_
	.section	.rodata.str1.8
	.align 8
.LC16:
	.string	"Ignorning rx data while offline"
	.align 8
.LC17:
	.string	"/home/kimchaer/Desktop/OpenPLC_v3/utils/dnp3_src/cpp/libs/src/opendnp3/master/MasterContext.cpp(118)"
	.align 8
.LC18:
	.string	"FIR: %i FIN: %i CON: %i UNS: %i SEQ: %i FUNC: %s IIN: [0x%02x, 0x%02x]"
	.align 8
.LC19:
	.string	"/home/kimchaer/Desktop/OpenPLC_v3/utils/dnp3_src/cpp/libs/src/opendnp3/master/MasterContext.cpp(129)"
	.text
	.align 2
	.p2align 4
	.globl	_ZN8opendnp38MContext9OnReceiveERKN7openpal6RSliceE
	.type	_ZN8opendnp38MContext9OnReceiveERKN7openpal6RSliceE, @function
_ZN8opendnp38MContext9OnReceiveERKN7openpal6RSliceE:
.LFB3399:
	.cfi_startproc
	endbr64
	pushq	%r15
	.cfi_def_cfa_offset 16
	.cfi_offset 15, -16
	pushq	%r14
	.cfi_def_cfa_offset 24
	.cfi_offset 14, -24
	leaq	24(%rdi), %r14
	pushq	%r13
	.cfi_def_cfa_offset 32
	.cfi_offset 13, -32
	pushq	%r12
	.cfi_def_cfa_offset 40
	.cfi_offset 12, -40
	pushq	%rbp
	.cfi_def_cfa_offset 48
	.cfi_offset 6, -48
	pushq	%rbx
	.cfi_def_cfa_offset 56
	.cfi_offset 3, -56
	subq	$184, %rsp
	.cfi_def_cfa_offset 240
	movzbl	168(%rdi), %r13d
	movq	%fs:40, %rax
	movq	%rax, 168(%rsp)
	xorl	%eax, %eax
	testb	%r13b, %r13b
	je	.L879
	movq	%rsi, %r12
	xorl	%r9d, %r9d
	xorl	%r8d, %r8d
	xorl	%ecx, %ecx
	movl	$1, %edx
	movl	$1, %esi
	movq	%rdi, %rbp
	movb	$-1, 24(%rsp)
	leaq	25(%rsp), %rdi
	leaq	24(%rsp), %r15
	call	_ZN8opendnp315AppControlFieldC1Ebbbbh@PLT
	xorl	%eax, %eax
	movq	%r14, %rdx
	movq	%r15, %rsi
	movq	%r12, %rdi
	movw	%ax, 30(%rsp)
	call	_ZN8opendnp316APDUHeaderParser13ParseResponseERKN7openpal6RSliceERNS_18APDUResponseHeaderEPNS1_6LoggerE@PLT
	testb	%al, %al
	jne	.L880
.L861:
	movq	168(%rsp), %rax
	xorq	%fs:40, %rax
	jne	.L881
	addq	$184, %rsp
	.cfi_remember_state
	.cfi_def_cfa_offset 56
	movl	%r13d, %eax
	popq	%rbx
	.cfi_def_cfa_offset 48
	popq	%rbp
	.cfi_def_cfa_offset 40
	popq	%r12
	.cfi_def_cfa_offset 32
	popq	%r13
	.cfi_def_cfa_offset 24
	popq	%r14
	.cfi_def_cfa_offset 16
	popq	%r15
	.cfi_def_cfa_offset 8
	ret
	.p2align 4,,10
	.p2align 3
.L880:
	.cfi_restore_state
	leaq	32(%rsp), %rbx
	movq	%r14, %rdi
	movl	$2048, 32(%rsp)
	movq	%rbx, %rsi
	call	_ZNK7openpal6Logger9IsEnabledERKNS_10LogFiltersE@PLT
	testb	%al, %al
	jne	.L882
.L865:
	movq	0(%rbp), %rax
	movl	$4, %esi
	movq	%r12, %rdi
	movq	48(%rax), %r14
	call	_ZNK7openpal6RSlice4SkipEj@PLT
	movl	%eax, 32(%rsp)
	leaq	_ZN8opendnp38MContext14OnParsedHeaderERKN7openpal6RSliceERKNS_18APDUResponseHeaderES4_.localalias(%rip), %rax
	movq	%rdx, 40(%rsp)
	cmpq	%rax, %r14
	jne	.L866
	movq	%rbx, %rdx
	movq	%r15, %rsi
	movq	%rbp, %rdi
	call	_ZN8opendnp38MContext11ProcessAPDUERKNS_18APDUResponseHeaderERKN7openpal6RSliceE@PLT
	jmp	.L861
	.p2align 4,,10
	.p2align 3
.L879:
	leaq	32(%rsp), %rbp
	movq	%r14, %rdi
	movl	$2, 32(%rsp)
	movq	%rbp, %rsi
	call	_ZNK7openpal6Logger9IsEnabledERKNS_10LogFiltersE@PLT
	testb	%al, %al
	je	.L861
	leaq	.LC16(%rip), %rcx
	leaq	.LC17(%rip), %rdx
	movq	%rbp, %rsi
	movq	%r14, %rdi
	movl	$2, 32(%rsp)
	call	_ZN7openpal6Logger3LogERKNS_10LogFiltersEPKcS5_@PLT
	jmp	.L861
	.p2align 4,,10
	.p2align 3
.L882:
	movzbl	31(%rsp), %ecx
	movzbl	30(%rsp), %edx
	movzbl	24(%rsp), %edi
	movl	%ecx, 12(%rsp)
	movl	%edx, (%rsp)
	call	_ZN8opendnp320FunctionCodeToStringENS_12FunctionCodeE@PLT
	leaq	48(%rsp), %r10
	subq	$8, %rsp
	.cfi_def_cfa_offset 248
	leaq	.LC18(%rip), %r8
	movl	20(%rsp), %ecx
	movq	%r10, %rdi
	movl	$120, %esi
	pushq	%rcx
	.cfi_def_cfa_offset 256
	movl	16(%rsp), %edx
	movl	$120, %ecx
	pushq	%rdx
	.cfi_def_cfa_offset 264
	movl	$1, %edx
	pushq	%rax
	.cfi_def_cfa_offset 272
	movzbl	61(%rsp), %eax
	pushq	%rax
	.cfi_def_cfa_offset 280
	movzbl	68(%rsp), %eax
	pushq	%rax
	.cfi_def_cfa_offset 288
	movzbl	75(%rsp), %eax
	pushq	%rax
	.cfi_def_cfa_offset 296
	movzbl	82(%rsp), %eax
	pushq	%rax
	.cfi_def_cfa_offset 304
	movzbl	89(%rsp), %r9d
	xorl	%eax, %eax
	movq	%r10, 64(%rsp)
	call	__snprintf_chk@PLT
	movl	$2048, 96(%rsp)
	movq	64(%rsp), %r10
	movq	%rbx, %rsi
	addq	$64, %rsp
	.cfi_def_cfa_offset 240
	leaq	.LC19(%rip), %rdx
	movq	%r14, %rdi
	movq	%r10, %rcx
	call	_ZN7openpal6Logger3LogERKNS_10LogFiltersEPKcS5_@PLT
	jmp	.L865
	.p2align 4,,10
	.p2align 3
.L866:
	movq	%rbx, %rcx
	movq	%r15, %rdx
	movq	%r12, %rsi
	movq	%rbp, %rdi
	call	*%r14
	jmp	.L861
.L881:
	call	__stack_chk_fail@PLT
	.cfi_endproc
.LFE3399:
	.size	_ZN8opendnp38MContext9OnReceiveERKN7openpal6RSliceE, .-_ZN8opendnp38MContext9OnReceiveERKN7openpal6RSliceE
	.align 2
	.p2align 4
	.globl	_ZN8opendnp38MContext33OnResponseTimeout_WaitForResponseEv
	.type	_ZN8opendnp38MContext33OnResponseTimeout_WaitForResponseEv, @function
_ZN8opendnp38MContext33OnResponseTimeout_WaitForResponseEv:
.LFB3477:
	.cfi_startproc
	endbr64
	pushq	%rbp
	.cfi_def_cfa_offset 16
	.cfi_offset 6, -16
	movq	%rdi, %rbp
	movq	56(%rdi), %rdi
	movq	(%rdi), %rax
	call	*16(%rax)
	movq	176(%rbp), %rdi
	movq	%rax, %rsi
	call	_ZN8opendnp311IMasterTask17OnResponseTimeoutEN7openpal18MonotonicTimestampE@PLT
	movzbl	170(%rbp), %eax
	movq	%rbp, %rdi
	addl	$1, %eax
	andl	$15, %eax
	movb	%al, 170(%rbp)
	call	_ZN8opendnp38MContext18CompleteActiveTaskEv@PLT
	xorl	%eax, %eax
	popq	%rbp
	.cfi_def_cfa_offset 8
	ret
	.cfi_endproc
.LFE3477:
	.size	_ZN8opendnp38MContext33OnResponseTimeout_WaitForResponseEv, .-_ZN8opendnp38MContext33OnResponseTimeout_WaitForResponseEv
	.section	.rodata.str1.1
.LC20:
	.string	"Unexpected response timeout"
	.section	.rodata.str1.8
	.align 8
.LC21:
	.string	"/home/kimchaer/Desktop/OpenPLC_v3/utils/dnp3_src/cpp/libs/src/opendnp3/master/MasterContext.cpp(540)"
	.text
	.align 2
	.p2align 4
	.globl	_ZN8opendnp38MContext22OnResponseTimeoutEventEv
	.type	_ZN8opendnp38MContext22OnResponseTimeoutEventEv, @function
_ZN8opendnp38MContext22OnResponseTimeoutEventEv:
.LFB3472:
	.cfi_startproc
	endbr64
	pushq	%r13
	.cfi_def_cfa_offset 16
	.cfi_offset 13, -16
	pushq	%r12
	.cfi_def_cfa_offset 24
	.cfi_offset 12, -24
	pushq	%rbp
	.cfi_def_cfa_offset 32
	.cfi_offset 6, -32
	movq	%rdi, %rbp
	subq	$16, %rsp
	.cfi_def_cfa_offset 48
	movq	%fs:40, %rax
	movq	%rax, 8(%rsp)
	xorl	%eax, %eax
	cmpl	$2, 512(%rdi)
	je	.L894
	leaq	24(%rdi), %r12
	leaq	4(%rsp), %r13
	movl	$2, 4(%rsp)
	movq	%r13, %rsi
	movq	%r12, %rdi
	call	_ZNK7openpal6Logger9IsEnabledERKNS_10LogFiltersE@PLT
	testb	%al, %al
	jne	.L895
.L888:
	movl	512(%rbp), %eax
.L885:
	movq	8(%rsp), %rdx
	xorq	%fs:40, %rdx
	jne	.L896
	addq	$16, %rsp
	.cfi_remember_state
	.cfi_def_cfa_offset 32
	popq	%rbp
	.cfi_def_cfa_offset 24
	popq	%r12
	.cfi_def_cfa_offset 16
	popq	%r13
	.cfi_def_cfa_offset 8
	ret
	.p2align 4,,10
	.p2align 3
.L895:
	.cfi_restore_state
	leaq	.LC20(%rip), %rcx
	leaq	.LC21(%rip), %rdx
	movq	%r13, %rsi
	movq	%r12, %rdi
	movl	$2, 4(%rsp)
	call	_ZN7openpal6Logger3LogERKNS_10LogFiltersEPKcS5_@PLT
	jmp	.L888
	.p2align 4,,10
	.p2align 3
.L894:
	call	_ZN8opendnp38MContext33OnResponseTimeout_WaitForResponseEv@PLT
	jmp	.L885
.L896:
	call	__stack_chk_fail@PLT
	.cfi_endproc
.LFE3472:
	.size	_ZN8opendnp38MContext22OnResponseTimeoutEventEv, .-_ZN8opendnp38MContext22OnResponseTimeoutEventEv
	.align 2
	.p2align 4
	.globl	_ZN8opendnp38MContext17OnResponseTimeoutEv
	.type	_ZN8opendnp38MContext17OnResponseTimeoutEv, @function
_ZN8opendnp38MContext17OnResponseTimeoutEv:
.LFB3402:
	.cfi_startproc
	endbr64
	cmpb	$0, 168(%rdi)
	jne	.L903
	ret
	.p2align 4,,10
	.p2align 3
.L903:
	pushq	%rbx
	.cfi_def_cfa_offset 16
	.cfi_offset 3, -16
	movq	%rdi, %rbx
	call	_ZN8opendnp38MContext22OnResponseTimeoutEventEv@PLT
	movl	%eax, 512(%rbx)
	popq	%rbx
	.cfi_def_cfa_offset 8
	ret
	.cfi_endproc
.LFE3402:
	.size	_ZN8opendnp38MContext17OnResponseTimeoutEv, .-_ZN8opendnp38MContext17OnResponseTimeoutEv
	.p2align 4
	.type	_ZNSt17_Function_handlerIFvvEZN7openpal8TimerRef5StartIZN8opendnp38MContext18StartResponseTimerEvEUlvE_EEbRKNS1_12TimeDurationERKT_EUlvE_E9_M_invokeERKSt9_Any_data, @function
_ZNSt17_Function_handlerIFvvEZN7openpal8TimerRef5StartIZN8opendnp38MContext18StartResponseTimerEvEUlvE_EEbRKNS1_12TimeDurationERKT_EUlvE_E9_M_invokeERKSt9_Any_data:
.LFB4317:
	.cfi_startproc
	endbr64
	movq	(%rdi), %rax
	movq	8(%rdi), %rdi
	movq	$0, 8(%rax)
	jmp	_ZN8opendnp38MContext17OnResponseTimeoutEv@PLT
	.cfi_endproc
.LFE4317:
	.size	_ZNSt17_Function_handlerIFvvEZN7openpal8TimerRef5StartIZN8opendnp38MContext18StartResponseTimerEvEUlvE_EEbRKNS1_12TimeDurationERKT_EUlvE_E9_M_invokeERKSt9_Any_data, .-_ZNSt17_Function_handlerIFvvEZN7openpal8TimerRef5StartIZN8opendnp38MContext18StartResponseTimerEvEUlvE_EEbRKNS1_12TimeDurationERKT_EUlvE_E9_M_invokeERKSt9_Any_data
	.section	.text._ZNSt6vectorISt10shared_ptrIN8opendnp311IMasterTaskEESaIS3_EED2Ev,"axG",@progbits,_ZNSt6vectorISt10shared_ptrIN8opendnp311IMasterTaskEESaIS3_EED5Ev,comdat
	.align 2
	.p2align 4
	.weak	_ZNSt6vectorISt10shared_ptrIN8opendnp311IMasterTaskEESaIS3_EED2Ev
	.type	_ZNSt6vectorISt10shared_ptrIN8opendnp311IMasterTaskEESaIS3_EED2Ev, @function
_ZNSt6vectorISt10shared_ptrIN8opendnp311IMasterTaskEESaIS3_EED2Ev:
.LFB3809:
	.cfi_startproc
	endbr64
	pushq	%r13
	.cfi_def_cfa_offset 16
	.cfi_offset 13, -16
	pushq	%r12
	.cfi_def_cfa_offset 24
	.cfi_offset 12, -24
	pushq	%rbp
	.cfi_def_cfa_offset 32
	.cfi_offset 6, -32
	pushq	%rbx
	.cfi_def_cfa_offset 40
	.cfi_offset 3, -40
	subq	$8, %rsp
	.cfi_def_cfa_offset 48
	movq	8(%rdi), %rbx
	movq	(%rdi), %rbp
	cmpq	%rbp, %rbx
	je	.L906
	cmpq	$0, _ZL28__gthrw___pthread_key_createPjPFvPvE@GOTPCREL(%rip)
	movq	%rdi, %r13
	je	.L913
	movq	8(%rbp), %r12
	testq	%r12, %r12
	jne	.L922
	.p2align 4,,10
	.p2align 3
.L915:
	addq	$16, %rbp
	cmpq	%rbp, %rbx
	je	.L912
.L907:
	movq	8(%rbp), %r12
	testq	%r12, %r12
	je	.L915
.L922:
	lock subl	$1, 8(%r12)
	jne	.L915
	movq	(%r12), %rax
	movq	%r12, %rdi
	call	*16(%rax)
	lock subl	$1, 12(%r12)
	jne	.L915
	movq	(%r12), %rax
	addq	$16, %rbp
	movq	%r12, %rdi
	call	*24(%rax)
	cmpq	%rbp, %rbx
	jne	.L907
	.p2align 4,,10
	.p2align 3
.L912:
	movq	0(%r13), %rbp
.L906:
	testq	%rbp, %rbp
	je	.L905
	addq	$8, %rsp
	.cfi_remember_state
	.cfi_def_cfa_offset 40
	movq	%rbp, %rdi
	popq	%rbx
	.cfi_def_cfa_offset 32
	popq	%rbp
	.cfi_def_cfa_offset 24
	popq	%r12
	.cfi_def_cfa_offset 16
	popq	%r13
	.cfi_def_cfa_offset 8
	jmp	_ZdlPv@PLT
	.p2align 4,,10
	.p2align 3
.L911:
	.cfi_restore_state
	movq	(%r12), %rax
	movq	%r12, %rdi
	call	*16(%rax)
	movl	12(%r12), %eax
	leal	-1(%rax), %edx
	movl	%edx, 12(%r12)
	cmpl	$1, %eax
	jne	.L910
	movq	(%r12), %rax
	movq	%r12, %rdi
	call	*24(%rax)
	.p2align 4,,10
	.p2align 3
.L910:
	addq	$16, %rbp
	cmpq	%rbp, %rbx
	je	.L912
.L913:
	movq	8(%rbp), %r12
	testq	%r12, %r12
	je	.L910
	movl	8(%r12), %eax
	leal	-1(%rax), %edx
	movl	%edx, 8(%r12)
	cmpl	$1, %eax
	jne	.L910
	jmp	.L911
	.p2align 4,,10
	.p2align 3
.L905:
	addq	$8, %rsp
	.cfi_def_cfa_offset 40
	popq	%rbx
	.cfi_def_cfa_offset 32
	popq	%rbp
	.cfi_def_cfa_offset 24
	popq	%r12
	.cfi_def_cfa_offset 16
	popq	%r13
	.cfi_def_cfa_offset 8
	ret
	.cfi_endproc
.LFE3809:
	.size	_ZNSt6vectorISt10shared_ptrIN8opendnp311IMasterTaskEESaIS3_EED2Ev, .-_ZNSt6vectorISt10shared_ptrIN8opendnp311IMasterTaskEESaIS3_EED2Ev
	.weak	_ZNSt6vectorISt10shared_ptrIN8opendnp311IMasterTaskEESaIS3_EED1Ev
	.set	_ZNSt6vectorISt10shared_ptrIN8opendnp311IMasterTaskEESaIS3_EED1Ev,_ZNSt6vectorISt10shared_ptrIN8opendnp311IMasterTaskEESaIS3_EED2Ev
	.section	.text._ZNSt16_Sp_counted_baseILN9__gnu_cxx12_Lock_policyE2EE10_M_releaseEv,"axG",@progbits,_ZNSt16_Sp_counted_baseILN9__gnu_cxx12_Lock_policyE2EE10_M_releaseEv,comdat
	.align 2
	.p2align 4
	.weak	_ZNSt16_Sp_counted_baseILN9__gnu_cxx12_Lock_policyE2EE10_M_releaseEv
	.type	_ZNSt16_Sp_counted_baseILN9__gnu_cxx12_Lock_policyE2EE10_M_releaseEv, @function
_ZNSt16_Sp_counted_baseILN9__gnu_cxx12_Lock_policyE2EE10_M_releaseEv:
.LFB4031:
	.cfi_startproc
	endbr64
	pushq	%rbp
	.cfi_def_cfa_offset 16
	.cfi_offset 6, -16
	movq	%rdi, %rbp
	pushq	%rbx
	.cfi_def_cfa_offset 24
	.cfi_offset 3, -24
	subq	$8, %rsp
	.cfi_def_cfa_offset 32
	movq	_ZL28__gthrw___pthread_key_createPjPFvPvE@GOTPCREL(%rip), %rbx
	testq	%rbx, %rbx
	je	.L924
	movl	$-1, %eax
	lock xaddl	%eax, 8(%rdi)
	cmpl	$1, %eax
	je	.L932
.L923:
	addq	$8, %rsp
	.cfi_remember_state
	.cfi_def_cfa_offset 24
	popq	%rbx
	.cfi_def_cfa_offset 16
	popq	%rbp
	.cfi_def_cfa_offset 8
	ret
	.p2align 4,,10
	.p2align 3
.L924:
	.cfi_restore_state
	movl	8(%rdi), %eax
	leal	-1(%rax), %edx
	movl	%edx, 8(%rdi)
	cmpl	$1, %eax
	jne	.L923
.L932:
	movq	0(%rbp), %rax
	movq	%rbp, %rdi
	call	*16(%rax)
	testq	%rbx, %rbx
	je	.L928
	movl	$-1, %eax
	lock xaddl	%eax, 12(%rbp)
.L929:
	cmpl	$1, %eax
	jne	.L923
	movq	0(%rbp), %rax
	movq	%rbp, %rdi
	movq	24(%rax), %rax
	addq	$8, %rsp
	.cfi_remember_state
	.cfi_def_cfa_offset 24
	popq	%rbx
	.cfi_def_cfa_offset 16
	popq	%rbp
	.cfi_def_cfa_offset 8
	jmp	*%rax
	.p2align 4,,10
	.p2align 3
.L928:
	.cfi_restore_state
	movl	12(%rbp), %eax
	leal	-1(%rax), %edx
	movl	%edx, 12(%rbp)
	jmp	.L929
	.cfi_endproc
.LFE4031:
	.size	_ZNSt16_Sp_counted_baseILN9__gnu_cxx12_Lock_policyE2EE10_M_releaseEv, .-_ZNSt16_Sp_counted_baseILN9__gnu_cxx12_Lock_policyE2EE10_M_releaseEv
	.section	.text.unlikely
	.align 2
.LCOLDB22:
	.text
.LHOTB22:
	.align 2
	.p2align 4
	.globl	_ZN8opendnp38MContext14StartTask_IdleEv
	.type	_ZN8opendnp38MContext14StartTask_IdleEv, @function
_ZN8opendnp38MContext14StartTask_IdleEv:
.LFB3473:
	.cfi_startproc
	.cfi_personality 0x9b,DW.ref.__gxx_personality_v0
	.cfi_lsda 0x1b,.LLSDA3473
	endbr64
	pushq	%r13
	.cfi_def_cfa_offset 16
	.cfi_offset 13, -16
	pushq	%r12
	.cfi_def_cfa_offset 24
	.cfi_offset 12, -24
	pushq	%rbp
	.cfi_def_cfa_offset 32
	.cfi_offset 6, -32
	subq	$96, %rsp
	.cfi_def_cfa_offset 128
	movq	%fs:40, %rax
	movq	%rax, 88(%rsp)
	xorl	%eax, %eax
	cmpb	$0, 169(%rdi)
	je	.L964
.L933:
	movq	88(%rsp), %rcx
	xorq	%fs:40, %rcx
	jne	.L965
	addq	$96, %rsp
	.cfi_remember_state
	.cfi_def_cfa_offset 32
	popq	%rbp
	.cfi_def_cfa_offset 24
	popq	%r12
	.cfi_def_cfa_offset 16
	popq	%r13
	.cfi_def_cfa_offset 8
	ret
	.p2align 4,,10
	.p2align 3
.L964:
	.cfi_restore_state
	leaq	16(%rsp), %r12
	movq	%rdi, %rbp
	leaq	32(%rsp), %r13
	movq	%r12, %rdi
.LEHB11:
	call	_ZN7openpal18MonotonicTimestampC1Ev@PLT
	movq	56(%rbp), %rdi
	movq	(%rdi), %rax
	call	*16(%rax)
	leaq	24(%rsp), %rdx
	movq	%r12, %rcx
	movq	%r13, %rdi
	leaq	376(%rbp), %rsi
	movq	%rax, 24(%rsp)
	call	_ZN8opendnp315MasterScheduler7GetNextERKN7openpal18MonotonicTimestampERS2_@PLT
.LEHE11:
	cmpq	$0, 32(%rsp)
	je	.L935
	movq	%r13, %rsi
	movq	%rbp, %rdi
.LEHB12:
	call	_ZN8opendnp38MContext12BeginNewTaskERKSt10shared_ptrINS_11IMasterTaskEE@PLT
.L936:
	movq	40(%rsp), %rbp
	testq	%rbp, %rbp
	je	.L933
	movq	_ZL28__gthrw___pthread_key_createPjPFvPvE@GOTPCREL(%rip), %r12
	testq	%r12, %r12
	je	.L941
	movl	$-1, %edx
	lock xaddl	%edx, 8(%rbp)
.L942:
	cmpl	$1, %edx
	jne	.L933
	movq	0(%rbp), %rdx
	movl	%eax, 12(%rsp)
	movq	%rbp, %rdi
	call	*16(%rdx)
	testq	%r12, %r12
	movl	12(%rsp), %eax
	je	.L943
	movl	$-1, %edx
	lock xaddl	%edx, 12(%rbp)
.L944:
	cmpl	$1, %edx
	jne	.L933
	movq	0(%rbp), %rdx
	movl	%eax, 12(%rsp)
	movq	%rbp, %rdi
	call	*24(%rdx)
	movl	12(%rsp), %eax
	jmp	.L933
	.p2align 4,,10
	.p2align 3
.L941:
	movl	8(%rbp), %edx
	leal	-1(%rdx), %ecx
	movl	%ecx, 8(%rbp)
	jmp	.L942
	.p2align 4,,10
	.p2align 3
.L935:
	movq	%r12, %rdi
	call	_ZNK7openpal18MonotonicTimestamp5IsMaxEv@PLT
.LEHE12:
	movl	%eax, %r8d
	xorl	%eax, %eax
	testb	%r8b, %r8b
	jne	.L936
	leaq	_ZNSt17_Function_handlerIFvvEZN7openpal8TimerRef7RestartIZN8opendnp38MContext14StartTask_IdleEvEUlvE_EEvRKNS1_18MonotonicTimestampERKT_EUlvE_E9_M_invokeERKSt9_Any_data(%rip), %rax
	leaq	_ZNSt14_Function_base13_Base_managerIZN7openpal8TimerRef7RestartIZN8opendnp38MContext14StartTask_IdleEvEUlvE_EEvRKNS1_18MonotonicTimestampERKT_EUlvE_E10_M_managerERSt9_Any_dataRKSF_St18_Manager_operation(%rip), %rcx
	movq	%rbp, 56(%rsp)
	movq	%r12, %rsi
	leaq	208(%rbp), %rdi
	movq	%rcx, %xmm0
	movq	%rax, %xmm1
	leaq	48(%rsp), %rbp
	punpcklqdq	%xmm1, %xmm0
	movq	%rdi, 48(%rsp)
	movq	%rbp, %rdx
	movaps	%xmm0, 64(%rsp)
.LEHB13:
	call	_ZN7openpal8TimerRef13RestartActionERKNS_18MonotonicTimestampERKSt8functionIFvvEE@PLT
.LEHE13:
	movq	64(%rsp), %rax
	testq	%rax, %rax
	je	.L937
	movl	$3, %edx
	movq	%rbp, %rsi
	movq	%rbp, %rdi
	call	*%rax
.L937:
	xorl	%eax, %eax
	jmp	.L936
	.p2align 4,,10
	.p2align 3
.L943:
	movl	12(%rbp), %edx
	leal	-1(%rdx), %ecx
	movl	%ecx, 12(%rbp)
	jmp	.L944
.L965:
	call	__stack_chk_fail@PLT
.L950:
	endbr64
	movq	%rax, %r12
	jmp	.L938
.L949:
	endbr64
	movq	%rax, %r12
	jmp	.L940
	.section	.gcc_except_table
.LLSDA3473:
	.byte	0xff
	.byte	0xff
	.byte	0x1
	.uleb128 .LLSDACSE3473-.LLSDACSB3473
.LLSDACSB3473:
	.uleb128 .LEHB11-.LFB3473
	.uleb128 .LEHE11-.LEHB11
	.uleb128 0
	.uleb128 0
	.uleb128 .LEHB12-.LFB3473
	.uleb128 .LEHE12-.LEHB12
	.uleb128 .L949-.LFB3473
	.uleb128 0
	.uleb128 .LEHB13-.LFB3473
	.uleb128 .LEHE13-.LEHB13
	.uleb128 .L950-.LFB3473
	.uleb128 0
.LLSDACSE3473:
	.text
	.cfi_endproc
	.section	.text.unlikely
	.cfi_startproc
	.cfi_personality 0x9b,DW.ref.__gxx_personality_v0
	.cfi_lsda 0x1b,.LLSDAC3473
	.type	_ZN8opendnp38MContext14StartTask_IdleEv.cold, @function
_ZN8opendnp38MContext14StartTask_IdleEv.cold:
.LFSB3473:
.L938:
	.cfi_def_cfa_offset 128
	.cfi_offset 6, -32
	.cfi_offset 12, -24
	.cfi_offset 13, -16
	movq	64(%rsp), %rax
	testq	%rax, %rax
	je	.L940
	movl	$3, %edx
	movq	%rbp, %rsi
	movq	%rbp, %rdi
	call	*%rax
.L940:
	movq	40(%rsp), %rdi
	testq	%rdi, %rdi
	je	.L945
	call	_ZNSt16_Sp_counted_baseILN9__gnu_cxx12_Lock_policyE2EE10_M_releaseEv@PLT
.L945:
	movq	%r12, %rdi
.LEHB14:
	call	_Unwind_Resume@PLT
.LEHE14:
	.cfi_endproc
.LFE3473:
	.section	.gcc_except_table
.LLSDAC3473:
	.byte	0xff
	.byte	0xff
	.byte	0x1
	.uleb128 .LLSDACSEC3473-.LLSDACSBC3473
.LLSDACSBC3473:
	.uleb128 .LEHB14-.LCOLDB22
	.uleb128 .LEHE14-.LEHB14
	.uleb128 0
	.uleb128 0
.LLSDACSEC3473:
	.section	.text.unlikely
	.text
	.size	_ZN8opendnp38MContext14StartTask_IdleEv, .-_ZN8opendnp38MContext14StartTask_IdleEv
	.section	.text.unlikely
	.size	_ZN8opendnp38MContext14StartTask_IdleEv.cold, .-_ZN8opendnp38MContext14StartTask_IdleEv.cold
.LCOLDE22:
	.text
.LHOTE22:
	.align 2
	.p2align 4
	.globl	_ZN8opendnp38MContext12OnStartEventEv
	.type	_ZN8opendnp38MContext12OnStartEventEv, @function
_ZN8opendnp38MContext12OnStartEventEv:
.LFB3471:
	.cfi_startproc
	endbr64
	movl	512(%rdi), %eax
	testl	%eax, %eax
	je	.L967
	cmpl	$1, %eax
	jne	.L971
	jmp	_ZN8opendnp38MContext19StartTask_TaskReadyEv@PLT
	.p2align 4,,10
	.p2align 3
.L971:
	ret
	.p2align 4,,10
	.p2align 3
.L967:
	jmp	_ZN8opendnp38MContext14StartTask_IdleEv@PLT
	.cfi_endproc
.LFE3471:
	.size	_ZN8opendnp38MContext12OnStartEventEv, .-_ZN8opendnp38MContext12OnStartEventEv
	.align 2
	.p2align 4
	.globl	_ZN8opendnp38MContext12CheckForTaskEv
	.type	_ZN8opendnp38MContext12CheckForTaskEv, @function
_ZN8opendnp38MContext12CheckForTaskEv:
.LFB3401:
	.cfi_startproc
	endbr64
	cmpb	$0, 168(%rdi)
	jne	.L978
	ret
	.p2align 4,,10
	.p2align 3
.L978:
	pushq	%rbx
	.cfi_def_cfa_offset 16
	.cfi_offset 3, -16
	movq	%rdi, %rbx
	call	_ZN8opendnp38MContext12OnStartEventEv@PLT
	movl	%eax, 512(%rbx)
	popq	%rbx
	.cfi_def_cfa_offset 8
	ret
	.cfi_endproc
.LFE3401:
	.size	_ZN8opendnp38MContext12CheckForTaskEv, .-_ZN8opendnp38MContext12CheckForTaskEv
	.p2align 4
	.type	_ZNSt17_Function_handlerIFvvEZN8opendnp38MContext16PostCheckForTaskEvEUlvE_E9_M_invokeERKSt9_Any_data, @function
_ZNSt17_Function_handlerIFvvEZN8opendnp38MContext16PostCheckForTaskEvEUlvE_E9_M_invokeERKSt9_Any_data:
.LFB4137:
	.cfi_startproc
	endbr64
	movq	(%rdi), %rdi
	jmp	_ZN8opendnp38MContext12CheckForTaskEv@PLT
	.cfi_endproc
.LFE4137:
	.size	_ZNSt17_Function_handlerIFvvEZN8opendnp38MContext16PostCheckForTaskEvEUlvE_E9_M_invokeERKSt9_Any_data, .-_ZNSt17_Function_handlerIFvvEZN8opendnp38MContext16PostCheckForTaskEvEUlvE_E9_M_invokeERKSt9_Any_data
	.align 2
	.p2align 4
	.globl	_ZN8opendnp38MContext17ScheduleAdhocTaskERKSt10shared_ptrINS_11IMasterTaskEE
	.type	_ZN8opendnp38MContext17ScheduleAdhocTaskERKSt10shared_ptrINS_11IMasterTaskEE, @function
_ZN8opendnp38MContext17ScheduleAdhocTaskERKSt10shared_ptrINS_11IMasterTaskEE:
.LFB3464:
	.cfi_startproc
	endbr64
	pushq	%r13
	.cfi_def_cfa_offset 16
	.cfi_offset 13, -16
	pushq	%r12
	.cfi_def_cfa_offset 24
	.cfi_offset 12, -24
	movq	%rsi, %r12
	pushq	%rbp
	.cfi_def_cfa_offset 32
	.cfi_offset 6, -32
	movq	%rdi, %rbp
	subq	$16, %rsp
	.cfi_def_cfa_offset 48
	movq	56(%rdi), %rdi
	movq	%fs:40, %rax
	movq	%rax, 8(%rsp)
	xorl	%eax, %eax
	movq	(%rdi), %rax
	call	*16(%rax)
	movq	(%r12), %r13
	leaq	112(%rbp), %rsi
	movq	%rsp, %rdi
	movq	%rax, (%rsp)
	call	_ZNK7openpal18MonotonicTimestamp3AddERKNS_12TimeDurationE@PLT
	movq	%r13, %rdi
	movq	%rax, %rsi
	call	_ZN8opendnp311IMasterTask24ConfigureStartExpirationEN7openpal18MonotonicTimestampE@PLT
	cmpb	$0, 168(%rbp)
	je	.L981
	movq	0(%rbp), %rax
	movq	64(%rax), %rax
	cmpq	_ZN8opendnp38MContext21MeetsUserRequirementsERKSt10shared_ptrINS_11IMasterTaskEE@GOTPCREL(%rip), %rax
	jne	.L982
.L984:
	leaq	376(%rbp), %rdi
	movq	%r12, %rsi
	call	_ZN8opendnp315MasterScheduler8ScheduleERKSt10shared_ptrINS_11IMasterTaskEE@PLT
	movq	%rbp, %rdi
	call	_ZN8opendnp38MContext12CheckForTaskEv@PLT
.L980:
	movq	8(%rsp), %rax
	xorq	%fs:40, %rax
	jne	.L987
	addq	$16, %rsp
	.cfi_remember_state
	.cfi_def_cfa_offset 32
	popq	%rbp
	.cfi_def_cfa_offset 24
	popq	%r12
	.cfi_def_cfa_offset 16
	popq	%r13
	.cfi_def_cfa_offset 8
	ret
	.p2align 4,,10
	.p2align 3
.L981:
	.cfi_restore_state
	movq	(%rsp), %rsi
	movq	(%r12), %rdi
	call	_ZN8opendnp311IMasterTask17OnLowerLayerCloseEN7openpal18MonotonicTimestampE@PLT
	jmp	.L980
	.p2align 4,,10
	.p2align 3
.L982:
	movq	%r12, %rsi
	movq	%rbp, %rdi
	call	*%rax
	testb	%al, %al
	jne	.L984
	movq	(%rsp), %rsi
	movq	(%r12), %rdi
	call	_ZN8opendnp311IMasterTask8OnNoUserEN7openpal18MonotonicTimestampE@PLT
	jmp	.L980
.L987:
	call	__stack_chk_fail@PLT
	.cfi_endproc
.LFE3464:
	.size	_ZN8opendnp38MContext17ScheduleAdhocTaskERKSt10shared_ptrINS_11IMasterTaskEE, .-_ZN8opendnp38MContext17ScheduleAdhocTaskERKSt10shared_ptrINS_11IMasterTaskEE
	.p2align 4
	.type	_ZNSt17_Function_handlerIFvvEZN7openpal8TimerRef7RestartIZN8opendnp38MContext14StartTask_IdleEvEUlvE_EEvRKNS1_18MonotonicTimestampERKT_EUlvE_E9_M_invokeERKSt9_Any_data, @function
_ZNSt17_Function_handlerIFvvEZN7openpal8TimerRef7RestartIZN8opendnp38MContext14StartTask_IdleEvEUlvE_EEvRKNS1_18MonotonicTimestampERKT_EUlvE_E9_M_invokeERKSt9_Any_data:
.LFB4402:
	.cfi_startproc
	endbr64
	movq	(%rdi), %rax
	movq	8(%rdi), %rdi
	movq	$0, 8(%rax)
	jmp	_ZN8opendnp38MContext12CheckForTaskEv@PLT
	.cfi_endproc
.LFE4402:
	.size	_ZNSt17_Function_handlerIFvvEZN7openpal8TimerRef7RestartIZN8opendnp38MContext14StartTask_IdleEvEUlvE_EEvRKNS1_18MonotonicTimestampERKT_EUlvE_E9_M_invokeERKSt9_Any_data, .-_ZNSt17_Function_handlerIFvvEZN7openpal8TimerRef7RestartIZN8opendnp38MContext14StartTask_IdleEvEUlvE_EEvRKNS1_18MonotonicTimestampERKT_EUlvE_E9_M_invokeERKSt9_Any_data
	.align 2
	.p2align 4
	.globl	_ZN8opendnp38MContext12OnSendResultEb
	.type	_ZN8opendnp38MContext12OnSendResultEb, @function
_ZN8opendnp38MContext12OnSendResultEb:
.LFB3400:
	.cfi_startproc
	endbr64
	pushq	%r12
	.cfi_def_cfa_offset 16
	.cfi_offset 12, -16
	pushq	%rbp
	.cfi_def_cfa_offset 24
	.cfi_offset 6, -24
	subq	$8, %rsp
	.cfi_def_cfa_offset 32
	movzbl	168(%rdi), %r12d
	testb	%r12b, %r12b
	je	.L989
	movzbl	169(%rdi), %r12d
	movq	%rdi, %rbp
	testb	%r12b, %r12b
	jne	.L998
.L989:
	addq	$8, %rsp
	.cfi_remember_state
	.cfi_def_cfa_offset 24
	movl	%r12d, %eax
	popq	%rbp
	.cfi_def_cfa_offset 16
	popq	%r12
	.cfi_def_cfa_offset 8
	ret
	.p2align 4,,10
	.p2align 3
.L998:
	.cfi_restore_state
	movb	$0, 169(%rdi)
	call	_ZN8opendnp38MContext20CheckConfirmTransmitEv@PLT
	movq	%rbp, %rdi
	call	_ZN8opendnp38MContext12CheckForTaskEv@PLT
	addq	$8, %rsp
	.cfi_def_cfa_offset 24
	movl	%r12d, %eax
	popq	%rbp
	.cfi_def_cfa_offset 16
	popq	%r12
	.cfi_def_cfa_offset 8
	ret
	.cfi_endproc
.LFE3400:
	.size	_ZN8opendnp38MContext12OnSendResultEb, .-_ZN8opendnp38MContext12OnSendResultEb
	.section	.text.unlikely
	.align 2
.LCOLDB23:
	.text
.LHOTB23:
	.align 2
	.p2align 4
	.globl	_ZN8opendnp38MContext13DirectOperateEONS_10CommandSetERKSt8functionIFvRKNS_18ICommandTaskResultEEERKNS_10TaskConfigE
	.type	_ZN8opendnp38MContext13DirectOperateEONS_10CommandSetERKSt8functionIFvRKNS_18ICommandTaskResultEEERKNS_10TaskConfigE, @function
_ZN8opendnp38MContext13DirectOperateEONS_10CommandSetERKSt8functionIFvRKNS_18ICommandTaskResultEEERKNS_10TaskConfigE:
.LFB3405:
	.cfi_startproc
	.cfi_personality 0x9b,DW.ref.__gxx_personality_v0
	.cfi_lsda 0x1b,.LLSDA3405
	endbr64
	pushq	%r13
	.cfi_def_cfa_offset 16
	.cfi_offset 13, -16
	movq	%rdx, %r10
	movq	%rcx, %r8
	pushq	%r12
	.cfi_def_cfa_offset 24
	.cfi_offset 12, -24
	pushq	%rbp
	.cfi_def_cfa_offset 32
	.cfi_offset 6, -32
	movq	%rdi, %rbp
	pushq	%rbx
	.cfi_def_cfa_offset 40
	.cfi_offset 3, -40
	subq	$72, %rsp
	.cfi_def_cfa_offset 112
	movdqu	24(%rdi), %xmm0
	movq	%fs:40, %rax
	movq	%rax, 56(%rsp)
	xorl	%eax, %eax
	movq	32(%rdi), %rax
	movaps	%xmm0, 16(%rsp)
	testq	%rax, %rax
	je	.L1000
	cmpq	$0, _ZL28__gthrw___pthread_key_createPjPFvPvE@GOTPCREL(%rip)
	je	.L1001
	lock addl	$1, 8(%rax)
.L1000:
	movdqu	40(%rbp), %xmm1
	movq	48(%rbp), %rax
	movaps	%xmm1, 32(%rsp)
	testq	%rax, %rax
	je	.L1002
	cmpq	$0, _ZL28__gthrw___pthread_key_createPjPFvPvE@GOTPCREL(%rip)
	je	.L1003
	lock addl	$1, 8(%rax)
.L1002:
	movq	%rsp, %r12
	leaq	16(%rsp), %r13
	movq	144(%rbp), %rdx
	movq	%r10, %rcx
	movq	%r13, %r9
	movq	%r12, %rdi
.LEHB15:
	call	_ZN8opendnp311CommandTask19CreateDirectOperateEONS_10CommandSetERNS_18IMasterApplicationERKSt8functionIFvRKNS_18ICommandTaskResultEEERKNS_10TaskConfigEN7openpal6LoggerE@PLT
.LEHE15:
	movq	%r12, %rsi
	movq	%rbp, %rdi
.LEHB16:
	call	_ZN8opendnp38MContext17ScheduleAdhocTaskERKSt10shared_ptrINS_11IMasterTaskEE@PLT
.LEHE16:
	movq	8(%rsp), %rbp
	testq	%rbp, %rbp
	je	.L1005
	movq	_ZL28__gthrw___pthread_key_createPjPFvPvE@GOTPCREL(%rip), %rbx
	testq	%rbx, %rbx
	je	.L1006
	movl	$-1, %eax
	lock xaddl	%eax, 8(%rbp)
	cmpl	$1, %eax
	je	.L1041
	.p2align 4,,10
	.p2align 3
.L1005:
	movq	40(%rsp), %rbp
	testq	%rbp, %rbp
	je	.L1012
	movq	_ZL28__gthrw___pthread_key_createPjPFvPvE@GOTPCREL(%rip), %rbx
	testq	%rbx, %rbx
	je	.L1013
	movl	$-1, %eax
	lock xaddl	%eax, 8(%rbp)
	cmpl	$1, %eax
	je	.L1042
	.p2align 4,,10
	.p2align 3
.L1012:
	movq	24(%rsp), %rbp
	testq	%rbp, %rbp
	je	.L999
	movq	_ZL28__gthrw___pthread_key_createPjPFvPvE@GOTPCREL(%rip), %rbx
	testq	%rbx, %rbx
	je	.L1020
	movl	$-1, %eax
	lock xaddl	%eax, 8(%rbp)
	cmpl	$1, %eax
	je	.L1043
	.p2align 4,,10
	.p2align 3
.L999:
	movq	56(%rsp), %rax
	xorq	%fs:40, %rax
	jne	.L1044
	addq	$72, %rsp
	.cfi_remember_state
	.cfi_def_cfa_offset 40
	popq	%rbx
	.cfi_def_cfa_offset 32
	popq	%rbp
	.cfi_def_cfa_offset 24
	popq	%r12
	.cfi_def_cfa_offset 16
	popq	%r13
	.cfi_def_cfa_offset 8
	ret
	.p2align 4,,10
	.p2align 3
.L1001:
	.cfi_restore_state
	addl	$1, 8(%rax)
	jmp	.L1000
	.p2align 4,,10
	.p2align 3
.L1003:
	addl	$1, 8(%rax)
	jmp	.L1002
	.p2align 4,,10
	.p2align 3
.L1013:
	movl	8(%rbp), %eax
	leal	-1(%rax), %edx
	movl	%edx, 8(%rbp)
	cmpl	$1, %eax
	jne	.L1012
.L1042:
	movq	0(%rbp), %rax
	movq	%rbp, %rdi
	call	*16(%rax)
	testq	%rbx, %rbx
	je	.L1016
	movl	$-1, %eax
	lock xaddl	%eax, 12(%rbp)
.L1017:
	cmpl	$1, %eax
	jne	.L1012
	movq	0(%rbp), %rax
	movq	%rbp, %rdi
	call	*24(%rax)
	jmp	.L1012
	.p2align 4,,10
	.p2align 3
.L1006:
	movl	8(%rbp), %eax
	leal	-1(%rax), %edx
	movl	%edx, 8(%rbp)
	cmpl	$1, %eax
	jne	.L1005
.L1041:
	movq	0(%rbp), %rax
	movq	%rbp, %rdi
	call	*16(%rax)
	testq	%rbx, %rbx
	je	.L1009
	movl	$-1, %eax
	lock xaddl	%eax, 12(%rbp)
.L1010:
	cmpl	$1, %eax
	jne	.L1005
	movq	0(%rbp), %rax
	movq	%rbp, %rdi
	call	*24(%rax)
	jmp	.L1005
	.p2align 4,,10
	.p2align 3
.L1020:
	movl	8(%rbp), %eax
	leal	-1(%rax), %edx
	movl	%edx, 8(%rbp)
	cmpl	$1, %eax
	jne	.L999
.L1043:
	movq	0(%rbp), %rax
	movq	%rbp, %rdi
	call	*16(%rax)
	testq	%rbx, %rbx
	je	.L1023
	movl	$-1, %eax
	lock xaddl	%eax, 12(%rbp)
.L1024:
	cmpl	$1, %eax
	jne	.L999
	movq	0(%rbp), %rax
	movq	%rbp, %rdi
	call	*24(%rax)
	jmp	.L999
	.p2align 4,,10
	.p2align 3
.L1016:
	movl	12(%rbp), %eax
	leal	-1(%rax), %edx
	movl	%edx, 12(%rbp)
	jmp	.L1017
	.p2align 4,,10
	.p2align 3
.L1009:
	movl	12(%rbp), %eax
	leal	-1(%rax), %edx
	movl	%edx, 12(%rbp)
	jmp	.L1010
	.p2align 4,,10
	.p2align 3
.L1023:
	movl	12(%rbp), %eax
	leal	-1(%rax), %edx
	movl	%edx, 12(%rbp)
	jmp	.L1024
.L1044:
	call	__stack_chk_fail@PLT
.L1029:
	endbr64
	movq	%rax, %rbp
	jmp	.L1027
.L1030:
	endbr64
	movq	%rax, %rbp
	jmp	.L1025
	.section	.gcc_except_table
.LLSDA3405:
	.byte	0xff
	.byte	0xff
	.byte	0x1
	.uleb128 .LLSDACSE3405-.LLSDACSB3405
.LLSDACSB3405:
	.uleb128 .LEHB15-.LFB3405
	.uleb128 .LEHE15-.LEHB15
	.uleb128 .L1029-.LFB3405
	.uleb128 0
	.uleb128 .LEHB16-.LFB3405
	.uleb128 .LEHE16-.LEHB16
	.uleb128 .L1030-.LFB3405
	.uleb128 0
.LLSDACSE3405:
	.text
	.cfi_endproc
	.section	.text.unlikely
	.cfi_startproc
	.cfi_personality 0x9b,DW.ref.__gxx_personality_v0
	.cfi_lsda 0x1b,.LLSDAC3405
	.type	_ZN8opendnp38MContext13DirectOperateEONS_10CommandSetERKSt8functionIFvRKNS_18ICommandTaskResultEEERKNS_10TaskConfigE.cold, @function
_ZN8opendnp38MContext13DirectOperateEONS_10CommandSetERKSt8functionIFvRKNS_18ICommandTaskResultEEERKNS_10TaskConfigE.cold:
.LFSB3405:
.L1025:
	.cfi_def_cfa_offset 112
	.cfi_offset 3, -40
	.cfi_offset 6, -32
	.cfi_offset 12, -24
	.cfi_offset 13, -16
	movq	8(%rsp), %rdi
	testq	%rdi, %rdi
	je	.L1027
	call	_ZNSt16_Sp_counted_baseILN9__gnu_cxx12_Lock_policyE2EE10_M_releaseEv@PLT
.L1027:
	movq	%r13, %rdi
	call	_ZN7openpal6LoggerD1Ev@PLT
	movq	%rbp, %rdi
.LEHB17:
	call	_Unwind_Resume@PLT
.LEHE17:
	.cfi_endproc
.LFE3405:
	.section	.gcc_except_table
.LLSDAC3405:
	.byte	0xff
	.byte	0xff
	.byte	0x1
	.uleb128 .LLSDACSEC3405-.LLSDACSBC3405
.LLSDACSBC3405:
	.uleb128 .LEHB17-.LCOLDB23
	.uleb128 .LEHE17-.LEHB17
	.uleb128 0
	.uleb128 0
.LLSDACSEC3405:
	.section	.text.unlikely
	.text
	.size	_ZN8opendnp38MContext13DirectOperateEONS_10CommandSetERKSt8functionIFvRKNS_18ICommandTaskResultEEERKNS_10TaskConfigE, .-_ZN8opendnp38MContext13DirectOperateEONS_10CommandSetERKSt8functionIFvRKNS_18ICommandTaskResultEEERKNS_10TaskConfigE
	.section	.text.unlikely
	.size	_ZN8opendnp38MContext13DirectOperateEONS_10CommandSetERKSt8functionIFvRKNS_18ICommandTaskResultEEERKNS_10TaskConfigE.cold, .-_ZN8opendnp38MContext13DirectOperateEONS_10CommandSetERKSt8functionIFvRKNS_18ICommandTaskResultEEERKNS_10TaskConfigE.cold
.LCOLDE23:
	.text
.LHOTE23:
	.section	.text.unlikely
	.align 2
.LCOLDB24:
	.text
.LHOTB24:
	.align 2
	.p2align 4
	.globl	_ZN8opendnp38MContext16SelectAndOperateEONS_10CommandSetERKSt8functionIFvRKNS_18ICommandTaskResultEEERKNS_10TaskConfigE
	.type	_ZN8opendnp38MContext16SelectAndOperateEONS_10CommandSetERKSt8functionIFvRKNS_18ICommandTaskResultEEERKNS_10TaskConfigE, @function
_ZN8opendnp38MContext16SelectAndOperateEONS_10CommandSetERKSt8functionIFvRKNS_18ICommandTaskResultEEERKNS_10TaskConfigE:
.LFB3407:
	.cfi_startproc
	.cfi_personality 0x9b,DW.ref.__gxx_personality_v0
	.cfi_lsda 0x1b,.LLSDA3407
	endbr64
	pushq	%r13
	.cfi_def_cfa_offset 16
	.cfi_offset 13, -16
	movq	%rdx, %r10
	movq	%rcx, %r8
	pushq	%r12
	.cfi_def_cfa_offset 24
	.cfi_offset 12, -24
	pushq	%rbp
	.cfi_def_cfa_offset 32
	.cfi_offset 6, -32
	movq	%rdi, %rbp
	pushq	%rbx
	.cfi_def_cfa_offset 40
	.cfi_offset 3, -40
	subq	$72, %rsp
	.cfi_def_cfa_offset 112
	movdqu	24(%rdi), %xmm0
	movq	%fs:40, %rax
	movq	%rax, 56(%rsp)
	xorl	%eax, %eax
	movq	32(%rdi), %rax
	movaps	%xmm0, 16(%rsp)
	testq	%rax, %rax
	je	.L1046
	cmpq	$0, _ZL28__gthrw___pthread_key_createPjPFvPvE@GOTPCREL(%rip)
	je	.L1047
	lock addl	$1, 8(%rax)
.L1046:
	movdqu	40(%rbp), %xmm1
	movq	48(%rbp), %rax
	movaps	%xmm1, 32(%rsp)
	testq	%rax, %rax
	je	.L1048
	cmpq	$0, _ZL28__gthrw___pthread_key_createPjPFvPvE@GOTPCREL(%rip)
	je	.L1049
	lock addl	$1, 8(%rax)
.L1048:
	movq	%rsp, %r12
	leaq	16(%rsp), %r13
	movq	144(%rbp), %rdx
	movq	%r10, %rcx
	movq	%r13, %r9
	movq	%r12, %rdi
.LEHB18:
	call	_ZN8opendnp311CommandTask22CreateSelectAndOperateEONS_10CommandSetERNS_18IMasterApplicationERKSt8functionIFvRKNS_18ICommandTaskResultEEERKNS_10TaskConfigEN7openpal6LoggerE@PLT
.LEHE18:
	movq	%r12, %rsi
	movq	%rbp, %rdi
.LEHB19:
	call	_ZN8opendnp38MContext17ScheduleAdhocTaskERKSt10shared_ptrINS_11IMasterTaskEE@PLT
.LEHE19:
	movq	8(%rsp), %rbp
	testq	%rbp, %rbp
	je	.L1051
	movq	_ZL28__gthrw___pthread_key_createPjPFvPvE@GOTPCREL(%rip), %rbx
	testq	%rbx, %rbx
	je	.L1052
	movl	$-1, %eax
	lock xaddl	%eax, 8(%rbp)
	cmpl	$1, %eax
	je	.L1087
	.p2align 4,,10
	.p2align 3
.L1051:
	movq	40(%rsp), %rbp
	testq	%rbp, %rbp
	je	.L1058
	movq	_ZL28__gthrw___pthread_key_createPjPFvPvE@GOTPCREL(%rip), %rbx
	testq	%rbx, %rbx
	je	.L1059
	movl	$-1, %eax
	lock xaddl	%eax, 8(%rbp)
	cmpl	$1, %eax
	je	.L1088
	.p2align 4,,10
	.p2align 3
.L1058:
	movq	24(%rsp), %rbp
	testq	%rbp, %rbp
	je	.L1045
	movq	_ZL28__gthrw___pthread_key_createPjPFvPvE@GOTPCREL(%rip), %rbx
	testq	%rbx, %rbx
	je	.L1066
	movl	$-1, %eax
	lock xaddl	%eax, 8(%rbp)
	cmpl	$1, %eax
	je	.L1089
	.p2align 4,,10
	.p2align 3
.L1045:
	movq	56(%rsp), %rax
	xorq	%fs:40, %rax
	jne	.L1090
	addq	$72, %rsp
	.cfi_remember_state
	.cfi_def_cfa_offset 40
	popq	%rbx
	.cfi_def_cfa_offset 32
	popq	%rbp
	.cfi_def_cfa_offset 24
	popq	%r12
	.cfi_def_cfa_offset 16
	popq	%r13
	.cfi_def_cfa_offset 8
	ret
	.p2align 4,,10
	.p2align 3
.L1047:
	.cfi_restore_state
	addl	$1, 8(%rax)
	jmp	.L1046
	.p2align 4,,10
	.p2align 3
.L1049:
	addl	$1, 8(%rax)
	jmp	.L1048
	.p2align 4,,10
	.p2align 3
.L1059:
	movl	8(%rbp), %eax
	leal	-1(%rax), %edx
	movl	%edx, 8(%rbp)
	cmpl	$1, %eax
	jne	.L1058
.L1088:
	movq	0(%rbp), %rax
	movq	%rbp, %rdi
	call	*16(%rax)
	testq	%rbx, %rbx
	je	.L1062
	movl	$-1, %eax
	lock xaddl	%eax, 12(%rbp)
.L1063:
	cmpl	$1, %eax
	jne	.L1058
	movq	0(%rbp), %rax
	movq	%rbp, %rdi
	call	*24(%rax)
	jmp	.L1058
	.p2align 4,,10
	.p2align 3
.L1052:
	movl	8(%rbp), %eax
	leal	-1(%rax), %edx
	movl	%edx, 8(%rbp)
	cmpl	$1, %eax
	jne	.L1051
.L1087:
	movq	0(%rbp), %rax
	movq	%rbp, %rdi
	call	*16(%rax)
	testq	%rbx, %rbx
	je	.L1055
	movl	$-1, %eax
	lock xaddl	%eax, 12(%rbp)
.L1056:
	cmpl	$1, %eax
	jne	.L1051
	movq	0(%rbp), %rax
	movq	%rbp, %rdi
	call	*24(%rax)
	jmp	.L1051
	.p2align 4,,10
	.p2align 3
.L1066:
	movl	8(%rbp), %eax
	leal	-1(%rax), %edx
	movl	%edx, 8(%rbp)
	cmpl	$1, %eax
	jne	.L1045
.L1089:
	movq	0(%rbp), %rax
	movq	%rbp, %rdi
	call	*16(%rax)
	testq	%rbx, %rbx
	je	.L1069
	movl	$-1, %eax
	lock xaddl	%eax, 12(%rbp)
.L1070:
	cmpl	$1, %eax
	jne	.L1045
	movq	0(%rbp), %rax
	movq	%rbp, %rdi
	call	*24(%rax)
	jmp	.L1045
	.p2align 4,,10
	.p2align 3
.L1062:
	movl	12(%rbp), %eax
	leal	-1(%rax), %edx
	movl	%edx, 12(%rbp)
	jmp	.L1063
	.p2align 4,,10
	.p2align 3
.L1055:
	movl	12(%rbp), %eax
	leal	-1(%rax), %edx
	movl	%edx, 12(%rbp)
	jmp	.L1056
	.p2align 4,,10
	.p2align 3
.L1069:
	movl	12(%rbp), %eax
	leal	-1(%rax), %edx
	movl	%edx, 12(%rbp)
	jmp	.L1070
.L1090:
	call	__stack_chk_fail@PLT
.L1075:
	endbr64
	movq	%rax, %rbp
	jmp	.L1073
.L1076:
	endbr64
	movq	%rax, %rbp
	jmp	.L1071
	.section	.gcc_except_table
.LLSDA3407:
	.byte	0xff
	.byte	0xff
	.byte	0x1
	.uleb128 .LLSDACSE3407-.LLSDACSB3407
.LLSDACSB3407:
	.uleb128 .LEHB18-.LFB3407
	.uleb128 .LEHE18-.LEHB18
	.uleb128 .L1075-.LFB3407
	.uleb128 0
	.uleb128 .LEHB19-.LFB3407
	.uleb128 .LEHE19-.LEHB19
	.uleb128 .L1076-.LFB3407
	.uleb128 0
.LLSDACSE3407:
	.text
	.cfi_endproc
	.section	.text.unlikely
	.cfi_startproc
	.cfi_personality 0x9b,DW.ref.__gxx_personality_v0
	.cfi_lsda 0x1b,.LLSDAC3407
	.type	_ZN8opendnp38MContext16SelectAndOperateEONS_10CommandSetERKSt8functionIFvRKNS_18ICommandTaskResultEEERKNS_10TaskConfigE.cold, @function
_ZN8opendnp38MContext16SelectAndOperateEONS_10CommandSetERKSt8functionIFvRKNS_18ICommandTaskResultEEERKNS_10TaskConfigE.cold:
.LFSB3407:
.L1071:
	.cfi_def_cfa_offset 112
	.cfi_offset 3, -40
	.cfi_offset 6, -32
	.cfi_offset 12, -24
	.cfi_offset 13, -16
	movq	8(%rsp), %rdi
	testq	%rdi, %rdi
	je	.L1073
	call	_ZNSt16_Sp_counted_baseILN9__gnu_cxx12_Lock_policyE2EE10_M_releaseEv@PLT
.L1073:
	movq	%r13, %rdi
	call	_ZN7openpal6LoggerD1Ev@PLT
	movq	%rbp, %rdi
.LEHB20:
	call	_Unwind_Resume@PLT
.LEHE20:
	.cfi_endproc
.LFE3407:
	.section	.gcc_except_table
.LLSDAC3407:
	.byte	0xff
	.byte	0xff
	.byte	0x1
	.uleb128 .LLSDACSEC3407-.LLSDACSBC3407
.LLSDACSBC3407:
	.uleb128 .LEHB20-.LCOLDB24
	.uleb128 .LEHE20-.LEHB20
	.uleb128 0
	.uleb128 0
.LLSDACSEC3407:
	.section	.text.unlikely
	.text
	.size	_ZN8opendnp38MContext16SelectAndOperateEONS_10CommandSetERKSt8functionIFvRKNS_18ICommandTaskResultEEERKNS_10TaskConfigE, .-_ZN8opendnp38MContext16SelectAndOperateEONS_10CommandSetERKSt8functionIFvRKNS_18ICommandTaskResultEEERKNS_10TaskConfigE
	.section	.text.unlikely
	.size	_ZN8opendnp38MContext16SelectAndOperateEONS_10CommandSetERKSt8functionIFvRKNS_18ICommandTaskResultEEERKNS_10TaskConfigE.cold, .-_ZN8opendnp38MContext16SelectAndOperateEONS_10CommandSetERKSt8functionIFvRKNS_18ICommandTaskResultEEERKNS_10TaskConfigE.cold
.LCOLDE24:
	.text
.LHOTE24:
	.section	.text.unlikely
	.align 2
.LCOLDB25:
	.text
.LHOTB25:
	.align 2
	.p2align 4
	.globl	_ZN8opendnp38MContextC2ERKN7openpal6LoggerERKSt10shared_ptrINS1_9IExecutorEERKS5_INS_11ILowerLayerEERKS5_INS_11ISOEHandlerEERKS5_INS_18IMasterApplicationEERKNS_12MasterParamsERNS_9ITaskLockE
	.type	_ZN8opendnp38MContextC2ERKN7openpal6LoggerERKSt10shared_ptrINS1_9IExecutorEERKS5_INS_11ILowerLayerEERKS5_INS_11ISOEHandlerEERKS5_INS_18IMasterApplicationEERKNS_12MasterParamsERNS_9ITaskLockE, @function
_ZN8opendnp38MContextC2ERKN7openpal6LoggerERKSt10shared_ptrINS1_9IExecutorEERKS5_INS_11ILowerLayerEERKS5_INS_11ISOEHandlerEERKS5_INS_18IMasterApplicationEERKNS_12MasterParamsERNS_9ITaskLockE:
.LFB3395:
	.cfi_startproc
	.cfi_personality 0x9b,DW.ref.__gxx_personality_v0
	.cfi_lsda 0x1b,.LLSDA3395
	endbr64
	pushq	%r15
	.cfi_def_cfa_offset 16
	.cfi_offset 15, -16
	pushq	%r14
	.cfi_def_cfa_offset 24
	.cfi_offset 14, -24
	movq	%r8, %r14
	pushq	%r13
	.cfi_def_cfa_offset 32
	.cfi_offset 13, -32
	movq	%r9, %r13
	pushq	%r12
	.cfi_def_cfa_offset 40
	.cfi_offset 12, -40
	movq	%rsi, %r12
	pushq	%rbp
	.cfi_def_cfa_offset 48
	.cfi_offset 6, -48
	movq	%rdx, %rbp
	pushq	%rbx
	.cfi_def_cfa_offset 56
	.cfi_offset 3, -56
	movq	%rdi, %rbx
	subq	$40, %rsp
	.cfi_def_cfa_offset 96
	movq	_ZTVN8opendnp38MContextE@GOTPCREL(%rip), %rax
	movq	96(%rsp), %r15
	leaq	128(%rax), %rdx
	leaq	16(%rax), %rsi
	addq	$152, %rax
	movq	%rax, 16(%rdi)
	movq	(%r12), %rax
	movq	%rsi, %xmm0
	movq	%rdx, %xmm1
	punpcklqdq	%xmm1, %xmm0
	movq	%rax, 24(%rdi)
	movq	8(%r12), %rax
	movups	%xmm0, (%rdi)
	movq	%rax, 32(%rdi)
	testq	%rax, %rax
	je	.L1092
	cmpq	$0, _ZL28__gthrw___pthread_key_createPjPFvPvE@GOTPCREL(%rip)
	je	.L1093
	lock addl	$1, 8(%rax)
.L1092:
	movq	16(%r12), %rax
	movq	%rax, 40(%rbx)
	movq	24(%r12), %rax
	movq	%rax, 48(%rbx)
	testq	%rax, %rax
	je	.L1094
	cmpq	$0, _ZL28__gthrw___pthread_key_createPjPFvPvE@GOTPCREL(%rip)
	je	.L1095
	lock addl	$1, 8(%rax)
.L1094:
	movq	0(%rbp), %rax
	movq	%rax, 56(%rbx)
	movq	8(%rbp), %rax
	movq	%rax, 64(%rbx)
	testq	%rax, %rax
	je	.L1096
	cmpq	$0, _ZL28__gthrw___pthread_key_createPjPFvPvE@GOTPCREL(%rip)
	je	.L1097
	lock addl	$1, 8(%rax)
.L1096:
	movq	(%rcx), %rax
	movq	%rax, 72(%rbx)
	movq	8(%rcx), %rax
	movq	%rax, 80(%rbx)
	testq	%rax, %rax
	je	.L1098
	cmpq	$0, _ZL28__gthrw___pthread_key_createPjPFvPvE@GOTPCREL(%rip)
	je	.L1099
	lock addl	$1, 8(%rax)
.L1098:
	movq	32(%r15), %rax
	movdqu	(%r15), %xmm2
	movdqu	16(%r15), %xmm3
	movq	%rax, 120(%rbx)
	movq	(%r14), %rax
	movups	%xmm2, 88(%rbx)
	movq	%rax, 128(%rbx)
	movq	8(%r14), %rax
	movups	%xmm3, 104(%rbx)
	movq	%rax, 136(%rbx)
	testq	%rax, %rax
	je	.L1100
	cmpq	$0, _ZL28__gthrw___pthread_key_createPjPFvPvE@GOTPCREL(%rip)
	je	.L1101
	lock addl	$1, 8(%rax)
.L1100:
	movq	0(%r13), %rax
	movq	%rax, 144(%rbx)
	movq	8(%r13), %rax
	movq	%rax, 152(%rbx)
	testq	%rax, %rax
	je	.L1102
	cmpq	$0, _ZL28__gthrw___pthread_key_createPjPFvPvE@GOTPCREL(%rip)
	je	.L1103
	lock addl	$1, 8(%rax)
.L1102:
	movq	104(%rsp), %rax
	pxor	%xmm0, %xmm0
	movl	$0, 168(%rbx)
	movups	%xmm0, 176(%rbx)
	movq	0(%rbp), %rsi
	movq	%rax, 160(%rbx)
	leaq	192(%rbx), %rax
	movq	%rax, %rdi
	movq	%rax, 8(%rsp)
.LEHB21:
	call	_ZN7openpal8TimerRefC1ERNS_9IExecutorE@PLT
.LEHE21:
	leaq	208(%rbx), %rax
	movq	0(%rbp), %rsi
	movq	%rax, %rdi
	movq	%rax, 16(%rsp)
.LEHB22:
	call	_ZN7openpal8TimerRefC1ERNS_9IExecutorE@PLT
.LEHE22:
	leaq	224(%rbx), %rax
	movq	0(%rbp), %rsi
	movq	%rax, %rdi
	movq	%rax, 24(%rsp)
.LEHB23:
	call	_ZN7openpal8TimerRefC1ERNS_9IExecutorE@PLT
.LEHE23:
	leaq	240(%rbx), %rbp
	movq	(%r14), %r8
	movq	%r12, %rdx
	movq	%r15, %rsi
	movq	0(%r13), %rcx
	movq	%rbp, %rdi
.LEHB24:
	call	_ZN8opendnp311MasterTasksC1ERKNS_12MasterParamsERKN7openpal6LoggerERNS_18IMasterApplicationERNS_11ISOEHandlerE@PLT
.LEHE24:
	leaq	16(%rbx), %rsi
	leaq	376(%rbx), %rdi
.LEHB25:
	call	_ZN8opendnp315MasterSchedulerC1ERNS_11ITaskFilterE@PLT
.LEHE25:
	movq	$0, 408(%rbx)
	pxor	%xmm0, %xmm0
	movl	$64, %edi
	movq	$8, 416(%rbx)
	movups	%xmm0, 424(%rbx)
	movups	%xmm0, 440(%rbx)
	movups	%xmm0, 456(%rbx)
	movups	%xmm0, 472(%rbx)
.LEHB26:
	call	_Znwm@PLT
.LEHE26:
	movq	416(%rbx), %rdx
	movq	%rax, 408(%rbx)
	movl	$510, %edi
	leaq	-4(,%rdx,4), %r12
	andq	$-8, %r12
	addq	%rax, %r12
.LEHB27:
	call	_Znwm@PLT
.LEHE27:
	leaq	510(%rax), %rdx
	movq	%rax, %xmm0
	movq	%rax, (%r12)
	movl	32(%r15), %esi
	movq	%r12, 448(%rbx)
	punpcklqdq	%xmm0, %xmm0
	leaq	488(%rbx), %rdi
	movq	%rdx, 440(%rbx)
	movq	%r12, 480(%rbx)
	movq	%rax, 464(%rbx)
	movq	%rdx, 472(%rbx)
	movq	%rax, 456(%rbx)
	movups	%xmm0, 424(%rbx)
.LEHB28:
	call	_ZN7openpal6BufferC1Ej@PLT
.LEHE28:
	movl	$0, 512(%rbx)
	addq	$40, %rsp
	.cfi_remember_state
	.cfi_def_cfa_offset 56
	popq	%rbx
	.cfi_def_cfa_offset 48
	popq	%rbp
	.cfi_def_cfa_offset 40
	popq	%r12
	.cfi_def_cfa_offset 32
	popq	%r13
	.cfi_def_cfa_offset 24
	popq	%r14
	.cfi_def_cfa_offset 16
	popq	%r15
	.cfi_def_cfa_offset 8
	ret
	.p2align 4,,10
	.p2align 3
.L1093:
	.cfi_restore_state
	addl	$1, 8(%rax)
	jmp	.L1092
	.p2align 4,,10
	.p2align 3
.L1097:
	addl	$1, 8(%rax)
	jmp	.L1096
	.p2align 4,,10
	.p2align 3
.L1095:
	addl	$1, 8(%rax)
	jmp	.L1094
	.p2align 4,,10
	.p2align 3
.L1101:
	addl	$1, 8(%rax)
	jmp	.L1100
	.p2align 4,,10
	.p2align 3
.L1099:
	addl	$1, 8(%rax)
	jmp	.L1098
	.p2align 4,,10
	.p2align 3
.L1103:
	addl	$1, 8(%rax)
	jmp	.L1102
.L1129:
	endbr64
	movq	%rax, %r13
	jmp	.L1109
.L1123:
	endbr64
	movq	%rax, %rbp
	jmp	.L1117
.L1132:
	endbr64
	movq	%rax, %rdi
	jmp	.L1105
.L1128:
	endbr64
	movq	%rax, %r13
	jmp	.L1108
.L1125:
	endbr64
	movq	%rax, %rbp
	jmp	.L1115
.L1127:
	endbr64
	movq	%rax, %r13
	jmp	.L1113
.L1126:
	endbr64
	movq	%rax, %rbp
	jmp	.L1114
.L1124:
	endbr64
	movq	%rax, %rbp
	jmp	.L1116
	.section	.gcc_except_table
	.align 4
.LLSDA3395:
	.byte	0xff
	.byte	0x9b
	.uleb128 .LLSDATT3395-.LLSDATTD3395
.LLSDATTD3395:
	.byte	0x1
	.uleb128 .LLSDACSE3395-.LLSDACSB3395
.LLSDACSB3395:
	.uleb128 .LEHB21-.LFB3395
	.uleb128 .LEHE21-.LEHB21
	.uleb128 .L1123-.LFB3395
	.uleb128 0
	.uleb128 .LEHB22-.LFB3395
	.uleb128 .LEHE22-.LEHB22
	.uleb128 .L1124-.LFB3395
	.uleb128 0
	.uleb128 .LEHB23-.LFB3395
	.uleb128 .LEHE23-.LEHB23
	.uleb128 .L1125-.LFB3395
	.uleb128 0
	.uleb128 .LEHB24-.LFB3395
	.uleb128 .LEHE24-.LEHB24
	.uleb128 .L1126-.LFB3395
	.uleb128 0
	.uleb128 .LEHB25-.LFB3395
	.uleb128 .LEHE25-.LEHB25
	.uleb128 .L1127-.LFB3395
	.uleb128 0
	.uleb128 .LEHB26-.LFB3395
	.uleb128 .LEHE26-.LEHB26
	.uleb128 .L1128-.LFB3395
	.uleb128 0
	.uleb128 .LEHB27-.LFB3395
	.uleb128 .LEHE27-.LEHB27
	.uleb128 .L1132-.LFB3395
	.uleb128 0x1
	.uleb128 .LEHB28-.LFB3395
	.uleb128 .LEHE28-.LEHB28
	.uleb128 .L1129-.LFB3395
	.uleb128 0
.LLSDACSE3395:
	.byte	0x1
	.byte	0
	.align 4
	.long	0

.LLSDATT3395:
	.text
	.cfi_endproc
	.section	.text.unlikely
	.cfi_startproc
	.cfi_personality 0x9b,DW.ref.__gxx_personality_v0
	.cfi_lsda 0x1b,.LLSDAC3395
	.type	_ZN8opendnp38MContextC2ERKN7openpal6LoggerERKSt10shared_ptrINS1_9IExecutorEERKS5_INS_11ILowerLayerEERKS5_INS_11ISOEHandlerEERKS5_INS_18IMasterApplicationEERKNS_12MasterParamsERNS_9ITaskLockE.cold, @function
_ZN8opendnp38MContextC2ERKN7openpal6LoggerERKSt10shared_ptrINS1_9IExecutorEERKS5_INS_11ILowerLayerEERKS5_INS_11ISOEHandlerEERKS5_INS_18IMasterApplicationEERKNS_12MasterParamsERNS_9ITaskLockE.cold:
.LFSB3395:
.L1109:
	.cfi_def_cfa_offset 96
	.cfi_offset 3, -56
	.cfi_offset 6, -48
	.cfi_offset 12, -40
	.cfi_offset 13, -32
	.cfi_offset 14, -24
	.cfi_offset 15, -16
	cmpq	$0, 408(%rbx)
	jne	.L1169
.L1108:
	leaq	384(%rbx), %rdi
	call	_ZNSt6vectorISt10shared_ptrIN8opendnp311IMasterTaskEESaIS3_EED1Ev@PLT
.L1113:
	movq	%rbp, %rdi
	movq	%r13, %rbp
	call	_ZN8opendnp311MasterTasksD1Ev@PLT
.L1114:
	movq	24(%rsp), %rdi
	call	_ZN7openpal8TimerRefD1Ev@PLT
.L1115:
	movq	16(%rsp), %rdi
	call	_ZN7openpal8TimerRefD1Ev@PLT
.L1116:
	movq	8(%rsp), %rdi
	call	_ZN7openpal8TimerRefD1Ev@PLT
.L1117:
	movq	184(%rbx), %rdi
	testq	%rdi, %rdi
	je	.L1118
	call	_ZNSt16_Sp_counted_baseILN9__gnu_cxx12_Lock_policyE2EE10_M_releaseEv@PLT
.L1118:
	movq	152(%rbx), %rdi
	testq	%rdi, %rdi
	je	.L1119
	call	_ZNSt16_Sp_counted_baseILN9__gnu_cxx12_Lock_policyE2EE10_M_releaseEv@PLT
.L1119:
	movq	136(%rbx), %rdi
	testq	%rdi, %rdi
	je	.L1120
	call	_ZNSt16_Sp_counted_baseILN9__gnu_cxx12_Lock_policyE2EE10_M_releaseEv@PLT
.L1120:
	movq	80(%rbx), %rdi
	testq	%rdi, %rdi
	je	.L1121
	call	_ZNSt16_Sp_counted_baseILN9__gnu_cxx12_Lock_policyE2EE10_M_releaseEv@PLT
.L1121:
	movq	64(%rbx), %rdi
	testq	%rdi, %rdi
	je	.L1122
	call	_ZNSt16_Sp_counted_baseILN9__gnu_cxx12_Lock_policyE2EE10_M_releaseEv@PLT
.L1122:
	leaq	24(%rbx), %rdi
	call	_ZN7openpal6LoggerD1Ev@PLT
	movq	%rbp, %rdi
.LEHB29:
	call	_Unwind_Resume@PLT
.LEHE29:
.L1169:
	movq	480(%rbx), %rax
	movq	448(%rbx), %r14
	leaq	8(%rax), %r12
.L1112:
	cmpq	%r14, %r12
	ja	.L1170
	movq	408(%rbx), %rdi
	call	_ZdlPv@PLT
	jmp	.L1108
.L1105:
	call	__cxa_begin_catch@PLT
.LEHB30:
	call	__cxa_rethrow@PLT
.LEHE30:
.L1170:
	movq	(%r14), %rdi
	addq	$8, %r14
	call	_ZdlPv@PLT
	jmp	.L1112
.L1131:
	endbr64
	movq	%rax, %r12
	call	__cxa_end_catch@PLT
	movq	%r12, %rdi
	call	__cxa_begin_catch@PLT
	movq	408(%rbx), %rdi
	call	_ZdlPv@PLT
	movq	$0, 408(%rbx)
	movq	$0, 416(%rbx)
.LEHB31:
	call	__cxa_rethrow@PLT
.LEHE31:
.L1130:
	endbr64
	movq	%rax, %r13
	call	__cxa_end_catch@PLT
	jmp	.L1108
	.cfi_endproc
.LFE3395:
	.section	.gcc_except_table
	.align 4
.LLSDAC3395:
	.byte	0xff
	.byte	0x9b
	.uleb128 .LLSDATTC3395-.LLSDATTDC3395
.LLSDATTDC3395:
	.byte	0x1
	.uleb128 .LLSDACSEC3395-.LLSDACSBC3395
.LLSDACSBC3395:
	.uleb128 .LEHB29-.LCOLDB25
	.uleb128 .LEHE29-.LEHB29
	.uleb128 0
	.uleb128 0
	.uleb128 .LEHB30-.LCOLDB25
	.uleb128 .LEHE30-.LEHB30
	.uleb128 .L1131-.LCOLDB25
	.uleb128 0x1
	.uleb128 .LEHB31-.LCOLDB25
	.uleb128 .LEHE31-.LEHB31
	.uleb128 .L1130-.LCOLDB25
	.uleb128 0
.LLSDACSEC3395:
	.byte	0x1
	.byte	0
	.align 4
	.long	0

.LLSDATTC3395:
	.section	.text.unlikely
	.text
	.size	_ZN8opendnp38MContextC2ERKN7openpal6LoggerERKSt10shared_ptrINS1_9IExecutorEERKS5_INS_11ILowerLayerEERKS5_INS_11ISOEHandlerEERKS5_INS_18IMasterApplicationEERKNS_12MasterParamsERNS_9ITaskLockE, .-_ZN8opendnp38MContextC2ERKN7openpal6LoggerERKSt10shared_ptrINS1_9IExecutorEERKS5_INS_11ILowerLayerEERKS5_INS_11ISOEHandlerEERKS5_INS_18IMasterApplicationEERKNS_12MasterParamsERNS_9ITaskLockE
	.section	.text.unlikely
	.size	_ZN8opendnp38MContextC2ERKN7openpal6LoggerERKSt10shared_ptrINS1_9IExecutorEERKS5_INS_11ILowerLayerEERKS5_INS_11ISOEHandlerEERKS5_INS_18IMasterApplicationEERKNS_12MasterParamsERNS_9ITaskLockE.cold, .-_ZN8opendnp38MContextC2ERKN7openpal6LoggerERKSt10shared_ptrINS1_9IExecutorEERKS5_INS_11ILowerLayerEERKS5_INS_11ISOEHandlerEERKS5_INS_18IMasterApplicationEERKNS_12MasterParamsERNS_9ITaskLockE.cold
.LCOLDE25:
	.text
.LHOTE25:
	.globl	_ZN8opendnp38MContextC1ERKN7openpal6LoggerERKSt10shared_ptrINS1_9IExecutorEERKS5_INS_11ILowerLayerEERKS5_INS_11ISOEHandlerEERKS5_INS_18IMasterApplicationEERKNS_12MasterParamsERNS_9ITaskLockE
	.set	_ZN8opendnp38MContextC1ERKN7openpal6LoggerERKSt10shared_ptrINS1_9IExecutorEERKS5_INS_11ILowerLayerEERKS5_INS_11ISOEHandlerEERKS5_INS_18IMasterApplicationEERKNS_12MasterParamsERNS_9ITaskLockE,_ZN8opendnp38MContextC2ERKN7openpal6LoggerERKSt10shared_ptrINS1_9IExecutorEERKS5_INS_11ILowerLayerEERKS5_INS_11ISOEHandlerEERKS5_INS_18IMasterApplicationEERKNS_12MasterParamsERNS_9ITaskLockE
	.section	.text.unlikely
	.align 2
.LCOLDB26:
	.text
.LHOTB26:
	.align 2
	.p2align 4
	.globl	_ZN8opendnp38MContext7AddScanEN7openpal12TimeDurationERKSt8functionIFbRNS_12HeaderWriterEEENS_10TaskConfigE
	.type	_ZN8opendnp38MContext7AddScanEN7openpal12TimeDurationERKSt8functionIFbRNS_12HeaderWriterEEENS_10TaskConfigE, @function
_ZN8opendnp38MContext7AddScanEN7openpal12TimeDurationERKSt8functionIFbRNS_12HeaderWriterEEENS_10TaskConfigE:
.LFB3422:
	.cfi_startproc
	.cfi_personality 0x9b,DW.ref.__gxx_personality_v0
	.cfi_lsda 0x1b,.LLSDA3422
	endbr64
	pushq	%rbp
	.cfi_def_cfa_offset 16
	.cfi_offset 6, -16
	movq	%rsp, %rbp
	.cfi_def_cfa_register 6
	pushq	%r15
	.cfi_offset 15, -24
	movq	%r9, %r15
	pushq	%r14
	.cfi_offset 14, -32
	movq	%r8, %r14
	pushq	%r13
	.cfi_offset 13, -40
	movq	%rdi, %r13
	movl	$176, %edi
	pushq	%r12
	pushq	%rbx
	subq	$120, %rsp
	.cfi_offset 12, -48
	.cfi_offset 3, -56
	movq	%rdx, -152(%rbp)
	movq	144(%rsi), %r9
	movq	%rcx, -144(%rbp)
	movq	128(%rsi), %rcx
	movq	%fs:40, %rbx
	movq	%rbx, -56(%rbp)
	xorl	%ebx, %ebx
	movq	%rcx, -136(%rbp)
	movabsq	$4294967297, %rbx
	movq	%rsi, -104(%rbp)
	movq	%r9, -112(%rbp)
.LEHB32:
	call	_Znwm@PLT
.LEHE32:
	movq	-104(%rbp), %rcx
	movq	-112(%rbp), %r9
	movq	%rbx, 8(%rax)
	movq	%rax, %r12
	movq	_ZTVSt23_Sp_counted_ptr_inplaceIN8opendnp312UserPollTaskESaIS1_ELN9__gnu_cxx12_Lock_policyE2EE@GOTPCREL(%rip), %rax
	movdqu	24(%rcx), %xmm1
	movq	104(%rcx), %r8
	leaq	16(%r12), %rbx
	addq	$16, %rax
	movq	-144(%rbp), %rsi
	movq	-152(%rbp), %rdx
	movq	%rax, (%r12)
	movq	32(%rcx), %rax
	movaps	%xmm1, -128(%rbp)
	movq	-136(%rbp), %rcx
	testq	%rax, %rax
	movaps	%xmm1, -96(%rbp)
	je	.L1172
	cmpq	$0, _ZL28__gthrw___pthread_key_createPjPFvPvE@GOTPCREL(%rip)
	je	.L1173
	lock addl	$1, 8(%rax)
.L1172:
	movq	-104(%rbp), %rdi
	movdqu	40(%rdi), %xmm3
	movq	48(%rdi), %rax
	movaps	%xmm3, -128(%rbp)
	movaps	%xmm3, -80(%rbp)
	testq	%rax, %rax
	je	.L1174
	cmpq	$0, _ZL28__gthrw___pthread_key_createPjPFvPvE@GOTPCREL(%rip)
	je	.L1175
	lock addl	$1, 8(%rax)
.L1174:
	pushq	%r15
	leaq	-96(%rbp), %r15
	movq	%rbx, %rdi
	pushq	%r14
	pushq	%r15
	pushq	%rcx
	movq	%rdx, %rcx
	movl	$1, %edx
.LEHB33:
	.cfi_escape 0x2e,0x20
	call	_ZN8opendnp312UserPollTaskC1ERKSt8functionIFbRNS_12HeaderWriterEEEbN7openpal12TimeDurationES9_RNS_18IMasterApplicationERNS_11ISOEHandlerENS8_6LoggerENS_10TaskConfigE@PLT
.LEHE33:
	movq	-72(%rbp), %rdi
	movq	_ZL28__gthrw___pthread_key_createPjPFvPvE@GOTPCREL(%rip), %r14
	addq	$32, %rsp
	testq	%rdi, %rdi
	je	.L1177
	testq	%r14, %r14
	je	.L1178
	movl	$-1, %eax
	lock xaddl	%eax, 8(%rdi)
	cmpl	$1, %eax
	je	.L1220
	.p2align 4,,10
	.p2align 3
.L1177:
	movq	-88(%rbp), %rdi
	testq	%rdi, %rdi
	je	.L1188
	testq	%r14, %r14
	je	.L1184
	movl	$-1, %eax
	lock xaddl	%eax, 8(%rdi)
	cmpl	$1, %eax
	je	.L1221
	.p2align 4,,10
	.p2align 3
.L1188:
	movq	%rbx, %xmm0
	movq	%r12, %xmm6
	punpcklqdq	%xmm6, %xmm0
	movaps	%xmm0, -128(%rbp)
	movaps	%xmm0, -96(%rbp)
	testq	%r14, %r14
	je	.L1222
	lock addl	$1, 8(%r12)
.L1190:
	movq	-104(%rbp), %rdi
	movq	%r15, %rsi
.LEHB34:
	.cfi_escape 0x2e,0
	call	_ZN8opendnp38MContext25ScheduleRecurringPollTaskERKSt10shared_ptrINS_11IMasterTaskEE@PLT
.LEHE34:
	movq	-88(%rbp), %rax
	movq	%rax, %r15
	testq	%rax, %rax
	je	.L1192
	testq	%r14, %r14
	je	.L1193
	movl	$-1, %ebx
	lock xaddl	%ebx, 8(%rax)
	movl	%ebx, %eax
	cmpl	$1, %eax
	je	.L1223
	.p2align 4,,10
	.p2align 3
.L1192:
	movdqa	-128(%rbp), %xmm5
	movups	%xmm5, 0(%r13)
	movq	-56(%rbp), %rax
	xorq	%fs:40, %rax
	jne	.L1224
	leaq	-40(%rbp), %rsp
	movq	%r13, %rax
	popq	%rbx
	popq	%r12
	popq	%r13
	popq	%r14
	popq	%r15
	popq	%rbp
	.cfi_remember_state
	.cfi_def_cfa 7, 8
	ret
	.p2align 4,,10
	.p2align 3
.L1222:
	.cfi_restore_state
	addl	$1, 8(%r12)
	jmp	.L1190
	.p2align 4,,10
	.p2align 3
.L1173:
	addl	$1, 8(%rax)
	jmp	.L1172
	.p2align 4,,10
	.p2align 3
.L1175:
	addl	$1, 8(%rax)
	jmp	.L1174
	.p2align 4,,10
	.p2align 3
.L1184:
	movl	8(%rdi), %eax
	leal	-1(%rax), %edx
	movl	%edx, 8(%rdi)
	cmpl	$1, %eax
	jne	.L1188
.L1221:
	movq	(%rdi), %rax
	movq	%rdi, -128(%rbp)
	call	*16(%rax)
	testq	%r14, %r14
	movq	-128(%rbp), %rdi
	je	.L1186
	movl	$-1, %eax
	lock xaddl	%eax, 12(%rdi)
.L1187:
	cmpl	$1, %eax
	jne	.L1188
	movq	(%rdi), %rax
	call	*24(%rax)
	jmp	.L1188
	.p2align 4,,10
	.p2align 3
.L1178:
	movl	8(%rdi), %eax
	leal	-1(%rax), %edx
	movl	%edx, 8(%rdi)
	cmpl	$1, %eax
	jne	.L1177
.L1220:
	movq	(%rdi), %rax
	movq	%rdi, -128(%rbp)
	call	*16(%rax)
	testq	%r14, %r14
	movq	-128(%rbp), %rdi
	je	.L1181
	movl	$-1, %eax
	lock xaddl	%eax, 12(%rdi)
.L1182:
	cmpl	$1, %eax
	jne	.L1177
	movq	(%rdi), %rax
	call	*24(%rax)
	jmp	.L1177
	.p2align 4,,10
	.p2align 3
.L1193:
	movl	8(%rax), %eax
	leal	-1(%rax), %edx
	movl	%edx, 8(%r15)
	cmpl	$1, %eax
	jne	.L1192
.L1223:
	movq	(%r15), %rax
	movq	%r15, %rdi
	call	*16(%rax)
	testq	%r14, %r14
	je	.L1196
	movl	$-1, %eax
	lock xaddl	%eax, 12(%r15)
.L1197:
	cmpl	$1, %eax
	jne	.L1192
	movq	(%r15), %rax
	movq	%r15, %rdi
	call	*24(%rax)
	jmp	.L1192
	.p2align 4,,10
	.p2align 3
.L1181:
	movl	12(%rdi), %eax
	leal	-1(%rax), %edx
	movl	%edx, 12(%rdi)
	jmp	.L1182
	.p2align 4,,10
	.p2align 3
.L1196:
	movl	12(%r15), %eax
	leal	-1(%rax), %edx
	movl	%edx, 12(%r15)
	jmp	.L1197
	.p2align 4,,10
	.p2align 3
.L1186:
	movl	12(%rdi), %eax
	leal	-1(%rax), %edx
	movl	%edx, 12(%rdi)
	jmp	.L1187
.L1224:
	call	__stack_chk_fail@PLT
.L1204:
	endbr64
	movq	%rax, %rbx
	jmp	.L1189
.L1203:
	endbr64
	movq	%rax, %rbx
	jmp	.L1198
	.section	.gcc_except_table
.LLSDA3422:
	.byte	0xff
	.byte	0xff
	.byte	0x1
	.uleb128 .LLSDACSE3422-.LLSDACSB3422
.LLSDACSB3422:
	.uleb128 .LEHB32-.LFB3422
	.uleb128 .LEHE32-.LEHB32
	.uleb128 0
	.uleb128 0
	.uleb128 .LEHB33-.LFB3422
	.uleb128 .LEHE33-.LEHB33
	.uleb128 .L1204-.LFB3422
	.uleb128 0
	.uleb128 .LEHB34-.LFB3422
	.uleb128 .LEHE34-.LEHB34
	.uleb128 .L1203-.LFB3422
	.uleb128 0
.LLSDACSE3422:
	.text
	.cfi_endproc
	.section	.text.unlikely
	.cfi_startproc
	.cfi_personality 0x9b,DW.ref.__gxx_personality_v0
	.cfi_lsda 0x1b,.LLSDAC3422
	.type	_ZN8opendnp38MContext7AddScanEN7openpal12TimeDurationERKSt8functionIFbRNS_12HeaderWriterEEENS_10TaskConfigE.cold, @function
_ZN8opendnp38MContext7AddScanEN7openpal12TimeDurationERKSt8functionIFbRNS_12HeaderWriterEEENS_10TaskConfigE.cold:
.LFSB3422:
.L1189:
	.cfi_def_cfa 6, 16
	.cfi_offset 3, -56
	.cfi_offset 6, -16
	.cfi_offset 12, -48
	.cfi_offset 13, -40
	.cfi_offset 14, -32
	.cfi_offset 15, -24
	movq	%r15, %rdi
	call	_ZN7openpal6LoggerD1Ev@PLT
	movq	%r12, %rdi
	call	_ZdlPv@PLT
	movq	%rbx, %rdi
.LEHB35:
	call	_Unwind_Resume@PLT
.L1198:
	movq	-88(%rbp), %rdi
	testq	%rdi, %rdi
	je	.L1199
	call	_ZNSt16_Sp_counted_baseILN9__gnu_cxx12_Lock_policyE2EE10_M_releaseEv@PLT
.L1199:
	movq	%r12, %rdi
	call	_ZNSt16_Sp_counted_baseILN9__gnu_cxx12_Lock_policyE2EE10_M_releaseEv@PLT
	movq	%rbx, %rdi
	call	_Unwind_Resume@PLT
.LEHE35:
	.cfi_endproc
.LFE3422:
	.section	.gcc_except_table
.LLSDAC3422:
	.byte	0xff
	.byte	0xff
	.byte	0x1
	.uleb128 .LLSDACSEC3422-.LLSDACSBC3422
.LLSDACSBC3422:
	.uleb128 .LEHB35-.LCOLDB26
	.uleb128 .LEHE35-.LEHB35
	.uleb128 0
	.uleb128 0
.LLSDACSEC3422:
	.section	.text.unlikely
	.text
	.size	_ZN8opendnp38MContext7AddScanEN7openpal12TimeDurationERKSt8functionIFbRNS_12HeaderWriterEEENS_10TaskConfigE, .-_ZN8opendnp38MContext7AddScanEN7openpal12TimeDurationERKSt8functionIFbRNS_12HeaderWriterEEENS_10TaskConfigE
	.section	.text.unlikely
	.size	_ZN8opendnp38MContext7AddScanEN7openpal12TimeDurationERKSt8functionIFbRNS_12HeaderWriterEEENS_10TaskConfigE.cold, .-_ZN8opendnp38MContext7AddScanEN7openpal12TimeDurationERKSt8functionIFbRNS_12HeaderWriterEEENS_10TaskConfigE.cold
.LCOLDE26:
	.text
.LHOTE26:
	.section	.text.unlikely
	.align 2
.LCOLDB27:
	.text
.LHOTB27:
	.align 2
	.p2align 4
	.globl	_ZN8opendnp38MContext12AddClassScanERKNS_10ClassFieldEN7openpal12TimeDurationENS_10TaskConfigE
	.type	_ZN8opendnp38MContext12AddClassScanERKNS_10ClassFieldEN7openpal12TimeDurationENS_10TaskConfigE, @function
_ZN8opendnp38MContext12AddClassScanERKNS_10ClassFieldEN7openpal12TimeDurationENS_10TaskConfigE:
.LFB3429:
	.cfi_startproc
	.cfi_personality 0x9b,DW.ref.__gxx_personality_v0
	.cfi_lsda 0x1b,.LLSDA3429
	endbr64
	pushq	%r12
	.cfi_def_cfa_offset 16
	.cfi_offset 12, -16
	movq	%rdx, %r10
	movq	%rcx, %rdx
	leaq	_ZNSt14_Function_base13_Base_managerIZN8opendnp38MContext12AddClassScanERKNS1_10ClassFieldEN7openpal12TimeDurationENS1_10TaskConfigEEUlRNS1_12HeaderWriterEE_E10_M_managerERSt9_Any_dataRKSD_St18_Manager_operation(%rip), %rcx
	pushq	%rbp
	.cfi_def_cfa_offset 24
	.cfi_offset 6, -24
	movq	%rcx, %xmm0
	movq	%rdi, %r12
	subq	$56, %rsp
	.cfi_def_cfa_offset 80
	movq	%fs:40, %rax
	movq	%rax, 40(%rsp)
	xorl	%eax, %eax
	movzbl	(%r10), %eax
	movq	%rsp, %rbp
	movq	%rbp, %rcx
	movb	%al, (%rsp)
	leaq	_ZNSt17_Function_handlerIFbRN8opendnp312HeaderWriterEEZNS0_8MContext12AddClassScanERKNS0_10ClassFieldEN7openpal12TimeDurationENS0_10TaskConfigEEUlS2_E_E9_M_invokeERKSt9_Any_dataS2_(%rip), %rax
	movq	%rax, %xmm1
	punpcklqdq	%xmm1, %xmm0
	movaps	%xmm0, 16(%rsp)
.LEHB36:
	call	_ZN8opendnp38MContext7AddScanEN7openpal12TimeDurationERKSt8functionIFbRNS_12HeaderWriterEEENS_10TaskConfigE@PLT
.LEHE36:
	movq	16(%rsp), %rax
	testq	%rax, %rax
	je	.L1225
	movl	$3, %edx
	movq	%rbp, %rsi
	movq	%rbp, %rdi
	call	*%rax
.L1225:
	movq	40(%rsp), %rax
	xorq	%fs:40, %rax
	jne	.L1238
	addq	$56, %rsp
	.cfi_remember_state
	.cfi_def_cfa_offset 24
	movq	%r12, %rax
	popq	%rbp
	.cfi_def_cfa_offset 16
	popq	%r12
	.cfi_def_cfa_offset 8
	ret
.L1238:
	.cfi_restore_state
	call	__stack_chk_fail@PLT
.L1230:
	endbr64
	movq	%rax, %r12
	jmp	.L1227
	.section	.gcc_except_table
.LLSDA3429:
	.byte	0xff
	.byte	0xff
	.byte	0x1
	.uleb128 .LLSDACSE3429-.LLSDACSB3429
.LLSDACSB3429:
	.uleb128 .LEHB36-.LFB3429
	.uleb128 .LEHE36-.LEHB36
	.uleb128 .L1230-.LFB3429
	.uleb128 0
.LLSDACSE3429:
	.text
	.cfi_endproc
	.section	.text.unlikely
	.cfi_startproc
	.cfi_personality 0x9b,DW.ref.__gxx_personality_v0
	.cfi_lsda 0x1b,.LLSDAC3429
	.type	_ZN8opendnp38MContext12AddClassScanERKNS_10ClassFieldEN7openpal12TimeDurationENS_10TaskConfigE.cold, @function
_ZN8opendnp38MContext12AddClassScanERKNS_10ClassFieldEN7openpal12TimeDurationENS_10TaskConfigE.cold:
.LFSB3429:
.L1227:
	.cfi_def_cfa_offset 80
	.cfi_offset 6, -24
	.cfi_offset 12, -16
	movq	16(%rsp), %rax
	testq	%rax, %rax
	je	.L1228
	movl	$3, %edx
	movq	%rbp, %rsi
	movq	%rbp, %rdi
	call	*%rax
.L1228:
	movq	%r12, %rdi
.LEHB37:
	call	_Unwind_Resume@PLT
.LEHE37:
	.cfi_endproc
.LFE3429:
	.section	.gcc_except_table
.LLSDAC3429:
	.byte	0xff
	.byte	0xff
	.byte	0x1
	.uleb128 .LLSDACSEC3429-.LLSDACSBC3429
.LLSDACSBC3429:
	.uleb128 .LEHB37-.LCOLDB27
	.uleb128 .LEHE37-.LEHB37
	.uleb128 0
	.uleb128 0
.LLSDACSEC3429:
	.section	.text.unlikely
	.text
	.size	_ZN8opendnp38MContext12AddClassScanERKNS_10ClassFieldEN7openpal12TimeDurationENS_10TaskConfigE, .-_ZN8opendnp38MContext12AddClassScanERKNS_10ClassFieldEN7openpal12TimeDurationENS_10TaskConfigE
	.section	.text.unlikely
	.size	_ZN8opendnp38MContext12AddClassScanERKNS_10ClassFieldEN7openpal12TimeDurationENS_10TaskConfigE.cold, .-_ZN8opendnp38MContext12AddClassScanERKNS_10ClassFieldEN7openpal12TimeDurationENS_10TaskConfigE.cold
.LCOLDE27:
	.text
.LHOTE27:
	.section	.text.unlikely
	.align 2
.LCOLDB28:
	.text
.LHOTB28:
	.align 2
	.p2align 4
	.globl	_ZN8opendnp38MContext17AddAllObjectsScanENS_16GroupVariationIDEN7openpal12TimeDurationENS_10TaskConfigE
	.type	_ZN8opendnp38MContext17AddAllObjectsScanENS_16GroupVariationIDEN7openpal12TimeDurationENS_10TaskConfigE, @function
_ZN8opendnp38MContext17AddAllObjectsScanENS_16GroupVariationIDEN7openpal12TimeDurationENS_10TaskConfigE:
.LFB3434:
	.cfi_startproc
	.cfi_personality 0x9b,DW.ref.__gxx_personality_v0
	.cfi_lsda 0x1b,.LLSDA3434
	endbr64
	pushq	%r12
	.cfi_def_cfa_offset 16
	.cfi_offset 12, -16
	movl	%edx, %r10d
	movq	%rcx, %rdx
	leaq	_ZNSt14_Function_base13_Base_managerIZN8opendnp38MContext17AddAllObjectsScanENS1_16GroupVariationIDEN7openpal12TimeDurationENS1_10TaskConfigEEUlRNS1_12HeaderWriterEE_E10_M_managerERSt9_Any_dataRKSB_St18_Manager_operation(%rip), %rcx
	pushq	%rbp
	.cfi_def_cfa_offset 24
	.cfi_offset 6, -24
	movq	%rcx, %xmm0
	movq	%rdi, %r12
	subq	$56, %rsp
	.cfi_def_cfa_offset 80
	movq	%fs:40, %rax
	movq	%rax, 40(%rsp)
	xorl	%eax, %eax
	leaq	_ZNSt17_Function_handlerIFbRN8opendnp312HeaderWriterEEZNS0_8MContext17AddAllObjectsScanENS0_16GroupVariationIDEN7openpal12TimeDurationENS0_10TaskConfigEEUlS2_E_E9_M_invokeERKSt9_Any_dataS2_(%rip), %rax
	movq	%rsp, %rbp
	movw	%r10w, (%rsp)
	movq	%rax, %xmm1
	movq	%rbp, %rcx
	punpcklqdq	%xmm1, %xmm0
	movaps	%xmm0, 16(%rsp)
.LEHB38:
	call	_ZN8opendnp38MContext7AddScanEN7openpal12TimeDurationERKSt8functionIFbRNS_12HeaderWriterEEENS_10TaskConfigE@PLT
.LEHE38:
	movq	16(%rsp), %rax
	testq	%rax, %rax
	je	.L1239
	movl	$3, %edx
	movq	%rbp, %rsi
	movq	%rbp, %rdi
	call	*%rax
.L1239:
	movq	40(%rsp), %rax
	xorq	%fs:40, %rax
	jne	.L1252
	addq	$56, %rsp
	.cfi_remember_state
	.cfi_def_cfa_offset 24
	movq	%r12, %rax
	popq	%rbp
	.cfi_def_cfa_offset 16
	popq	%r12
	.cfi_def_cfa_offset 8
	ret
.L1252:
	.cfi_restore_state
	call	__stack_chk_fail@PLT
.L1244:
	endbr64
	movq	%rax, %r12
	jmp	.L1241
	.section	.gcc_except_table
.LLSDA3434:
	.byte	0xff
	.byte	0xff
	.byte	0x1
	.uleb128 .LLSDACSE3434-.LLSDACSB3434
.LLSDACSB3434:
	.uleb128 .LEHB38-.LFB3434
	.uleb128 .LEHE38-.LEHB38
	.uleb128 .L1244-.LFB3434
	.uleb128 0
.LLSDACSE3434:
	.text
	.cfi_endproc
	.section	.text.unlikely
	.cfi_startproc
	.cfi_personality 0x9b,DW.ref.__gxx_personality_v0
	.cfi_lsda 0x1b,.LLSDAC3434
	.type	_ZN8opendnp38MContext17AddAllObjectsScanENS_16GroupVariationIDEN7openpal12TimeDurationENS_10TaskConfigE.cold, @function
_ZN8opendnp38MContext17AddAllObjectsScanENS_16GroupVariationIDEN7openpal12TimeDurationENS_10TaskConfigE.cold:
.LFSB3434:
.L1241:
	.cfi_def_cfa_offset 80
	.cfi_offset 6, -24
	.cfi_offset 12, -16
	movq	16(%rsp), %rax
	testq	%rax, %rax
	je	.L1242
	movl	$3, %edx
	movq	%rbp, %rsi
	movq	%rbp, %rdi
	call	*%rax
.L1242:
	movq	%r12, %rdi
.LEHB39:
	call	_Unwind_Resume@PLT
.LEHE39:
	.cfi_endproc
.LFE3434:
	.section	.gcc_except_table
.LLSDAC3434:
	.byte	0xff
	.byte	0xff
	.byte	0x1
	.uleb128 .LLSDACSEC3434-.LLSDACSBC3434
.LLSDACSBC3434:
	.uleb128 .LEHB39-.LCOLDB28
	.uleb128 .LEHE39-.LEHB39
	.uleb128 0
	.uleb128 0
.LLSDACSEC3434:
	.section	.text.unlikely
	.text
	.size	_ZN8opendnp38MContext17AddAllObjectsScanENS_16GroupVariationIDEN7openpal12TimeDurationENS_10TaskConfigE, .-_ZN8opendnp38MContext17AddAllObjectsScanENS_16GroupVariationIDEN7openpal12TimeDurationENS_10TaskConfigE
	.section	.text.unlikely
	.size	_ZN8opendnp38MContext17AddAllObjectsScanENS_16GroupVariationIDEN7openpal12TimeDurationENS_10TaskConfigE.cold, .-_ZN8opendnp38MContext17AddAllObjectsScanENS_16GroupVariationIDEN7openpal12TimeDurationENS_10TaskConfigE.cold
.LCOLDE28:
	.text
.LHOTE28:
	.section	.text.unlikely
	.align 2
.LCOLDB29:
	.text
.LHOTB29:
	.align 2
	.p2align 4
	.globl	_ZN8opendnp38MContext12AddRangeScanENS_16GroupVariationIDEttN7openpal12TimeDurationENS_10TaskConfigE
	.type	_ZN8opendnp38MContext12AddRangeScanENS_16GroupVariationIDEttN7openpal12TimeDurationENS_10TaskConfigE, @function
_ZN8opendnp38MContext12AddRangeScanENS_16GroupVariationIDEttN7openpal12TimeDurationENS_10TaskConfigE:
.LFB3436:
	.cfi_startproc
	.cfi_personality 0x9b,DW.ref.__gxx_personality_v0
	.cfi_lsda 0x1b,.LLSDA3436
	endbr64
	pushq	%r12
	.cfi_def_cfa_offset 16
	.cfi_offset 12, -16
	movl	%edx, %r10d
	movq	%r9, %rdx
	movq	%rdi, %r12
	pushq	%rbp
	.cfi_def_cfa_offset 24
	.cfi_offset 6, -24
	subq	$56, %rsp
	.cfi_def_cfa_offset 80
	movq	%fs:40, %rax
	movq	%rax, 40(%rsp)
	xorl	%eax, %eax
	movw	%cx, 2(%rsp)
	movq	%rsp, %rbp
	movq	88(%rsp), %r9
	leaq	_ZNSt14_Function_base13_Base_managerIZN8opendnp38MContext12AddRangeScanENS1_16GroupVariationIDEttN7openpal12TimeDurationENS1_10TaskConfigEEUlRNS1_12HeaderWriterEE_E10_M_managerERSt9_Any_dataRKSB_St18_Manager_operation(%rip), %rcx
	leaq	_ZNSt17_Function_handlerIFbRN8opendnp312HeaderWriterEEZNS0_8MContext12AddRangeScanENS0_16GroupVariationIDEttN7openpal12TimeDurationENS0_10TaskConfigEEUlS2_E_E9_M_invokeERKSt9_Any_dataS2_(%rip), %rax
	movw	%r8w, 4(%rsp)
	movq	80(%rsp), %r8
	movq	%rcx, %xmm0
	movq	%rax, %xmm1
	movq	%rbp, %rcx
	movw	%r10w, (%rsp)
	punpcklqdq	%xmm1, %xmm0
	movaps	%xmm0, 16(%rsp)
.LEHB40:
	call	_ZN8opendnp38MContext7AddScanEN7openpal12TimeDurationERKSt8functionIFbRNS_12HeaderWriterEEENS_10TaskConfigE@PLT
.LEHE40:
	movq	16(%rsp), %rax
	testq	%rax, %rax
	je	.L1253
	movl	$3, %edx
	movq	%rbp, %rsi
	movq	%rbp, %rdi
	call	*%rax
.L1253:
	movq	40(%rsp), %rax
	xorq	%fs:40, %rax
	jne	.L1266
	addq	$56, %rsp
	.cfi_remember_state
	.cfi_def_cfa_offset 24
	movq	%r12, %rax
	popq	%rbp
	.cfi_def_cfa_offset 16
	popq	%r12
	.cfi_def_cfa_offset 8
	ret
.L1266:
	.cfi_restore_state
	call	__stack_chk_fail@PLT
.L1258:
	endbr64
	movq	%rax, %r12
	jmp	.L1255
	.section	.gcc_except_table
.LLSDA3436:
	.byte	0xff
	.byte	0xff
	.byte	0x1
	.uleb128 .LLSDACSE3436-.LLSDACSB3436
.LLSDACSB3436:
	.uleb128 .LEHB40-.LFB3436
	.uleb128 .LEHE40-.LEHB40
	.uleb128 .L1258-.LFB3436
	.uleb128 0
.LLSDACSE3436:
	.text
	.cfi_endproc
	.section	.text.unlikely
	.cfi_startproc
	.cfi_personality 0x9b,DW.ref.__gxx_personality_v0
	.cfi_lsda 0x1b,.LLSDAC3436
	.type	_ZN8opendnp38MContext12AddRangeScanENS_16GroupVariationIDEttN7openpal12TimeDurationENS_10TaskConfigE.cold, @function
_ZN8opendnp38MContext12AddRangeScanENS_16GroupVariationIDEttN7openpal12TimeDurationENS_10TaskConfigE.cold:
.LFSB3436:
.L1255:
	.cfi_def_cfa_offset 80
	.cfi_offset 6, -24
	.cfi_offset 12, -16
	movq	16(%rsp), %rax
	testq	%rax, %rax
	je	.L1256
	movl	$3, %edx
	movq	%rbp, %rsi
	movq	%rbp, %rdi
	call	*%rax
.L1256:
	movq	%r12, %rdi
.LEHB41:
	call	_Unwind_Resume@PLT
.LEHE41:
	.cfi_endproc
.LFE3436:
	.section	.gcc_except_table
.LLSDAC3436:
	.byte	0xff
	.byte	0xff
	.byte	0x1
	.uleb128 .LLSDACSEC3436-.LLSDACSBC3436
.LLSDACSBC3436:
	.uleb128 .LEHB41-.LCOLDB29
	.uleb128 .LEHE41-.LEHB41
	.uleb128 0
	.uleb128 0
.LLSDACSEC3436:
	.section	.text.unlikely
	.text
	.size	_ZN8opendnp38MContext12AddRangeScanENS_16GroupVariationIDEttN7openpal12TimeDurationENS_10TaskConfigE, .-_ZN8opendnp38MContext12AddRangeScanENS_16GroupVariationIDEttN7openpal12TimeDurationENS_10TaskConfigE
	.section	.text.unlikely
	.size	_ZN8opendnp38MContext12AddRangeScanENS_16GroupVariationIDEttN7openpal12TimeDurationENS_10TaskConfigE.cold, .-_ZN8opendnp38MContext12AddRangeScanENS_16GroupVariationIDEttN7openpal12TimeDurationENS_10TaskConfigE.cold
.LCOLDE29:
	.text
.LHOTE29:
	.section	.text.unlikely
	.align 2
.LCOLDB30:
	.text
.LHOTB30:
	.align 2
	.p2align 4
	.globl	_ZN8opendnp38MContext4ScanERKSt8functionIFbRNS_12HeaderWriterEEENS_10TaskConfigE
	.type	_ZN8opendnp38MContext4ScanERKSt8functionIFbRNS_12HeaderWriterEEENS_10TaskConfigE, @function
_ZN8opendnp38MContext4ScanERKSt8functionIFbRNS_12HeaderWriterEEENS_10TaskConfigE:
.LFB3438:
	.cfi_startproc
	.cfi_personality 0x9b,DW.ref.__gxx_personality_v0
	.cfi_lsda 0x1b,.LLSDA3438
	endbr64
	pushq	%rbp
	.cfi_def_cfa_offset 16
	.cfi_offset 6, -16
	movq	%rsp, %rbp
	.cfi_def_cfa_register 6
	pushq	%r15
	.cfi_offset 15, -24
	movq	%rcx, %r15
	pushq	%r14
	.cfi_offset 14, -32
	movq	%rdx, %r14
	pushq	%r13
	.cfi_offset 13, -40
	movq	%rsi, %r13
	pushq	%r12
	pushq	%rbx
	subq	$104, %rsp
	.cfi_offset 12, -48
	.cfi_offset 3, -56
	movq	128(%rdi), %rdx
	movq	144(%rdi), %r9
	movq	%fs:40, %rbx
	movq	%rbx, -56(%rbp)
	xorl	%ebx, %ebx
	movq	%rdi, -104(%rbp)
	movq	%rdx, -136(%rbp)
	movq	%r9, -112(%rbp)
.LEHB42:
	call	_ZN7openpal12TimeDuration3MaxEv@PLT
	movl	$176, %edi
	movq	%rax, %rbx
	call	_Znwm@PLT
.LEHE42:
	movq	-104(%rbp), %rcx
	movq	-112(%rbp), %r9
	movabsq	$4294967297, %rdi
	movq	%rax, %r12
	movq	%rdi, 8(%rax)
	movq	_ZTVSt23_Sp_counted_ptr_inplaceIN8opendnp312UserPollTaskESaIS1_ELN9__gnu_cxx12_Lock_policyE2EE@GOTPCREL(%rip), %rax
	movdqu	24(%rcx), %xmm1
	leaq	16(%r12), %rdx
	movq	104(%rcx), %r8
	addq	$16, %rax
	movq	%rdx, -144(%rbp)
	movq	-136(%rbp), %rdx
	movq	%rax, (%r12)
	movq	32(%rcx), %rax
	movaps	%xmm1, -128(%rbp)
	testq	%rax, %rax
	movaps	%xmm1, -96(%rbp)
	je	.L1268
	cmpq	$0, _ZL28__gthrw___pthread_key_createPjPFvPvE@GOTPCREL(%rip)
	je	.L1269
	lock addl	$1, 8(%rax)
.L1268:
	movq	-104(%rbp), %rsi
	movdqu	40(%rsi), %xmm3
	movq	48(%rsi), %rax
	movaps	%xmm3, -128(%rbp)
	movaps	%xmm3, -80(%rbp)
	testq	%rax, %rax
	je	.L1270
	cmpq	$0, _ZL28__gthrw___pthread_key_createPjPFvPvE@GOTPCREL(%rip)
	je	.L1271
	lock addl	$1, 8(%rax)
.L1270:
	pushq	%r15
	leaq	-96(%rbp), %r15
	movq	%rbx, %rcx
	movq	%r13, %rsi
	pushq	%r14
	leaq	16(%r12), %rdi
	pushq	%r15
	pushq	%rdx
	xorl	%edx, %edx
.LEHB43:
	.cfi_escape 0x2e,0x20
	call	_ZN8opendnp312UserPollTaskC1ERKSt8functionIFbRNS_12HeaderWriterEEEbN7openpal12TimeDurationES9_RNS_18IMasterApplicationERNS_11ISOEHandlerENS8_6LoggerENS_10TaskConfigE@PLT
.LEHE43:
	movq	-72(%rbp), %r13
	movq	_ZL28__gthrw___pthread_key_createPjPFvPvE@GOTPCREL(%rip), %rbx
	addq	$32, %rsp
	testq	%r13, %r13
	je	.L1273
	testq	%rbx, %rbx
	je	.L1274
	movl	$-1, %eax
	lock xaddl	%eax, 8(%r13)
	cmpl	$1, %eax
	je	.L1326
	.p2align 4,,10
	.p2align 3
.L1273:
	movq	-88(%rbp), %r13
	testq	%r13, %r13
	je	.L1284
	testq	%rbx, %rbx
	je	.L1280
	movl	$-1, %eax
	lock xaddl	%eax, 8(%r13)
	cmpl	$1, %eax
	je	.L1327
	.p2align 4,,10
	.p2align 3
.L1284:
	movq	-144(%rbp), %xmm0
	movq	%r12, %xmm5
	leaq	8(%r12), %r13
	punpcklqdq	%xmm5, %xmm0
	movaps	%xmm0, -96(%rbp)
	testq	%rbx, %rbx
	je	.L1328
	lock addl	$1, 0(%r13)
.L1286:
	movq	-104(%rbp), %rdi
	movq	%r15, %rsi
.LEHB44:
	.cfi_escape 0x2e,0
	call	_ZN8opendnp38MContext17ScheduleAdhocTaskERKSt10shared_ptrINS_11IMasterTaskEE@PLT
.LEHE44:
	movq	-88(%rbp), %rax
	movq	%rax, %r14
	testq	%rax, %rax
	je	.L1292
	testq	%rbx, %rbx
	je	.L1288
	movl	$-1, %edi
	lock xaddl	%edi, 8(%rax)
	movl	%edi, %eax
	cmpl	$1, %eax
	je	.L1329
	.p2align 4,,10
	.p2align 3
.L1292:
	testq	%rbx, %rbx
	je	.L1330
	movl	$-1, %eax
	lock xaddl	%eax, 0(%r13)
	cmpl	$1, %eax
	je	.L1331
.L1267:
	movq	-56(%rbp), %rax
	xorq	%fs:40, %rax
	jne	.L1332
	leaq	-40(%rbp), %rsp
	popq	%rbx
	popq	%r12
	popq	%r13
	popq	%r14
	popq	%r15
	popq	%rbp
	.cfi_remember_state
	.cfi_def_cfa 7, 8
	ret
	.p2align 4,,10
	.p2align 3
.L1328:
	.cfi_restore_state
	addl	$1, 8(%r12)
	jmp	.L1286
	.p2align 4,,10
	.p2align 3
.L1269:
	addl	$1, 8(%rax)
	jmp	.L1268
	.p2align 4,,10
	.p2align 3
.L1271:
	addl	$1, 8(%rax)
	jmp	.L1270
	.p2align 4,,10
	.p2align 3
.L1280:
	movl	8(%r13), %eax
	leal	-1(%rax), %edx
	movl	%edx, 8(%r13)
	cmpl	$1, %eax
	jne	.L1284
.L1327:
	movq	0(%r13), %rax
	movq	%r13, %rdi
	call	*16(%rax)
	testq	%rbx, %rbx
	je	.L1282
	movl	$-1, %eax
	lock xaddl	%eax, 12(%r13)
.L1283:
	cmpl	$1, %eax
	jne	.L1284
	movq	0(%r13), %rax
	movq	%r13, %rdi
	call	*24(%rax)
	jmp	.L1284
	.p2align 4,,10
	.p2align 3
.L1274:
	movl	8(%r13), %eax
	leal	-1(%rax), %edx
	movl	%edx, 8(%r13)
	cmpl	$1, %eax
	jne	.L1273
.L1326:
	movq	0(%r13), %rax
	movq	%r13, %rdi
	call	*16(%rax)
	testq	%rbx, %rbx
	je	.L1277
	movl	$-1, %eax
	lock xaddl	%eax, 12(%r13)
.L1278:
	cmpl	$1, %eax
	jne	.L1273
	movq	0(%r13), %rax
	movq	%r13, %rdi
	call	*24(%rax)
	jmp	.L1273
	.p2align 4,,10
	.p2align 3
.L1288:
	movl	8(%rax), %eax
	leal	-1(%rax), %edx
	movl	%edx, 8(%r14)
	cmpl	$1, %eax
	jne	.L1292
.L1329:
	movq	(%r14), %rax
	movq	%r14, %rdi
	call	*16(%rax)
	testq	%rbx, %rbx
	je	.L1290
	movl	$-1, %eax
	lock xaddl	%eax, 12(%r14)
.L1291:
	cmpl	$1, %eax
	jne	.L1292
	movq	(%r14), %rax
	movq	%r14, %rdi
	call	*24(%rax)
	jmp	.L1292
	.p2align 4,,10
	.p2align 3
.L1330:
	movl	8(%r12), %eax
	leal	-1(%rax), %edx
	movl	%edx, 8(%r12)
	cmpl	$1, %eax
	jne	.L1267
.L1331:
	movq	(%r12), %rax
	movq	%r12, %rdi
	call	*16(%rax)
	testq	%rbx, %rbx
	je	.L1296
	movl	$-1, %eax
	lock xaddl	%eax, 12(%r12)
.L1297:
	cmpl	$1, %eax
	jne	.L1267
	movq	(%r12), %rax
	movq	%r12, %rdi
	call	*24(%rax)
	jmp	.L1267
	.p2align 4,,10
	.p2align 3
.L1282:
	movl	12(%r13), %eax
	leal	-1(%rax), %edx
	movl	%edx, 12(%r13)
	jmp	.L1283
	.p2align 4,,10
	.p2align 3
.L1290:
	movl	12(%r14), %eax
	leal	-1(%rax), %edx
	movl	%edx, 12(%r14)
	jmp	.L1291
	.p2align 4,,10
	.p2align 3
.L1277:
	movl	12(%r13), %eax
	leal	-1(%rax), %edx
	movl	%edx, 12(%r13)
	jmp	.L1278
	.p2align 4,,10
	.p2align 3
.L1296:
	movl	12(%r12), %eax
	leal	-1(%rax), %edx
	movl	%edx, 12(%r12)
	jmp	.L1297
.L1332:
	call	__stack_chk_fail@PLT
.L1307:
	endbr64
	movq	%rax, %rbx
	jmp	.L1285
.L1306:
	endbr64
	movq	%rax, %rbx
	jmp	.L1299
	.section	.gcc_except_table
.LLSDA3438:
	.byte	0xff
	.byte	0xff
	.byte	0x1
	.uleb128 .LLSDACSE3438-.LLSDACSB3438
.LLSDACSB3438:
	.uleb128 .LEHB42-.LFB3438
	.uleb128 .LEHE42-.LEHB42
	.uleb128 0
	.uleb128 0
	.uleb128 .LEHB43-.LFB3438
	.uleb128 .LEHE43-.LEHB43
	.uleb128 .L1307-.LFB3438
	.uleb128 0
	.uleb128 .LEHB44-.LFB3438
	.uleb128 .LEHE44-.LEHB44
	.uleb128 .L1306-.LFB3438
	.uleb128 0
.LLSDACSE3438:
	.text
	.cfi_endproc
	.section	.text.unlikely
	.cfi_startproc
	.cfi_personality 0x9b,DW.ref.__gxx_personality_v0
	.cfi_lsda 0x1b,.LLSDAC3438
	.type	_ZN8opendnp38MContext4ScanERKSt8functionIFbRNS_12HeaderWriterEEENS_10TaskConfigE.cold, @function
_ZN8opendnp38MContext4ScanERKSt8functionIFbRNS_12HeaderWriterEEENS_10TaskConfigE.cold:
.LFSB3438:
.L1285:
	.cfi_def_cfa 6, 16
	.cfi_offset 3, -56
	.cfi_offset 6, -16
	.cfi_offset 12, -48
	.cfi_offset 13, -40
	.cfi_offset 14, -32
	.cfi_offset 15, -24
	movq	%r15, %rdi
	call	_ZN7openpal6LoggerD1Ev@PLT
	movq	%r12, %rdi
	call	_ZdlPv@PLT
	movq	%rbx, %rdi
.LEHB45:
	call	_Unwind_Resume@PLT
.L1299:
	movq	-88(%rbp), %rdi
	testq	%rdi, %rdi
	je	.L1300
	call	_ZNSt16_Sp_counted_baseILN9__gnu_cxx12_Lock_policyE2EE10_M_releaseEv@PLT
.L1300:
	movq	%r12, %rdi
	call	_ZNSt16_Sp_counted_baseILN9__gnu_cxx12_Lock_policyE2EE10_M_releaseEv@PLT
	movq	%rbx, %rdi
	call	_Unwind_Resume@PLT
.LEHE45:
	.cfi_endproc
.LFE3438:
	.section	.gcc_except_table
.LLSDAC3438:
	.byte	0xff
	.byte	0xff
	.byte	0x1
	.uleb128 .LLSDACSEC3438-.LLSDACSBC3438
.LLSDACSBC3438:
	.uleb128 .LEHB45-.LCOLDB30
	.uleb128 .LEHE45-.LEHB45
	.uleb128 0
	.uleb128 0
.LLSDACSEC3438:
	.section	.text.unlikely
	.text
	.size	_ZN8opendnp38MContext4ScanERKSt8functionIFbRNS_12HeaderWriterEEENS_10TaskConfigE, .-_ZN8opendnp38MContext4ScanERKSt8functionIFbRNS_12HeaderWriterEEENS_10TaskConfigE
	.section	.text.unlikely
	.size	_ZN8opendnp38MContext4ScanERKSt8functionIFbRNS_12HeaderWriterEEENS_10TaskConfigE.cold, .-_ZN8opendnp38MContext4ScanERKSt8functionIFbRNS_12HeaderWriterEEENS_10TaskConfigE.cold
.LCOLDE30:
	.text
.LHOTE30:
	.section	.text.unlikely
	.align 2
.LCOLDB31:
	.text
.LHOTB31:
	.align 2
	.p2align 4
	.globl	_ZN8opendnp38MContext11ScanClassesERKNS_10ClassFieldENS_10TaskConfigE
	.type	_ZN8opendnp38MContext11ScanClassesERKNS_10ClassFieldENS_10TaskConfigE, @function
_ZN8opendnp38MContext11ScanClassesERKNS_10ClassFieldENS_10TaskConfigE:
.LFB3439:
	.cfi_startproc
	.cfi_personality 0x9b,DW.ref.__gxx_personality_v0
	.cfi_lsda 0x1b,.LLSDA3439
	endbr64
	pushq	%r12
	.cfi_def_cfa_offset 16
	.cfi_offset 12, -16
	pushq	%rbp
	.cfi_def_cfa_offset 24
	.cfi_offset 6, -24
	subq	$56, %rsp
	.cfi_def_cfa_offset 80
	movq	%fs:40, %rax
	movq	%rax, 40(%rsp)
	xorl	%eax, %eax
	movzbl	(%rsi), %eax
	leaq	_ZNSt14_Function_base13_Base_managerIZN8opendnp38MContext11ScanClassesERKNS1_10ClassFieldENS1_10TaskConfigEEUlRNS1_12HeaderWriterEE_E10_M_managerERSt9_Any_dataRKSB_St18_Manager_operation(%rip), %rsi
	movq	%rsp, %rbp
	movq	%rsi, %xmm0
	movq	%rbp, %rsi
	movb	%al, (%rsp)
	leaq	_ZNSt17_Function_handlerIFbRN8opendnp312HeaderWriterEEZNS0_8MContext11ScanClassesERKNS0_10ClassFieldENS0_10TaskConfigEEUlS2_E_E9_M_invokeERKSt9_Any_dataS2_(%rip), %rax
	movq	%rax, %xmm1
	punpcklqdq	%xmm1, %xmm0
	movaps	%xmm0, 16(%rsp)
.LEHB46:
	call	_ZN8opendnp38MContext4ScanERKSt8functionIFbRNS_12HeaderWriterEEENS_10TaskConfigE@PLT
.LEHE46:
	movq	16(%rsp), %rax
	testq	%rax, %rax
	je	.L1333
	movl	$3, %edx
	movq	%rbp, %rsi
	movq	%rbp, %rdi
	call	*%rax
.L1333:
	movq	40(%rsp), %rax
	xorq	%fs:40, %rax
	jne	.L1346
	addq	$56, %rsp
	.cfi_remember_state
	.cfi_def_cfa_offset 24
	popq	%rbp
	.cfi_def_cfa_offset 16
	popq	%r12
	.cfi_def_cfa_offset 8
	ret
.L1346:
	.cfi_restore_state
	call	__stack_chk_fail@PLT
.L1338:
	endbr64
	movq	%rax, %r12
	jmp	.L1335
	.section	.gcc_except_table
.LLSDA3439:
	.byte	0xff
	.byte	0xff
	.byte	0x1
	.uleb128 .LLSDACSE3439-.LLSDACSB3439
.LLSDACSB3439:
	.uleb128 .LEHB46-.LFB3439
	.uleb128 .LEHE46-.LEHB46
	.uleb128 .L1338-.LFB3439
	.uleb128 0
.LLSDACSE3439:
	.text
	.cfi_endproc
	.section	.text.unlikely
	.cfi_startproc
	.cfi_personality 0x9b,DW.ref.__gxx_personality_v0
	.cfi_lsda 0x1b,.LLSDAC3439
	.type	_ZN8opendnp38MContext11ScanClassesERKNS_10ClassFieldENS_10TaskConfigE.cold, @function
_ZN8opendnp38MContext11ScanClassesERKNS_10ClassFieldENS_10TaskConfigE.cold:
.LFSB3439:
.L1335:
	.cfi_def_cfa_offset 80
	.cfi_offset 6, -24
	.cfi_offset 12, -16
	movq	16(%rsp), %rax
	testq	%rax, %rax
	je	.L1336
	movl	$3, %edx
	movq	%rbp, %rsi
	movq	%rbp, %rdi
	call	*%rax
.L1336:
	movq	%r12, %rdi
.LEHB47:
	call	_Unwind_Resume@PLT
.LEHE47:
	.cfi_endproc
.LFE3439:
	.section	.gcc_except_table
.LLSDAC3439:
	.byte	0xff
	.byte	0xff
	.byte	0x1
	.uleb128 .LLSDACSEC3439-.LLSDACSBC3439
.LLSDACSBC3439:
	.uleb128 .LEHB47-.LCOLDB31
	.uleb128 .LEHE47-.LEHB47
	.uleb128 0
	.uleb128 0
.LLSDACSEC3439:
	.section	.text.unlikely
	.text
	.size	_ZN8opendnp38MContext11ScanClassesERKNS_10ClassFieldENS_10TaskConfigE, .-_ZN8opendnp38MContext11ScanClassesERKNS_10ClassFieldENS_10TaskConfigE
	.section	.text.unlikely
	.size	_ZN8opendnp38MContext11ScanClassesERKNS_10ClassFieldENS_10TaskConfigE.cold, .-_ZN8opendnp38MContext11ScanClassesERKNS_10ClassFieldENS_10TaskConfigE.cold
.LCOLDE31:
	.text
.LHOTE31:
	.section	.text.unlikely
	.align 2
.LCOLDB32:
	.text
.LHOTB32:
	.align 2
	.p2align 4
	.globl	_ZN8opendnp38MContext14ScanAllObjectsENS_16GroupVariationIDENS_10TaskConfigE
	.type	_ZN8opendnp38MContext14ScanAllObjectsENS_16GroupVariationIDENS_10TaskConfigE, @function
_ZN8opendnp38MContext14ScanAllObjectsENS_16GroupVariationIDENS_10TaskConfigE:
.LFB3441:
	.cfi_startproc
	.cfi_personality 0x9b,DW.ref.__gxx_personality_v0
	.cfi_lsda 0x1b,.LLSDA3441
	endbr64
	pushq	%r12
	.cfi_def_cfa_offset 16
	.cfi_offset 12, -16
	pushq	%rbp
	.cfi_def_cfa_offset 24
	.cfi_offset 6, -24
	subq	$56, %rsp
	.cfi_def_cfa_offset 80
	movq	%fs:40, %rax
	movq	%rax, 40(%rsp)
	xorl	%eax, %eax
	movw	%si, (%rsp)
	leaq	_ZNSt17_Function_handlerIFbRN8opendnp312HeaderWriterEEZNS0_8MContext14ScanAllObjectsENS0_16GroupVariationIDENS0_10TaskConfigEEUlS2_E_E9_M_invokeERKSt9_Any_dataS2_(%rip), %rax
	movq	%rsp, %rbp
	leaq	_ZNSt14_Function_base13_Base_managerIZN8opendnp38MContext14ScanAllObjectsENS1_16GroupVariationIDENS1_10TaskConfigEEUlRNS1_12HeaderWriterEE_E10_M_managerERSt9_Any_dataRKS9_St18_Manager_operation(%rip), %rsi
	movq	%rax, %xmm1
	movq	%rsi, %xmm0
	movq	%rbp, %rsi
	punpcklqdq	%xmm1, %xmm0
	movaps	%xmm0, 16(%rsp)
.LEHB48:
	call	_ZN8opendnp38MContext4ScanERKSt8functionIFbRNS_12HeaderWriterEEENS_10TaskConfigE@PLT
.LEHE48:
	movq	16(%rsp), %rax
	testq	%rax, %rax
	je	.L1347
	movl	$3, %edx
	movq	%rbp, %rsi
	movq	%rbp, %rdi
	call	*%rax
.L1347:
	movq	40(%rsp), %rax
	xorq	%fs:40, %rax
	jne	.L1360
	addq	$56, %rsp
	.cfi_remember_state
	.cfi_def_cfa_offset 24
	popq	%rbp
	.cfi_def_cfa_offset 16
	popq	%r12
	.cfi_def_cfa_offset 8
	ret
.L1360:
	.cfi_restore_state
	call	__stack_chk_fail@PLT
.L1352:
	endbr64
	movq	%rax, %r12
	jmp	.L1349
	.section	.gcc_except_table
.LLSDA3441:
	.byte	0xff
	.byte	0xff
	.byte	0x1
	.uleb128 .LLSDACSE3441-.LLSDACSB3441
.LLSDACSB3441:
	.uleb128 .LEHB48-.LFB3441
	.uleb128 .LEHE48-.LEHB48
	.uleb128 .L1352-.LFB3441
	.uleb128 0
.LLSDACSE3441:
	.text
	.cfi_endproc
	.section	.text.unlikely
	.cfi_startproc
	.cfi_personality 0x9b,DW.ref.__gxx_personality_v0
	.cfi_lsda 0x1b,.LLSDAC3441
	.type	_ZN8opendnp38MContext14ScanAllObjectsENS_16GroupVariationIDENS_10TaskConfigE.cold, @function
_ZN8opendnp38MContext14ScanAllObjectsENS_16GroupVariationIDENS_10TaskConfigE.cold:
.LFSB3441:
.L1349:
	.cfi_def_cfa_offset 80
	.cfi_offset 6, -24
	.cfi_offset 12, -16
	movq	16(%rsp), %rax
	testq	%rax, %rax
	je	.L1350
	movl	$3, %edx
	movq	%rbp, %rsi
	movq	%rbp, %rdi
	call	*%rax
.L1350:
	movq	%r12, %rdi
.LEHB49:
	call	_Unwind_Resume@PLT
.LEHE49:
	.cfi_endproc
.LFE3441:
	.section	.gcc_except_table
.LLSDAC3441:
	.byte	0xff
	.byte	0xff
	.byte	0x1
	.uleb128 .LLSDACSEC3441-.LLSDACSBC3441
.LLSDACSBC3441:
	.uleb128 .LEHB49-.LCOLDB32
	.uleb128 .LEHE49-.LEHB49
	.uleb128 0
	.uleb128 0
.LLSDACSEC3441:
	.section	.text.unlikely
	.text
	.size	_ZN8opendnp38MContext14ScanAllObjectsENS_16GroupVariationIDENS_10TaskConfigE, .-_ZN8opendnp38MContext14ScanAllObjectsENS_16GroupVariationIDENS_10TaskConfigE
	.section	.text.unlikely
	.size	_ZN8opendnp38MContext14ScanAllObjectsENS_16GroupVariationIDENS_10TaskConfigE.cold, .-_ZN8opendnp38MContext14ScanAllObjectsENS_16GroupVariationIDENS_10TaskConfigE.cold
.LCOLDE32:
	.text
.LHOTE32:
	.section	.text.unlikely
	.align 2
.LCOLDB33:
	.text
.LHOTB33:
	.align 2
	.p2align 4
	.globl	_ZN8opendnp38MContext9ScanRangeENS_16GroupVariationIDEttNS_10TaskConfigE
	.type	_ZN8opendnp38MContext9ScanRangeENS_16GroupVariationIDEttNS_10TaskConfigE, @function
_ZN8opendnp38MContext9ScanRangeENS_16GroupVariationIDEttNS_10TaskConfigE:
.LFB3443:
	.cfi_startproc
	.cfi_personality 0x9b,DW.ref.__gxx_personality_v0
	.cfi_lsda 0x1b,.LLSDA3443
	endbr64
	pushq	%r12
	.cfi_def_cfa_offset 16
	.cfi_offset 12, -16
	pushq	%rbp
	.cfi_def_cfa_offset 24
	.cfi_offset 6, -24
	subq	$56, %rsp
	.cfi_def_cfa_offset 80
	movq	%fs:40, %rax
	movq	%rax, 40(%rsp)
	xorl	%eax, %eax
	leaq	_ZNSt17_Function_handlerIFbRN8opendnp312HeaderWriterEEZNS0_8MContext9ScanRangeENS0_16GroupVariationIDEttNS0_10TaskConfigEEUlS2_E_E9_M_invokeERKSt9_Any_dataS2_(%rip), %rax
	movq	%rsp, %rbp
	movw	%si, (%rsp)
	movw	%cx, 4(%rsp)
	leaq	_ZNSt14_Function_base13_Base_managerIZN8opendnp38MContext9ScanRangeENS1_16GroupVariationIDEttNS1_10TaskConfigEEUlRNS1_12HeaderWriterEE_E10_M_managerERSt9_Any_dataRKS9_St18_Manager_operation(%rip), %rcx
	movq	%rax, %xmm1
	movq	%rbp, %rsi
	movq	%rcx, %xmm0
	movw	%dx, 2(%rsp)
	movq	%r9, %rcx
	movq	%r8, %rdx
	punpcklqdq	%xmm1, %xmm0
	movaps	%xmm0, 16(%rsp)
.LEHB50:
	call	_ZN8opendnp38MContext4ScanERKSt8functionIFbRNS_12HeaderWriterEEENS_10TaskConfigE@PLT
.LEHE50:
	movq	16(%rsp), %rax
	testq	%rax, %rax
	je	.L1361
	movl	$3, %edx
	movq	%rbp, %rsi
	movq	%rbp, %rdi
	call	*%rax
.L1361:
	movq	40(%rsp), %rax
	xorq	%fs:40, %rax
	jne	.L1374
	addq	$56, %rsp
	.cfi_remember_state
	.cfi_def_cfa_offset 24
	popq	%rbp
	.cfi_def_cfa_offset 16
	popq	%r12
	.cfi_def_cfa_offset 8
	ret
.L1374:
	.cfi_restore_state
	call	__stack_chk_fail@PLT
.L1366:
	endbr64
	movq	%rax, %r12
	jmp	.L1363
	.section	.gcc_except_table
.LLSDA3443:
	.byte	0xff
	.byte	0xff
	.byte	0x1
	.uleb128 .LLSDACSE3443-.LLSDACSB3443
.LLSDACSB3443:
	.uleb128 .LEHB50-.LFB3443
	.uleb128 .LEHE50-.LEHB50
	.uleb128 .L1366-.LFB3443
	.uleb128 0
.LLSDACSE3443:
	.text
	.cfi_endproc
	.section	.text.unlikely
	.cfi_startproc
	.cfi_personality 0x9b,DW.ref.__gxx_personality_v0
	.cfi_lsda 0x1b,.LLSDAC3443
	.type	_ZN8opendnp38MContext9ScanRangeENS_16GroupVariationIDEttNS_10TaskConfigE.cold, @function
_ZN8opendnp38MContext9ScanRangeENS_16GroupVariationIDEttNS_10TaskConfigE.cold:
.LFSB3443:
.L1363:
	.cfi_def_cfa_offset 80
	.cfi_offset 6, -24
	.cfi_offset 12, -16
	movq	16(%rsp), %rax
	testq	%rax, %rax
	je	.L1364
	movl	$3, %edx
	movq	%rbp, %rsi
	movq	%rbp, %rdi
	call	*%rax
.L1364:
	movq	%r12, %rdi
.LEHB51:
	call	_Unwind_Resume@PLT
.LEHE51:
	.cfi_endproc
.LFE3443:
	.section	.gcc_except_table
.LLSDAC3443:
	.byte	0xff
	.byte	0xff
	.byte	0x1
	.uleb128 .LLSDACSEC3443-.LLSDACSBC3443
.LLSDACSBC3443:
	.uleb128 .LEHB51-.LCOLDB33
	.uleb128 .LEHE51-.LEHB51
	.uleb128 0
	.uleb128 0
.LLSDACSEC3443:
	.section	.text.unlikely
	.text
	.size	_ZN8opendnp38MContext9ScanRangeENS_16GroupVariationIDEttNS_10TaskConfigE, .-_ZN8opendnp38MContext9ScanRangeENS_16GroupVariationIDEttNS_10TaskConfigE
	.section	.text.unlikely
	.size	_ZN8opendnp38MContext9ScanRangeENS_16GroupVariationIDEttNS_10TaskConfigE.cold, .-_ZN8opendnp38MContext9ScanRangeENS_16GroupVariationIDEttNS_10TaskConfigE.cold
.LCOLDE33:
	.text
.LHOTE33:
	.section	.text.unlikely
	.align 2
.LCOLDB35:
	.text
.LHOTB35:
	.align 2
	.p2align 4
	.globl	_ZN8opendnp38MContext5WriteERKNS_15TimeAndIntervalEtNS_10TaskConfigE
	.type	_ZN8opendnp38MContext5WriteERKNS_15TimeAndIntervalEtNS_10TaskConfigE, @function
_ZN8opendnp38MContext5WriteERKNS_15TimeAndIntervalEtNS_10TaskConfigE:
.LFB3445:
	.cfi_startproc
	.cfi_personality 0x9b,DW.ref.__gxx_personality_v0
	.cfi_lsda 0x1b,.LLSDA3445
	endbr64
	pushq	%rbp
	.cfi_def_cfa_offset 16
	.cfi_offset 6, -16
	movq	%rsp, %rbp
	.cfi_def_cfa_register 6
	pushq	%r15
	pushq	%r14
	.cfi_offset 15, -24
	.cfi_offset 14, -32
	leaq	-96(%rbp), %r15
	pushq	%r13
	.cfi_offset 13, -40
	leaq	-160(%rbp), %r13
	pushq	%r12
	.cfi_offset 12, -48
	movq	%rdi, %r12
	pushq	%rbx
	subq	$184, %rsp
	.cfi_offset 3, -56
	movl	%edx, -212(%rbp)
	movzbl	12(%rsi), %ebx
	movq	%rcx, -176(%rbp)
	movq	144(%rdi), %rcx
	movl	$176, %edi
	movq	%r8, -168(%rbp)
	movq	(%rsi), %r14
	movq	%fs:40, %rax
	movq	%rax, -56(%rbp)
	xorl	%eax, %eax
	movl	8(%rsi), %eax
	movb	%bl, -201(%rbp)
	leaq	-80(%rbp), %rbx
	movq	%rcx, -200(%rbp)
	movl	%eax, -208(%rbp)
.LEHB52:
	call	_Znwm@PLT
.LEHE52:
	xorl	%edx, %edx
	movq	%r13, %rsi
	movq	%rbx, -96(%rbp)
	movabsq	$4294967297, %rdi
	movq	%rax, %rcx
	movq	%rax, -192(%rbp)
	movq	%rdi, 8(%rax)
	addq	$16, %rcx
	movq	_ZTVSt23_Sp_counted_ptr_inplaceIN8opendnp317EmptyResponseTaskESaIS1_ELN9__gnu_cxx12_Lock_policyE2EE@GOTPCREL(%rip), %rax
	movq	%r15, %rdi
	movq	$21, -160(%rbp)
	addq	$16, %rax
	movq	%rax, -16(%rcx)
	movq	%rcx, -184(%rbp)
.LEHB53:
	call	_ZNSt7__cxx1112basic_stringIcSt11char_traitsIcESaIcEE9_M_createERmm@PLT
.LEHE53:
	movq	-160(%rbp), %rdx
	movq	%rax, -96(%rbp)
	movl	$24, %edi
	movdqa	.LC34(%rip), %xmm0
	movq	%rdx, -80(%rbp)
	movups	%xmm0, (%rax)
	movq	-96(%rbp), %rdx
	movl	$1635152485, 16(%rax)
	movb	$108, 20(%rax)
	movq	-160(%rbp), %rax
	movq	%rax, -88(%rbp)
	movb	$0, (%rdx,%rax)
	movq	$0, -112(%rbp)
.LEHB54:
	call	_Znwm@PLT
.LEHE54:
	movl	-208(%rbp), %esi
	movzwl	-212(%rbp), %edx
	movq	%r14, (%rax)
	movq	%rax, -128(%rbp)
	movdqu	24(%r12), %xmm2
	movl	%esi, 8(%rax)
	movzbl	-201(%rbp), %esi
	movw	%dx, 16(%rax)
	leaq	_ZNSt14_Function_base13_Base_managerIZN8opendnp38MContext5WriteERKNS1_15TimeAndIntervalEtNS1_10TaskConfigEEUlRNS1_12HeaderWriterEE_E10_M_managerERSt9_Any_dataRKSB_St18_Manager_operation(%rip), %rdx
	movb	%sil, 12(%rax)
	leaq	_ZNSt17_Function_handlerIFbRN8opendnp312HeaderWriterEEZNS0_8MContext5WriteERKNS0_15TimeAndIntervalEtNS0_10TaskConfigEEUlS2_E_E9_M_invokeERKSt9_Any_dataS2_(%rip), %rax
	movq	%rdx, %xmm0
	movq	%rax, %xmm1
	movq	32(%r12), %rax
	movaps	%xmm2, -160(%rbp)
	punpcklqdq	%xmm1, %xmm0
	movaps	%xmm0, -112(%rbp)
	testq	%rax, %rax
	je	.L1377
	cmpq	$0, _ZL28__gthrw___pthread_key_createPjPFvPvE@GOTPCREL(%rip)
	je	.L1381
	lock addl	$1, 8(%rax)
.L1377:
	movdqu	40(%r12), %xmm3
	movq	48(%r12), %rax
	movaps	%xmm3, -144(%rbp)
	testq	%rax, %rax
	je	.L1382
	cmpq	$0, _ZL28__gthrw___pthread_key_createPjPFvPvE@GOTPCREL(%rip)
	je	.L1383
	lock addl	$1, 8(%rax)
.L1382:
	subq	$8, %rsp
	leaq	-128(%rbp), %r14
	movq	%r13, %r9
	movl	$2, %ecx
	leaq	-176(%rbp), %rax
	movq	-200(%rbp), %rsi
	movq	%r14, %r8
	movq	%r15, %rdx
	pushq	%rax
	movq	-184(%rbp), %rdi
.LEHB55:
	.cfi_escape 0x2e,0x10
	call	_ZN8opendnp317EmptyResponseTaskC1ERNS_18IMasterApplicationERKNSt7__cxx1112basic_stringIcSt11char_traitsIcESaIcEEENS_12FunctionCodeERKSt8functionIFbRNS_12HeaderWriterEEEN7openpal6LoggerERKNS_10TaskConfigE@PLT
.LEHE55:
	movq	-136(%rbp), %rdi
	popq	%rax
	movq	_ZL28__gthrw___pthread_key_createPjPFvPvE@GOTPCREL(%rip), %r15
	popq	%rdx
	testq	%rdi, %rdi
	je	.L1385
	testq	%r15, %r15
	je	.L1386
	movl	$-1, %eax
	lock xaddl	%eax, 8(%rdi)
	cmpl	$1, %eax
	je	.L1449
	.p2align 4,,10
	.p2align 3
.L1385:
	movq	-152(%rbp), %rdi
	testq	%rdi, %rdi
	je	.L1392
	testq	%r15, %r15
	je	.L1393
	movl	$-1, %eax
	lock xaddl	%eax, 8(%rdi)
	cmpl	$1, %eax
	je	.L1450
	.p2align 4,,10
	.p2align 3
.L1392:
	movq	-112(%rbp), %rax
	testq	%rax, %rax
	je	.L1398
	movl	$3, %edx
	movq	%r14, %rsi
	movq	%r14, %rdi
	call	*%rax
.L1398:
	movq	-96(%rbp), %rdi
	cmpq	%rbx, %rdi
	je	.L1399
	call	_ZdlPv@PLT
.L1399:
	movq	-184(%rbp), %xmm0
	movq	-192(%rbp), %rax
	movq	%rax, %xmm4
	leaq	8(%rax), %rbx
	punpcklqdq	%xmm4, %xmm0
	movaps	%xmm0, -160(%rbp)
	testq	%r15, %r15
	je	.L1451
	lock addl	$1, (%rbx)
.L1404:
	movq	%r13, %rsi
	movq	%r12, %rdi
.LEHB56:
	.cfi_escape 0x2e,0
	call	_ZN8opendnp38MContext17ScheduleAdhocTaskERKSt10shared_ptrINS_11IMasterTaskEE@PLT
.LEHE56:
	movq	-152(%rbp), %r12
	testq	%r12, %r12
	je	.L1410
	testq	%r15, %r15
	je	.L1406
	movl	$-1, %eax
	lock xaddl	%eax, 8(%r12)
	cmpl	$1, %eax
	je	.L1452
	.p2align 4,,10
	.p2align 3
.L1410:
	testq	%r15, %r15
	je	.L1453
	movl	$-1, %eax
	lock xaddl	%eax, (%rbx)
	cmpl	$1, %eax
	je	.L1454
.L1375:
	movq	-56(%rbp), %rax
	xorq	%fs:40, %rax
	jne	.L1455
	leaq	-40(%rbp), %rsp
	popq	%rbx
	popq	%r12
	popq	%r13
	popq	%r14
	popq	%r15
	popq	%rbp
	.cfi_remember_state
	.cfi_def_cfa 7, 8
	ret
	.p2align 4,,10
	.p2align 3
.L1451:
	.cfi_restore_state
	addl	$1, 8(%rax)
	jmp	.L1404
	.p2align 4,,10
	.p2align 3
.L1383:
	addl	$1, 8(%rax)
	jmp	.L1382
	.p2align 4,,10
	.p2align 3
.L1381:
	addl	$1, 8(%rax)
	jmp	.L1377
	.p2align 4,,10
	.p2align 3
.L1386:
	movl	8(%rdi), %eax
	leal	-1(%rax), %edx
	movl	%edx, 8(%rdi)
	cmpl	$1, %eax
	jne	.L1385
.L1449:
	movq	(%rdi), %rax
	movq	%rdi, -200(%rbp)
	call	*16(%rax)
	testq	%r15, %r15
	movq	-200(%rbp), %rdi
	je	.L1389
	movl	$-1, %eax
	lock xaddl	%eax, 12(%rdi)
.L1390:
	cmpl	$1, %eax
	jne	.L1385
	movq	(%rdi), %rax
	call	*24(%rax)
	jmp	.L1385
	.p2align 4,,10
	.p2align 3
.L1393:
	movl	8(%rdi), %eax
	leal	-1(%rax), %edx
	movl	%edx, 8(%rdi)
	cmpl	$1, %eax
	jne	.L1392
.L1450:
	movq	(%rdi), %rax
	movq	%rdi, -200(%rbp)
	call	*16(%rax)
	testq	%r15, %r15
	movq	-200(%rbp), %rdi
	je	.L1396
	movl	$-1, %eax
	lock xaddl	%eax, 12(%rdi)
.L1397:
	cmpl	$1, %eax
	jne	.L1392
	movq	(%rdi), %rax
	call	*24(%rax)
	jmp	.L1392
	.p2align 4,,10
	.p2align 3
.L1453:
	movq	-192(%rbp), %rbx
	movl	8(%rbx), %eax
	leal	-1(%rax), %edx
	movl	%edx, 8(%rbx)
	cmpl	$1, %eax
	jne	.L1375
.L1454:
	movq	-192(%rbp), %rbx
	movq	(%rbx), %rax
	movq	%rbx, %rdi
	call	*16(%rax)
	testq	%r15, %r15
	je	.L1414
	movl	$-1, %eax
	lock xaddl	%eax, 12(%rbx)
.L1415:
	cmpl	$1, %eax
	jne	.L1375
	movq	-192(%rbp), %rdi
	movq	(%rdi), %rax
	call	*24(%rax)
	jmp	.L1375
	.p2align 4,,10
	.p2align 3
.L1406:
	movl	8(%r12), %eax
	leal	-1(%rax), %edx
	movl	%edx, 8(%r12)
	cmpl	$1, %eax
	jne	.L1410
.L1452:
	movq	(%r12), %rax
	movq	%r12, %rdi
	call	*16(%rax)
	testq	%r15, %r15
	je	.L1408
	movl	$-1, %eax
	lock xaddl	%eax, 12(%r12)
.L1409:
	cmpl	$1, %eax
	jne	.L1410
	movq	(%r12), %rax
	movq	%r12, %rdi
	call	*24(%rax)
	jmp	.L1410
	.p2align 4,,10
	.p2align 3
.L1389:
	movl	12(%rdi), %eax
	leal	-1(%rax), %edx
	movl	%edx, 12(%rdi)
	jmp	.L1390
	.p2align 4,,10
	.p2align 3
.L1396:
	movl	12(%rdi), %eax
	leal	-1(%rax), %edx
	movl	%edx, 12(%rdi)
	jmp	.L1397
	.p2align 4,,10
	.p2align 3
.L1414:
	movq	-192(%rbp), %rbx
	movl	12(%rbx), %eax
	leal	-1(%rax), %edx
	movl	%edx, 12(%rbx)
	jmp	.L1415
	.p2align 4,,10
	.p2align 3
.L1408:
	movl	12(%r12), %eax
	leal	-1(%rax), %edx
	movl	%edx, 12(%r12)
	jmp	.L1409
.L1455:
	call	__stack_chk_fail@PLT
.L1427:
	endbr64
	movq	%rax, %r12
	jmp	.L1378
.L1425:
	endbr64
	movq	%rax, %r12
	jmp	.L1403
.L1426:
	endbr64
	movq	%rax, %r12
	jmp	.L1400
.L1424:
	endbr64
	movq	%rax, %r12
	jmp	.L1417
	.section	.gcc_except_table
.LLSDA3445:
	.byte	0xff
	.byte	0xff
	.byte	0x1
	.uleb128 .LLSDACSE3445-.LLSDACSB3445
.LLSDACSB3445:
	.uleb128 .LEHB52-.LFB3445
	.uleb128 .LEHE52-.LEHB52
	.uleb128 0
	.uleb128 0
	.uleb128 .LEHB53-.LFB3445
	.uleb128 .LEHE53-.LEHB53
	.uleb128 .L1425-.LFB3445
	.uleb128 0
	.uleb128 .LEHB54-.LFB3445
	.uleb128 .LEHE54-.LEHB54
	.uleb128 .L1427-.LFB3445
	.uleb128 0
	.uleb128 .LEHB55-.LFB3445
	.uleb128 .LEHE55-.LEHB55
	.uleb128 .L1426-.LFB3445
	.uleb128 0
	.uleb128 .LEHB56-.LFB3445
	.uleb128 .LEHE56-.LEHB56
	.uleb128 .L1424-.LFB3445
	.uleb128 0
.LLSDACSE3445:
	.text
	.cfi_endproc
	.section	.text.unlikely
	.cfi_startproc
	.cfi_personality 0x9b,DW.ref.__gxx_personality_v0
	.cfi_lsda 0x1b,.LLSDAC3445
	.type	_ZN8opendnp38MContext5WriteERKNS_15TimeAndIntervalEtNS_10TaskConfigE.cold, @function
_ZN8opendnp38MContext5WriteERKNS_15TimeAndIntervalEtNS_10TaskConfigE.cold:
.LFSB3445:
.L1378:
	.cfi_def_cfa 6, 16
	.cfi_offset 3, -56
	.cfi_offset 6, -16
	.cfi_offset 12, -48
	.cfi_offset 13, -40
	.cfi_offset 14, -32
	.cfi_offset 15, -24
	movq	-112(%rbp), %rax
	testq	%rax, %rax
	je	.L1380
	leaq	-128(%rbp), %rdi
	movl	$3, %edx
	movq	%rdi, %rsi
	call	*%rax
.L1380:
	movq	-96(%rbp), %rdi
	cmpq	%rbx, %rdi
	je	.L1403
	call	_ZdlPv@PLT
.L1403:
	movq	-192(%rbp), %rdi
	call	_ZdlPv@PLT
	movq	%r12, %rdi
.LEHB57:
	call	_Unwind_Resume@PLT
.LEHE57:
.L1400:
	movq	%r13, %rdi
	call	_ZN7openpal6LoggerD1Ev@PLT
	movq	-112(%rbp), %rax
	testq	%rax, %rax
	je	.L1380
	movl	$3, %edx
	movq	%r14, %rsi
	movq	%r14, %rdi
	call	*%rax
	jmp	.L1380
.L1417:
	movq	-152(%rbp), %rdi
	testq	%rdi, %rdi
	je	.L1418
	call	_ZNSt16_Sp_counted_baseILN9__gnu_cxx12_Lock_policyE2EE10_M_releaseEv@PLT
.L1418:
	movq	-192(%rbp), %rdi
	call	_ZNSt16_Sp_counted_baseILN9__gnu_cxx12_Lock_policyE2EE10_M_releaseEv@PLT
	movq	%r12, %rdi
.LEHB58:
	call	_Unwind_Resume@PLT
.LEHE58:
	.cfi_endproc
.LFE3445:
	.section	.gcc_except_table
.LLSDAC3445:
	.byte	0xff
	.byte	0xff
	.byte	0x1
	.uleb128 .LLSDACSEC3445-.LLSDACSBC3445
.LLSDACSBC3445:
	.uleb128 .LEHB57-.LCOLDB35
	.uleb128 .LEHE57-.LEHB57
	.uleb128 0
	.uleb128 0
	.uleb128 .LEHB58-.LCOLDB35
	.uleb128 .LEHE58-.LEHB58
	.uleb128 0
	.uleb128 0
.LLSDACSEC3445:
	.section	.text.unlikely
	.text
	.size	_ZN8opendnp38MContext5WriteERKNS_15TimeAndIntervalEtNS_10TaskConfigE, .-_ZN8opendnp38MContext5WriteERKNS_15TimeAndIntervalEtNS_10TaskConfigE
	.section	.text.unlikely
	.size	_ZN8opendnp38MContext5WriteERKNS_15TimeAndIntervalEtNS_10TaskConfigE.cold, .-_ZN8opendnp38MContext5WriteERKNS_15TimeAndIntervalEtNS_10TaskConfigE.cold
.LCOLDE35:
	.text
.LHOTE35:
	.section	.text.unlikely
	.align 2
.LCOLDB36:
	.text
.LHOTB36:
	.align 2
	.p2align 4
	.globl	_ZN8opendnp38MContext15PerformFunctionERKNSt7__cxx1112basic_stringIcSt11char_traitsIcESaIcEEENS_12FunctionCodeERKSt8functionIFbRNS_12HeaderWriterEEENS_10TaskConfigE
	.type	_ZN8opendnp38MContext15PerformFunctionERKNSt7__cxx1112basic_stringIcSt11char_traitsIcESaIcEEENS_12FunctionCodeERKSt8functionIFbRNS_12HeaderWriterEEENS_10TaskConfigE, @function
_ZN8opendnp38MContext15PerformFunctionERKNSt7__cxx1112basic_stringIcSt11char_traitsIcESaIcEEENS_12FunctionCodeERKSt8functionIFbRNS_12HeaderWriterEEENS_10TaskConfigE:
.LFB3460:
	.cfi_startproc
	.cfi_personality 0x9b,DW.ref.__gxx_personality_v0
	.cfi_lsda 0x1b,.LLSDA3460
	endbr64
	pushq	%rbp
	.cfi_def_cfa_offset 16
	.cfi_offset 6, -16
	movq	%rsp, %rbp
	.cfi_def_cfa_register 6
	pushq	%r15
	pushq	%r14
	pushq	%r13
	.cfi_offset 15, -24
	.cfi_offset 14, -32
	.cfi_offset 13, -40
	movq	%rsi, %r13
	pushq	%r12
	.cfi_offset 12, -48
	movq	%rdi, %r12
	pushq	%rbx
	.cfi_offset 3, -56
	movl	%edx, %ebx
	subq	$104, %rsp
	movq	%r8, -112(%rbp)
	movq	144(%rdi), %rsi
	movl	$176, %edi
	movq	%rcx, -136(%rbp)
	movq	%r9, -104(%rbp)
	movq	%fs:40, %rax
	movq	%rax, -56(%rbp)
	xorl	%eax, %eax
	movq	%rsi, -128(%rbp)
.LEHB59:
	call	_Znwm@PLT
.LEHE59:
	movdqu	24(%r12), %xmm1
	movq	-128(%rbp), %rsi
	movq	%rax, %rdx
	movq	%rax, -120(%rbp)
	movq	-136(%rbp), %rcx
	movabsq	$4294967297, %rax
	movq	%rax, 8(%rdx)
	movq	_ZTVSt23_Sp_counted_ptr_inplaceIN8opendnp317EmptyResponseTaskESaIS1_ELN9__gnu_cxx12_Lock_policyE2EE@GOTPCREL(%rip), %rax
	leaq	16(%rdx), %r14
	movaps	%xmm1, -96(%rbp)
	addq	$16, %rax
	movq	%rax, (%rdx)
	movq	32(%r12), %rax
	testq	%rax, %rax
	je	.L1457
	cmpq	$0, _ZL28__gthrw___pthread_key_createPjPFvPvE@GOTPCREL(%rip)
	je	.L1458
	lock addl	$1, 8(%rax)
.L1457:
	movdqu	40(%r12), %xmm2
	movq	48(%r12), %rax
	movaps	%xmm2, -80(%rbp)
	testq	%rax, %rax
	je	.L1459
	cmpq	$0, _ZL28__gthrw___pthread_key_createPjPFvPvE@GOTPCREL(%rip)
	je	.L1460
	lock addl	$1, 8(%rax)
.L1459:
	subq	$8, %rsp
	leaq	-112(%rbp), %rax
	leaq	-96(%rbp), %r15
	movq	%rcx, %r8
	pushq	%rax
	movq	%r15, %r9
	movl	%ebx, %ecx
	movq	%r13, %rdx
	movq	%r14, %rdi
.LEHB60:
	.cfi_escape 0x2e,0x10
	call	_ZN8opendnp317EmptyResponseTaskC1ERNS_18IMasterApplicationERKNSt7__cxx1112basic_stringIcSt11char_traitsIcESaIcEEENS_12FunctionCodeERKSt8functionIFbRNS_12HeaderWriterEEEN7openpal6LoggerERKNS_10TaskConfigE@PLT
.LEHE60:
	movq	-72(%rbp), %r13
	popq	%rax
	movq	_ZL28__gthrw___pthread_key_createPjPFvPvE@GOTPCREL(%rip), %rbx
	popq	%rdx
	testq	%r13, %r13
	je	.L1462
	testq	%rbx, %rbx
	je	.L1463
	movl	$-1, %eax
	lock xaddl	%eax, 8(%r13)
	cmpl	$1, %eax
	je	.L1515
	.p2align 4,,10
	.p2align 3
.L1462:
	movq	-88(%rbp), %r13
	testq	%r13, %r13
	je	.L1473
	testq	%rbx, %rbx
	je	.L1469
	movl	$-1, %eax
	lock xaddl	%eax, 8(%r13)
	cmpl	$1, %eax
	je	.L1516
	.p2align 4,,10
	.p2align 3
.L1473:
	movq	-120(%rbp), %rax
	movq	%r14, %xmm0
	movq	%rax, %xmm3
	leaq	8(%rax), %r13
	punpcklqdq	%xmm3, %xmm0
	movaps	%xmm0, -96(%rbp)
	testq	%rbx, %rbx
	je	.L1517
	lock addl	$1, 0(%r13)
.L1475:
	movq	%r15, %rsi
	movq	%r12, %rdi
.LEHB61:
	.cfi_escape 0x2e,0
	call	_ZN8opendnp38MContext17ScheduleAdhocTaskERKSt10shared_ptrINS_11IMasterTaskEE@PLT
.LEHE61:
	movq	-88(%rbp), %r12
	testq	%r12, %r12
	je	.L1481
	testq	%rbx, %rbx
	je	.L1477
	movl	$-1, %eax
	lock xaddl	%eax, 8(%r12)
	cmpl	$1, %eax
	je	.L1518
	.p2align 4,,10
	.p2align 3
.L1481:
	testq	%rbx, %rbx
	je	.L1519
	movl	$-1, %eax
	lock xaddl	%eax, 0(%r13)
	cmpl	$1, %eax
	je	.L1520
.L1456:
	movq	-56(%rbp), %rax
	xorq	%fs:40, %rax
	jne	.L1521
	leaq	-40(%rbp), %rsp
	popq	%rbx
	popq	%r12
	popq	%r13
	popq	%r14
	popq	%r15
	popq	%rbp
	.cfi_remember_state
	.cfi_def_cfa 7, 8
	ret
	.p2align 4,,10
	.p2align 3
.L1517:
	.cfi_restore_state
	addl	$1, 8(%rax)
	jmp	.L1475
	.p2align 4,,10
	.p2align 3
.L1458:
	addl	$1, 8(%rax)
	jmp	.L1457
	.p2align 4,,10
	.p2align 3
.L1460:
	addl	$1, 8(%rax)
	jmp	.L1459
	.p2align 4,,10
	.p2align 3
.L1469:
	movl	8(%r13), %eax
	leal	-1(%rax), %edx
	movl	%edx, 8(%r13)
	cmpl	$1, %eax
	jne	.L1473
.L1516:
	movq	0(%r13), %rax
	movq	%r13, %rdi
	call	*16(%rax)
	testq	%rbx, %rbx
	je	.L1471
	movl	$-1, %eax
	lock xaddl	%eax, 12(%r13)
.L1472:
	cmpl	$1, %eax
	jne	.L1473
	movq	0(%r13), %rax
	movq	%r13, %rdi
	call	*24(%rax)
	jmp	.L1473
	.p2align 4,,10
	.p2align 3
.L1463:
	movl	8(%r13), %eax
	leal	-1(%rax), %edx
	movl	%edx, 8(%r13)
	cmpl	$1, %eax
	jne	.L1462
.L1515:
	movq	0(%r13), %rax
	movq	%r13, %rdi
	call	*16(%rax)
	testq	%rbx, %rbx
	je	.L1466
	movl	$-1, %eax
	lock xaddl	%eax, 12(%r13)
.L1467:
	cmpl	$1, %eax
	jne	.L1462
	movq	0(%r13), %rax
	movq	%r13, %rdi
	call	*24(%rax)
	jmp	.L1462
	.p2align 4,,10
	.p2align 3
.L1477:
	movl	8(%r12), %eax
	leal	-1(%rax), %edx
	movl	%edx, 8(%r12)
	cmpl	$1, %eax
	jne	.L1481
.L1518:
	movq	(%r12), %rax
	movq	%r12, %rdi
	call	*16(%rax)
	testq	%rbx, %rbx
	je	.L1479
	movl	$-1, %eax
	lock xaddl	%eax, 12(%r12)
.L1480:
	cmpl	$1, %eax
	jne	.L1481
	movq	(%r12), %rax
	movq	%r12, %rdi
	call	*24(%rax)
	jmp	.L1481
	.p2align 4,,10
	.p2align 3
.L1519:
	movq	-120(%rbp), %rdi
	movl	8(%rdi), %eax
	leal	-1(%rax), %edx
	movl	%edx, 8(%rdi)
	cmpl	$1, %eax
	jne	.L1456
.L1520:
	movq	-120(%rbp), %r14
	movq	(%r14), %rax
	movq	%r14, %rdi
	call	*16(%rax)
	testq	%rbx, %rbx
	je	.L1485
	movl	$-1, %eax
	lock xaddl	%eax, 12(%r14)
.L1486:
	cmpl	$1, %eax
	jne	.L1456
	movq	-120(%rbp), %rdi
	movq	(%rdi), %rax
	call	*24(%rax)
	jmp	.L1456
	.p2align 4,,10
	.p2align 3
.L1471:
	movl	12(%r13), %eax
	leal	-1(%rax), %edx
	movl	%edx, 12(%r13)
	jmp	.L1472
	.p2align 4,,10
	.p2align 3
.L1479:
	movl	12(%r12), %eax
	leal	-1(%rax), %edx
	movl	%edx, 12(%r12)
	jmp	.L1480
	.p2align 4,,10
	.p2align 3
.L1466:
	movl	12(%r13), %eax
	leal	-1(%rax), %edx
	movl	%edx, 12(%r13)
	jmp	.L1467
	.p2align 4,,10
	.p2align 3
.L1485:
	movq	-120(%rbp), %rbx
	movl	12(%rbx), %eax
	leal	-1(%rax), %edx
	movl	%edx, 12(%rbx)
	jmp	.L1486
.L1521:
	call	__stack_chk_fail@PLT
.L1496:
	endbr64
	movq	%rax, %r12
	jmp	.L1474
.L1495:
	endbr64
	movq	%rax, %r12
	jmp	.L1488
	.section	.gcc_except_table
.LLSDA3460:
	.byte	0xff
	.byte	0xff
	.byte	0x1
	.uleb128 .LLSDACSE3460-.LLSDACSB3460
.LLSDACSB3460:
	.uleb128 .LEHB59-.LFB3460
	.uleb128 .LEHE59-.LEHB59
	.uleb128 0
	.uleb128 0
	.uleb128 .LEHB60-.LFB3460
	.uleb128 .LEHE60-.LEHB60
	.uleb128 .L1496-.LFB3460
	.uleb128 0
	.uleb128 .LEHB61-.LFB3460
	.uleb128 .LEHE61-.LEHB61
	.uleb128 .L1495-.LFB3460
	.uleb128 0
.LLSDACSE3460:
	.text
	.cfi_endproc
	.section	.text.unlikely
	.cfi_startproc
	.cfi_personality 0x9b,DW.ref.__gxx_personality_v0
	.cfi_lsda 0x1b,.LLSDAC3460
	.type	_ZN8opendnp38MContext15PerformFunctionERKNSt7__cxx1112basic_stringIcSt11char_traitsIcESaIcEEENS_12FunctionCodeERKSt8functionIFbRNS_12HeaderWriterEEENS_10TaskConfigE.cold, @function
_ZN8opendnp38MContext15PerformFunctionERKNSt7__cxx1112basic_stringIcSt11char_traitsIcESaIcEEENS_12FunctionCodeERKSt8functionIFbRNS_12HeaderWriterEEENS_10TaskConfigE.cold:
.LFSB3460:
.L1474:
	.cfi_def_cfa 6, 16
	.cfi_offset 3, -56
	.cfi_offset 6, -16
	.cfi_offset 12, -48
	.cfi_offset 13, -40
	.cfi_offset 14, -32
	.cfi_offset 15, -24
	movq	%r15, %rdi
	call	_ZN7openpal6LoggerD1Ev@PLT
	movq	-120(%rbp), %rdi
	call	_ZdlPv@PLT
	movq	%r12, %rdi
.LEHB62:
	call	_Unwind_Resume@PLT
.L1488:
	movq	-88(%rbp), %rdi
	testq	%rdi, %rdi
	je	.L1489
	call	_ZNSt16_Sp_counted_baseILN9__gnu_cxx12_Lock_policyE2EE10_M_releaseEv@PLT
.L1489:
	movq	-120(%rbp), %rdi
	call	_ZNSt16_Sp_counted_baseILN9__gnu_cxx12_Lock_policyE2EE10_M_releaseEv@PLT
	movq	%r12, %rdi
	call	_Unwind_Resume@PLT
.LEHE62:
	.cfi_endproc
.LFE3460:
	.section	.gcc_except_table
.LLSDAC3460:
	.byte	0xff
	.byte	0xff
	.byte	0x1
	.uleb128 .LLSDACSEC3460-.LLSDACSBC3460
.LLSDACSBC3460:
	.uleb128 .LEHB62-.LCOLDB36
	.uleb128 .LEHE62-.LEHB62
	.uleb128 0
	.uleb128 0
.LLSDACSEC3460:
	.section	.text.unlikely
	.text
	.size	_ZN8opendnp38MContext15PerformFunctionERKNSt7__cxx1112basic_stringIcSt11char_traitsIcESaIcEEENS_12FunctionCodeERKSt8functionIFbRNS_12HeaderWriterEEENS_10TaskConfigE, .-_ZN8opendnp38MContext15PerformFunctionERKNSt7__cxx1112basic_stringIcSt11char_traitsIcESaIcEEENS_12FunctionCodeERKSt8functionIFbRNS_12HeaderWriterEEENS_10TaskConfigE
	.section	.text.unlikely
	.size	_ZN8opendnp38MContext15PerformFunctionERKNSt7__cxx1112basic_stringIcSt11char_traitsIcESaIcEEENS_12FunctionCodeERKSt8functionIFbRNS_12HeaderWriterEEENS_10TaskConfigE.cold, .-_ZN8opendnp38MContext15PerformFunctionERKNSt7__cxx1112basic_stringIcSt11char_traitsIcESaIcEEENS_12FunctionCodeERKSt8functionIFbRNS_12HeaderWriterEEENS_10TaskConfigE.cold
.LCOLDE36:
	.text
.LHOTE36:
	.section	.text.unlikely
	.align 2
.LCOLDB37:
	.text
.LHOTB37:
	.align 2
	.p2align 4
	.globl	_ZN8opendnp38MContext7RestartENS_11RestartTypeERKSt8functionIFvRKNS_22RestartOperationResultEEENS_10TaskConfigE
	.type	_ZN8opendnp38MContext7RestartENS_11RestartTypeERKSt8functionIFvRKNS_22RestartOperationResultEEENS_10TaskConfigE, @function
_ZN8opendnp38MContext7RestartENS_11RestartTypeERKSt8functionIFvRKNS_22RestartOperationResultEEENS_10TaskConfigE:
.LFB3453:
	.cfi_startproc
	.cfi_personality 0x9b,DW.ref.__gxx_personality_v0
	.cfi_lsda 0x1b,.LLSDA3453
	endbr64
	pushq	%r15
	.cfi_def_cfa_offset 16
	.cfi_offset 15, -16
	pushq	%r14
	.cfi_def_cfa_offset 24
	.cfi_offset 14, -24
	pushq	%r13
	.cfi_def_cfa_offset 32
	.cfi_offset 13, -32
	movq	%rdx, %r13
	pushq	%r12
	.cfi_def_cfa_offset 40
	.cfi_offset 12, -40
	movq	%rdi, %r12
	pushq	%rbp
	.cfi_def_cfa_offset 48
	.cfi_offset 6, -48
	pushq	%rbx
	.cfi_def_cfa_offset 56
	.cfi_offset 3, -56
	movl	%esi, %ebx
	subq	$88, %rsp
	.cfi_def_cfa_offset 144
	movq	144(%rdi), %rsi
	movl	$208, %edi
	movq	%rcx, 16(%rsp)
	movq	%r8, 24(%rsp)
	movq	%fs:40, %rax
	movq	%rax, 72(%rsp)
	xorl	%eax, %eax
	movq	%rsi, 8(%rsp)
.LEHB63:
	call	_Znwm@PLT
.LEHE63:
	movdqu	24(%r12), %xmm1
	movq	8(%rsp), %rsi
	movq	%rax, %rbp
	movabsq	$4294967297, %rax
	movq	%rax, 8(%rbp)
	movq	_ZTVSt23_Sp_counted_ptr_inplaceIN8opendnp320RestartOperationTaskESaIS1_ELN9__gnu_cxx12_Lock_policyE2EE@GOTPCREL(%rip), %rax
	leaq	16(%rbp), %r14
	movaps	%xmm1, 32(%rsp)
	addq	$16, %rax
	movq	%rax, 0(%rbp)
	movq	32(%r12), %rax
	testq	%rax, %rax
	je	.L1523
	cmpq	$0, _ZL28__gthrw___pthread_key_createPjPFvPvE@GOTPCREL(%rip)
	je	.L1524
	lock addl	$1, 8(%rax)
.L1523:
	movdqu	40(%r12), %xmm2
	movq	48(%r12), %rax
	movaps	%xmm2, 48(%rsp)
	testq	%rax, %rax
	je	.L1525
	cmpq	$0, _ZL28__gthrw___pthread_key_createPjPFvPvE@GOTPCREL(%rip)
	je	.L1526
	lock addl	$1, 8(%rax)
.L1525:
	leaq	32(%rsp), %r15
	leaq	16(%rsp), %r9
	movq	%r13, %rcx
	movl	%ebx, %edx
	movq	%r15, %r8
	movq	%r14, %rdi
.LEHB64:
	call	_ZN8opendnp320RestartOperationTaskC1ERNS_18IMasterApplicationENS_11RestartTypeERKSt8functionIFvRKNS_22RestartOperationResultEEEN7openpal6LoggerERKNS_10TaskConfigE@PLT
.LEHE64:
	movq	56(%rsp), %r13
	movq	_ZL28__gthrw___pthread_key_createPjPFvPvE@GOTPCREL(%rip), %rbx
	testq	%r13, %r13
	je	.L1528
	testq	%rbx, %rbx
	je	.L1529
	movl	$-1, %eax
	lock xaddl	%eax, 8(%r13)
	cmpl	$1, %eax
	je	.L1581
	.p2align 4,,10
	.p2align 3
.L1528:
	movq	40(%rsp), %r13
	testq	%r13, %r13
	je	.L1539
	testq	%rbx, %rbx
	je	.L1535
	movl	$-1, %eax
	lock xaddl	%eax, 8(%r13)
	cmpl	$1, %eax
	je	.L1582
	.p2align 4,,10
	.p2align 3
.L1539:
	movq	%r14, %xmm0
	movq	%rbp, %xmm3
	leaq	8(%rbp), %r13
	punpcklqdq	%xmm3, %xmm0
	movaps	%xmm0, 32(%rsp)
	testq	%rbx, %rbx
	je	.L1583
	lock addl	$1, 0(%r13)
.L1541:
	movq	%r15, %rsi
	movq	%r12, %rdi
.LEHB65:
	call	_ZN8opendnp38MContext17ScheduleAdhocTaskERKSt10shared_ptrINS_11IMasterTaskEE@PLT
.LEHE65:
	movq	40(%rsp), %r12
	testq	%r12, %r12
	je	.L1547
	testq	%rbx, %rbx
	je	.L1543
	movl	$-1, %eax
	lock xaddl	%eax, 8(%r12)
	cmpl	$1, %eax
	je	.L1584
	.p2align 4,,10
	.p2align 3
.L1547:
	testq	%rbx, %rbx
	je	.L1585
	movl	$-1, %eax
	lock xaddl	%eax, 0(%r13)
	cmpl	$1, %eax
	je	.L1586
.L1522:
	movq	72(%rsp), %rax
	xorq	%fs:40, %rax
	jne	.L1587
	addq	$88, %rsp
	.cfi_remember_state
	.cfi_def_cfa_offset 56
	popq	%rbx
	.cfi_def_cfa_offset 48
	popq	%rbp
	.cfi_def_cfa_offset 40
	popq	%r12
	.cfi_def_cfa_offset 32
	popq	%r13
	.cfi_def_cfa_offset 24
	popq	%r14
	.cfi_def_cfa_offset 16
	popq	%r15
	.cfi_def_cfa_offset 8
	ret
	.p2align 4,,10
	.p2align 3
.L1583:
	.cfi_restore_state
	addl	$1, 8(%rbp)
	jmp	.L1541
	.p2align 4,,10
	.p2align 3
.L1524:
	addl	$1, 8(%rax)
	jmp	.L1523
	.p2align 4,,10
	.p2align 3
.L1526:
	addl	$1, 8(%rax)
	jmp	.L1525
	.p2align 4,,10
	.p2align 3
.L1535:
	movl	8(%r13), %eax
	leal	-1(%rax), %edx
	movl	%edx, 8(%r13)
	cmpl	$1, %eax
	jne	.L1539
.L1582:
	movq	0(%r13), %rax
	movq	%r13, %rdi
	call	*16(%rax)
	testq	%rbx, %rbx
