	.file	"MasterTCPServer.cpp"
	.text
	.section	.rodata._ZNK4asio6detail15system_category4nameEv.str1.1,"aMS",@progbits,1
.LC0:
	.string	"asio.system"
	.section	.text._ZNK4asio6detail15system_category4nameEv,"axG",@progbits,_ZNK4asio6detail15system_category4nameEv,comdat
	.align 2
	.p2align 4
	.weak	_ZNK4asio6detail15system_category4nameEv
	.type	_ZNK4asio6detail15system_category4nameEv, @function
_ZNK4asio6detail15system_category4nameEv:
.LFB2413:
	.cfi_startproc
	endbr64
	leaq	.LC0(%rip), %rax
	ret
	.cfi_endproc
.LFE2413:
	.size	_ZNK4asio6detail15system_category4nameEv, .-_ZNK4asio6detail15system_category4nameEv
	.section	.rodata._ZNK4asio5error6detail14netdb_category4nameEv.str1.1,"aMS",@progbits,1
.LC1:
	.string	"asio.netdb"
	.section	.text._ZNK4asio5error6detail14netdb_category4nameEv,"axG",@progbits,_ZNK4asio5error6detail14netdb_category4nameEv,comdat
	.align 2
	.p2align 4
	.weak	_ZNK4asio5error6detail14netdb_category4nameEv
	.type	_ZNK4asio5error6detail14netdb_category4nameEv, @function
_ZNK4asio5error6detail14netdb_category4nameEv:
.LFB2453:
	.cfi_startproc
	endbr64
	leaq	.LC1(%rip), %rax
	ret
	.cfi_endproc
.LFE2453:
	.size	_ZNK4asio5error6detail14netdb_category4nameEv, .-_ZNK4asio5error6detail14netdb_category4nameEv
	.section	.rodata._ZNK4asio5error6detail17addrinfo_category4nameEv.str1.1,"aMS",@progbits,1
.LC2:
	.string	"asio.addrinfo"
	.section	.text._ZNK4asio5error6detail17addrinfo_category4nameEv,"axG",@progbits,_ZNK4asio5error6detail17addrinfo_category4nameEv,comdat
	.align 2
	.p2align 4
	.weak	_ZNK4asio5error6detail17addrinfo_category4nameEv
	.type	_ZNK4asio5error6detail17addrinfo_category4nameEv, @function
_ZNK4asio5error6detail17addrinfo_category4nameEv:
.LFB2459:
	.cfi_startproc
	endbr64
	leaq	.LC2(%rip), %rax
	ret
	.cfi_endproc
.LFE2459:
	.size	_ZNK4asio5error6detail17addrinfo_category4nameEv, .-_ZNK4asio5error6detail17addrinfo_category4nameEv
	.section	.rodata._ZNK4asio5error6detail13misc_category4nameEv.str1.1,"aMS",@progbits,1
.LC3:
	.string	"asio.misc"
	.section	.text._ZNK4asio5error6detail13misc_category4nameEv,"axG",@progbits,_ZNK4asio5error6detail13misc_category4nameEv,comdat
	.align 2
	.p2align 4
	.weak	_ZNK4asio5error6detail13misc_category4nameEv
	.type	_ZNK4asio5error6detail13misc_category4nameEv, @function
_ZNK4asio5error6detail13misc_category4nameEv:
.LFB2465:
	.cfi_startproc
	endbr64
	leaq	.LC3(%rip), %rax
	ret
	.cfi_endproc
.LFE2465:
	.size	_ZNK4asio5error6detail13misc_category4nameEv, .-_ZNK4asio5error6detail13misc_category4nameEv
	.section	.text._ZNKSt5ctypeIcE8do_widenEc,"axG",@progbits,_ZNKSt5ctypeIcE8do_widenEc,comdat
	.align 2
	.p2align 4
	.weak	_ZNKSt5ctypeIcE8do_widenEc
	.type	_ZNKSt5ctypeIcE8do_widenEc, @function
_ZNKSt5ctypeIcE8do_widenEc:
.LFB4610:
	.cfi_startproc
	endbr64
	movl	%esi, %eax
	ret
	.cfi_endproc
.LFE4610:
	.size	_ZNKSt5ctypeIcE8do_widenEc, .-_ZNKSt5ctypeIcE8do_widenEc
	.section	.text._ZN4asio6detail7tss_ptrINS0_10call_stackINS0_15task_io_serviceENS0_27task_io_service_thread_infoEE7contextEED2Ev,"axG",@progbits,_ZN4asio6detail7tss_ptrINS0_10call_stackINS0_15task_io_serviceENS0_27task_io_service_thread_infoEE7contextEED5Ev,comdat
	.align 2
	.p2align 4
	.weak	_ZN4asio6detail7tss_ptrINS0_10call_stackINS0_15task_io_serviceENS0_27task_io_service_thread_infoEE7contextEED2Ev
	.type	_ZN4asio6detail7tss_ptrINS0_10call_stackINS0_15task_io_serviceENS0_27task_io_service_thread_infoEE7contextEED2Ev, @function
_ZN4asio6detail7tss_ptrINS0_10call_stackINS0_15task_io_serviceENS0_27task_io_service_thread_infoEE7contextEED2Ev:
.LFB11025:
	.cfi_startproc
	endbr64
	ret
	.cfi_endproc
.LFE11025:
	.size	_ZN4asio6detail7tss_ptrINS0_10call_stackINS0_15task_io_serviceENS0_27task_io_service_thread_infoEE7contextEED2Ev, .-_ZN4asio6detail7tss_ptrINS0_10call_stackINS0_15task_io_serviceENS0_27task_io_service_thread_infoEE7contextEED2Ev
	.weak	_ZN4asio6detail7tss_ptrINS0_10call_stackINS0_15task_io_serviceENS0_27task_io_service_thread_infoEE7contextEED1Ev
	.set	_ZN4asio6detail7tss_ptrINS0_10call_stackINS0_15task_io_serviceENS0_27task_io_service_thread_infoEE7contextEED1Ev,_ZN4asio6detail7tss_ptrINS0_10call_stackINS0_15task_io_serviceENS0_27task_io_service_thread_infoEE7contextEED2Ev
	.section	.text._ZN4asio6detail10service_idINS0_13epoll_reactorEED2Ev,"axG",@progbits,_ZN4asio6detail10service_idINS0_13epoll_reactorEED5Ev,comdat
	.align 2
	.p2align 4
	.weak	_ZN4asio6detail10service_idINS0_13epoll_reactorEED2Ev
	.type	_ZN4asio6detail10service_idINS0_13epoll_reactorEED2Ev, @function
_ZN4asio6detail10service_idINS0_13epoll_reactorEED2Ev:
.LFB11028:
	.cfi_startproc
	endbr64
	ret
	.cfi_endproc
.LFE11028:
	.size	_ZN4asio6detail10service_idINS0_13epoll_reactorEED2Ev, .-_ZN4asio6detail10service_idINS0_13epoll_reactorEED2Ev
	.weak	_ZN4asio6detail10service_idINS0_13epoll_reactorEED1Ev
	.set	_ZN4asio6detail10service_idINS0_13epoll_reactorEED1Ev,_ZN4asio6detail10service_idINS0_13epoll_reactorEED2Ev
	.section	.text._ZN4asio6detail10service_idINS0_15task_io_serviceEED2Ev,"axG",@progbits,_ZN4asio6detail10service_idINS0_15task_io_serviceEED5Ev,comdat
	.align 2
	.p2align 4
	.weak	_ZN4asio6detail10service_idINS0_15task_io_serviceEED2Ev
	.type	_ZN4asio6detail10service_idINS0_15task_io_serviceEED2Ev, @function
_ZN4asio6detail10service_idINS0_15task_io_serviceEED2Ev:
.LFB11031:
	.cfi_startproc
	endbr64
	ret
	.cfi_endproc
.LFE11031:
	.size	_ZN4asio6detail10service_idINS0_15task_io_serviceEED2Ev, .-_ZN4asio6detail10service_idINS0_15task_io_serviceEED2Ev
	.weak	_ZN4asio6detail10service_idINS0_15task_io_serviceEED1Ev
	.set	_ZN4asio6detail10service_idINS0_15task_io_serviceEED1Ev,_ZN4asio6detail10service_idINS0_15task_io_serviceEED2Ev
	.section	.text._ZN4asio6detail7tss_ptrINS0_10call_stackINS0_14strand_service11strand_implEhE7contextEED2Ev,"axG",@progbits,_ZN4asio6detail7tss_ptrINS0_10call_stackINS0_14strand_service11strand_implEhE7contextEED5Ev,comdat
	.align 2
	.p2align 4
	.weak	_ZN4asio6detail7tss_ptrINS0_10call_stackINS0_14strand_service11strand_implEhE7contextEED2Ev
	.type	_ZN4asio6detail7tss_ptrINS0_10call_stackINS0_14strand_service11strand_implEhE7contextEED2Ev, @function
_ZN4asio6detail7tss_ptrINS0_10call_stackINS0_14strand_service11strand_implEhE7contextEED2Ev:
.LFB11034:
	.cfi_startproc
	endbr64
	ret
	.cfi_endproc
.LFE11034:
	.size	_ZN4asio6detail7tss_ptrINS0_10call_stackINS0_14strand_service11strand_implEhE7contextEED2Ev, .-_ZN4asio6detail7tss_ptrINS0_10call_stackINS0_14strand_service11strand_implEhE7contextEED2Ev
	.weak	_ZN4asio6detail7tss_ptrINS0_10call_stackINS0_14strand_service11strand_implEhE7contextEED1Ev
	.set	_ZN4asio6detail7tss_ptrINS0_10call_stackINS0_14strand_service11strand_implEhE7contextEED1Ev,_ZN4asio6detail7tss_ptrINS0_10call_stackINS0_14strand_service11strand_implEhE7contextEED2Ev
	.section	.text._ZN4asio6detail10service_idINS0_14strand_serviceEED2Ev,"axG",@progbits,_ZN4asio6detail10service_idINS0_14strand_serviceEED5Ev,comdat
	.align 2
	.p2align 4
	.weak	_ZN4asio6detail10service_idINS0_14strand_serviceEED2Ev
	.type	_ZN4asio6detail10service_idINS0_14strand_serviceEED2Ev, @function
_ZN4asio6detail10service_idINS0_14strand_serviceEED2Ev:
.LFB11037:
	.cfi_startproc
	endbr64
	ret
	.cfi_endproc
.LFE11037:
	.size	_ZN4asio6detail10service_idINS0_14strand_serviceEED2Ev, .-_ZN4asio6detail10service_idINS0_14strand_serviceEED2Ev
	.weak	_ZN4asio6detail10service_idINS0_14strand_serviceEED1Ev
	.set	_ZN4asio6detail10service_idINS0_14strand_serviceEED1Ev,_ZN4asio6detail10service_idINS0_14strand_serviceEED2Ev
	.section	.text._ZNSt23_Sp_counted_ptr_inplaceIN7asiopal13SocketChannelESaIS1_ELN9__gnu_cxx12_Lock_policyE2EED2Ev,"axG",@progbits,_ZNSt23_Sp_counted_ptr_inplaceIN7asiopal13SocketChannelESaIS1_ELN9__gnu_cxx12_Lock_policyE2EED5Ev,comdat
	.align 2
	.p2align 4
	.weak	_ZNSt23_Sp_counted_ptr_inplaceIN7asiopal13SocketChannelESaIS1_ELN9__gnu_cxx12_Lock_policyE2EED2Ev
	.type	_ZNSt23_Sp_counted_ptr_inplaceIN7asiopal13SocketChannelESaIS1_ELN9__gnu_cxx12_Lock_policyE2EED2Ev, @function
_ZNSt23_Sp_counted_ptr_inplaceIN7asiopal13SocketChannelESaIS1_ELN9__gnu_cxx12_Lock_policyE2EED2Ev:
.LFB11040:
	.cfi_startproc
	endbr64
	ret
	.cfi_endproc
.LFE11040:
	.size	_ZNSt23_Sp_counted_ptr_inplaceIN7asiopal13SocketChannelESaIS1_ELN9__gnu_cxx12_Lock_policyE2EED2Ev, .-_ZNSt23_Sp_counted_ptr_inplaceIN7asiopal13SocketChannelESaIS1_ELN9__gnu_cxx12_Lock_policyE2EED2Ev
	.weak	_ZNSt23_Sp_counted_ptr_inplaceIN7asiopal13SocketChannelESaIS1_ELN9__gnu_cxx12_Lock_policyE2EED1Ev
	.set	_ZNSt23_Sp_counted_ptr_inplaceIN7asiopal13SocketChannelESaIS1_ELN9__gnu_cxx12_Lock_policyE2EED1Ev,_ZNSt23_Sp_counted_ptr_inplaceIN7asiopal13SocketChannelESaIS1_ELN9__gnu_cxx12_Lock_policyE2EED2Ev
	.section	.text._ZNSt23_Sp_counted_ptr_inplaceIN8asiodnp311LinkSessionESaIS1_ELN9__gnu_cxx12_Lock_policyE2EED2Ev,"axG",@progbits,_ZNSt23_Sp_counted_ptr_inplaceIN8asiodnp311LinkSessionESaIS1_ELN9__gnu_cxx12_Lock_policyE2EED5Ev,comdat
	.align 2
	.p2align 4
	.weak	_ZNSt23_Sp_counted_ptr_inplaceIN8asiodnp311LinkSessionESaIS1_ELN9__gnu_cxx12_Lock_policyE2EED2Ev
	.type	_ZNSt23_Sp_counted_ptr_inplaceIN8asiodnp311LinkSessionESaIS1_ELN9__gnu_cxx12_Lock_policyE2EED2Ev, @function
_ZNSt23_Sp_counted_ptr_inplaceIN8asiodnp311LinkSessionESaIS1_ELN9__gnu_cxx12_Lock_policyE2EED2Ev:
.LFB11047:
	.cfi_startproc
	endbr64
	ret
	.cfi_endproc
.LFE11047:
	.size	_ZNSt23_Sp_counted_ptr_inplaceIN8asiodnp311LinkSessionESaIS1_ELN9__gnu_cxx12_Lock_policyE2EED2Ev, .-_ZNSt23_Sp_counted_ptr_inplaceIN8asiodnp311LinkSessionESaIS1_ELN9__gnu_cxx12_Lock_policyE2EED2Ev
	.weak	_ZNSt23_Sp_counted_ptr_inplaceIN8asiodnp311LinkSessionESaIS1_ELN9__gnu_cxx12_Lock_policyE2EED1Ev
	.set	_ZNSt23_Sp_counted_ptr_inplaceIN8asiodnp311LinkSessionESaIS1_ELN9__gnu_cxx12_Lock_policyE2EED1Ev,_ZNSt23_Sp_counted_ptr_inplaceIN8asiodnp311LinkSessionESaIS1_ELN9__gnu_cxx12_Lock_policyE2EED2Ev
	.section	.text._ZNSt23_Sp_counted_ptr_inplaceIN7asiopal8ExecutorESaIS1_ELN9__gnu_cxx12_Lock_policyE2EED2Ev,"axG",@progbits,_ZNSt23_Sp_counted_ptr_inplaceIN7asiopal8ExecutorESaIS1_ELN9__gnu_cxx12_Lock_policyE2EED5Ev,comdat
	.align 2
	.p2align 4
	.weak	_ZNSt23_Sp_counted_ptr_inplaceIN7asiopal8ExecutorESaIS1_ELN9__gnu_cxx12_Lock_policyE2EED2Ev
	.type	_ZNSt23_Sp_counted_ptr_inplaceIN7asiopal8ExecutorESaIS1_ELN9__gnu_cxx12_Lock_policyE2EED2Ev, @function
_ZNSt23_Sp_counted_ptr_inplaceIN7asiopal8ExecutorESaIS1_ELN9__gnu_cxx12_Lock_policyE2EED2Ev:
.LFB11075:
	.cfi_startproc
	endbr64
	ret
	.cfi_endproc
.LFE11075:
	.size	_ZNSt23_Sp_counted_ptr_inplaceIN7asiopal8ExecutorESaIS1_ELN9__gnu_cxx12_Lock_policyE2EED2Ev, .-_ZNSt23_Sp_counted_ptr_inplaceIN7asiopal8ExecutorESaIS1_ELN9__gnu_cxx12_Lock_policyE2EED2Ev
	.weak	_ZNSt23_Sp_counted_ptr_inplaceIN7asiopal8ExecutorESaIS1_ELN9__gnu_cxx12_Lock_policyE2EED1Ev
	.set	_ZNSt23_Sp_counted_ptr_inplaceIN7asiopal8ExecutorESaIS1_ELN9__gnu_cxx12_Lock_policyE2EED1Ev,_ZNSt23_Sp_counted_ptr_inplaceIN7asiopal8ExecutorESaIS1_ELN9__gnu_cxx12_Lock_policyE2EED2Ev
	.section	.text._ZNSt23_Sp_counted_ptr_inplaceIN7openpal6Logger8SettingsESaIS2_ELN9__gnu_cxx12_Lock_policyE2EED2Ev,"axG",@progbits,_ZNSt23_Sp_counted_ptr_inplaceIN7openpal6Logger8SettingsESaIS2_ELN9__gnu_cxx12_Lock_policyE2EED5Ev,comdat
	.align 2
	.p2align 4
	.weak	_ZNSt23_Sp_counted_ptr_inplaceIN7openpal6Logger8SettingsESaIS2_ELN9__gnu_cxx12_Lock_policyE2EED2Ev
	.type	_ZNSt23_Sp_counted_ptr_inplaceIN7openpal6Logger8SettingsESaIS2_ELN9__gnu_cxx12_Lock_policyE2EED2Ev, @function
_ZNSt23_Sp_counted_ptr_inplaceIN7openpal6Logger8SettingsESaIS2_ELN9__gnu_cxx12_Lock_policyE2EED2Ev:
.LFB11096:
	.cfi_startproc
	endbr64
	ret
	.cfi_endproc
.LFE11096:
	.size	_ZNSt23_Sp_counted_ptr_inplaceIN7openpal6Logger8SettingsESaIS2_ELN9__gnu_cxx12_Lock_policyE2EED2Ev, .-_ZNSt23_Sp_counted_ptr_inplaceIN7openpal6Logger8SettingsESaIS2_ELN9__gnu_cxx12_Lock_policyE2EED2Ev
	.weak	_ZNSt23_Sp_counted_ptr_inplaceIN7openpal6Logger8SettingsESaIS2_ELN9__gnu_cxx12_Lock_policyE2EED1Ev
	.set	_ZNSt23_Sp_counted_ptr_inplaceIN7openpal6Logger8SettingsESaIS2_ELN9__gnu_cxx12_Lock_policyE2EED1Ev,_ZNSt23_Sp_counted_ptr_inplaceIN7openpal6Logger8SettingsESaIS2_ELN9__gnu_cxx12_Lock_policyE2EED2Ev
	.section	.text._ZN4asio6detail15system_categoryD2Ev,"axG",@progbits,_ZN4asio6detail15system_categoryD5Ev,comdat
	.align 2
	.p2align 4
	.weak	_ZN4asio6detail15system_categoryD2Ev
	.type	_ZN4asio6detail15system_categoryD2Ev, @function
_ZN4asio6detail15system_categoryD2Ev:
.LFB11004:
	.cfi_startproc
	endbr64
	movq	_ZTVN4asio6detail15system_categoryE@GOTPCREL(%rip), %rax
	addq	$16, %rax
	movq	%rax, (%rdi)
	jmp	_ZNSt3_V214error_categoryD2Ev@PLT
	.cfi_endproc
.LFE11004:
	.size	_ZN4asio6detail15system_categoryD2Ev, .-_ZN4asio6detail15system_categoryD2Ev
	.weak	_ZN4asio6detail15system_categoryD1Ev
	.set	_ZN4asio6detail15system_categoryD1Ev,_ZN4asio6detail15system_categoryD2Ev
	.section	.text._ZN4asio5error6detail14netdb_categoryD2Ev,"axG",@progbits,_ZN4asio5error6detail14netdb_categoryD5Ev,comdat
	.align 2
	.p2align 4
	.weak	_ZN4asio5error6detail14netdb_categoryD2Ev
	.type	_ZN4asio5error6detail14netdb_categoryD2Ev, @function
_ZN4asio5error6detail14netdb_categoryD2Ev:
.LFB10992:
	.cfi_startproc
	endbr64
	movq	_ZTVN4asio5error6detail14netdb_categoryE@GOTPCREL(%rip), %rax
	addq	$16, %rax
	movq	%rax, (%rdi)
	jmp	_ZNSt3_V214error_categoryD2Ev@PLT
	.cfi_endproc
.LFE10992:
	.size	_ZN4asio5error6detail14netdb_categoryD2Ev, .-_ZN4asio5error6detail14netdb_categoryD2Ev
	.weak	_ZN4asio5error6detail14netdb_categoryD1Ev
	.set	_ZN4asio5error6detail14netdb_categoryD1Ev,_ZN4asio5error6detail14netdb_categoryD2Ev
	.section	.text._ZN4asio5error6detail17addrinfo_categoryD2Ev,"axG",@progbits,_ZN4asio5error6detail17addrinfo_categoryD5Ev,comdat
	.align 2
	.p2align 4
	.weak	_ZN4asio5error6detail17addrinfo_categoryD2Ev
	.type	_ZN4asio5error6detail17addrinfo_categoryD2Ev, @function
_ZN4asio5error6detail17addrinfo_categoryD2Ev:
.LFB10988:
	.cfi_startproc
	endbr64
	movq	_ZTVN4asio5error6detail17addrinfo_categoryE@GOTPCREL(%rip), %rax
	addq	$16, %rax
	movq	%rax, (%rdi)
	jmp	_ZNSt3_V214error_categoryD2Ev@PLT
	.cfi_endproc
.LFE10988:
	.size	_ZN4asio5error6detail17addrinfo_categoryD2Ev, .-_ZN4asio5error6detail17addrinfo_categoryD2Ev
	.weak	_ZN4asio5error6detail17addrinfo_categoryD1Ev
	.set	_ZN4asio5error6detail17addrinfo_categoryD1Ev,_ZN4asio5error6detail17addrinfo_categoryD2Ev
	.section	.text._ZN4asio5error6detail13misc_categoryD2Ev,"axG",@progbits,_ZN4asio5error6detail13misc_categoryD5Ev,comdat
	.align 2
	.p2align 4
	.weak	_ZN4asio5error6detail13misc_categoryD2Ev
	.type	_ZN4asio5error6detail13misc_categoryD2Ev, @function
_ZN4asio5error6detail13misc_categoryD2Ev:
.LFB10984:
	.cfi_startproc
	endbr64
	movq	_ZTVN4asio5error6detail13misc_categoryE@GOTPCREL(%rip), %rax
	addq	$16, %rax
	movq	%rax, (%rdi)
	jmp	_ZNSt3_V214error_categoryD2Ev@PLT
	.cfi_endproc
.LFE10984:
	.size	_ZN4asio5error6detail13misc_categoryD2Ev, .-_ZN4asio5error6detail13misc_categoryD2Ev
	.weak	_ZN4asio5error6detail13misc_categoryD1Ev
	.set	_ZN4asio5error6detail13misc_categoryD1Ev,_ZN4asio5error6detail13misc_categoryD2Ev
	.section	.text._ZNSt23_Sp_counted_ptr_inplaceIN7asiopal13SocketChannelESaIS1_ELN9__gnu_cxx12_Lock_policyE2EE10_M_destroyEv,"axG",@progbits,_ZNSt23_Sp_counted_ptr_inplaceIN7asiopal13SocketChannelESaIS1_ELN9__gnu_cxx12_Lock_policyE2EE10_M_destroyEv,comdat
	.align 2
	.p2align 4
	.weak	_ZNSt23_Sp_counted_ptr_inplaceIN7asiopal13SocketChannelESaIS1_ELN9__gnu_cxx12_Lock_policyE2EE10_M_destroyEv
	.type	_ZNSt23_Sp_counted_ptr_inplaceIN7asiopal13SocketChannelESaIS1_ELN9__gnu_cxx12_Lock_policyE2EE10_M_destroyEv, @function
_ZNSt23_Sp_counted_ptr_inplaceIN7asiopal13SocketChannelESaIS1_ELN9__gnu_cxx12_Lock_policyE2EE10_M_destroyEv:
.LFB11044:
	.cfi_startproc
	endbr64
	jmp	_ZdlPv@PLT
	.cfi_endproc
.LFE11044:
	.size	_ZNSt23_Sp_counted_ptr_inplaceIN7asiopal13SocketChannelESaIS1_ELN9__gnu_cxx12_Lock_policyE2EE10_M_destroyEv, .-_ZNSt23_Sp_counted_ptr_inplaceIN7asiopal13SocketChannelESaIS1_ELN9__gnu_cxx12_Lock_policyE2EE10_M_destroyEv
	.section	.text._ZNSt23_Sp_counted_ptr_inplaceIN8asiodnp311LinkSessionESaIS1_ELN9__gnu_cxx12_Lock_policyE2EE10_M_destroyEv,"axG",@progbits,_ZNSt23_Sp_counted_ptr_inplaceIN8asiodnp311LinkSessionESaIS1_ELN9__gnu_cxx12_Lock_policyE2EE10_M_destroyEv,comdat
	.align 2
	.p2align 4
	.weak	_ZNSt23_Sp_counted_ptr_inplaceIN8asiodnp311LinkSessionESaIS1_ELN9__gnu_cxx12_Lock_policyE2EE10_M_destroyEv
	.type	_ZNSt23_Sp_counted_ptr_inplaceIN8asiodnp311LinkSessionESaIS1_ELN9__gnu_cxx12_Lock_policyE2EE10_M_destroyEv, @function
_ZNSt23_Sp_counted_ptr_inplaceIN8asiodnp311LinkSessionESaIS1_ELN9__gnu_cxx12_Lock_policyE2EE10_M_destroyEv:
.LFB11051:
	.cfi_startproc
	endbr64
	jmp	_ZdlPv@PLT
	.cfi_endproc
.LFE11051:
	.size	_ZNSt23_Sp_counted_ptr_inplaceIN8asiodnp311LinkSessionESaIS1_ELN9__gnu_cxx12_Lock_policyE2EE10_M_destroyEv, .-_ZNSt23_Sp_counted_ptr_inplaceIN8asiodnp311LinkSessionESaIS1_ELN9__gnu_cxx12_Lock_policyE2EE10_M_destroyEv
	.section	.text._ZNSt23_Sp_counted_ptr_inplaceIN7asiopal8ExecutorESaIS1_ELN9__gnu_cxx12_Lock_policyE2EE10_M_destroyEv,"axG",@progbits,_ZNSt23_Sp_counted_ptr_inplaceIN7asiopal8ExecutorESaIS1_ELN9__gnu_cxx12_Lock_policyE2EE10_M_destroyEv,comdat
	.align 2
	.p2align 4
	.weak	_ZNSt23_Sp_counted_ptr_inplaceIN7asiopal8ExecutorESaIS1_ELN9__gnu_cxx12_Lock_policyE2EE10_M_destroyEv
	.type	_ZNSt23_Sp_counted_ptr_inplaceIN7asiopal8ExecutorESaIS1_ELN9__gnu_cxx12_Lock_policyE2EE10_M_destroyEv, @function
_ZNSt23_Sp_counted_ptr_inplaceIN7asiopal8ExecutorESaIS1_ELN9__gnu_cxx12_Lock_policyE2EE10_M_destroyEv:
.LFB11079:
	.cfi_startproc
	endbr64
	jmp	_ZdlPv@PLT
	.cfi_endproc
.LFE11079:
	.size	_ZNSt23_Sp_counted_ptr_inplaceIN7asiopal8ExecutorESaIS1_ELN9__gnu_cxx12_Lock_policyE2EE10_M_destroyEv, .-_ZNSt23_Sp_counted_ptr_inplaceIN7asiopal8ExecutorESaIS1_ELN9__gnu_cxx12_Lock_policyE2EE10_M_destroyEv
	.section	.text._ZNSt23_Sp_counted_ptr_inplaceIN7openpal6Logger8SettingsESaIS2_ELN9__gnu_cxx12_Lock_policyE2EE10_M_destroyEv,"axG",@progbits,_ZNSt23_Sp_counted_ptr_inplaceIN7openpal6Logger8SettingsESaIS2_ELN9__gnu_cxx12_Lock_policyE2EE10_M_destroyEv,comdat
	.align 2
	.p2align 4
	.weak	_ZNSt23_Sp_counted_ptr_inplaceIN7openpal6Logger8SettingsESaIS2_ELN9__gnu_cxx12_Lock_policyE2EE10_M_destroyEv
	.type	_ZNSt23_Sp_counted_ptr_inplaceIN7openpal6Logger8SettingsESaIS2_ELN9__gnu_cxx12_Lock_policyE2EE10_M_destroyEv, @function
_ZNSt23_Sp_counted_ptr_inplaceIN7openpal6Logger8SettingsESaIS2_ELN9__gnu_cxx12_Lock_policyE2EE10_M_destroyEv:
.LFB11100:
	.cfi_startproc
	endbr64
	jmp	_ZdlPv@PLT
	.cfi_endproc
.LFE11100:
	.size	_ZNSt23_Sp_counted_ptr_inplaceIN7openpal6Logger8SettingsESaIS2_ELN9__gnu_cxx12_Lock_policyE2EE10_M_destroyEv, .-_ZNSt23_Sp_counted_ptr_inplaceIN7openpal6Logger8SettingsESaIS2_ELN9__gnu_cxx12_Lock_policyE2EE10_M_destroyEv
	.section	.text._ZNSt23_Sp_counted_ptr_inplaceIN7openpal6Logger8SettingsESaIS2_ELN9__gnu_cxx12_Lock_policyE2EE10_M_disposeEv,"axG",@progbits,_ZNSt23_Sp_counted_ptr_inplaceIN7openpal6Logger8SettingsESaIS2_ELN9__gnu_cxx12_Lock_policyE2EE10_M_disposeEv,comdat
	.align 2
	.p2align 4
	.weak	_ZNSt23_Sp_counted_ptr_inplaceIN7openpal6Logger8SettingsESaIS2_ELN9__gnu_cxx12_Lock_policyE2EE10_M_disposeEv
	.type	_ZNSt23_Sp_counted_ptr_inplaceIN7openpal6Logger8SettingsESaIS2_ELN9__gnu_cxx12_Lock_policyE2EE10_M_disposeEv, @function
_ZNSt23_Sp_counted_ptr_inplaceIN7openpal6Logger8SettingsESaIS2_ELN9__gnu_cxx12_Lock_policyE2EE10_M_disposeEv:
.LFB11099:
	.cfi_startproc
	endbr64
	movq	16(%rdi), %r8
	addq	$32, %rdi
	cmpq	%rdi, %r8
	je	.L24
	movq	%r8, %rdi
	jmp	_ZdlPv@PLT
	.p2align 4,,10
	.p2align 3
.L24:
	ret
	.cfi_endproc
.LFE11099:
	.size	_ZNSt23_Sp_counted_ptr_inplaceIN7openpal6Logger8SettingsESaIS2_ELN9__gnu_cxx12_Lock_policyE2EE10_M_disposeEv, .-_ZNSt23_Sp_counted_ptr_inplaceIN7openpal6Logger8SettingsESaIS2_ELN9__gnu_cxx12_Lock_policyE2EE10_M_disposeEv
	.section	.text._ZN4asio6detail15system_categoryD0Ev,"axG",@progbits,_ZN4asio6detail15system_categoryD5Ev,comdat
	.align 2
	.p2align 4
	.weak	_ZN4asio6detail15system_categoryD0Ev
	.type	_ZN4asio6detail15system_categoryD0Ev, @function
_ZN4asio6detail15system_categoryD0Ev:
.LFB11006:
	.cfi_startproc
	endbr64
	movq	_ZTVN4asio6detail15system_categoryE@GOTPCREL(%rip), %rax
	pushq	%rbp
	.cfi_def_cfa_offset 16
	.cfi_offset 6, -16
	movq	%rdi, %rbp
	addq	$16, %rax
	movq	%rax, (%rdi)
	call	_ZNSt3_V214error_categoryD2Ev@PLT
	movq	%rbp, %rdi
	movl	$8, %esi
	popq	%rbp
	.cfi_def_cfa_offset 8
	jmp	_ZdlPvm@PLT
	.cfi_endproc
.LFE11006:
	.size	_ZN4asio6detail15system_categoryD0Ev, .-_ZN4asio6detail15system_categoryD0Ev
	.section	.text._ZN4asio5error6detail14netdb_categoryD0Ev,"axG",@progbits,_ZN4asio5error6detail14netdb_categoryD5Ev,comdat
	.align 2
	.p2align 4
	.weak	_ZN4asio5error6detail14netdb_categoryD0Ev
	.type	_ZN4asio5error6detail14netdb_categoryD0Ev, @function
_ZN4asio5error6detail14netdb_categoryD0Ev:
.LFB10994:
	.cfi_startproc
	endbr64
	movq	_ZTVN4asio5error6detail14netdb_categoryE@GOTPCREL(%rip), %rax
	pushq	%rbp
	.cfi_def_cfa_offset 16
	.cfi_offset 6, -16
	movq	%rdi, %rbp
	addq	$16, %rax
	movq	%rax, (%rdi)
	call	_ZNSt3_V214error_categoryD2Ev@PLT
	movq	%rbp, %rdi
	movl	$8, %esi
	popq	%rbp
	.cfi_def_cfa_offset 8
	jmp	_ZdlPvm@PLT
	.cfi_endproc
.LFE10994:
	.size	_ZN4asio5error6detail14netdb_categoryD0Ev, .-_ZN4asio5error6detail14netdb_categoryD0Ev
	.section	.text._ZN4asio5error6detail17addrinfo_categoryD0Ev,"axG",@progbits,_ZN4asio5error6detail17addrinfo_categoryD5Ev,comdat
	.align 2
	.p2align 4
	.weak	_ZN4asio5error6detail17addrinfo_categoryD0Ev
	.type	_ZN4asio5error6detail17addrinfo_categoryD0Ev, @function
_ZN4asio5error6detail17addrinfo_categoryD0Ev:
.LFB10990:
	.cfi_startproc
	endbr64
	movq	_ZTVN4asio5error6detail17addrinfo_categoryE@GOTPCREL(%rip), %rax
	pushq	%rbp
	.cfi_def_cfa_offset 16
	.cfi_offset 6, -16
	movq	%rdi, %rbp
	addq	$16, %rax
	movq	%rax, (%rdi)
	call	_ZNSt3_V214error_categoryD2Ev@PLT
	movq	%rbp, %rdi
	movl	$8, %esi
	popq	%rbp
	.cfi_def_cfa_offset 8
	jmp	_ZdlPvm@PLT
	.cfi_endproc
.LFE10990:
	.size	_ZN4asio5error6detail17addrinfo_categoryD0Ev, .-_ZN4asio5error6detail17addrinfo_categoryD0Ev
	.section	.text._ZN4asio5error6detail13misc_categoryD0Ev,"axG",@progbits,_ZN4asio5error6detail13misc_categoryD5Ev,comdat
	.align 2
	.p2align 4
	.weak	_ZN4asio5error6detail13misc_categoryD0Ev
	.type	_ZN4asio5error6detail13misc_categoryD0Ev, @function
_ZN4asio5error6detail13misc_categoryD0Ev:
.LFB10986:
	.cfi_startproc
	endbr64
	movq	_ZTVN4asio5error6detail13misc_categoryE@GOTPCREL(%rip), %rax
	pushq	%rbp
	.cfi_def_cfa_offset 16
	.cfi_offset 6, -16
	movq	%rdi, %rbp
	addq	$16, %rax
	movq	%rax, (%rdi)
	call	_ZNSt3_V214error_categoryD2Ev@PLT
	movq	%rbp, %rdi
	movl	$8, %esi
	popq	%rbp
	.cfi_def_cfa_offset 8
	jmp	_ZdlPvm@PLT
	.cfi_endproc
.LFE10986:
	.size	_ZN4asio5error6detail13misc_categoryD0Ev, .-_ZN4asio5error6detail13misc_categoryD0Ev
	.section	.text._ZNSt23_Sp_counted_ptr_inplaceIN7openpal6Logger8SettingsESaIS2_ELN9__gnu_cxx12_Lock_policyE2EED0Ev,"axG",@progbits,_ZNSt23_Sp_counted_ptr_inplaceIN7openpal6Logger8SettingsESaIS2_ELN9__gnu_cxx12_Lock_policyE2EED5Ev,comdat
	.align 2
	.p2align 4
	.weak	_ZNSt23_Sp_counted_ptr_inplaceIN7openpal6Logger8SettingsESaIS2_ELN9__gnu_cxx12_Lock_policyE2EED0Ev
	.type	_ZNSt23_Sp_counted_ptr_inplaceIN7openpal6Logger8SettingsESaIS2_ELN9__gnu_cxx12_Lock_policyE2EED0Ev, @function
_ZNSt23_Sp_counted_ptr_inplaceIN7openpal6Logger8SettingsESaIS2_ELN9__gnu_cxx12_Lock_policyE2EED0Ev:
.LFB11098:
	.cfi_startproc
	endbr64
	movl	$56, %esi
	jmp	_ZdlPvm@PLT
	.cfi_endproc
.LFE11098:
	.size	_ZNSt23_Sp_counted_ptr_inplaceIN7openpal6Logger8SettingsESaIS2_ELN9__gnu_cxx12_Lock_policyE2EED0Ev, .-_ZNSt23_Sp_counted_ptr_inplaceIN7openpal6Logger8SettingsESaIS2_ELN9__gnu_cxx12_Lock_policyE2EED0Ev
	.section	.text._ZNSt23_Sp_counted_ptr_inplaceIN7asiopal8ExecutorESaIS1_ELN9__gnu_cxx12_Lock_policyE2EED0Ev,"axG",@progbits,_ZNSt23_Sp_counted_ptr_inplaceIN7asiopal8ExecutorESaIS1_ELN9__gnu_cxx12_Lock_policyE2EED5Ev,comdat
	.align 2
	.p2align 4
	.weak	_ZNSt23_Sp_counted_ptr_inplaceIN7asiopal8ExecutorESaIS1_ELN9__gnu_cxx12_Lock_policyE2EED0Ev
	.type	_ZNSt23_Sp_counted_ptr_inplaceIN7asiopal8ExecutorESaIS1_ELN9__gnu_cxx12_Lock_policyE2EED0Ev, @function
_ZNSt23_Sp_counted_ptr_inplaceIN7asiopal8ExecutorESaIS1_ELN9__gnu_cxx12_Lock_policyE2EED0Ev:
.LFB11077:
	.cfi_startproc
	endbr64
	movl	$72, %esi
	jmp	_ZdlPvm@PLT
	.cfi_endproc
.LFE11077:
	.size	_ZNSt23_Sp_counted_ptr_inplaceIN7asiopal8ExecutorESaIS1_ELN9__gnu_cxx12_Lock_policyE2EED0Ev, .-_ZNSt23_Sp_counted_ptr_inplaceIN7asiopal8ExecutorESaIS1_ELN9__gnu_cxx12_Lock_policyE2EED0Ev
	.section	.text._ZNSt23_Sp_counted_ptr_inplaceIN8asiodnp311LinkSessionESaIS1_ELN9__gnu_cxx12_Lock_policyE2EED0Ev,"axG",@progbits,_ZNSt23_Sp_counted_ptr_inplaceIN8asiodnp311LinkSessionESaIS1_ELN9__gnu_cxx12_Lock_policyE2EED5Ev,comdat
	.align 2
	.p2align 4
	.weak	_ZNSt23_Sp_counted_ptr_inplaceIN8asiodnp311LinkSessionESaIS1_ELN9__gnu_cxx12_Lock_policyE2EED0Ev
	.type	_ZNSt23_Sp_counted_ptr_inplaceIN8asiodnp311LinkSessionESaIS1_ELN9__gnu_cxx12_Lock_policyE2EED0Ev, @function
_ZNSt23_Sp_counted_ptr_inplaceIN8asiodnp311LinkSessionESaIS1_ELN9__gnu_cxx12_Lock_policyE2EED0Ev:
.LFB11049:
	.cfi_startproc
	endbr64
	movl	$624, %esi
	jmp	_ZdlPvm@PLT
	.cfi_endproc
.LFE11049:
	.size	_ZNSt23_Sp_counted_ptr_inplaceIN8asiodnp311LinkSessionESaIS1_ELN9__gnu_cxx12_Lock_policyE2EED0Ev, .-_ZNSt23_Sp_counted_ptr_inplaceIN8asiodnp311LinkSessionESaIS1_ELN9__gnu_cxx12_Lock_policyE2EED0Ev
	.section	.text._ZNSt23_Sp_counted_ptr_inplaceIN7asiopal13SocketChannelESaIS1_ELN9__gnu_cxx12_Lock_policyE2EED0Ev,"axG",@progbits,_ZNSt23_Sp_counted_ptr_inplaceIN7asiopal13SocketChannelESaIS1_ELN9__gnu_cxx12_Lock_policyE2EED5Ev,comdat
	.align 2
	.p2align 4
	.weak	_ZNSt23_Sp_counted_ptr_inplaceIN7asiopal13SocketChannelESaIS1_ELN9__gnu_cxx12_Lock_policyE2EED0Ev
	.type	_ZNSt23_Sp_counted_ptr_inplaceIN7asiopal13SocketChannelESaIS1_ELN9__gnu_cxx12_Lock_policyE2EED0Ev, @function
_ZNSt23_Sp_counted_ptr_inplaceIN7asiopal13SocketChannelESaIS1_ELN9__gnu_cxx12_Lock_policyE2EED0Ev:
.LFB11042:
	.cfi_startproc
	endbr64
	movl	$112, %esi
	jmp	_ZdlPvm@PLT
	.cfi_endproc
.LFE11042:
	.size	_ZNSt23_Sp_counted_ptr_inplaceIN7asiopal13SocketChannelESaIS1_ELN9__gnu_cxx12_Lock_policyE2EED0Ev, .-_ZNSt23_Sp_counted_ptr_inplaceIN7asiopal13SocketChannelESaIS1_ELN9__gnu_cxx12_Lock_policyE2EED0Ev
	.section	.text._ZNSt23_Sp_counted_ptr_inplaceIN7openpal6Logger8SettingsESaIS2_ELN9__gnu_cxx12_Lock_policyE2EE14_M_get_deleterERKSt9type_info,"axG",@progbits,_ZNSt23_Sp_counted_ptr_inplaceIN7openpal6Logger8SettingsESaIS2_ELN9__gnu_cxx12_Lock_policyE2EE14_M_get_deleterERKSt9type_info,comdat
	.align 2
	.p2align 4
	.weak	_ZNSt23_Sp_counted_ptr_inplaceIN7openpal6Logger8SettingsESaIS2_ELN9__gnu_cxx12_Lock_policyE2EE14_M_get_deleterERKSt9type_info
	.type	_ZNSt23_Sp_counted_ptr_inplaceIN7openpal6Logger8SettingsESaIS2_ELN9__gnu_cxx12_Lock_policyE2EE14_M_get_deleterERKSt9type_info, @function
_ZNSt23_Sp_counted_ptr_inplaceIN7openpal6Logger8SettingsESaIS2_ELN9__gnu_cxx12_Lock_policyE2EE14_M_get_deleterERKSt9type_info:
.LFB11101:
	.cfi_startproc
	endbr64
	pushq	%r12
	.cfi_def_cfa_offset 16
	.cfi_offset 12, -16
	pushq	%rbx
	.cfi_def_cfa_offset 24
	.cfi_offset 3, -24
	movq	%rdi, %rbx
	subq	$8, %rsp
	.cfi_def_cfa_offset 32
	cmpq	_ZZNSt19_Sp_make_shared_tag5_S_tiEvE5__tag@GOTPCREL(%rip), %rsi
	je	.L39
	movq	8(%rsi), %rdi
	movq	_ZTSSt19_Sp_make_shared_tag@GOTPCREL(%rip), %rsi
	cmpq	%rsi, %rdi
	je	.L39
	xorl	%r12d, %r12d
	cmpb	$42, (%rdi)
	je	.L38
	call	strcmp@PLT
	testl	%eax, %eax
	jne	.L38
.L39:
	leaq	16(%rbx), %r12
.L38:
	addq	$8, %rsp
	.cfi_def_cfa_offset 24
	movq	%r12, %rax
	popq	%rbx
	.cfi_def_cfa_offset 16
	popq	%r12
	.cfi_def_cfa_offset 8
	ret
	.cfi_endproc
.LFE11101:
	.size	_ZNSt23_Sp_counted_ptr_inplaceIN7openpal6Logger8SettingsESaIS2_ELN9__gnu_cxx12_Lock_policyE2EE14_M_get_deleterERKSt9type_info, .-_ZNSt23_Sp_counted_ptr_inplaceIN7openpal6Logger8SettingsESaIS2_ELN9__gnu_cxx12_Lock_policyE2EE14_M_get_deleterERKSt9type_info
	.section	.text._ZNSt23_Sp_counted_ptr_inplaceIN7asiopal8ExecutorESaIS1_ELN9__gnu_cxx12_Lock_policyE2EE14_M_get_deleterERKSt9type_info,"axG",@progbits,_ZNSt23_Sp_counted_ptr_inplaceIN7asiopal8ExecutorESaIS1_ELN9__gnu_cxx12_Lock_policyE2EE14_M_get_deleterERKSt9type_info,comdat
	.align 2
	.p2align 4
	.weak	_ZNSt23_Sp_counted_ptr_inplaceIN7asiopal8ExecutorESaIS1_ELN9__gnu_cxx12_Lock_policyE2EE14_M_get_deleterERKSt9type_info
	.type	_ZNSt23_Sp_counted_ptr_inplaceIN7asiopal8ExecutorESaIS1_ELN9__gnu_cxx12_Lock_policyE2EE14_M_get_deleterERKSt9type_info, @function
_ZNSt23_Sp_counted_ptr_inplaceIN7asiopal8ExecutorESaIS1_ELN9__gnu_cxx12_Lock_policyE2EE14_M_get_deleterERKSt9type_info:
.LFB11080:
	.cfi_startproc
	endbr64
	pushq	%r12
	.cfi_def_cfa_offset 16
	.cfi_offset 12, -16
	pushq	%rbx
	.cfi_def_cfa_offset 24
	.cfi_offset 3, -24
	movq	%rdi, %rbx
	subq	$8, %rsp
	.cfi_def_cfa_offset 32
	cmpq	_ZZNSt19_Sp_make_shared_tag5_S_tiEvE5__tag@GOTPCREL(%rip), %rsi
	je	.L45
	movq	8(%rsi), %rdi
	movq	_ZTSSt19_Sp_make_shared_tag@GOTPCREL(%rip), %rsi
	cmpq	%rsi, %rdi
	je	.L45
	xorl	%r12d, %r12d
	cmpb	$42, (%rdi)
	je	.L44
	call	strcmp@PLT
	testl	%eax, %eax
	jne	.L44
.L45:
	leaq	16(%rbx), %r12
.L44:
	addq	$8, %rsp
	.cfi_def_cfa_offset 24
	movq	%r12, %rax
	popq	%rbx
	.cfi_def_cfa_offset 16
	popq	%r12
	.cfi_def_cfa_offset 8
	ret
	.cfi_endproc
.LFE11080:
	.size	_ZNSt23_Sp_counted_ptr_inplaceIN7asiopal8ExecutorESaIS1_ELN9__gnu_cxx12_Lock_policyE2EE14_M_get_deleterERKSt9type_info, .-_ZNSt23_Sp_counted_ptr_inplaceIN7asiopal8ExecutorESaIS1_ELN9__gnu_cxx12_Lock_policyE2EE14_M_get_deleterERKSt9type_info
	.section	.text._ZNSt23_Sp_counted_ptr_inplaceIN8asiodnp311LinkSessionESaIS1_ELN9__gnu_cxx12_Lock_policyE2EE14_M_get_deleterERKSt9type_info,"axG",@progbits,_ZNSt23_Sp_counted_ptr_inplaceIN8asiodnp311LinkSessionESaIS1_ELN9__gnu_cxx12_Lock_policyE2EE14_M_get_deleterERKSt9type_info,comdat
	.align 2
	.p2align 4
	.weak	_ZNSt23_Sp_counted_ptr_inplaceIN8asiodnp311LinkSessionESaIS1_ELN9__gnu_cxx12_Lock_policyE2EE14_M_get_deleterERKSt9type_info
	.type	_ZNSt23_Sp_counted_ptr_inplaceIN8asiodnp311LinkSessionESaIS1_ELN9__gnu_cxx12_Lock_policyE2EE14_M_get_deleterERKSt9type_info, @function
_ZNSt23_Sp_counted_ptr_inplaceIN8asiodnp311LinkSessionESaIS1_ELN9__gnu_cxx12_Lock_policyE2EE14_M_get_deleterERKSt9type_info:
.LFB11052:
	.cfi_startproc
	endbr64
	pushq	%r12
	.cfi_def_cfa_offset 16
	.cfi_offset 12, -16
	pushq	%rbx
	.cfi_def_cfa_offset 24
	.cfi_offset 3, -24
	movq	%rdi, %rbx
	subq	$8, %rsp
	.cfi_def_cfa_offset 32
	cmpq	_ZZNSt19_Sp_make_shared_tag5_S_tiEvE5__tag@GOTPCREL(%rip), %rsi
	je	.L51
	movq	8(%rsi), %rdi
	movq	_ZTSSt19_Sp_make_shared_tag@GOTPCREL(%rip), %rsi
	cmpq	%rsi, %rdi
	je	.L51
	xorl	%r12d, %r12d
	cmpb	$42, (%rdi)
	je	.L50
	call	strcmp@PLT
	testl	%eax, %eax
	jne	.L50
.L51:
	leaq	16(%rbx), %r12
.L50:
	addq	$8, %rsp
	.cfi_def_cfa_offset 24
	movq	%r12, %rax
	popq	%rbx
	.cfi_def_cfa_offset 16
	popq	%r12
	.cfi_def_cfa_offset 8
	ret
	.cfi_endproc
.LFE11052:
	.size	_ZNSt23_Sp_counted_ptr_inplaceIN8asiodnp311LinkSessionESaIS1_ELN9__gnu_cxx12_Lock_policyE2EE14_M_get_deleterERKSt9type_info, .-_ZNSt23_Sp_counted_ptr_inplaceIN8asiodnp311LinkSessionESaIS1_ELN9__gnu_cxx12_Lock_policyE2EE14_M_get_deleterERKSt9type_info
	.section	.text._ZNSt23_Sp_counted_ptr_inplaceIN7asiopal13SocketChannelESaIS1_ELN9__gnu_cxx12_Lock_policyE2EE14_M_get_deleterERKSt9type_info,"axG",@progbits,_ZNSt23_Sp_counted_ptr_inplaceIN7asiopal13SocketChannelESaIS1_ELN9__gnu_cxx12_Lock_policyE2EE14_M_get_deleterERKSt9type_info,comdat
	.align 2
	.p2align 4
	.weak	_ZNSt23_Sp_counted_ptr_inplaceIN7asiopal13SocketChannelESaIS1_ELN9__gnu_cxx12_Lock_policyE2EE14_M_get_deleterERKSt9type_info
	.type	_ZNSt23_Sp_counted_ptr_inplaceIN7asiopal13SocketChannelESaIS1_ELN9__gnu_cxx12_Lock_policyE2EE14_M_get_deleterERKSt9type_info, @function
_ZNSt23_Sp_counted_ptr_inplaceIN7asiopal13SocketChannelESaIS1_ELN9__gnu_cxx12_Lock_policyE2EE14_M_get_deleterERKSt9type_info:
.LFB11045:
	.cfi_startproc
	endbr64
	pushq	%r12
	.cfi_def_cfa_offset 16
	.cfi_offset 12, -16
	pushq	%rbx
	.cfi_def_cfa_offset 24
	.cfi_offset 3, -24
	movq	%rdi, %rbx
	subq	$8, %rsp
	.cfi_def_cfa_offset 32
	cmpq	_ZZNSt19_Sp_make_shared_tag5_S_tiEvE5__tag@GOTPCREL(%rip), %rsi
	je	.L57
	movq	8(%rsi), %rdi
	movq	_ZTSSt19_Sp_make_shared_tag@GOTPCREL(%rip), %rsi
	cmpq	%rsi, %rdi
	je	.L57
	xorl	%r12d, %r12d
	cmpb	$42, (%rdi)
	je	.L56
	call	strcmp@PLT
	testl	%eax, %eax
	jne	.L56
.L57:
	leaq	16(%rbx), %r12
.L56:
	addq	$8, %rsp
	.cfi_def_cfa_offset 24
	movq	%r12, %rax
	popq	%rbx
	.cfi_def_cfa_offset 16
	popq	%r12
	.cfi_def_cfa_offset 8
	ret
	.cfi_endproc
.LFE11045:
	.size	_ZNSt23_Sp_counted_ptr_inplaceIN7asiopal13SocketChannelESaIS1_ELN9__gnu_cxx12_Lock_policyE2EE14_M_get_deleterERKSt9type_info, .-_ZNSt23_Sp_counted_ptr_inplaceIN7asiopal13SocketChannelESaIS1_ELN9__gnu_cxx12_Lock_policyE2EE14_M_get_deleterERKSt9type_info
	.section	.text.unlikely,"ax",@progbits
	.type	_ZN4asio6detail15throw_exceptionISt8bad_castEEvRKT_.isra.0, @function
_ZN4asio6detail15throw_exceptionISt8bad_castEEvRKT_.isra.0:
.LFB11267:
	.cfi_startproc
	pushq	%rax
	.cfi_def_cfa_offset 16
	popq	%rax
	.cfi_def_cfa_offset 8
	movl	$8, %edi
	pushq	%rax
	.cfi_def_cfa_offset 16
	call	__cxa_allocate_exception@PLT
	movq	_ZNSt8bad_castD1Ev@GOTPCREL(%rip), %rdx
	movq	_ZTISt8bad_cast@GOTPCREL(%rip), %rsi
	movq	%rax, %rdi
	movq	_ZTVSt8bad_cast@GOTPCREL(%rip), %rax
	addq	$16, %rax
	movq	%rax, (%rdi)
	call	__cxa_throw@PLT
	.cfi_endproc
.LFE11267:
	.size	_ZN4asio6detail15throw_exceptionISt8bad_castEEvRKT_.isra.0, .-_ZN4asio6detail15throw_exceptionISt8bad_castEEvRKT_.isra.0
	.section	.text._ZNSt23_Sp_counted_ptr_inplaceIN7asiopal8ExecutorESaIS1_ELN9__gnu_cxx12_Lock_policyE2EE10_M_disposeEv,"axG",@progbits,_ZNSt23_Sp_counted_ptr_inplaceIN7asiopal8ExecutorESaIS1_ELN9__gnu_cxx12_Lock_policyE2EE10_M_disposeEv,comdat
	.align 2
	.p2align 4
	.weak	_ZNSt23_Sp_counted_ptr_inplaceIN7asiopal8ExecutorESaIS1_ELN9__gnu_cxx12_Lock_policyE2EE10_M_disposeEv
	.type	_ZNSt23_Sp_counted_ptr_inplaceIN7asiopal8ExecutorESaIS1_ELN9__gnu_cxx12_Lock_policyE2EE10_M_disposeEv, @function
_ZNSt23_Sp_counted_ptr_inplaceIN7asiopal8ExecutorESaIS1_ELN9__gnu_cxx12_Lock_policyE2EE10_M_disposeEv:
.LFB11078:
	.cfi_startproc
	endbr64
	movq	_ZTVN7asiopal8ExecutorE@GOTPCREL(%rip), %rax
	pushq	%r12
	.cfi_def_cfa_offset 16
	.cfi_offset 12, -16
	pushq	%rbp
	.cfi_def_cfa_offset 24
	.cfi_offset 6, -24
	pushq	%rbx
	.cfi_def_cfa_offset 32
	.cfi_offset 3, -32
	movq	48(%rdi), %rbp
	addq	$16, %rax
	movq	%rdi, %rbx
	movq	%rax, 16(%rdi)
	testq	%rbp, %rbp
	je	.L66
	movq	_ZL28__gthrw___pthread_key_createPjPFvPvE@GOTPCREL(%rip), %r12
	testq	%r12, %r12
	je	.L67
	movl	$-1, %eax
	lock xaddl	%eax, 8(%rbp)
	cmpl	$1, %eax
	je	.L78
	.p2align 4,,10
	.p2align 3
.L66:
	movq	32(%rbx), %rdi
	testq	%rdi, %rdi
	je	.L64
	cmpq	$0, _ZL28__gthrw___pthread_key_createPjPFvPvE@GOTPCREL(%rip)
	je	.L74
	movl	$-1, %eax
	lock xaddl	%eax, 12(%rdi)
	cmpl	$1, %eax
	je	.L79
.L64:
	popq	%rbx
	.cfi_remember_state
	.cfi_def_cfa_offset 24
	popq	%rbp
	.cfi_def_cfa_offset 16
	popq	%r12
	.cfi_def_cfa_offset 8
	ret
	.p2align 4,,10
	.p2align 3
.L67:
	.cfi_restore_state
	movl	8(%rbp), %eax
	leal	-1(%rax), %edx
	movl	%edx, 8(%rbp)
	cmpl	$1, %eax
	jne	.L66
.L78:
	movq	0(%rbp), %rax
	movq	%rbp, %rdi
	call	*16(%rax)
	testq	%r12, %r12
	je	.L70
	movl	$-1, %eax
	lock xaddl	%eax, 12(%rbp)
.L71:
	cmpl	$1, %eax
	jne	.L66
	movq	0(%rbp), %rax
	movq	%rbp, %rdi
	call	*24(%rax)
	jmp	.L66
	.p2align 4,,10
	.p2align 3
.L74:
	movl	12(%rdi), %eax
	leal	-1(%rax), %edx
	movl	%edx, 12(%rdi)
	cmpl	$1, %eax
	jne	.L64
.L79:
	movq	(%rdi), %rax
	popq	%rbx
	.cfi_remember_state
	.cfi_def_cfa_offset 24
	popq	%rbp
	.cfi_def_cfa_offset 16
	popq	%r12
	.cfi_def_cfa_offset 8
	movq	24(%rax), %rax
	jmp	*%rax
	.p2align 4,,10
	.p2align 3
.L70:
	.cfi_restore_state
	movl	12(%rbp), %eax
	leal	-1(%rax), %edx
	movl	%edx, 12(%rbp)
	jmp	.L71
	.cfi_endproc
.LFE11078:
	.size	_ZNSt23_Sp_counted_ptr_inplaceIN7asiopal8ExecutorESaIS1_ELN9__gnu_cxx12_Lock_policyE2EE10_M_disposeEv, .-_ZNSt23_Sp_counted_ptr_inplaceIN7asiopal8ExecutorESaIS1_ELN9__gnu_cxx12_Lock_policyE2EE10_M_disposeEv
	.section	.rodata._ZNK4asio6detail15system_category7messageB5cxx11Ei.str1.8,"aMS",@progbits,1
	.align 8
.LC4:
	.string	"basic_string::_M_construct null not valid"
	.section	.text._ZNK4asio6detail15system_category7messageB5cxx11Ei,"axG",@progbits,_ZNK4asio6detail15system_category7messageB5cxx11Ei,comdat
	.align 2
	.p2align 4
	.weak	_ZNK4asio6detail15system_category7messageB5cxx11Ei
	.type	_ZNK4asio6detail15system_category7messageB5cxx11Ei, @function
_ZNK4asio6detail15system_category7messageB5cxx11Ei:
.LFB2414:
	.cfi_startproc
	endbr64
	pushq	%r14
	.cfi_def_cfa_offset 16
	.cfi_offset 14, -16
	pushq	%r13
	.cfi_def_cfa_offset 24
	.cfi_offset 13, -24
	pushq	%r12
	.cfi_def_cfa_offset 32
	.cfi_offset 12, -32
	movq	%rdi, %r12
	pushq	%rbp
	.cfi_def_cfa_offset 40
	.cfi_offset 6, -40
	leaq	16(%rdi), %rbp
	subq	$296, %rsp
	.cfi_def_cfa_offset 336
	movq	%fs:40, %rax
	movq	%rax, 280(%rsp)
	xorl	%eax, %eax
	cmpl	$125, %edx
	je	.L93
	pxor	%xmm0, %xmm0
	movl	%edx, %edi
	leaq	16(%rsp), %rsi
	movl	$256, %edx
	movaps	%xmm0, 16(%rsp)
	movaps	%xmm0, 32(%rsp)
	movaps	%xmm0, 48(%rsp)
	movaps	%xmm0, 64(%rsp)
	movaps	%xmm0, 80(%rsp)
	movaps	%xmm0, 96(%rsp)
	movaps	%xmm0, 112(%rsp)
	movaps	%xmm0, 128(%rsp)
	movaps	%xmm0, 144(%rsp)
	movaps	%xmm0, 160(%rsp)
	movaps	%xmm0, 176(%rsp)
	movaps	%xmm0, 192(%rsp)
	movaps	%xmm0, 208(%rsp)
	movaps	%xmm0, 224(%rsp)
	movaps	%xmm0, 240(%rsp)
	movaps	%xmm0, 256(%rsp)
	call	strerror_r@PLT
	movq	%rbp, (%r12)
	movq	%rax, %r14
	testq	%rax, %rax
	je	.L94
	movq	%rax, %rdi
	call	strlen@PLT
	movq	%rax, 8(%rsp)
	movq	%rax, %r13
	cmpq	$15, %rax
	ja	.L95
	cmpq	$1, %rax
	jne	.L86
	movzbl	(%r14), %edx
	movb	%dl, 16(%r12)
.L87:
	movq	%rax, 8(%r12)
	movb	$0, 0(%rbp,%rax)
.L80:
	movq	280(%rsp), %rax
	xorq	%fs:40, %rax
	jne	.L96
	addq	$296, %rsp
	.cfi_remember_state
	.cfi_def_cfa_offset 40
	movq	%r12, %rax
	popq	%rbp
	.cfi_def_cfa_offset 32
	popq	%r12
	.cfi_def_cfa_offset 24
	popq	%r13
	.cfi_def_cfa_offset 16
	popq	%r14
	.cfi_def_cfa_offset 8
	ret
	.p2align 4,,10
	.p2align 3
.L95:
	.cfi_restore_state
	leaq	8(%rsp), %rsi
	xorl	%edx, %edx
	movq	%r12, %rdi
	call	_ZNSt7__cxx1112basic_stringIcSt11char_traitsIcESaIcEE9_M_createERmm@PLT
	movq	%rax, (%r12)
	movq	%rax, %rbp
	movq	8(%rsp), %rax
	movq	%rax, 16(%r12)
.L85:
	movq	%rbp, %rdi
	movq	%r13, %rdx
	movq	%r14, %rsi
	call	memcpy@PLT
	movq	8(%rsp), %rax
	movq	(%r12), %rbp
	jmp	.L87
	.p2align 4,,10
	.p2align 3
.L93:
	movq	%rbp, (%rdi)
	xorl	%edx, %edx
	leaq	8(%rsp), %rsi
	movq	$18, 8(%rsp)
	call	_ZNSt7__cxx1112basic_stringIcSt11char_traitsIcESaIcEE9_M_createERmm@PLT
	movq	8(%rsp), %rdx
	movdqa	.LC5(%rip), %xmm0
	movq	%rax, (%r12)
	movq	%rdx, 16(%r12)
	movl	$11876, %edx
	movw	%dx, 16(%rax)
	movups	%xmm0, (%rax)
	movq	8(%rsp), %rax
	movq	(%r12), %rdx
	movq	%rax, 8(%r12)
	movb	$0, (%rdx,%rax)
	jmp	.L80
	.p2align 4,,10
	.p2align 3
.L86:
	testq	%rax, %rax
	je	.L87
	jmp	.L85
	.p2align 4,,10
	.p2align 3
.L94:
	leaq	.LC4(%rip), %rdi
	call	_ZSt19__throw_logic_errorPKc@PLT
.L96:
	call	__stack_chk_fail@PLT
	.cfi_endproc
.LFE2414:
	.size	_ZNK4asio6detail15system_category7messageB5cxx11Ei, .-_ZNK4asio6detail15system_category7messageB5cxx11Ei
	.section	.text._ZNK4asio5error6detail17addrinfo_category7messageB5cxx11Ei,"axG",@progbits,_ZNK4asio5error6detail17addrinfo_category7messageB5cxx11Ei,comdat
	.align 2
	.p2align 4
	.weak	_ZNK4asio5error6detail17addrinfo_category7messageB5cxx11Ei
	.type	_ZNK4asio5error6detail17addrinfo_category7messageB5cxx11Ei, @function
_ZNK4asio5error6detail17addrinfo_category7messageB5cxx11Ei:
.LFB2460:
	.cfi_startproc
	endbr64
	pushq	%r12
	.cfi_def_cfa_offset 16
	.cfi_offset 12, -16
	movq	%rdi, %r12
	subq	$16, %rsp
	.cfi_def_cfa_offset 32
	movq	%fs:40, %rax
	movq	%rax, 8(%rsp)
	xorl	%eax, %eax
	leaq	16(%rdi), %rax
	movq	%rax, (%rdi)
	cmpl	$-8, %edx
	je	.L103
	cmpl	$-7, %edx
	je	.L104
	xorl	%edx, %edx
	movq	%rsp, %rsi
	movq	$19, (%rsp)
	call	_ZNSt7__cxx1112basic_stringIcSt11char_traitsIcESaIcEE9_M_createERmm@PLT
	movq	(%rsp), %rdx
	movdqa	.LC8(%rip), %xmm0
	movq	%rax, (%r12)
	movq	%rdx, 16(%r12)
	movl	$28530, %edx
	movw	%dx, 16(%rax)
	movb	$114, 18(%rax)
	movups	%xmm0, (%rax)
	movq	(%rsp), %rax
	movq	(%r12), %rdx
	movq	%rax, 8(%r12)
	movb	$0, (%rdx,%rax)
.L97:
	movq	8(%rsp), %rax
	xorq	%fs:40, %rax
	jne	.L105
	addq	$16, %rsp
	.cfi_remember_state
	.cfi_def_cfa_offset 16
	movq	%r12, %rax
	popq	%r12
	.cfi_def_cfa_offset 8
	ret
	.p2align 4,,10
	.p2align 3
.L104:
	.cfi_restore_state
	xorl	%edx, %edx
	movq	%rsp, %rsi
	movq	$25, (%rsp)
	call	_ZNSt7__cxx1112basic_stringIcSt11char_traitsIcESaIcEE9_M_createERmm@PLT
	movq	(%rsp), %rdx
	movdqa	.LC7(%rip), %xmm0
	movabsq	$7310593918082512243, %rcx
	movq	%rax, (%r12)
	movq	%rdx, 16(%r12)
	movq	%rcx, 16(%rax)
	movb	$100, 24(%rax)
	movups	%xmm0, (%rax)
	movq	(%rsp), %rax
	movq	(%r12), %rdx
	movq	%rax, 8(%r12)
	movb	$0, (%rdx,%rax)
	jmp	.L97
	.p2align 4,,10
	.p2align 3
.L103:
	xorl	%edx, %edx
	movq	%rsp, %rsi
	movq	$17, (%rsp)
	call	_ZNSt7__cxx1112basic_stringIcSt11char_traitsIcESaIcEE9_M_createERmm@PLT
	movq	(%rsp), %rdx
	movdqa	.LC6(%rip), %xmm0
	movq	%rax, (%r12)
	movq	%rdx, 16(%r12)
	movb	$100, 16(%rax)
	movups	%xmm0, (%rax)
	movq	(%rsp), %rax
	movq	(%r12), %rdx
	movq	%rax, 8(%r12)
	movb	$0, (%rdx,%rax)
	jmp	.L97
.L105:
	call	__stack_chk_fail@PLT
	.cfi_endproc
.LFE2460:
	.size	_ZNK4asio5error6detail17addrinfo_category7messageB5cxx11Ei, .-_ZNK4asio5error6detail17addrinfo_category7messageB5cxx11Ei
	.section	.text._ZNK4asio5error6detail14netdb_category7messageB5cxx11Ei,"axG",@progbits,_ZNK4asio5error6detail14netdb_category7messageB5cxx11Ei,comdat
	.align 2
	.p2align 4
	.weak	_ZNK4asio5error6detail14netdb_category7messageB5cxx11Ei
	.type	_ZNK4asio5error6detail14netdb_category7messageB5cxx11Ei, @function
_ZNK4asio5error6detail14netdb_category7messageB5cxx11Ei:
.LFB2454:
	.cfi_startproc
	endbr64
	pushq	%r12
	.cfi_def_cfa_offset 16
	.cfi_offset 12, -16
	movq	%rdi, %r12
	subq	$16, %rsp
	.cfi_def_cfa_offset 32
	movq	%fs:40, %rax
	movq	%rax, 8(%rsp)
	xorl	%eax, %eax
	leaq	16(%rdi), %rax
	movq	%rax, (%rdi)
	cmpl	$1, %edx
	je	.L114
	cmpl	$2, %edx
	je	.L115
	cmpl	$4, %edx
	je	.L116
	cmpl	$3, %edx
	je	.L117
	xorl	%edx, %edx
	movq	%rsp, %rsi
	movq	$16, (%rsp)
	call	_ZNSt7__cxx1112basic_stringIcSt11char_traitsIcESaIcEE9_M_createERmm@PLT
	movq	(%rsp), %rdx
	movdqa	.LC18(%rip), %xmm0
	movq	%rax, (%r12)
	movq	%rdx, 16(%r12)
	movups	%xmm0, (%rax)
	movq	(%rsp), %rax
	movq	(%r12), %rdx
	movq	%rax, 8(%r12)
	movb	$0, (%rdx,%rax)
.L106:
	movq	8(%rsp), %rax
	xorq	%fs:40, %rax
	jne	.L118
	addq	$16, %rsp
	.cfi_remember_state
	.cfi_def_cfa_offset 16
	movq	%r12, %rax
	popq	%r12
	.cfi_def_cfa_offset 8
	ret
	.p2align 4,,10
	.p2align 3
.L114:
	.cfi_restore_state
	movq	%rsp, %rsi
	xorl	%edx, %edx
	movq	$30, (%rsp)
	call	_ZNSt7__cxx1112basic_stringIcSt11char_traitsIcESaIcEE9_M_createERmm@PLT
	movq	(%rsp), %rdx
	movl	$10597, %esi
	movdqa	.LC9(%rip), %xmm0
	movabsq	$8388361603773658465, %rcx
	movq	%rax, (%r12)
	movq	%rdx, 16(%r12)
	movq	%rcx, 16(%rax)
	movl	$1986622561, 24(%rax)
	movw	%si, 28(%rax)
	movups	%xmm0, (%rax)
	movq	(%rsp), %rax
	movq	(%r12), %rdx
	movq	%rax, 8(%r12)
	movb	$0, (%rdx,%rax)
	jmp	.L106
	.p2align 4,,10
	.p2align 3
.L117:
	xorl	%edx, %edx
	movq	%rsp, %rsi
	movq	$55, (%rsp)
	call	_ZNSt7__cxx1112basic_stringIcSt11char_traitsIcESaIcEE9_M_createERmm@PLT
	movq	(%rsp), %rdx
	movdqa	.LC15(%rip), %xmm0
	movq	%rax, (%r12)
	movq	%rdx, 16(%r12)
	movl	$30059, %edx
	movups	%xmm0, (%rax)
	movdqa	.LC16(%rip), %xmm0
	movl	$1869573152, 48(%rax)
	movups	%xmm0, 16(%rax)
	movdqa	.LC17(%rip), %xmm0
	movw	%dx, 52(%rax)
	movb	$112, 54(%rax)
	movups	%xmm0, 32(%rax)
	movq	(%rsp), %rax
	movq	(%r12), %rdx
	movq	%rax, 8(%r12)
	movb	$0, (%rdx,%rax)
	jmp	.L106
	.p2align 4,,10
	.p2align 3
.L115:
	xorl	%edx, %edx
	movq	%rsp, %rsi
	movq	$51, (%rsp)
	call	_ZNSt7__cxx1112basic_stringIcSt11char_traitsIcESaIcEE9_M_createERmm@PLT
	movq	(%rsp), %rdx
	movl	$25972, %ecx
	movdqa	.LC9(%rip), %xmm0
	movq	%rax, (%r12)
	movq	%rdx, 16(%r12)
	movups	%xmm0, (%rax)
	movdqa	.LC10(%rip), %xmm0
	movw	%cx, 48(%rax)
	movups	%xmm0, 16(%rax)
	movdqa	.LC11(%rip), %xmm0
	movb	$114, 50(%rax)
	movups	%xmm0, 32(%rax)
	movq	(%rsp), %rax
	movq	(%r12), %rdx
	movq	%rax, 8(%r12)
	movb	$0, (%rdx,%rax)
	jmp	.L106
	.p2align 4,,10
	.p2align 3
.L116:
	xorl	%edx, %edx
	movq	%rsp, %rsi
	movq	$56, (%rsp)
	call	_ZNSt7__cxx1112basic_stringIcSt11char_traitsIcESaIcEE9_M_createERmm@PLT
	movq	(%rsp), %rdx
	movdqa	.LC12(%rip), %xmm0
	movabsq	$7022344801645520244, %rcx
	movq	%rax, (%r12)
	movq	%rdx, 16(%r12)
	movups	%xmm0, (%rax)
	movdqa	.LC13(%rip), %xmm0
	movq	%rcx, 48(%rax)
	movups	%xmm0, 16(%rax)
	movdqa	.LC14(%rip), %xmm0
	movups	%xmm0, 32(%rax)
	movq	(%rsp), %rax
	movq	(%r12), %rdx
	movq	%rax, 8(%r12)
	movb	$0, (%rdx,%rax)
	jmp	.L106
.L118:
	call	__stack_chk_fail@PLT
	.cfi_endproc
.LFE2454:
	.size	_ZNK4asio5error6detail14netdb_category7messageB5cxx11Ei, .-_ZNK4asio5error6detail14netdb_category7messageB5cxx11Ei
	.section	.text._ZNK4asio5error6detail13misc_category7messageB5cxx11Ei,"axG",@progbits,_ZNK4asio5error6detail13misc_category7messageB5cxx11Ei,comdat
	.align 2
	.p2align 4
	.weak	_ZNK4asio5error6detail13misc_category7messageB5cxx11Ei
	.type	_ZNK4asio5error6detail13misc_category7messageB5cxx11Ei, @function
_ZNK4asio5error6detail13misc_category7messageB5cxx11Ei:
.LFB2466:
	.cfi_startproc
	endbr64
	pushq	%r12
	.cfi_def_cfa_offset 16
	.cfi_offset 12, -16
	movq	%rdi, %r12
	subq	$16, %rsp
	.cfi_def_cfa_offset 32
	movq	%fs:40, %rax
	movq	%rax, 8(%rsp)
	xorl	%eax, %eax
	leaq	16(%rdi), %rax
	movq	%rax, (%rdi)
	cmpl	$1, %edx
	je	.L127
	cmpl	$2, %edx
	je	.L128
	cmpl	$3, %edx
	je	.L129
	cmpl	$4, %edx
	je	.L130
	movabsq	$8316298233121436513, %rcx
	movl	$28530, %edx
	movq	%rcx, 16(%rdi)
	movl	$1919230051, 8(%rax)
	movw	%dx, 12(%rax)
	movb	$114, 14(%rax)
	movq	$15, 8(%rdi)
	movb	$0, 31(%rdi)
.L119:
	movq	8(%rsp), %rax
	xorq	%fs:40, %rax
	jne	.L131
	addq	$16, %rsp
	.cfi_remember_state
	.cfi_def_cfa_offset 16
	movq	%r12, %rax
	popq	%r12
	.cfi_def_cfa_offset 8
	ret
	.p2align 4,,10
	.p2align 3
.L127:
	.cfi_restore_state
	movabsq	$2340011850872286273, %rcx
	movq	%rcx, 16(%rdi)
	movl	$1852141679, 8(%rax)
	movq	$12, 8(%rdi)
	movb	$0, 28(%rdi)
	jmp	.L119
	.p2align 4,,10
	.p2align 3
.L130:
	movq	%rsp, %rsi
	xorl	%edx, %edx
	movq	$57, (%rsp)
	call	_ZNSt7__cxx1112basic_stringIcSt11char_traitsIcESaIcEE9_M_createERmm@PLT
	movq	(%rsp), %rdx
	movdqa	.LC20(%rip), %xmm0
	movabsq	$7310291504967217959, %rsi
	movq	%rax, (%r12)
	movq	%rdx, 16(%r12)
	movups	%xmm0, (%rax)
	movdqa	.LC21(%rip), %xmm0
	movq	%rsi, 48(%rax)
	movups	%xmm0, 16(%rax)
	movdqa	.LC22(%rip), %xmm0
	movb	$116, 56(%rax)
	movups	%xmm0, 32(%rax)
	movq	(%rsp), %rax
	movq	(%r12), %rdx
	movq	%rax, 8(%r12)
	movb	$0, (%rdx,%rax)
	jmp	.L119
	.p2align 4,,10
	.p2align 3
.L128:
	movabsq	$7358994418594246213, %rcx
	movq	%rcx, 16(%rdi)
	movl	$27753, %ecx
	movw	%cx, 8(%rax)
	movb	$101, 10(%rax)
	movq	$11, 8(%rdi)
	movb	$0, 27(%rdi)
	jmp	.L119
	.p2align 4,,10
	.p2align 3
.L129:
	xorl	%edx, %edx
	movq	%rsp, %rsi
	movq	$17, (%rsp)
	call	_ZNSt7__cxx1112basic_stringIcSt11char_traitsIcESaIcEE9_M_createERmm@PLT
	movq	(%rsp), %rdx
	movdqa	.LC19(%rip), %xmm0
	movq	%rax, (%r12)
	movq	%rdx, 16(%r12)
	movb	$100, 16(%rax)
	movups	%xmm0, (%rax)
	movq	(%rsp), %rax
	movq	(%r12), %rdx
	movq	%rax, 8(%r12)
	movb	$0, (%rdx,%rax)
	jmp	.L119
.L131:
	call	__stack_chk_fail@PLT
	.cfi_endproc
.LFE2466:
	.size	_ZNK4asio5error6detail13misc_category7messageB5cxx11Ei, .-_ZNK4asio5error6detail13misc_category7messageB5cxx11Ei
	.section	.text._ZNSt23_Sp_counted_ptr_inplaceIN8asiodnp311LinkSessionESaIS1_ELN9__gnu_cxx12_Lock_policyE2EE10_M_disposeEv,"axG",@progbits,_ZNSt23_Sp_counted_ptr_inplaceIN8asiodnp311LinkSessionESaIS1_ELN9__gnu_cxx12_Lock_policyE2EE10_M_disposeEv,comdat
	.align 2
	.p2align 4
	.weak	_ZNSt23_Sp_counted_ptr_inplaceIN8asiodnp311LinkSessionESaIS1_ELN9__gnu_cxx12_Lock_policyE2EE10_M_disposeEv
	.type	_ZNSt23_Sp_counted_ptr_inplaceIN8asiodnp311LinkSessionESaIS1_ELN9__gnu_cxx12_Lock_policyE2EE10_M_disposeEv, @function
_ZNSt23_Sp_counted_ptr_inplaceIN8asiodnp311LinkSessionESaIS1_ELN9__gnu_cxx12_Lock_policyE2EE10_M_disposeEv:
.LFB11050:
	.cfi_startproc
	endbr64
	movq	_ZTVN8asiodnp311LinkSessionE@GOTPCREL(%rip), %rax
	pushq	%r12
	.cfi_def_cfa_offset 16
	.cfi_offset 12, -16
	pushq	%rbp
	.cfi_def_cfa_offset 24
	.cfi_offset 6, -24
	leaq	96(%rax), %rdx
	leaq	16(%rax), %rcx
	pushq	%rbx
	.cfi_def_cfa_offset 32
	.cfi_offset 3, -32
	movq	616(%rdi), %r12
	movq	%rdx, %xmm1
	movq	%rcx, %xmm0
	leaq	144(%rax), %rdx
	movq	%rdi, %rbx
	punpcklqdq	%xmm1, %xmm0
	movq	%rdx, 32(%rdi)
	leaq	224(%rax), %rdx
	addq	$184, %rax
	movups	%xmm0, 16(%rdi)
	movq	%rdx, %xmm2
	movq	%rax, %xmm0
	punpcklqdq	%xmm2, %xmm0
	movups	%xmm0, 56(%rdi)
	testq	%r12, %r12
	je	.L134
	movq	_ZL28__gthrw___pthread_key_createPjPFvPvE@GOTPCREL(%rip), %rbp
	testq	%rbp, %rbp
	je	.L135
	movl	$-1, %eax
	lock xaddl	%eax, 8(%r12)
	cmpl	$1, %eax
	je	.L195
	.p2align 4,,10
	.p2align 3
.L134:
	leaq	584(%rbx), %rdi
	call	_ZN7openpal8TimerRefD1Ev@PLT
	movq	192(%rbx), %r12
	testq	%r12, %r12
	je	.L141
	movq	_ZL28__gthrw___pthread_key_createPjPFvPvE@GOTPCREL(%rip), %rbp
	testq	%rbp, %rbp
	je	.L142
	movl	$-1, %eax
	lock xaddl	%eax, 8(%r12)
	cmpl	$1, %eax
	je	.L196
	.p2align 4,,10
	.p2align 3
.L141:
	movq	176(%rbx), %r12
	testq	%r12, %r12
	je	.L148
	movq	_ZL28__gthrw___pthread_key_createPjPFvPvE@GOTPCREL(%rip), %rbp
	testq	%rbp, %rbp
	je	.L149
	movl	$-1, %eax
	lock xaddl	%eax, 8(%r12)
	cmpl	$1, %eax
	je	.L197
	.p2align 4,,10
	.p2align 3
.L148:
	movq	160(%rbx), %r12
	testq	%r12, %r12
	je	.L155
	movq	_ZL28__gthrw___pthread_key_createPjPFvPvE@GOTPCREL(%rip), %rbp
	testq	%rbp, %rbp
	je	.L156
	movl	$-1, %eax
	lock xaddl	%eax, 8(%r12)
	cmpl	$1, %eax
	je	.L198
	.p2align 4,,10
	.p2align 3
.L155:
	movq	144(%rbx), %r12
	testq	%r12, %r12
	je	.L162
	movq	_ZL28__gthrw___pthread_key_createPjPFvPvE@GOTPCREL(%rip), %rbp
	testq	%rbp, %rbp
	je	.L163
	movl	$-1, %eax
	lock xaddl	%eax, 8(%r12)
	cmpl	$1, %eax
	je	.L199
	.p2align 4,,10
	.p2align 3
.L162:
	movq	128(%rbx), %r12
	testq	%r12, %r12
	je	.L169
	movq	_ZL28__gthrw___pthread_key_createPjPFvPvE@GOTPCREL(%rip), %rbp
	testq	%rbp, %rbp
	je	.L170
	movl	$-1, %eax
	lock xaddl	%eax, 8(%r12)
	cmpl	$1, %eax
	je	.L200
	.p2align 4,,10
	.p2align 3
.L169:
	movq	104(%rbx), %r12
	testq	%r12, %r12
	je	.L176
	movq	_ZL28__gthrw___pthread_key_createPjPFvPvE@GOTPCREL(%rip), %rbp
	testq	%rbp, %rbp
	je	.L177
	movl	$-1, %eax
	lock xaddl	%eax, 8(%r12)
	cmpl	$1, %eax
	je	.L201
	.p2align 4,,10
	.p2align 3
.L176:
	movq	88(%rbx), %r12
	testq	%r12, %r12
	je	.L183
	movq	_ZL28__gthrw___pthread_key_createPjPFvPvE@GOTPCREL(%rip), %rbp
	testq	%rbp, %rbp
	je	.L184
	movl	$-1, %eax
	lock xaddl	%eax, 8(%r12)
	cmpl	$1, %eax
	je	.L202
	.p2align 4,,10
	.p2align 3
.L183:
	movq	48(%rbx), %rdi
	testq	%rdi, %rdi
	je	.L132
	cmpq	$0, _ZL28__gthrw___pthread_key_createPjPFvPvE@GOTPCREL(%rip)
	je	.L191
	movl	$-1, %eax
	lock xaddl	%eax, 12(%rdi)
	cmpl	$1, %eax
	je	.L203
.L132:
	popq	%rbx
	.cfi_remember_state
	.cfi_def_cfa_offset 24
	popq	%rbp
	.cfi_def_cfa_offset 16
	popq	%r12
	.cfi_def_cfa_offset 8
	ret
	.p2align 4,,10
	.p2align 3
.L191:
	.cfi_restore_state
	movl	12(%rdi), %eax
	leal	-1(%rax), %edx
	movl	%edx, 12(%rdi)
	cmpl	$1, %eax
	jne	.L132
.L203:
	movq	(%rdi), %rax
	popq	%rbx
	.cfi_remember_state
	.cfi_def_cfa_offset 24
	popq	%rbp
	.cfi_def_cfa_offset 16
	popq	%r12
	.cfi_def_cfa_offset 8
	movq	24(%rax), %rax
	jmp	*%rax
	.p2align 4,,10
	.p2align 3
.L156:
	.cfi_restore_state
	movl	8(%r12), %eax
	leal	-1(%rax), %edx
	movl	%edx, 8(%r12)
	cmpl	$1, %eax
	jne	.L155
.L198:
	movq	(%r12), %rax
	movq	%r12, %rdi
	call	*16(%rax)
	testq	%rbp, %rbp
	je	.L159
	movl	$-1, %eax
	lock xaddl	%eax, 12(%r12)
.L160:
	cmpl	$1, %eax
	jne	.L155
	movq	(%r12), %rax
	movq	%r12, %rdi
	call	*24(%rax)
	jmp	.L155
	.p2align 4,,10
	.p2align 3
.L149:
	movl	8(%r12), %eax
	leal	-1(%rax), %edx
	movl	%edx, 8(%r12)
	cmpl	$1, %eax
	jne	.L148
.L197:
	movq	(%r12), %rax
	movq	%r12, %rdi
	call	*16(%rax)
	testq	%rbp, %rbp
	je	.L152
	movl	$-1, %eax
	lock xaddl	%eax, 12(%r12)
.L153:
	cmpl	$1, %eax
	jne	.L148
	movq	(%r12), %rax
	movq	%r12, %rdi
	call	*24(%rax)
	jmp	.L148
	.p2align 4,,10
	.p2align 3
.L142:
	movl	8(%r12), %eax
	leal	-1(%rax), %edx
	movl	%edx, 8(%r12)
	cmpl	$1, %eax
	jne	.L141
.L196:
	movq	(%r12), %rax
	movq	%r12, %rdi
	call	*16(%rax)
	testq	%rbp, %rbp
	je	.L145
	movl	$-1, %eax
	lock xaddl	%eax, 12(%r12)
.L146:
	cmpl	$1, %eax
	jne	.L141
	movq	(%r12), %rax
	movq	%r12, %rdi
	call	*24(%rax)
	jmp	.L141
	.p2align 4,,10
	.p2align 3
.L135:
	movl	8(%r12), %eax
	leal	-1(%rax), %edx
	movl	%edx, 8(%r12)
	cmpl	$1, %eax
	jne	.L134
.L195:
	movq	(%r12), %rax
	movq	%r12, %rdi
	call	*16(%rax)
	testq	%rbp, %rbp
	je	.L138
	movl	$-1, %eax
	lock xaddl	%eax, 12(%r12)
.L139:
	cmpl	$1, %eax
	jne	.L134
	movq	(%r12), %rax
	movq	%r12, %rdi
	call	*24(%rax)
	jmp	.L134
	.p2align 4,,10
	.p2align 3
.L184:
	movl	8(%r12), %eax
	leal	-1(%rax), %edx
	movl	%edx, 8(%r12)
	cmpl	$1, %eax
	jne	.L183
.L202:
	movq	(%r12), %rax
	movq	%r12, %rdi
	call	*16(%rax)
	testq	%rbp, %rbp
	je	.L187
	movl	$-1, %eax
	lock xaddl	%eax, 12(%r12)
.L188:
	cmpl	$1, %eax
	jne	.L183
	movq	(%r12), %rax
	movq	%r12, %rdi
	call	*24(%rax)
	jmp	.L183
	.p2align 4,,10
	.p2align 3
.L177:
	movl	8(%r12), %eax
	leal	-1(%rax), %edx
	movl	%edx, 8(%r12)
	cmpl	$1, %eax
	jne	.L176
.L201:
	movq	(%r12), %rax
	movq	%r12, %rdi
	call	*16(%rax)
	testq	%rbp, %rbp
	je	.L180
	movl	$-1, %eax
	lock xaddl	%eax, 12(%r12)
.L181:
	cmpl	$1, %eax
	jne	.L176
	movq	(%r12), %rax
	movq	%r12, %rdi
	call	*24(%rax)
	jmp	.L176
	.p2align 4,,10
	.p2align 3
.L170:
	movl	8(%r12), %eax
	leal	-1(%rax), %edx
	movl	%edx, 8(%r12)
	cmpl	$1, %eax
	jne	.L169
.L200:
	movq	(%r12), %rax
	movq	%r12, %rdi
	call	*16(%rax)
	testq	%rbp, %rbp
	je	.L173
	movl	$-1, %eax
	lock xaddl	%eax, 12(%r12)
.L174:
	cmpl	$1, %eax
	jne	.L169
	movq	(%r12), %rax
	movq	%r12, %rdi
	call	*24(%rax)
	jmp	.L169
	.p2align 4,,10
	.p2align 3
.L163:
	movl	8(%r12), %eax
	leal	-1(%rax), %edx
	movl	%edx, 8(%r12)
	cmpl	$1, %eax
	jne	.L162
.L199:
	movq	(%r12), %rax
	movq	%r12, %rdi
	call	*16(%rax)
	testq	%rbp, %rbp
	je	.L166
	movl	$-1, %eax
	lock xaddl	%eax, 12(%r12)
.L167:
	cmpl	$1, %eax
	jne	.L162
	movq	(%r12), %rax
	movq	%r12, %rdi
	call	*24(%rax)
	jmp	.L162
	.p2align 4,,10
	.p2align 3
.L138:
	movl	12(%r12), %eax
	leal	-1(%rax), %edx
	movl	%edx, 12(%r12)
	jmp	.L139
	.p2align 4,,10
	.p2align 3
.L187:
	movl	12(%r12), %eax
	leal	-1(%rax), %edx
	movl	%edx, 12(%r12)
	jmp	.L188
	.p2align 4,,10
	.p2align 3
.L173:
	movl	12(%r12), %eax
	leal	-1(%rax), %edx
	movl	%edx, 12(%r12)
	jmp	.L174
	.p2align 4,,10
	.p2align 3
.L180:
	movl	12(%r12), %eax
	leal	-1(%rax), %edx
	movl	%edx, 12(%r12)
	jmp	.L181
	.p2align 4,,10
	.p2align 3
.L145:
	movl	12(%r12), %eax
	leal	-1(%rax), %edx
	movl	%edx, 12(%r12)
	jmp	.L146
	.p2align 4,,10
	.p2align 3
.L152:
	movl	12(%r12), %eax
	leal	-1(%rax), %edx
	movl	%edx, 12(%r12)
	jmp	.L153
	.p2align 4,,10
	.p2align 3
.L159:
	movl	12(%r12), %eax
	leal	-1(%rax), %edx
	movl	%edx, 12(%r12)
	jmp	.L160
	.p2align 4,,10
	.p2align 3
.L166:
	movl	12(%r12), %eax
	leal	-1(%rax), %edx
	movl	%edx, 12(%r12)
	jmp	.L167
	.cfi_endproc
.LFE11050:
	.size	_ZNSt23_Sp_counted_ptr_inplaceIN8asiodnp311LinkSessionESaIS1_ELN9__gnu_cxx12_Lock_policyE2EE10_M_disposeEv, .-_ZNSt23_Sp_counted_ptr_inplaceIN8asiodnp311LinkSessionESaIS1_ELN9__gnu_cxx12_Lock_policyE2EE10_M_disposeEv
	.section	.text.unlikely._ZSt20__throw_bad_weak_ptrv,"axG",@progbits,_ZSt20__throw_bad_weak_ptrv,comdat
	.weak	_ZSt20__throw_bad_weak_ptrv
	.type	_ZSt20__throw_bad_weak_ptrv, @function
_ZSt20__throw_bad_weak_ptrv:
.LFB1586:
	.cfi_startproc
	endbr64
	pushq	%rax
	.cfi_def_cfa_offset 16
	popq	%rax
	.cfi_def_cfa_offset 8
	movl	$8, %edi
	pushq	%rax
	.cfi_def_cfa_offset 16
	call	__cxa_allocate_exception@PLT
	movq	_ZNSt12bad_weak_ptrD1Ev@GOTPCREL(%rip), %rdx
	movq	_ZTISt12bad_weak_ptr@GOTPCREL(%rip), %rsi
	movq	%rax, %rdi
	movq	_ZTVSt12bad_weak_ptr@GOTPCREL(%rip), %rax
	addq	$16, %rax
	movq	%rax, (%rdi)
	call	__cxa_throw@PLT
	.cfi_endproc
.LFE1586:
	.size	_ZSt20__throw_bad_weak_ptrv, .-_ZSt20__throw_bad_weak_ptrv
	.section	.text._ZN7openpal6LoggerD2Ev,"axG",@progbits,_ZN7openpal6LoggerD5Ev,comdat
	.align 2
	.p2align 4
	.weak	_ZN7openpal6LoggerD2Ev
	.type	_ZN7openpal6LoggerD2Ev, @function
_ZN7openpal6LoggerD2Ev:
.LFB2005:
	.cfi_startproc
	endbr64
	pushq	%r12
	.cfi_def_cfa_offset 16
	.cfi_offset 12, -16
	pushq	%rbp
	.cfi_def_cfa_offset 24
	.cfi_offset 6, -24
	pushq	%rbx
	.cfi_def_cfa_offset 32
	.cfi_offset 3, -32
	movq	24(%rdi), %rbp
	movq	%rdi, %rbx
	testq	%rbp, %rbp
	je	.L208
	movq	_ZL28__gthrw___pthread_key_createPjPFvPvE@GOTPCREL(%rip), %r12
	testq	%r12, %r12
	je	.L209
	movl	$-1, %eax
	lock xaddl	%eax, 8(%rbp)
	cmpl	$1, %eax
	je	.L222
	.p2align 4,,10
	.p2align 3
.L208:
	movq	8(%rbx), %rbp
	testq	%rbp, %rbp
	je	.L206
	movq	_ZL28__gthrw___pthread_key_createPjPFvPvE@GOTPCREL(%rip), %r12
	testq	%r12, %r12
	je	.L216
	movl	$-1, %eax
	lock xaddl	%eax, 8(%rbp)
	cmpl	$1, %eax
	je	.L223
.L206:
	popq	%rbx
	.cfi_remember_state
	.cfi_def_cfa_offset 24
	popq	%rbp
	.cfi_def_cfa_offset 16
	popq	%r12
	.cfi_def_cfa_offset 8
	ret
	.p2align 4,,10
	.p2align 3
.L209:
	.cfi_restore_state
	movl	8(%rbp), %eax
	leal	-1(%rax), %edx
	movl	%edx, 8(%rbp)
	cmpl	$1, %eax
	jne	.L208
.L222:
	movq	0(%rbp), %rax
	movq	%rbp, %rdi
	call	*16(%rax)
	testq	%r12, %r12
	je	.L212
	movl	$-1, %eax
	lock xaddl	%eax, 12(%rbp)
.L213:
	cmpl	$1, %eax
	jne	.L208
	movq	0(%rbp), %rax
	movq	%rbp, %rdi
	call	*24(%rax)
	jmp	.L208
	.p2align 4,,10
	.p2align 3
.L216:
	movl	8(%rbp), %eax
	leal	-1(%rax), %edx
	movl	%edx, 8(%rbp)
	cmpl	$1, %eax
	jne	.L206
.L223:
	movq	0(%rbp), %rax
	movq	%rbp, %rdi
	call	*16(%rax)
	testq	%r12, %r12
	je	.L219
	movl	$-1, %eax
	lock xaddl	%eax, 12(%rbp)
.L220:
	cmpl	$1, %eax
	jne	.L206
	movq	0(%rbp), %rax
	popq	%rbx
	.cfi_remember_state
	.cfi_def_cfa_offset 24
	movq	%rbp, %rdi
	popq	%rbp
	.cfi_def_cfa_offset 16
	popq	%r12
	.cfi_def_cfa_offset 8
	movq	24(%rax), %rax
	jmp	*%rax
	.p2align 4,,10
	.p2align 3
.L212:
	.cfi_restore_state
	movl	12(%rbp), %eax
	leal	-1(%rax), %edx
	movl	%edx, 12(%rbp)
	jmp	.L213
	.p2align 4,,10
	.p2align 3
.L219:
	movl	12(%rbp), %eax
	leal	-1(%rax), %edx
	movl	%edx, 12(%rbp)
	jmp	.L220
	.cfi_endproc
.LFE2005:
	.size	_ZN7openpal6LoggerD2Ev, .-_ZN7openpal6LoggerD2Ev
	.weak	_ZN7openpal6LoggerD1Ev
	.set	_ZN7openpal6LoggerD1Ev,_ZN7openpal6LoggerD2Ev
	.section	.text._ZN4asio28asio_handler_is_continuationEz,"axG",@progbits,_ZN4asio28asio_handler_is_continuationEz,comdat
	.p2align 4
	.weak	_ZN4asio28asio_handler_is_continuationEz
	.type	_ZN4asio28asio_handler_is_continuationEz, @function
_ZN4asio28asio_handler_is_continuationEz:
.LFB2213:
	.cfi_startproc
	endbr64
	xorl	%eax, %eax
	ret
	.cfi_endproc
.LFE2213:
	.size	_ZN4asio28asio_handler_is_continuationEz, .-_ZN4asio28asio_handler_is_continuationEz
	.section	.rodata._ZNSt12system_errorC2ESt10error_codePKc.str1.1,"aMS",@progbits,1
.LC23:
	.string	": "
	.section	.text._ZNSt12system_errorC2ESt10error_codePKc,"axG",@progbits,_ZNSt12system_errorC5ESt10error_codePKc,comdat
	.align 2
	.p2align 4
	.weak	_ZNSt12system_errorC2ESt10error_codePKc
	.type	_ZNSt12system_errorC2ESt10error_codePKc, @function
_ZNSt12system_errorC2ESt10error_codePKc:
.LFB2354:
	.cfi_startproc
	.cfi_personality 0x9b,DW.ref.__gxx_personality_v0
	.cfi_lsda 0x1b,.LLSDA2354
	endbr64
	pushq	%r14
	.cfi_def_cfa_offset 16
	.cfi_offset 14, -16
	movl	%esi, %r8d
	movq	%rcx, %r14
	pushq	%r13
	.cfi_def_cfa_offset 24
	.cfi_offset 13, -24
	movq	%r8, %r13
	pushq	%r12
	.cfi_def_cfa_offset 32
	.cfi_offset 12, -32
	pushq	%rbp
	.cfi_def_cfa_offset 40
	.cfi_offset 6, -40
	movq	%rdx, %rbp
	pushq	%rbx
	.cfi_def_cfa_offset 48
	.cfi_offset 3, -48
	movq	%rdi, %rbx
	subq	$112, %rsp
	.cfi_def_cfa_offset 160
	movq	%fs:40, %rax
	movq	%rax, 104(%rsp)
	xorl	%eax, %eax
	movq	(%rdx), %rax
	leaq	64(%rsp), %r12
	movl	%esi, %edx
	movq	%r12, %rdi
	movq	%rbp, %rsi
.LEHB0:
	call	*32(%rax)
.LEHE0:
	movl	$2, %r8d
	xorl	%edx, %edx
	xorl	%esi, %esi
	leaq	.LC23(%rip), %rcx
	movq	%r12, %rdi
.LEHB1:
	call	_ZNSt7__cxx1112basic_stringIcSt11char_traitsIcESaIcEE10_M_replaceEmmPKcm@PLT
.LEHE1:
	leaq	48(%rsp), %r12
	leaq	16(%rax), %rdx
	movq	%r12, 32(%rsp)
	movq	(%rax), %rcx
	cmpq	%rdx, %rcx
	je	.L245
	movq	%rcx, 32(%rsp)
	movq	16(%rax), %rcx
	movq	%rcx, 48(%rsp)
.L227:
	movq	8(%rax), %rcx
	movb	$0, 16(%rax)
	movq	%r14, %rdi
	movq	%rcx, 40(%rsp)
	movq	%rdx, (%rax)
	movq	$0, 8(%rax)
	call	strlen@PLT
	leaq	32(%rsp), %rdi
	movq	%r14, %rcx
	xorl	%edx, %edx
	movq	%rax, %r8
	xorl	%esi, %esi
.LEHB2:
	call	_ZNSt7__cxx1112basic_stringIcSt11char_traitsIcESaIcEE10_M_replaceEmmPKcm@PLT
.LEHE2:
	leaq	16(%rsp), %r14
	leaq	16(%rax), %rdx
	movq	%r14, (%rsp)
	movq	(%rax), %rcx
	cmpq	%rdx, %rcx
	je	.L246
	movq	%rcx, (%rsp)
	movq	16(%rax), %rcx
	movq	%rcx, 16(%rsp)
.L229:
	movq	8(%rax), %rcx
	movb	$0, 16(%rax)
	movq	%rsp, %rsi
	movq	%rbx, %rdi
	movq	%rcx, 8(%rsp)
	movq	%rdx, (%rax)
	movq	$0, 8(%rax)
.LEHB3:
	call	_ZNSt13runtime_errorC2ERKNSt7__cxx1112basic_stringIcSt11char_traitsIcESaIcEEE@PLT
.LEHE3:
	movq	(%rsp), %rdi
	cmpq	%r14, %rdi
	je	.L230
	call	_ZdlPv@PLT
.L230:
	movq	32(%rsp), %rdi
	cmpq	%r12, %rdi
	je	.L231
	call	_ZdlPv@PLT
.L231:
	movq	64(%rsp), %rdi
	leaq	80(%rsp), %rax
	cmpq	%rax, %rdi
	je	.L232
	call	_ZdlPv@PLT
.L232:
	movq	_ZTVSt12system_error@GOTPCREL(%rip), %rax
	movq	%r13, 16(%rbx)
	movq	%rbp, 24(%rbx)
	addq	$16, %rax
	movq	%rax, (%rbx)
	movq	104(%rsp), %rax
	xorq	%fs:40, %rax
	jne	.L247
	addq	$112, %rsp
	.cfi_remember_state
	.cfi_def_cfa_offset 48
	popq	%rbx
	.cfi_def_cfa_offset 40
	popq	%rbp
	.cfi_def_cfa_offset 32
	popq	%r12
	.cfi_def_cfa_offset 24
	popq	%r13
	.cfi_def_cfa_offset 16
	popq	%r14
	.cfi_def_cfa_offset 8
	ret
	.p2align 4,,10
	.p2align 3
.L245:
	.cfi_restore_state
	movdqu	16(%rax), %xmm0
	movaps	%xmm0, 48(%rsp)
	jmp	.L227
	.p2align 4,,10
	.p2align 3
.L246:
	movdqu	16(%rax), %xmm1
	movaps	%xmm1, 16(%rsp)
	jmp	.L229
.L247:
	call	__stack_chk_fail@PLT
.L242:
	endbr64
	movq	%rax, %rbp
	jmp	.L233
.L240:
	endbr64
	movq	%rax, %rbp
	jmp	.L237
.L241:
	endbr64
	movq	%rax, %rbp
	jmp	.L235
.L233:
	movq	(%rsp), %rdi
	cmpq	%r14, %rdi
	je	.L235
	call	_ZdlPv@PLT
.L235:
	movq	32(%rsp), %rdi
	cmpq	%r12, %rdi
	je	.L237
	call	_ZdlPv@PLT
.L237:
	movq	64(%rsp), %rdi
	leaq	80(%rsp), %rax
	cmpq	%rax, %rdi
	je	.L238
	call	_ZdlPv@PLT
.L238:
	movq	%rbp, %rdi
.LEHB4:
	call	_Unwind_Resume@PLT
.LEHE4:
	.cfi_endproc
.LFE2354:
	.globl	__gxx_personality_v0
	.section	.gcc_except_table._ZNSt12system_errorC2ESt10error_codePKc,"aG",@progbits,_ZNSt12system_errorC5ESt10error_codePKc,comdat
.LLSDA2354:
	.byte	0xff
	.byte	0xff
	.byte	0x1
	.uleb128 .LLSDACSE2354-.LLSDACSB2354
.LLSDACSB2354:
	.uleb128 .LEHB0-.LFB2354
	.uleb128 .LEHE0-.LEHB0
	.uleb128 0
	.uleb128 0
	.uleb128 .LEHB1-.LFB2354
	.uleb128 .LEHE1-.LEHB1
	.uleb128 .L240-.LFB2354
	.uleb128 0
	.uleb128 .LEHB2-.LFB2354
	.uleb128 .LEHE2-.LEHB2
	.uleb128 .L241-.LFB2354
	.uleb128 0
	.uleb128 .LEHB3-.LFB2354
	.uleb128 .LEHE3-.LEHB3
	.uleb128 .L242-.LFB2354
	.uleb128 0
	.uleb128 .LEHB4-.LFB2354
	.uleb128 .LEHE4-.LEHB4
	.uleb128 0
	.uleb128 0
.LLSDACSE2354:
	.section	.text._ZNSt12system_errorC2ESt10error_codePKc,"axG",@progbits,_ZNSt12system_errorC5ESt10error_codePKc,comdat
	.size	_ZNSt12system_errorC2ESt10error_codePKc, .-_ZNSt12system_errorC2ESt10error_codePKc
	.weak	_ZNSt12system_errorC1ESt10error_codePKc
	.set	_ZNSt12system_errorC1ESt10error_codePKc,_ZNSt12system_errorC2ESt10error_codePKc
	.section	.text._ZN4asio15system_categoryEv,"axG",@progbits,_ZN4asio15system_categoryEv,comdat
	.p2align 4
	.weak	_ZN4asio15system_categoryEv
	.type	_ZN4asio15system_categoryEv, @function
_ZN4asio15system_categoryEv:
.LFB2417:
	.cfi_startproc
	endbr64
	pushq	%r12
	.cfi_def_cfa_offset 16
	.cfi_offset 12, -16
	pushq	%rbp
	.cfi_def_cfa_offset 24
	.cfi_offset 6, -24
	subq	$8, %rsp
	.cfi_def_cfa_offset 32
	movq	_ZGVZN4asio15system_categoryEvE8instance@GOTPCREL(%rip), %rbp
	movzbl	0(%rbp), %eax
	testb	%al, %al
	je	.L249
.L256:
	movq	_ZZN4asio15system_categoryEvE8instance@GOTPCREL(%rip), %r12
	addq	$8, %rsp
	.cfi_remember_state
	.cfi_def_cfa_offset 24
	popq	%rbp
	.cfi_def_cfa_offset 16
	movq	%r12, %rax
	popq	%r12
	.cfi_def_cfa_offset 8
	ret
	.p2align 4,,10
	.p2align 3
.L249:
	.cfi_restore_state
	movq	%rbp, %rdi
	call	__cxa_guard_acquire@PLT
	testl	%eax, %eax
	je	.L256
	movq	_ZZN4asio15system_categoryEvE8instance@GOTPCREL(%rip), %r12
	movq	_ZN4asio6detail15system_categoryD1Ev@GOTPCREL(%rip), %rdi
	leaq	__dso_handle(%rip), %rdx
	movq	%r12, %rsi
	call	__cxa_atexit@PLT
	movq	%rbp, %rdi
	call	__cxa_guard_release@PLT
	addq	$8, %rsp
	.cfi_def_cfa_offset 24
	movq	%r12, %rax
	popq	%rbp
	.cfi_def_cfa_offset 16
	popq	%r12
	.cfi_def_cfa_offset 8
	ret
	.cfi_endproc
.LFE2417:
	.size	_ZN4asio15system_categoryEv, .-_ZN4asio15system_categoryEv
	.section	.text._ZN8asiodnp315MasterTCPServerD0Ev,"axG",@progbits,_ZN8asiodnp315MasterTCPServerD5Ev,comdat
	.align 2
	.p2align 4
	.weak	_ZN8asiodnp315MasterTCPServerD0Ev
	.type	_ZN8asiodnp315MasterTCPServerD0Ev, @function
_ZN8asiodnp315MasterTCPServerD0Ev:
.LFB10954:
	.cfi_startproc
	.cfi_personality 0x9b,DW.ref.__gxx_personality_v0
	.cfi_lsda 0x1b,.LLSDA10954
	endbr64
	pushq	%r15
	.cfi_def_cfa_offset 16
	.cfi_offset 15, -16
	pushq	%r14
	.cfi_def_cfa_offset 24
	.cfi_offset 14, -24
	pushq	%r13
	.cfi_def_cfa_offset 32
	.cfi_offset 13, -32
	pushq	%r12
	.cfi_def_cfa_offset 40
	.cfi_offset 12, -40
	pushq	%rbp
	.cfi_def_cfa_offset 48
	.cfi_offset 6, -48
	movq	%rdi, %rbp
	pushq	%rbx
	.cfi_def_cfa_offset 56
	.cfi_offset 3, -56
	subq	$72, %rsp
	.cfi_def_cfa_offset 128
	movq	232(%rdi), %r12
	movq	%fs:40, %rax
	movq	%rax, 56(%rsp)
	xorl	%eax, %eax
	movq	_ZTVN8asiodnp315MasterTCPServerE@GOTPCREL(%rip), %rax
	addq	$16, %rax
	movq	%rax, (%rdi)
	testq	%r12, %r12
	je	.L259
	movq	_ZL28__gthrw___pthread_key_createPjPFvPvE@GOTPCREL(%rip), %rbx
	testq	%rbx, %rbx
	je	.L260
	movl	$-1, %eax
	lock xaddl	%eax, 8(%r12)
	cmpl	$1, %eax
	je	.L529
	.p2align 4,,10
	.p2align 3
.L259:
	movq	216(%rbp), %r12
	testq	%r12, %r12
	je	.L266
	movq	_ZL28__gthrw___pthread_key_createPjPFvPvE@GOTPCREL(%rip), %rbx
	testq	%rbx, %rbx
	je	.L267
	movl	$-1, %eax
	lock xaddl	%eax, 8(%r12)
	cmpl	$1, %eax
	je	.L530
	.p2align 4,,10
	.p2align 3
.L266:
	movq	_ZTVN7asiopal9TCPServerE@GOTPCREL(%rip), %rax
	movl	136(%rbp), %r15d
	addq	$16, %rax
	movq	%rax, 0(%rbp)
	cmpl	$-1, %r15d
	jne	.L531
.L272:
	movl	104(%rbp), %r12d
	cmpl	$-1, %r12d
	jne	.L532
.L319:
	movq	64(%rbp), %r12
	testq	%r12, %r12
	je	.L367
	movq	_ZL28__gthrw___pthread_key_createPjPFvPvE@GOTPCREL(%rip), %rbx
	testq	%rbx, %rbx
	je	.L368
	movl	$-1, %eax
	lock xaddl	%eax, 8(%r12)
	cmpl	$1, %eax
	je	.L533
	.p2align 4,,10
	.p2align 3
.L367:
	movq	48(%rbp), %r12
	testq	%r12, %r12
	je	.L374
	movq	_ZL28__gthrw___pthread_key_createPjPFvPvE@GOTPCREL(%rip), %rbx
	testq	%rbx, %rbx
	je	.L375
	movl	$-1, %eax
	lock xaddl	%eax, 8(%r12)
	cmpl	$1, %eax
	je	.L534
	.p2align 4,,10
	.p2align 3
.L374:
	movq	32(%rbp), %r12
	testq	%r12, %r12
	je	.L381
	movq	_ZL28__gthrw___pthread_key_createPjPFvPvE@GOTPCREL(%rip), %rbx
	testq	%rbx, %rbx
	je	.L382
	movl	$-1, %eax
	lock xaddl	%eax, 8(%r12)
	cmpl	$1, %eax
	je	.L535
	.p2align 4,,10
	.p2align 3
.L381:
	movq	16(%rbp), %rdi
	testq	%rdi, %rdi
	je	.L388
	cmpq	$0, _ZL28__gthrw___pthread_key_createPjPFvPvE@GOTPCREL(%rip)
	je	.L389
	movl	$-1, %eax
	lock xaddl	%eax, 12(%rdi)
	cmpl	$1, %eax
	je	.L536
	.p2align 4,,10
	.p2align 3
.L388:
	movl	$240, %esi
	movq	%rbp, %rdi
	call	_ZdlPvm@PLT
	movq	56(%rsp), %rax
	xorq	%fs:40, %rax
	jne	.L537
	addq	$72, %rsp
	.cfi_remember_state
	.cfi_def_cfa_offset 56
	popq	%rbx
	.cfi_def_cfa_offset 48
	popq	%rbp
	.cfi_def_cfa_offset 40
	popq	%r12
	.cfi_def_cfa_offset 32
	popq	%r13
	.cfi_def_cfa_offset 24
	popq	%r14
	.cfi_def_cfa_offset 16
	popq	%r15
	.cfi_def_cfa_offset 8
	ret
	.p2align 4,,10
	.p2align 3
.L260:
	.cfi_restore_state
	movl	8(%r12), %eax
	leal	-1(%rax), %edx
	movl	%edx, 8(%r12)
	cmpl	$1, %eax
	jne	.L259
.L529:
	movq	(%r12), %rax
	movq	%r12, %rdi
	call	*16(%rax)
	testq	%rbx, %rbx
	je	.L263
	movl	$-1, %eax
	lock xaddl	%eax, 12(%r12)
.L264:
	cmpl	$1, %eax
	jne	.L259
	movq	(%r12), %rax
	movq	%r12, %rdi
	call	*24(%rax)
	jmp	.L259
	.p2align 4,,10
	.p2align 3
.L382:
	movl	8(%r12), %eax
	leal	-1(%rax), %edx
	movl	%edx, 8(%r12)
	cmpl	$1, %eax
	jne	.L381
.L535:
	movq	(%r12), %rax
	movq	%r12, %rdi
	call	*16(%rax)
	testq	%rbx, %rbx
	je	.L385
	movl	$-1, %eax
	lock xaddl	%eax, 12(%r12)
.L386:
	cmpl	$1, %eax
	jne	.L381
	movq	(%r12), %rax
	movq	%r12, %rdi
	call	*24(%rax)
	jmp	.L381
	.p2align 4,,10
	.p2align 3
.L375:
	movl	8(%r12), %eax
	leal	-1(%rax), %edx
	movl	%edx, 8(%r12)
	cmpl	$1, %eax
	jne	.L374
.L534:
	movq	(%r12), %rax
	movq	%r12, %rdi
	call	*16(%rax)
	testq	%rbx, %rbx
	je	.L378
	movl	$-1, %eax
	lock xaddl	%eax, 12(%r12)
.L379:
	cmpl	$1, %eax
	jne	.L374
	movq	(%r12), %rax
	movq	%r12, %rdi
	call	*24(%rax)
	jmp	.L374
	.p2align 4,,10
	.p2align 3
.L389:
	movl	12(%rdi), %eax
	leal	-1(%rax), %edx
	movl	%edx, 12(%rdi)
	cmpl	$1, %eax
	jne	.L388
.L536:
	movq	(%rdi), %rax
	call	*24(%rax)
	jmp	.L388
	.p2align 4,,10
	.p2align 3
.L368:
	movl	8(%r12), %eax
	leal	-1(%rax), %edx
	movl	%edx, 8(%r12)
	cmpl	$1, %eax
	jne	.L367
.L533:
	movq	(%r12), %rax
	movq	%r12, %rdi
	call	*16(%rax)
	testq	%rbx, %rbx
	je	.L371
	movl	$-1, %eax
	lock xaddl	%eax, 12(%r12)
.L372:
	cmpl	$1, %eax
	jne	.L367
	movq	(%r12), %rax
	movq	%r12, %rdi
	call	*24(%rax)
	jmp	.L367
	.p2align 4,,10
	.p2align 3
.L267:
	movl	8(%r12), %eax
	leal	-1(%rax), %edx
	movl	%edx, 8(%r12)
	cmpl	$1, %eax
	jne	.L266
.L530:
	movq	(%r12), %rax
	movq	%r12, %rdi
	call	*16(%rax)
	testq	%rbx, %rbx
	je	.L270
	movl	$-1, %eax
	lock xaddl	%eax, 12(%r12)
.L271:
	cmpl	$1, %eax
	jne	.L266
	movq	(%r12), %rax
	movq	%r12, %rdi
	call	*24(%rax)
	jmp	.L266
	.p2align 4,,10
	.p2align 3
.L532:
	movq	112(%rbp), %r13
	testq	%r13, %r13
	je	.L349
	movq	128(%rbp), %rax
	movzbl	108(%rbp), %ebx
	movq	40(%rax), %rax
	movq	%rax, 16(%rsp)
	leaq	40(%r13), %rax
	movq	%rax, %rdi
	movq	%rax, 24(%rsp)
	call	pthread_mutex_lock@PLT
	movq	112(%rbp), %rdi
	cmpb	$0, 144(%rdi)
	jne	.L321
	andl	$64, %ebx
	jne	.L538
.L322:
	movq	$0, 8(%rsp)
	movl	$96, %r13d
	xorl	%r15d, %r15d
.L332:
	movq	(%rdi,%r13), %rbx
	testq	%rbx, %rbx
	je	.L323
	movq	_ZGVZN4asio15system_categoryEvE8instance@GOTPCREL(%rip), %r14
	movq	_ZZN4asio15system_categoryEvE8instance@GOTPCREL(%rip), %r12
	movzbl	(%r14), %eax
	testb	%al, %al
	je	.L539
	.p2align 4,,10
	.p2align 3
.L326:
	movq	112(%rbp), %rdi
	movl	$125, 24(%rbx)
	movq	%r12, 32(%rbx)
	leaq	(%rdi,%r13), %rsi
	movq	(%rsi), %rdx
	testq	%rdx, %rdx
	je	.L328
	movq	(%rdx), %rax
	movq	%rax, (%rsi)
	testq	%rax, %rax
	je	.L540
	movq	$0, (%rdx)
	movq	$0, (%rbx)
	testq	%r15, %r15
	je	.L541
.L392:
	movq	%rbx, (%r15)
	testq	%rax, %rax
	je	.L330
.L331:
	movq	%rbx, %r15
	movq	%rax, %rbx
	movzbl	(%r14), %eax
	testb	%al, %al
	jne	.L326
.L539:
	movq	%r14, %rdi
	call	__cxa_guard_acquire@PLT
	testl	%eax, %eax
	je	.L326
	movq	_ZN4asio6detail15system_categoryD1Ev@GOTPCREL(%rip), %rdi
	leaq	__dso_handle(%rip), %rdx
	movq	%r12, %rsi
	call	__cxa_atexit@PLT
	movq	%r14, %rdi
	call	__cxa_guard_release@PLT
	jmp	.L326
	.p2align 4,,10
	.p2align 3
.L531:
	movq	144(%rbp), %r13
	testq	%r13, %r13
	je	.L302
	movq	160(%rbp), %rax
	movzbl	140(%rbp), %ebx
	movq	40(%rax), %rax
	movq	%rax, 16(%rsp)
	leaq	40(%r13), %rax
	movq	%rax, %rdi
	movq	%rax, 24(%rsp)
	call	pthread_mutex_lock@PLT
	movq	144(%rbp), %rdi
	cmpb	$0, 144(%rdi)
	jne	.L274
	andl	$64, %ebx
	jne	.L542
.L275:
	movq	$0, 8(%rsp)
	movl	$96, %r13d
	xorl	%r15d, %r15d
.L285:
	movq	(%rdi,%r13), %rbx
	testq	%rbx, %rbx
	je	.L276
	movq	_ZGVZN4asio15system_categoryEvE8instance@GOTPCREL(%rip), %r14
	movq	_ZZN4asio15system_categoryEvE8instance@GOTPCREL(%rip), %r12
	movzbl	(%r14), %eax
	testb	%al, %al
	je	.L543
	.p2align 4,,10
	.p2align 3
.L279:
	movq	144(%rbp), %rdi
	movl	$125, 24(%rbx)
	movq	%r12, 32(%rbx)
	leaq	(%rdi,%r13), %rsi
	movq	(%rsi), %rdx
	testq	%rdx, %rdx
	je	.L281
	movq	(%rdx), %rax
	movq	%rax, (%rsi)
	testq	%rax, %rax
	je	.L544
	movq	$0, (%rdx)
	movq	$0, (%rbx)
	testq	%r15, %r15
	je	.L545
.L393:
	movq	%rbx, (%r15)
	testq	%rax, %rax
	je	.L283
.L284:
	movq	%rbx, %r15
	movq	%rax, %rbx
	movzbl	(%r14), %eax
	testb	%al, %al
	jne	.L279
.L543:
	movq	%r14, %rdi
	call	__cxa_guard_acquire@PLT
	testl	%eax, %eax
	je	.L279
	movq	_ZN4asio6detail15system_categoryD1Ev@GOTPCREL(%rip), %rdi
	leaq	__dso_handle(%rip), %rdx
	movq	%r12, %rsi
	call	__cxa_atexit@PLT
	movq	%r14, %rdi
	call	__cxa_guard_release@PLT
	jmp	.L279
	.p2align 4,,10
	.p2align 3
.L321:
	movq	24(%rsp), %rdi
	call	pthread_mutex_unlock@PLT
.L519:
	movl	104(%rbp), %r12d
	cmpl	$-1, %r12d
	je	.L319
.L349:
	call	__errno_location@PLT
	movzbl	108(%rbp), %r13d
	movq	%rax, %rbx
	testb	$8, %r13b
	jne	.L514
	movq	_ZGVZN4asio15system_categoryEvE8instance@GOTPCREL(%rip), %r14
.L351:
	movl	$0, (%rbx)
	movl	%r12d, %edi
	call	close@PLT
	movl	%eax, %r13d
	movzbl	(%r14), %eax
	testb	%al, %al
	je	.L546
.L356:
	testl	%r13d, %r13d
	je	.L319
	movl	(%rbx), %r13d
	movzbl	(%r14), %eax
	testb	%al, %al
	je	.L547
.L360:
	cmpl	$11, %r13d
	je	.L362
.L528:
	movzbl	(%r14), %eax
	testb	%al, %al
	jne	.L319
	movq	%r14, %rdi
	call	__cxa_guard_acquire@PLT
	testl	%eax, %eax
	je	.L319
	movq	_ZZN4asio15system_categoryEvE8instance@GOTPCREL(%rip), %rsi
	movq	_ZN4asio6detail15system_categoryD1Ev@GOTPCREL(%rip), %rdi
	leaq	__dso_handle(%rip), %rdx
	call	__cxa_atexit@PLT
	movq	%r14, %rdi
	call	__cxa_guard_release@PLT
	jmp	.L319
	.p2align 4,,10
	.p2align 3
.L274:
	movq	24(%rsp), %rdi
	call	pthread_mutex_unlock@PLT
.L517:
	movl	136(%rbp), %r15d
	cmpl	$-1, %r15d
	je	.L272
.L302:
	call	__errno_location@PLT
	movzbl	140(%rbp), %r12d
	movq	%rax, %rbx
	testb	$8, %r12b
	jne	.L513
	movq	_ZGVZN4asio15system_categoryEvE8instance@GOTPCREL(%rip), %r14
.L304:
	movl	$0, (%rbx)
	movl	%r15d, %edi
	call	close@PLT
	movl	%eax, %r13d
	movzbl	(%r14), %eax
	testb	%al, %al
	je	.L548
.L309:
	testl	%r13d, %r13d
	je	.L272
	movl	(%rbx), %r13d
	movzbl	(%r14), %eax
	testb	%al, %al
	je	.L549
.L313:
	cmpl	$11, %r13d
	je	.L315
.L526:
	movzbl	(%r14), %eax
	testb	%al, %al
	jne	.L272
	movq	%r14, %rdi
	call	__cxa_guard_acquire@PLT
	testl	%eax, %eax
	je	.L272
	movq	_ZZN4asio15system_categoryEvE8instance@GOTPCREL(%rip), %r12
	movq	_ZN4asio6detail15system_categoryD1Ev@GOTPCREL(%rip), %rdi
	leaq	__dso_handle(%rip), %rdx
	movq	%r12, %rsi
	call	__cxa_atexit@PLT
	movq	%r14, %rdi
	call	__cxa_guard_release@PLT
	jmp	.L272
	.p2align 4,,10
	.p2align 3
.L281:
	movq	$0, (%rbx)
	testq	%r15, %r15
	je	.L398
	movq	%rbx, (%r15)
.L283:
	movq	%rbx, %r15
.L276:
	addq	$16, %r13
	cmpq	$144, %r13
	jne	.L285
	movl	$-1, 88(%rdi)
	movb	$1, 144(%rdi)
	movq	24(%rsp), %rdi
	call	pthread_mutex_unlock@PLT
	movq	16(%rsp), %rbx
	movq	144(%rbp), %r12
	leaq	120(%rbx), %r13
	movq	%r13, %rdi
	call	pthread_mutex_lock@PLT
	cmpq	160(%rbx), %r12
	je	.L550
.L286:
	movq	32(%r12), %rdx
	movq	24(%r12), %rax
	testq	%rdx, %rdx
	je	.L287
	movq	%rax, 24(%rdx)
	movq	24(%r12), %rax
.L287:
	testq	%rax, %rax
	je	.L288
	movq	32(%r12), %rdx
	movq	%rdx, 32(%rax)
.L288:
	movq	16(%rsp), %rbx
	movq	%r13, %rdi
	movq	168(%rbx), %rax
	movq	$0, 32(%r12)
	movq	%rax, 24(%r12)
	movq	%r12, 168(%rbx)
	call	pthread_mutex_unlock@PLT
	cmpq	$0, 8(%rsp)
	movq	$0, 144(%rbp)
	je	.L517
	movq	40(%rbx), %r12
	cmpb	$0, 40(%r12)
	je	.L290
	data16	leaq	_ZN4asio6detail15keyword_tss_ptrINS0_10call_stackINS0_15task_io_serviceENS0_27task_io_service_thread_infoEE7contextEE6value_E@tlsgd(%rip), %rdi
	.value	0x6666
	rex64
	call	__tls_get_addr@PLT
	movq	(%rax), %rax
	testq	%rax, %rax
	jne	.L293
	jmp	.L290
	.p2align 4,,10
	.p2align 3
.L291:
	movq	16(%rax), %rax
	testq	%rax, %rax
	je	.L290
.L293:
	cmpq	(%rax), %r12
	jne	.L291
	movq	8(%rax), %rax
	testq	%rax, %rax
	je	.L290
	movq	16(%rax), %rdx
	movq	8(%rsp), %rcx
	testq	%rdx, %rdx
	je	.L294
	movq	%rcx, (%rdx)
.L295:
	movq	%r15, 16(%rax)
	jmp	.L517
	.p2align 4,,10
	.p2align 3
.L328:
	movq	$0, (%rbx)
	testq	%r15, %r15
	je	.L397
	movq	%rbx, (%r15)
.L330:
	movq	%rbx, %r15
.L323:
	addq	$16, %r13
	cmpq	$144, %r13
	jne	.L332
	movl	$-1, 88(%rdi)
	movb	$1, 144(%rdi)
	movq	24(%rsp), %rdi
	call	pthread_mutex_unlock@PLT
	movq	16(%rsp), %rbx
	movq	112(%rbp), %r12
	leaq	120(%rbx), %r13
	movq	%r13, %rdi
	call	pthread_mutex_lock@PLT
	cmpq	160(%rbx), %r12
	je	.L551
.L333:
	movq	32(%r12), %rdx
	movq	24(%r12), %rax
	testq	%rdx, %rdx
	je	.L334
	movq	%rax, 24(%rdx)
	movq	24(%r12), %rax
.L334:
	testq	%rax, %rax
	je	.L335
	movq	32(%r12), %rdx
	movq	%rdx, 32(%rax)
.L335:
	movq	16(%rsp), %rbx
	movq	%r13, %rdi
	movq	168(%rbx), %rax
	movq	$0, 32(%r12)
	movq	%rax, 24(%r12)
	movq	%r12, 168(%rbx)
	call	pthread_mutex_unlock@PLT
	cmpq	$0, 8(%rsp)
	movq	$0, 112(%rbp)
	je	.L519
	movq	40(%rbx), %r12
	cmpb	$0, 40(%r12)
	je	.L337
	data16	leaq	_ZN4asio6detail15keyword_tss_ptrINS0_10call_stackINS0_15task_io_serviceENS0_27task_io_service_thread_infoEE7contextEE6value_E@tlsgd(%rip), %rdi
	.value	0x6666
	rex64
	call	__tls_get_addr@PLT
	movq	(%rax), %rax
	testq	%rax, %rax
	jne	.L340
	jmp	.L337
	.p2align 4,,10
	.p2align 3
.L338:
	movq	16(%rax), %rax
	testq	%rax, %rax
	je	.L337
.L340:
	cmpq	(%rax), %r12
	jne	.L338
	movq	8(%rax), %rax
	testq	%rax, %rax
	je	.L337
	movq	16(%rax), %rdx
	movq	8(%rsp), %rcx
	testq	%rdx, %rdx
	je	.L341
	movq	%rcx, (%rdx)
.L342:
	movq	%r15, 16(%rax)
	jmp	.L519
	.p2align 4,,10
	.p2align 3
.L544:
	movq	$0, 8(%rsi)
	movq	$0, (%rdx)
	movq	$0, (%rbx)
	testq	%r15, %r15
	jne	.L393
	.p2align 4,,10
	.p2align 3
.L398:
	movq	%rbx, 8(%rsp)
	jmp	.L283
	.p2align 4,,10
	.p2align 3
.L540:
	movq	$0, 8(%rsi)
	movq	$0, (%rdx)
	movq	$0, (%rbx)
	testq	%r15, %r15
	jne	.L392
	.p2align 4,,10
	.p2align 3
.L397:
	movq	%rbx, 8(%rsp)
	jmp	.L330
	.p2align 4,,10
	.p2align 3
.L541:
	movq	%rbx, 8(%rsp)
	jmp	.L331
	.p2align 4,,10
	.p2align 3
.L545:
	movq	%rbx, 8(%rsp)
	jmp	.L284
	.p2align 4,,10
	.p2align 3
.L546:
	movq	%r14, %rdi
	call	__cxa_guard_acquire@PLT
	testl	%eax, %eax
	je	.L356
	movq	_ZZN4asio15system_categoryEvE8instance@GOTPCREL(%rip), %rsi
	movq	_ZN4asio6detail15system_categoryD1Ev@GOTPCREL(%rip), %rdi
	leaq	__dso_handle(%rip), %rdx
	call	__cxa_atexit@PLT
	movq	%r14, %rdi
	call	__cxa_guard_release@PLT
	jmp	.L356
	.p2align 4,,10
	.p2align 3
.L514:
	orl	$8, %r13d
	leaq	44(%rsp), %rcx
	movl	$8, %r8d
	movl	%r12d, %edi
	movb	%r13b, 108(%rbp)
	movl	$13, %edx
	movl	$1, %esi
	movl	$0, (%rax)
	movq	$0, 44(%rsp)
	call	setsockopt@PLT
	movq	_ZGVZN4asio15system_categoryEvE8instance@GOTPCREL(%rip), %r14
	movzbl	(%r14), %eax
	testb	%al, %al
	jne	.L351
	movq	%r14, %rdi
	call	__cxa_guard_acquire@PLT
	testl	%eax, %eax
	je	.L351
	movq	_ZZN4asio15system_categoryEvE8instance@GOTPCREL(%rip), %rsi
	movq	_ZN4asio6detail15system_categoryD1Ev@GOTPCREL(%rip), %rdi
	leaq	__dso_handle(%rip), %rdx
	call	__cxa_atexit@PLT
	movq	%r14, %rdi
	call	__cxa_guard_release@PLT
	jmp	.L351
	.p2align 4,,10
	.p2align 3
.L513:
	orl	$8, %r12d
	leaq	44(%rsp), %rcx
	movl	$8, %r8d
	movl	%r15d, %edi
	movb	%r12b, 140(%rbp)
	movl	$13, %edx
	movl	$1, %esi
	movl	$0, (%rax)
	movq	$0, 44(%rsp)
	call	setsockopt@PLT
	movq	_ZGVZN4asio15system_categoryEvE8instance@GOTPCREL(%rip), %r14
	movzbl	(%r14), %eax
	testb	%al, %al
	jne	.L304
	movq	%r14, %rdi
	call	__cxa_guard_acquire@PLT
	testl	%eax, %eax
	je	.L304
	movq	_ZZN4asio15system_categoryEvE8instance@GOTPCREL(%rip), %r12
	movq	_ZN4asio6detail15system_categoryD1Ev@GOTPCREL(%rip), %rdi
	leaq	__dso_handle(%rip), %rdx
	movq	%r12, %rsi
	call	__cxa_atexit@PLT
	movq	%r14, %rdi
	call	__cxa_guard_release@PLT
	jmp	.L304
	.p2align 4,,10
	.p2align 3
.L548:
	movq	%r14, %rdi
	call	__cxa_guard_acquire@PLT
	testl	%eax, %eax
	je	.L309
	movq	_ZZN4asio15system_categoryEvE8instance@GOTPCREL(%rip), %r12
	movq	_ZN4asio6detail15system_categoryD1Ev@GOTPCREL(%rip), %rdi
	leaq	__dso_handle(%rip), %rdx
	movq	%r12, %rsi
	call	__cxa_atexit@PLT
	movq	%r14, %rdi
	call	__cxa_guard_release@PLT
	jmp	.L309
	.p2align 4,,10
	.p2align 3
.L371:
	movl	12(%r12), %eax
	leal	-1(%rax), %edx
	movl	%edx, 12(%r12)
	jmp	.L372
	.p2align 4,,10
	.p2align 3
.L270:
	movl	12(%r12), %eax
	leal	-1(%rax), %edx
	movl	%edx, 12(%r12)
	jmp	.L271
	.p2align 4,,10
	.p2align 3
.L378:
	movl	12(%r12), %eax
	leal	-1(%rax), %edx
	movl	%edx, 12(%r12)
	jmp	.L379
	.p2align 4,,10
	.p2align 3
.L263:
	movl	12(%r12), %eax
	leal	-1(%rax), %edx
	movl	%edx, 12(%r12)
	jmp	.L264
	.p2align 4,,10
	.p2align 3
.L385:
	movl	12(%r12), %eax
	leal	-1(%rax), %edx
	movl	%edx, 12(%r12)
	jmp	.L386
	.p2align 4,,10
	.p2align 3
.L290:
	leaq	48(%r12), %r13
	movq	%r13, %rdi
	call	pthread_mutex_lock@PLT
	movq	200(%r12), %rax
	testq	%rax, %rax
	je	.L297
	movq	8(%rsp), %rcx
	movq	%rcx, (%rax)
.L298:
	movq	136(%r12), %rax
	movq	%r15, 200(%r12)
	orq	$1, %rax
	movq	%rax, 136(%r12)
	cmpq	$1, %rax
	je	.L299
	movq	%r13, %rdi
	call	pthread_mutex_unlock@PLT
	leaq	88(%r12), %rdi
	call	pthread_cond_signal@PLT
	jmp	.L517
	.p2align 4,,10
	.p2align 3
.L299:
	cmpb	$0, 176(%r12)
	jne	.L301
	movq	144(%r12), %rax
	testq	%rax, %rax
	je	.L301
	leaq	88(%rax), %rdx
	leaq	44(%rsp), %rcx
	movl	$3, %esi
	movb	$1, 176(%r12)
	movl	$-2147483639, 44(%rsp)
	movq	%rdx, 48(%rsp)
	movl	88(%rax), %edx
	movl	96(%rax), %edi
	call	epoll_ctl@PLT
.L301:
	movq	%r13, %rdi
	call	pthread_mutex_unlock@PLT
	jmp	.L517
	.p2align 4,,10
	.p2align 3
.L337:
	leaq	48(%r12), %r13
	movq	%r13, %rdi
	call	pthread_mutex_lock@PLT
	movq	200(%r12), %rax
	testq	%rax, %rax
	je	.L344
	movq	8(%rsp), %rcx
	movq	%rcx, (%rax)
.L345:
	movq	136(%r12), %rax
	movq	%r15, 200(%r12)
	orq	$1, %rax
	movq	%rax, 136(%r12)
	cmpq	$1, %rax
	je	.L346
	movq	%r13, %rdi
	call	pthread_mutex_unlock@PLT
	leaq	88(%r12), %rdi
	call	pthread_cond_signal@PLT
	jmp	.L519
	.p2align 4,,10
	.p2align 3
.L346:
	cmpb	$0, 176(%r12)
	jne	.L348
	movq	144(%r12), %rax
	testq	%rax, %rax
	je	.L348
	leaq	88(%rax), %rdx
	leaq	44(%rsp), %rcx
	movl	$3, %esi
	movb	$1, 176(%r12)
	movl	$-2147483639, 44(%rsp)
	movq	%rdx, 48(%rsp)
	movl	88(%rax), %edx
	movl	96(%rax), %edi
	call	epoll_ctl@PLT
.L348:
	movq	%r13, %rdi
	call	pthread_mutex_unlock@PLT
	jmp	.L519
	.p2align 4,,10
	.p2align 3
.L542:
	movq	16(%rsp), %rax
	movl	$0, 44(%rsp)
	leaq	44(%rsp), %rcx
	movl	%r15d, %edx
	movq	$0, 48(%rsp)
	movl	$2, %esi
	movl	96(%rax), %edi
	call	epoll_ctl@PLT
	movq	144(%rbp), %rdi
	jmp	.L275
	.p2align 4,,10
	.p2align 3
.L538:
	movq	16(%rsp), %rax
	movl	$0, 44(%rsp)
	leaq	44(%rsp), %rcx
	movl	%r12d, %edx
	movq	$0, 48(%rsp)
	movl	$2, %esi
	movl	96(%rax), %edi
	call	epoll_ctl@PLT
	movq	112(%rbp), %rdi
	jmp	.L322
	.p2align 4,,10
	.p2align 3
.L551:
	movq	24(%r12), %rax
	movq	16(%rsp), %rcx
	movq	%rax, 160(%rcx)
	jmp	.L333
	.p2align 4,,10
	.p2align 3
.L550:
	movq	24(%r12), %rax
	movq	16(%rsp), %rcx
	movq	%rax, 160(%rcx)
	jmp	.L286
	.p2align 4,,10
	.p2align 3
.L547:
	movq	%r14, %rdi
	call	__cxa_guard_acquire@PLT
	testl	%eax, %eax
	je	.L360
	movq	_ZZN4asio15system_categoryEvE8instance@GOTPCREL(%rip), %rsi
	movq	_ZN4asio6detail15system_categoryD1Ev@GOTPCREL(%rip), %rdi
	leaq	__dso_handle(%rip), %rdx
	call	__cxa_atexit@PLT
	movq	%r14, %rdi
	call	__cxa_guard_release@PLT
	jmp	.L360
	.p2align 4,,10
	.p2align 3
.L549:
	movq	%r14, %rdi
	call	__cxa_guard_acquire@PLT
	testl	%eax, %eax
	je	.L313
	movq	_ZZN4asio15system_categoryEvE8instance@GOTPCREL(%rip), %r12
	movq	_ZN4asio6detail15system_categoryD1Ev@GOTPCREL(%rip), %rdi
	leaq	__dso_handle(%rip), %rdx
	movq	%r12, %rsi
	call	__cxa_atexit@PLT
	movq	%r14, %rdi
	call	__cxa_guard_release@PLT
	jmp	.L313
	.p2align 4,,10
	.p2align 3
.L315:
	movl	%r15d, %edi
	leaq	44(%rsp), %rdx
	movl	$21537, %esi
	xorl	%eax, %eax
	movl	$0, 44(%rsp)
	call	ioctl@PLT
	andb	$-4, 140(%rbp)
	movl	%r15d, %edi
	movl	$0, (%rbx)
	call	close@PLT
	jmp	.L526
	.p2align 4,,10
	.p2align 3
.L362:
	movl	%r12d, %edi
	leaq	44(%rsp), %rdx
	movl	$21537, %esi
	xorl	%eax, %eax
	movl	$0, 44(%rsp)
	call	ioctl@PLT
	andb	$-4, 108(%rbp)
	movl	%r12d, %edi
	movl	$0, (%rbx)
	call	close@PLT
	jmp	.L528
	.p2align 4,,10
	.p2align 3
.L297:
	movq	8(%rsp), %rax
	movq	%rax, 192(%r12)
	jmp	.L298
	.p2align 4,,10
	.p2align 3
.L344:
	movq	8(%rsp), %rax
	movq	%rax, 192(%r12)
	jmp	.L345
	.p2align 4,,10
	.p2align 3
.L341:
	movq	%rcx, 8(%rax)
	jmp	.L342
	.p2align 4,,10
	.p2align 3
.L294:
	movq	%rcx, 8(%rax)
	jmp	.L295
.L537:
	call	__stack_chk_fail@PLT
	.cfi_endproc
.LFE10954:
	.section	.gcc_except_table._ZN8asiodnp315MasterTCPServerD0Ev,"aG",@progbits,_ZN8asiodnp315MasterTCPServerD5Ev,comdat
.LLSDA10954:
	.byte	0xff
	.byte	0xff
	.byte	0x1
	.uleb128 .LLSDACSE10954-.LLSDACSB10954
.LLSDACSB10954:
.LLSDACSE10954:
	.section	.text._ZN8asiodnp315MasterTCPServerD0Ev,"axG",@progbits,_ZN8asiodnp315MasterTCPServerD5Ev,comdat
	.size	_ZN8asiodnp315MasterTCPServerD0Ev, .-_ZN8asiodnp315MasterTCPServerD0Ev
	.section	.text._ZNSt23_Sp_counted_ptr_inplaceIN7asiopal13SocketChannelESaIS1_ELN9__gnu_cxx12_Lock_policyE2EE10_M_disposeEv,"axG",@progbits,_ZNSt23_Sp_counted_ptr_inplaceIN7asiopal13SocketChannelESaIS1_ELN9__gnu_cxx12_Lock_policyE2EE10_M_disposeEv,comdat
	.align 2
	.p2align 4
	.weak	_ZNSt23_Sp_counted_ptr_inplaceIN7asiopal13SocketChannelESaIS1_ELN9__gnu_cxx12_Lock_policyE2EE10_M_disposeEv
	.type	_ZNSt23_Sp_counted_ptr_inplaceIN7asiopal13SocketChannelESaIS1_ELN9__gnu_cxx12_Lock_policyE2EE10_M_disposeEv, @function
_ZNSt23_Sp_counted_ptr_inplaceIN7asiopal13SocketChannelESaIS1_ELN9__gnu_cxx12_Lock_policyE2EE10_M_disposeEv:
.LFB11043:
	.cfi_startproc
	.cfi_personality 0x9b,DW.ref.__gxx_personality_v0
	.cfi_lsda 0x1b,.LLSDA11043
	endbr64
	pushq	%r15
	.cfi_def_cfa_offset 16
	.cfi_offset 15, -16
	pushq	%r14
	.cfi_def_cfa_offset 24
	.cfi_offset 14, -24
	pushq	%r13
	.cfi_def_cfa_offset 32
	.cfi_offset 13, -32
	pushq	%r12
	.cfi_def_cfa_offset 40
	.cfi_offset 12, -40
	pushq	%rbp
	.cfi_def_cfa_offset 48
	.cfi_offset 6, -48
	pushq	%rbx
	.cfi_def_cfa_offset 56
	.cfi_offset 3, -56
	movq	%rdi, %rbx
	subq	$56, %rsp
	.cfi_def_cfa_offset 112
	movl	80(%rdi), %r12d
	movq	%fs:40, %rax
	movq	%rax, 40(%rsp)
	xorl	%eax, %eax
	movq	_ZTVN7asiopal13SocketChannelE@GOTPCREL(%rip), %rax
	addq	$16, %rax
	movq	%rax, 16(%rdi)
	cmpl	$-1, %r12d
	jne	.L688
.L553:
	movq	_ZTVN7asiopal13IAsyncChannelE@GOTPCREL(%rip), %rax
	movq	64(%rbx), %rbp
	addq	$16, %rax
	movq	%rax, 16(%rbx)
	testq	%rbp, %rbp
	je	.L601
	movq	_ZL28__gthrw___pthread_key_createPjPFvPvE@GOTPCREL(%rip), %r12
	testq	%r12, %r12
	je	.L602
	movl	$-1, %eax
	lock xaddl	%eax, 8(%rbp)
	cmpl	$1, %eax
	je	.L689
	.p2align 4,,10
	.p2align 3
.L601:
	movq	48(%rbx), %rbp
	testq	%rbp, %rbp
	je	.L608
	movq	_ZL28__gthrw___pthread_key_createPjPFvPvE@GOTPCREL(%rip), %r12
	testq	%r12, %r12
	je	.L609
	movl	$-1, %eax
	lock xaddl	%eax, 8(%rbp)
	cmpl	$1, %eax
	je	.L690
	.p2align 4,,10
	.p2align 3
.L608:
	movq	32(%rbx), %rdi
	testq	%rdi, %rdi
	je	.L552
	cmpq	$0, _ZL28__gthrw___pthread_key_createPjPFvPvE@GOTPCREL(%rip)
	je	.L616
	movl	$-1, %eax
	lock xaddl	%eax, 12(%rdi)
	cmpl	$1, %eax
	je	.L691
	.p2align 4,,10
	.p2align 3
.L552:
	movq	40(%rsp), %rax
	xorq	%fs:40, %rax
	jne	.L692
	addq	$56, %rsp
	.cfi_remember_state
	.cfi_def_cfa_offset 56
	popq	%rbx
	.cfi_def_cfa_offset 48
	popq	%rbp
	.cfi_def_cfa_offset 40
	popq	%r12
	.cfi_def_cfa_offset 32
	popq	%r13
	.cfi_def_cfa_offset 24
	popq	%r14
	.cfi_def_cfa_offset 16
	popq	%r15
	.cfi_def_cfa_offset 8
	ret
	.p2align 4,,10
	.p2align 3
.L609:
	.cfi_restore_state
	movl	8(%rbp), %eax
	leal	-1(%rax), %edx
	movl	%edx, 8(%rbp)
	cmpl	$1, %eax
	jne	.L608
.L690:
	movq	0(%rbp), %rax
	movq	%rbp, %rdi
	call	*16(%rax)
	testq	%r12, %r12
	je	.L612
	movl	$-1, %eax
	lock xaddl	%eax, 12(%rbp)
.L613:
	cmpl	$1, %eax
	jne	.L608
	movq	0(%rbp), %rax
	movq	%rbp, %rdi
	call	*24(%rax)
	jmp	.L608
	.p2align 4,,10
	.p2align 3
.L602:
	movl	8(%rbp), %eax
	leal	-1(%rax), %edx
	movl	%edx, 8(%rbp)
	cmpl	$1, %eax
	jne	.L601
.L689:
	movq	0(%rbp), %rax
	movq	%rbp, %rdi
	call	*16(%rax)
	testq	%r12, %r12
	je	.L605
	movl	$-1, %eax
	lock xaddl	%eax, 12(%rbp)
.L606:
	cmpl	$1, %eax
	jne	.L601
	movq	0(%rbp), %rax
	movq	%rbp, %rdi
	call	*24(%rax)
	jmp	.L601
	.p2align 4,,10
	.p2align 3
.L616:
	movl	12(%rdi), %eax
	leal	-1(%rax), %edx
	movl	%edx, 12(%rdi)
	cmpl	$1, %eax
	jne	.L552
.L691:
	movq	(%rdi), %rax
	call	*24(%rax)
	jmp	.L552
	.p2align 4,,10
	.p2align 3
.L688:
	movq	88(%rdi), %rbp
	testq	%rbp, %rbp
	je	.L583
	movq	104(%rdi), %rax
	movzbl	84(%rdi), %r13d
	movq	40(%rax), %rax
	movq	%rax, (%rsp)
	leaq	40(%rbp), %rax
	movq	%rax, %rdi
	movq	%rax, 8(%rsp)
	call	pthread_mutex_lock@PLT
	movq	88(%rbx), %rdi
	cmpb	$0, 144(%rdi)
	jne	.L555
	andl	$64, %r13d
	jne	.L693
.L556:
	movl	$96, %r12d
	xorl	%r14d, %r14d
	xorl	%r13d, %r13d
.L566:
	movq	(%rdi,%r12), %rbp
	testq	%rbp, %rbp
	je	.L557
	movq	_ZGVZN4asio15system_categoryEvE8instance@GOTPCREL(%rip), %r15
	movzbl	(%r15), %eax
	testb	%al, %al
	je	.L694
	.p2align 4,,10
	.p2align 3
.L560:
	movq	88(%rbx), %rdi
	movq	_ZZN4asio15system_categoryEvE8instance@GOTPCREL(%rip), %rax
	movl	$125, 24(%rbp)
	leaq	(%rdi,%r12), %rsi
	movq	%rax, 32(%rbp)
	movq	(%rsi), %rdx
	testq	%rdx, %rdx
	je	.L562
	movq	(%rdx), %rax
	movq	%rax, (%rsi)
	testq	%rax, %rax
	je	.L695
	movq	$0, (%rdx)
	movq	$0, 0(%rbp)
	testq	%r14, %r14
	je	.L696
.L619:
	movq	%rbp, (%r14)
	testq	%rax, %rax
	je	.L564
.L565:
	movq	%rbp, %r14
	movq	%rax, %rbp
	movzbl	(%r15), %eax
	testb	%al, %al
	jne	.L560
.L694:
	movq	%r15, %rdi
	call	__cxa_guard_acquire@PLT
	testl	%eax, %eax
	je	.L560
	movq	_ZZN4asio15system_categoryEvE8instance@GOTPCREL(%rip), %rsi
	movq	_ZN4asio6detail15system_categoryD1Ev@GOTPCREL(%rip), %rdi
	leaq	__dso_handle(%rip), %rdx
	call	__cxa_atexit@PLT
	movq	%r15, %rdi
	call	__cxa_guard_release@PLT
	jmp	.L560
	.p2align 4,,10
	.p2align 3
.L555:
	movq	8(%rsp), %rdi
	call	pthread_mutex_unlock@PLT
.L682:
	movl	80(%rbx), %r12d
	cmpl	$-1, %r12d
	je	.L553
.L583:
	call	__errno_location@PLT
	movzbl	84(%rbx), %r13d
	movq	%rax, %rbp
	testb	$8, %r13b
	jne	.L680
	movq	_ZGVZN4asio15system_categoryEvE8instance@GOTPCREL(%rip), %r15
.L585:
	movl	$0, 0(%rbp)
	movl	%r12d, %edi
	call	close@PLT
	movl	%eax, %r13d
	movzbl	(%r15), %eax
	testb	%al, %al
	je	.L697
.L590:
	testl	%r13d, %r13d
	je	.L553
	movl	0(%rbp), %r13d
	movzbl	(%r15), %eax
	testb	%al, %al
	je	.L698
.L594:
	cmpl	$11, %r13d
	je	.L596
.L687:
	movzbl	(%r15), %eax
	testb	%al, %al
	jne	.L553
	movq	%r15, %rdi
	call	__cxa_guard_acquire@PLT
	testl	%eax, %eax
	je	.L553
	movq	_ZZN4asio15system_categoryEvE8instance@GOTPCREL(%rip), %rsi
	movq	_ZN4asio6detail15system_categoryD1Ev@GOTPCREL(%rip), %rdi
	leaq	__dso_handle(%rip), %rdx
	call	__cxa_atexit@PLT
	movq	%r15, %rdi
	call	__cxa_guard_release@PLT
	jmp	.L553
	.p2align 4,,10
	.p2align 3
.L562:
	movq	$0, 0(%rbp)
	testq	%r14, %r14
	je	.L622
	movq	%rbp, (%r14)
.L564:
	movq	%rbp, %r14
.L557:
	addq	$16, %r12
	cmpq	$144, %r12
	jne	.L566
	movl	$-1, 88(%rdi)
	movb	$1, 144(%rdi)
	movq	8(%rsp), %rdi
	call	pthread_mutex_unlock@PLT
	movq	(%rsp), %r15
	movq	88(%rbx), %rbp
	leaq	120(%r15), %r12
	movq	%r12, %rdi
	call	pthread_mutex_lock@PLT
	cmpq	160(%r15), %rbp
	je	.L699
.L567:
	movq	32(%rbp), %rdx
	movq	24(%rbp), %rax
	testq	%rdx, %rdx
	je	.L568
	movq	%rax, 24(%rdx)
	movq	24(%rbp), %rax
.L568:
	testq	%rax, %rax
	je	.L569
	movq	32(%rbp), %rdx
	movq	%rdx, 32(%rax)
.L569:
	movq	(%rsp), %r15
	movq	%r12, %rdi
	movq	168(%r15), %rax
	movq	$0, 32(%rbp)
	movq	%rax, 24(%rbp)
	movq	%rbp, 168(%r15)
	call	pthread_mutex_unlock@PLT
	movq	$0, 88(%rbx)
	testq	%r13, %r13
	je	.L682
	movq	40(%r15), %rbp
	cmpb	$0, 40(%rbp)
	je	.L571
	data16	leaq	_ZN4asio6detail15keyword_tss_ptrINS0_10call_stackINS0_15task_io_serviceENS0_27task_io_service_thread_infoEE7contextEE6value_E@tlsgd(%rip), %rdi
	.value	0x6666
	rex64
	call	__tls_get_addr@PLT
	movq	(%rax), %rax
	testq	%rax, %rax
	jne	.L574
	jmp	.L571
	.p2align 4,,10
	.p2align 3
.L572:
	movq	16(%rax), %rax
	testq	%rax, %rax
	je	.L571
.L574:
	cmpq	(%rax), %rbp
	jne	.L572
	movq	8(%rax), %rax
	testq	%rax, %rax
	je	.L571
	movq	16(%rax), %rdx
	testq	%rdx, %rdx
	je	.L575
	movq	%r13, (%rdx)
.L576:
	movq	%r14, 16(%rax)
	jmp	.L682
	.p2align 4,,10
	.p2align 3
.L695:
	movq	$0, 8(%rsi)
	movq	$0, (%rdx)
	movq	$0, 0(%rbp)
	testq	%r14, %r14
	jne	.L619
	.p2align 4,,10
	.p2align 3
.L622:
	movq	%rbp, %r13
	jmp	.L564
	.p2align 4,,10
	.p2align 3
.L696:
	movq	%rbp, %r13
	jmp	.L565
	.p2align 4,,10
	.p2align 3
.L697:
	movq	%r15, %rdi
	call	__cxa_guard_acquire@PLT
	testl	%eax, %eax
	je	.L590
	movq	_ZZN4asio15system_categoryEvE8instance@GOTPCREL(%rip), %rsi
	movq	_ZN4asio6detail15system_categoryD1Ev@GOTPCREL(%rip), %rdi
	leaq	__dso_handle(%rip), %rdx
	call	__cxa_atexit@PLT
	movq	%r15, %rdi
	call	__cxa_guard_release@PLT
	jmp	.L590
	.p2align 4,,10
	.p2align 3
.L680:
	orl	$8, %r13d
	leaq	28(%rsp), %rcx
	movl	$8, %r8d
	movl	%r12d, %edi
	movb	%r13b, 84(%rbx)
	movl	$13, %edx
	movl	$1, %esi
	movl	$0, (%rax)
	movq	$0, 28(%rsp)
	call	setsockopt@PLT
	movq	_ZGVZN4asio15system_categoryEvE8instance@GOTPCREL(%rip), %r15
	movzbl	(%r15), %eax
	testb	%al, %al
	jne	.L585
	movq	%r15, %rdi
	call	__cxa_guard_acquire@PLT
	testl	%eax, %eax
	je	.L585
	movq	_ZZN4asio15system_categoryEvE8instance@GOTPCREL(%rip), %rsi
	movq	_ZN4asio6detail15system_categoryD1Ev@GOTPCREL(%rip), %rdi
	leaq	__dso_handle(%rip), %rdx
	call	__cxa_atexit@PLT
	movq	%r15, %rdi
	call	__cxa_guard_release@PLT
	jmp	.L585
	.p2align 4,,10
	.p2align 3
.L605:
	movl	12(%rbp), %eax
	leal	-1(%rax), %edx
	movl	%edx, 12(%rbp)
	jmp	.L606
	.p2align 4,,10
	.p2align 3
.L612:
	movl	12(%rbp), %eax
	leal	-1(%rax), %edx
	movl	%edx, 12(%rbp)
	jmp	.L613
	.p2align 4,,10
	.p2align 3
.L571:
	leaq	48(%rbp), %r12
	movq	%r12, %rdi
	call	pthread_mutex_lock@PLT
	movq	200(%rbp), %rax
	testq	%rax, %rax
	je	.L578
	movq	%r13, (%rax)
.L579:
	movq	136(%rbp), %rax
	movq	%r14, 200(%rbp)
	orq	$1, %rax
	movq	%rax, 136(%rbp)
	cmpq	$1, %rax
	je	.L580
	movq	%r12, %rdi
	call	pthread_mutex_unlock@PLT
	leaq	88(%rbp), %rdi
	call	pthread_cond_signal@PLT
	jmp	.L682
	.p2align 4,,10
	.p2align 3
.L580:
	cmpb	$0, 176(%rbp)
	jne	.L582
	movq	144(%rbp), %rax
	testq	%rax, %rax
	je	.L582
	movb	$1, 176(%rbp)
	leaq	88(%rax), %rdx
	leaq	28(%rsp), %rcx
	movl	$3, %esi
	movl	$-2147483639, 28(%rsp)
	movq	%rdx, 32(%rsp)
	movl	88(%rax), %edx
	movl	96(%rax), %edi
	call	epoll_ctl@PLT
.L582:
	movq	%r12, %rdi
	call	pthread_mutex_unlock@PLT
	jmp	.L682
	.p2align 4,,10
	.p2align 3
.L693:
	movq	(%rsp), %rax
	movl	$0, 28(%rsp)
	leaq	28(%rsp), %rcx
	movl	%r12d, %edx
	movq	$0, 32(%rsp)
	movl	$2, %esi
	movl	96(%rax), %edi
	call	epoll_ctl@PLT
	movq	88(%rbx), %rdi
	jmp	.L556
	.p2align 4,,10
	.p2align 3
.L699:
	movq	24(%rbp), %rax
	movq	(%rsp), %rcx
	movq	%rax, 160(%rcx)
	jmp	.L567
	.p2align 4,,10
	.p2align 3
.L698:
	movq	%r15, %rdi
	call	__cxa_guard_acquire@PLT
	testl	%eax, %eax
	je	.L594
	movq	_ZZN4asio15system_categoryEvE8instance@GOTPCREL(%rip), %rsi
	movq	_ZN4asio6detail15system_categoryD1Ev@GOTPCREL(%rip), %rdi
	leaq	__dso_handle(%rip), %rdx
	call	__cxa_atexit@PLT
	movq	%r15, %rdi
	call	__cxa_guard_release@PLT
	jmp	.L594
	.p2align 4,,10
	.p2align 3
.L596:
	movl	%r12d, %edi
	leaq	28(%rsp), %rdx
	movl	$21537, %esi
	xorl	%eax, %eax
	movl	$0, 28(%rsp)
	call	ioctl@PLT
	andb	$-4, 84(%rbx)
	movl	%r12d, %edi
	movl	$0, 0(%rbp)
	call	close@PLT
	jmp	.L687
	.p2align 4,,10
	.p2align 3
.L578:
	movq	%r13, 192(%rbp)
	jmp	.L579
	.p2align 4,,10
	.p2align 3
.L575:
	movq	%r13, 8(%rax)
	jmp	.L576
.L692:
	call	__stack_chk_fail@PLT
	.cfi_endproc
.LFE11043:
	.section	.gcc_except_table._ZNSt23_Sp_counted_ptr_inplaceIN7asiopal13SocketChannelESaIS1_ELN9__gnu_cxx12_Lock_policyE2EE10_M_disposeEv,"aG",@progbits,_ZNSt23_Sp_counted_ptr_inplaceIN7asiopal13SocketChannelESaIS1_ELN9__gnu_cxx12_Lock_policyE2EE10_M_disposeEv,comdat
.LLSDA11043:
	.byte	0xff
	.byte	0xff
	.byte	0x1
	.uleb128 .LLSDACSE11043-.LLSDACSB11043
.LLSDACSB11043:
.LLSDACSE11043:
	.section	.text._ZNSt23_Sp_counted_ptr_inplaceIN7asiopal13SocketChannelESaIS1_ELN9__gnu_cxx12_Lock_policyE2EE10_M_disposeEv,"axG",@progbits,_ZNSt23_Sp_counted_ptr_inplaceIN7asiopal13SocketChannelESaIS1_ELN9__gnu_cxx12_Lock_policyE2EE10_M_disposeEv,comdat
	.size	_ZNSt23_Sp_counted_ptr_inplaceIN7asiopal13SocketChannelESaIS1_ELN9__gnu_cxx12_Lock_policyE2EE10_M_disposeEv, .-_ZNSt23_Sp_counted_ptr_inplaceIN7asiopal13SocketChannelESaIS1_ELN9__gnu_cxx12_Lock_policyE2EE10_M_disposeEv
	.section	.text._ZN8asiodnp315MasterTCPServerD2Ev,"axG",@progbits,_ZN8asiodnp315MasterTCPServerD5Ev,comdat
	.align 2
	.p2align 4
	.weak	_ZN8asiodnp315MasterTCPServerD2Ev
	.type	_ZN8asiodnp315MasterTCPServerD2Ev, @function
_ZN8asiodnp315MasterTCPServerD2Ev:
.LFB10952:
	.cfi_startproc
	.cfi_personality 0x9b,DW.ref.__gxx_personality_v0
	.cfi_lsda 0x1b,.LLSDA10952
	endbr64
	pushq	%r15
	.cfi_def_cfa_offset 16
	.cfi_offset 15, -16
	pushq	%r14
	.cfi_def_cfa_offset 24
	.cfi_offset 14, -24
	pushq	%r13
	.cfi_def_cfa_offset 32
	.cfi_offset 13, -32
	pushq	%r12
	.cfi_def_cfa_offset 40
	.cfi_offset 12, -40
	pushq	%rbp
	.cfi_def_cfa_offset 48
	.cfi_offset 6, -48
	pushq	%rbx
	.cfi_def_cfa_offset 56
	.cfi_offset 3, -56
	movq	%rdi, %rbx
	subq	$72, %rsp
	.cfi_def_cfa_offset 128
	movq	232(%rdi), %r12
	movq	%fs:40, %rax
	movq	%rax, 56(%rsp)
	xorl	%eax, %eax
	movq	_ZTVN8asiodnp315MasterTCPServerE@GOTPCREL(%rip), %rax
	addq	$16, %rax
	movq	%rax, (%rdi)
	testq	%r12, %r12
	je	.L702
	movq	_ZL28__gthrw___pthread_key_createPjPFvPvE@GOTPCREL(%rip), %rbp
	testq	%rbp, %rbp
	je	.L703
	movl	$-1, %eax
	lock xaddl	%eax, 8(%r12)
	cmpl	$1, %eax
	je	.L971
	.p2align 4,,10
	.p2align 3
.L702:
	movq	216(%rbx), %r12
	testq	%r12, %r12
	je	.L709
	movq	_ZL28__gthrw___pthread_key_createPjPFvPvE@GOTPCREL(%rip), %rbp
	testq	%rbp, %rbp
	je	.L710
	movl	$-1, %eax
	lock xaddl	%eax, 8(%r12)
	cmpl	$1, %eax
	je	.L972
	.p2align 4,,10
	.p2align 3
.L709:
	movq	_ZTVN7asiopal9TCPServerE@GOTPCREL(%rip), %rax
	movl	136(%rbx), %r13d
	addq	$16, %rax
	movq	%rax, (%rbx)
	cmpl	$-1, %r13d
	jne	.L973
.L715:
	movl	104(%rbx), %r13d
	cmpl	$-1, %r13d
	jne	.L974
.L762:
	movq	64(%rbx), %r12
	testq	%r12, %r12
	je	.L810
	movq	_ZL28__gthrw___pthread_key_createPjPFvPvE@GOTPCREL(%rip), %rbp
	testq	%rbp, %rbp
	je	.L811
	movl	$-1, %eax
	lock xaddl	%eax, 8(%r12)
	cmpl	$1, %eax
	je	.L975
	.p2align 4,,10
	.p2align 3
.L810:
	movq	48(%rbx), %r12
	testq	%r12, %r12
	je	.L817
	movq	_ZL28__gthrw___pthread_key_createPjPFvPvE@GOTPCREL(%rip), %rbp
	testq	%rbp, %rbp
	je	.L818
	movl	$-1, %eax
	lock xaddl	%eax, 8(%r12)
	cmpl	$1, %eax
	je	.L976
	.p2align 4,,10
	.p2align 3
.L817:
	movq	32(%rbx), %r12
	testq	%r12, %r12
	je	.L824
	movq	_ZL28__gthrw___pthread_key_createPjPFvPvE@GOTPCREL(%rip), %rbp
	testq	%rbp, %rbp
	je	.L825
	movl	$-1, %eax
	lock xaddl	%eax, 8(%r12)
	cmpl	$1, %eax
	je	.L977
	.p2align 4,,10
	.p2align 3
.L824:
	movq	16(%rbx), %rdi
	testq	%rdi, %rdi
	je	.L700
	cmpq	$0, _ZL28__gthrw___pthread_key_createPjPFvPvE@GOTPCREL(%rip)
	je	.L832
	movl	$-1, %eax
	lock xaddl	%eax, 12(%rdi)
	cmpl	$1, %eax
	je	.L978
	.p2align 4,,10
	.p2align 3
.L700:
	movq	56(%rsp), %rax
	xorq	%fs:40, %rax
	jne	.L979
	addq	$72, %rsp
	.cfi_remember_state
	.cfi_def_cfa_offset 56
	popq	%rbx
	.cfi_def_cfa_offset 48
	popq	%rbp
	.cfi_def_cfa_offset 40
	popq	%r12
	.cfi_def_cfa_offset 32
	popq	%r13
	.cfi_def_cfa_offset 24
	popq	%r14
	.cfi_def_cfa_offset 16
	popq	%r15
	.cfi_def_cfa_offset 8
	ret
	.p2align 4,,10
	.p2align 3
.L703:
	.cfi_restore_state
	movl	8(%r12), %eax
	leal	-1(%rax), %edx
	movl	%edx, 8(%r12)
	cmpl	$1, %eax
	jne	.L702
.L971:
	movq	(%r12), %rax
	movq	%r12, %rdi
	call	*16(%rax)
	testq	%rbp, %rbp
	je	.L706
	movl	$-1, %eax
	lock xaddl	%eax, 12(%r12)
.L707:
	cmpl	$1, %eax
	jne	.L702
	movq	(%r12), %rax
	movq	%r12, %rdi
	call	*24(%rax)
	jmp	.L702
	.p2align 4,,10
	.p2align 3
.L825:
	movl	8(%r12), %eax
	leal	-1(%rax), %edx
	movl	%edx, 8(%r12)
	cmpl	$1, %eax
	jne	.L824
.L977:
	movq	(%r12), %rax
	movq	%r12, %rdi
	call	*16(%rax)
	testq	%rbp, %rbp
	je	.L828
	movl	$-1, %eax
	lock xaddl	%eax, 12(%r12)
.L829:
	cmpl	$1, %eax
	jne	.L824
	movq	(%r12), %rax
	movq	%r12, %rdi
	call	*24(%rax)
	jmp	.L824
	.p2align 4,,10
	.p2align 3
.L818:
	movl	8(%r12), %eax
	leal	-1(%rax), %edx
	movl	%edx, 8(%r12)
	cmpl	$1, %eax
	jne	.L817
.L976:
	movq	(%r12), %rax
	movq	%r12, %rdi
	call	*16(%rax)
	testq	%rbp, %rbp
	je	.L821
	movl	$-1, %eax
	lock xaddl	%eax, 12(%r12)
.L822:
	cmpl	$1, %eax
	jne	.L817
	movq	(%r12), %rax
	movq	%r12, %rdi
	call	*24(%rax)
	jmp	.L817
	.p2align 4,,10
	.p2align 3
.L832:
	movl	12(%rdi), %eax
	leal	-1(%rax), %edx
	movl	%edx, 12(%rdi)
	cmpl	$1, %eax
	jne	.L700
.L978:
	movq	(%rdi), %rax
	call	*24(%rax)
	jmp	.L700
	.p2align 4,,10
	.p2align 3
.L811:
	movl	8(%r12), %eax
	leal	-1(%rax), %edx
	movl	%edx, 8(%r12)
	cmpl	$1, %eax
	jne	.L810
.L975:
	movq	(%r12), %rax
	movq	%r12, %rdi
	call	*16(%rax)
	testq	%rbp, %rbp
	je	.L814
	movl	$-1, %eax
	lock xaddl	%eax, 12(%r12)
.L815:
	cmpl	$1, %eax
	jne	.L810
	movq	(%r12), %rax
	movq	%r12, %rdi
	call	*24(%rax)
	jmp	.L810
	.p2align 4,,10
	.p2align 3
.L710:
	movl	8(%r12), %eax
	leal	-1(%rax), %edx
	movl	%edx, 8(%r12)
	cmpl	$1, %eax
	jne	.L709
.L972:
	movq	(%r12), %rax
	movq	%r12, %rdi
	call	*16(%rax)
	testq	%rbp, %rbp
	je	.L713
	movl	$-1, %eax
	lock xaddl	%eax, 12(%r12)
.L714:
	cmpl	$1, %eax
	jne	.L709
	movq	(%r12), %rax
	movq	%r12, %rdi
	call	*24(%rax)
	jmp	.L709
	.p2align 4,,10
	.p2align 3
.L974:
	movq	112(%rbx), %r12
	testq	%r12, %r12
	je	.L792
	movq	128(%rbx), %rax
	movzbl	108(%rbx), %ebp
	movq	40(%rax), %rax
	movq	%rax, 16(%rsp)
	leaq	40(%r12), %rax
	movq	%rax, %rdi
	movq	%rax, 24(%rsp)
	call	pthread_mutex_lock@PLT
	movq	112(%rbx), %rdi
	cmpb	$0, 144(%rdi)
	jne	.L764
	andl	$64, %ebp
	jne	.L980
.L765:
	movq	$0, 8(%rsp)
	movl	$96, %r12d
	xorl	%r14d, %r14d
.L775:
	movq	(%rdi,%r12), %r13
	testq	%r13, %r13
	je	.L766
	movq	_ZGVZN4asio15system_categoryEvE8instance@GOTPCREL(%rip), %r15
	movq	_ZZN4asio15system_categoryEvE8instance@GOTPCREL(%rip), %rbp
	movzbl	(%r15), %eax
	testb	%al, %al
	je	.L981
	.p2align 4,,10
	.p2align 3
.L769:
	movq	112(%rbx), %rdi
	movl	$125, 24(%r13)
	movq	%rbp, 32(%r13)
	leaq	(%rdi,%r12), %rsi
	movq	(%rsi), %rdx
	testq	%rdx, %rdx
	je	.L771
	movq	(%rdx), %rax
	movq	%rax, (%rsi)
	testq	%rax, %rax
	je	.L982
	movq	$0, (%rdx)
	movq	$0, 0(%r13)
	testq	%r14, %r14
	je	.L983
.L835:
	movq	%r13, (%r14)
	testq	%rax, %rax
	je	.L773
.L774:
	movq	%r13, %r14
	movq	%rax, %r13
	movzbl	(%r15), %eax
	testb	%al, %al
	jne	.L769
.L981:
	movq	%r15, %rdi
	call	__cxa_guard_acquire@PLT
	testl	%eax, %eax
	je	.L769
	movq	_ZN4asio6detail15system_categoryD1Ev@GOTPCREL(%rip), %rdi
	leaq	__dso_handle(%rip), %rdx
	movq	%rbp, %rsi
	call	__cxa_atexit@PLT
	movq	%r15, %rdi
	call	__cxa_guard_release@PLT
	jmp	.L769
	.p2align 4,,10
	.p2align 3
.L973:
	movq	144(%rbx), %r12
	testq	%r12, %r12
	je	.L745
	movq	160(%rbx), %rax
	movzbl	140(%rbx), %ebp
	movq	40(%rax), %rax
	movq	%rax, 16(%rsp)
	leaq	40(%r12), %rax
	movq	%rax, %rdi
	movq	%rax, 24(%rsp)
	call	pthread_mutex_lock@PLT
	movq	144(%rbx), %rdi
	cmpb	$0, 144(%rdi)
	jne	.L717
	andl	$64, %ebp
	jne	.L984
.L718:
	movq	$0, 8(%rsp)
	movl	$96, %r12d
	xorl	%r14d, %r14d
.L728:
	movq	(%rdi,%r12), %r13
	testq	%r13, %r13
	je	.L719
	movq	_ZGVZN4asio15system_categoryEvE8instance@GOTPCREL(%rip), %r15
	movq	_ZZN4asio15system_categoryEvE8instance@GOTPCREL(%rip), %rbp
	movzbl	(%r15), %eax
	testb	%al, %al
	je	.L985
	.p2align 4,,10
	.p2align 3
.L722:
	movq	144(%rbx), %rdi
	movl	$125, 24(%r13)
	movq	%rbp, 32(%r13)
	leaq	(%rdi,%r12), %rsi
	movq	(%rsi), %rdx
	testq	%rdx, %rdx
	je	.L724
	movq	(%rdx), %rax
	movq	%rax, (%rsi)
	testq	%rax, %rax
	je	.L986
	movq	$0, (%rdx)
	movq	$0, 0(%r13)
	testq	%r14, %r14
	je	.L987
.L836:
	movq	%r13, (%r14)
	testq	%rax, %rax
	je	.L726
.L727:
	movq	%r13, %r14
	movq	%rax, %r13
	movzbl	(%r15), %eax
	testb	%al, %al
	jne	.L722
.L985:
	movq	%r15, %rdi
	call	__cxa_guard_acquire@PLT
	testl	%eax, %eax
	je	.L722
	movq	_ZN4asio6detail15system_categoryD1Ev@GOTPCREL(%rip), %rdi
	leaq	__dso_handle(%rip), %rdx
	movq	%rbp, %rsi
	call	__cxa_atexit@PLT
	movq	%r15, %rdi
	call	__cxa_guard_release@PLT
	jmp	.L722
	.p2align 4,,10
	.p2align 3
.L764:
	movq	24(%rsp), %rdi
	call	pthread_mutex_unlock@PLT
.L961:
	movl	104(%rbx), %r13d
	cmpl	$-1, %r13d
	je	.L762
.L792:
	call	__errno_location@PLT
	movzbl	108(%rbx), %r12d
	movq	%rax, %rbp
	testb	$8, %r12b
	jne	.L957
	movq	_ZGVZN4asio15system_categoryEvE8instance@GOTPCREL(%rip), %r15
.L794:
	movl	$0, 0(%rbp)
	movl	%r13d, %edi
	call	close@PLT
	movl	%eax, %r12d
	movzbl	(%r15), %eax
	testb	%al, %al
	je	.L988
.L799:
	testl	%r12d, %r12d
	je	.L762
	movl	0(%rbp), %r12d
	movzbl	(%r15), %eax
	testb	%al, %al
	je	.L989
.L803:
	cmpl	$11, %r12d
	je	.L805
.L970:
	movzbl	(%r15), %eax
	testb	%al, %al
	jne	.L762
	movq	%r15, %rdi
	call	__cxa_guard_acquire@PLT
	testl	%eax, %eax
	je	.L762
	movq	_ZZN4asio15system_categoryEvE8instance@GOTPCREL(%rip), %rsi
	movq	_ZN4asio6detail15system_categoryD1Ev@GOTPCREL(%rip), %rdi
	leaq	__dso_handle(%rip), %rdx
	call	__cxa_atexit@PLT
	movq	%r15, %rdi
	call	__cxa_guard_release@PLT
	jmp	.L762
	.p2align 4,,10
	.p2align 3
.L717:
	movq	24(%rsp), %rdi
	call	pthread_mutex_unlock@PLT
.L959:
	movl	136(%rbx), %r13d
	cmpl	$-1, %r13d
	je	.L715
.L745:
	call	__errno_location@PLT
	movzbl	140(%rbx), %ebp
	movq	%rax, %r12
	testb	$8, %bpl
	jne	.L956
	movq	_ZGVZN4asio15system_categoryEvE8instance@GOTPCREL(%rip), %r15
.L747:
	movl	$0, (%r12)
	movl	%r13d, %edi
	call	close@PLT
	movl	%eax, %r14d
	movzbl	(%r15), %eax
	testb	%al, %al
	je	.L990
.L752:
	testl	%r14d, %r14d
	je	.L715
	movl	(%r12), %r14d
	movzbl	(%r15), %eax
	testb	%al, %al
	je	.L991
.L756:
	cmpl	$11, %r14d
	je	.L758
.L968:
	movzbl	(%r15), %eax
	testb	%al, %al
	jne	.L715
	movq	%r15, %rdi
	call	__cxa_guard_acquire@PLT
	testl	%eax, %eax
	je	.L715
	movq	_ZZN4asio15system_categoryEvE8instance@GOTPCREL(%rip), %rbp
	movq	_ZN4asio6detail15system_categoryD1Ev@GOTPCREL(%rip), %rdi
	leaq	__dso_handle(%rip), %rdx
	movq	%rbp, %rsi
	call	__cxa_atexit@PLT
	movq	%r15, %rdi
	call	__cxa_guard_release@PLT
	jmp	.L715
	.p2align 4,,10
	.p2align 3
.L724:
	movq	$0, 0(%r13)
	testq	%r14, %r14
	je	.L841
	movq	%r13, (%r14)
.L726:
	movq	%r13, %r14
.L719:
	addq	$16, %r12
	cmpq	$144, %r12
	jne	.L728
	movl	$-1, 88(%rdi)
	movb	$1, 144(%rdi)
	movq	24(%rsp), %rdi
	call	pthread_mutex_unlock@PLT
	movq	16(%rsp), %r15
	movq	144(%rbx), %rbp
	leaq	120(%r15), %r12
	movq	%r12, %rdi
	call	pthread_mutex_lock@PLT
	cmpq	160(%r15), %rbp
	je	.L992
.L729:
	movq	32(%rbp), %rdx
	movq	24(%rbp), %rax
	testq	%rdx, %rdx
	je	.L730
	movq	%rax, 24(%rdx)
	movq	24(%rbp), %rax
.L730:
	testq	%rax, %rax
	je	.L731
	movq	32(%rbp), %rdx
	movq	%rdx, 32(%rax)
.L731:
	movq	16(%rsp), %r15
	movq	%r12, %rdi
	movq	168(%r15), %rax
	movq	$0, 32(%rbp)
	movq	%rax, 24(%rbp)
	movq	%rbp, 168(%r15)
	call	pthread_mutex_unlock@PLT
	cmpq	$0, 8(%rsp)
	movq	$0, 144(%rbx)
	je	.L959
	movq	40(%r15), %rbp
	cmpb	$0, 40(%rbp)
	je	.L733
	data16	leaq	_ZN4asio6detail15keyword_tss_ptrINS0_10call_stackINS0_15task_io_serviceENS0_27task_io_service_thread_infoEE7contextEE6value_E@tlsgd(%rip), %rdi
	.value	0x6666
	rex64
	call	__tls_get_addr@PLT
	movq	(%rax), %rax
	testq	%rax, %rax
	jne	.L736
	jmp	.L733
	.p2align 4,,10
	.p2align 3
.L734:
	movq	16(%rax), %rax
	testq	%rax, %rax
	je	.L733
.L736:
	cmpq	(%rax), %rbp
	jne	.L734
	movq	8(%rax), %rax
	testq	%rax, %rax
	je	.L733
	movq	16(%rax), %rdx
	movq	8(%rsp), %rcx
	testq	%rdx, %rdx
	je	.L737
	movq	%rcx, (%rdx)
.L738:
	movq	%r14, 16(%rax)
	jmp	.L959
	.p2align 4,,10
	.p2align 3
.L771:
	movq	$0, 0(%r13)
	testq	%r14, %r14
	je	.L840
	movq	%r13, (%r14)
.L773:
	movq	%r13, %r14
.L766:
	addq	$16, %r12
	cmpq	$144, %r12
	jne	.L775
	movl	$-1, 88(%rdi)
	movb	$1, 144(%rdi)
	movq	24(%rsp), %rdi
	call	pthread_mutex_unlock@PLT
	movq	16(%rsp), %r15
	movq	112(%rbx), %rbp
	leaq	120(%r15), %r12
	movq	%r12, %rdi
	call	pthread_mutex_lock@PLT
	cmpq	160(%r15), %rbp
	je	.L993
.L776:
	movq	32(%rbp), %rdx
	movq	24(%rbp), %rax
	testq	%rdx, %rdx
	je	.L777
	movq	%rax, 24(%rdx)
	movq	24(%rbp), %rax
.L777:
	testq	%rax, %rax
	je	.L778
	movq	32(%rbp), %rdx
	movq	%rdx, 32(%rax)
.L778:
	movq	16(%rsp), %r15
	movq	%r12, %rdi
	movq	168(%r15), %rax
	movq	$0, 32(%rbp)
	movq	%rax, 24(%rbp)
	movq	%rbp, 168(%r15)
	call	pthread_mutex_unlock@PLT
	cmpq	$0, 8(%rsp)
	movq	$0, 112(%rbx)
	je	.L961
	movq	40(%r15), %rbp
	cmpb	$0, 40(%rbp)
	je	.L780
	data16	leaq	_ZN4asio6detail15keyword_tss_ptrINS0_10call_stackINS0_15task_io_serviceENS0_27task_io_service_thread_infoEE7contextEE6value_E@tlsgd(%rip), %rdi
	.value	0x6666
	rex64
	call	__tls_get_addr@PLT
	movq	(%rax), %rax
	testq	%rax, %rax
	jne	.L783
	jmp	.L780
	.p2align 4,,10
	.p2align 3
.L781:
	movq	16(%rax), %rax
	testq	%rax, %rax
	je	.L780
.L783:
	cmpq	(%rax), %rbp
	jne	.L781
	movq	8(%rax), %rax
	testq	%rax, %rax
	je	.L780
	movq	16(%rax), %rdx
	movq	8(%rsp), %rcx
	testq	%rdx, %rdx
	je	.L784
	movq	%rcx, (%rdx)
.L785:
	movq	%r14, 16(%rax)
	jmp	.L961
	.p2align 4,,10
	.p2align 3
.L986:
	movq	$0, 8(%rsi)
	movq	$0, (%rdx)
	movq	$0, 0(%r13)
	testq	%r14, %r14
	jne	.L836
	.p2align 4,,10
	.p2align 3
.L841:
	movq	%r13, 8(%rsp)
	jmp	.L726
	.p2align 4,,10
	.p2align 3
.L982:
	movq	$0, 8(%rsi)
	movq	$0, (%rdx)
	movq	$0, 0(%r13)
	testq	%r14, %r14
	jne	.L835
	.p2align 4,,10
	.p2align 3
.L840:
	movq	%r13, 8(%rsp)
	jmp	.L773
	.p2align 4,,10
	.p2align 3
.L983:
	movq	%r13, 8(%rsp)
	jmp	.L774
	.p2align 4,,10
	.p2align 3
.L987:
	movq	%r13, 8(%rsp)
	jmp	.L727
	.p2align 4,,10
	.p2align 3
.L988:
	movq	%r15, %rdi
	call	__cxa_guard_acquire@PLT
	testl	%eax, %eax
	je	.L799
	movq	_ZZN4asio15system_categoryEvE8instance@GOTPCREL(%rip), %rsi
	movq	_ZN4asio6detail15system_categoryD1Ev@GOTPCREL(%rip), %rdi
	leaq	__dso_handle(%rip), %rdx
	call	__cxa_atexit@PLT
	movq	%r15, %rdi
	call	__cxa_guard_release@PLT
	jmp	.L799
	.p2align 4,,10
	.p2align 3
.L957:
	orl	$8, %r12d
	leaq	44(%rsp), %rcx
	movl	$8, %r8d
	movl	%r13d, %edi
	movb	%r12b, 108(%rbx)
	movl	$13, %edx
	movl	$1, %esi
	movl	$0, (%rax)
	movq	$0, 44(%rsp)
	call	setsockopt@PLT
	movq	_ZGVZN4asio15system_categoryEvE8instance@GOTPCREL(%rip), %r15
	movzbl	(%r15), %eax
	testb	%al, %al
	jne	.L794
	movq	%r15, %rdi
	call	__cxa_guard_acquire@PLT
	testl	%eax, %eax
	je	.L794
	movq	_ZZN4asio15system_categoryEvE8instance@GOTPCREL(%rip), %rsi
	movq	_ZN4asio6detail15system_categoryD1Ev@GOTPCREL(%rip), %rdi
	leaq	__dso_handle(%rip), %rdx
	call	__cxa_atexit@PLT
	movq	%r15, %rdi
	call	__cxa_guard_release@PLT
	jmp	.L794
	.p2align 4,,10
	.p2align 3
.L956:
	orl	$8, %ebp
	leaq	44(%rsp), %rcx
	movl	$13, %edx
	movl	%r13d, %edi
	movb	%bpl, 140(%rbx)
	movl	$8, %r8d
	movl	$1, %esi
	movl	$0, (%rax)
	movq	$0, 44(%rsp)
	call	setsockopt@PLT
	movq	_ZGVZN4asio15system_categoryEvE8instance@GOTPCREL(%rip), %r15
	movzbl	(%r15), %eax
	testb	%al, %al
	jne	.L747
	movq	%r15, %rdi
	call	__cxa_guard_acquire@PLT
	testl	%eax, %eax
	je	.L747
	movq	_ZZN4asio15system_categoryEvE8instance@GOTPCREL(%rip), %rbp
	movq	_ZN4asio6detail15system_categoryD1Ev@GOTPCREL(%rip), %rdi
	leaq	__dso_handle(%rip), %rdx
	movq	%rbp, %rsi
	call	__cxa_atexit@PLT
	movq	%r15, %rdi
	call	__cxa_guard_release@PLT
	jmp	.L747
	.p2align 4,,10
	.p2align 3
.L990:
	movq	%r15, %rdi
	call	__cxa_guard_acquire@PLT
	testl	%eax, %eax
	je	.L752
	movq	_ZZN4asio15system_categoryEvE8instance@GOTPCREL(%rip), %rbp
	movq	_ZN4asio6detail15system_categoryD1Ev@GOTPCREL(%rip), %rdi
	leaq	__dso_handle(%rip), %rdx
	movq	%rbp, %rsi
	call	__cxa_atexit@PLT
	movq	%r15, %rdi
	call	__cxa_guard_release@PLT
	jmp	.L752
	.p2align 4,,10
	.p2align 3
.L814:
	movl	12(%r12), %eax
	leal	-1(%rax), %edx
	movl	%edx, 12(%r12)
	jmp	.L815
	.p2align 4,,10
	.p2align 3
.L713:
	movl	12(%r12), %eax
	leal	-1(%rax), %edx
	movl	%edx, 12(%r12)
	jmp	.L714
	.p2align 4,,10
	.p2align 3
.L821:
	movl	12(%r12), %eax
	leal	-1(%rax), %edx
	movl	%edx, 12(%r12)
	jmp	.L822
	.p2align 4,,10
	.p2align 3
.L706:
	movl	12(%r12), %eax
	leal	-1(%rax), %edx
	movl	%edx, 12(%r12)
	jmp	.L707
	.p2align 4,,10
	.p2align 3
.L828:
	movl	12(%r12), %eax
	leal	-1(%rax), %edx
	movl	%edx, 12(%r12)
	jmp	.L829
	.p2align 4,,10
	.p2align 3
.L733:
	leaq	48(%rbp), %r12
	movq	%r12, %rdi
	call	pthread_mutex_lock@PLT
	movq	200(%rbp), %rax
	testq	%rax, %rax
	je	.L740
	movq	8(%rsp), %rcx
	movq	%rcx, (%rax)
.L741:
	movq	136(%rbp), %rax
	movq	%r14, 200(%rbp)
	orq	$1, %rax
	movq	%rax, 136(%rbp)
	cmpq	$1, %rax
	je	.L742
	movq	%r12, %rdi
	call	pthread_mutex_unlock@PLT
	leaq	88(%rbp), %rdi
	call	pthread_cond_signal@PLT
	jmp	.L959
	.p2align 4,,10
	.p2align 3
.L742:
	cmpb	$0, 176(%rbp)
	jne	.L744
	movq	144(%rbp), %rax
	testq	%rax, %rax
	je	.L744
	movb	$1, 176(%rbp)
	leaq	88(%rax), %rdx
	leaq	44(%rsp), %rcx
	movl	$3, %esi
	movl	$-2147483639, 44(%rsp)
	movq	%rdx, 48(%rsp)
	movl	88(%rax), %edx
	movl	96(%rax), %edi
	call	epoll_ctl@PLT
.L744:
	movq	%r12, %rdi
	call	pthread_mutex_unlock@PLT
	jmp	.L959
	.p2align 4,,10
	.p2align 3
.L780:
	leaq	48(%rbp), %r12
	movq	%r12, %rdi
	call	pthread_mutex_lock@PLT
	movq	200(%rbp), %rax
	testq	%rax, %rax
	je	.L787
	movq	8(%rsp), %rcx
	movq	%rcx, (%rax)
.L788:
	movq	136(%rbp), %rax
	movq	%r14, 200(%rbp)
	orq	$1, %rax
	movq	%rax, 136(%rbp)
	cmpq	$1, %rax
	je	.L789
	movq	%r12, %rdi
	call	pthread_mutex_unlock@PLT
	leaq	88(%rbp), %rdi
	call	pthread_cond_signal@PLT
	jmp	.L961
	.p2align 4,,10
	.p2align 3
.L789:
	cmpb	$0, 176(%rbp)
	jne	.L791
	movq	144(%rbp), %rax
	testq	%rax, %rax
	je	.L791
	movb	$1, 176(%rbp)
	leaq	88(%rax), %rdx
	leaq	44(%rsp), %rcx
	movl	$3, %esi
	movl	$-2147483639, 44(%rsp)
	movq	%rdx, 48(%rsp)
	movl	88(%rax), %edx
	movl	96(%rax), %edi
	call	epoll_ctl@PLT
.L791:
	movq	%r12, %rdi
	call	pthread_mutex_unlock@PLT
	jmp	.L961
	.p2align 4,,10
	.p2align 3
.L984:
	movq	16(%rsp), %rax
	movl	$0, 44(%rsp)
	leaq	44(%rsp), %rcx
	movl	%r13d, %edx
	movq	$0, 48(%rsp)
	movl	$2, %esi
	movl	96(%rax), %edi
	call	epoll_ctl@PLT
	movq	144(%rbx), %rdi
	jmp	.L718
	.p2align 4,,10
	.p2align 3
.L980:
	movq	16(%rsp), %rax
	movl	$0, 44(%rsp)
	leaq	44(%rsp), %rcx
	movl	%r13d, %edx
	movq	$0, 48(%rsp)
	movl	$2, %esi
	movl	96(%rax), %edi
	call	epoll_ctl@PLT
	movq	112(%rbx), %rdi
	jmp	.L765
	.p2align 4,,10
	.p2align 3
.L993:
	movq	24(%rbp), %rax
	movq	16(%rsp), %rcx
	movq	%rax, 160(%rcx)
	jmp	.L776
	.p2align 4,,10
	.p2align 3
.L992:
	movq	24(%rbp), %rax
	movq	16(%rsp), %rcx
	movq	%rax, 160(%rcx)
	jmp	.L729
	.p2align 4,,10
	.p2align 3
.L989:
	movq	%r15, %rdi
	call	__cxa_guard_acquire@PLT
	testl	%eax, %eax
	je	.L803
	movq	_ZZN4asio15system_categoryEvE8instance@GOTPCREL(%rip), %rsi
	movq	_ZN4asio6detail15system_categoryD1Ev@GOTPCREL(%rip), %rdi
	leaq	__dso_handle(%rip), %rdx
	call	__cxa_atexit@PLT
	movq	%r15, %rdi
	call	__cxa_guard_release@PLT
	jmp	.L803
	.p2align 4,,10
	.p2align 3
.L991:
	movq	%r15, %rdi
	call	__cxa_guard_acquire@PLT
	testl	%eax, %eax
	je	.L756
	movq	_ZZN4asio15system_categoryEvE8instance@GOTPCREL(%rip), %rbp
	movq	_ZN4asio6detail15system_categoryD1Ev@GOTPCREL(%rip), %rdi
	leaq	__dso_handle(%rip), %rdx
	movq	%rbp, %rsi
	call	__cxa_atexit@PLT
	movq	%r15, %rdi
	call	__cxa_guard_release@PLT
	jmp	.L756
	.p2align 4,,10
	.p2align 3
.L758:
	movl	%r13d, %edi
	leaq	44(%rsp), %rdx
	movl	$21537, %esi
	xorl	%eax, %eax
	movl	$0, 44(%rsp)
	call	ioctl@PLT
	andb	$-4, 140(%rbx)
	movl	%r13d, %edi
	movl	$0, (%r12)
	call	close@PLT
	jmp	.L968
	.p2align 4,,10
	.p2align 3
.L805:
	movl	%r13d, %edi
	leaq	44(%rsp), %rdx
	movl	$21537, %esi
	xorl	%eax, %eax
	movl	$0, 44(%rsp)
	call	ioctl@PLT
	andb	$-4, 108(%rbx)
	movl	%r13d, %edi
	movl	$0, 0(%rbp)
	call	close@PLT
	jmp	.L970
	.p2align 4,,10
	.p2align 3
.L740:
	movq	8(%rsp), %rax
	movq	%rax, 192(%rbp)
	jmp	.L741
	.p2align 4,,10
	.p2align 3
.L787:
	movq	8(%rsp), %rax
	movq	%rax, 192(%rbp)
	jmp	.L788
	.p2align 4,,10
	.p2align 3
.L784:
	movq	%rcx, 8(%rax)
	jmp	.L785
	.p2align 4,,10
	.p2align 3
.L737:
	movq	%rcx, 8(%rax)
	jmp	.L738
.L979:
	call	__stack_chk_fail@PLT
	.cfi_endproc
.LFE10952:
	.section	.gcc_except_table._ZN8asiodnp315MasterTCPServerD2Ev,"aG",@progbits,_ZN8asiodnp315MasterTCPServerD5Ev,comdat
.LLSDA10952:
	.byte	0xff
	.byte	0xff
	.byte	0x1
	.uleb128 .LLSDACSE10952-.LLSDACSB10952
.LLSDACSB10952:
.LLSDACSE10952:
	.section	.text._ZN8asiodnp315MasterTCPServerD2Ev,"axG",@progbits,_ZN8asiodnp315MasterTCPServerD5Ev,comdat
	.size	_ZN8asiodnp315MasterTCPServerD2Ev, .-_ZN8asiodnp315MasterTCPServerD2Ev
	.weak	_ZN8asiodnp315MasterTCPServerD1Ev
	.set	_ZN8asiodnp315MasterTCPServerD1Ev,_ZN8asiodnp315MasterTCPServerD2Ev
	.section	.text.unlikely
	.align 2
	.type	_ZN4asio6detail28reactive_socket_service_base7destroyERNS1_24base_implementation_typeE.isra.0, @function
_ZN4asio6detail28reactive_socket_service_base7destroyERNS1_24base_implementation_typeE.isra.0:
.LFB11283:
	.cfi_startproc
	pushq	%r15
	.cfi_def_cfa_offset 16
	.cfi_offset 15, -16
	pushq	%r14
	.cfi_def_cfa_offset 24
	.cfi_offset 14, -24
	pushq	%r13
	.cfi_def_cfa_offset 32
	.cfi_offset 13, -32
	pushq	%r12
	.cfi_def_cfa_offset 40
	.cfi_offset 12, -40
	pushq	%rbp
	.cfi_def_cfa_offset 48
	.cfi_offset 6, -48
	pushq	%rbx
	.cfi_def_cfa_offset 56
	.cfi_offset 3, -56
	subq	$56, %rsp
	.cfi_def_cfa_offset 112
	movl	(%rsi), %r13d
	movq	%fs:40, %rax
	movq	%rax, 40(%rsp)
	xorl	%eax, %eax
	cmpl	$-1, %r13d
	je	.L994
	movq	8(%rsi), %r12
	movq	%rsi, %rbx
	testq	%r12, %r12
	je	.L996
	addq	$40, %r12
	movq	(%rdi), %rbp
	movb	4(%rsi), %r14b
	movq	%r12, %rdi
	call	pthread_mutex_lock@PLT
	movq	8(%rbx), %rax
	cmpb	$0, 144(%rax)
	jne	.L1022
	andb	$64, %r14b
	je	.L998
	movl	$0, 28(%rsp)
	leaq	28(%rsp), %rcx
	movl	%r13d, %edx
	movl	$2, %esi
	movq	$0, 32(%rsp)
	movl	96(%rbp), %edi
	call	epoll_ctl@PLT
.L998:
	movl	$96, %r15d
	xorl	%r14d, %r14d
	xorl	%r13d, %r13d
.L999:
	movq	8(%rbx), %rax
	movq	(%rax,%r15), %rcx
	testq	%rcx, %rcx
	je	.L1000
	movq	_ZGVZN4asio15system_categoryEvE8instance@GOTPCREL(%rip), %rax
	movb	(%rax), %al
	testb	%al, %al
	jne	.L1002
	movq	_ZGVZN4asio15system_categoryEvE8instance@GOTPCREL(%rip), %rdi
	movq	%rcx, 8(%rsp)
	call	__cxa_guard_acquire@PLT
	movq	8(%rsp), %rcx
	testl	%eax, %eax
	je	.L1002
	movq	_ZZN4asio15system_categoryEvE8instance@GOTPCREL(%rip), %rsi
	movq	_ZN4asio6detail15system_categoryD1Ev@GOTPCREL(%rip), %rdi
	leaq	__dso_handle(%rip), %rdx
	call	__cxa_atexit@PLT
	movq	_ZGVZN4asio15system_categoryEvE8instance@GOTPCREL(%rip), %rdi
	call	__cxa_guard_release@PLT
	movq	8(%rsp), %rcx
.L1002:
	movq	8(%rbx), %rdx
	movq	_ZZN4asio15system_categoryEvE8instance@GOTPCREL(%rip), %rax
	movl	$125, 24(%rcx)
	addq	%r15, %rdx
	movq	%rax, 32(%rcx)
	movq	(%rdx), %rax
	testq	%rax, %rax
	je	.L1004
	movq	(%rax), %rsi
	movq	%rsi, (%rdx)
	testq	%rsi, %rsi
	jne	.L1005
	movq	$0, 8(%rdx)
.L1005:
	movq	$0, (%rax)
.L1004:
	movq	$0, (%rcx)
	testq	%r14, %r14
	jne	.L1100
	movq	%rcx, %r13
.L1006:
	movq	%rcx, %r14
	jmp	.L999
.L1100:
	movq	%rcx, (%r14)
	jmp	.L1006
.L1000:
	addq	$16, %r15
	cmpq	$144, %r15
	jne	.L999
	movl	$-1, 88(%rax)
	movq	%r12, %rdi
	leaq	120(%rbp), %r15
	movb	$1, 144(%rax)
	call	pthread_mutex_unlock@PLT
	movq	%r15, %rdi
	movq	8(%rbx), %r12
	call	pthread_mutex_lock@PLT
	cmpq	160(%rbp), %r12
	jne	.L1008
	movq	24(%r12), %rax
	movq	%rax, 160(%rbp)
.L1008:
	movq	32(%r12), %rax
	testq	%rax, %rax
	je	.L1009
	movq	24(%r12), %rdx
	movq	%rdx, 24(%rax)
.L1009:
	movq	24(%r12), %rax
	testq	%rax, %rax
	je	.L1010
	movq	32(%r12), %rdx
	movq	%rdx, 32(%rax)
.L1010:
	movq	168(%rbp), %rax
	movq	%r15, %rdi
	movq	$0, 32(%r12)
	movq	%rax, 24(%r12)
	movq	%r12, 168(%rbp)
	call	pthread_mutex_unlock@PLT
	movq	$0, 8(%rbx)
	testq	%r13, %r13
	je	.L996
	movq	40(%rbp), %rbp
	cmpb	$0, 40(%rbp)
	je	.L1012
	data16	leaq	_ZN4asio6detail15keyword_tss_ptrINS0_10call_stackINS0_15task_io_serviceENS0_27task_io_service_thread_infoEE7contextEE6value_E@tlsgd(%rip), %rdi
	.value	0x6666
	rex64
	call	__tls_get_addr@PLT
	movq	(%rax), %rax
.L1015:
	testq	%rax, %rax
	je	.L1012
	cmpq	(%rax), %rbp
	jne	.L1013
	movq	8(%rax), %rax
	testq	%rax, %rax
	jne	.L1014
	jmp	.L1012
.L1013:
	movq	16(%rax), %rax
	jmp	.L1015
.L1014:
	movq	16(%rax), %rdx
	testq	%rdx, %rdx
	je	.L1016
	movq	%r13, (%rdx)
	jmp	.L1017
.L1016:
	movq	%r13, 8(%rax)
.L1017:
	movq	%r14, 16(%rax)
	jmp	.L996
.L1012:
	leaq	48(%rbp), %r12
	movq	%r12, %rdi
	call	pthread_mutex_lock@PLT
	movq	200(%rbp), %rax
	testq	%rax, %rax
	je	.L1018
	movq	%r13, (%rax)
	jmp	.L1019
.L1018:
	movq	%r13, 192(%rbp)
.L1019:
	movq	136(%rbp), %rax
	movq	%r14, 200(%rbp)
	orq	$1, %rax
	movq	%rax, 136(%rbp)
	decq	%rax
	je	.L1020
	movq	%r12, %rdi
	call	pthread_mutex_unlock@PLT
	leaq	88(%rbp), %rdi
	call	pthread_cond_signal@PLT
	jmp	.L996
.L1020:
	cmpb	$0, 176(%rbp)
	jne	.L1022
	movq	144(%rbp), %rax
	testq	%rax, %rax
	je	.L1022
	movb	$1, 176(%rbp)
	leaq	88(%rax), %rdx
	leaq	28(%rsp), %rcx
	movl	$3, %esi
	movl	$-2147483639, 28(%rsp)
	movq	%rdx, 32(%rsp)
	movl	88(%rax), %edx
	movl	96(%rax), %edi
	call	epoll_ctl@PLT
.L1022:
	movq	%r12, %rdi
	call	pthread_mutex_unlock@PLT
.L996:
	movl	(%rbx), %r13d
	cmpl	$-1, %r13d
	je	.L994
	call	__errno_location@PLT
	movb	4(%rbx), %r14b
	movq	_ZGVZN4asio15system_categoryEvE8instance@GOTPCREL(%rip), %rbp
	movq	%rax, %r12
	testb	$8, %r14b
	je	.L1025
	orl	$8, %r14d
	leaq	28(%rsp), %rcx
	movl	$8, %r8d
	movl	%r13d, %edi
	movb	%r14b, 4(%rbx)
	movl	$13, %edx
	movl	$1, %esi
	movl	$0, (%rax)
	movq	$0, 28(%rsp)
	call	setsockopt@PLT
	movb	0(%rbp), %al
	testb	%al, %al
	jne	.L1025
	movq	%rbp, %rdi
	call	__cxa_guard_acquire@PLT
	testl	%eax, %eax
	je	.L1025
	movq	_ZN4asio6detail15system_categoryD1Ev@GOTPCREL(%rip), %rdi
	movq	_ZZN4asio15system_categoryEvE8instance@GOTPCREL(%rip), %rsi
	leaq	__dso_handle(%rip), %rdx
	call	__cxa_atexit@PLT
	movq	%rbp, %rdi
	call	__cxa_guard_release@PLT
.L1025:
	movl	$0, (%r12)
	movl	%r13d, %edi
	call	close@PLT
	movl	%eax, %r14d
	movb	0(%rbp), %al
	testb	%al, %al
	jne	.L1030
	movq	%rbp, %rdi
	call	__cxa_guard_acquire@PLT
	testl	%eax, %eax
	je	.L1030
	movq	_ZN4asio6detail15system_categoryD1Ev@GOTPCREL(%rip), %rdi
	movq	_ZZN4asio15system_categoryEvE8instance@GOTPCREL(%rip), %rsi
	leaq	__dso_handle(%rip), %rdx
	call	__cxa_atexit@PLT
	movq	%rbp, %rdi
	call	__cxa_guard_release@PLT
.L1030:
	testl	%r14d, %r14d
	je	.L994
	movl	(%r12), %r14d
	movb	0(%rbp), %al
	testb	%al, %al
	jne	.L1034
	movq	%rbp, %rdi
	call	__cxa_guard_acquire@PLT
	testl	%eax, %eax
	je	.L1034
	movq	_ZN4asio6detail15system_categoryD1Ev@GOTPCREL(%rip), %rdi
	movq	_ZZN4asio15system_categoryEvE8instance@GOTPCREL(%rip), %rsi
	leaq	__dso_handle(%rip), %rdx
	call	__cxa_atexit@PLT
	movq	%rbp, %rdi
	call	__cxa_guard_release@PLT
.L1034:
	cmpl	$11, %r14d
	jne	.L1099
	movl	%r13d, %edi
	leaq	28(%rsp), %rdx
	movl	$21537, %esi
	xorl	%eax, %eax
	movl	$0, 28(%rsp)
	call	ioctl@PLT
	andb	$-4, 4(%rbx)
	movl	%r13d, %edi
	movl	$0, (%r12)
	call	close@PLT
.L1099:
	movb	0(%rbp), %al
	testb	%al, %al
	jne	.L994
	movq	%rbp, %rdi
	call	__cxa_guard_acquire@PLT
	testl	%eax, %eax
	je	.L994
	movq	_ZN4asio6detail15system_categoryD1Ev@GOTPCREL(%rip), %rdi
	movq	_ZZN4asio15system_categoryEvE8instance@GOTPCREL(%rip), %rsi
	leaq	__dso_handle(%rip), %rdx
	call	__cxa_atexit@PLT
	movq	%rbp, %rdi
	call	__cxa_guard_release@PLT
.L994:
	movq	40(%rsp), %rax
	xorq	%fs:40, %rax
	je	.L1040
	call	__stack_chk_fail@PLT
.L1040:
	addq	$56, %rsp
	.cfi_def_cfa_offset 56
	popq	%rbx
	.cfi_def_cfa_offset 48
	popq	%rbp
	.cfi_def_cfa_offset 40
	popq	%r12
	.cfi_def_cfa_offset 32
	popq	%r13
	.cfi_def_cfa_offset 24
	popq	%r14
	.cfi_def_cfa_offset 16
	popq	%r15
	.cfi_def_cfa_offset 8
	ret
	.cfi_endproc
.LFE11283:
	.size	_ZN4asio6detail28reactive_socket_service_base7destroyERNS1_24base_implementation_typeE.isra.0, .-_ZN4asio6detail28reactive_socket_service_base7destroyERNS1_24base_implementation_typeE.isra.0
	.section	.text._ZN4asio6detail13epoll_reactor21deregister_descriptorEiRPNS1_16descriptor_stateEb,"axG",@progbits,_ZN4asio6detail13epoll_reactor21deregister_descriptorEiRPNS1_16descriptor_stateEb,comdat
	.align 2
	.p2align 4
	.weak	_ZN4asio6detail13epoll_reactor21deregister_descriptorEiRPNS1_16descriptor_stateEb
	.type	_ZN4asio6detail13epoll_reactor21deregister_descriptorEiRPNS1_16descriptor_stateEb, @function
_ZN4asio6detail13epoll_reactor21deregister_descriptorEiRPNS1_16descriptor_stateEb:
.LFB3314:
	.cfi_startproc
	endbr64
	pushq	%r15
	.cfi_def_cfa_offset 16
	.cfi_offset 15, -16
	pushq	%r14
	.cfi_def_cfa_offset 24
	.cfi_offset 14, -24
	pushq	%r13
	.cfi_def_cfa_offset 32
	.cfi_offset 13, -32
	pushq	%r12
	.cfi_def_cfa_offset 40
	.cfi_offset 12, -40
	pushq	%rbp
	.cfi_def_cfa_offset 48
	.cfi_offset 6, -48
	pushq	%rbx
	.cfi_def_cfa_offset 56
	.cfi_offset 3, -56
	subq	$72, %rsp
	.cfi_def_cfa_offset 128
	movq	(%rdx), %r12
	movq	%rdi, 16(%rsp)
	movq	%fs:40, %rax
	movq	%rax, 56(%rsp)
	xorl	%eax, %eax
	testq	%r12, %r12
	je	.L1101
	leaq	40(%r12), %rax
	movq	%rdx, %r14
	movl	%esi, %r13d
	movl	%ecx, %ebx
	movq	%rax, %rdi
	movq	%rax, 24(%rsp)
	call	pthread_mutex_lock@PLT
	movq	(%r14), %r10
	cmpb	$0, 144(%r10)
	jne	.L1103
	testb	%bl, %bl
	je	.L1166
.L1104:
	movq	$0, 8(%rsp)
	movl	$96, %r12d
	xorl	%r15d, %r15d
.L1114:
	movq	(%r10,%r12), %rbx
	testq	%rbx, %rbx
	je	.L1105
	movq	_ZGVZN4asio15system_categoryEvE8instance@GOTPCREL(%rip), %r13
	movq	_ZZN4asio15system_categoryEvE8instance@GOTPCREL(%rip), %rbp
	movzbl	0(%r13), %eax
	testb	%al, %al
	je	.L1167
	.p2align 4,,10
	.p2align 3
.L1108:
	movq	(%r14), %r10
	movl	$125, 24(%rbx)
	movq	%rbp, 32(%rbx)
	leaq	(%r10,%r12), %rdi
	movq	(%rdi), %rax
	testq	%rax, %rax
	je	.L1110
	movq	(%rax), %rdx
	movq	%rdx, (%rdi)
	testq	%rdx, %rdx
	je	.L1168
	movq	$0, (%rax)
	movq	$0, (%rbx)
	testq	%r15, %r15
	je	.L1169
.L1130:
	movq	%rbx, (%r15)
	testq	%rdx, %rdx
	je	.L1112
.L1113:
	movzbl	0(%r13), %eax
	movq	%rbx, %r15
	movq	%rdx, %rbx
	testb	%al, %al
	jne	.L1108
.L1167:
	movq	%r13, %rdi
	call	__cxa_guard_acquire@PLT
	testl	%eax, %eax
	je	.L1108
	movq	_ZN4asio6detail15system_categoryD1Ev@GOTPCREL(%rip), %rdi
	leaq	__dso_handle(%rip), %rdx
	movq	%rbp, %rsi
	call	__cxa_atexit@PLT
	movq	%r13, %rdi
	call	__cxa_guard_release@PLT
	jmp	.L1108
	.p2align 4,,10
	.p2align 3
.L1110:
	movq	$0, (%rbx)
	testq	%r15, %r15
	je	.L1133
	movq	%rbx, (%r15)
.L1112:
	movq	%rbx, %r15
.L1105:
	addq	$16, %r12
	cmpq	$144, %r12
	jne	.L1114
	movl	$-1, 88(%r10)
	movq	24(%rsp), %rdi
	movb	$1, 144(%r10)
	call	pthread_mutex_unlock@PLT
	movq	16(%rsp), %rbp
	movq	(%r14), %rbx
	leaq	120(%rbp), %r12
	movq	%r12, %rdi
	call	pthread_mutex_lock@PLT
	cmpq	160(%rbp), %rbx
	je	.L1170
.L1115:
	movq	32(%rbx), %rdx
	movq	24(%rbx), %rax
	testq	%rdx, %rdx
	je	.L1116
	movq	%rax, 24(%rdx)
	movq	24(%rbx), %rax
.L1116:
	testq	%rax, %rax
	je	.L1117
	movq	32(%rbx), %rdx
	movq	%rdx, 32(%rax)
.L1117:
	movq	16(%rsp), %rbp
	movq	%r12, %rdi
	movq	168(%rbp), %rax
	movq	$0, 32(%rbx)
	movq	%rax, 24(%rbx)
	movq	%rbx, 168(%rbp)
	call	pthread_mutex_unlock@PLT
	cmpq	$0, 8(%rsp)
	movq	$0, (%r14)
	je	.L1101
	movq	40(%rbp), %rbx
	cmpb	$0, 40(%rbx)
	jne	.L1171
.L1119:
	leaq	48(%rbx), %rbp
	movq	%rbp, %rdi
	call	pthread_mutex_lock@PLT
	movq	200(%rbx), %rax
	testq	%rax, %rax
	je	.L1125
	movq	8(%rsp), %rcx
	movq	%rcx, (%rax)
.L1126:
	movq	136(%rbx), %rax
	movq	%r15, 200(%rbx)
	orq	$1, %rax
	movq	%rax, 136(%rbx)
	cmpq	$1, %rax
	je	.L1127
	movq	%rbp, %rdi
	call	pthread_mutex_unlock@PLT
	leaq	88(%rbx), %rdi
	call	pthread_cond_signal@PLT
	.p2align 4,,10
	.p2align 3
.L1101:
	movq	56(%rsp), %rax
	xorq	%fs:40, %rax
	jne	.L1172
	addq	$72, %rsp
	.cfi_remember_state
	.cfi_def_cfa_offset 56
	popq	%rbx
	.cfi_def_cfa_offset 48
	popq	%rbp
	.cfi_def_cfa_offset 40
	popq	%r12
	.cfi_def_cfa_offset 32
	popq	%r13
	.cfi_def_cfa_offset 24
	popq	%r14
	.cfi_def_cfa_offset 16
	popq	%r15
	.cfi_def_cfa_offset 8
	ret
	.p2align 4,,10
	.p2align 3
.L1103:
	.cfi_restore_state
	movq	24(%rsp), %rdi
	call	pthread_mutex_unlock@PLT
	jmp	.L1101
	.p2align 4,,10
	.p2align 3
.L1168:
	movq	$0, 8(%rdi)
	movq	$0, (%rax)
	movq	$0, (%rbx)
	testq	%r15, %r15
	jne	.L1130
	.p2align 4,,10
	.p2align 3
.L1133:
	movq	%rbx, 8(%rsp)
	jmp	.L1112
	.p2align 4,,10
	.p2align 3
.L1169:
	movq	%rbx, 8(%rsp)
	jmp	.L1113
	.p2align 4,,10
	.p2align 3
.L1171:
	data16	leaq	_ZN4asio6detail15keyword_tss_ptrINS0_10call_stackINS0_15task_io_serviceENS0_27task_io_service_thread_infoEE7contextEE6value_E@tlsgd(%rip), %rdi
	.value	0x6666
	rex64
	call	__tls_get_addr@PLT
	movq	(%rax), %rax
	testq	%rax, %rax
	jne	.L1122
	jmp	.L1119
	.p2align 4,,10
	.p2align 3
.L1120:
	movq	16(%rax), %rax
	testq	%rax, %rax
	je	.L1119
.L1122:
	cmpq	(%rax), %rbx
	jne	.L1120
	movq	8(%rax), %rax
	testq	%rax, %rax
	je	.L1119
	movq	16(%rax), %rdx
	movq	8(%rsp), %rcx
	testq	%rdx, %rdx
	je	.L1123
	movq	%rcx, (%rdx)
.L1124:
	movq	%r15, 16(%rax)
	jmp	.L1101
.L1127:
	cmpb	$0, 176(%rbx)
	jne	.L1129
	movq	144(%rbx), %rax
	testq	%rax, %rax
	je	.L1129
	movb	$1, 176(%rbx)
	leaq	88(%rax), %rdx
	leaq	44(%rsp), %rcx
	movl	$3, %esi
	movl	$-2147483639, 44(%rsp)
	movq	%rdx, 48(%rsp)
	movl	88(%rax), %edx
	movl	96(%rax), %edi
	call	epoll_ctl@PLT
.L1129:
	movq	%rbp, %rdi
	call	pthread_mutex_unlock@PLT
	jmp	.L1101
	.p2align 4,,10
	.p2align 3
.L1166:
	movq	16(%rsp), %rax
	leaq	44(%rsp), %rcx
	movl	%r13d, %edx
	movl	$2, %esi
	movl	$0, 44(%rsp)
	movq	$0, 48(%rsp)
	movl	96(%rax), %edi
	call	epoll_ctl@PLT
	movq	(%r14), %r10
	jmp	.L1104
	.p2align 4,,10
	.p2align 3
.L1170:
	movq	24(%rbx), %rax
	movq	16(%rsp), %rcx
	movq	%rax, 160(%rcx)
	jmp	.L1115
.L1125:
	movq	8(%rsp), %rax
	movq	%rax, 192(%rbx)
	jmp	.L1126
.L1123:
	movq	%rcx, 8(%rax)
	jmp	.L1124
.L1172:
	call	__stack_chk_fail@PLT
	.cfi_endproc
.LFE3314:
	.size	_ZN4asio6detail13epoll_reactor21deregister_descriptorEiRPNS1_16descriptor_stateEb, .-_ZN4asio6detail13epoll_reactor21deregister_descriptorEiRPNS1_16descriptor_stateEb
	.section	.text._ZN4asio6detail10socket_ops5closeEiRhbRSt10error_code,"axG",@progbits,_ZN4asio6detail10socket_ops5closeEiRhbRSt10error_code,comdat
	.p2align 4
	.weak	_ZN4asio6detail10socket_ops5closeEiRhbRSt10error_code
	.type	_ZN4asio6detail10socket_ops5closeEiRhbRSt10error_code, @function
_ZN4asio6detail10socket_ops5closeEiRhbRSt10error_code:
.LFB3716:
	.cfi_startproc
	endbr64
	pushq	%r15
	.cfi_def_cfa_offset 16
	.cfi_offset 15, -16
	pushq	%r14
	.cfi_def_cfa_offset 24
	.cfi_offset 14, -24
	pushq	%r13
	.cfi_def_cfa_offset 32
	.cfi_offset 13, -32
	pushq	%r12
	.cfi_def_cfa_offset 40
	.cfi_offset 12, -40
	pushq	%rbp
	.cfi_def_cfa_offset 48
	.cfi_offset 6, -48
	pushq	%rbx
	.cfi_def_cfa_offset 56
	.cfi_offset 3, -56
	movq	%rcx, %rbx
	subq	$40, %rsp
	.cfi_def_cfa_offset 96
	movq	%rsi, 8(%rsp)
	movq	%fs:40, %rax
	movq	%rax, 24(%rsp)
	xorl	%eax, %eax
	cmpl	$-1, %edi
	je	.L1183
	movl	%edi, %ebp
	movl	%edx, %r12d
	call	__errno_location@PLT
	movq	%rax, %r14
	testb	%r12b, %r12b
	jne	.L1219
.L1224:
	movq	_ZGVZN4asio15system_categoryEvE8instance@GOTPCREL(%rip), %r13
	movq	_ZZN4asio15system_categoryEvE8instance@GOTPCREL(%rip), %r15
.L1176:
	movl	$0, (%r14)
	movl	%ebp, %edi
	call	close@PLT
	movl	%eax, %r12d
	movzbl	0(%r13), %eax
	testb	%al, %al
	je	.L1225
.L1181:
	movl	(%r14), %eax
	movq	%r15, 8(%rbx)
	movl	%eax, (%rbx)
	testl	%r12d, %r12d
	jne	.L1226
.L1183:
	call	_ZNSt3_V215system_categoryEv@PLT
	movl	$0, (%rbx)
	xorl	%r12d, %r12d
	movq	%rax, 8(%rbx)
.L1173:
	movq	24(%rsp), %rax
	xorq	%fs:40, %rax
	jne	.L1227
	addq	$40, %rsp
	.cfi_remember_state
	.cfi_def_cfa_offset 56
	movl	%r12d, %eax
	popq	%rbx
	.cfi_def_cfa_offset 48
	popq	%rbp
	.cfi_def_cfa_offset 40
	popq	%r12
	.cfi_def_cfa_offset 32
	popq	%r13
	.cfi_def_cfa_offset 24
	popq	%r14
	.cfi_def_cfa_offset 16
	popq	%r15
	.cfi_def_cfa_offset 8
	ret
	.p2align 4,,10
	.p2align 3
.L1219:
	.cfi_restore_state
	movq	8(%rsp), %rax
	movzbl	(%rax), %eax
	testb	$8, %al
	je	.L1224
	movq	8(%rsp), %rsi
	orl	$8, %eax
	leaq	16(%rsp), %rcx
	movl	%ebp, %edi
	movl	$8, %r8d
	movl	$13, %edx
	movq	$0, 16(%rsp)
	movb	%al, (%rsi)
	movl	$1, %esi
	movl	$0, (%r14)
	call	setsockopt@PLT
	movq	_ZGVZN4asio15system_categoryEvE8instance@GOTPCREL(%rip), %r13
	movzbl	0(%r13), %eax
	testb	%al, %al
	je	.L1177
.L1223:
	movq	_ZZN4asio15system_categoryEvE8instance@GOTPCREL(%rip), %r15
	jmp	.L1176
	.p2align 4,,10
	.p2align 3
.L1226:
	movzbl	0(%r13), %eax
	testb	%al, %al
	je	.L1228
.L1185:
	cmpq	%r15, 8(%rbx)
	je	.L1229
.L1187:
	movzbl	0(%r13), %eax
	testb	%al, %al
	je	.L1230
.L1191:
	cmpq	%r15, 8(%rbx)
	jne	.L1173
	cmpl	$11, (%rbx)
	jne	.L1173
.L1193:
	leaq	16(%rsp), %rdx
	movl	$21537, %esi
	movl	%ebp, %edi
	xorl	%eax, %eax
	movl	$0, 16(%rsp)
	call	ioctl@PLT
	movq	8(%rsp), %rax
	movl	%ebp, %edi
	andb	$-4, (%rax)
	movl	$0, (%r14)
	call	close@PLT
	movl	%eax, %r12d
	movzbl	0(%r13), %eax
	testb	%al, %al
	je	.L1231
.L1194:
	movl	(%r14), %eax
	movq	%r15, 8(%rbx)
	movl	%eax, (%rbx)
	testl	%r12d, %r12d
	jne	.L1173
	jmp	.L1183
	.p2align 4,,10
	.p2align 3
.L1225:
	movq	%r13, %rdi
	call	__cxa_guard_acquire@PLT
	testl	%eax, %eax
	je	.L1181
	movq	_ZN4asio6detail15system_categoryD1Ev@GOTPCREL(%rip), %rdi
	leaq	__dso_handle(%rip), %rdx
	movq	%r15, %rsi
	call	__cxa_atexit@PLT
	movq	%r13, %rdi
	call	__cxa_guard_release@PLT
	jmp	.L1181
	.p2align 4,,10
	.p2align 3
.L1228:
	movq	%r13, %rdi
	call	__cxa_guard_acquire@PLT
	testl	%eax, %eax
	je	.L1185
	movq	_ZN4asio6detail15system_categoryD1Ev@GOTPCREL(%rip), %rdi
	leaq	__dso_handle(%rip), %rdx
	movq	%r15, %rsi
	call	__cxa_atexit@PLT
	movq	%r13, %rdi
	call	__cxa_guard_release@PLT
	jmp	.L1185
	.p2align 4,,10
	.p2align 3
.L1229:
	cmpl	$11, (%rbx)
	jne	.L1187
	jmp	.L1193
	.p2align 4,,10
	.p2align 3
.L1230:
	movq	%r13, %rdi
	call	__cxa_guard_acquire@PLT
	testl	%eax, %eax
	je	.L1191
	movq	_ZN4asio6detail15system_categoryD1Ev@GOTPCREL(%rip), %rdi
	leaq	__dso_handle(%rip), %rdx
	movq	%r15, %rsi
	call	__cxa_atexit@PLT
	movq	%r13, %rdi
	call	__cxa_guard_release@PLT
	jmp	.L1191
	.p2align 4,,10
	.p2align 3
.L1177:
	movq	%r13, %rdi
	call	__cxa_guard_acquire@PLT
	testl	%eax, %eax
	je	.L1223
	movq	_ZZN4asio15system_categoryEvE8instance@GOTPCREL(%rip), %r15
	movq	_ZN4asio6detail15system_categoryD1Ev@GOTPCREL(%rip), %rdi
	leaq	__dso_handle(%rip), %rdx
	movq	%r15, %rsi
	call	__cxa_atexit@PLT
	movq	%r13, %rdi
	call	__cxa_guard_release@PLT
	jmp	.L1176
	.p2align 4,,10
	.p2align 3
.L1231:
	movq	%r13, %rdi
	call	__cxa_guard_acquire@PLT
	testl	%eax, %eax
	je	.L1194
	movq	_ZN4asio6detail15system_categoryD1Ev@GOTPCREL(%rip), %rdi
	leaq	__dso_handle(%rip), %rdx
	movq	%r15, %rsi
	call	__cxa_atexit@PLT
	movq	%r13, %rdi
	call	__cxa_guard_release@PLT
	jmp	.L1194
.L1227:
	call	__stack_chk_fail@PLT
	.cfi_endproc
.LFE3716:
	.size	_ZN4asio6detail10socket_ops5closeEiRhbRSt10error_code, .-_ZN4asio6detail10socket_ops5closeEiRhbRSt10error_code
	.section	.text._ZN4asio2ip6detail8endpointC2ERKNS0_7addressEt,"axG",@progbits,_ZN4asio2ip6detail8endpointC5ERKNS0_7addressEt,comdat
	.align 2
	.p2align 4
	.weak	_ZN4asio2ip6detail8endpointC2ERKNS0_7addressEt
	.type	_ZN4asio2ip6detail8endpointC2ERKNS0_7addressEt, @function
_ZN4asio2ip6detail8endpointC2ERKNS0_7addressEt:
.LFB5930:
	.cfi_startproc
	.cfi_personality 0x9b,DW.ref.__gxx_personality_v0
	.cfi_lsda 0x1b,.LLSDA5930
	endbr64
	pushq	%rbp
	.cfi_def_cfa_offset 16
	.cfi_offset 6, -16
	pxor	%xmm0, %xmm0
	rolw	$8, %dx
	subq	$16, %rsp
	.cfi_def_cfa_offset 32
	movl	(%rsi), %r8d
	movq	%fs:40, %rax
	movq	%rax, 8(%rsp)
	xorl	%eax, %eax
	movq	$0, 16(%rdi)
	movl	$0, 24(%rdi)
	movups	%xmm0, (%rdi)
	testl	%r8d, %r8d
	jne	.L1233
	movl	4(%rsi), %eax
	movl	$2, %ecx
	movw	%dx, 2(%rdi)
	movw	%cx, (%rdi)
	movl	%eax, 4(%rdi)
.L1232:
	movq	8(%rsp), %rax
	xorq	%fs:40, %rax
	jne	.L1240
	addq	$16, %rsp
	.cfi_remember_state
	.cfi_def_cfa_offset 16
	popq	%rbp
	.cfi_def_cfa_offset 8
	ret
	.p2align 4,,10
	.p2align 3
.L1233:
	.cfi_restore_state
	movl	$10, %eax
	movw	%dx, 2(%rdi)
	movw	%ax, (%rdi)
	movl	$0, 4(%rdi)
	cmpl	$1, (%rsi)
	jne	.L1241
	movq	24(%rsi), %rax
	movdqu	8(%rsi), %xmm1
	movl	%eax, 24(%rdi)
	movups	%xmm1, 8(%rdi)
	jmp	.L1232
.L1240:
	call	__stack_chk_fail@PLT
.L1241:
	movq	_ZTVSt8bad_cast@GOTPCREL(%rip), %rax
	addq	$16, %rax
	movq	%rax, (%rsp)
.LEHB5:
	call	_ZN4asio6detail15throw_exceptionISt8bad_castEEvRKT_.isra.0
.LEHE5:
.L1238:
	endbr64
	movq	%rax, %rbp
.L1236:
	movq	%rsp, %rdi
	call	_ZNSt8bad_castD1Ev@PLT
	movq	%rbp, %rdi
.LEHB6:
	call	_Unwind_Resume@PLT
.LEHE6:
	.cfi_endproc
.LFE5930:
	.section	.gcc_except_table._ZN4asio2ip6detail8endpointC2ERKNS0_7addressEt,"aG",@progbits,_ZN4asio2ip6detail8endpointC5ERKNS0_7addressEt,comdat
.LLSDA5930:
	.byte	0xff
	.byte	0xff
	.byte	0x1
	.uleb128 .LLSDACSE5930-.LLSDACSB5930
.LLSDACSB5930:
	.uleb128 .LEHB5-.LFB5930
	.uleb128 .LEHE5-.LEHB5
	.uleb128 .L1238-.LFB5930
	.uleb128 0
	.uleb128 .LEHB6-.LFB5930
	.uleb128 .LEHE6-.LEHB6
	.uleb128 0
	.uleb128 0
.LLSDACSE5930:
	.section	.text._ZN4asio2ip6detail8endpointC2ERKNS0_7addressEt,"axG",@progbits,_ZN4asio2ip6detail8endpointC5ERKNS0_7addressEt,comdat
	.size	_ZN4asio2ip6detail8endpointC2ERKNS0_7addressEt, .-_ZN4asio2ip6detail8endpointC2ERKNS0_7addressEt
	.weak	_ZN4asio2ip6detail8endpointC1ERKNS0_7addressEt
	.set	_ZN4asio2ip6detail8endpointC1ERKNS0_7addressEt,_ZN4asio2ip6detail8endpointC2ERKNS0_7addressEt
	.text
	.align 2
	.p2align 4
	.globl	_ZN8asiodnp315MasterTCPServerC2ERKN7openpal6LoggerERKSt10shared_ptrIN7asiopal8ExecutorEERKNS6_10IPEndpointERKS5_INS_16IListenCallbacksEERKS5_INS6_15ResourceManagerEERSt10error_code
	.type	_ZN8asiodnp315MasterTCPServerC2ERKN7openpal6LoggerERKSt10shared_ptrIN7asiopal8ExecutorEERKNS6_10IPEndpointERKS5_INS_16IListenCallbacksEERKS5_INS6_15ResourceManagerEERSt10error_code, @function
_ZN8asiodnp315MasterTCPServerC2ERKN7openpal6LoggerERKSt10shared_ptrIN7asiopal8ExecutorEERKNS6_10IPEndpointERKS5_INS_16IListenCallbacksEERKS5_INS6_15ResourceManagerEERSt10error_code:
.LFB8132:
	.cfi_startproc
	endbr64
	pushq	%r12
	.cfi_def_cfa_offset 16
	.cfi_offset 12, -16
	movq	%r8, %r12
	pushq	%rbp
	.cfi_def_cfa_offset 24
	.cfi_offset 6, -24
	movq	%r9, %rbp
	pushq	%rbx
	.cfi_def_cfa_offset 32
	.cfi_offset 3, -32
	movq	32(%rsp), %r8
	movq	%rdi, %rbx
	call	_ZN7asiopal9TCPServerC2ERKN7openpal6LoggerERKSt10shared_ptrINS_8ExecutorEERKNS_10IPEndpointERSt10error_code@PLT
	movq	_ZTVN8asiodnp315MasterTCPServerE@GOTPCREL(%rip), %rax
	addq	$16, %rax
	movq	%rax, (%rbx)
	movq	(%r12), %rax
	movq	%rax, 208(%rbx)
	movq	8(%r12), %rax
	movq	%rax, 216(%rbx)
	testq	%rax, %rax
	je	.L1243
	cmpq	$0, _ZL28__gthrw___pthread_key_createPjPFvPvE@GOTPCREL(%rip)
	je	.L1244
	lock addl	$1, 8(%rax)
.L1243:
	movq	0(%rbp), %rax
	movq	%rax, 224(%rbx)
	movq	8(%rbp), %rax
	movq	%rax, 232(%rbx)
	testq	%rax, %rax
	je	.L1242
	cmpq	$0, _ZL28__gthrw___pthread_key_createPjPFvPvE@GOTPCREL(%rip)
	je	.L1246
	lock addl	$1, 8(%rax)
.L1242:
	popq	%rbx
	.cfi_remember_state
	.cfi_def_cfa_offset 24
	popq	%rbp
	.cfi_def_cfa_offset 16
	popq	%r12
	.cfi_def_cfa_offset 8
	ret
	.p2align 4,,10
	.p2align 3
.L1244:
	.cfi_restore_state
	addl	$1, 8(%rax)
	jmp	.L1243
	.p2align 4,,10
	.p2align 3
.L1246:
	addl	$1, 8(%rax)
	popq	%rbx
	.cfi_def_cfa_offset 24
	popq	%rbp
	.cfi_def_cfa_offset 16
	popq	%r12
	.cfi_def_cfa_offset 8
	ret
	.cfi_endproc
.LFE8132:
	.size	_ZN8asiodnp315MasterTCPServerC2ERKN7openpal6LoggerERKSt10shared_ptrIN7asiopal8ExecutorEERKNS6_10IPEndpointERKS5_INS_16IListenCallbacksEERKS5_INS6_15ResourceManagerEERSt10error_code, .-_ZN8asiodnp315MasterTCPServerC2ERKN7openpal6LoggerERKSt10shared_ptrIN7asiopal8ExecutorEERKNS6_10IPEndpointERKS5_INS_16IListenCallbacksEERKS5_INS6_15ResourceManagerEERSt10error_code
	.globl	_ZN8asiodnp315MasterTCPServerC1ERKN7openpal6LoggerERKSt10shared_ptrIN7asiopal8ExecutorEERKNS6_10IPEndpointERKS5_INS_16IListenCallbacksEERKS5_INS6_15ResourceManagerEERSt10error_code
	.set	_ZN8asiodnp315MasterTCPServerC1ERKN7openpal6LoggerERKSt10shared_ptrIN7asiopal8ExecutorEERKNS6_10IPEndpointERKS5_INS_16IListenCallbacksEERKS5_INS6_15ResourceManagerEERSt10error_code,_ZN8asiodnp315MasterTCPServerC2ERKN7openpal6LoggerERKSt10shared_ptrIN7asiopal8ExecutorEERKNS6_10IPEndpointERKS5_INS_16IListenCallbacksEERKS5_INS6_15ResourceManagerEERSt10error_code
	.section	.text.unlikely._ZN4asio6detail15throw_exceptionISt12system_errorEEvRKT_,"axG",@progbits,_ZN4asio6detail15throw_exceptionISt12system_errorEEvRKT_,comdat
	.weak	_ZN4asio6detail15throw_exceptionISt12system_errorEEvRKT_
	.type	_ZN4asio6detail15throw_exceptionISt12system_errorEEvRKT_, @function
_ZN4asio6detail15throw_exceptionISt12system_errorEEvRKT_:
.LFB8427:
	.cfi_startproc
	endbr64
	pushq	%rbp
	.cfi_def_cfa_offset 16
	.cfi_offset 6, -16
	pushq	%rbx
	.cfi_def_cfa_offset 24
	.cfi_offset 3, -24
	movq	%rdi, %rbx
	movl	$32, %edi
	pushq	%rax
	.cfi_def_cfa_offset 32
	call	__cxa_allocate_exception@PLT
	movq	%rbx, %rsi
	movq	%rax, %rdi
	movq	%rax, %rbp
	call	_ZNSt13runtime_errorC2ERKS_@PLT
	movq	_ZTVSt12system_error@GOTPCREL(%rip), %rax
	movups	16(%rbx), %xmm0
	movq	%rbp, %rdi
	movq	_ZNSt12system_errorD1Ev@GOTPCREL(%rip), %rdx
	movq	_ZTISt12system_error@GOTPCREL(%rip), %rsi
	addq	$16, %rax
	movups	%xmm0, 16(%rbp)
	movq	%rax, 0(%rbp)
	call	__cxa_throw@PLT
	.cfi_endproc
.LFE8427:
	.size	_ZN4asio6detail15throw_exceptionISt12system_errorEEvRKT_, .-_ZN4asio6detail15throw_exceptionISt12system_errorEEvRKT_
	.section	.text.unlikely
.LCOLDB24:
	.text
.LHOTB24:
	.p2align 4
	.type	_ZN4asio6detail14do_throw_errorERKSt10error_code.isra.0, @function
_ZN4asio6detail14do_throw_errorERKSt10error_code.isra.0:
.LFB11313:
	.cfi_startproc
	.cfi_personality 0x9b,DW.ref.__gxx_personality_v0
	.cfi_lsda 0x1b,.LLSDA11313
	pushq	%r13
	.cfi_def_cfa_offset 16
	.cfi_offset 13, -16
	movl	%edi, %edx
	pushq	%r12
	.cfi_def_cfa_offset 24
	.cfi_offset 12, -24
	pushq	%rbp
	.cfi_def_cfa_offset 32
	.cfi_offset 6, -32
	movl	%edi, %ebp
	pushq	%rbx
	.cfi_def_cfa_offset 40
	.cfi_offset 3, -40
	movq	%rsi, %rbx
	subq	$88, %rsp
	.cfi_def_cfa_offset 128
	movq	%fs:40, %rax
	movq	%rax, 72(%rsp)
	xorl	%eax, %eax
	movq	(%rsi), %rax
	leaq	32(%rsp), %r12
	movq	%rsp, %r13
	movq	%r12, %rdi
.LEHB7:
	call	*32(%rax)
.LEHE7:
	movq	%r12, %rsi
	movq	%r13, %rdi
.LEHB8:
	call	_ZNSt13runtime_errorC2ERKNSt7__cxx1112basic_stringIcSt11char_traitsIcESaIcEEE@PLT
.LEHE8:
	movq	32(%rsp), %rdi
	leaq	48(%rsp), %rax
	cmpq	%rax, %rdi
	je	.L1257
	call	_ZdlPv@PLT
	jmp	.L1257
.L1263:
	endbr64
	movq	%rax, %rbp
	jmp	.L1258
	.section	.gcc_except_table,"a",@progbits
.LLSDA11313:
	.byte	0xff
	.byte	0xff
	.byte	0x1
	.uleb128 .LLSDACSE11313-.LLSDACSB11313
.LLSDACSB11313:
	.uleb128 .LEHB7-.LFB11313
	.uleb128 .LEHE7-.LEHB7
	.uleb128 0
	.uleb128 0
	.uleb128 .LEHB8-.LFB11313
	.uleb128 .LEHE8-.LEHB8
	.uleb128 .L1263-.LFB11313
	.uleb128 0
.LLSDACSE11313:
	.text
	.cfi_endproc
	.section	.text.unlikely
	.cfi_startproc
	.cfi_personality 0x9b,DW.ref.__gxx_personality_v0
	.cfi_lsda 0x1b,.LLSDAC11313
	.type	_ZN4asio6detail14do_throw_errorERKSt10error_code.isra.0.cold, @function
_ZN4asio6detail14do_throw_errorERKSt10error_code.isra.0.cold:
.LFSB11313:
.L1257:
	.cfi_def_cfa_offset 128
	.cfi_offset 3, -40
	.cfi_offset 6, -32
	.cfi_offset 12, -24
	.cfi_offset 13, -16
	movq	_ZTVSt12system_error@GOTPCREL(%rip), %rax
	movq	%r13, %rdi
	movl	%ebp, 16(%rsp)
	movq	%rbx, 24(%rsp)
	addq	$16, %rax
	movq	%rax, (%rsp)
.LEHB9:
	call	_ZN4asio6detail15throw_exceptionISt12system_errorEEvRKT_@PLT
.LEHE9:
.L1258:
	movq	32(%rsp), %rdi
	leaq	48(%rsp), %rax
	cmpq	%rax, %rdi
	je	.L1265
	call	_ZdlPv@PLT
	jmp	.L1265
.L1262:
	endbr64
	movq	%r13, %rdi
	movq	%rax, %rbp
	call	_ZNSt12system_errorD1Ev@PLT
.L1265:
	movq	%rbp, %rdi
.LEHB10:
	call	_Unwind_Resume@PLT
.LEHE10:
	.cfi_endproc
.LFE11313:
	.section	.gcc_except_table
.LLSDAC11313:
	.byte	0xff
	.byte	0xff
	.byte	0x1
	.uleb128 .LLSDACSEC11313-.LLSDACSBC11313
.LLSDACSBC11313:
	.uleb128 .LEHB9-.LCOLDB24
	.uleb128 .LEHE9-.LEHB9
	.uleb128 .L1262-.LCOLDB24
	.uleb128 0
	.uleb128 .LEHB10-.LCOLDB24
	.uleb128 .LEHE10-.LEHB10
	.uleb128 0
	.uleb128 0
.LLSDACSEC11313:
	.section	.text.unlikely
	.text
	.size	_ZN4asio6detail14do_throw_errorERKSt10error_code.isra.0, .-_ZN4asio6detail14do_throw_errorERKSt10error_code.isra.0
	.section	.text.unlikely
	.size	_ZN4asio6detail14do_throw_errorERKSt10error_code.isra.0.cold, .-_ZN4asio6detail14do_throw_errorERKSt10error_code.isra.0.cold
.LCOLDE24:
	.text
.LHOTE24:
	.section	.text.unlikely
.LCOLDB25:
	.text
.LHOTB25:
	.p2align 4
	.type	_ZN4asio6detail14do_throw_errorERKSt10error_codePKc.isra.0, @function
_ZN4asio6detail14do_throw_errorERKSt10error_codePKc.isra.0:
.LFB11318:
	.cfi_startproc
	.cfi_personality 0x9b,DW.ref.__gxx_personality_v0
	.cfi_lsda 0x1b,.LLSDA11318
	pushq	%r12
	.cfi_def_cfa_offset 16
	.cfi_offset 12, -16
	movq	%rsi, %r8
	movq	%rdx, %rcx
	movl	%edi, %esi
	pushq	%rbp
	.cfi_def_cfa_offset 24
	.cfi_offset 6, -24
	movq	%r8, %rdx
	subq	$56, %rsp
	.cfi_def_cfa_offset 80
	movq	%fs:40, %rax
	movq	%rax, 40(%rsp)
	xorl	%eax, %eax
	movq	%rsp, %rbp
	movq	%rbp, %rdi
.LEHB11:
	call	_ZNSt12system_errorC1ESt10error_codePKc@PLT
.LEHE11:
	movq	%rbp, %rdi
.LEHB12:
	call	_ZN4asio6detail15throw_exceptionISt12system_errorEEvRKT_@PLT
.LEHE12:
.L1269:
	endbr64
	movq	%rax, %r12
	jmp	.L1267
	.section	.gcc_except_table
.LLSDA11318:
	.byte	0xff
	.byte	0xff
	.byte	0x1
	.uleb128 .LLSDACSE11318-.LLSDACSB11318
.LLSDACSB11318:
	.uleb128 .LEHB11-.LFB11318
	.uleb128 .LEHE11-.LEHB11
	.uleb128 0
	.uleb128 0
	.uleb128 .LEHB12-.LFB11318
	.uleb128 .LEHE12-.LEHB12
	.uleb128 .L1269-.LFB11318
	.uleb128 0
.LLSDACSE11318:
	.text
	.cfi_endproc
	.section	.text.unlikely
	.cfi_startproc
	.cfi_personality 0x9b,DW.ref.__gxx_personality_v0
	.cfi_lsda 0x1b,.LLSDAC11318
	.type	_ZN4asio6detail14do_throw_errorERKSt10error_codePKc.isra.0.cold, @function
_ZN4asio6detail14do_throw_errorERKSt10error_codePKc.isra.0.cold:
.LFSB11318:
.L1267:
	.cfi_def_cfa_offset 80
	.cfi_offset 6, -24
	.cfi_offset 12, -16
	movq	%rbp, %rdi
	call	_ZNSt12system_errorD1Ev@PLT
	movq	%r12, %rdi
.LEHB13:
	call	_Unwind_Resume@PLT
.LEHE13:
	.cfi_endproc
.LFE11318:
	.section	.gcc_except_table
.LLSDAC11318:
	.byte	0xff
	.byte	0xff
	.byte	0x1
	.uleb128 .LLSDACSEC11318-.LLSDACSBC11318
.LLSDACSBC11318:
	.uleb128 .LEHB13-.LCOLDB25
	.uleb128 .LEHE13-.LEHB13
	.uleb128 0
	.uleb128 0
.LLSDACSEC11318:
	.section	.text.unlikely
	.text
	.size	_ZN4asio6detail14do_throw_errorERKSt10error_codePKc.isra.0, .-_ZN4asio6detail14do_throw_errorERKSt10error_codePKc.isra.0
	.section	.text.unlikely
	.size	_ZN4asio6detail14do_throw_errorERKSt10error_codePKc.isra.0.cold, .-_ZN4asio6detail14do_throw_errorERKSt10error_codePKc.isra.0.cold
.LCOLDE25:
	.text
.LHOTE25:
	.section	.text.unlikely._ZN4asio6detail15throw_exceptionISt12out_of_rangeEEvRKT_,"axG",@progbits,_ZN4asio6detail15throw_exceptionISt12out_of_rangeEEvRKT_,comdat
	.weak	_ZN4asio6detail15throw_exceptionISt12out_of_rangeEEvRKT_
	.type	_ZN4asio6detail15throw_exceptionISt12out_of_rangeEEvRKT_, @function
_ZN4asio6detail15throw_exceptionISt12out_of_rangeEEvRKT_:
.LFB8577:
	.cfi_startproc
	endbr64
	pushq	%r12
	.cfi_def_cfa_offset 16
	.cfi_offset 12, -16
	movq	%rdi, %r12
	movl	$16, %edi
	pushq	%rbp
	.cfi_def_cfa_offset 24
	.cfi_offset 6, -24
	pushq	%rax
	.cfi_def_cfa_offset 32
	call	__cxa_allocate_exception@PLT
	movq	%r12, %rsi
	movq	%rax, %rdi
	movq	%rax, %rbp
	call	_ZNSt11logic_errorC2ERKS_@PLT
	movq	_ZTVSt12out_of_range@GOTPCREL(%rip), %rax
	movq	_ZNSt12out_of_rangeD1Ev@GOTPCREL(%rip), %rdx
	movq	%rbp, %rdi
	movq	_ZTISt12out_of_range@GOTPCREL(%rip), %rsi
	addq	$16, %rax
	movq	%rax, 0(%rbp)
	call	__cxa_throw@PLT
	.cfi_endproc
.LFE8577:
	.size	_ZN4asio6detail15throw_exceptionISt12out_of_rangeEEvRKT_, .-_ZN4asio6detail15throw_exceptionISt12out_of_rangeEEvRKT_
	.section	.text._ZNSt7__cxx1115basic_stringbufIcSt11char_traitsIcESaIcEED2Ev,"axG",@progbits,_ZNSt7__cxx1115basic_stringbufIcSt11char_traitsIcESaIcEED5Ev,comdat
	.align 2
	.p2align 4
	.weak	_ZNSt7__cxx1115basic_stringbufIcSt11char_traitsIcESaIcEED2Ev
	.type	_ZNSt7__cxx1115basic_stringbufIcSt11char_traitsIcESaIcEED2Ev, @function
_ZNSt7__cxx1115basic_stringbufIcSt11char_traitsIcESaIcEED2Ev:
.LFB8660:
	.cfi_startproc
	endbr64
	movq	_ZTVNSt7__cxx1115basic_stringbufIcSt11char_traitsIcESaIcEEE@GOTPCREL(%rip), %rax
	pushq	%rbx
	.cfi_def_cfa_offset 16
	.cfi_offset 3, -16
	movq	%rdi, %rbx
	addq	$16, %rax
	movq	%rax, (%rdi)
	movq	72(%rdi), %rdi
	leaq	88(%rbx), %rax
	cmpq	%rax, %rdi
	je	.L1274
	call	_ZdlPv@PLT
.L1274:
	movq	_ZTVSt15basic_streambufIcSt11char_traitsIcEE@GOTPCREL(%rip), %rax
	leaq	56(%rbx), %rdi
	addq	$16, %rax
	movq	%rax, (%rbx)
	popq	%rbx
	.cfi_def_cfa_offset 8
	jmp	_ZNSt6localeD1Ev@PLT
	.cfi_endproc
.LFE8660:
	.size	_ZNSt7__cxx1115basic_stringbufIcSt11char_traitsIcESaIcEED2Ev, .-_ZNSt7__cxx1115basic_stringbufIcSt11char_traitsIcESaIcEED2Ev
	.weak	_ZNSt7__cxx1115basic_stringbufIcSt11char_traitsIcESaIcEED1Ev
	.set	_ZNSt7__cxx1115basic_stringbufIcSt11char_traitsIcESaIcEED1Ev,_ZNSt7__cxx1115basic_stringbufIcSt11char_traitsIcESaIcEED2Ev
	.section	.text._ZNSt7__cxx1115basic_stringbufIcSt11char_traitsIcESaIcEED0Ev,"axG",@progbits,_ZNSt7__cxx1115basic_stringbufIcSt11char_traitsIcESaIcEED5Ev,comdat
	.align 2
	.p2align 4
	.weak	_ZNSt7__cxx1115basic_stringbufIcSt11char_traitsIcESaIcEED0Ev
	.type	_ZNSt7__cxx1115basic_stringbufIcSt11char_traitsIcESaIcEED0Ev, @function
_ZNSt7__cxx1115basic_stringbufIcSt11char_traitsIcESaIcEED0Ev:
.LFB8662:
	.cfi_startproc
	endbr64
	movq	_ZTVNSt7__cxx1115basic_stringbufIcSt11char_traitsIcESaIcEEE@GOTPCREL(%rip), %rax
	pushq	%rbp
	.cfi_def_cfa_offset 16
	.cfi_offset 6, -16
	movq	%rdi, %rbp
	addq	$16, %rax
	movq	%rax, (%rdi)
	movq	72(%rdi), %rdi
	leaq	88(%rbp), %rax
	cmpq	%rax, %rdi
	je	.L1277
	call	_ZdlPv@PLT
.L1277:
	movq	_ZTVSt15basic_streambufIcSt11char_traitsIcEE@GOTPCREL(%rip), %rax
	leaq	56(%rbp), %rdi
	addq	$16, %rax
	movq	%rax, 0(%rbp)
	call	_ZNSt6localeD1Ev@PLT
	movq	%rbp, %rdi
	movl	$104, %esi
	popq	%rbp
	.cfi_def_cfa_offset 8
	jmp	_ZdlPvm@PLT
	.cfi_endproc
.LFE8662:
	.size	_ZNSt7__cxx1115basic_stringbufIcSt11char_traitsIcESaIcEED0Ev, .-_ZNSt7__cxx1115basic_stringbufIcSt11char_traitsIcESaIcEED0Ev
	.section	.rodata.str1.1,"aMS",@progbits,1
.LC26:
	.string	"session-"
	.section	.text.unlikely
	.align 2
.LCOLDB27:
	.text
.LHOTB27:
	.align 2
	.p2align 4
	.globl	_ZN8asiodnp315MasterTCPServer17SessionIdToStringB5cxx11Em
	.type	_ZN8asiodnp315MasterTCPServer17SessionIdToStringB5cxx11Em, @function
_ZN8asiodnp315MasterTCPServer17SessionIdToStringB5cxx11Em:
.LFB8155:
	.cfi_startproc
	.cfi_personality 0x9b,DW.ref.__gxx_personality_v0
	.cfi_lsda 0x1b,.LLSDA8155
	endbr64
	pushq	%r15
	.cfi_def_cfa_offset 16
	.cfi_offset 15, -16
	pushq	%r14
	.cfi_def_cfa_offset 24
	.cfi_offset 14, -24
	pushq	%r13
	.cfi_def_cfa_offset 32
	.cfi_offset 13, -32
	pushq	%r12
	.cfi_def_cfa_offset 40
	.cfi_offset 12, -40
	movq	%rdi, %r12
	pushq	%rbp
	.cfi_def_cfa_offset 48
	.cfi_offset 6, -48
	pushq	%rbx
	.cfi_def_cfa_offset 56
	.cfi_offset 3, -56
	subq	$424, %rsp
	.cfi_def_cfa_offset 480
	movq	%rsi, 16(%rsp)
	leaq	144(%rsp), %r13
	leaq	32(%rsp), %rbp
	movq	%r13, %rdi
	movq	%fs:40, %rax
	movq	%rax, 408(%rsp)
	xorl	%eax, %eax
	call	_ZNSt8ios_baseC2Ev@PLT
	movq	_ZTVSt9basic_iosIcSt11char_traitsIcEE@GOTPCREL(%rip), %rax
	pxor	%xmm0, %xmm0
	xorl	%esi, %esi
	movups	%xmm0, 376(%rsp)
	addq	$16, %rax
	movups	%xmm0, 392(%rsp)
	movq	%rax, 144(%rsp)
	xorl	%eax, %eax
	movw	%ax, 368(%rsp)
	movq	_ZTTNSt7__cxx1119basic_ostringstreamIcSt11char_traitsIcESaIcEEE@GOTPCREL(%rip), %rax
	movq	$0, 360(%rsp)
	movq	8(%rax), %r15
	movq	16(%rax), %rax
	movq	-24(%r15), %rdi
	movq	%r15, 32(%rsp)
	movq	%rax, (%rsp)
	addq	%rbp, %rdi
	movq	%rax, (%rdi)
.LEHB14:
	call	_ZNSt9basic_iosIcSt11char_traitsIcEE4initEPSt15basic_streambufIcS1_E@PLT
.LEHE14:
	movq	_ZTVNSt7__cxx1119basic_ostringstreamIcSt11char_traitsIcESaIcEEE@GOTPCREL(%rip), %rax
	leaq	96(%rsp), %rbx
	leaq	40(%rsp), %r14
	movq	%rbx, %rdi
	leaq	24(%rax), %rdx
	addq	$64, %rax
	movq	%rax, 144(%rsp)
	movq	_ZTVSt15basic_streambufIcSt11char_traitsIcEE@GOTPCREL(%rip), %rax
	movq	%rdx, %xmm0
	movq	%rdx, 8(%rsp)
	addq	$16, %rax
	movq	%rax, %xmm1
	punpcklqdq	%xmm1, %xmm0
	movaps	%xmm0, 32(%rsp)
	pxor	%xmm0, %xmm0
	movaps	%xmm0, 48(%rsp)
	movaps	%xmm0, 64(%rsp)
	movaps	%xmm0, 80(%rsp)
	call	_ZNSt6localeC1Ev@PLT
	movq	_ZTVNSt7__cxx1115basic_stringbufIcSt11char_traitsIcESaIcEEE@GOTPCREL(%rip), %rax
	movq	%r14, %rsi
	movq	%r13, %rdi
	movl	$16, 104(%rsp)
	addq	$16, %rax
	movb	$0, 128(%rsp)
	movq	%rax, 40(%rsp)
	leaq	128(%rsp), %rax
	movq	%rax, 24(%rsp)
	movq	%rax, 112(%rsp)
	movq	$0, 120(%rsp)
.LEHB15:
	call	_ZNSt9basic_iosIcSt11char_traitsIcEE4initEPSt15basic_streambufIcS1_E@PLT
.LEHE15:
	movl	$8, %edx
	leaq	.LC26(%rip), %rsi
	movq	%rbp, %rdi
.LEHB16:
	call	_ZSt16__ostream_insertIcSt11char_traitsIcEERSt13basic_ostreamIT_T0_ES6_PKS3_l@PLT
	movq	16(%rsp), %rsi
	movq	%rbp, %rdi
	call	_ZNSo9_M_insertImEERSoT_@PLT
.LEHE16:
	movq	80(%rsp), %rax
	leaq	16(%r12), %r14
	movq	$0, 8(%r12)
	movq	%r14, (%r12)
	movb	$0, 16(%r12)
	testq	%rax, %rax
	je	.L1283
	movq	64(%rsp), %r8
	movq	72(%rsp), %rcx
	cmpq	%r8, %rax
	ja	.L1299
	subq	%rcx, %r8
	xorl	%edx, %edx
	xorl	%esi, %esi
	movq	%r12, %rdi
.LEHB17:
	call	_ZNSt7__cxx1112basic_stringIcSt11char_traitsIcESaIcEE10_M_replaceEmmPKcm@PLT
.L1285:
	movq	_ZTVNSt7__cxx1119basic_ostringstreamIcSt11char_traitsIcESaIcEEE@GOTPCREL(%rip), %rax
	movq	8(%rsp), %xmm0
	movq	112(%rsp), %rdi
	addq	$64, %rax
	movq	%rax, 144(%rsp)
	movq	_ZTVNSt7__cxx1115basic_stringbufIcSt11char_traitsIcESaIcEEE@GOTPCREL(%rip), %rax
	addq	$16, %rax
	movq	%rax, %xmm2
	punpcklqdq	%xmm2, %xmm0
	movaps	%xmm0, 32(%rsp)
	cmpq	24(%rsp), %rdi
	je	.L1287
	call	_ZdlPv@PLT
.L1287:
	movq	_ZTVSt15basic_streambufIcSt11char_traitsIcEE@GOTPCREL(%rip), %rax
	movq	%rbx, %rdi
	addq	$16, %rax
	movq	%rax, 40(%rsp)
	call	_ZNSt6localeD1Ev@PLT
	movq	-24(%r15), %rax
	movq	(%rsp), %rbx
	movq	%r13, %rdi
	movq	%r15, 32(%rsp)
	movq	%rbx, 32(%rsp,%rax)
	movq	_ZTVSt9basic_iosIcSt11char_traitsIcEE@GOTPCREL(%rip), %rax
	addq	$16, %rax
	movq	%rax, 144(%rsp)
	call	_ZNSt8ios_baseD2Ev@PLT
	movq	408(%rsp), %rax
	xorq	%fs:40, %rax
	jne	.L1300
	addq	$424, %rsp
	.cfi_remember_state
	.cfi_def_cfa_offset 56
	movq	%r12, %rax
	popq	%rbx
	.cfi_def_cfa_offset 48
	popq	%rbp
	.cfi_def_cfa_offset 40
	popq	%r12
	.cfi_def_cfa_offset 32
	popq	%r13
	.cfi_def_cfa_offset 24
	popq	%r14
	.cfi_def_cfa_offset 16
	popq	%r15
	.cfi_def_cfa_offset 8
	ret
	.p2align 4,,10
	.p2align 3
.L1299:
	.cfi_restore_state
	subq	%rcx, %rax
	xorl	%edx, %edx
	xorl	%esi, %esi
	movq	%r12, %rdi
	movq	%rax, %r8
	call	_ZNSt7__cxx1112basic_stringIcSt11char_traitsIcESaIcEE10_M_replaceEmmPKcm@PLT
	jmp	.L1285
	.p2align 4,,10
	.p2align 3
.L1283:
	leaq	112(%rsp), %rsi
	movq	%r12, %rdi
	call	_ZNSt7__cxx1112basic_stringIcSt11char_traitsIcESaIcEE9_M_assignERKS4_@PLT
.LEHE17:
	jmp	.L1285
.L1300:
	call	__stack_chk_fail@PLT
.L1292:
	endbr64
	movq	%rax, %r12
	jmp	.L1290
.L1294:
	endbr64
	movq	%rax, %rbp
	jmp	.L1281
.L1293:
	endbr64
	movq	%rax, %rbp
	jmp	.L1282
.L1295:
	endbr64
	movq	%rax, %rbx
	jmp	.L1288
	.section	.gcc_except_table
.LLSDA8155:
	.byte	0xff
	.byte	0xff
	.byte	0x1
	.uleb128 .LLSDACSE8155-.LLSDACSB8155
.LLSDACSB8155:
	.uleb128 .LEHB14-.LFB8155
	.uleb128 .LEHE14-.LEHB14
	.uleb128 .L1293-.LFB8155
	.uleb128 0
	.uleb128 .LEHB15-.LFB8155
	.uleb128 .LEHE15-.LEHB15
	.uleb128 .L1294-.LFB8155
	.uleb128 0
	.uleb128 .LEHB16-.LFB8155
	.uleb128 .LEHE16-.LEHB16
	.uleb128 .L1292-.LFB8155
	.uleb128 0
	.uleb128 .LEHB17-.LFB8155
	.uleb128 .LEHE17-.LEHB17
	.uleb128 .L1295-.LFB8155
	.uleb128 0
.LLSDACSE8155:
	.text
	.cfi_endproc
	.section	.text.unlikely
	.cfi_startproc
	.cfi_personality 0x9b,DW.ref.__gxx_personality_v0
	.cfi_lsda 0x1b,.LLSDAC8155
	.type	_ZN8asiodnp315MasterTCPServer17SessionIdToStringB5cxx11Em.cold, @function
_ZN8asiodnp315MasterTCPServer17SessionIdToStringB5cxx11Em.cold:
.LFSB8155:
.L1288:
	.cfi_def_cfa_offset 480
	.cfi_offset 3, -56
	.cfi_offset 6, -48
	.cfi_offset 12, -40
	.cfi_offset 13, -32
	.cfi_offset 14, -24
	.cfi_offset 15, -16
	movq	(%r12), %rdi
	cmpq	%rdi, %r14
	je	.L1289
	call	_ZdlPv@PLT
.L1289:
	movq	%rbx, %r12
.L1290:
	movq	%rbp, %rdi
	call	_ZNSt7__cxx1119basic_ostringstreamIcSt11char_traitsIcESaIcEED1Ev@PLT
	movq	%r12, %rdi
.LEHB18:
	call	_Unwind_Resume@PLT
.L1281:
	movq	%r14, %rdi
	call	_ZNSt7__cxx1115basic_stringbufIcSt11char_traitsIcESaIcEED1Ev@PLT
	movq	-24(%r15), %rax
	movq	(%rsp), %rcx
	movq	%r15, 32(%rsp)
	movq	%rcx, 32(%rsp,%rax)
.L1282:
	movq	_ZTVSt9basic_iosIcSt11char_traitsIcEE@GOTPCREL(%rip), %rax
	movq	%r13, %rdi
	addq	$16, %rax
	movq	%rax, 144(%rsp)
	call	_ZNSt8ios_baseD2Ev@PLT
	movq	%rbp, %rdi
	call	_Unwind_Resume@PLT
.LEHE18:
	.cfi_endproc
.LFE8155:
	.section	.gcc_except_table
.LLSDAC8155:
	.byte	0xff
	.byte	0xff
	.byte	0x1
	.uleb128 .LLSDACSEC8155-.LLSDACSBC8155
.LLSDACSBC8155:
	.uleb128 .LEHB18-.LCOLDB27
	.uleb128 .LEHE18-.LEHB18
	.uleb128 0
	.uleb128 0
.LLSDACSEC8155:
	.section	.text.unlikely
	.text
	.size	_ZN8asiodnp315MasterTCPServer17SessionIdToStringB5cxx11Em, .-_ZN8asiodnp315MasterTCPServer17SessionIdToStringB5cxx11Em
	.section	.text.unlikely
	.size	_ZN8asiodnp315MasterTCPServer17SessionIdToStringB5cxx11Em.cold, .-_ZN8asiodnp315MasterTCPServer17SessionIdToStringB5cxx11Em.cold
.LCOLDE27:
	.text
.LHOTE27:
	.section	.rodata._ZN4asio2iplsIcSt11char_traitsIcENS0_3tcpEEERSt13basic_ostreamIT_T0_ES9_RKNS0_14basic_endpointIT1_EE.str1.1,"aMS",@progbits,1
.LC28:
	.string	"%lu"
	.section	.text._ZN4asio2iplsIcSt11char_traitsIcENS0_3tcpEEERSt13basic_ostreamIT_T0_ES9_RKNS0_14basic_endpointIT1_EE,"axG",@progbits,_ZN4asio2iplsIcSt11char_traitsIcENS0_3tcpEEERSt13basic_ostreamIT_T0_ES9_RKNS0_14basic_endpointIT1_EE,comdat
	.p2align 4
	.weak	_ZN4asio2iplsIcSt11char_traitsIcENS0_3tcpEEERSt13basic_ostreamIT_T0_ES9_RKNS0_14basic_endpointIT1_EE
	.type	_ZN4asio2iplsIcSt11char_traitsIcENS0_3tcpEEERSt13basic_ostreamIT_T0_ES9_RKNS0_14basic_endpointIT1_EE, @function
_ZN4asio2iplsIcSt11char_traitsIcENS0_3tcpEEERSt13basic_ostreamIT_T0_ES9_RKNS0_14basic_endpointIT1_EE:
.LFB9041:
	.cfi_startproc
	.cfi_personality 0x9b,DW.ref.__gxx_personality_v0
	.cfi_lsda 0x1b,.LLSDA9041
	endbr64
	pushq	%r15
	.cfi_def_cfa_offset 16
	.cfi_offset 15, -16
	pushq	%r14
	.cfi_def_cfa_offset 24
	.cfi_offset 14, -24
	pushq	%r13
	.cfi_def_cfa_offset 32
	.cfi_offset 13, -32
	pushq	%r12
	.cfi_def_cfa_offset 40
	.cfi_offset 12, -40
	movq	%rdi, %r12
	pushq	%rbp
	.cfi_def_cfa_offset 48
	.cfi_offset 6, -48
	pushq	%rbx
	.cfi_def_cfa_offset 56
	.cfi_offset 3, -56
	subq	$664, %rsp
	.cfi_def_cfa_offset 720
	movzwl	2(%rsi), %edx
	movq	%fs:40, %rax
	movq	%rax, 648(%rsp)
	xorl	%eax, %eax
	rolw	$8, %dx
	cmpw	$2, (%rsi)
	movzwl	%dx, %edx
	je	.L1418
	movl	24(%rsi), %eax
	movdqu	8(%rsi), %xmm1
	movq	$1, 160(%rsp)
	movq	%rax, 184(%rsp)
	movups	%xmm1, 168(%rsp)
.L1303:
	leaq	160(%rsp), %r14
	leaq	64(%rsp), %rdi
	movq	%r14, %rsi
.LEHB19:
	call	_ZN4asio2ip6detail8endpointC1ERKNS0_7addressEt@PLT
.LEHE19:
	call	__errno_location@PLT
	cmpw	$2, 64(%rsp)
	movq	%rax, %rbx
	je	.L1419
	movl	$0, (%rax)
	movl	88(%rsp), %ebp
	leaq	576(%rsp), %r15
	leaq	168(%rsp), %rsi
	movdqu	72(%rsp), %xmm2
	movl	$63, %ecx
	movq	%r15, %rdx
	movl	$10, %edi
	movq	$1, 160(%rsp)
	movq	%rbp, %r13
	movq	%rbp, 184(%rsp)
	movups	%xmm2, 168(%rsp)
	call	inet_ntop@PLT
	movq	_ZGVZN4asio15system_categoryEvE8instance@GOTPCREL(%rip), %r8
	movq	%rax, %r9
	movzbl	(%r8), %eax
	testb	%al, %al
	je	.L1307
.L1408:
	movq	_ZZN4asio15system_categoryEvE8instance@GOTPCREL(%rip), %rax
	movq	%rax, 8(%rsp)
.L1308:
	movl	(%rbx), %ebx
	testq	%r9, %r9
	je	.L1417
	testq	%rbp, %rbp
	je	.L1320
	movzbl	168(%rsp), %eax
	movb	$0, 560(%rsp)
	movq	$37, 544(%rsp)
	movq	$0, 552(%rsp)
	cmpb	$-2, %al
	je	.L1420
	cmpb	$-1, %al
	jne	.L1409
	movzbl	169(%rsp), %eax
	leaq	545(%rsp), %r11
	andl	$15, %eax
	cmpb	$2, %al
	je	.L1317
.L1319:
	movq	%rbp, %r8
	leaq	.LC28(%rip), %rcx
	movq	%r11, %rdi
	xorl	%eax, %eax
	movl	$16, %edx
	movl	$1, %esi
	movq	%r9, 16(%rsp)
	call	__sprintf_chk@PLT
	movq	16(%rsp), %r9
.L1318:
	leaq	544(%rsp), %rsi
	movl	$63, %edx
	movq	%r15, %rdi
	movq	%r9, 16(%rsp)
	call	__strcat_chk@PLT
	movq	16(%rsp), %r9
.L1320:
	movq	%r9, %rdi
	leaq	144(%rsp), %rbp
	movq	%r9, 16(%rsp)
	leaq	128(%rsp), %r13
	movq	%rbp, 128(%rsp)
	call	strlen@PLT
	movq	16(%rsp), %r9
	cmpq	$15, %rax
	movq	%rax, 56(%rsp)
	movq	%rax, %r15
	ja	.L1421
	cmpq	$1, %rax
	jne	.L1322
	movzbl	(%r9), %edx
	movb	%dl, 144(%rsp)
	movq	%rbp, %rdx
	jmp	.L1333
	.p2align 4,,10
	.p2align 3
.L1419:
	movl	$0, (%rbx)
	movl	68(%rsp), %eax
	pxor	%xmm0, %xmm0
	leaq	576(%rsp), %rdx
	leaq	164(%rsp), %rsi
	movl	$16, %ecx
	movl	$2, %edi
	movl	$0, 160(%rsp)
	movl	%eax, 164(%rsp)
	movq	$0, 184(%rsp)
	movups	%xmm0, 168(%rsp)
	call	inet_ntop@PLT
	movq	_ZGVZN4asio15system_categoryEvE8instance@GOTPCREL(%rip), %r8
	movq	%rax, %r13
	movzbl	(%r8), %eax
	testb	%al, %al
	je	.L1305
.L1410:
	movq	_ZZN4asio15system_categoryEvE8instance@GOTPCREL(%rip), %rax
	movq	%rax, 8(%rsp)
.L1306:
	movl	(%rbx), %ebx
	testq	%r13, %r13
	je	.L1417
	leaq	144(%rsp), %rbp
	movq	%r13, %rdi
	leaq	128(%rsp), %r15
	movq	%rbp, 128(%rsp)
	call	strlen@PLT
	movq	%rax, 56(%rsp)
	movq	%rax, %r8
	cmpq	$15, %rax
	ja	.L1422
	cmpq	$1, %rax
	jne	.L1332
	movzbl	0(%r13), %edx
	movb	%dl, 144(%rsp)
	movq	%rbp, %rdx
.L1333:
	movq	%rax, 136(%rsp)
	movb	$0, (%rdx,%rax)
	testl	%ebx, %ebx
	jne	.L1315
.L1334:
	leaq	272(%rsp), %r15
	movq	%r15, %rdi
	call	_ZNSt8ios_baseC2Ev@PLT
	movq	_ZTVSt9basic_iosIcSt11char_traitsIcEE@GOTPCREL(%rip), %rax
	pxor	%xmm0, %xmm0
	xorl	%esi, %esi
	movups	%xmm0, 504(%rsp)
	addq	$16, %rax
	movups	%xmm0, 520(%rsp)
	movq	%rax, 272(%rsp)
	xorl	%eax, %eax
	movw	%ax, 496(%rsp)
	movq	_ZTTNSt7__cxx1119basic_ostringstreamIcSt11char_traitsIcESaIcEEE@GOTPCREL(%rip), %rax
	movq	$0, 488(%rsp)
	movq	8(%rax), %rcx
	movq	16(%rax), %rax
	movq	-24(%rcx), %rdi
	movq	%rcx, 160(%rsp)
	movq	%rcx, 8(%rsp)
	addq	%r14, %rdi
	movq	%rax, 16(%rsp)
	movq	%rax, (%rdi)
.LEHB20:
	call	_ZNSt9basic_iosIcSt11char_traitsIcEE4initEPSt15basic_streambufIcS1_E@PLT
.LEHE20:
	movq	_ZTVNSt7__cxx1119basic_ostringstreamIcSt11char_traitsIcESaIcEEE@GOTPCREL(%rip), %rax
	leaq	168(%rsp), %r13
	leaq	24(%rax), %rcx
	addq	$64, %rax
	movq	%rax, 272(%rsp)
	movq	_ZTVSt15basic_streambufIcSt11char_traitsIcEE@GOTPCREL(%rip), %rax
	movq	%rcx, %xmm0
	movq	%rcx, 24(%rsp)
	addq	$16, %rax
	movq	%rax, %xmm3
	leaq	224(%rsp), %rax
	punpcklqdq	%xmm3, %xmm0
	movq	%rax, %rdi
	movq	%rax, 32(%rsp)
	movaps	%xmm0, 160(%rsp)
	pxor	%xmm0, %xmm0
	movaps	%xmm0, 176(%rsp)
	movaps	%xmm0, 192(%rsp)
	movaps	%xmm0, 208(%rsp)
	call	_ZNSt6localeC1Ev@PLT
	movq	_ZTVNSt7__cxx1115basic_stringbufIcSt11char_traitsIcESaIcEEE@GOTPCREL(%rip), %rax
	movq	%r13, %rsi
	movq	%r15, %rdi
	movl	$16, 232(%rsp)
	addq	$16, %rax
	movb	$0, 256(%rsp)
	movq	%rax, 168(%rsp)
	leaq	256(%rsp), %rax
	movq	%rax, 40(%rsp)
	movq	%rax, 240(%rsp)
	movq	$0, 248(%rsp)
.LEHB21:
	call	_ZNSt9basic_iosIcSt11char_traitsIcEE4initEPSt15basic_streambufIcS1_E@PLT
.LEHE21:
.LEHB22:
	call	_ZNSt6locale7classicEv@PLT
	leaq	56(%rsp), %rbx
	movq	%rax, %rdx
	movq	%r15, %rsi
	movq	%rbx, %rdi
	call	_ZNSt9basic_iosIcSt11char_traitsIcEE5imbueERKSt6locale@PLT
	movq	%rbx, %rdi
	call	_ZNSt6localeD1Ev@PLT
	cmpw	$2, 64(%rsp)
	je	.L1423
	leaq	55(%rsp), %rsi
	movl	$1, %edx
	movq	%r14, %rdi
	movb	$91, 55(%rsp)
	call	_ZSt16__ostream_insertIcSt11char_traitsIcEERSt13basic_ostreamIT_T0_ES6_PKS3_l@PLT
	movq	136(%rsp), %rdx
	movq	128(%rsp), %rsi
	movq	%rax, %rdi
	call	_ZSt16__ostream_insertIcSt11char_traitsIcEERSt13basic_ostreamIT_T0_ES6_PKS3_l@PLT
	movq	%rax, %rdi
	leaq	54(%rsp), %rsi
	movl	$1, %edx
	movb	$93, 54(%rsp)
	call	_ZSt16__ostream_insertIcSt11char_traitsIcEERSt13basic_ostreamIT_T0_ES6_PKS3_l@PLT
.L1342:
	leaq	53(%rsp), %rsi
	movl	$1, %edx
	movq	%r14, %rdi
	movb	$58, 53(%rsp)
	call	_ZSt16__ostream_insertIcSt11char_traitsIcEERSt13basic_ostreamIT_T0_ES6_PKS3_l@PLT
	movzwl	66(%rsp), %esi
	movq	%rax, %rdi
	rolw	$8, %si
	movzwl	%si, %esi
	call	_ZNSo9_M_insertImEERSoT_@PLT
.LEHE22:
	leaq	112(%rsp), %r13
	movb	$0, 112(%rsp)
	leaq	96(%rsp), %rdi
	movq	208(%rsp), %rax
	movq	%r13, 96(%rsp)
	movq	$0, 104(%rsp)
	testq	%rax, %rax
	je	.L1343
	movq	192(%rsp), %r8
	movq	200(%rsp), %rcx
	cmpq	%r8, %rax
	ja	.L1424
	subq	%rcx, %r8
	xorl	%edx, %edx
	xorl	%esi, %esi
.LEHB23:
	call	_ZNSt7__cxx1112basic_stringIcSt11char_traitsIcESaIcEE10_M_replaceEmmPKcm@PLT
.LEHE23:
.L1345:
	movq	_ZTVNSt7__cxx1119basic_ostringstreamIcSt11char_traitsIcESaIcEEE@GOTPCREL(%rip), %rax
	movq	24(%rsp), %xmm0
	movq	240(%rsp), %rdi
	addq	$64, %rax
	movq	%rax, 272(%rsp)
	movq	_ZTVNSt7__cxx1115basic_stringbufIcSt11char_traitsIcESaIcEEE@GOTPCREL(%rip), %rax
	addq	$16, %rax
	movq	%rax, %xmm4
	punpcklqdq	%xmm4, %xmm0
	movaps	%xmm0, 160(%rsp)
	cmpq	40(%rsp), %rdi
	je	.L1347
	call	_ZdlPv@PLT
.L1347:
	movq	_ZTVSt15basic_streambufIcSt11char_traitsIcEE@GOTPCREL(%rip), %rax
	movq	32(%rsp), %rdi
	addq	$16, %rax
	movq	%rax, 168(%rsp)
	call	_ZNSt6localeD1Ev@PLT
	movq	8(%rsp), %rax
	movq	16(%rsp), %rcx
	movq	%r15, %rdi
	movq	%rax, 160(%rsp)
	movq	-24(%rax), %rax
	movq	%rcx, 160(%rsp,%rax)
	movq	_ZTVSt9basic_iosIcSt11char_traitsIcEE@GOTPCREL(%rip), %rax
	addq	$16, %rax
	movq	%rax, 272(%rsp)
	call	_ZNSt8ios_baseD2Ev@PLT
	movq	128(%rsp), %rdi
	cmpq	%rbp, %rdi
	je	.L1365
	call	_ZdlPv@PLT
.L1365:
	cmpq	$0, 104(%rsp)
	movq	96(%rsp), %rdi
	je	.L1356
	movq	%rdi, %r15
	jmp	.L1360
	.p2align 4,,10
	.p2align 3
.L1426:
	movzbl	57(%r14,%rbp), %ebp
.L1359:
	movl	$1, %edx
	movq	%rbx, %rsi
	movq	%r12, %rdi
	movb	%bpl, 56(%rsp)
.LEHB24:
	call	_ZSt16__ostream_insertIcSt11char_traitsIcEERSt13basic_ostreamIT_T0_ES6_PKS3_l@PLT
	movq	96(%rsp), %rdi
	movq	104(%rsp), %rax
	addq	$1, %r15
	addq	%rdi, %rax
	cmpq	%r15, %rax
	je	.L1356
.L1360:
	movq	(%r12), %rax
	movzbl	(%r15), %ebp
	movq	-24(%rax), %rax
	movq	240(%r12,%rax), %r14
	testq	%r14, %r14
	je	.L1425
	cmpb	$0, 56(%r14)
	jne	.L1426
	movq	%r14, %rdi
	call	_ZNKSt5ctypeIcE13_M_widen_initEv@PLT
	movq	(%r14), %rax
	movq	48(%rax), %rdx
	cmpq	_ZNKSt5ctypeIcE8do_widenEc@GOTPCREL(%rip), %rdx
	je	.L1359
	movsbl	%bpl, %esi
	movq	%r14, %rdi
	call	*%rdx
	movl	%eax, %ebp
	jmp	.L1359
	.p2align 4,,10
	.p2align 3
.L1305:
	movq	%r8, %rdi
	movq	%r8, 8(%rsp)
	call	__cxa_guard_acquire@PLT
	movq	8(%rsp), %r8
	testl	%eax, %eax
	je	.L1410
	movq	_ZZN4asio15system_categoryEvE8instance@GOTPCREL(%rip), %rax
	movq	_ZN4asio6detail15system_categoryD1Ev@GOTPCREL(%rip), %rdi
	movq	%r8, 16(%rsp)
	leaq	__dso_handle(%rip), %rdx
	movq	%rax, %rsi
	movq	%rax, 8(%rsp)
	call	__cxa_atexit@PLT
	movq	16(%rsp), %r8
	movq	%r8, %rdi
	call	__cxa_guard_release@PLT
	movq	16(%rsp), %r8
	jmp	.L1306
	.p2align 4,,10
	.p2align 3
.L1417:
	testl	%ebx, %ebx
	je	.L1427
	leaq	144(%rsp), %rbp
	movb	$0, 144(%rsp)
	movq	%rbp, 128(%rsp)
	movq	$0, 136(%rsp)
	testl	%ebx, %ebx
	je	.L1334
.L1315:
	movq	128(%rsp), %rdi
	leaq	112(%rsp), %r13
	movb	$0, 112(%rsp)
	movq	%r13, 96(%rsp)
	movq	$0, 104(%rsp)
	cmpq	%rbp, %rdi
	je	.L1364
	call	_ZdlPv@PLT
.L1364:
	movq	(%r12), %rax
	movq	-24(%rax), %rdi
	addq	%r12, %rdi
	testb	$4, 28(%rdi)
	jne	.L1428
	movl	32(%rdi), %esi
	orl	$4, %esi
	call	_ZNSt9basic_iosIcSt11char_traitsIcEE5clearESt12_Ios_Iostate@PLT
.LEHE24:
	movq	96(%rsp), %rdi
.L1356:
	cmpq	%r13, %rdi
	je	.L1361
	call	_ZdlPv@PLT
.L1361:
	movq	648(%rsp), %rax
	xorq	%fs:40, %rax
	jne	.L1429
	addq	$664, %rsp
	.cfi_remember_state
	.cfi_def_cfa_offset 56
	movq	%r12, %rax
	popq	%rbx
	.cfi_def_cfa_offset 48
	popq	%rbp
	.cfi_def_cfa_offset 40
	popq	%r12
	.cfi_def_cfa_offset 32
	popq	%r13
	.cfi_def_cfa_offset 24
	popq	%r14
	.cfi_def_cfa_offset 16
	popq	%r15
	.cfi_def_cfa_offset 8
	ret
	.p2align 4,,10
	.p2align 3
.L1418:
	.cfi_restore_state
	movl	4(%rsi), %eax
	pxor	%xmm0, %xmm0
	movl	$0, 160(%rsp)
	movq	$0, 184(%rsp)
	movl	%eax, 164(%rsp)
	movups	%xmm0, 168(%rsp)
	jmp	.L1303
	.p2align 4,,10
	.p2align 3
.L1424:
	subq	%rcx, %rax
	xorl	%edx, %edx
	xorl	%esi, %esi
	movq	%rax, %r8
.LEHB25:
	call	_ZNSt7__cxx1112basic_stringIcSt11char_traitsIcESaIcEE10_M_replaceEmmPKcm@PLT
.LEHE25:
	jmp	.L1345
	.p2align 4,,10
	.p2align 3
.L1332:
	testq	%r8, %r8
	jne	.L1430
.L1376:
	movq	%rbp, %rdx
	jmp	.L1333
	.p2align 4,,10
	.p2align 3
.L1422:
	movq	%r15, %rdi
	leaq	56(%rsp), %rsi
	xorl	%edx, %edx
	movq	%r8, 16(%rsp)
.LEHB26:
	call	_ZNSt7__cxx1112basic_stringIcSt11char_traitsIcESaIcEE9_M_createERmm@PLT
.LEHE26:
	movq	16(%rsp), %r8
	movq	%rax, 128(%rsp)
	movq	%rax, %rdi
	movq	56(%rsp), %rax
	movq	%rax, 144(%rsp)
.L1331:
	movq	%r8, %rdx
	movq	%r13, %rsi
	call	memcpy@PLT
	movq	56(%rsp), %rax
	movq	128(%rsp), %rdx
	jmp	.L1333
	.p2align 4,,10
	.p2align 3
.L1307:
	movq	%r8, %rdi
	movq	%r9, 16(%rsp)
	movq	%r8, 8(%rsp)
	call	__cxa_guard_acquire@PLT
	movq	8(%rsp), %r8
	movq	16(%rsp), %r9
	testl	%eax, %eax
	je	.L1408
	movq	_ZZN4asio15system_categoryEvE8instance@GOTPCREL(%rip), %rax
	movq	_ZN4asio6detail15system_categoryD1Ev@GOTPCREL(%rip), %rdi
	movq	%r9, 24(%rsp)
	leaq	__dso_handle(%rip), %rdx
	movq	%r8, 16(%rsp)
	movq	%rax, %rsi
	movq	%rax, 8(%rsp)
	call	__cxa_atexit@PLT
	movq	16(%rsp), %r8
	movq	%r8, %rdi
	call	__cxa_guard_release@PLT
	movq	24(%rsp), %r9
	movq	16(%rsp), %r8
	jmp	.L1308
	.p2align 4,,10
	.p2align 3
.L1423:
	movq	136(%rsp), %rdx
	movq	128(%rsp), %rsi
	movq	%r14, %rdi
.LEHB27:
	call	_ZSt16__ostream_insertIcSt11char_traitsIcEERSt13basic_ostreamIT_T0_ES6_PKS3_l@PLT
.LEHE27:
	jmp	.L1342
	.p2align 4,,10
	.p2align 3
.L1427:
	movzbl	(%r8), %eax
	testb	%al, %al
	je	.L1431
.L1329:
	leaq	144(%rsp), %rbp
	movb	$0, 144(%rsp)
	movl	$22, %ebx
	movq	%rbp, 128(%rsp)
	movq	$0, 136(%rsp)
	jmp	.L1315
	.p2align 4,,10
	.p2align 3
.L1322:
	testq	%r15, %r15
	je	.L1376
	movq	%rbp, %rdi
	jmp	.L1321
	.p2align 4,,10
	.p2align 3
.L1421:
	movq	%r13, %rdi
	leaq	56(%rsp), %rsi
	xorl	%edx, %edx
	movq	%r9, 16(%rsp)
.LEHB28:
	call	_ZNSt7__cxx1112basic_stringIcSt11char_traitsIcESaIcEE9_M_createERmm@PLT
.LEHE28:
	movq	16(%rsp), %r9
	movq	%rax, 128(%rsp)
	movq	%rax, %rdi
	movq	56(%rsp), %rax
	movq	%rax, 144(%rsp)
.L1321:
	movq	%r15, %rdx
	movq	%r9, %rsi
	call	memcpy@PLT
	movq	56(%rsp), %rax
	movq	128(%rsp), %rdx
	jmp	.L1333
	.p2align 4,,10
	.p2align 3
.L1343:
	leaq	240(%rsp), %rsi
.LEHB29:
	call	_ZNSt7__cxx1112basic_stringIcSt11char_traitsIcESaIcEE9_M_assignERKS4_@PLT
.LEHE29:
	jmp	.L1345
.L1420:
	movzbl	169(%rsp), %eax
	andl	$-64, %eax
	cmpb	$-128, %al
	je	.L1317
.L1409:
	leaq	545(%rsp), %r11
	jmp	.L1319
.L1317:
	leaq	545(%rsp), %r11
	movl	%r13d, %edi
	movq	%r9, 24(%rsp)
	movq	%r11, %rsi
	movq	%r11, 16(%rsp)
	call	if_indextoname@PLT
	movq	16(%rsp), %r11
	movq	24(%rsp), %r9
	testq	%rax, %rax
	jne	.L1318
	jmp	.L1319
.L1431:
	movq	%r8, %rdi
	movq	%r8, 16(%rsp)
	call	__cxa_guard_acquire@PLT
	testl	%eax, %eax
	je	.L1329
	movq	8(%rsp), %rsi
	movq	_ZN4asio6detail15system_categoryD1Ev@GOTPCREL(%rip), %rdi
	leaq	__dso_handle(%rip), %rdx
	call	__cxa_atexit@PLT
	movq	16(%rsp), %r8
	movq	%r8, %rdi
	call	__cxa_guard_release@PLT
	jmp	.L1329
.L1425:
.LEHB30:
	call	_ZSt16__throw_bad_castv@PLT
.L1429:
	call	__stack_chk_fail@PLT
.L1430:
	movq	%rbp, %rdi
	jmp	.L1331
.L1428:
	movq	8(%rsp), %rsi
	movl	%ebx, %edi
	call	_ZN4asio6detail14do_throw_errorERKSt10error_code.isra.0
.LEHE30:
.L1381:
	endbr64
	movq	%rax, %r12
	jmp	.L1348
.L1380:
	endbr64
	movq	%rax, %rbx
	jmp	.L1338
.L1377:
	endbr64
	movq	%rax, %rbp
	jmp	.L1362
.L1378:
	endbr64
	movq	%rax, %r12
	jmp	.L1350
.L1379:
	endbr64
	movq	%rax, %rbx
	jmp	.L1339
.L1348:
	movq	96(%rsp), %rdi
	cmpq	%r13, %rdi
	jne	.L1432
.L1350:
	movq	%r14, %rdi
	call	_ZNSt7__cxx1119basic_ostringstreamIcSt11char_traitsIcESaIcEED1Ev@PLT
.L1340:
	movq	128(%rsp), %rdi
	cmpq	%rbp, %rdi
	je	.L1353
	call	_ZdlPv@PLT
.L1353:
	movq	%r12, %rdi
.LEHB31:
	call	_Unwind_Resume@PLT
.L1338:
	movq	%r13, %rdi
	call	_ZNSt7__cxx1115basic_stringbufIcSt11char_traitsIcESaIcEED1Ev@PLT
	movq	8(%rsp), %rax
	movq	16(%rsp), %rcx
	movq	%rax, 160(%rsp)
	movq	-24(%rax), %rax
	movq	%rcx, 160(%rsp,%rax)
.L1339:
	movq	_ZTVSt9basic_iosIcSt11char_traitsIcEE@GOTPCREL(%rip), %rax
	movq	%r15, %rdi
	movq	%rbx, %r12
	addq	$16, %rax
	movq	%rax, 272(%rsp)
	call	_ZNSt8ios_baseD2Ev@PLT
	jmp	.L1340
.L1362:
	movq	96(%rsp), %rdi
	cmpq	%r13, %rdi
	je	.L1363
	call	_ZdlPv@PLT
.L1363:
	movq	%rbp, %rdi
	call	_Unwind_Resume@PLT
.LEHE31:
.L1432:
	call	_ZdlPv@PLT
	jmp	.L1350
	.cfi_endproc
.LFE9041:
	.section	.gcc_except_table
.LLSDA9041:
	.byte	0xff
	.byte	0xff
	.byte	0x1
	.uleb128 .LLSDACSE9041-.LLSDACSB9041
.LLSDACSB9041:
	.uleb128 .LEHB19-.LFB9041
	.uleb128 .LEHE19-.LEHB19
	.uleb128 0
	.uleb128 0
	.uleb128 .LEHB20-.LFB9041
	.uleb128 .LEHE20-.LEHB20
	.uleb128 .L1379-.LFB9041
	.uleb128 0
	.uleb128 .LEHB21-.LFB9041
	.uleb128 .LEHE21-.LEHB21
	.uleb128 .L1380-.LFB9041
	.uleb128 0
	.uleb128 .LEHB22-.LFB9041
	.uleb128 .LEHE22-.LEHB22
	.uleb128 .L1378-.LFB9041
	.uleb128 0
	.uleb128 .LEHB23-.LFB9041
	.uleb128 .LEHE23-.LEHB23
	.uleb128 .L1381-.LFB9041
	.uleb128 0
	.uleb128 .LEHB24-.LFB9041
	.uleb128 .LEHE24-.LEHB24
	.uleb128 .L1377-.LFB9041
	.uleb128 0
	.uleb128 .LEHB25-.LFB9041
	.uleb128 .LEHE25-.LEHB25
	.uleb128 .L1381-.LFB9041
	.uleb128 0
	.uleb128 .LEHB26-.LFB9041
	.uleb128 .LEHE26-.LEHB26
	.uleb128 0
	.uleb128 0
	.uleb128 .LEHB27-.LFB9041
	.uleb128 .LEHE27-.LEHB27
	.uleb128 .L1378-.LFB9041
	.uleb128 0
	.uleb128 .LEHB28-.LFB9041
	.uleb128 .LEHE28-.LEHB28
	.uleb128 0
	.uleb128 0
	.uleb128 .LEHB29-.LFB9041
	.uleb128 .LEHE29-.LEHB29
	.uleb128 .L1381-.LFB9041
	.uleb128 0
	.uleb128 .LEHB30-.LFB9041
	.uleb128 .LEHE30-.LEHB30
	.uleb128 .L1377-.LFB9041
	.uleb128 0
	.uleb128 .LEHB31-.LFB9041
	.uleb128 .LEHE31-.LEHB31
	.uleb128 0
	.uleb128 0
.LLSDACSE9041:
	.section	.text._ZN4asio2iplsIcSt11char_traitsIcENS0_3tcpEEERSt13basic_ostreamIT_T0_ES9_RKNS0_14basic_endpointIT1_EE,"axG",@progbits,_ZN4asio2iplsIcSt11char_traitsIcENS0_3tcpEEERSt13basic_ostreamIT_T0_ES9_RKNS0_14basic_endpointIT1_EE,comdat
	.size	_ZN4asio2iplsIcSt11char_traitsIcENS0_3tcpEEERSt13basic_ostreamIT_T0_ES9_RKNS0_14basic_endpointIT1_EE, .-_ZN4asio2iplsIcSt11char_traitsIcENS0_3tcpEEERSt13basic_ostreamIT_T0_ES9_RKNS0_14basic_endpointIT1_EE
	.section	.text._ZNSt16_Sp_counted_baseILN9__gnu_cxx12_Lock_policyE2EE10_M_releaseEv,"axG",@progbits,_ZNSt16_Sp_counted_baseILN9__gnu_cxx12_Lock_policyE2EE10_M_releaseEv,comdat
	.align 2
	.p2align 4
	.weak	_ZNSt16_Sp_counted_baseILN9__gnu_cxx12_Lock_policyE2EE10_M_releaseEv
	.type	_ZNSt16_Sp_counted_baseILN9__gnu_cxx12_Lock_policyE2EE10_M_releaseEv, @function
_ZNSt16_Sp_counted_baseILN9__gnu_cxx12_Lock_policyE2EE10_M_releaseEv:
.LFB9163:
	.cfi_startproc
	endbr64
	pushq	%rbp
	.cfi_def_cfa_offset 16
	.cfi_offset 6, -16
	movq	%rdi, %rbp
	pushq	%rbx
	.cfi_def_cfa_offset 24
	.cfi_offset 3, -24
	subq	$8, %rsp
	.cfi_def_cfa_offset 32
	movq	_ZL28__gthrw___pthread_key_createPjPFvPvE@GOTPCREL(%rip), %rbx
	testq	%rbx, %rbx
	je	.L1434
	movl	$-1, %eax
	lock xaddl	%eax, 8(%rdi)
	cmpl	$1, %eax
	je	.L1442
.L1433:
	addq	$8, %rsp
	.cfi_remember_state
	.cfi_def_cfa_offset 24
	popq	%rbx
	.cfi_def_cfa_offset 16
	popq	%rbp
	.cfi_def_cfa_offset 8
	ret
	.p2align 4,,10
	.p2align 3
.L1434:
	.cfi_restore_state
	movl	8(%rdi), %eax
	leal	-1(%rax), %edx
	movl	%edx, 8(%rdi)
	cmpl	$1, %eax
	jne	.L1433
.L1442:
	movq	0(%rbp), %rax
	movq	%rbp, %rdi
	call	*16(%rax)
	testq	%rbx, %rbx
	je	.L1438
	movl	$-1, %eax
	lock xaddl	%eax, 12(%rbp)
.L1439:
	cmpl	$1, %eax
	jne	.L1433
	movq	0(%rbp), %rax
	movq	%rbp, %rdi
	movq	24(%rax), %rax
	addq	$8, %rsp
	.cfi_remember_state
	.cfi_def_cfa_offset 24
	popq	%rbx
	.cfi_def_cfa_offset 16
	popq	%rbp
	.cfi_def_cfa_offset 8
	jmp	*%rax
	.p2align 4,,10
	.p2align 3
.L1438:
	.cfi_restore_state
	movl	12(%rbp), %eax
	leal	-1(%rax), %edx
	movl	%edx, 12(%rbp)
	jmp	.L1439
	.cfi_endproc
.LFE9163:
	.size	_ZNSt16_Sp_counted_baseILN9__gnu_cxx12_Lock_policyE2EE10_M_releaseEv, .-_ZNSt16_Sp_counted_baseILN9__gnu_cxx12_Lock_policyE2EE10_M_releaseEv
	.section	.text.unlikely
	.align 2
.LCOLDB29:
	.text
.LHOTB29:
	.align 2
	.p2align 4
	.globl	_ZN8asiodnp315MasterTCPServer10OnShutdownEv
	.type	_ZN8asiodnp315MasterTCPServer10OnShutdownEv, @function
_ZN8asiodnp315MasterTCPServer10OnShutdownEv:
.LFB8134:
	.cfi_startproc
	.cfi_personality 0x9b,DW.ref.__gxx_personality_v0
	.cfi_lsda 0x1b,.LLSDA8134
	endbr64
	pushq	%rbp
	.cfi_def_cfa_offset 16
	.cfi_offset 6, -16
	pushq	%rbx
	.cfi_def_cfa_offset 24
	.cfi_offset 3, -24
	subq	$40, %rsp
	.cfi_def_cfa_offset 64
	movq	16(%rdi), %rdx
	movq	224(%rdi), %r8
	movq	%fs:40, %rax
	movq	%rax, 24(%rsp)
	xorl	%eax, %eax
	testq	%rdx, %rdx
	je	.L1444
	movl	8(%rdx), %eax
	leaq	8(%rdx), %rcx
.L1446:
	testl	%eax, %eax
	je	.L1444
	leal	1(%rax), %esi
	lock cmpxchgl	%esi, (%rcx)
	jne	.L1446
	movq	8(%rdi), %rax
	movq	%rsp, %rsi
	movq	%r8, %rdi
	movq	%rdx, 8(%rsp)
	movq	%rax, (%rsp)
.LEHB32:
	call	_ZN7asiopal15ResourceManager6DetachERKSt10shared_ptrINS_9IResourceEE@PLT
.LEHE32:
	movq	8(%rsp), %rbp
	testq	%rbp, %rbp
	je	.L1443
	movq	_ZL28__gthrw___pthread_key_createPjPFvPvE@GOTPCREL(%rip), %rbx
	testq	%rbx, %rbx
	je	.L1449
	movl	$-1, %eax
	lock xaddl	%eax, 8(%rbp)
	cmpl	$1, %eax
	je	.L1467
	.p2align 4,,10
	.p2align 3
.L1443:
	movq	24(%rsp), %rax
	xorq	%fs:40, %rax
	jne	.L1468
	addq	$40, %rsp
	.cfi_remember_state
	.cfi_def_cfa_offset 24
	popq	%rbx
	.cfi_def_cfa_offset 16
	popq	%rbp
	.cfi_def_cfa_offset 8
	ret
	.p2align 4,,10
	.p2align 3
.L1449:
	.cfi_restore_state
	movl	8(%rbp), %eax
	leal	-1(%rax), %edx
	movl	%edx, 8(%rbp)
	cmpl	$1, %eax
	jne	.L1443
.L1467:
	movq	0(%rbp), %rax
	movq	%rbp, %rdi
	call	*16(%rax)
	testq	%rbx, %rbx
	je	.L1452
	movl	$-1, %eax
	lock xaddl	%eax, 12(%rbp)
.L1453:
	cmpl	$1, %eax
	jne	.L1443
	movq	0(%rbp), %rax
	movq	%rbp, %rdi
	call	*24(%rax)
	jmp	.L1443
	.p2align 4,,10
	.p2align 3
.L1452:
	movl	12(%rbp), %eax
	leal	-1(%rax), %edx
	movl	%edx, 12(%rbp)
	jmp	.L1453
.L1468:
	call	__stack_chk_fail@PLT
.L1457:
	endbr64
	movq	%rax, %rbp
	jmp	.L1454
	.section	.gcc_except_table
.LLSDA8134:
	.byte	0xff
	.byte	0xff
	.byte	0x1
	.uleb128 .LLSDACSE8134-.LLSDACSB8134
.LLSDACSB8134:
	.uleb128 .LEHB32-.LFB8134
	.uleb128 .LEHE32-.LEHB32
	.uleb128 .L1457-.LFB8134
	.uleb128 0
.LLSDACSE8134:
	.text
	.cfi_endproc
	.section	.text.unlikely
	.cfi_startproc
	.cfi_personality 0x9b,DW.ref.__gxx_personality_v0
	.cfi_lsda 0x1b,.LLSDAC8134
	.type	_ZN8asiodnp315MasterTCPServer10OnShutdownEv.cold, @function
_ZN8asiodnp315MasterTCPServer10OnShutdownEv.cold:
.LFSB8134:
.L1444:
	.cfi_def_cfa_offset 64
	.cfi_offset 3, -24
	.cfi_offset 6, -16
.LEHB33:
	call	_ZSt20__throw_bad_weak_ptrv@PLT
.L1454:
	movq	8(%rsp), %rdi
	testq	%rdi, %rdi
	je	.L1455
	call	_ZNSt16_Sp_counted_baseILN9__gnu_cxx12_Lock_policyE2EE10_M_releaseEv@PLT
.L1455:
	movq	%rbp, %rdi
	call	_Unwind_Resume@PLT
.LEHE33:
	.cfi_endproc
.LFE8134:
	.section	.gcc_except_table
.LLSDAC8134:
	.byte	0xff
	.byte	0xff
	.byte	0x1
	.uleb128 .LLSDACSEC8134-.LLSDACSBC8134
.LLSDACSBC8134:
	.uleb128 .LEHB33-.LCOLDB29
	.uleb128 .LEHE33-.LEHB33
	.uleb128 0
	.uleb128 0
.LLSDACSEC8134:
	.section	.text.unlikely
	.text
	.size	_ZN8asiodnp315MasterTCPServer10OnShutdownEv, .-_ZN8asiodnp315MasterTCPServer10OnShutdownEv
	.section	.text.unlikely
	.size	_ZN8asiodnp315MasterTCPServer10OnShutdownEv.cold, .-_ZN8asiodnp315MasterTCPServer10OnShutdownEv.cold
.LCOLDE29:
	.text
.LHOTE29:
	.section	.text._ZN7asiopal13IAsyncChannel16CheckForShutdownESt10shared_ptrIS0_E,"axG",@progbits,_ZN7asiopal13IAsyncChannel16CheckForShutdownESt10shared_ptrIS0_E,comdat
	.align 2
	.p2align 4
	.weak	_ZN7asiopal13IAsyncChannel16CheckForShutdownESt10shared_ptrIS0_E
	.type	_ZN7asiopal13IAsyncChannel16CheckForShutdownESt10shared_ptrIS0_E, @function
_ZN7asiopal13IAsyncChannel16CheckForShutdownESt10shared_ptrIS0_E:
.LFB7618:
	.cfi_startproc
	.cfi_personality 0x9b,DW.ref.__gxx_personality_v0
	.cfi_lsda 0x1b,.LLSDA7618
	endbr64
	pushq	%r15
	.cfi_def_cfa_offset 16
	.cfi_offset 15, -16
	pushq	%r14
	.cfi_def_cfa_offset 24
	.cfi_offset 14, -24
	pushq	%r13
	.cfi_def_cfa_offset 32
	.cfi_offset 13, -32
	pushq	%r12
	.cfi_def_cfa_offset 40
	.cfi_offset 12, -40
	pushq	%rbp
	.cfi_def_cfa_offset 48
	.cfi_offset 6, -48
	pushq	%rbx
	.cfi_def_cfa_offset 56
	.cfi_offset 3, -56
	subq	$56, %rsp
	.cfi_def_cfa_offset 112
	movq	%fs:40, %rax
	movq	%rax, 40(%rsp)
	xorl	%eax, %eax
	movq	(%rsi), %rax
	cmpb	$0, 57(%rax)
	jne	.L1470
	cmpb	$0, 58(%rax)
	jne	.L1470
	pxor	%xmm0, %xmm0
	movq	48(%rax), %r12
	movups	%xmm0, 40(%rax)
.L1559:
	testq	%r12, %r12
	je	.L1469
	movq	_ZL28__gthrw___pthread_key_createPjPFvPvE@GOTPCREL(%rip), %rbp
	testq	%rbp, %rbp
	je	.L1515
	movl	$-1, %eax
	lock xaddl	%eax, 8(%r12)
	cmpl	$1, %eax
	je	.L1560
	.p2align 4,,10
	.p2align 3
.L1469:
	movq	40(%rsp), %rax
	xorq	%fs:40, %rax
	jne	.L1561
	addq	$56, %rsp
	.cfi_remember_state
	.cfi_def_cfa_offset 56
	popq	%rbx
	.cfi_def_cfa_offset 48
	popq	%rbp
	.cfi_def_cfa_offset 40
	popq	%r12
	.cfi_def_cfa_offset 32
	popq	%r13
	.cfi_def_cfa_offset 24
	popq	%r14
	.cfi_def_cfa_offset 16
	popq	%r15
	.cfi_def_cfa_offset 8
	ret
	.p2align 4,,10
	.p2align 3
.L1470:
	.cfi_restore_state
	movq	8(%rsi), %r12
	testq	%r12, %r12
	je	.L1472
	movq	_ZL28__gthrw___pthread_key_createPjPFvPvE@GOTPCREL(%rip), %rbp
	leaq	8(%r12), %rdx
	testq	%rbp, %rbp
	je	.L1473
	lock addl	$1, (%rdx)
	movq	(%rsi), %rcx
.L1474:
	movq	%rax, %xmm0
	movq	%r12, %xmm1
	movq	24(%rcx), %rbx
	punpcklqdq	%xmm1, %xmm0
	movaps	%xmm0, 16(%rsp)
	testq	%rbp, %rbp
	je	.L1562
	lock addl	$1, (%rdx)
	movq	24(%rsp), %r15
.L1475:
	leaq	16(%rsp), %rdi
	xorl	%eax, %eax
	movq	40(%rbx), %r14
	call	_ZN4asio28asio_handler_is_continuationEz@PLT
	movl	%eax, %r13d
	data16	leaq	_ZN4asio6detail15keyword_tss_ptrINS0_10call_stackINS0_15task_io_serviceENS0_27task_io_service_thread_infoEE7contextEE6value_E@tlsgd(%rip), %rdi
	.value	0x6666
	rex64
	call	__tls_get_addr@PLT
	movq	(%rax), %rax
	testq	%rax, %rax
	je	.L1476
	movq	8(%rax), %rax
	testq	%rax, %rax
	je	.L1476
	movq	(%rax), %rbp
	testq	%rbp, %rbp
	je	.L1476
	movq	$0, (%rax)
	movzbl	0(%rbp), %eax
	cmpb	$39, %al
	jbe	.L1477
	movb	%al, 40(%rbp)
	jmp	.L1478
	.p2align 4,,10
	.p2align 3
.L1477:
	movq	%rbp, %rdi
	call	_ZdlPv@PLT
.L1476:
	movl	$41, %edi
.LEHB34:
	call	_Znwm@PLT
.LEHE34:
	movb	$40, 40(%rax)
	movq	%rax, %rbp
.L1478:
	movq	_ZN4asio6detail18completion_handlerIZN7asiopal13IAsyncChannel16CheckForShutdownESt10shared_ptrIS3_EEUlvE_E11do_completeEPNS0_15task_io_serviceEPNS0_25task_io_service_operationERKSt10error_codem@GOTPCREL(%rip), %rax
	movq	$0, 0(%rbp)
	pxor	%xmm0, %xmm0
	movl	$0, 16(%rbp)
	movq	%rax, 8(%rbp)
	movq	16(%rsp), %rax
	movq	%r15, 32(%rbp)
	movq	%rax, 24(%rbp)
	movq	48(%rbx), %rax
	movaps	%xmm0, 16(%rsp)
	leaq	24(%rax), %rdi
	call	pthread_mutex_lock@PLT
	movq	48(%rbx), %rdi
	cmpb	$0, 64(%rdi)
	je	.L1479
	cmpq	$0, 80(%rdi)
	movq	$0, 0(%rbp)
	je	.L1480
	movq	80(%rdi), %rax
	movq	%rbp, (%rax)
	movq	%rbp, 80(%rdi)
.L1481:
	addq	$24, %rdi
	call	pthread_mutex_unlock@PLT
	jmp	.L1559
	.p2align 4,,10
	.p2align 3
.L1515:
	movl	8(%r12), %eax
	leal	-1(%rax), %edx
	movl	%edx, 8(%r12)
	cmpl	$1, %eax
	jne	.L1469
.L1560:
	movq	(%r12), %rax
	movq	%r12, %rdi
	call	*16(%rax)
	testq	%rbp, %rbp
	je	.L1518
	movl	$-1, %eax
	lock xaddl	%eax, 12(%r12)
.L1519:
	cmpl	$1, %eax
	jne	.L1469
	movq	(%r12), %rax
	movq	%r12, %rdi
	call	*24(%rax)
	jmp	.L1469
	.p2align 4,,10
	.p2align 3
.L1479:
	movb	$1, 64(%rdi)
	addq	$24, %rdi
	call	pthread_mutex_unlock@PLT
	movq	48(%rbx), %r15
	movq	$0, 0(%rbp)
	cmpq	$0, 96(%r15)
	je	.L1483
	movq	96(%r15), %rax
	movq	%rbp, (%rax)
	movq	%rbp, 96(%r15)
.L1484:
	movq	40(%r14), %rbx
	cmpb	$0, 40(%rbx)
	jne	.L1524
	testb	%r13b, %r13b
	je	.L1485
.L1524:
	data16	leaq	_ZN4asio6detail15keyword_tss_ptrINS0_10call_stackINS0_15task_io_serviceENS0_27task_io_service_thread_infoEE7contextEE6value_E@tlsgd(%rip), %rdi
	.value	0x6666
	rex64
	call	__tls_get_addr@PLT
	movq	(%rax), %rax
	testq	%rax, %rax
	jne	.L1489
	jmp	.L1485
	.p2align 4,,10
	.p2align 3
.L1487:
	movq	16(%rax), %rax
	testq	%rax, %rax
	je	.L1485
.L1489:
	cmpq	(%rax), %rbx
	jne	.L1487
	movq	8(%rax), %rax
	testq	%rax, %rax
	je	.L1485
	addq	$1, 24(%rax)
	cmpq	$0, 16(%rax)
	movq	$0, (%r15)
	je	.L1490
	movq	16(%rax), %rdx
	movq	%r15, (%rdx)
	movq	%r15, 16(%rax)
	jmp	.L1559
	.p2align 4,,10
	.p2align 3
.L1562:
	addl	$1, 8(%r12)
	movq	%r12, %r15
	jmp	.L1475
	.p2align 4,,10
	.p2align 3
.L1473:
	addl	$1, 8(%r12)
	movq	%rax, %rcx
	jmp	.L1474
	.p2align 4,,10
	.p2align 3
.L1472:
	movq	%rax, 16(%rsp)
	movq	24(%rax), %rbx
	xorl	%r15d, %r15d
	movq	$0, 24(%rsp)
	jmp	.L1475
	.p2align 4,,10
	.p2align 3
.L1483:
	movq	%rbp, %xmm0
	punpcklqdq	%xmm0, %xmm0
	movups	%xmm0, 88(%r15)
	jmp	.L1484
	.p2align 4,,10
	.p2align 3
.L1480:
	movq	%rbp, %xmm0
	punpcklqdq	%xmm0, %xmm0
	movups	%xmm0, 72(%rdi)
	jmp	.L1481
	.p2align 4,,10
	.p2align 3
.L1485:
	lock addq	$1, 184(%rbx)
	leaq	48(%rbx), %rbp
	movq	%rbp, %rdi
	call	pthread_mutex_lock@PLT
	cmpq	$0, 200(%rbx)
	movq	$0, (%r15)
	je	.L1491
	movq	200(%rbx), %rax
	movq	%r15, (%rax)
	movq	%r15, 200(%rbx)
.L1492:
	movq	136(%rbx), %rax
	orq	$1, %rax
	movq	%rax, 136(%rbx)
	cmpq	$1, %rax
	je	.L1493
	movq	%rbp, %rdi
	call	pthread_mutex_unlock@PLT
	leaq	88(%rbx), %rdi
	call	pthread_cond_signal@PLT
.L1494:
	movq	24(%rsp), %r13
	testq	%r13, %r13
	je	.L1559
	movq	_ZL28__gthrw___pthread_key_createPjPFvPvE@GOTPCREL(%rip), %rbp
	testq	%rbp, %rbp
	je	.L1498
	movl	$-1, %eax
	lock xaddl	%eax, 8(%r13)
.L1499:
	cmpl	$1, %eax
	jne	.L1559
	movq	0(%r13), %rax
	movq	%r13, %rdi
	call	*16(%rax)
	testq	%rbp, %rbp
	je	.L1500
	movl	$-1, %eax
	lock xaddl	%eax, 12(%r13)
.L1501:
	cmpl	$1, %eax
	jne	.L1559
	movq	0(%r13), %rax
	movq	%r13, %rdi
	call	*24(%rax)
	jmp	.L1559
	.p2align 4,,10
	.p2align 3
.L1498:
	movl	8(%r13), %eax
	leal	-1(%rax), %edx
	movl	%edx, 8(%r13)
	jmp	.L1499
	.p2align 4,,10
	.p2align 3
.L1493:
	cmpb	$0, 176(%rbx)
	jne	.L1495
	movq	144(%rbx), %rax
	testq	%rax, %rax
	je	.L1495
	leaq	88(%rax), %rdx
	movb	$1, 176(%rbx)
	movl	96(%rax), %edi
	leaq	4(%rsp), %rcx
	movq	%rdx, 8(%rsp)
	movl	88(%rax), %edx
	movl	$3, %esi
	movl	$-2147483639, 4(%rsp)
	call	epoll_ctl@PLT
.L1495:
	movq	%rbp, %rdi
	call	pthread_mutex_unlock@PLT
	jmp	.L1494
	.p2align 4,,10
	.p2align 3
.L1518:
	movl	12(%r12), %eax
	leal	-1(%rax), %edx
	movl	%edx, 12(%r12)
	jmp	.L1519
	.p2align 4,,10
	.p2align 3
.L1500:
	movl	12(%r13), %eax
	leal	-1(%rax), %edx
	movl	%edx, 12(%r13)
	jmp	.L1501
	.p2align 4,,10
	.p2align 3
.L1491:
	movq	%r15, %xmm0
	punpcklqdq	%xmm0, %xmm0
	movups	%xmm0, 192(%rbx)
	jmp	.L1492
	.p2align 4,,10
	.p2align 3
.L1490:
	movq	%r15, %xmm0
	punpcklqdq	%xmm0, %xmm0
	movups	%xmm0, 8(%rax)
	jmp	.L1559
.L1561:
	call	__stack_chk_fail@PLT
.L1523:
	endbr64
	movq	%rax, %rbp
.L1504:
	testq	%r15, %r15
	je	.L1505
	movq	%r15, %rdi
	call	_ZNSt16_Sp_counted_baseILN9__gnu_cxx12_Lock_policyE2EE10_M_releaseEv@PLT
.L1505:
	testq	%r12, %r12
	je	.L1507
	movq	%r12, %rdi
	call	_ZNSt16_Sp_counted_baseILN9__gnu_cxx12_Lock_policyE2EE10_M_releaseEv@PLT
.L1507:
	movq	%rbp, %rdi
.LEHB35:
	call	_Unwind_Resume@PLT
.LEHE35:
	.cfi_endproc
.LFE7618:
	.section	.gcc_except_table
.LLSDA7618:
	.byte	0xff
	.byte	0xff
	.byte	0x1
	.uleb128 .LLSDACSE7618-.LLSDACSB7618
.LLSDACSB7618:
	.uleb128 .LEHB34-.LFB7618
	.uleb128 .LEHE34-.LEHB34
	.uleb128 .L1523-.LFB7618
	.uleb128 0
	.uleb128 .LEHB35-.LFB7618
	.uleb128 .LEHE35-.LEHB35
	.uleb128 0
	.uleb128 0
.LLSDACSE7618:
	.section	.text._ZN7asiopal13IAsyncChannel16CheckForShutdownESt10shared_ptrIS0_E,"axG",@progbits,_ZN7asiopal13IAsyncChannel16CheckForShutdownESt10shared_ptrIS0_E,comdat
	.size	_ZN7asiopal13IAsyncChannel16CheckForShutdownESt10shared_ptrIS0_E, .-_ZN7asiopal13IAsyncChannel16CheckForShutdownESt10shared_ptrIS0_E
	.section	.text._ZN4asio6detail18completion_handlerIZN7asiopal13IAsyncChannel8ShutdownEvEUlvE_E11do_completeEPNS0_15task_io_serviceEPNS0_25task_io_service_operationERKSt10error_codem,"axG",@progbits,_ZN4asio6detail18completion_handlerIZN7asiopal13IAsyncChannel8ShutdownEvEUlvE_E11do_completeEPNS0_15task_io_serviceEPNS0_25task_io_service_operationERKSt10error_codem,comdat
	.p2align 4
	.weak	_ZN4asio6detail18completion_handlerIZN7asiopal13IAsyncChannel8ShutdownEvEUlvE_E11do_completeEPNS0_15task_io_serviceEPNS0_25task_io_service_operationERKSt10error_codem
	.type	_ZN4asio6detail18completion_handlerIZN7asiopal13IAsyncChannel8ShutdownEvEUlvE_E11do_completeEPNS0_15task_io_serviceEPNS0_25task_io_service_operationERKSt10error_codem, @function
_ZN4asio6detail18completion_handlerIZN7asiopal13IAsyncChannel8ShutdownEvEUlvE_E11do_completeEPNS0_15task_io_serviceEPNS0_25task_io_service_operationERKSt10error_codem:
.LFB10066:
	.cfi_startproc
	.cfi_personality 0x9b,DW.ref.__gxx_personality_v0
	.cfi_lsda 0x1b,.LLSDA10066
	endbr64
	pushq	%r13
	.cfi_def_cfa_offset 16
	.cfi_offset 13, -16
	pushq	%r12
	.cfi_def_cfa_offset 24
	.cfi_offset 12, -24
	movq	%rsi, %r12
	pushq	%rbp
	.cfi_def_cfa_offset 32
	.cfi_offset 6, -32
	pushq	%rbx
	.cfi_def_cfa_offset 40
	.cfi_offset 3, -40
	movq	%rdi, %rbx
	subq	$40, %rsp
	.cfi_def_cfa_offset 80
	movq	24(%rsi), %r13
	movq	32(%rsi), %rbp
	movq	%fs:40, %rax
	movq	%rax, 24(%rsp)
	xorl	%eax, %eax
	data16	leaq	_ZN4asio6detail15keyword_tss_ptrINS0_10call_stackINS0_15task_io_serviceENS0_27task_io_service_thread_infoEE7contextEE6value_E@tlsgd(%rip), %rdi
	.value	0x6666
	rex64
	call	__tls_get_addr@PLT
	movq	(%rax), %rax
	testq	%rax, %rax
	je	.L1564
	movq	8(%rax), %rax
	testq	%rax, %rax
	je	.L1564
	cmpq	$0, (%rax)
	je	.L1605
.L1564:
	movq	%r12, %rdi
	call	_ZdlPv@PLT
.L1565:
	testq	%rbx, %rbx
	je	.L1566
	movq	%r13, %xmm0
	movq	%rbp, %xmm1
	punpcklqdq	%xmm1, %xmm0
	movaps	%xmm0, (%rsp)
	testq	%rbp, %rbp
	je	.L1567
	cmpq	$0, _ZL28__gthrw___pthread_key_createPjPFvPvE@GOTPCREL(%rip)
	je	.L1568
	lock addl	$1, 8(%rbp)
.L1567:
	movq	%rsp, %rsi
	movq	%r13, %rdi
.LEHB36:
	call	_ZN7asiopal13IAsyncChannel16CheckForShutdownESt10shared_ptrIS0_E@PLT
.LEHE36:
	movq	8(%rsp), %r12
	testq	%r12, %r12
	je	.L1570
	movq	_ZL28__gthrw___pthread_key_createPjPFvPvE@GOTPCREL(%rip), %rbx
	testq	%rbx, %rbx
	je	.L1571
	movl	$-1, %eax
	lock xaddl	%eax, 8(%r12)
.L1572:
	cmpl	$1, %eax
	jne	.L1570
	movq	(%r12), %rax
	movq	%r12, %rdi
	call	*16(%rax)
	testq	%rbx, %rbx
	je	.L1574
	movl	$-1, %eax
	lock xaddl	%eax, 12(%r12)
.L1575:
	cmpl	$1, %eax
	je	.L1606
	.p2align 4,,10
	.p2align 3
.L1570:
	sfence
.L1566:
	testq	%rbp, %rbp
	je	.L1563
	movq	_ZL28__gthrw___pthread_key_createPjPFvPvE@GOTPCREL(%rip), %rbx
	testq	%rbx, %rbx
	je	.L1582
	movl	$-1, %eax
	lock xaddl	%eax, 8(%rbp)
	cmpl	$1, %eax
	je	.L1607
	.p2align 4,,10
	.p2align 3
.L1563:
	movq	24(%rsp), %rax
	xorq	%fs:40, %rax
	jne	.L1608
	addq	$40, %rsp
	.cfi_remember_state
	.cfi_def_cfa_offset 40
	popq	%rbx
	.cfi_def_cfa_offset 32
	popq	%rbp
	.cfi_def_cfa_offset 24
	popq	%r12
	.cfi_def_cfa_offset 16
	popq	%r13
	.cfi_def_cfa_offset 8
	ret
	.p2align 4,,10
	.p2align 3
.L1582:
	.cfi_restore_state
	movl	8(%rbp), %eax
	leal	-1(%rax), %edx
	movl	%edx, 8(%rbp)
	cmpl	$1, %eax
	jne	.L1563
.L1607:
	movq	0(%rbp), %rax
	movq	%rbp, %rdi
	call	*16(%rax)
	testq	%rbx, %rbx
	je	.L1585
	movl	$-1, %eax
	lock xaddl	%eax, 12(%rbp)
.L1586:
	cmpl	$1, %eax
	jne	.L1563
	movq	0(%rbp), %rax
	movq	%rbp, %rdi
	call	*24(%rax)
	jmp	.L1563
	.p2align 4,,10
	.p2align 3
.L1571:
	movl	8(%r12), %eax
	leal	-1(%rax), %edx
	movl	%edx, 8(%r12)
	jmp	.L1572
	.p2align 4,,10
	.p2align 3
.L1605:
	movzbl	40(%r12), %edx
	movb	%dl, (%r12)
	movq	%r12, (%rax)
	jmp	.L1565
	.p2align 4,,10
	.p2align 3
.L1568:
	addl	$1, 8(%rbp)
	jmp	.L1567
	.p2align 4,,10
	.p2align 3
.L1585:
	movl	12(%rbp), %eax
	leal	-1(%rax), %edx
	movl	%edx, 12(%rbp)
	jmp	.L1586
	.p2align 4,,10
	.p2align 3
.L1606:
	movq	(%r12), %rax
	movq	%r12, %rdi
	call	*24(%rax)
	jmp	.L1570
	.p2align 4,,10
	.p2align 3
.L1574:
	movl	12(%r12), %eax
	leal	-1(%rax), %edx
	movl	%edx, 12(%r12)
	jmp	.L1575
.L1608:
	call	__stack_chk_fail@PLT
.L1588:
	endbr64
	movq	%rax, %r12
.L1576:
	movq	8(%rsp), %rdi
	testq	%rdi, %rdi
	je	.L1577
	call	_ZNSt16_Sp_counted_baseILN9__gnu_cxx12_Lock_policyE2EE10_M_releaseEv@PLT
.L1577:
	sfence
	testq	%rbp, %rbp
	je	.L1579
	movq	%rbp, %rdi
	call	_ZNSt16_Sp_counted_baseILN9__gnu_cxx12_Lock_policyE2EE10_M_releaseEv@PLT
.L1579:
	movq	%r12, %rdi
.LEHB37:
	call	_Unwind_Resume@PLT
.LEHE37:
	.cfi_endproc
.LFE10066:
	.section	.gcc_except_table
.LLSDA10066:
	.byte	0xff
	.byte	0xff
	.byte	0x1
	.uleb128 .LLSDACSE10066-.LLSDACSB10066
.LLSDACSB10066:
	.uleb128 .LEHB36-.LFB10066
	.uleb128 .LEHE36-.LEHB36
	.uleb128 .L1588-.LFB10066
	.uleb128 0
	.uleb128 .LEHB37-.LFB10066
	.uleb128 .LEHE37-.LEHB37
	.uleb128 0
	.uleb128 0
.LLSDACSE10066:
	.section	.text._ZN4asio6detail18completion_handlerIZN7asiopal13IAsyncChannel8ShutdownEvEUlvE_E11do_completeEPNS0_15task_io_serviceEPNS0_25task_io_service_operationERKSt10error_codem,"axG",@progbits,_ZN4asio6detail18completion_handlerIZN7asiopal13IAsyncChannel8ShutdownEvEUlvE_E11do_completeEPNS0_15task_io_serviceEPNS0_25task_io_service_operationERKSt10error_codem,comdat
	.size	_ZN4asio6detail18completion_handlerIZN7asiopal13IAsyncChannel8ShutdownEvEUlvE_E11do_completeEPNS0_15task_io_serviceEPNS0_25task_io_service_operationERKSt10error_codem, .-_ZN4asio6detail18completion_handlerIZN7asiopal13IAsyncChannel8ShutdownEvEUlvE_E11do_completeEPNS0_15task_io_serviceEPNS0_25task_io_service_operationERKSt10error_codem
	.section	.text._ZN4asio6detail18completion_handlerIZN7asiopal13IAsyncChannel16CheckForShutdownESt10shared_ptrIS3_EEUlvE_E11do_completeEPNS0_15task_io_serviceEPNS0_25task_io_service_operationERKSt10error_codem,"axG",@progbits,_ZN4asio6detail18completion_handlerIZN7asiopal13IAsyncChannel16CheckForShutdownESt10shared_ptrIS3_EEUlvE_E11do_completeEPNS0_15task_io_serviceEPNS0_25task_io_service_operationERKSt10error_codem,comdat
	.p2align 4
	.weak	_ZN4asio6detail18completion_handlerIZN7asiopal13IAsyncChannel16CheckForShutdownESt10shared_ptrIS3_EEUlvE_E11do_completeEPNS0_15task_io_serviceEPNS0_25task_io_service_operationERKSt10error_codem
	.type	_ZN4asio6detail18completion_handlerIZN7asiopal13IAsyncChannel16CheckForShutdownESt10shared_ptrIS3_EEUlvE_E11do_completeEPNS0_15task_io_serviceEPNS0_25task_io_service_operationERKSt10error_codem, @function
_ZN4asio6detail18completion_handlerIZN7asiopal13IAsyncChannel16CheckForShutdownESt10shared_ptrIS3_EEUlvE_E11do_completeEPNS0_15task_io_serviceEPNS0_25task_io_service_operationERKSt10error_codem:
.LFB10071:
	.cfi_startproc
	.cfi_personality 0x9b,DW.ref.__gxx_personality_v0
	.cfi_lsda 0x1b,.LLSDA10071
	endbr64
	pushq	%r13
	.cfi_def_cfa_offset 16
	.cfi_offset 13, -16
	pushq	%r12
	.cfi_def_cfa_offset 24
	.cfi_offset 12, -24
	movq	%rsi, %r12
	pushq	%rbp
	.cfi_def_cfa_offset 32
	.cfi_offset 6, -32
	pushq	%rbx
	.cfi_def_cfa_offset 40
	.cfi_offset 3, -40
	movq	%rdi, %rbx
	subq	$40, %rsp
	.cfi_def_cfa_offset 80
	movq	24(%rsi), %r13
	movq	32(%rsi), %rbp
	movq	%fs:40, %rax
	movq	%rax, 24(%rsp)
	xorl	%eax, %eax
	data16	leaq	_ZN4asio6detail15keyword_tss_ptrINS0_10call_stackINS0_15task_io_serviceENS0_27task_io_service_thread_infoEE7contextEE6value_E@tlsgd(%rip), %rdi
	.value	0x6666
	rex64
	call	__tls_get_addr@PLT
	movq	(%rax), %rax
	testq	%rax, %rax
	je	.L1610
	movq	8(%rax), %rax
	testq	%rax, %rax
	je	.L1610
	cmpq	$0, (%rax)
	je	.L1651
.L1610:
	movq	%r12, %rdi
	call	_ZdlPv@PLT
.L1611:
	testq	%rbx, %rbx
	je	.L1612
	movq	%r13, %xmm0
	movq	%rbp, %xmm1
	punpcklqdq	%xmm1, %xmm0
	movaps	%xmm0, (%rsp)
	testq	%rbp, %rbp
	je	.L1613
	cmpq	$0, _ZL28__gthrw___pthread_key_createPjPFvPvE@GOTPCREL(%rip)
	je	.L1614
	lock addl	$1, 8(%rbp)
.L1613:
	movq	%rsp, %rsi
	movq	%r13, %rdi
.LEHB38:
	call	_ZN7asiopal13IAsyncChannel16CheckForShutdownESt10shared_ptrIS0_E@PLT
.LEHE38:
	movq	8(%rsp), %r12
	testq	%r12, %r12
	je	.L1616
	movq	_ZL28__gthrw___pthread_key_createPjPFvPvE@GOTPCREL(%rip), %rbx
	testq	%rbx, %rbx
	je	.L1617
	movl	$-1, %eax
	lock xaddl	%eax, 8(%r12)
.L1618:
	cmpl	$1, %eax
	jne	.L1616
	movq	(%r12), %rax
	movq	%r12, %rdi
	call	*16(%rax)
	testq	%rbx, %rbx
	je	.L1620
	movl	$-1, %eax
	lock xaddl	%eax, 12(%r12)
.L1621:
	cmpl	$1, %eax
	je	.L1652
	.p2align 4,,10
	.p2align 3
.L1616:
	sfence
.L1612:
	testq	%rbp, %rbp
	je	.L1609
	movq	_ZL28__gthrw___pthread_key_createPjPFvPvE@GOTPCREL(%rip), %rbx
	testq	%rbx, %rbx
	je	.L1628
	movl	$-1, %eax
	lock xaddl	%eax, 8(%rbp)
	cmpl	$1, %eax
	je	.L1653
	.p2align 4,,10
	.p2align 3
.L1609:
	movq	24(%rsp), %rax
	xorq	%fs:40, %rax
	jne	.L1654
	addq	$40, %rsp
	.cfi_remember_state
	.cfi_def_cfa_offset 40
	popq	%rbx
	.cfi_def_cfa_offset 32
	popq	%rbp
	.cfi_def_cfa_offset 24
	popq	%r12
	.cfi_def_cfa_offset 16
	popq	%r13
	.cfi_def_cfa_offset 8
	ret
	.p2align 4,,10
	.p2align 3
.L1628:
	.cfi_restore_state
	movl	8(%rbp), %eax
	leal	-1(%rax), %edx
	movl	%edx, 8(%rbp)
	cmpl	$1, %eax
	jne	.L1609
.L1653:
	movq	0(%rbp), %rax
	movq	%rbp, %rdi
	call	*16(%rax)
	testq	%rbx, %rbx
	je	.L1631
	movl	$-1, %eax
	lock xaddl	%eax, 12(%rbp)
.L1632:
	cmpl	$1, %eax
	jne	.L1609
	movq	0(%rbp), %rax
	movq	%rbp, %rdi
	call	*24(%rax)
	jmp	.L1609
	.p2align 4,,10
	.p2align 3
.L1617:
	movl	8(%r12), %eax
	leal	-1(%rax), %edx
	movl	%edx, 8(%r12)
	jmp	.L1618
	.p2align 4,,10
	.p2align 3
.L1651:
	movzbl	40(%r12), %edx
	movb	%dl, (%r12)
	movq	%r12, (%rax)
	jmp	.L1611
	.p2align 4,,10
	.p2align 3
.L1614:
	addl	$1, 8(%rbp)
	jmp	.L1613
	.p2align 4,,10
	.p2align 3
.L1631:
	movl	12(%rbp), %eax
	leal	-1(%rax), %edx
	movl	%edx, 12(%rbp)
	jmp	.L1632
	.p2align 4,,10
	.p2align 3
.L1652:
	movq	(%r12), %rax
	movq	%r12, %rdi
	call	*24(%rax)
	jmp	.L1616
	.p2align 4,,10
	.p2align 3
.L1620:
	movl	12(%r12), %eax
	leal	-1(%rax), %edx
	movl	%edx, 12(%r12)
	jmp	.L1621
.L1654:
	call	__stack_chk_fail@PLT
.L1634:
	endbr64
	movq	%rax, %r12
.L1622:
	movq	8(%rsp), %rdi
	testq	%rdi, %rdi
	je	.L1623
	call	_ZNSt16_Sp_counted_baseILN9__gnu_cxx12_Lock_policyE2EE10_M_releaseEv@PLT
.L1623:
	sfence
	testq	%rbp, %rbp
	je	.L1625
	movq	%rbp, %rdi
	call	_ZNSt16_Sp_counted_baseILN9__gnu_cxx12_Lock_policyE2EE10_M_releaseEv@PLT
.L1625:
	movq	%r12, %rdi
.LEHB39:
	call	_Unwind_Resume@PLT
.LEHE39:
	.cfi_endproc
.LFE10071:
	.section	.gcc_except_table
.LLSDA10071:
	.byte	0xff
	.byte	0xff
	.byte	0x1
	.uleb128 .LLSDACSE10071-.LLSDACSB10071
.LLSDACSB10071:
	.uleb128 .LEHB38-.LFB10071
	.uleb128 .LEHE38-.LEHB38
	.uleb128 .L1634-.LFB10071
	.uleb128 0
	.uleb128 .LEHB39-.LFB10071
	.uleb128 .LEHE39-.LEHB39
	.uleb128 0
	.uleb128 0
.LLSDACSE10071:
	.section	.text._ZN4asio6detail18completion_handlerIZN7asiopal13IAsyncChannel16CheckForShutdownESt10shared_ptrIS3_EEUlvE_E11do_completeEPNS0_15task_io_serviceEPNS0_25task_io_service_operationERKSt10error_codem,"axG",@progbits,_ZN4asio6detail18completion_handlerIZN7asiopal13IAsyncChannel16CheckForShutdownESt10shared_ptrIS3_EEUlvE_E11do_completeEPNS0_15task_io_serviceEPNS0_25task_io_service_operationERKSt10error_codem,comdat
	.size	_ZN4asio6detail18completion_handlerIZN7asiopal13IAsyncChannel16CheckForShutdownESt10shared_ptrIS3_EEUlvE_E11do_completeEPNS0_15task_io_serviceEPNS0_25task_io_service_operationERKSt10error_codem, .-_ZN4asio6detail18completion_handlerIZN7asiopal13IAsyncChannel16CheckForShutdownESt10shared_ptrIS3_EEUlvE_E11do_completeEPNS0_15task_io_serviceEPNS0_25task_io_service_operationERKSt10error_codem
	.section	.text._ZNSt8_Rb_treeISt10shared_ptrIN7asiopal9IResourceEES3_St9_IdentityIS3_ESt4lessIS3_ESaIS3_EE16_M_insert_uniqueIS3_EESt4pairISt17_Rb_tree_iteratorIS3_EbEOT_,"axG",@progbits,_ZNSt8_Rb_treeISt10shared_ptrIN7asiopal9IResourceEES3_St9_IdentityIS3_ESt4lessIS3_ESaIS3_EE16_M_insert_uniqueIS3_EESt4pairISt17_Rb_tree_iteratorIS3_EbEOT_,comdat
	.align 2
	.p2align 4
	.weak	_ZNSt8_Rb_treeISt10shared_ptrIN7asiopal9IResourceEES3_St9_IdentityIS3_ESt4lessIS3_ESaIS3_EE16_M_insert_uniqueIS3_EESt4pairISt17_Rb_tree_iteratorIS3_EbEOT_
	.type	_ZNSt8_Rb_treeISt10shared_ptrIN7asiopal9IResourceEES3_St9_IdentityIS3_ESt4lessIS3_ESaIS3_EE16_M_insert_uniqueIS3_EESt4pairISt17_Rb_tree_iteratorIS3_EbEOT_, @function
_ZNSt8_Rb_treeISt10shared_ptrIN7asiopal9IResourceEES3_St9_IdentityIS3_ESt4lessIS3_ESaIS3_EE16_M_insert_uniqueIS3_EESt4pairISt17_Rb_tree_iteratorIS3_EbEOT_:
.LFB9923:
	.cfi_startproc
	endbr64
	pushq	%r15
	.cfi_def_cfa_offset 16
	.cfi_offset 15, -16
	pushq	%r14
	.cfi_def_cfa_offset 24
	.cfi_offset 14, -24
	leaq	8(%rdi), %r14
	pushq	%r13
	.cfi_def_cfa_offset 32
	.cfi_offset 13, -32
	movq	%rsi, %r13
	pushq	%r12
	.cfi_def_cfa_offset 40
	.cfi_offset 12, -40
	pushq	%rbp
	.cfi_def_cfa_offset 48
	.cfi_offset 6, -48
	pushq	%rbx
	.cfi_def_cfa_offset 56
	.cfi_offset 3, -56
	movq	%rdi, %rbx
	subq	$8, %rsp
	.cfi_def_cfa_offset 64
	movq	16(%rdi), %r12
	testq	%r12, %r12
	je	.L1656
	movq	(%rsi), %rbp
	jmp	.L1657
	.p2align 4,,10
	.p2align 3
.L1673:
	movq	16(%r12), %rax
	movl	$1, %edx
	testq	%rax, %rax
	je	.L1658
.L1674:
	movq	%rax, %r12
.L1657:
	movq	32(%r12), %rcx
	cmpq	%rcx, %rbp
	jb	.L1673
	movq	24(%r12), %rax
	xorl	%edx, %edx
	testq	%rax, %rax
	jne	.L1674
.L1658:
	testb	%dl, %dl
	jne	.L1675
	cmpq	%rcx, %rbp
	jbe	.L1666
.L1665:
	movl	$1, %r15d
	cmpq	%r12, %r14
	jne	.L1676
.L1663:
	movl	$48, %edi
	call	_Znwm@PLT
	pxor	%xmm0, %xmm0
	movq	%r12, %rdx
	movq	%r14, %rcx
	movdqu	0(%r13), %xmm1
	movq	%rax, %rsi
	movl	%r15d, %edi
	movq	%rax, %rbp
	movups	%xmm0, 0(%r13)
	movups	%xmm1, 32(%rax)
	call	_ZSt29_Rb_tree_insert_and_rebalancebPSt18_Rb_tree_node_baseS0_RS_@PLT
	addq	$1, 40(%rbx)
	addq	$8, %rsp
	.cfi_remember_state
	.cfi_def_cfa_offset 56
	movq	%rbp, %rax
	popq	%rbx
	.cfi_def_cfa_offset 48
	movl	$1, %edx
	popq	%rbp
	.cfi_def_cfa_offset 40
	popq	%r12
	.cfi_def_cfa_offset 32
	popq	%r13
	.cfi_def_cfa_offset 24
	popq	%r14
	.cfi_def_cfa_offset 16
	popq	%r15
	.cfi_def_cfa_offset 8
	ret
	.p2align 4,,10
	.p2align 3
.L1675:
	.cfi_restore_state
	cmpq	%r12, 24(%rbx)
	je	.L1665
.L1667:
	movq	%r12, %rdi
	call	_ZSt18_Rb_tree_decrementPSt18_Rb_tree_node_base@PLT
	cmpq	32(%rax), %rbp
	ja	.L1665
	movq	%rax, %r12
.L1666:
	addq	$8, %rsp
	.cfi_remember_state
	.cfi_def_cfa_offset 56
	movq	%r12, %rax
	xorl	%edx, %edx
	popq	%rbx
	.cfi_def_cfa_offset 48
	popq	%rbp
	.cfi_def_cfa_offset 40
	popq	%r12
	.cfi_def_cfa_offset 32
	popq	%r13
	.cfi_def_cfa_offset 24
	popq	%r14
	.cfi_def_cfa_offset 16
	popq	%r15
	.cfi_def_cfa_offset 8
	ret
	.p2align 4,,10
	.p2align 3
.L1676:
	.cfi_restore_state
	xorl	%r15d, %r15d
	cmpq	32(%r12), %rbp
	setb	%r15b
	jmp	.L1663
	.p2align 4,,10
	.p2align 3
.L1656:
	movq	%r14, %r12
	cmpq	24(%rdi), %r14
	je	.L1669
	movq	(%rsi), %rbp
	jmp	.L1667
	.p2align 4,,10
	.p2align 3
.L1669:
	movl	$1, %r15d
	jmp	.L1663
	.cfi_endproc
.LFE9923:
	.size	_ZNSt8_Rb_treeISt10shared_ptrIN7asiopal9IResourceEES3_St9_IdentityIS3_ESt4lessIS3_ESaIS3_EE16_M_insert_uniqueIS3_EESt4pairISt17_Rb_tree_iteratorIS3_EbEOT_, .-_ZNSt8_Rb_treeISt10shared_ptrIN7asiopal9IResourceEES3_St9_IdentityIS3_ESt4lessIS3_ESaIS3_EE16_M_insert_uniqueIS3_EESt4pairISt17_Rb_tree_iteratorIS3_EbEOT_
	.section	.rodata.str1.1
.LC30:
	.string	"remote_endpoint"
.LC31:
	.string	"Accepted connection from: %s"
	.section	.rodata.str1.8,"aMS",@progbits,1
	.align 8
.LC32:
	.string	"/home/kimchaer/Desktop/OpenPLC_v3/utils/dnp3_src/cpp/libs/src/asiodnp3/MasterTCPServer.cpp(67)"
	.section	.rodata.str1.1
.LC33:
	.string	"close"
.LC34:
	.string	"Rejected connection from: %s"
	.section	.rodata.str1.8
	.align 8
.LC35:
	.string	"/home/kimchaer/Desktop/OpenPLC_v3/utils/dnp3_src/cpp/libs/src/asiodnp3/MasterTCPServer.cpp(90)"
	.section	.text.unlikely
	.align 2
.LCOLDB36:
	.text
.LHOTB36:
	.align 2
	.p2align 4
	.globl	_ZN8asiodnp315MasterTCPServer16AcceptConnectionEmRKSt10shared_ptrIN7asiopal8ExecutorEEN4asio19basic_stream_socketINS7_2ip3tcpENS7_21stream_socket_serviceISA_EEEE
	.type	_ZN8asiodnp315MasterTCPServer16AcceptConnectionEmRKSt10shared_ptrIN7asiopal8ExecutorEEN4asio19basic_stream_socketINS7_2ip3tcpENS7_21stream_socket_serviceISA_EEEE, @function
_ZN8asiodnp315MasterTCPServer16AcceptConnectionEmRKSt10shared_ptrIN7asiopal8ExecutorEEN4asio19basic_stream_socketINS7_2ip3tcpENS7_21stream_socket_serviceISA_EEEE:
.LFB8147:
	.cfi_startproc
	.cfi_personality 0x9b,DW.ref.__gxx_personality_v0
	.cfi_lsda 0x1b,.LLSDA8147
	endbr64
	pushq	%r15
	.cfi_def_cfa_offset 16
	.cfi_offset 15, -16
	pushq	%r14
	.cfi_def_cfa_offset 24
	.cfi_offset 14, -24
	pushq	%r13
	.cfi_def_cfa_offset 32
	.cfi_offset 13, -32
	pushq	%r12
	.cfi_def_cfa_offset 40
	.cfi_offset 12, -40
	pushq	%rbp
	.cfi_def_cfa_offset 48
	.cfi_offset 6, -48
	pushq	%rbx
	.cfi_def_cfa_offset 56
	.cfi_offset 3, -56
	movq	%rcx, %rbx
	subq	$888, %rsp
	.cfi_def_cfa_offset 944
	movq	%rdi, 8(%rsp)
	leaq	448(%rsp), %r15
	leaq	336(%rsp), %r14
	movq	%rsi, 56(%rsp)
	movq	%r15, %rdi
	movq	%rdx, 136(%rsp)
	movq	%fs:40, %rax
	movq	%rax, 872(%rsp)
	xorl	%eax, %eax
	movq	%r14, 64(%rsp)
	movq	%r15, 88(%rsp)
	call	_ZNSt8ios_baseC2Ev@PLT
	movq	_ZTVSt9basic_iosIcSt11char_traitsIcEE@GOTPCREL(%rip), %rax
	xorl	%ecx, %ecx
	xorl	%esi, %esi
	pxor	%xmm0, %xmm0
	movw	%cx, 672(%rsp)
	addq	$16, %rax
	movups	%xmm0, 680(%rsp)
	movq	%rax, 448(%rsp)
	movq	_ZTTNSt7__cxx1119basic_ostringstreamIcSt11char_traitsIcESaIcEEE@GOTPCREL(%rip), %rax
	movups	%xmm0, 696(%rsp)
	movq	$0, 664(%rsp)
	movq	8(%rax), %rdx
	movq	16(%rax), %rax
	addq	-24(%rdx), %r14
	movq	%rdx, 336(%rsp)
	movq	%rax, (%r14)
	movq	%r14, %rdi
	movq	%rdx, 72(%rsp)
	movq	%rax, 80(%rsp)
.LEHB40:
	call	_ZNSt9basic_iosIcSt11char_traitsIcEE4initEPSt15basic_streambufIcS1_E@PLT
.LEHE40:
	movq	_ZTVNSt7__cxx1119basic_ostringstreamIcSt11char_traitsIcESaIcEEE@GOTPCREL(%rip), %rax
	leaq	344(%rsp), %rbp
	leaq	24(%rax), %rcx
	addq	$64, %rax
	movq	%rax, 448(%rsp)
	movq	_ZTVSt15basic_streambufIcSt11char_traitsIcEE@GOTPCREL(%rip), %rax
	movq	%rcx, %xmm0
	movq	%rcx, 96(%rsp)
	addq	$16, %rax
	movq	%rax, %xmm1
	leaq	400(%rsp), %rax
	punpcklqdq	%xmm1, %xmm0
	movq	%rax, %rdi
	movq	%rax, 104(%rsp)
	movaps	%xmm0, 336(%rsp)
	pxor	%xmm0, %xmm0
	movaps	%xmm0, 352(%rsp)
	movaps	%xmm0, 368(%rsp)
	movaps	%xmm0, 384(%rsp)
	call	_ZNSt6localeC1Ev@PLT
	movq	_ZTVNSt7__cxx1115basic_stringbufIcSt11char_traitsIcESaIcEEE@GOTPCREL(%rip), %rax
	movq	%rbp, %rsi
	movq	%r15, %rdi
	movl	$16, 408(%rsp)
	addq	$16, %rax
	movb	$0, 432(%rsp)
	movq	%rax, 344(%rsp)
	leaq	432(%rsp), %rax
	movq	%rax, 112(%rsp)
	movq	%rax, 416(%rsp)
	movq	$0, 424(%rsp)
.LEHB41:
	call	_ZNSt9basic_iosIcSt11char_traitsIcEE4initEPSt15basic_streambufIcS1_E@PLT
.LEHE41:
	call	_ZNSt3_V215system_categoryEv@PLT
	movl	(%rbx), %r12d
	pxor	%xmm0, %xmm0
	movl	$0, 328(%rsp)
	movq	%rax, 144(%rsp)
	movq	$2, 304(%rsp)
	movups	%xmm0, 312(%rsp)
	cmpl	$-1, %r12d
	je	.L2126
	call	__errno_location@PLT
	leaq	240(%rsp), %r14
	movl	%r12d, %edi
	movl	$28, 240(%rsp)
	movl	$0, (%rax)
	movq	%rax, %rbp
	movq	%r14, %rdx
	leaq	304(%rsp), %rax
	movq	%rax, %rsi
	movq	%rax, 16(%rsp)
	call	getpeername@PLT
	movq	_ZGVZN4asio15system_categoryEvE8instance@GOTPCREL(%rip), %r15
	movl	240(%rsp), %r13d
	movl	%eax, %r12d
	movzbl	(%r15), %eax
	testb	%al, %al
	je	.L1683
.L2124:
	movq	_ZZN4asio15system_categoryEvE8instance@GOTPCREL(%rip), %rax
	movq	%rax, 24(%rsp)
	movq	%rax, %rsi
.L1684:
	movl	0(%rbp), %eax
	testl	%r12d, %r12d
	je	.L2127
	movl	$0, 296(%rsp)
	pxor	%xmm0, %xmm0
	movq	$2, 272(%rsp)
	movups	%xmm0, 280(%rsp)
	testl	%eax, %eax
	jne	.L1682
.L1689:
	leaq	272(%rsp), %rax
	movq	64(%rsp), %rdi
	movq	%rax, %rsi
	movq	%rax, 152(%rsp)
.LEHB42:
	call	_ZN4asio2iplsIcSt11char_traitsIcENS0_3tcpEEERSt13basic_ostreamIT_T0_ES9_RKNS0_14basic_endpointIT1_EE@PLT
.LEHE42:
	movq	8(%rsp), %rax
	movl	(%rbx), %edi
	pxor	%xmm0, %xmm0
	movq	208(%rax), %r13
	movq	0(%r13), %rax
	movq	16(%rax), %rax
	movups	%xmm0, 312(%rsp)
	movl	$0, 328(%rsp)
	movq	%rax, 120(%rsp)
	movq	$2, 304(%rsp)
	cmpl	$-1, %edi
	je	.L2128
	movl	$0, 0(%rbp)
	movq	16(%rsp), %rsi
	movq	%r14, %rdx
	movl	$28, 240(%rsp)
	call	getpeername@PLT
	movl	240(%rsp), %ecx
	movl	%eax, %r12d
	movzbl	(%r15), %eax
	testb	%al, %al
	je	.L2129
.L1693:
	movl	0(%rbp), %eax
	movq	24(%rsp), %rsi
	testl	%r12d, %r12d
	jne	.L1695
	cmpl	$128, %ecx
	ja	.L2130
	movl	328(%rsp), %ecx
	movl	308(%rsp), %eax
	cmpw	$2, 304(%rsp)
	movdqu	312(%rsp), %xmm0
	movl	%ecx, 48(%rsp)
	je	.L1698
	movl	48(%rsp), %r12d
	movl	$0, 0(%rbp)
	leaq	752(%rsp), %rax
	leaq	280(%rsp), %rsi
	movl	$63, %ecx
	movq	%rax, %rdx
	movl	$10, %edi
	movq	$1, 272(%rsp)
	movq	%r12, 296(%rsp)
	movq	%rax, 32(%rsp)
	movups	%xmm0, 280(%rsp)
	call	inet_ntop@PLT
	movq	%rax, 128(%rsp)
	movzbl	(%r15), %eax
	testb	%al, %al
	je	.L2131
.L1703:
	cmpq	$0, 128(%rsp)
	movl	0(%rbp), %eax
	movl	%eax, 160(%rsp)
	je	.L2132
	testq	%r12, %r12
	jne	.L1914
.L1715:
	movq	128(%rsp), %rdi
	leaq	320(%rsp), %rax
	movq	%rax, 48(%rsp)
	movq	%rax, 304(%rsp)
	call	strlen@PLT
	movq	%rax, 240(%rsp)
	movq	%rax, %r12
	cmpq	$15, %rax
	ja	.L2133
	cmpq	$1, %rax
	jne	.L1717
	movq	128(%rsp), %rsi
	movzbl	(%rsi), %edx
	movb	%dl, 320(%rsp)
	movq	48(%rsp), %rdx
.L1718:
	movq	%rax, 312(%rsp)
	movb	$0, (%rdx,%rax)
	movl	160(%rsp), %edx
	testl	%edx, %edx
	je	.L1720
	jmp	.L1710
	.p2align 4,,10
	.p2align 3
.L1695:
	testl	%eax, %eax
	jne	.L1691
.L1698:
	movl	$0, 0(%rbp)
	pxor	%xmm0, %xmm0
	leaq	276(%rsp), %rsi
	movl	$16, %ecx
	movl	%eax, 276(%rsp)
	leaq	752(%rsp), %rax
	movl	$2, %edi
	movq	%rax, %rdx
	movq	%rax, 32(%rsp)
	movl	$0, 272(%rsp)
	movq	$0, 296(%rsp)
	movups	%xmm0, 280(%rsp)
	call	inet_ntop@PLT
	movq	%rax, %r12
	movzbl	(%r15), %eax
	testb	%al, %al
	je	.L2134
.L1701:
	movl	0(%rbp), %eax
	movl	%eax, 128(%rsp)
	testq	%r12, %r12
	je	.L2135
	leaq	320(%rsp), %rax
	movq	%r12, %rdi
	movq	%rax, 48(%rsp)
	movq	%rax, 304(%rsp)
	call	strlen@PLT
	movq	%rax, 160(%rsp)
	movq	%rax, 240(%rsp)
	cmpq	$15, %rax
	ja	.L2136
	cmpq	$1, %rax
	jne	.L1732
	movzbl	(%r12), %edx
	movb	%dl, 320(%rsp)
	movq	48(%rsp), %rdx
.L1733:
	movq	%rax, 312(%rsp)
	movb	$0, (%rdx,%rax)
	movl	128(%rsp), %eax
	testl	%eax, %eax
	jne	.L1730
.L1720:
	movq	16(%rsp), %rdx
	movq	56(%rsp), %rsi
	movq	%r13, %rdi
	movq	120(%rsp), %rax
.LEHB43:
	call	*%rax
.LEHE43:
	movq	304(%rsp), %rdi
	movl	%eax, %r12d
	cmpq	48(%rsp), %rdi
	je	.L1737
	call	_ZdlPv@PLT
.L1737:
	testb	%r12b, %r12b
	je	.L1738
	movq	8(%rsp), %rax
	movq	%r14, %rsi
	movl	$8, 240(%rsp)
	leaq	24(%rax), %rbp
	movq	%rbp, %rdi
.LEHB44:
	call	_ZNK7openpal6Logger9IsEnabledERKNS_10LogFiltersE@PLT
.LEHE44:
	testb	%al, %al
	je	.L1739
	movq	384(%rsp), %rax
	leaq	288(%rsp), %r12
	movq	$0, 280(%rsp)
	movq	%r12, 272(%rsp)
	movb	$0, 288(%rsp)
	testq	%rax, %rax
	je	.L1740
	movq	368(%rsp), %r8
	movq	376(%rsp), %rcx
	cmpq	%r8, %rax
	jbe	.L1741
	subq	%rcx, %rax
	movq	152(%rsp), %rdi
	xorl	%edx, %edx
	xorl	%esi, %esi
	movq	%rax, %r8
.LEHB45:
	call	_ZNSt7__cxx1112basic_stringIcSt11char_traitsIcESaIcEE10_M_replaceEmmPKcm@PLT
.LEHE45:
.L1742:
	movq	32(%rsp), %rdi
	movq	272(%rsp), %r9
	movl	$120, %ecx
	xorl	%eax, %eax
	leaq	.LC31(%rip), %r8
	movl	$1, %edx
	movl	$120, %esi
	call	__snprintf_chk@PLT
	movq	272(%rsp), %rdi
	cmpq	%r12, %rdi
	je	.L1744
	call	_ZdlPv@PLT
.L1744:
	movq	32(%rsp), %rcx
	leaq	.LC32(%rip), %rdx
	movq	%r14, %rsi
	movq	%rbp, %rdi
	movl	$8, 240(%rsp)
.LEHB46:
	call	_ZN7openpal6Logger3LogERKNS_10LogFiltersEPKcS5_@PLT
.LEHE46:
.L1739:
	movq	24(%rbx), %rax
	movl	$72, %edi
	movq	%rax, 232(%rsp)
	movl	(%rbx), %eax
	movl	$-1, (%rbx)
	movl	%eax, 208(%rsp)
	movzbl	4(%rbx), %eax
	movb	$0, 4(%rbx)
	movb	%al, 212(%rsp)
	movq	8(%rbx), %rax
	movq	$0, 8(%rbx)
	movq	%rax, 216(%rsp)
	movl	16(%rbx), %eax
	movl	$2, 16(%rbx)
	movl	%eax, 224(%rsp)
	movq	136(%rsp), %rax
	movq	(%rax), %r12
	addq	$24, %r12
.LEHB47:
	call	_Znwm@PLT
.LEHE47:
	movq	%rax, %rbp
	movq	%r12, %rsi
	movabsq	$4294967297, %rax
	movq	%rax, 8(%rbp)
	movq	_ZTVSt23_Sp_counted_ptr_inplaceIN7asiopal8ExecutorESaIS1_ELN9__gnu_cxx12_Lock_policyE2EE@GOTPCREL(%rip), %rax
	leaq	16(%rbp), %r13
	movq	%r13, %rdi
	addq	$16, %rax
	movq	%rax, 0(%rbp)
.LEHB48:
	call	_ZN7asiopal8ExecutorC1ERKSt10shared_ptrINS_2IOEE@PLT
.LEHE48:
	movq	32(%rbp), %rax
	testq	%rax, %rax
	je	.L1748
	movl	8(%rax), %eax
	testl	%eax, %eax
	jne	.L1751
.L1748:
	movq	_ZL28__gthrw___pthread_key_createPjPFvPvE@GOTPCREL(%rip), %rbx
	movq	%r13, 24(%rbp)
	testq	%rbx, %rbx
	je	.L2137
	lock addl	$1, 12(%rbp)
.L1752:
	movq	32(%rbp), %rdi
	testq	%rdi, %rdi
	je	.L1754
	testq	%rbx, %rbx
	je	.L1755
	movl	$-1, %eax
	lock xaddl	%eax, 12(%rdi)
.L1756:
	cmpl	$1, %eax
	jne	.L1754
	movq	(%rdi), %rax
	call	*24(%rax)
	.p2align 4,,10
	.p2align 3
.L1754:
	movq	%rbp, 32(%rbp)
.L1751:
	movl	$112, %edi
.LEHB49:
	call	_Znwm@PLT
.LEHE49:
	movq	%rax, %r12
	movq	%r13, %xmm0
	movabsq	$4294967297, %rax
	movq	_ZL28__gthrw___pthread_key_createPjPFvPvE@GOTPCREL(%rip), %rbx
	movq	%rax, 8(%r12)
	movq	_ZTVSt23_Sp_counted_ptr_inplaceIN7asiopal13SocketChannelESaIS1_ELN9__gnu_cxx12_Lock_policyE2EE@GOTPCREL(%rip), %rax
	movq	%rbp, %xmm3
	leaq	8(%rbp), %r13
	punpcklqdq	%xmm3, %xmm0
	addq	$16, %rax
	movaps	%xmm0, 176(%rsp)
	movq	%rax, (%r12)
	leaq	16(%r12), %rax
	movq	%rax, 24(%rsp)
	testq	%rbx, %rbx
	je	.L1758
	lock addl	$1, 0(%r13)
.L1759:
	movq	232(%rsp), %rax
	leaq	176(%rsp), %rsi
	movq	%r14, %rdx
	leaq	16(%r12), %rdi
	movq	%rax, 264(%rsp)
	movl	208(%rsp), %eax
	movl	$-1, 208(%rsp)
	movl	%eax, 240(%rsp)
	movzbl	212(%rsp), %eax
	movb	$0, 212(%rsp)
	movb	%al, 244(%rsp)
	movq	216(%rsp), %rax
	movq	$0, 216(%rsp)
	movq	%rax, 248(%rsp)
	movl	224(%rsp), %eax
	movl	$2, 224(%rsp)
	movl	%eax, 256(%rsp)
.LEHB50:
	call	_ZN7asiopal13SocketChannelC1ESt10shared_ptrINS_8ExecutorEEN4asio19basic_stream_socketINS4_2ip3tcpENS4_21stream_socket_serviceIS7_EEEE@PLT
.LEHE50:
	movl	240(%rsp), %esi
	cmpl	$-1, %esi
	je	.L1760
	movzbl	244(%rsp), %ecx
	movq	264(%rsp), %rax
	leaq	248(%rsp), %rdx
	shrb	$6, %cl
	movq	40(%rax), %rdi
	xorl	$1, %ecx
	andl	$1, %ecx
	call	_ZN4asio6detail13epoll_reactor21deregister_descriptorEiRPNS1_16descriptor_stateEb@PLT
	movq	144(%rsp), %rax
	movl	240(%rsp), %edi
	leaq	192(%rsp), %rcx
	leaq	244(%rsp), %rsi
	movl	$1, %edx
	movl	$0, 192(%rsp)
	movq	%rax, 200(%rsp)
	call	_ZN4asio6detail10socket_ops5closeEiRhbRSt10error_code@PLT
.L1760:
	movq	184(%rsp), %r15
	testq	%r15, %r15
	je	.L1766
	testq	%rbx, %rbx
	je	.L1762
	movl	$-1, %eax
	lock xaddl	%eax, 8(%r15)
.L1763:
	cmpl	$1, %eax
	je	.L2138
.L1766:
	movq	32(%r12), %rax
	testq	%rax, %rax
	je	.L1770
	movl	8(%rax), %eax
	testl	%eax, %eax
	jne	.L1771
.L1770:
	leaq	16(%r12), %rax
	movq	%rax, 24(%r12)
	testq	%rbx, %rbx
	je	.L2139
	lock addl	$1, 12(%r12)
.L1772:
	movq	32(%r12), %rdi
	testq	%rdi, %rdi
	je	.L1774
	testq	%rbx, %rbx
	je	.L1775
	movl	$-1, %eax
	lock xaddl	%eax, 12(%rdi)
.L1776:
	cmpl	$1, %eax
	jne	.L1774
	movq	(%rdi), %rax
	call	*24(%rax)
	.p2align 4,,10
	.p2align 3
.L1774:
	movq	%r12, 32(%r12)
.L1771:
	movq	24(%rsp), %xmm0
	movq	%r12, %xmm5
	punpcklqdq	%xmm5, %xmm0
	movaps	%xmm0, 192(%rsp)
	testq	%rbx, %rbx
	je	.L2140
	movl	$-1, %eax
	lock xaddl	%eax, 0(%r13)
.L1778:
	cmpl	$1, %eax
	je	.L2141
.L1780:
	movl	208(%rsp), %esi
	cmpl	$-1, %esi
	je	.L1784
	movzbl	212(%rsp), %ecx
	movq	232(%rsp), %rax
	leaq	216(%rsp), %rdx
	shrb	$6, %cl
	movq	40(%rax), %rdi
	xorl	$1, %ecx
	andl	$1, %ecx
	call	_ZN4asio6detail13epoll_reactor21deregister_descriptorEiRPNS1_16descriptor_stateEb@PLT
	movq	144(%rsp), %rax
	movq	%r14, %rcx
	movl	$1, %edx
	movl	208(%rsp), %edi
	leaq	212(%rsp), %rsi
	movl	$0, 240(%rsp)
	movq	%rax, 248(%rsp)
	call	_ZN4asio6detail10socket_ops5closeEiRhbRSt10error_code@PLT
.L1784:
	movq	8(%rsp), %rax
	movq	224(%rax), %r15
	leaq	8(%r15), %r12
	testq	%rbx, %rbx
	je	.L1785
	movq	%r12, %rdi
	call	_ZL26__gthrw_pthread_mutex_lockP15pthread_mutex_t@PLT
	testl	%eax, %eax
	jne	.L2142
.L1785:
	cmpb	$0, 48(%r15)
	je	.L1786
	testq	%rbx, %rbx
	je	.L1788
	movq	%r12, %rdi
	call	_ZL28__gthrw_pthread_mutex_unlockP15pthread_mutex_t@PLT
.L1788:
	movq	192(%rsp), %rbp
	cmpb	$0, 56(%rbp)
	jne	.L1839
	movq	0(%rbp), %rax
	movb	$1, 56(%rbp)
	movq	%rbp, %rdi
.LEHB51:
	call	*32(%rax)
.LEHE51:
	movq	16(%rbp), %r12
	testq	%r12, %r12
	je	.L1841
	movl	8(%r12), %eax
	leaq	8(%r12), %rdx
.L1843:
	testl	%eax, %eax
	je	.L2106
	leal	1(%rax), %ecx
	lock cmpxchgl	%ecx, (%rdx)
	jne	.L1843
	movq	8(%rbp), %rax
	movq	24(%rbp), %rbp
	movq	%r12, 248(%rsp)
	movq	%rax, 240(%rsp)
	testq	%rbx, %rbx
	je	.L1844
	lock addl	$1, (%rdx)
	movq	248(%rsp), %r13
.L1845:
	movq	%r14, %rdi
	xorl	%eax, %eax
	movq	40(%rbp), %r15
	call	_ZN4asio28asio_handler_is_continuationEz@PLT
	movb	%al, 8(%rsp)
	data16	leaq	_ZN4asio6detail15keyword_tss_ptrINS0_10call_stackINS0_15task_io_serviceENS0_27task_io_service_thread_infoEE7contextEE6value_E@tlsgd(%rip), %rdi
	.value	0x6666
	rex64
	call	__tls_get_addr@PLT
	movq	(%rax), %rax
	testq	%rax, %rax
	je	.L1846
	movq	8(%rax), %rax
	testq	%rax, %rax
	je	.L1846
	movq	(%rax), %r14
	testq	%r14, %r14
	je	.L1846
	movq	$0, (%rax)
	movzbl	(%r14), %eax
	cmpb	$39, %al
	jbe	.L1847
	movb	%al, 40(%r14)
.L1848:
	movq	_ZN4asio6detail18completion_handlerIZN7asiopal13IAsyncChannel8ShutdownEvEUlvE_E11do_completeEPNS0_15task_io_serviceEPNS0_25task_io_service_operationERKSt10error_codem@GOTPCREL(%rip), %rax
	pxor	%xmm0, %xmm0
	movq	$0, (%r14)
	movl	$0, 16(%r14)
	movq	%rax, 8(%r14)
	movq	240(%rsp), %rax
	movq	%r13, 32(%r14)
	movq	%rax, 24(%r14)
	movaps	%xmm0, 240(%rsp)
	movq	48(%rbp), %rax
	leaq	24(%rax), %rdi
	call	pthread_mutex_lock@PLT
	movq	48(%rbp), %rdi
	cmpb	$0, 64(%rdi)
	je	.L1849
	cmpq	$0, 80(%rdi)
	movq	$0, (%r14)
	je	.L1850
	movq	80(%rdi), %rax
	movq	%r14, (%rax)
	movq	%r14, 80(%rdi)
.L1851:
	addq	$24, %rdi
	call	pthread_mutex_unlock@PLT
.L1852:
	movq	%r12, %rdi
	call	_ZNSt16_Sp_counted_baseILN9__gnu_cxx12_Lock_policyE2EE10_M_releaseEv@PLT
	.p2align 4,,10
	.p2align 3
.L1839:
	movq	200(%rsp), %rbp
	testq	%rbp, %rbp
	je	.L1875
	testq	%rbx, %rbx
	je	.L1870
	movl	$-1, %eax
	lock xaddl	%eax, 8(%rbp)
.L1871:
	cmpl	$1, %eax
	jne	.L1875
	movq	0(%rbp), %rax
	movq	%rbp, %rdi
	call	*16(%rax)
	testq	%rbx, %rbx
	je	.L1873
	movl	$-1, %eax
	lock xaddl	%eax, 12(%rbp)
.L1874:
	cmpl	$1, %eax
	jne	.L1875
	movq	0(%rbp), %rax
	movq	%rbp, %rdi
	call	*24(%rax)
	jmp	.L1875
	.p2align 4,,10
	.p2align 3
.L2127:
	cmpl	$128, %r13d
	ja	.L2143
	movq	320(%rsp), %rax
	movdqa	304(%rsp), %xmm4
	movq	%rax, 288(%rsp)
	movl	328(%rsp), %eax
	movaps	%xmm4, 272(%rsp)
	movl	%eax, 296(%rsp)
	jmp	.L1689
	.p2align 4,,10
	.p2align 3
.L2134:
	movq	%r15, %rdi
	call	__cxa_guard_acquire@PLT
	testl	%eax, %eax
	je	.L1701
	movq	24(%rsp), %rsi
	movq	_ZN4asio6detail15system_categoryD1Ev@GOTPCREL(%rip), %rdi
	leaq	__dso_handle(%rip), %rdx
	call	__cxa_atexit@PLT
	movq	%r15, %rdi
	call	__cxa_guard_release@PLT
	jmp	.L1701
	.p2align 4,,10
	.p2align 3
.L1683:
	movq	%r15, %rdi
	call	__cxa_guard_acquire@PLT
	testl	%eax, %eax
	je	.L2124
	movq	_ZZN4asio15system_categoryEvE8instance@GOTPCREL(%rip), %rax
	movq	_ZN4asio6detail15system_categoryD1Ev@GOTPCREL(%rip), %rdi
	leaq	__dso_handle(%rip), %rdx
	movq	%rax, %rsi
	movq	%rax, 24(%rsp)
	call	__cxa_atexit@PLT
	movq	%r15, %rdi
	call	__cxa_guard_release@PLT
	movq	24(%rsp), %rsi
	jmp	.L1684
	.p2align 4,,10
	.p2align 3
.L2129:
	movq	%r15, %rdi
	movl	%ecx, 48(%rsp)
	call	__cxa_guard_acquire@PLT
	movl	48(%rsp), %ecx
	testl	%eax, %eax
	je	.L1693
	movq	24(%rsp), %rsi
	movq	_ZN4asio6detail15system_categoryD1Ev@GOTPCREL(%rip), %rdi
	leaq	__dso_handle(%rip), %rdx
	call	__cxa_atexit@PLT
	movq	%r15, %rdi
	call	__cxa_guard_release@PLT
	movl	48(%rsp), %ecx
	jmp	.L1693
	.p2align 4,,10
	.p2align 3
.L2135:
	testl	%eax, %eax
	je	.L2144
	leaq	320(%rsp), %rax
	movb	$0, 320(%rsp)
	movq	%rax, 48(%rsp)
	movq	%rax, 304(%rsp)
	movq	$0, 312(%rsp)
.L1730:
	movl	128(%rsp), %edi
	movq	24(%rsp), %rsi
.LEHB52:
	call	_ZN4asio6detail14do_throw_errorERKSt10error_code.isra.0
.LEHE52:
	.p2align 4,,10
	.p2align 3
.L1732:
	cmpq	$0, 160(%rsp)
	jne	.L2145
	movq	48(%rsp), %rdx
	jmp	.L1733
	.p2align 4,,10
	.p2align 3
.L1914:
	movzbl	280(%rsp), %eax
	movb	$0, 736(%rsp)
	movq	$37, 720(%rsp)
	movq	$0, 728(%rsp)
	cmpb	$-2, %al
	je	.L2146
	cmpb	$-1, %al
	jne	.L2125
	movzbl	281(%rsp), %eax
	leaq	721(%rsp), %r9
	andl	$15, %eax
	cmpb	$2, %al
	je	.L1712
.L1714:
	movq	%r12, %r8
	leaq	.LC28(%rip), %rcx
	movq	%r9, %rdi
	xorl	%eax, %eax
	movl	$16, %edx
	movl	$1, %esi
	call	__sprintf_chk@PLT
.L1713:
	movq	32(%rsp), %rdi
	leaq	720(%rsp), %rsi
	movl	$63, %edx
	call	__strcat_chk@PLT
	jmp	.L1715
	.p2align 4,,10
	.p2align 3
.L1738:
	movl	(%rbx), %esi
	cmpl	$-1, %esi
	je	.L1876
	movzbl	4(%rbx), %ecx
	movq	24(%rbx), %rax
	leaq	8(%rbx), %rdx
	shrb	$6, %cl
	movq	40(%rax), %rdi
	xorl	$1, %ecx
	andl	$1, %ecx
	call	_ZN4asio6detail13epoll_reactor21deregister_descriptorEiRPNS1_16descriptor_stateEb@PLT
	movl	(%rbx), %r12d
	cmpl	$-1, %r12d
	je	.L1876
	movl	$0, 0(%rbp)
	movl	%r12d, %edi
.LEHB53:
	call	close@PLT
	movl	%eax, %r13d
	movzbl	(%r15), %eax
	testb	%al, %al
	je	.L2147
.L1880:
	movl	0(%rbp), %ecx
	testl	%r13d, %r13d
	jne	.L2148
.L1876:
	movl	$-1, (%rbx)
	movb	$0, 4(%rbx)
.L1878:
	movq	8(%rsp), %rbp
	movq	%r14, %rsi
	movl	$8, 240(%rsp)
	addq	$24, %rbp
	movq	%rbp, %rdi
	call	_ZNK7openpal6Logger9IsEnabledERKNS_10LogFiltersE@PLT
.LEHE53:
	testb	%al, %al
	jne	.L2149
.L1875:
	movq	_ZTVNSt7__cxx1119basic_ostringstreamIcSt11char_traitsIcESaIcEEE@GOTPCREL(%rip), %rax
	movq	96(%rsp), %xmm0
	movq	416(%rsp), %rdi
	addq	$64, %rax
	movq	%rax, 448(%rsp)
	movq	_ZTVNSt7__cxx1115basic_stringbufIcSt11char_traitsIcESaIcEEE@GOTPCREL(%rip), %rax
	addq	$16, %rax
	movq	%rax, %xmm2
	punpcklqdq	%xmm2, %xmm0
	movaps	%xmm0, 336(%rsp)
	cmpq	112(%rsp), %rdi
	je	.L1897
	call	_ZdlPv@PLT
.L1897:
	movq	_ZTVSt15basic_streambufIcSt11char_traitsIcEE@GOTPCREL(%rip), %rax
	movq	104(%rsp), %rdi
	addq	$16, %rax
	movq	%rax, 344(%rsp)
	call	_ZNSt6localeD1Ev@PLT
	movq	72(%rsp), %rax
	movq	80(%rsp), %rbx
	movq	88(%rsp), %rdi
	movq	%rax, 336(%rsp)
	movq	-24(%rax), %rax
	movq	%rbx, 336(%rsp,%rax)
	movq	_ZTVSt9basic_iosIcSt11char_traitsIcEE@GOTPCREL(%rip), %rax
	addq	$16, %rax
	movq	%rax, 448(%rsp)
	call	_ZNSt8ios_baseD2Ev@PLT
	movq	872(%rsp), %rax
	xorq	%fs:40, %rax
	jne	.L2150
	addq	$888, %rsp
	.cfi_remember_state
	.cfi_def_cfa_offset 56
	popq	%rbx
	.cfi_def_cfa_offset 48
	popq	%rbp
	.cfi_def_cfa_offset 40
	popq	%r12
	.cfi_def_cfa_offset 32
	popq	%r13
	.cfi_def_cfa_offset 24
	popq	%r14
	.cfi_def_cfa_offset 16
	popq	%r15
	.cfi_def_cfa_offset 8
	ret
	.p2align 4,,10
	.p2align 3
.L2149:
	.cfi_restore_state
	movq	48(%rsp), %rax
	movb	$0, 320(%rsp)
	movq	$0, 312(%rsp)
	movq	%rax, 304(%rsp)
	movq	384(%rsp), %rax
	testq	%rax, %rax
	je	.L1890
	movq	368(%rsp), %r8
	movq	376(%rsp), %rcx
	cmpq	%r8, %rax
	jbe	.L1891
	subq	%rcx, %rax
	movq	16(%rsp), %rdi
	xorl	%edx, %edx
	xorl	%esi, %esi
	movq	%rax, %r8
.LEHB54:
	call	_ZNSt7__cxx1112basic_stringIcSt11char_traitsIcESaIcEE10_M_replaceEmmPKcm@PLT
.LEHE54:
.L1892:
	movq	32(%rsp), %rdi
	movq	304(%rsp), %r9
	movl	$120, %ecx
	xorl	%eax, %eax
	leaq	.LC34(%rip), %r8
	movl	$1, %edx
	movl	$120, %esi
	call	__snprintf_chk@PLT
	movq	304(%rsp), %rdi
	cmpq	48(%rsp), %rdi
	je	.L1894
	call	_ZdlPv@PLT
.L1894:
	movq	32(%rsp), %rcx
	leaq	.LC35(%rip), %rdx
	movq	%r14, %rsi
	movq	%rbp, %rdi
	movl	$8, 240(%rsp)
.LEHB55:
	call	_ZN7openpal6Logger3LogERKNS_10LogFiltersEPKcS5_@PLT
.LEHE55:
	jmp	.L1875
	.p2align 4,,10
	.p2align 3
.L1786:
	movq	8(%rsp), %rcx
	movdqu	224(%rcx), %xmm6
	movq	232(%rcx), %rax
	leaq	208(%rcx), %rsi
	movq	%rsi, 24(%rsp)
	movaps	%xmm6, 32(%rsp)
	movaps	%xmm6, 208(%rsp)
	testq	%rax, %rax
	je	.L1789
	testq	%rbx, %rbx
	je	.L1790
	lock addl	$1, 8(%rax)
.L1789:
	movq	56(%rsp), %rsi
	movq	16(%rsp), %rdi
.LEHB56:
	call	_ZN8asiodnp315MasterTCPServer17SessionIdToStringB5cxx11Em@PLT
.LEHE56:
	movq	8(%rsp), %rax
	movl	$56, %edi
	movq	40(%rax), %r13
.LEHB57:
	call	_Znwm@PLT
.LEHE57:
	movq	%rax, %rbp
	movabsq	$4294967297, %rax
	movq	%rax, 8(%rbp)
	movq	_ZTVSt23_Sp_counted_ptr_inplaceIN7openpal6Logger8SettingsESaIS2_ELN9__gnu_cxx12_Lock_policyE2EE@GOTPCREL(%rip), %rax
	leaq	32(%rbp), %rdi
	addq	$16, %rax
	movq	%rax, 0(%rbp)
	movl	32(%r13), %eax
	movq	312(%rsp), %r13
	movq	%rdi, 16(%rbp)
	movl	%eax, 16(%rsp)
	leaq	16(%rbp), %rax
	movq	%rax, 32(%rsp)
	movq	304(%rsp), %rax
	movq	%rax, %rcx
	movq	%rax, 120(%rsp)
	addq	%r13, %rcx
	je	.L1791
	testq	%rax, %rax
	je	.L2151
.L1791:
	movq	%r13, 240(%rsp)
	cmpq	$15, %r13
	ja	.L2152
	cmpq	$1, %r13
	jne	.L1794
	movq	120(%rsp), %rax
	movzbl	(%rax), %eax
	movb	%al, 32(%rbp)
.L1795:
	movl	16(%rsp), %eax
	movq	8(%rsp), %rcx
	movq	%r13, 24(%rbp)
	movb	$0, (%rdi,%r13)
	movl	%eax, 48(%rbp)
	movdqu	24(%rcx), %xmm6
	movq	32(%rcx), %rax
	movaps	%xmm6, 240(%rsp)
	testq	%rax, %rax
	je	.L1797
	testq	%rbx, %rbx
	je	.L1800
	lock addl	$1, 8(%rax)
.L1797:
	movq	32(%rsp), %xmm0
	movq	%rbp, %xmm7
	punpcklqdq	%xmm7, %xmm0
	movaps	%xmm0, 256(%rsp)
	testq	%rbx, %rbx
	je	.L2153
	lock addl	$1, 8(%rbp)
.L1801:
	movq	%rbp, %rdi
	call	_ZNSt16_Sp_counted_baseILN9__gnu_cxx12_Lock_policyE2EE10_M_releaseEv@PLT
	movl	$624, %edi
.LEHB58:
	call	_Znwm@PLT
.LEHE58:
	movq	%rax, %rbp
	movq	24(%rsp), %r8
	movq	56(%rsp), %rdx
	movq	%r14, %rsi
	movabsq	$4294967297, %rax
	leaq	16(%rbp), %r13
	leaq	208(%rsp), %rcx
	movq	%rax, 8(%rbp)
	movq	_ZTVSt23_Sp_counted_ptr_inplaceIN8asiodnp311LinkSessionESaIS1_ELN9__gnu_cxx12_Lock_policyE2EE@GOTPCREL(%rip), %rax
	leaq	192(%rsp), %r9
	movq	%r13, %rdi
	addq	$16, %rax
	movq	%rax, 0(%rbp)
.LEHB59:
	call	_ZN8asiodnp311LinkSessionC1ERKN7openpal6LoggerEmRKSt10shared_ptrIN7asiopal16IResourceManagerEERKS5_INS_16IListenCallbacksEERKS5_INS6_13IAsyncChannelEE@PLT
.LEHE59:
	movq	48(%rbp), %rax
	testq	%rax, %rax
	je	.L1807
	movl	8(%rax), %eax
	testl	%eax, %eax
	je	.L1807
.L1808:
	movq	%r13, %rdi
.LEHB60:
	call	_ZN8asiodnp311LinkSession5StartEv@PLT
.LEHE60:
	movq	264(%rsp), %rdi
	testq	%rdi, %rdi
	je	.L1817
	call	_ZNSt16_Sp_counted_baseILN9__gnu_cxx12_Lock_policyE2EE10_M_releaseEv@PLT
.L1817:
	movq	248(%rsp), %rdi
	testq	%rdi, %rdi
	je	.L1818
	call	_ZNSt16_Sp_counted_baseILN9__gnu_cxx12_Lock_policyE2EE10_M_releaseEv@PLT
.L1818:
	movq	304(%rsp), %rdi
	cmpq	48(%rsp), %rdi
	je	.L1819
	call	_ZdlPv@PLT
.L1819:
	movq	216(%rsp), %rdi
	testq	%rdi, %rdi
	je	.L1820
	call	_ZNSt16_Sp_counted_baseILN9__gnu_cxx12_Lock_policyE2EE10_M_releaseEv@PLT
.L1820:
	leaq	56(%rbp), %rax
	movq	%rbp, 248(%rsp)
	leaq	8(%rbp), %r13
	movq	%rax, 240(%rsp)
	testq	%rbx, %rbx
	je	.L2154
	lock addl	$1, 0(%r13)
.L1827:
	leaq	56(%r15), %rdi
	movq	%r14, %rsi
.LEHB61:
	call	_ZNSt8_Rb_treeISt10shared_ptrIN7asiopal9IResourceEES3_St9_IdentityIS3_ESt4lessIS3_ESaIS3_EE16_M_insert_uniqueIS3_EESt4pairISt17_Rb_tree_iteratorIS3_EbEOT_@PLT
.LEHE61:
	movq	248(%rsp), %rdi
	testq	%rdi, %rdi
	je	.L1828
	call	_ZNSt16_Sp_counted_baseILN9__gnu_cxx12_Lock_policyE2EE10_M_releaseEv@PLT
.L1828:
	testq	%rbx, %rbx
	je	.L1834
	movq	%r12, %rdi
	call	_ZL28__gthrw_pthread_mutex_unlockP15pthread_mutex_t@PLT
	movl	$-1, %eax
	lock xaddl	%eax, 0(%r13)
.L1835:
	cmpl	$1, %eax
	jne	.L1839
	movq	0(%rbp), %rax
	movq	%rbp, %rdi
	call	*16(%rax)
	testq	%rbx, %rbx
	je	.L1837
	movl	$-1, %eax
	lock xaddl	%eax, 12(%rbp)
.L1838:
	cmpl	$1, %eax
	jne	.L1839
	movq	0(%rbp), %rax
	movq	%rbp, %rdi
	call	*24(%rax)
	jmp	.L1839
	.p2align 4,,10
	.p2align 3
.L1807:
	movq	%r13, 40(%rbp)
	testq	%rbx, %rbx
	je	.L2155
	lock addl	$1, 12(%rbp)
.L1809:
	movq	48(%rbp), %rdi
	testq	%rdi, %rdi
	je	.L1811
	testq	%rbx, %rbx
	je	.L1812
	movl	$-1, %eax
	lock xaddl	%eax, 12(%rdi)
.L1813:
	cmpl	$1, %eax
	jne	.L1811
	movq	(%rdi), %rax
	call	*24(%rax)
	.p2align 4,,10
	.p2align 3
.L1811:
	movq	%rbp, 48(%rbp)
	jmp	.L1808
	.p2align 4,,10
	.p2align 3
.L1758:
	addl	$1, 8(%rbp)
	jmp	.L1759
	.p2align 4,,10
	.p2align 3
.L1834:
	movl	8(%rbp), %eax
	leal	-1(%rax), %edx
	movl	%edx, 8(%rbp)
	jmp	.L1835
	.p2align 4,,10
	.p2align 3
.L2140:
	movl	8(%rbp), %eax
	leal	-1(%rax), %edx
	movl	%edx, 8(%rbp)
	jmp	.L1778
	.p2align 4,,10
	.p2align 3
.L1762:
	movl	8(%r15), %eax
	leal	-1(%rax), %edx
	movl	%edx, 8(%r15)
	jmp	.L1763
	.p2align 4,,10
	.p2align 3
.L1870:
	movl	8(%rbp), %eax
	leal	-1(%rax), %edx
	movl	%edx, 8(%rbp)
	jmp	.L1871
	.p2align 4,,10
	.p2align 3
.L2136:
	movq	16(%rsp), %rdi
	xorl	%edx, %edx
	movq	%r14, %rsi
.LEHB62:
	call	_ZNSt7__cxx1112basic_stringIcSt11char_traitsIcESaIcEE9_M_createERmm@PLT
	movq	%rax, 304(%rsp)
	movq	%rax, %rdi
	movq	240(%rsp), %rax
	movq	%rax, 320(%rsp)
.L1731:
	movq	160(%rsp), %rdx
	movq	%r12, %rsi
	call	memcpy@PLT
	movq	240(%rsp), %rax
	movq	304(%rsp), %rdx
	jmp	.L1733
	.p2align 4,,10
	.p2align 3
.L2131:
	movq	%r15, %rdi
	call	__cxa_guard_acquire@PLT
	testl	%eax, %eax
	je	.L1703
	movq	24(%rsp), %rsi
	movq	_ZN4asio6detail15system_categoryD1Ev@GOTPCREL(%rip), %rdi
	leaq	__dso_handle(%rip), %rdx
	call	__cxa_atexit@PLT
	movq	%r15, %rdi
	call	__cxa_guard_release@PLT
	jmp	.L1703
	.p2align 4,,10
	.p2align 3
.L2148:
	movzbl	(%r15), %eax
	testb	%al, %al
	je	.L2156
.L1883:
	cmpl	$11, %ecx
	je	.L1885
	movzbl	(%r15), %eax
	testb	%al, %al
	je	.L2157
.L1886:
	movl	$-1, (%rbx)
	movb	$0, 4(%rbx)
	testl	%ecx, %ecx
	je	.L1878
	movq	24(%rsp), %rsi
	movl	%ecx, %edi
	leaq	.LC33(%rip), %rdx
	call	_ZN4asio6detail14do_throw_errorERKSt10error_codePKc.isra.0
.LEHE62:
	.p2align 4,,10
	.p2align 3
.L2147:
	movq	%r15, %rdi
	call	__cxa_guard_acquire@PLT
	testl	%eax, %eax
	je	.L1880
	movq	24(%rsp), %rsi
	movq	_ZN4asio6detail15system_categoryD1Ev@GOTPCREL(%rip), %rdi
	leaq	__dso_handle(%rip), %rdx
	call	__cxa_atexit@PLT
	movq	%r15, %rdi
	call	__cxa_guard_release@PLT
	jmp	.L1880
	.p2align 4,,10
	.p2align 3
.L1741:
	movq	152(%rsp), %rdi
	subq	%rcx, %r8
	xorl	%edx, %edx
	xorl	%esi, %esi
.LEHB63:
	call	_ZNSt7__cxx1112basic_stringIcSt11char_traitsIcESaIcEE10_M_replaceEmmPKcm@PLT
.LEHE63:
	jmp	.L1742
	.p2align 4,,10
	.p2align 3
.L2132:
	testl	%eax, %eax
	je	.L2158
	leaq	320(%rsp), %rax
	movb	$0, 320(%rsp)
	movq	%rax, 48(%rsp)
	movq	%rax, 304(%rsp)
	movq	$0, 312(%rsp)
.L1710:
	movl	160(%rsp), %edi
	movq	24(%rsp), %rsi
.LEHB64:
	call	_ZN4asio6detail14do_throw_errorERKSt10error_code.isra.0
.LEHE64:
	.p2align 4,,10
	.p2align 3
.L2141:
	movq	0(%rbp), %rax
	movq	%rbp, %rdi
	call	*16(%rax)
	testq	%rbx, %rbx
	je	.L1781
	movl	$-1, %eax
	lock xaddl	%eax, 12(%rbp)
.L1782:
	cmpl	$1, %eax
	jne	.L1780
	movq	0(%rbp), %rax
	movq	%rbp, %rdi
	call	*24(%rax)
	jmp	.L1780
	.p2align 4,,10
	.p2align 3
.L2138:
	movq	(%r15), %rax
	movq	%r15, %rdi
	call	*16(%rax)
	testq	%rbx, %rbx
	je	.L1764
	movl	$-1, %eax
	lock xaddl	%eax, 12(%r15)
.L1765:
	cmpl	$1, %eax
	jne	.L1766
	movq	(%r15), %rax
	movq	%r15, %rdi
	call	*24(%rax)
	jmp	.L1766
	.p2align 4,,10
	.p2align 3
.L1891:
	movq	16(%rsp), %rdi
	subq	%rcx, %r8
	xorl	%edx, %edx
	xorl	%esi, %esi
.LEHB65:
	call	_ZNSt7__cxx1112basic_stringIcSt11char_traitsIcESaIcEE10_M_replaceEmmPKcm@PLT
.LEHE65:
	jmp	.L1892
	.p2align 4,,10
	.p2align 3
.L2144:
	movzbl	(%r15), %eax
	testb	%al, %al
	je	.L2159
.L1728:
	leaq	320(%rsp), %rax
	movq	$0, 312(%rsp)
	movq	%rax, 48(%rsp)
	movq	%rax, 304(%rsp)
	movb	$0, 320(%rsp)
	movl	$22, 128(%rsp)
	jmp	.L1730
	.p2align 4,,10
	.p2align 3
.L2139:
	addl	$1, 12(%r12)
	jmp	.L1772
	.p2align 4,,10
	.p2align 3
.L2137:
	addl	$1, 12(%rbp)
	jmp	.L1752
	.p2align 4,,10
	.p2align 3
.L1717:
	testq	%r12, %r12
	jne	.L2160
	movq	48(%rsp), %rdx
	jmp	.L1718
	.p2align 4,,10
	.p2align 3
.L2133:
	movq	16(%rsp), %rdi
	xorl	%edx, %edx
	movq	%r14, %rsi
.LEHB66:
	call	_ZNSt7__cxx1112basic_stringIcSt11char_traitsIcESaIcEE9_M_createERmm@PLT
.LEHE66:
	movq	%rax, 304(%rsp)
	movq	%rax, %rdi
	movq	240(%rsp), %rax
	movq	%rax, 320(%rsp)
.L1716:
	movq	128(%rsp), %rsi
	movq	%r12, %rdx
	call	memcpy@PLT
	movq	240(%rsp), %rax
	movq	304(%rsp), %rdx
	jmp	.L1718
	.p2align 4,,10
	.p2align 3
.L1794:
	testq	%r13, %r13
	je	.L1795
	jmp	.L1793
	.p2align 4,,10
	.p2align 3
.L2152:
	xorl	%edx, %edx
	movq	%r14, %rsi
	leaq	16(%rbp), %rdi
.LEHB67:
	call	_ZNSt7__cxx1112basic_stringIcSt11char_traitsIcESaIcEE9_M_createERmm@PLT
.LEHE67:
	movq	%rax, 16(%rbp)
	movq	%rax, %rdi
	movq	240(%rsp), %rax
	movq	%rax, 32(%rbp)
.L1793:
	movq	120(%rsp), %rsi
	movq	%r13, %rdx
	call	memcpy@PLT
	movq	240(%rsp), %r13
	movq	16(%rbp), %rdi
	jmp	.L1795
	.p2align 4,,10
	.p2align 3
.L1790:
	addl	$1, 8(%rax)
	jmp	.L1789
	.p2align 4,,10
	.p2align 3
.L2153:
	addl	$1, 8(%rbp)
	jmp	.L1801
	.p2align 4,,10
	.p2align 3
.L1800:
	addl	$1, 8(%rax)
	jmp	.L1797
	.p2align 4,,10
	.p2align 3
.L1764:
	movl	12(%r15), %eax
	leal	-1(%rax), %edx
	movl	%edx, 12(%r15)
	jmp	.L1765
	.p2align 4,,10
	.p2align 3
.L1837:
	movl	12(%rbp), %eax
	leal	-1(%rax), %edx
	movl	%edx, 12(%rbp)
	jmp	.L1838
	.p2align 4,,10
	.p2align 3
.L1873:
	movl	12(%rbp), %eax
	leal	-1(%rax), %edx
	movl	%edx, 12(%rbp)
	jmp	.L1874
	.p2align 4,,10
	.p2align 3
.L1781:
	movl	12(%rbp), %eax
	leal	-1(%rax), %edx
	movl	%edx, 12(%rbp)
	jmp	.L1782
	.p2align 4,,10
	.p2align 3
.L1844:
	addl	$1, 8(%r12)
	movq	%r12, %r13
	jmp	.L1845
	.p2align 4,,10
	.p2align 3
.L2146:
	movzbl	281(%rsp), %eax
	andl	$-64, %eax
	cmpb	$-128, %al
	je	.L1712
.L2125:
	leaq	721(%rsp), %r9
	jmp	.L1714
	.p2align 4,,10
	.p2align 3
.L2159:
	movq	%r15, %rdi
	call	__cxa_guard_acquire@PLT
	testl	%eax, %eax
	je	.L1728
	movq	24(%rsp), %rsi
	movq	_ZN4asio6detail15system_categoryD1Ev@GOTPCREL(%rip), %rdi
	leaq	__dso_handle(%rip), %rdx
	call	__cxa_atexit@PLT
	movq	%r15, %rdi
	call	__cxa_guard_release@PLT
	jmp	.L1728
	.p2align 4,,10
	.p2align 3
.L1775:
	movl	12(%rdi), %eax
	leal	-1(%rax), %edx
	movl	%edx, 12(%rdi)
	jmp	.L1776
	.p2align 4,,10
	.p2align 3
.L1755:
	movl	12(%rdi), %eax
	leal	-1(%rax), %edx
	movl	%edx, 12(%rdi)
	jmp	.L1756
	.p2align 4,,10
	.p2align 3
.L1740:
	movq	152(%rsp), %rdi
	leaq	416(%rsp), %rsi
.LEHB68:
	call	_ZNSt7__cxx1112basic_stringIcSt11char_traitsIcESaIcEE9_M_assignERKS4_@PLT
.LEHE68:
	jmp	.L1742
	.p2align 4,,10
	.p2align 3
.L1712:
	leaq	721(%rsp), %r9
	movl	48(%rsp), %edi
	movq	%r9, %rsi
	movq	%r9, 168(%rsp)
	call	if_indextoname@PLT
	movq	168(%rsp), %r9
	testq	%rax, %rax
	jne	.L1713
	jmp	.L1714
	.p2align 4,,10
	.p2align 3
.L1847:
	movq	%r14, %rdi
	call	_ZdlPv@PLT
.L1846:
	movl	$41, %edi
.LEHB69:
	call	_Znwm@PLT
.LEHE69:
	movb	$40, 40(%rax)
	movq	%rax, %r14
	jmp	.L1848
	.p2align 4,,10
	.p2align 3
.L2156:
	movq	%r15, %rdi
	movl	%ecx, 56(%rsp)
	call	__cxa_guard_acquire@PLT
	movl	56(%rsp), %ecx
	testl	%eax, %eax
	je	.L1883
	movq	24(%rsp), %rsi
	movq	_ZN4asio6detail15system_categoryD1Ev@GOTPCREL(%rip), %rdi
	leaq	__dso_handle(%rip), %rdx
	call	__cxa_atexit@PLT
	movq	%r15, %rdi
	call	__cxa_guard_release@PLT
	movl	56(%rsp), %ecx
	jmp	.L1883
	.p2align 4,,10
	.p2align 3
.L2158:
	movzbl	(%r15), %eax
	testb	%al, %al
	je	.L2161
.L1708:
	leaq	320(%rsp), %rax
	movq	$0, 312(%rsp)
	movq	%rax, 48(%rsp)
	movq	%rax, 304(%rsp)
	movb	$0, 320(%rsp)
	movl	$22, 160(%rsp)
	jmp	.L1710
	.p2align 4,,10
	.p2align 3
.L2157:
	movq	%r15, %rdi
	movl	%ecx, 56(%rsp)
	call	__cxa_guard_acquire@PLT
	movl	56(%rsp), %ecx
	testl	%eax, %eax
	je	.L1886
	movq	24(%rsp), %rsi
	movq	_ZN4asio6detail15system_categoryD1Ev@GOTPCREL(%rip), %rdi
	leaq	__dso_handle(%rip), %rdx
	call	__cxa_atexit@PLT
	movq	%r15, %rdi
	call	__cxa_guard_release@PLT
	movl	56(%rsp), %ecx
	jmp	.L1886
	.p2align 4,,10
	.p2align 3
.L1890:
	movq	16(%rsp), %rdi
	leaq	416(%rsp), %rsi
.LEHB70:
	call	_ZNSt7__cxx1112basic_stringIcSt11char_traitsIcESaIcEE9_M_assignERKS4_@PLT
.LEHE70:
	jmp	.L1892
	.p2align 4,,10
	.p2align 3
.L2154:
	addl	$1, 8(%rbp)
	jmp	.L1827
	.p2align 4,,10
	.p2align 3
.L1885:
	movl	%r12d, %edi
	movq	%r14, %rdx
	movl	$21537, %esi
	xorl	%eax, %eax
	movl	$0, 240(%rsp)
	call	ioctl@PLT
	andb	$-4, 4(%rbx)
	movl	%r12d, %edi
	movl	$0, 0(%rbp)
.LEHB71:
	call	close@PLT
	movl	%eax, %r12d
	movzbl	(%r15), %eax
	testb	%al, %al
	je	.L2162
.L1888:
	movl	0(%rbp), %ecx
	testl	%r12d, %r12d
	jne	.L1886
	jmp	.L1876
	.p2align 4,,10
	.p2align 3
.L2155:
	addl	$1, 12(%rbp)
	jmp	.L1809
	.p2align 4,,10
	.p2align 3
.L1849:
	movb	$1, 64(%rdi)
	addq	$24, %rdi
	call	pthread_mutex_unlock@PLT
	movq	48(%rbp), %r13
	movq	$0, (%r14)
	cmpq	$0, 96(%r13)
	je	.L1853
	movq	96(%r13), %rax
	movq	%r14, (%rax)
	movq	%r14, 96(%r13)
.L1854:
	movq	40(%r15), %rbp
	cmpb	$0, 40(%rbp)
	jne	.L1941
	cmpb	$0, 8(%rsp)
	je	.L1855
.L1941:
	data16	leaq	_ZN4asio6detail15keyword_tss_ptrINS0_10call_stackINS0_15task_io_serviceENS0_27task_io_service_thread_infoEE7contextEE6value_E@tlsgd(%rip), %rdi
	.value	0x6666
	rex64
	call	__tls_get_addr@PLT
	movq	(%rax), %rax
	testq	%rax, %rax
	jne	.L1859
	jmp	.L1855
	.p2align 4,,10
	.p2align 3
.L1857:
	movq	16(%rax), %rax
	testq	%rax, %rax
	je	.L1855
.L1859:
	cmpq	(%rax), %rbp
	jne	.L1857
	movq	8(%rax), %rax
	testq	%rax, %rax
	je	.L1855
	addq	$1, 24(%rax)
	cmpq	$0, 16(%rax)
	movq	$0, 0(%r13)
	je	.L1860
	movq	16(%rax), %rdx
	movq	%r13, (%rdx)
	movq	%r13, 16(%rax)
	jmp	.L1852
	.p2align 4,,10
	.p2align 3
.L1812:
	movl	12(%rdi), %eax
	leal	-1(%rax), %edx
	movl	%edx, 12(%rdi)
	jmp	.L1813
	.p2align 4,,10
	.p2align 3
.L1850:
	movq	%r14, %xmm0
	punpcklqdq	%xmm0, %xmm0
	movups	%xmm0, 72(%rdi)
	jmp	.L1851
	.p2align 4,,10
	.p2align 3
.L1855:
	lock addq	$1, 184(%rbp)
	leaq	48(%rbp), %r14
	movq	%r14, %rdi
	call	pthread_mutex_lock@PLT
	cmpq	$0, 200(%rbp)
	movq	$0, 0(%r13)
	je	.L1861
	movq	200(%rbp), %rax
	movq	%r13, (%rax)
	movq	%r13, 200(%rbp)
.L1862:
	movq	136(%rbp), %rax
	orq	$1, %rax
	movq	%rax, 136(%rbp)
	cmpq	$1, %rax
	je	.L1863
	movq	%r14, %rdi
	call	pthread_mutex_unlock@PLT
	leaq	88(%rbp), %rdi
	call	pthread_cond_signal@PLT
.L1864:
	movq	248(%rsp), %rdi
	testq	%rdi, %rdi
	je	.L1852
	call	_ZNSt16_Sp_counted_baseILN9__gnu_cxx12_Lock_policyE2EE10_M_releaseEv@PLT
	jmp	.L1852
	.p2align 4,,10
	.p2align 3
.L2161:
	movq	%r15, %rdi
	call	__cxa_guard_acquire@PLT
	testl	%eax, %eax
	je	.L1708
	movq	24(%rsp), %rsi
	movq	_ZN4asio6detail15system_categoryD1Ev@GOTPCREL(%rip), %rdi
	leaq	__dso_handle(%rip), %rdx
	call	__cxa_atexit@PLT
	movq	%r15, %rdi
	call	__cxa_guard_release@PLT
	jmp	.L1708
.L1863:
	cmpb	$0, 176(%rbp)
	jne	.L1865
	movq	144(%rbp), %rax
	testq	%rax, %rax
	je	.L1865
	movb	$1, 176(%rbp)
	leaq	88(%rax), %rdx
	movl	$3, %esi
	leaq	208(%rsp), %rcx
	movl	$-2147483639, 208(%rsp)
	movq	%rdx, 212(%rsp)
	movl	88(%rax), %edx
	movl	96(%rax), %edi
	call	epoll_ctl@PLT
.L1865:
	movq	%r14, %rdi
	call	pthread_mutex_unlock@PLT
	jmp	.L1864
.L2162:
	movq	%r15, %rdi
	call	__cxa_guard_acquire@PLT
	testl	%eax, %eax
	je	.L1888
	movq	24(%rsp), %rsi
	movq	_ZN4asio6detail15system_categoryD1Ev@GOTPCREL(%rip), %rdi
	leaq	__dso_handle(%rip), %rdx
	call	__cxa_atexit@PLT
	movq	%r15, %rdi
	call	__cxa_guard_release@PLT
	jmp	.L1888
.L1853:
	movq	%r14, %xmm0
	punpcklqdq	%xmm0, %xmm0
	movups	%xmm0, 88(%r13)
	jmp	.L1854
.L2126:
	call	_ZN4asio15system_categoryEv@PLT
	pxor	%xmm0, %xmm0
	movl	$0, 296(%rsp)
	movq	$2, 272(%rsp)
	movq	%rax, %rsi
	movl	$9, %eax
	movups	%xmm0, 280(%rsp)
.L1682:
	leaq	.LC30(%rip), %rdx
	movl	%eax, %edi
	call	_ZN4asio6detail14do_throw_errorERKSt10error_codePKc.isra.0
	.p2align 4,,10
	.p2align 3
.L2128:
	call	_ZN4asio15system_categoryEv@PLT
	movq	%rax, %rsi
	movl	$9, %eax
.L1691:
	leaq	.LC30(%rip), %rdx
	movl	%eax, %edi
	call	_ZN4asio6detail14do_throw_errorERKSt10error_codePKc.isra.0
.L1861:
	movq	%r13, %xmm0
	punpcklqdq	%xmm0, %xmm0
	movups	%xmm0, 192(%rbp)
	jmp	.L1862
.L1860:
	movq	%r13, %xmm0
	punpcklqdq	%xmm0, %xmm0
	movups	%xmm0, 8(%rax)
	jmp	.L1852
.L2150:
	call	__stack_chk_fail@PLT
.L2143:
	call	_ZN4asio15system_categoryEv@PLT
	movl	$22, %edi
	movq	%rax, %rsi
	call	_ZN4asio6detail14do_throw_errorERKSt10error_code.isra.0
.L2130:
	call	_ZN4asio15system_categoryEv@PLT
	movl	$22, %edi
	movq	%rax, %rsi
	call	_ZN4asio6detail14do_throw_errorERKSt10error_code.isra.0
.LEHE71:
.L2142:
	movl	%eax, %edi
.LEHB72:
	call	_ZSt20__throw_system_errori@PLT
.LEHE72:
.L2145:
	movq	48(%rsp), %rdi
	jmp	.L1731
.L2160:
	movq	48(%rsp), %rdi
	jmp	.L1716
.L2151:
	leaq	.LC4(%rip), %rdi
.LEHB73:
	call	_ZSt19__throw_logic_errorPKc@PLT
.LEHE73:
.L1935:
	endbr64
	movq	%rax, %r13
	jmp	.L1806
.L1934:
	endbr64
	movq	%rax, %r13
	jmp	.L1799
.L1933:
	endbr64
	movq	%rax, %rbp
	jmp	.L1824
.L1921:
	endbr64
	movq	%rax, %rbp
	jmp	.L1898
.L1927:
	endbr64
	movq	%rax, %rbp
	jmp	.L1735
.L1937:
	endbr64
	movq	%rax, %r13
	jmp	.L1816
.L1938:
	endbr64
	movq	%rax, %r13
	jmp	.L1805
.L1920:
	endbr64
	movq	%rax, %rbp
	jmp	.L1723
.L1936:
	endbr64
	movq	%rax, %r13
	jmp	.L1798
.L1928:
	endbr64
	movq	%rax, %rbp
	jmp	.L1745
.L2104:
	endbr64
	jmp	.L2105
.L1926:
	endbr64
	movq	%rax, %rbp
	jmp	.L1721
.L1939:
	endbr64
	movq	%rax, %rbp
	jmp	.L1866
.L1932:
	endbr64
	movq	%rax, %r13
	jmp	.L1830
.L1940:
	endbr64
	movq	%rax, %rbp
	jmp	.L1895
.L1931:
	endbr64
	movq	%rax, %rbx
	jmp	.L1767
.L1930:
	endbr64
	movq	%rax, %rbx
	jmp	.L1769
.L1929:
	endbr64
	movq	%rax, %rbx
	jmp	.L1749
.L1922:
	endbr64
	movq	%rax, %rbx
	jmp	.L1750
.L1924:
	endbr64
	movq	%rax, %rbp
	jmp	.L1680
.L1925:
	endbr64
	movq	%rax, %rbx
	jmp	.L1679
	.section	.gcc_except_table
.LLSDA8147:
	.byte	0xff
	.byte	0xff
	.byte	0x1
	.uleb128 .LLSDACSE8147-.LLSDACSB8147
.LLSDACSB8147:
	.uleb128 .LEHB40-.LFB8147
	.uleb128 .LEHE40-.LEHB40
	.uleb128 .L1924-.LFB8147
	.uleb128 0
	.uleb128 .LEHB41-.LFB8147
	.uleb128 .LEHE41-.LEHB41
	.uleb128 .L1925-.LFB8147
	.uleb128 0
	.uleb128 .LEHB42-.LFB8147
	.uleb128 .LEHE42-.LEHB42
	.uleb128 .L1920-.LFB8147
	.uleb128 0
	.uleb128 .LEHB43-.LFB8147
	.uleb128 .LEHE43-.LEHB43
	.uleb128 .L1921-.LFB8147
	.uleb128 0
	.uleb128 .LEHB44-.LFB8147
	.uleb128 .LEHE44-.LEHB44
	.uleb128 .L1920-.LFB8147
	.uleb128 0
	.uleb128 .LEHB45-.LFB8147
	.uleb128 .LEHE45-.LEHB45
	.uleb128 .L1928-.LFB8147
	.uleb128 0
	.uleb128 .LEHB46-.LFB8147
	.uleb128 .LEHE46-.LEHB46
	.uleb128 .L1920-.LFB8147
	.uleb128 0
	.uleb128 .LEHB47-.LFB8147
	.uleb128 .LEHE47-.LEHB47
	.uleb128 .L1922-.LFB8147
	.uleb128 0
	.uleb128 .LEHB48-.LFB8147
	.uleb128 .LEHE48-.LEHB48
	.uleb128 .L1929-.LFB8147
	.uleb128 0
	.uleb128 .LEHB49-.LFB8147
	.uleb128 .LEHE49-.LEHB49
	.uleb128 .L1930-.LFB8147
	.uleb128 0
	.uleb128 .LEHB50-.LFB8147
	.uleb128 .LEHE50-.LEHB50
	.uleb128 .L1931-.LFB8147
	.uleb128 0
	.uleb128 .LEHB51-.LFB8147
	.uleb128 .LEHE51-.LEHB51
	.uleb128 .L2104-.LFB8147
	.uleb128 0
	.uleb128 .LEHB52-.LFB8147
	.uleb128 .LEHE52-.LEHB52
	.uleb128 .L1927-.LFB8147
	.uleb128 0
	.uleb128 .LEHB53-.LFB8147
	.uleb128 .LEHE53-.LEHB53
	.uleb128 .L1920-.LFB8147
	.uleb128 0
	.uleb128 .LEHB54-.LFB8147
	.uleb128 .LEHE54-.LEHB54
	.uleb128 .L1940-.LFB8147
	.uleb128 0
	.uleb128 .LEHB55-.LFB8147
	.uleb128 .LEHE55-.LEHB55
	.uleb128 .L1920-.LFB8147
	.uleb128 0
	.uleb128 .LEHB56-.LFB8147
	.uleb128 .LEHE56-.LEHB56
	.uleb128 .L1933-.LFB8147
	.uleb128 0
	.uleb128 .LEHB57-.LFB8147
	.uleb128 .LEHE57-.LEHB57
	.uleb128 .L1934-.LFB8147
	.uleb128 0
	.uleb128 .LEHB58-.LFB8147
	.uleb128 .LEHE58-.LEHB58
	.uleb128 .L1935-.LFB8147
	.uleb128 0
	.uleb128 .LEHB59-.LFB8147
	.uleb128 .LEHE59-.LEHB59
	.uleb128 .L1938-.LFB8147
	.uleb128 0
	.uleb128 .LEHB60-.LFB8147
	.uleb128 .LEHE60-.LEHB60
	.uleb128 .L1937-.LFB8147
	.uleb128 0
	.uleb128 .LEHB61-.LFB8147
	.uleb128 .LEHE61-.LEHB61
	.uleb128 .L1932-.LFB8147
	.uleb128 0
	.uleb128 .LEHB62-.LFB8147
	.uleb128 .LEHE62-.LEHB62
	.uleb128 .L1920-.LFB8147
	.uleb128 0
	.uleb128 .LEHB63-.LFB8147
	.uleb128 .LEHE63-.LEHB63
	.uleb128 .L1928-.LFB8147
	.uleb128 0
	.uleb128 .LEHB64-.LFB8147
	.uleb128 .LEHE64-.LEHB64
	.uleb128 .L1926-.LFB8147
	.uleb128 0
	.uleb128 .LEHB65-.LFB8147
	.uleb128 .LEHE65-.LEHB65
	.uleb128 .L1940-.LFB8147
	.uleb128 0
	.uleb128 .LEHB66-.LFB8147
	.uleb128 .LEHE66-.LEHB66
	.uleb128 .L1920-.LFB8147
	.uleb128 0
	.uleb128 .LEHB67-.LFB8147
	.uleb128 .LEHE67-.LEHB67
	.uleb128 .L1936-.LFB8147
	.uleb128 0
	.uleb128 .LEHB68-.LFB8147
	.uleb128 .LEHE68-.LEHB68
	.uleb128 .L1928-.LFB8147
	.uleb128 0
	.uleb128 .LEHB69-.LFB8147
	.uleb128 .LEHE69-.LEHB69
	.uleb128 .L1939-.LFB8147
	.uleb128 0
	.uleb128 .LEHB70-.LFB8147
	.uleb128 .LEHE70-.LEHB70
	.uleb128 .L1940-.LFB8147
	.uleb128 0
	.uleb128 .LEHB71-.LFB8147
	.uleb128 .LEHE71-.LEHB71
	.uleb128 .L1920-.LFB8147
	.uleb128 0
	.uleb128 .LEHB72-.LFB8147
	.uleb128 .LEHE72-.LEHB72
	.uleb128 .L2104-.LFB8147
	.uleb128 0
	.uleb128 .LEHB73-.LFB8147
	.uleb128 .LEHE73-.LEHB73
	.uleb128 .L1936-.LFB8147
	.uleb128 0
.LLSDACSE8147:
	.text
	.cfi_endproc
	.section	.text.unlikely
	.cfi_startproc
	.cfi_personality 0x9b,DW.ref.__gxx_personality_v0
	.cfi_lsda 0x1b,.LLSDAC8147
	.type	_ZN8asiodnp315MasterTCPServer16AcceptConnectionEmRKSt10shared_ptrIN7asiopal8ExecutorEEN4asio19basic_stream_socketINS7_2ip3tcpENS7_21stream_socket_serviceISA_EEEE.cold, @function
_ZN8asiodnp315MasterTCPServer16AcceptConnectionEmRKSt10shared_ptrIN7asiopal8ExecutorEEN4asio19basic_stream_socketINS7_2ip3tcpENS7_21stream_socket_serviceISA_EEEE.cold:
.LFSB8147:
.L1805:
	.cfi_def_cfa_offset 944
	.cfi_offset 3, -56
	.cfi_offset 6, -48
	.cfi_offset 12, -40
	.cfi_offset 13, -32
	.cfi_offset 14, -24
	.cfi_offset 15, -16
	movq	%rbp, %rdi
	call	_ZdlPv@PLT
.L1806:
	movq	%r14, %rdi
	call	_ZN7openpal6LoggerD1Ev@PLT
.L1799:
	movq	304(%rsp), %rdi
	cmpq	48(%rsp), %rdi
	je	.L1823
	call	_ZdlPv@PLT
.L1823:
	movq	%r13, %rbp
.L1824:
	movq	216(%rsp), %rdi
	testq	%rdi, %rdi
	je	.L1826
	call	_ZNSt16_Sp_counted_baseILN9__gnu_cxx12_Lock_policyE2EE10_M_releaseEv@PLT
.L1826:
	testq	%rbx, %rbx
	je	.L1833
	movq	%r12, %rdi
	call	_ZL28__gthrw_pthread_mutex_unlockP15pthread_mutex_t@PLT
.L1833:
	movq	200(%rsp), %rdi
	testq	%rdi, %rdi
	je	.L1723
	call	_ZNSt16_Sp_counted_baseILN9__gnu_cxx12_Lock_policyE2EE10_M_releaseEv@PLT
.L1723:
	movq	64(%rsp), %rdi
	call	_ZNSt7__cxx1119basic_ostringstreamIcSt11char_traitsIcESaIcEED1Ev@PLT
	movq	%rbp, %rdi
.LEHB74:
	call	_Unwind_Resume@PLT
.LEHE74:
.L1898:
	movq	304(%rsp), %rdi
	cmpq	48(%rsp), %rdi
	je	.L1723
	call	_ZdlPv@PLT
	jmp	.L1723
.L1735:
	movq	304(%rsp), %rdi
	cmpq	48(%rsp), %rdi
	je	.L1723
	call	_ZdlPv@PLT
	jmp	.L1723
.L1816:
	movq	%rbp, %rdi
	call	_ZNSt16_Sp_counted_baseILN9__gnu_cxx12_Lock_policyE2EE10_M_releaseEv@PLT
	jmp	.L1806
.L2106:
.LEHB75:
	call	_ZSt20__throw_bad_weak_ptrv@PLT
.L1798:
	movq	%rbp, %rdi
	call	_ZdlPv@PLT
	jmp	.L1799
.L1745:
	movq	272(%rsp), %rdi
	cmpq	%r12, %rdi
	je	.L1723
	call	_ZdlPv@PLT
	jmp	.L1723
.L1923:
	endbr64
.L2105:
	movq	%rax, %rbp
	jmp	.L1833
.L1841:
	call	_ZSt20__throw_bad_weak_ptrv@PLT
.LEHE75:
.L1721:
	movq	304(%rsp), %rdi
	cmpq	48(%rsp), %rdi
	je	.L1723
	call	_ZdlPv@PLT
	jmp	.L1723
.L1866:
	testq	%r13, %r13
	je	.L1867
	movq	%r13, %rdi
	call	_ZNSt16_Sp_counted_baseILN9__gnu_cxx12_Lock_policyE2EE10_M_releaseEv@PLT
.L1867:
	movq	%r12, %rdi
	call	_ZNSt16_Sp_counted_baseILN9__gnu_cxx12_Lock_policyE2EE10_M_releaseEv@PLT
	jmp	.L1833
.L1830:
	movq	248(%rsp), %rdi
	testq	%rdi, %rdi
	je	.L1831
	call	_ZNSt16_Sp_counted_baseILN9__gnu_cxx12_Lock_policyE2EE10_M_releaseEv@PLT
.L1831:
	movq	%rbp, %rdi
	movq	%r13, %rbp
	call	_ZNSt16_Sp_counted_baseILN9__gnu_cxx12_Lock_policyE2EE10_M_releaseEv@PLT
	jmp	.L1826
.L1895:
	movq	304(%rsp), %rdi
	cmpq	48(%rsp), %rdi
	je	.L1723
	call	_ZdlPv@PLT
	jmp	.L1723
.L1767:
	movq	264(%rsp), %rax
	movq	%r14, %rsi
	leaq	40(%rax), %rdi
	call	_ZN4asio6detail28reactive_socket_service_base7destroyERNS1_24base_implementation_typeE.isra.0
	movq	184(%rsp), %rdi
	testq	%rdi, %rdi
	je	.L1768
	call	_ZNSt16_Sp_counted_baseILN9__gnu_cxx12_Lock_policyE2EE10_M_releaseEv@PLT
.L1768:
	movq	%r12, %rdi
	call	_ZdlPv@PLT
.L1769:
	movq	%rbp, %rdi
	call	_ZNSt16_Sp_counted_baseILN9__gnu_cxx12_Lock_policyE2EE10_M_releaseEv@PLT
.L1750:
	movq	232(%rsp), %rax
	leaq	208(%rsp), %rsi
	movq	%rbx, %rbp
	leaq	40(%rax), %rdi
	call	_ZN4asio6detail28reactive_socket_service_base7destroyERNS1_24base_implementation_typeE.isra.0
	jmp	.L1723
.L1749:
	movq	%rbp, %rdi
	call	_ZdlPv@PLT
	jmp	.L1750
.L1679:
	movq	%rbp, %rdi
	movq	%rbx, %rbp
	call	_ZNSt7__cxx1115basic_stringbufIcSt11char_traitsIcESaIcEED1Ev@PLT
	movq	72(%rsp), %rax
	movq	80(%rsp), %rcx
	movq	%rax, 336(%rsp)
	movq	-24(%rax), %rax
	movq	%rcx, 336(%rsp,%rax)
.L1680:
	movq	_ZTVSt9basic_iosIcSt11char_traitsIcEE@GOTPCREL(%rip), %rax
	movq	88(%rsp), %rdi
	addq	$16, %rax
	movq	%rax, 448(%rsp)
	call	_ZNSt8ios_baseD2Ev@PLT
	movq	%rbp, %rdi
.LEHB76:
	call	_Unwind_Resume@PLT
.LEHE76:
	.cfi_endproc
.LFE8147:
	.section	.gcc_except_table
.LLSDAC8147:
	.byte	0xff
	.byte	0xff
	.byte	0x1
	.uleb128 .LLSDACSEC8147-.LLSDACSBC8147
.LLSDACSBC8147:
	.uleb128 .LEHB74-.LCOLDB36
	.uleb128 .LEHE74-.LEHB74
	.uleb128 0
	.uleb128 0
	.uleb128 .LEHB75-.LCOLDB36
	.uleb128 .LEHE75-.LEHB75
	.uleb128 .L1923-.LCOLDB36
	.uleb128 0
	.uleb128 .LEHB76-.LCOLDB36
	.uleb128 .LEHE76-.LEHB76
	.uleb128 0
	.uleb128 0
.LLSDACSEC8147:
	.section	.text.unlikely
	.text
	.size	_ZN8asiodnp315MasterTCPServer16AcceptConnectionEmRKSt10shared_ptrIN7asiopal8ExecutorEEN4asio19basic_stream_socketINS7_2ip3tcpENS7_21stream_socket_serviceISA_EEEE, .-_ZN8asiodnp315MasterTCPServer16AcceptConnectionEmRKSt10shared_ptrIN7asiopal8ExecutorEEN4asio19basic_stream_socketINS7_2ip3tcpENS7_21stream_socket_serviceISA_EEEE
	.section	.text.unlikely
	.size	_ZN8asiodnp315MasterTCPServer16AcceptConnectionEmRKSt10shared_ptrIN7asiopal8ExecutorEEN4asio19basic_stream_socketINS7_2ip3tcpENS7_21stream_socket_serviceISA_EEEE.cold, .-_ZN8asiodnp315MasterTCPServer16AcceptConnectionEmRKSt10shared_ptrIN7asiopal8ExecutorEEN4asio19basic_stream_socketINS7_2ip3tcpENS7_21stream_socket_serviceISA_EEEE.cold
.LCOLDE36:
	.text
.LHOTE36:
	.section	.text.startup,"ax",@progbits
	.p2align 4
	.type	_GLOBAL__sub_I_MasterTCPServer.cpp, @function
_GLOBAL__sub_I_MasterTCPServer.cpp:
.LFB11219:
	.cfi_startproc
	endbr64
	pushq	%rbp
	.cfi_def_cfa_offset 16
	.cfi_offset 6, -16
	call	_ZN4asio15system_categoryEv@PLT
	movq	_ZGVZN4asio5error18get_netdb_categoryEvE8instance@GOTPCREL(%rip), %rbp
	movzbl	0(%rbp), %eax
	testb	%al, %al
	je	.L2188
.L2165:
	movq	_ZGVZN4asio5error21get_addrinfo_categoryEvE8instance@GOTPCREL(%rip), %rbp
	movzbl	0(%rbp), %eax
	testb	%al, %al
	je	.L2189
.L2168:
	movq	_ZGVZN4asio5error17get_misc_categoryEvE8instance@GOTPCREL(%rip), %rbp
	movzbl	0(%rbp), %eax
	testb	%al, %al
	je	.L2190
.L2171:
	movl	$5000, %edi
	call	_ZN7openpal12TimeDuration12MillisecondsEl@PLT
	movq	_ZGVN4asio6detail10call_stackINS0_15task_io_serviceENS0_27task_io_service_thread_infoEE4top_E@GOTPCREL(%rip), %rax
	cmpb	$0, (%rax)
	je	.L2191
.L2173:
	movq	_ZGVN4asio6detail12service_baseINS0_13epoll_reactorEE2idE@GOTPCREL(%rip), %rax
	cmpb	$0, (%rax)
	je	.L2192
.L2174:
	movq	_ZGVN4asio6detail12service_baseINS0_15task_io_serviceEE2idE@GOTPCREL(%rip), %rax
	cmpb	$0, (%rax)
	je	.L2193
.L2175:
	movq	_ZGVN4asio6detail10call_stackINS0_14strand_service11strand_implEhE4top_E@GOTPCREL(%rip), %rax
	cmpb	$0, (%rax)
	je	.L2194
.L2176:
	movq	_ZGVN4asio6detail12service_baseINS0_14strand_serviceEE2idE@GOTPCREL(%rip), %rax
	cmpb	$0, (%rax)
	je	.L2195
	popq	%rbp
	.cfi_remember_state
	.cfi_def_cfa_offset 8
	ret
.L2188:
	.cfi_restore_state
	movq	%rbp, %rdi
	call	__cxa_guard_acquire@PLT
	testl	%eax, %eax
	je	.L2165
	movq	_ZZN4asio5error18get_netdb_categoryEvE8instance@GOTPCREL(%rip), %rsi
	movq	_ZN4asio5error6detail14netdb_categoryD1Ev@GOTPCREL(%rip), %rdi
	leaq	__dso_handle(%rip), %rdx
	call	__cxa_atexit@PLT
	movq	%rbp, %rdi
	call	__cxa_guard_release@PLT
	jmp	.L2165
.L2195:
	movb	$1, (%rax)
	leaq	__dso_handle(%rip), %rdx
	movq	_ZN4asio6detail12service_baseINS0_14strand_serviceEE2idE@GOTPCREL(%rip), %rsi
	movq	_ZN4asio6detail10service_idINS0_14strand_serviceEED1Ev@GOTPCREL(%rip), %rdi
	popq	%rbp
	.cfi_remember_state
	.cfi_def_cfa_offset 8
	jmp	__cxa_atexit@PLT
.L2194:
	.cfi_restore_state
	movb	$1, (%rax)
	movq	_ZN4asio6detail10call_stackINS0_14strand_service11strand_implEhE4top_E@GOTPCREL(%rip), %rsi
	leaq	__dso_handle(%rip), %rdx
	movq	_ZN4asio6detail7tss_ptrINS0_10call_stackINS0_14strand_service11strand_implEhE7contextEED1Ev@GOTPCREL(%rip), %rdi
	call	__cxa_atexit@PLT
	jmp	.L2176
.L2193:
	movb	$1, (%rax)
	movq	_ZN4asio6detail12service_baseINS0_15task_io_serviceEE2idE@GOTPCREL(%rip), %rsi
	leaq	__dso_handle(%rip), %rdx
	movq	_ZN4asio6detail10service_idINS0_15task_io_serviceEED1Ev@GOTPCREL(%rip), %rdi
	call	__cxa_atexit@PLT
	jmp	.L2175
.L2192:
	movb	$1, (%rax)
	movq	_ZN4asio6detail12service_baseINS0_13epoll_reactorEE2idE@GOTPCREL(%rip), %rsi
	leaq	__dso_handle(%rip), %rdx
	movq	_ZN4asio6detail10service_idINS0_13epoll_reactorEED1Ev@GOTPCREL(%rip), %rdi
	call	__cxa_atexit@PLT
	jmp	.L2174
.L2191:
	movb	$1, (%rax)
	movq	_ZN4asio6detail10call_stackINS0_15task_io_serviceENS0_27task_io_service_thread_infoEE4top_E@GOTPCREL(%rip), %rsi
	leaq	__dso_handle(%rip), %rdx
	movq	_ZN4asio6detail7tss_ptrINS0_10call_stackINS0_15task_io_serviceENS0_27task_io_service_thread_infoEE7contextEED1Ev@GOTPCREL(%rip), %rdi
	call	__cxa_atexit@PLT
	jmp	.L2173
.L2190:
	movq	%rbp, %rdi
	call	__cxa_guard_acquire@PLT
	testl	%eax, %eax
	je	.L2171
	movq	_ZZN4asio5error17get_misc_categoryEvE8instance@GOTPCREL(%rip), %rsi
	movq	_ZN4asio5error6detail13misc_categoryD1Ev@GOTPCREL(%rip), %rdi
	leaq	__dso_handle(%rip), %rdx
	call	__cxa_atexit@PLT
	movq	%rbp, %rdi
	call	__cxa_guard_release@PLT
	jmp	.L2171
.L2189:
	movq	%rbp, %rdi
	call	__cxa_guard_acquire@PLT
	testl	%eax, %eax
	je	.L2168
	movq	_ZZN4asio5error21get_addrinfo_categoryEvE8instance@GOTPCREL(%rip), %rsi
	movq	_ZN4asio5error6detail17addrinfo_categoryD1Ev@GOTPCREL(%rip), %rdi
	leaq	__dso_handle(%rip), %rdx
	call	__cxa_atexit@PLT
	movq	%rbp, %rdi
	call	__cxa_guard_release@PLT
	jmp	.L2168
	.cfi_endproc
.LFE11219:
	.size	_GLOBAL__sub_I_MasterTCPServer.cpp, .-_GLOBAL__sub_I_MasterTCPServer.cpp
	.section	.init_array,"aw"
	.align 8
	.quad	_GLOBAL__sub_I_MasterTCPServer.cpp
	.weak	_ZTSSt11_Mutex_baseILN9__gnu_cxx12_Lock_policyE2EE
	.section	.rodata._ZTSSt11_Mutex_baseILN9__gnu_cxx12_Lock_policyE2EE,"aG",@progbits,_ZTSSt11_Mutex_baseILN9__gnu_cxx12_Lock_policyE2EE,comdat
	.align 32
	.type	_ZTSSt11_Mutex_baseILN9__gnu_cxx12_Lock_policyE2EE, @object
	.size	_ZTSSt11_Mutex_baseILN9__gnu_cxx12_Lock_policyE2EE, 47
_ZTSSt11_Mutex_baseILN9__gnu_cxx12_Lock_policyE2EE:
	.string	"St11_Mutex_baseILN9__gnu_cxx12_Lock_policyE2EE"
	.weak	_ZTISt11_Mutex_baseILN9__gnu_cxx12_Lock_policyE2EE
