	.file	"MasterStack.cpp"
	.text
	.section	.rodata._ZNK4asio6detail15system_category4nameEv.str1.1,"aMS",@progbits,1
.LC0:
	.string	"asio.system"
	.section	.text._ZNK4asio6detail15system_category4nameEv,"axG",@progbits,_ZNK4asio6detail15system_category4nameEv,comdat
	.align 2
	.p2align 4
	.weak	_ZNK4asio6detail15system_category4nameEv
	.type	_ZNK4asio6detail15system_category4nameEv, @function
_ZNK4asio6detail15system_category4nameEv:
.LFB2811:
	.cfi_startproc
	endbr64
	leaq	.LC0(%rip), %rax
	ret
	.cfi_endproc
.LFE2811:
	.size	_ZNK4asio6detail15system_category4nameEv, .-_ZNK4asio6detail15system_category4nameEv
	.section	.rodata._ZNK4asio5error6detail14netdb_category4nameEv.str1.1,"aMS",@progbits,1
.LC1:
	.string	"asio.netdb"
	.section	.text._ZNK4asio5error6detail14netdb_category4nameEv,"axG",@progbits,_ZNK4asio5error6detail14netdb_category4nameEv,comdat
	.align 2
	.p2align 4
	.weak	_ZNK4asio5error6detail14netdb_category4nameEv
	.type	_ZNK4asio5error6detail14netdb_category4nameEv, @function
_ZNK4asio5error6detail14netdb_category4nameEv:
.LFB2851:
	.cfi_startproc
	endbr64
	leaq	.LC1(%rip), %rax
	ret
	.cfi_endproc
.LFE2851:
	.size	_ZNK4asio5error6detail14netdb_category4nameEv, .-_ZNK4asio5error6detail14netdb_category4nameEv
	.section	.rodata._ZNK4asio5error6detail17addrinfo_category4nameEv.str1.1,"aMS",@progbits,1
.LC2:
	.string	"asio.addrinfo"
	.section	.text._ZNK4asio5error6detail17addrinfo_category4nameEv,"axG",@progbits,_ZNK4asio5error6detail17addrinfo_category4nameEv,comdat
	.align 2
	.p2align 4
	.weak	_ZNK4asio5error6detail17addrinfo_category4nameEv
	.type	_ZNK4asio5error6detail17addrinfo_category4nameEv, @function
_ZNK4asio5error6detail17addrinfo_category4nameEv:
.LFB2857:
	.cfi_startproc
	endbr64
	leaq	.LC2(%rip), %rax
	ret
	.cfi_endproc
.LFE2857:
	.size	_ZNK4asio5error6detail17addrinfo_category4nameEv, .-_ZNK4asio5error6detail17addrinfo_category4nameEv
	.section	.rodata._ZNK4asio5error6detail13misc_category4nameEv.str1.1,"aMS",@progbits,1
.LC3:
	.string	"asio.misc"
	.section	.text._ZNK4asio5error6detail13misc_category4nameEv,"axG",@progbits,_ZNK4asio5error6detail13misc_category4nameEv,comdat
	.align 2
	.p2align 4
	.weak	_ZNK4asio5error6detail13misc_category4nameEv
	.type	_ZNK4asio5error6detail13misc_category4nameEv, @function
_ZNK4asio5error6detail13misc_category4nameEv:
.LFB2863:
	.cfi_startproc
	endbr64
	leaq	.LC3(%rip), %rax
	ret
	.cfi_endproc
.LFE2863:
	.size	_ZNK4asio5error6detail13misc_category4nameEv, .-_ZNK4asio5error6detail13misc_category4nameEv
	.section	.text._ZNSt13__future_base13_State_baseV217_M_complete_asyncEv,"axG",@progbits,_ZNSt13__future_base13_State_baseV217_M_complete_asyncEv,comdat
	.align 2
	.p2align 4
	.weak	_ZNSt13__future_base13_State_baseV217_M_complete_asyncEv
	.type	_ZNSt13__future_base13_State_baseV217_M_complete_asyncEv, @function
_ZNSt13__future_base13_State_baseV217_M_complete_asyncEv:
.LFB6793:
	.cfi_startproc
	endbr64
	ret
	.cfi_endproc
.LFE6793:
	.size	_ZNSt13__future_base13_State_baseV217_M_complete_asyncEv, .-_ZNSt13__future_base13_State_baseV217_M_complete_asyncEv
	.section	.text._ZNKSt13__future_base13_State_baseV221_M_is_deferred_futureEv,"axG",@progbits,_ZNKSt13__future_base13_State_baseV221_M_is_deferred_futureEv,comdat
	.align 2
	.p2align 4
	.weak	_ZNKSt13__future_base13_State_baseV221_M_is_deferred_futureEv
	.type	_ZNKSt13__future_base13_State_baseV221_M_is_deferred_futureEv, @function
_ZNKSt13__future_base13_State_baseV221_M_is_deferred_futureEv:
.LFB6794:
	.cfi_startproc
	endbr64
	xorl	%eax, %eax
	ret
	.cfi_endproc
.LFE6794:
	.size	_ZNKSt13__future_base13_State_baseV221_M_is_deferred_futureEv, .-_ZNKSt13__future_base13_State_baseV221_M_is_deferred_futureEv
	.section	.text._ZZSt9call_onceIMNSt13__future_base13_State_baseV2EFvPSt8functionIFSt10unique_ptrINS0_12_Result_baseENS4_8_DeleterEEvEEPbEJPS1_S9_SA_EEvRSt9once_flagOT_DpOT0_ENUlvE0_4_FUNEv,"axG",@progbits,_ZZSt9call_onceIMNSt13__future_base13_State_baseV2EFvPSt8functionIFSt10unique_ptrINS0_12_Result_baseENS4_8_DeleterEEvEEPbEJPS1_S9_SA_EEvRSt9once_flagOT_DpOT0_ENUlvE0_4_FUNEv,comdat
	.p2align 4
	.weak	_ZZSt9call_onceIMNSt13__future_base13_State_baseV2EFvPSt8functionIFSt10unique_ptrINS0_12_Result_baseENS4_8_DeleterEEvEEPbEJPS1_S9_SA_EEvRSt9once_flagOT_DpOT0_ENUlvE0_4_FUNEv
	.type	_ZZSt9call_onceIMNSt13__future_base13_State_baseV2EFvPSt8functionIFSt10unique_ptrINS0_12_Result_baseENS4_8_DeleterEEvEEPbEJPS1_S9_SA_EEvRSt9once_flagOT_DpOT0_ENUlvE0_4_FUNEv, @function
_ZZSt9call_onceIMNSt13__future_base13_State_baseV2EFvPSt8functionIFSt10unique_ptrINS0_12_Result_baseENS4_8_DeleterEEvEEPbEJPS1_S9_SA_EEvRSt9once_flagOT_DpOT0_ENUlvE0_4_FUNEv:
.LFB9047:
	.cfi_startproc
	endbr64
	subq	$8, %rsp
	.cfi_def_cfa_offset 16
	data16	leaq	_ZSt15__once_callable@tlsgd(%rip), %rdi
	.value	0x6666
	rex64
	call	__tls_get_addr@PLT
	movq	(%rax), %rax
	movq	16(%rax), %rcx
	movq	(%rax), %rdx
	movq	(%rcx), %rsi
	movq	24(%rax), %rcx
	movq	8(%rax), %rax
	movq	8(%rdx), %rdi
	movq	(%rcx), %r8
	addq	(%rax), %rdi
	movq	(%rdx), %rax
	testb	$1, %al
	je	.L9
	movq	(%rdi), %rdx
	movq	-1(%rdx,%rax), %rax
.L9:
	movq	%r8, %rdx
	addq	$8, %rsp
	.cfi_def_cfa_offset 8
	jmp	*%rax
	.cfi_endproc
.LFE9047:
	.size	_ZZSt9call_onceIMNSt13__future_base13_State_baseV2EFvPSt8functionIFSt10unique_ptrINS0_12_Result_baseENS4_8_DeleterEEvEEPbEJPS1_S9_SA_EEvRSt9once_flagOT_DpOT0_ENUlvE0_4_FUNEv, .-_ZZSt9call_onceIMNSt13__future_base13_State_baseV2EFvPSt8functionIFSt10unique_ptrINS0_12_Result_baseENS4_8_DeleterEEvEEPbEJPS1_S9_SA_EEvRSt9once_flagOT_DpOT0_ENUlvE0_4_FUNEv
	.section	.text._ZNSt15__exception_ptr12__dest_thunkISt12future_errorEEvPv,"axG",@progbits,_ZNSt15__exception_ptr12__dest_thunkISt12future_errorEEvPv,comdat
	.p2align 4
	.weak	_ZNSt15__exception_ptr12__dest_thunkISt12future_errorEEvPv
	.type	_ZNSt15__exception_ptr12__dest_thunkISt12future_errorEEvPv, @function
_ZNSt15__exception_ptr12__dest_thunkISt12future_errorEEvPv:
.LFB9741:
	.cfi_startproc
	endbr64
	movq	(%rdi), %rax
	jmp	*(%rax)
	.cfi_endproc
.LFE9741:
	.size	_ZNSt15__exception_ptr12__dest_thunkISt12future_errorEEvPv, .-_ZNSt15__exception_ptr12__dest_thunkISt12future_errorEEvPv
	.section	.text._ZNSt17_Function_handlerIFSt10unique_ptrINSt13__future_base12_Result_baseENS2_8_DeleterEEvENS1_13_State_baseV27_SetterIbObEEE9_M_invokeERKSt9_Any_data,"axG",@progbits,_ZNSt17_Function_handlerIFSt10unique_ptrINSt13__future_base12_Result_baseENS2_8_DeleterEEvENS1_13_State_baseV27_SetterIbObEEE9_M_invokeERKSt9_Any_data,comdat
	.p2align 4
	.weak	_ZNSt17_Function_handlerIFSt10unique_ptrINSt13__future_base12_Result_baseENS2_8_DeleterEEvENS1_13_State_baseV27_SetterIbObEEE9_M_invokeERKSt9_Any_data
	.type	_ZNSt17_Function_handlerIFSt10unique_ptrINSt13__future_base12_Result_baseENS2_8_DeleterEEvENS1_13_State_baseV27_SetterIbObEEE9_M_invokeERKSt9_Any_data, @function
_ZNSt17_Function_handlerIFSt10unique_ptrINSt13__future_base12_Result_baseENS2_8_DeleterEEvENS1_13_State_baseV27_SetterIbObEEE9_M_invokeERKSt9_Any_data:
.LFB11004:
	.cfi_startproc
	endbr64
	movq	(%rsi), %rcx
	movq	8(%rsi), %rsi
	movq	%rdi, %rax
	movq	16(%rcx), %rdx
	movzbl	(%rsi), %esi
	movb	$1, 17(%rdx)
	movb	%sil, 16(%rdx)
	movq	$0, 16(%rcx)
	movq	%rdx, (%rdi)
	ret
	.cfi_endproc
.LFE11004:
	.size	_ZNSt17_Function_handlerIFSt10unique_ptrINSt13__future_base12_Result_baseENS2_8_DeleterEEvENS1_13_State_baseV27_SetterIbObEEE9_M_invokeERKSt9_Any_data, .-_ZNSt17_Function_handlerIFSt10unique_ptrINSt13__future_base12_Result_baseENS2_8_DeleterEEvENS1_13_State_baseV27_SetterIbObEEE9_M_invokeERKSt9_Any_data
	.section	.text._ZNSt14_Function_base13_Base_managerINSt13__future_base13_State_baseV27_SetterIbObEEE10_M_managerERSt9_Any_dataRKS7_St18_Manager_operation,"axG",@progbits,_ZNSt14_Function_base13_Base_managerINSt13__future_base13_State_baseV27_SetterIbObEEE10_M_managerERSt9_Any_dataRKS7_St18_Manager_operation,comdat
	.p2align 4
	.weak	_ZNSt14_Function_base13_Base_managerINSt13__future_base13_State_baseV27_SetterIbObEEE10_M_managerERSt9_Any_dataRKS7_St18_Manager_operation
	.type	_ZNSt14_Function_base13_Base_managerINSt13__future_base13_State_baseV27_SetterIbObEEE10_M_managerERSt9_Any_dataRKS7_St18_Manager_operation, @function
_ZNSt14_Function_base13_Base_managerINSt13__future_base13_State_baseV27_SetterIbObEEE10_M_managerERSt9_Any_dataRKS7_St18_Manager_operation:
.LFB11005:
	.cfi_startproc
	endbr64
	cmpl	$2, %edx
	je	.L17
	ja	.L18
	testl	%edx, %edx
	je	.L20
	movq	%rsi, (%rdi)
.L18:
	xorl	%eax, %eax
	ret
	.p2align 4,,10
	.p2align 3
.L17:
	movdqu	(%rsi), %xmm0
	xorl	%eax, %eax
	movups	%xmm0, (%rdi)
	ret
	.p2align 4,,10
	.p2align 3
.L20:
	movq	_ZTINSt13__future_base13_State_baseV27_SetterIbObEE@GOTPCREL(%rip), %rax
	movq	%rax, (%rdi)
	xorl	%eax, %eax
	ret
	.cfi_endproc
.LFE11005:
	.size	_ZNSt14_Function_base13_Base_managerINSt13__future_base13_State_baseV27_SetterIbObEEE10_M_managerERSt9_Any_dataRKS7_St18_Manager_operation, .-_ZNSt14_Function_base13_Base_managerINSt13__future_base13_State_baseV27_SetterIbObEEE10_M_managerERSt9_Any_dataRKS7_St18_Manager_operation
	.section	.text._ZNSt17_Function_handlerIFSt10unique_ptrINSt13__future_base12_Result_baseENS2_8_DeleterEEvENS1_13_State_baseV27_SetterIN8opendnp315StackStatisticsEOS9_EEE9_M_invokeERKSt9_Any_data,"axG",@progbits,_ZNSt17_Function_handlerIFSt10unique_ptrINSt13__future_base12_Result_baseENS2_8_DeleterEEvENS1_13_State_baseV27_SetterIN8opendnp315StackStatisticsEOS9_EEE9_M_invokeERKSt9_Any_data,comdat
	.p2align 4
	.weak	_ZNSt17_Function_handlerIFSt10unique_ptrINSt13__future_base12_Result_baseENS2_8_DeleterEEvENS1_13_State_baseV27_SetterIN8opendnp315StackStatisticsEOS9_EEE9_M_invokeERKSt9_Any_data
	.type	_ZNSt17_Function_handlerIFSt10unique_ptrINSt13__future_base12_Result_baseENS2_8_DeleterEEvENS1_13_State_baseV27_SetterIN8opendnp315StackStatisticsEOS9_EEE9_M_invokeERKSt9_Any_data, @function
_ZNSt17_Function_handlerIFSt10unique_ptrINSt13__future_base12_Result_baseENS2_8_DeleterEEvENS1_13_State_baseV27_SetterIN8opendnp315StackStatisticsEOS9_EEE9_M_invokeERKSt9_Any_data:
.LFB11057:
	.cfi_startproc
	endbr64
	movq	8(%rsi), %rcx
	movq	%rdi, %rax
	movq	(%rsi), %rdi
	movdqu	(%rcx), %xmm0
	movq	16(%rdi), %rdx
	movups	%xmm0, 16(%rdx)
	movdqu	16(%rcx), %xmm1
	movups	%xmm1, 32(%rdx)
	movq	32(%rcx), %rcx
	movb	$1, 56(%rdx)
	movq	%rcx, 48(%rdx)
	movq	$0, 16(%rdi)
	movq	%rdx, (%rax)
	ret
	.cfi_endproc
.LFE11057:
	.size	_ZNSt17_Function_handlerIFSt10unique_ptrINSt13__future_base12_Result_baseENS2_8_DeleterEEvENS1_13_State_baseV27_SetterIN8opendnp315StackStatisticsEOS9_EEE9_M_invokeERKSt9_Any_data, .-_ZNSt17_Function_handlerIFSt10unique_ptrINSt13__future_base12_Result_baseENS2_8_DeleterEEvENS1_13_State_baseV27_SetterIN8opendnp315StackStatisticsEOS9_EEE9_M_invokeERKSt9_Any_data
	.section	.text._ZNSt14_Function_base13_Base_managerINSt13__future_base13_State_baseV27_SetterIN8opendnp315StackStatisticsEOS5_EEE10_M_managerERSt9_Any_dataRKS9_St18_Manager_operation,"axG",@progbits,_ZNSt14_Function_base13_Base_managerINSt13__future_base13_State_baseV27_SetterIN8opendnp315StackStatisticsEOS5_EEE10_M_managerERSt9_Any_dataRKS9_St18_Manager_operation,comdat
	.p2align 4
	.weak	_ZNSt14_Function_base13_Base_managerINSt13__future_base13_State_baseV27_SetterIN8opendnp315StackStatisticsEOS5_EEE10_M_managerERSt9_Any_dataRKS9_St18_Manager_operation
	.type	_ZNSt14_Function_base13_Base_managerINSt13__future_base13_State_baseV27_SetterIN8opendnp315StackStatisticsEOS5_EEE10_M_managerERSt9_Any_dataRKS9_St18_Manager_operation, @function
_ZNSt14_Function_base13_Base_managerINSt13__future_base13_State_baseV27_SetterIN8opendnp315StackStatisticsEOS5_EEE10_M_managerERSt9_Any_dataRKS9_St18_Manager_operation:
.LFB11058:
	.cfi_startproc
	endbr64
	cmpl	$2, %edx
	je	.L23
	ja	.L24
	testl	%edx, %edx
	je	.L26
	movq	%rsi, (%rdi)
.L24:
	xorl	%eax, %eax
	ret
	.p2align 4,,10
	.p2align 3
.L23:
	movdqu	(%rsi), %xmm0
	xorl	%eax, %eax
	movups	%xmm0, (%rdi)
	ret
	.p2align 4,,10
	.p2align 3
.L26:
	movq	_ZTINSt13__future_base13_State_baseV27_SetterIN8opendnp315StackStatisticsEOS3_EE@GOTPCREL(%rip), %rax
	movq	%rax, (%rdi)
	xorl	%eax, %eax
	ret
	.cfi_endproc
.LFE11058:
	.size	_ZNSt14_Function_base13_Base_managerINSt13__future_base13_State_baseV27_SetterIN8opendnp315StackStatisticsEOS5_EEE10_M_managerERSt9_Any_dataRKS9_St18_Manager_operation, .-_ZNSt14_Function_base13_Base_managerINSt13__future_base13_State_baseV27_SetterIN8opendnp315StackStatisticsEOS5_EEE10_M_managerERSt9_Any_dataRKS9_St18_Manager_operation
	.section	.text._ZNSt17_Function_handlerIFSt10unique_ptrINSt13__future_base12_Result_baseENS2_8_DeleterEEvENS1_13_State_baseV27_SetterISt10shared_ptrIN8opendnp311IMasterTaskEEOSB_EEE9_M_invokeERKSt9_Any_data,"axG",@progbits,_ZNSt17_Function_handlerIFSt10unique_ptrINSt13__future_base12_Result_baseENS2_8_DeleterEEvENS1_13_State_baseV27_SetterISt10shared_ptrIN8opendnp311IMasterTaskEEOSB_EEE9_M_invokeERKSt9_Any_data,comdat
	.p2align 4
	.weak	_ZNSt17_Function_handlerIFSt10unique_ptrINSt13__future_base12_Result_baseENS2_8_DeleterEEvENS1_13_State_baseV27_SetterISt10shared_ptrIN8opendnp311IMasterTaskEEOSB_EEE9_M_invokeERKSt9_Any_data
	.type	_ZNSt17_Function_handlerIFSt10unique_ptrINSt13__future_base12_Result_baseENS2_8_DeleterEEvENS1_13_State_baseV27_SetterISt10shared_ptrIN8opendnp311IMasterTaskEEOSB_EEE9_M_invokeERKSt9_Any_data, @function
_ZNSt17_Function_handlerIFSt10unique_ptrINSt13__future_base12_Result_baseENS2_8_DeleterEEvENS1_13_State_baseV27_SetterISt10shared_ptrIN8opendnp311IMasterTaskEEOSB_EEE9_M_invokeERKSt9_Any_data:
.LFB11097:
	.cfi_startproc
	endbr64
	movq	8(%rsi), %rcx
	movq	%rdi, %rax
	movq	(%rsi), %rdi
	pxor	%xmm0, %xmm0
	movq	16(%rdi), %rdx
	movq	(%rcx), %rsi
	movq	$0, 24(%rdx)
	movq	%rsi, 16(%rdx)
	movq	8(%rcx), %rsi
	movups	%xmm0, (%rcx)
	movq	%rsi, 24(%rdx)
	movb	$1, 32(%rdx)
	movq	$0, 16(%rdi)
	movq	%rdx, (%rax)
	ret
	.cfi_endproc
.LFE11097:
	.size	_ZNSt17_Function_handlerIFSt10unique_ptrINSt13__future_base12_Result_baseENS2_8_DeleterEEvENS1_13_State_baseV27_SetterISt10shared_ptrIN8opendnp311IMasterTaskEEOSB_EEE9_M_invokeERKSt9_Any_data, .-_ZNSt17_Function_handlerIFSt10unique_ptrINSt13__future_base12_Result_baseENS2_8_DeleterEEvENS1_13_State_baseV27_SetterISt10shared_ptrIN8opendnp311IMasterTaskEEOSB_EEE9_M_invokeERKSt9_Any_data
	.section	.text._ZNSt14_Function_base13_Base_managerINSt13__future_base13_State_baseV27_SetterISt10shared_ptrIN8opendnp311IMasterTaskEEOS7_EEE10_M_managerERSt9_Any_dataRKSB_St18_Manager_operation,"axG",@progbits,_ZNSt14_Function_base13_Base_managerINSt13__future_base13_State_baseV27_SetterISt10shared_ptrIN8opendnp311IMasterTaskEEOS7_EEE10_M_managerERSt9_Any_dataRKSB_St18_Manager_operation,comdat
	.p2align 4
	.weak	_ZNSt14_Function_base13_Base_managerINSt13__future_base13_State_baseV27_SetterISt10shared_ptrIN8opendnp311IMasterTaskEEOS7_EEE10_M_managerERSt9_Any_dataRKSB_St18_Manager_operation
	.type	_ZNSt14_Function_base13_Base_managerINSt13__future_base13_State_baseV27_SetterISt10shared_ptrIN8opendnp311IMasterTaskEEOS7_EEE10_M_managerERSt9_Any_dataRKSB_St18_Manager_operation, @function
_ZNSt14_Function_base13_Base_managerINSt13__future_base13_State_baseV27_SetterISt10shared_ptrIN8opendnp311IMasterTaskEEOS7_EEE10_M_managerERSt9_Any_dataRKSB_St18_Manager_operation:
.LFB11098:
	.cfi_startproc
	endbr64
	cmpl	$2, %edx
	je	.L29
	ja	.L30
	testl	%edx, %edx
	je	.L32
	movq	%rsi, (%rdi)
.L30:
	xorl	%eax, %eax
	ret
	.p2align 4,,10
	.p2align 3
.L29:
	movdqu	(%rsi), %xmm0
	xorl	%eax, %eax
	movups	%xmm0, (%rdi)
	ret
	.p2align 4,,10
	.p2align 3
.L32:
	movq	_ZTINSt13__future_base13_State_baseV27_SetterISt10shared_ptrIN8opendnp311IMasterTaskEEOS5_EE@GOTPCREL(%rip), %rax
	movq	%rax, (%rdi)
	xorl	%eax, %eax
	ret
	.cfi_endproc
.LFE11098:
	.size	_ZNSt14_Function_base13_Base_managerINSt13__future_base13_State_baseV27_SetterISt10shared_ptrIN8opendnp311IMasterTaskEEOS7_EEE10_M_managerERSt9_Any_dataRKSB_St18_Manager_operation, .-_ZNSt14_Function_base13_Base_managerINSt13__future_base13_State_baseV27_SetterISt10shared_ptrIN8opendnp311IMasterTaskEEOS7_EEE10_M_managerERSt9_Any_dataRKSB_St18_Manager_operation
	.section	.text._ZNSt13__future_base13_State_baseV2D2Ev,"axG",@progbits,_ZNSt13__future_base13_State_baseV2D5Ev,comdat
	.align 2
	.p2align 4
	.weak	_ZNSt13__future_base13_State_baseV2D2Ev
	.type	_ZNSt13__future_base13_State_baseV2D2Ev, @function
_ZNSt13__future_base13_State_baseV2D2Ev:
.LFB12066:
	.cfi_startproc
	.cfi_personality 0x9b,DW.ref.__gxx_personality_v0
	.cfi_lsda 0x1b,.LLSDA12066
	endbr64
	movq	_ZTVNSt13__future_base13_State_baseV2E@GOTPCREL(%rip), %rax
	addq	$16, %rax
	movq	%rax, (%rdi)
	movq	8(%rdi), %rdi
	testq	%rdi, %rdi
	je	.L39
	subq	$8, %rsp
	.cfi_def_cfa_offset 16
	movq	(%rdi), %rax
	call	*(%rax)
	addq	$8, %rsp
	.cfi_def_cfa_offset 8
	ret
	.p2align 4,,10
	.p2align 3
.L39:
	ret
	.cfi_endproc
.LFE12066:
	.globl	__gxx_personality_v0
	.section	.gcc_except_table._ZNSt13__future_base13_State_baseV2D2Ev,"aG",@progbits,_ZNSt13__future_base13_State_baseV2D5Ev,comdat
.LLSDA12066:
	.byte	0xff
	.byte	0xff
	.byte	0x1
	.uleb128 .LLSDACSE12066-.LLSDACSB12066
.LLSDACSB12066:
.LLSDACSE12066:
	.section	.text._ZNSt13__future_base13_State_baseV2D2Ev,"axG",@progbits,_ZNSt13__future_base13_State_baseV2D5Ev,comdat
	.size	_ZNSt13__future_base13_State_baseV2D2Ev, .-_ZNSt13__future_base13_State_baseV2D2Ev
	.weak	_ZNSt13__future_base13_State_baseV2D1Ev
	.set	_ZNSt13__future_base13_State_baseV2D1Ev,_ZNSt13__future_base13_State_baseV2D2Ev
	.section	.text._ZN4asio6detail7tss_ptrINS0_10call_stackINS0_15task_io_serviceENS0_27task_io_service_thread_infoEE7contextEED2Ev,"axG",@progbits,_ZN4asio6detail7tss_ptrINS0_10call_stackINS0_15task_io_serviceENS0_27task_io_service_thread_infoEE7contextEED5Ev,comdat
	.align 2
	.p2align 4
	.weak	_ZN4asio6detail7tss_ptrINS0_10call_stackINS0_15task_io_serviceENS0_27task_io_service_thread_infoEE7contextEED2Ev
	.type	_ZN4asio6detail7tss_ptrINS0_10call_stackINS0_15task_io_serviceENS0_27task_io_service_thread_infoEE7contextEED2Ev, @function
_ZN4asio6detail7tss_ptrINS0_10call_stackINS0_15task_io_serviceENS0_27task_io_service_thread_infoEE7contextEED2Ev:
.LFB12131:
	.cfi_startproc
	endbr64
	ret
	.cfi_endproc
.LFE12131:
	.size	_ZN4asio6detail7tss_ptrINS0_10call_stackINS0_15task_io_serviceENS0_27task_io_service_thread_infoEE7contextEED2Ev, .-_ZN4asio6detail7tss_ptrINS0_10call_stackINS0_15task_io_serviceENS0_27task_io_service_thread_infoEE7contextEED2Ev
	.weak	_ZN4asio6detail7tss_ptrINS0_10call_stackINS0_15task_io_serviceENS0_27task_io_service_thread_infoEE7contextEED1Ev
	.set	_ZN4asio6detail7tss_ptrINS0_10call_stackINS0_15task_io_serviceENS0_27task_io_service_thread_infoEE7contextEED1Ev,_ZN4asio6detail7tss_ptrINS0_10call_stackINS0_15task_io_serviceENS0_27task_io_service_thread_infoEE7contextEED2Ev
	.section	.text._ZN4asio6detail10service_idINS0_13epoll_reactorEED2Ev,"axG",@progbits,_ZN4asio6detail10service_idINS0_13epoll_reactorEED5Ev,comdat
	.align 2
	.p2align 4
	.weak	_ZN4asio6detail10service_idINS0_13epoll_reactorEED2Ev
	.type	_ZN4asio6detail10service_idINS0_13epoll_reactorEED2Ev, @function
_ZN4asio6detail10service_idINS0_13epoll_reactorEED2Ev:
.LFB12134:
	.cfi_startproc
	endbr64
	ret
	.cfi_endproc
.LFE12134:
	.size	_ZN4asio6detail10service_idINS0_13epoll_reactorEED2Ev, .-_ZN4asio6detail10service_idINS0_13epoll_reactorEED2Ev
	.weak	_ZN4asio6detail10service_idINS0_13epoll_reactorEED1Ev
	.set	_ZN4asio6detail10service_idINS0_13epoll_reactorEED1Ev,_ZN4asio6detail10service_idINS0_13epoll_reactorEED2Ev
	.section	.text._ZN4asio6detail10service_idINS0_15task_io_serviceEED2Ev,"axG",@progbits,_ZN4asio6detail10service_idINS0_15task_io_serviceEED5Ev,comdat
	.align 2
	.p2align 4
	.weak	_ZN4asio6detail10service_idINS0_15task_io_serviceEED2Ev
	.type	_ZN4asio6detail10service_idINS0_15task_io_serviceEED2Ev, @function
_ZN4asio6detail10service_idINS0_15task_io_serviceEED2Ev:
.LFB12137:
	.cfi_startproc
	endbr64
	ret
	.cfi_endproc
.LFE12137:
	.size	_ZN4asio6detail10service_idINS0_15task_io_serviceEED2Ev, .-_ZN4asio6detail10service_idINS0_15task_io_serviceEED2Ev
	.weak	_ZN4asio6detail10service_idINS0_15task_io_serviceEED1Ev
	.set	_ZN4asio6detail10service_idINS0_15task_io_serviceEED1Ev,_ZN4asio6detail10service_idINS0_15task_io_serviceEED2Ev
	.section	.text._ZN4asio6detail7tss_ptrINS0_10call_stackINS0_14strand_service11strand_implEhE7contextEED2Ev,"axG",@progbits,_ZN4asio6detail7tss_ptrINS0_10call_stackINS0_14strand_service11strand_implEhE7contextEED5Ev,comdat
	.align 2
	.p2align 4
	.weak	_ZN4asio6detail7tss_ptrINS0_10call_stackINS0_14strand_service11strand_implEhE7contextEED2Ev
	.type	_ZN4asio6detail7tss_ptrINS0_10call_stackINS0_14strand_service11strand_implEhE7contextEED2Ev, @function
_ZN4asio6detail7tss_ptrINS0_10call_stackINS0_14strand_service11strand_implEhE7contextEED2Ev:
.LFB12140:
	.cfi_startproc
	endbr64
	ret
	.cfi_endproc
.LFE12140:
	.size	_ZN4asio6detail7tss_ptrINS0_10call_stackINS0_14strand_service11strand_implEhE7contextEED2Ev, .-_ZN4asio6detail7tss_ptrINS0_10call_stackINS0_14strand_service11strand_implEhE7contextEED2Ev
	.weak	_ZN4asio6detail7tss_ptrINS0_10call_stackINS0_14strand_service11strand_implEhE7contextEED1Ev
	.set	_ZN4asio6detail7tss_ptrINS0_10call_stackINS0_14strand_service11strand_implEhE7contextEED1Ev,_ZN4asio6detail7tss_ptrINS0_10call_stackINS0_14strand_service11strand_implEhE7contextEED2Ev
	.section	.text._ZN4asio6detail10service_idINS0_14strand_serviceEED2Ev,"axG",@progbits,_ZN4asio6detail10service_idINS0_14strand_serviceEED5Ev,comdat
	.align 2
	.p2align 4
	.weak	_ZN4asio6detail10service_idINS0_14strand_serviceEED2Ev
	.type	_ZN4asio6detail10service_idINS0_14strand_serviceEED2Ev, @function
_ZN4asio6detail10service_idINS0_14strand_serviceEED2Ev:
.LFB12143:
	.cfi_startproc
	endbr64
	ret
	.cfi_endproc
.LFE12143:
	.size	_ZN4asio6detail10service_idINS0_14strand_serviceEED2Ev, .-_ZN4asio6detail10service_idINS0_14strand_serviceEED2Ev
	.weak	_ZN4asio6detail10service_idINS0_14strand_serviceEED1Ev
	.set	_ZN4asio6detail10service_idINS0_14strand_serviceEED1Ev,_ZN4asio6detail10service_idINS0_14strand_serviceEED2Ev
	.section	.text._ZNSt23_Sp_counted_ptr_inplaceIN8opendnp310CommandSetESaIS1_ELN9__gnu_cxx12_Lock_policyE2EED2Ev,"axG",@progbits,_ZNSt23_Sp_counted_ptr_inplaceIN8opendnp310CommandSetESaIS1_ELN9__gnu_cxx12_Lock_policyE2EED5Ev,comdat
	.align 2
	.p2align 4
	.weak	_ZNSt23_Sp_counted_ptr_inplaceIN8opendnp310CommandSetESaIS1_ELN9__gnu_cxx12_Lock_policyE2EED2Ev
	.type	_ZNSt23_Sp_counted_ptr_inplaceIN8opendnp310CommandSetESaIS1_ELN9__gnu_cxx12_Lock_policyE2EED2Ev, @function
_ZNSt23_Sp_counted_ptr_inplaceIN8opendnp310CommandSetESaIS1_ELN9__gnu_cxx12_Lock_policyE2EED2Ev:
.LFB12210:
	.cfi_startproc
	endbr64
	ret
	.cfi_endproc
.LFE12210:
	.size	_ZNSt23_Sp_counted_ptr_inplaceIN8opendnp310CommandSetESaIS1_ELN9__gnu_cxx12_Lock_policyE2EED2Ev, .-_ZNSt23_Sp_counted_ptr_inplaceIN8opendnp310CommandSetESaIS1_ELN9__gnu_cxx12_Lock_policyE2EED2Ev
	.weak	_ZNSt23_Sp_counted_ptr_inplaceIN8opendnp310CommandSetESaIS1_ELN9__gnu_cxx12_Lock_policyE2EED1Ev
	.set	_ZNSt23_Sp_counted_ptr_inplaceIN8opendnp310CommandSetESaIS1_ELN9__gnu_cxx12_Lock_policyE2EED1Ev,_ZNSt23_Sp_counted_ptr_inplaceIN8opendnp310CommandSetESaIS1_ELN9__gnu_cxx12_Lock_policyE2EED2Ev
	.section	.text._ZNSt23_Sp_counted_ptr_inplaceIN8asiodnp310MasterScanESaIS1_ELN9__gnu_cxx12_Lock_policyE2EED2Ev,"axG",@progbits,_ZNSt23_Sp_counted_ptr_inplaceIN8asiodnp310MasterScanESaIS1_ELN9__gnu_cxx12_Lock_policyE2EED5Ev,comdat
	.align 2
	.p2align 4
	.weak	_ZNSt23_Sp_counted_ptr_inplaceIN8asiodnp310MasterScanESaIS1_ELN9__gnu_cxx12_Lock_policyE2EED2Ev
	.type	_ZNSt23_Sp_counted_ptr_inplaceIN8asiodnp310MasterScanESaIS1_ELN9__gnu_cxx12_Lock_policyE2EED2Ev, @function
_ZNSt23_Sp_counted_ptr_inplaceIN8asiodnp310MasterScanESaIS1_ELN9__gnu_cxx12_Lock_policyE2EED2Ev:
.LFB12224:
	.cfi_startproc
	endbr64
	ret
	.cfi_endproc
.LFE12224:
	.size	_ZNSt23_Sp_counted_ptr_inplaceIN8asiodnp310MasterScanESaIS1_ELN9__gnu_cxx12_Lock_policyE2EED2Ev, .-_ZNSt23_Sp_counted_ptr_inplaceIN8asiodnp310MasterScanESaIS1_ELN9__gnu_cxx12_Lock_policyE2EED2Ev
	.weak	_ZNSt23_Sp_counted_ptr_inplaceIN8asiodnp310MasterScanESaIS1_ELN9__gnu_cxx12_Lock_policyE2EED1Ev
	.set	_ZNSt23_Sp_counted_ptr_inplaceIN8asiodnp310MasterScanESaIS1_ELN9__gnu_cxx12_Lock_policyE2EED1Ev,_ZNSt23_Sp_counted_ptr_inplaceIN8asiodnp310MasterScanESaIS1_ELN9__gnu_cxx12_Lock_policyE2EED2Ev
	.section	.text._ZNSt23_Sp_counted_ptr_inplaceINSt13__future_base13_State_baseV2ESaIS1_ELN9__gnu_cxx12_Lock_policyE2EED2Ev,"axG",@progbits,_ZNSt23_Sp_counted_ptr_inplaceINSt13__future_base13_State_baseV2ESaIS1_ELN9__gnu_cxx12_Lock_policyE2EED5Ev,comdat
	.align 2
	.p2align 4
	.weak	_ZNSt23_Sp_counted_ptr_inplaceINSt13__future_base13_State_baseV2ESaIS1_ELN9__gnu_cxx12_Lock_policyE2EED2Ev
	.type	_ZNSt23_Sp_counted_ptr_inplaceINSt13__future_base13_State_baseV2ESaIS1_ELN9__gnu_cxx12_Lock_policyE2EED2Ev, @function
_ZNSt23_Sp_counted_ptr_inplaceINSt13__future_base13_State_baseV2ESaIS1_ELN9__gnu_cxx12_Lock_policyE2EED2Ev:
.LFB12245:
	.cfi_startproc
	endbr64
	ret
	.cfi_endproc
.LFE12245:
	.size	_ZNSt23_Sp_counted_ptr_inplaceINSt13__future_base13_State_baseV2ESaIS1_ELN9__gnu_cxx12_Lock_policyE2EED2Ev, .-_ZNSt23_Sp_counted_ptr_inplaceINSt13__future_base13_State_baseV2ESaIS1_ELN9__gnu_cxx12_Lock_policyE2EED2Ev
	.weak	_ZNSt23_Sp_counted_ptr_inplaceINSt13__future_base13_State_baseV2ESaIS1_ELN9__gnu_cxx12_Lock_policyE2EED1Ev
	.set	_ZNSt23_Sp_counted_ptr_inplaceINSt13__future_base13_State_baseV2ESaIS1_ELN9__gnu_cxx12_Lock_policyE2EED1Ev,_ZNSt23_Sp_counted_ptr_inplaceINSt13__future_base13_State_baseV2ESaIS1_ELN9__gnu_cxx12_Lock_policyE2EED2Ev
	.section	.text._ZNSt23_Sp_counted_ptr_inplaceINSt13__future_base13_State_baseV2ESaIS1_ELN9__gnu_cxx12_Lock_policyE2EE10_M_disposeEv,"axG",@progbits,_ZNSt23_Sp_counted_ptr_inplaceINSt13__future_base13_State_baseV2ESaIS1_ELN9__gnu_cxx12_Lock_policyE2EE10_M_disposeEv,comdat
	.align 2
	.p2align 4
	.weak	_ZNSt23_Sp_counted_ptr_inplaceINSt13__future_base13_State_baseV2ESaIS1_ELN9__gnu_cxx12_Lock_policyE2EE10_M_disposeEv
	.type	_ZNSt23_Sp_counted_ptr_inplaceINSt13__future_base13_State_baseV2ESaIS1_ELN9__gnu_cxx12_Lock_policyE2EE10_M_disposeEv, @function
_ZNSt23_Sp_counted_ptr_inplaceINSt13__future_base13_State_baseV2ESaIS1_ELN9__gnu_cxx12_Lock_policyE2EE10_M_disposeEv:
.LFB12248:
	.cfi_startproc
	endbr64
	movq	16(%rdi), %rax
	leaq	16(%rdi), %r8
	movq	%r8, %rdi
	movq	(%rax), %rax
	jmp	*%rax
	.cfi_endproc
.LFE12248:
	.size	_ZNSt23_Sp_counted_ptr_inplaceINSt13__future_base13_State_baseV2ESaIS1_ELN9__gnu_cxx12_Lock_policyE2EE10_M_disposeEv, .-_ZNSt23_Sp_counted_ptr_inplaceINSt13__future_base13_State_baseV2ESaIS1_ELN9__gnu_cxx12_Lock_policyE2EE10_M_disposeEv
	.section	.text._ZNSt23_Sp_counted_ptr_inplaceIN8opendnp310CommandSetESaIS1_ELN9__gnu_cxx12_Lock_policyE2EE10_M_disposeEv,"axG",@progbits,_ZNSt23_Sp_counted_ptr_inplaceIN8opendnp310CommandSetESaIS1_ELN9__gnu_cxx12_Lock_policyE2EE10_M_disposeEv,comdat
	.align 2
	.p2align 4
	.weak	_ZNSt23_Sp_counted_ptr_inplaceIN8opendnp310CommandSetESaIS1_ELN9__gnu_cxx12_Lock_policyE2EE10_M_disposeEv
	.type	_ZNSt23_Sp_counted_ptr_inplaceIN8opendnp310CommandSetESaIS1_ELN9__gnu_cxx12_Lock_policyE2EE10_M_disposeEv, @function
_ZNSt23_Sp_counted_ptr_inplaceIN8opendnp310CommandSetESaIS1_ELN9__gnu_cxx12_Lock_policyE2EE10_M_disposeEv:
.LFB12213:
	.cfi_startproc
	endbr64
	addq	$16, %rdi
	jmp	_ZN8opendnp310CommandSetD1Ev@PLT
	.cfi_endproc
.LFE12213:
	.size	_ZNSt23_Sp_counted_ptr_inplaceIN8opendnp310CommandSetESaIS1_ELN9__gnu_cxx12_Lock_policyE2EE10_M_disposeEv, .-_ZNSt23_Sp_counted_ptr_inplaceIN8opendnp310CommandSetESaIS1_ELN9__gnu_cxx12_Lock_policyE2EE10_M_disposeEv
	.section	.text._ZNSt13__future_base13_State_baseV2D0Ev,"axG",@progbits,_ZNSt13__future_base13_State_baseV2D5Ev,comdat
	.align 2
	.p2align 4
	.weak	_ZNSt13__future_base13_State_baseV2D0Ev
	.type	_ZNSt13__future_base13_State_baseV2D0Ev, @function
_ZNSt13__future_base13_State_baseV2D0Ev:
.LFB12068:
	.cfi_startproc
	.cfi_personality 0x9b,DW.ref.__gxx_personality_v0
	.cfi_lsda 0x1b,.LLSDA12068
	endbr64
	movq	_ZTVNSt13__future_base13_State_baseV2E@GOTPCREL(%rip), %rax
	pushq	%rbp
	.cfi_def_cfa_offset 16
	.cfi_offset 6, -16
	movq	%rdi, %rbp
	addq	$16, %rax
	movq	%rax, (%rdi)
	movq	8(%rdi), %rdi
	testq	%rdi, %rdi
	je	.L53
	movq	(%rdi), %rax
	call	*(%rax)
.L53:
	movq	%rbp, %rdi
	movl	$32, %esi
	popq	%rbp
	.cfi_def_cfa_offset 8
	jmp	_ZdlPvm@PLT
	.cfi_endproc
.LFE12068:
	.section	.gcc_except_table._ZNSt13__future_base13_State_baseV2D0Ev,"aG",@progbits,_ZNSt13__future_base13_State_baseV2D5Ev,comdat
.LLSDA12068:
	.byte	0xff
	.byte	0xff
	.byte	0x1
	.uleb128 .LLSDACSE12068-.LLSDACSB12068
.LLSDACSB12068:
.LLSDACSE12068:
	.section	.text._ZNSt13__future_base13_State_baseV2D0Ev,"axG",@progbits,_ZNSt13__future_base13_State_baseV2D5Ev,comdat
	.size	_ZNSt13__future_base13_State_baseV2D0Ev, .-_ZNSt13__future_base13_State_baseV2D0Ev
	.section	.text._ZNSt23_Sp_counted_ptr_inplaceINSt13__future_base13_State_baseV2ESaIS1_ELN9__gnu_cxx12_Lock_policyE2EED0Ev,"axG",@progbits,_ZNSt23_Sp_counted_ptr_inplaceINSt13__future_base13_State_baseV2ESaIS1_ELN9__gnu_cxx12_Lock_policyE2EED5Ev,comdat
	.align 2
	.p2align 4
	.weak	_ZNSt23_Sp_counted_ptr_inplaceINSt13__future_base13_State_baseV2ESaIS1_ELN9__gnu_cxx12_Lock_policyE2EED0Ev
	.type	_ZNSt23_Sp_counted_ptr_inplaceINSt13__future_base13_State_baseV2ESaIS1_ELN9__gnu_cxx12_Lock_policyE2EED0Ev, @function
_ZNSt23_Sp_counted_ptr_inplaceINSt13__future_base13_State_baseV2ESaIS1_ELN9__gnu_cxx12_Lock_policyE2EED0Ev:
.LFB12247:
	.cfi_startproc
	endbr64
	movl	$48, %esi
	jmp	_ZdlPvm@PLT
	.cfi_endproc
.LFE12247:
	.size	_ZNSt23_Sp_counted_ptr_inplaceINSt13__future_base13_State_baseV2ESaIS1_ELN9__gnu_cxx12_Lock_policyE2EED0Ev, .-_ZNSt23_Sp_counted_ptr_inplaceINSt13__future_base13_State_baseV2ESaIS1_ELN9__gnu_cxx12_Lock_policyE2EED0Ev
	.section	.text._ZNSt23_Sp_counted_ptr_inplaceIN8asiodnp310MasterScanESaIS1_ELN9__gnu_cxx12_Lock_policyE2EED0Ev,"axG",@progbits,_ZNSt23_Sp_counted_ptr_inplaceIN8asiodnp310MasterScanESaIS1_ELN9__gnu_cxx12_Lock_policyE2EED5Ev,comdat
	.align 2
	.p2align 4
	.weak	_ZNSt23_Sp_counted_ptr_inplaceIN8asiodnp310MasterScanESaIS1_ELN9__gnu_cxx12_Lock_policyE2EED0Ev
	.type	_ZNSt23_Sp_counted_ptr_inplaceIN8asiodnp310MasterScanESaIS1_ELN9__gnu_cxx12_Lock_policyE2EED0Ev, @function
_ZNSt23_Sp_counted_ptr_inplaceIN8asiodnp310MasterScanESaIS1_ELN9__gnu_cxx12_Lock_policyE2EED0Ev:
.LFB12226:
	.cfi_startproc
	endbr64
	movl	$56, %esi
	jmp	_ZdlPvm@PLT
	.cfi_endproc
.LFE12226:
	.size	_ZNSt23_Sp_counted_ptr_inplaceIN8asiodnp310MasterScanESaIS1_ELN9__gnu_cxx12_Lock_policyE2EED0Ev, .-_ZNSt23_Sp_counted_ptr_inplaceIN8asiodnp310MasterScanESaIS1_ELN9__gnu_cxx12_Lock_policyE2EED0Ev
	.section	.text._ZNSt23_Sp_counted_ptr_inplaceIN8opendnp310CommandSetESaIS1_ELN9__gnu_cxx12_Lock_policyE2EED0Ev,"axG",@progbits,_ZNSt23_Sp_counted_ptr_inplaceIN8opendnp310CommandSetESaIS1_ELN9__gnu_cxx12_Lock_policyE2EED5Ev,comdat
	.align 2
	.p2align 4
	.weak	_ZNSt23_Sp_counted_ptr_inplaceIN8opendnp310CommandSetESaIS1_ELN9__gnu_cxx12_Lock_policyE2EED0Ev
	.type	_ZNSt23_Sp_counted_ptr_inplaceIN8opendnp310CommandSetESaIS1_ELN9__gnu_cxx12_Lock_policyE2EED0Ev, @function
_ZNSt23_Sp_counted_ptr_inplaceIN8opendnp310CommandSetESaIS1_ELN9__gnu_cxx12_Lock_policyE2EED0Ev:
.LFB12212:
	.cfi_startproc
	endbr64
	movl	$40, %esi
	jmp	_ZdlPvm@PLT
	.cfi_endproc
.LFE12212:
	.size	_ZNSt23_Sp_counted_ptr_inplaceIN8opendnp310CommandSetESaIS1_ELN9__gnu_cxx12_Lock_policyE2EED0Ev, .-_ZNSt23_Sp_counted_ptr_inplaceIN8opendnp310CommandSetESaIS1_ELN9__gnu_cxx12_Lock_policyE2EED0Ev
	.section	.text._ZNSt23_Sp_counted_ptr_inplaceIN8opendnp310CommandSetESaIS1_ELN9__gnu_cxx12_Lock_policyE2EE10_M_destroyEv,"axG",@progbits,_ZNSt23_Sp_counted_ptr_inplaceIN8opendnp310CommandSetESaIS1_ELN9__gnu_cxx12_Lock_policyE2EE10_M_destroyEv,comdat
	.align 2
	.p2align 4
	.weak	_ZNSt23_Sp_counted_ptr_inplaceIN8opendnp310CommandSetESaIS1_ELN9__gnu_cxx12_Lock_policyE2EE10_M_destroyEv
	.type	_ZNSt23_Sp_counted_ptr_inplaceIN8opendnp310CommandSetESaIS1_ELN9__gnu_cxx12_Lock_policyE2EE10_M_destroyEv, @function
_ZNSt23_Sp_counted_ptr_inplaceIN8opendnp310CommandSetESaIS1_ELN9__gnu_cxx12_Lock_policyE2EE10_M_destroyEv:
.LFB12214:
	.cfi_startproc
	endbr64
	jmp	_ZdlPv@PLT
	.cfi_endproc
.LFE12214:
	.size	_ZNSt23_Sp_counted_ptr_inplaceIN8opendnp310CommandSetESaIS1_ELN9__gnu_cxx12_Lock_policyE2EE10_M_destroyEv, .-_ZNSt23_Sp_counted_ptr_inplaceIN8opendnp310CommandSetESaIS1_ELN9__gnu_cxx12_Lock_policyE2EE10_M_destroyEv
	.section	.text._ZNSt23_Sp_counted_ptr_inplaceIN8asiodnp310MasterScanESaIS1_ELN9__gnu_cxx12_Lock_policyE2EE10_M_destroyEv,"axG",@progbits,_ZNSt23_Sp_counted_ptr_inplaceIN8asiodnp310MasterScanESaIS1_ELN9__gnu_cxx12_Lock_policyE2EE10_M_destroyEv,comdat
	.align 2
	.p2align 4
	.weak	_ZNSt23_Sp_counted_ptr_inplaceIN8asiodnp310MasterScanESaIS1_ELN9__gnu_cxx12_Lock_policyE2EE10_M_destroyEv
	.type	_ZNSt23_Sp_counted_ptr_inplaceIN8asiodnp310MasterScanESaIS1_ELN9__gnu_cxx12_Lock_policyE2EE10_M_destroyEv, @function
_ZNSt23_Sp_counted_ptr_inplaceIN8asiodnp310MasterScanESaIS1_ELN9__gnu_cxx12_Lock_policyE2EE10_M_destroyEv:
.LFB12228:
	.cfi_startproc
	endbr64
	jmp	_ZdlPv@PLT
	.cfi_endproc
.LFE12228:
	.size	_ZNSt23_Sp_counted_ptr_inplaceIN8asiodnp310MasterScanESaIS1_ELN9__gnu_cxx12_Lock_policyE2EE10_M_destroyEv, .-_ZNSt23_Sp_counted_ptr_inplaceIN8asiodnp310MasterScanESaIS1_ELN9__gnu_cxx12_Lock_policyE2EE10_M_destroyEv
	.section	.text._ZNSt23_Sp_counted_ptr_inplaceINSt13__future_base13_State_baseV2ESaIS1_ELN9__gnu_cxx12_Lock_policyE2EE10_M_destroyEv,"axG",@progbits,_ZNSt23_Sp_counted_ptr_inplaceINSt13__future_base13_State_baseV2ESaIS1_ELN9__gnu_cxx12_Lock_policyE2EE10_M_destroyEv,comdat
	.align 2
	.p2align 4
	.weak	_ZNSt23_Sp_counted_ptr_inplaceINSt13__future_base13_State_baseV2ESaIS1_ELN9__gnu_cxx12_Lock_policyE2EE10_M_destroyEv
	.type	_ZNSt23_Sp_counted_ptr_inplaceINSt13__future_base13_State_baseV2ESaIS1_ELN9__gnu_cxx12_Lock_policyE2EE10_M_destroyEv, @function
_ZNSt23_Sp_counted_ptr_inplaceINSt13__future_base13_State_baseV2ESaIS1_ELN9__gnu_cxx12_Lock_policyE2EE10_M_destroyEv:
.LFB12249:
	.cfi_startproc
	endbr64
	jmp	_ZdlPv@PLT
	.cfi_endproc
.LFE12249:
	.size	_ZNSt23_Sp_counted_ptr_inplaceINSt13__future_base13_State_baseV2ESaIS1_ELN9__gnu_cxx12_Lock_policyE2EE10_M_destroyEv, .-_ZNSt23_Sp_counted_ptr_inplaceINSt13__future_base13_State_baseV2ESaIS1_ELN9__gnu_cxx12_Lock_policyE2EE10_M_destroyEv
	.section	.text._ZNSt13__future_base7_ResultIbED2Ev,"axG",@progbits,_ZNSt13__future_base7_ResultIbED5Ev,comdat
	.align 2
	.p2align 4
	.weak	_ZNSt13__future_base7_ResultIbED2Ev
	.type	_ZNSt13__future_base7_ResultIbED2Ev, @function
_ZNSt13__future_base7_ResultIbED2Ev:
.LFB12277:
	.cfi_startproc
	endbr64
	movq	_ZTVNSt13__future_base7_ResultIbEE@GOTPCREL(%rip), %rax
	addq	$16, %rax
	movq	%rax, (%rdi)
	jmp	_ZNSt13__future_base12_Result_baseD2Ev@PLT
	.cfi_endproc
.LFE12277:
	.size	_ZNSt13__future_base7_ResultIbED2Ev, .-_ZNSt13__future_base7_ResultIbED2Ev
	.weak	_ZNSt13__future_base7_ResultIbED1Ev
	.set	_ZNSt13__future_base7_ResultIbED1Ev,_ZNSt13__future_base7_ResultIbED2Ev
	.section	.text._ZNSt13__future_base7_ResultIbED0Ev,"axG",@progbits,_ZNSt13__future_base7_ResultIbED5Ev,comdat
	.align 2
	.p2align 4
	.weak	_ZNSt13__future_base7_ResultIbED0Ev
	.type	_ZNSt13__future_base7_ResultIbED0Ev, @function
_ZNSt13__future_base7_ResultIbED0Ev:
.LFB12279:
	.cfi_startproc
	endbr64
	movq	_ZTVNSt13__future_base7_ResultIbEE@GOTPCREL(%rip), %rax
	pushq	%rbp
	.cfi_def_cfa_offset 16
	.cfi_offset 6, -16
	movq	%rdi, %rbp
	addq	$16, %rax
	movq	%rax, (%rdi)
	call	_ZNSt13__future_base12_Result_baseD2Ev@PLT
	movq	%rbp, %rdi
	movl	$24, %esi
	popq	%rbp
	.cfi_def_cfa_offset 8
	jmp	_ZdlPvm@PLT
	.cfi_endproc
.LFE12279:
	.size	_ZNSt13__future_base7_ResultIbED0Ev, .-_ZNSt13__future_base7_ResultIbED0Ev
	.section	.text._ZNSt13__future_base7_ResultIN8opendnp315StackStatisticsEED2Ev,"axG",@progbits,_ZNSt13__future_base7_ResultIN8opendnp315StackStatisticsEED5Ev,comdat
	.align 2
	.p2align 4
	.weak	_ZNSt13__future_base7_ResultIN8opendnp315StackStatisticsEED2Ev
	.type	_ZNSt13__future_base7_ResultIN8opendnp315StackStatisticsEED2Ev, @function
_ZNSt13__future_base7_ResultIN8opendnp315StackStatisticsEED2Ev:
.LFB12272:
	.cfi_startproc
	endbr64
	movq	_ZTVNSt13__future_base7_ResultIN8opendnp315StackStatisticsEEE@GOTPCREL(%rip), %rax
	addq	$16, %rax
	movq	%rax, (%rdi)
	jmp	_ZNSt13__future_base12_Result_baseD2Ev@PLT
	.cfi_endproc
.LFE12272:
	.size	_ZNSt13__future_base7_ResultIN8opendnp315StackStatisticsEED2Ev, .-_ZNSt13__future_base7_ResultIN8opendnp315StackStatisticsEED2Ev
	.weak	_ZNSt13__future_base7_ResultIN8opendnp315StackStatisticsEED1Ev
	.set	_ZNSt13__future_base7_ResultIN8opendnp315StackStatisticsEED1Ev,_ZNSt13__future_base7_ResultIN8opendnp315StackStatisticsEED2Ev
	.section	.text._ZNSt13__future_base7_ResultIN8opendnp315StackStatisticsEED0Ev,"axG",@progbits,_ZNSt13__future_base7_ResultIN8opendnp315StackStatisticsEED5Ev,comdat
	.align 2
	.p2align 4
	.weak	_ZNSt13__future_base7_ResultIN8opendnp315StackStatisticsEED0Ev
	.type	_ZNSt13__future_base7_ResultIN8opendnp315StackStatisticsEED0Ev, @function
_ZNSt13__future_base7_ResultIN8opendnp315StackStatisticsEED0Ev:
.LFB12274:
	.cfi_startproc
	endbr64
	movq	_ZTVNSt13__future_base7_ResultIN8opendnp315StackStatisticsEEE@GOTPCREL(%rip), %rax
	pushq	%rbp
	.cfi_def_cfa_offset 16
	.cfi_offset 6, -16
	movq	%rdi, %rbp
	addq	$16, %rax
	movq	%rax, (%rdi)
	call	_ZNSt13__future_base12_Result_baseD2Ev@PLT
	movq	%rbp, %rdi
	movl	$64, %esi
	popq	%rbp
	.cfi_def_cfa_offset 8
	jmp	_ZdlPvm@PLT
	.cfi_endproc
.LFE12274:
	.size	_ZNSt13__future_base7_ResultIN8opendnp315StackStatisticsEED0Ev, .-_ZNSt13__future_base7_ResultIN8opendnp315StackStatisticsEED0Ev
	.section	.text._ZNSt23_Sp_counted_ptr_inplaceINSt13__future_base13_State_baseV2ESaIS1_ELN9__gnu_cxx12_Lock_policyE2EE14_M_get_deleterERKSt9type_info,"axG",@progbits,_ZNSt23_Sp_counted_ptr_inplaceINSt13__future_base13_State_baseV2ESaIS1_ELN9__gnu_cxx12_Lock_policyE2EE14_M_get_deleterERKSt9type_info,comdat
	.align 2
	.p2align 4
	.weak	_ZNSt23_Sp_counted_ptr_inplaceINSt13__future_base13_State_baseV2ESaIS1_ELN9__gnu_cxx12_Lock_policyE2EE14_M_get_deleterERKSt9type_info
	.type	_ZNSt23_Sp_counted_ptr_inplaceINSt13__future_base13_State_baseV2ESaIS1_ELN9__gnu_cxx12_Lock_policyE2EE14_M_get_deleterERKSt9type_info, @function
_ZNSt23_Sp_counted_ptr_inplaceINSt13__future_base13_State_baseV2ESaIS1_ELN9__gnu_cxx12_Lock_policyE2EE14_M_get_deleterERKSt9type_info:
.LFB12250:
	.cfi_startproc
	endbr64
	pushq	%r12
	.cfi_def_cfa_offset 16
	.cfi_offset 12, -16
	pushq	%rbx
	.cfi_def_cfa_offset 24
	.cfi_offset 3, -24
	movq	%rdi, %rbx
	subq	$8, %rsp
	.cfi_def_cfa_offset 32
	cmpq	_ZZNSt19_Sp_make_shared_tag5_S_tiEvE5__tag@GOTPCREL(%rip), %rsi
	je	.L71
	movq	8(%rsi), %rdi
	movq	_ZTSSt19_Sp_make_shared_tag@GOTPCREL(%rip), %rsi
	cmpq	%rsi, %rdi
	je	.L71
	xorl	%r12d, %r12d
	cmpb	$42, (%rdi)
	je	.L70
	call	strcmp@PLT
	testl	%eax, %eax
	jne	.L70
.L71:
	leaq	16(%rbx), %r12
.L70:
	addq	$8, %rsp
	.cfi_def_cfa_offset 24
	movq	%r12, %rax
	popq	%rbx
	.cfi_def_cfa_offset 16
	popq	%r12
	.cfi_def_cfa_offset 8
	ret
	.cfi_endproc
.LFE12250:
	.size	_ZNSt23_Sp_counted_ptr_inplaceINSt13__future_base13_State_baseV2ESaIS1_ELN9__gnu_cxx12_Lock_policyE2EE14_M_get_deleterERKSt9type_info, .-_ZNSt23_Sp_counted_ptr_inplaceINSt13__future_base13_State_baseV2ESaIS1_ELN9__gnu_cxx12_Lock_policyE2EE14_M_get_deleterERKSt9type_info
	.section	.text._ZNSt23_Sp_counted_ptr_inplaceIN8asiodnp310MasterScanESaIS1_ELN9__gnu_cxx12_Lock_policyE2EE14_M_get_deleterERKSt9type_info,"axG",@progbits,_ZNSt23_Sp_counted_ptr_inplaceIN8asiodnp310MasterScanESaIS1_ELN9__gnu_cxx12_Lock_policyE2EE14_M_get_deleterERKSt9type_info,comdat
	.align 2
	.p2align 4
	.weak	_ZNSt23_Sp_counted_ptr_inplaceIN8asiodnp310MasterScanESaIS1_ELN9__gnu_cxx12_Lock_policyE2EE14_M_get_deleterERKSt9type_info
	.type	_ZNSt23_Sp_counted_ptr_inplaceIN8asiodnp310MasterScanESaIS1_ELN9__gnu_cxx12_Lock_policyE2EE14_M_get_deleterERKSt9type_info, @function
_ZNSt23_Sp_counted_ptr_inplaceIN8asiodnp310MasterScanESaIS1_ELN9__gnu_cxx12_Lock_policyE2EE14_M_get_deleterERKSt9type_info:
.LFB12229:
	.cfi_startproc
	endbr64
	pushq	%r12
	.cfi_def_cfa_offset 16
	.cfi_offset 12, -16
	pushq	%rbx
	.cfi_def_cfa_offset 24
	.cfi_offset 3, -24
	movq	%rdi, %rbx
	subq	$8, %rsp
	.cfi_def_cfa_offset 32
	cmpq	_ZZNSt19_Sp_make_shared_tag5_S_tiEvE5__tag@GOTPCREL(%rip), %rsi
	je	.L77
	movq	8(%rsi), %rdi
	movq	_ZTSSt19_Sp_make_shared_tag@GOTPCREL(%rip), %rsi
	cmpq	%rsi, %rdi
	je	.L77
	xorl	%r12d, %r12d
	cmpb	$42, (%rdi)
	je	.L76
	call	strcmp@PLT
	testl	%eax, %eax
	jne	.L76
.L77:
	leaq	16(%rbx), %r12
.L76:
	addq	$8, %rsp
	.cfi_def_cfa_offset 24
	movq	%r12, %rax
	popq	%rbx
	.cfi_def_cfa_offset 16
	popq	%r12
	.cfi_def_cfa_offset 8
	ret
	.cfi_endproc
.LFE12229:
	.size	_ZNSt23_Sp_counted_ptr_inplaceIN8asiodnp310MasterScanESaIS1_ELN9__gnu_cxx12_Lock_policyE2EE14_M_get_deleterERKSt9type_info, .-_ZNSt23_Sp_counted_ptr_inplaceIN8asiodnp310MasterScanESaIS1_ELN9__gnu_cxx12_Lock_policyE2EE14_M_get_deleterERKSt9type_info
	.section	.text._ZNSt23_Sp_counted_ptr_inplaceIN8opendnp310CommandSetESaIS1_ELN9__gnu_cxx12_Lock_policyE2EE14_M_get_deleterERKSt9type_info,"axG",@progbits,_ZNSt23_Sp_counted_ptr_inplaceIN8opendnp310CommandSetESaIS1_ELN9__gnu_cxx12_Lock_policyE2EE14_M_get_deleterERKSt9type_info,comdat
	.align 2
	.p2align 4
	.weak	_ZNSt23_Sp_counted_ptr_inplaceIN8opendnp310CommandSetESaIS1_ELN9__gnu_cxx12_Lock_policyE2EE14_M_get_deleterERKSt9type_info
	.type	_ZNSt23_Sp_counted_ptr_inplaceIN8opendnp310CommandSetESaIS1_ELN9__gnu_cxx12_Lock_policyE2EE14_M_get_deleterERKSt9type_info, @function
_ZNSt23_Sp_counted_ptr_inplaceIN8opendnp310CommandSetESaIS1_ELN9__gnu_cxx12_Lock_policyE2EE14_M_get_deleterERKSt9type_info:
.LFB12215:
	.cfi_startproc
	endbr64
	pushq	%r12
	.cfi_def_cfa_offset 16
	.cfi_offset 12, -16
	pushq	%rbx
	.cfi_def_cfa_offset 24
	.cfi_offset 3, -24
	movq	%rdi, %rbx
	subq	$8, %rsp
	.cfi_def_cfa_offset 32
	cmpq	_ZZNSt19_Sp_make_shared_tag5_S_tiEvE5__tag@GOTPCREL(%rip), %rsi
	je	.L83
	movq	8(%rsi), %rdi
	movq	_ZTSSt19_Sp_make_shared_tag@GOTPCREL(%rip), %rsi
	cmpq	%rsi, %rdi
	je	.L83
	xorl	%r12d, %r12d
	cmpb	$42, (%rdi)
	je	.L82
	call	strcmp@PLT
	testl	%eax, %eax
	jne	.L82
.L83:
	leaq	16(%rbx), %r12
.L82:
	addq	$8, %rsp
	.cfi_def_cfa_offset 24
	movq	%r12, %rax
	popq	%rbx
	.cfi_def_cfa_offset 16
	popq	%r12
	.cfi_def_cfa_offset 8
	ret
	.cfi_endproc
.LFE12215:
	.size	_ZNSt23_Sp_counted_ptr_inplaceIN8opendnp310CommandSetESaIS1_ELN9__gnu_cxx12_Lock_policyE2EE14_M_get_deleterERKSt9type_info, .-_ZNSt23_Sp_counted_ptr_inplaceIN8opendnp310CommandSetESaIS1_ELN9__gnu_cxx12_Lock_policyE2EE14_M_get_deleterERKSt9type_info
	.section	.text._ZN7openpal5ArrayIhjED2Ev,"axG",@progbits,_ZN7openpal5ArrayIhjED5Ev,comdat
	.align 2
	.p2align 4
	.weak	_ZN7openpal5ArrayIhjED2Ev
	.type	_ZN7openpal5ArrayIhjED2Ev, @function
_ZN7openpal5ArrayIhjED2Ev:
.LFB9251:
	.cfi_startproc
	endbr64
	movq	_ZTVN7openpal5ArrayIhjEE@GOTPCREL(%rip), %rax
	addq	$16, %rax
	movq	%rax, (%rdi)
	movq	16(%rdi), %rdi
	testq	%rdi, %rdi
	je	.L88
	jmp	_ZdaPv@PLT
	.p2align 4,,10
	.p2align 3
.L88:
	ret
	.cfi_endproc
.LFE9251:
	.size	_ZN7openpal5ArrayIhjED2Ev, .-_ZN7openpal5ArrayIhjED2Ev
	.weak	_ZN7openpal5ArrayIhjED1Ev
	.set	_ZN7openpal5ArrayIhjED1Ev,_ZN7openpal5ArrayIhjED2Ev
	.section	.text._ZN7openpal5ArrayIhjED0Ev,"axG",@progbits,_ZN7openpal5ArrayIhjED5Ev,comdat
	.align 2
	.p2align 4
	.weak	_ZN7openpal5ArrayIhjED0Ev
	.type	_ZN7openpal5ArrayIhjED0Ev, @function
_ZN7openpal5ArrayIhjED0Ev:
.LFB9253:
	.cfi_startproc
	endbr64
	movq	_ZTVN7openpal5ArrayIhjEE@GOTPCREL(%rip), %rax
	pushq	%rbp
	.cfi_def_cfa_offset 16
	.cfi_offset 6, -16
	movq	%rdi, %rbp
	addq	$16, %rax
	movq	%rax, (%rdi)
	movq	16(%rdi), %rdi
	testq	%rdi, %rdi
	je	.L91
	call	_ZdaPv@PLT
.L91:
	movq	%rbp, %rdi
	movl	$24, %esi
	popq	%rbp
	.cfi_def_cfa_offset 8
	jmp	_ZdlPvm@PLT
	.cfi_endproc
.LFE9253:
	.size	_ZN7openpal5ArrayIhjED0Ev, .-_ZN7openpal5ArrayIhjED0Ev
	.section	.text._ZNSt13__future_base13_State_baseV29_M_do_setEPSt8functionIFSt10unique_ptrINS_12_Result_baseENS3_8_DeleterEEvEEPb,"axG",@progbits,_ZNSt13__future_base13_State_baseV29_M_do_setEPSt8functionIFSt10unique_ptrINS_12_Result_baseENS3_8_DeleterEEvEEPb,comdat
	.align 2
	.p2align 4
	.weak	_ZNSt13__future_base13_State_baseV29_M_do_setEPSt8functionIFSt10unique_ptrINS_12_Result_baseENS3_8_DeleterEEvEEPb
	.type	_ZNSt13__future_base13_State_baseV29_M_do_setEPSt8functionIFSt10unique_ptrINS_12_Result_baseENS3_8_DeleterEEvEEPb, @function
_ZNSt13__future_base13_State_baseV29_M_do_setEPSt8functionIFSt10unique_ptrINS_12_Result_baseENS3_8_DeleterEEvEEPb:
.LFB6792:
	.cfi_startproc
	.cfi_personality 0x9b,DW.ref.__gxx_personality_v0
	.cfi_lsda 0x1b,.LLSDA6792
	endbr64
	pushq	%rbp
	.cfi_def_cfa_offset 16
	.cfi_offset 6, -16
	pushq	%rbx
	.cfi_def_cfa_offset 24
	.cfi_offset 3, -24
	subq	$24, %rsp
	.cfi_def_cfa_offset 48
	movq	%fs:40, %rax
	movq	%rax, 8(%rsp)
	xorl	%eax, %eax
	cmpq	$0, 16(%rsi)
	je	.L104
	movq	%rdi, %rbx
	movq	%rdx, %rbp
	movq	%rsp, %rdi
.LEHB0:
	call	*24(%rsi)
.LEHE0:
	movq	8(%rbx), %rdi
	movq	(%rsp), %rax
	movb	$1, 0(%rbp)
	movq	%rdi, (%rsp)
	movq	%rax, 8(%rbx)
	testq	%rdi, %rdi
	je	.L96
	movq	(%rdi), %rax
	call	*(%rax)
.L96:
	movq	8(%rsp), %rax
	xorq	%fs:40, %rax
	jne	.L105
	addq	$24, %rsp
	.cfi_remember_state
	.cfi_def_cfa_offset 24
	popq	%rbx
	.cfi_def_cfa_offset 16
	popq	%rbp
	.cfi_def_cfa_offset 8
	ret
.L104:
	.cfi_restore_state
.LEHB1:
	call	_ZSt25__throw_bad_function_callv@PLT
.LEHE1:
.L105:
	call	__stack_chk_fail@PLT
	.cfi_endproc
.LFE6792:
	.section	.gcc_except_table._ZNSt13__future_base13_State_baseV29_M_do_setEPSt8functionIFSt10unique_ptrINS_12_Result_baseENS3_8_DeleterEEvEEPb,"aG",@progbits,_ZNSt13__future_base13_State_baseV29_M_do_setEPSt8functionIFSt10unique_ptrINS_12_Result_baseENS3_8_DeleterEEvEEPb,comdat
.LLSDA6792:
	.byte	0xff
	.byte	0xff
	.byte	0x1
	.uleb128 .LLSDACSE6792-.LLSDACSB6792
.LLSDACSB6792:
	.uleb128 .LEHB0-.LFB6792
	.uleb128 .LEHE0-.LEHB0
	.uleb128 0
	.uleb128 0
	.uleb128 .LEHB1-.LFB6792
	.uleb128 .LEHE1-.LEHB1
	.uleb128 0
	.uleb128 0
.LLSDACSE6792:
	.section	.text._ZNSt13__future_base13_State_baseV29_M_do_setEPSt8functionIFSt10unique_ptrINS_12_Result_baseENS3_8_DeleterEEvEEPb,"axG",@progbits,_ZNSt13__future_base13_State_baseV29_M_do_setEPSt8functionIFSt10unique_ptrINS_12_Result_baseENS3_8_DeleterEEvEEPb,comdat
	.size	_ZNSt13__future_base13_State_baseV29_M_do_setEPSt8functionIFSt10unique_ptrINS_12_Result_baseENS3_8_DeleterEEvEEPb, .-_ZNSt13__future_base13_State_baseV29_M_do_setEPSt8functionIFSt10unique_ptrINS_12_Result_baseENS3_8_DeleterEEvEEPb
	.text
	.p2align 4
	.type	_ZNSt17_Function_handlerIFN8opendnp315StackStatisticsEvEZN8asiodnp311MasterStack18GetStackStatisticsEvEUlvE_E9_M_invokeERKSt9_Any_data, @function
_ZNSt17_Function_handlerIFN8opendnp315StackStatisticsEvEZN8asiodnp311MasterStack18GetStackStatisticsEvEUlvE_E9_M_invokeERKSt9_Any_data:
.LFB9984:
	.cfi_startproc
	endbr64
	pushq	%r12
	.cfi_def_cfa_offset 16
	.cfi_offset 12, -16
	movq	%rdi, %r12
	pushq	%rbx
	.cfi_def_cfa_offset 24
	.cfi_offset 3, -24
	subq	$40, %rsp
	.cfi_def_cfa_offset 64
	movq	%fs:40, %rax
	movq	%rax, 24(%rsp)
	xorl	%eax, %eax
	movq	(%rsi), %rax
	movq	%rsp, %rdi
	movq	(%rax), %rbx
	movq	136(%rbx), %rsi
	call	_ZNK8opendnp314TransportLayer13GetStatisticsEv@PLT
	movq	152(%rbx), %rdi
	call	_ZNK8opendnp39LinkLayer13GetStatisticsEv@PLT
	movdqa	(%rsp), %xmm1
	movdqu	(%rax), %xmm0
	movq	16(%rsp), %rax
	movups	%xmm1, 16(%r12)
	movq	%rax, 32(%r12)
	movups	%xmm0, (%r12)
	movq	24(%rsp), %rax
	xorq	%fs:40, %rax
	jne	.L109
	addq	$40, %rsp
	.cfi_remember_state
	.cfi_def_cfa_offset 24
	movq	%r12, %rax
	popq	%rbx
	.cfi_def_cfa_offset 16
	popq	%r12
	.cfi_def_cfa_offset 8
	ret
.L109:
	.cfi_restore_state
	call	__stack_chk_fail@PLT
	.cfi_endproc
.LFE9984:
	.size	_ZNSt17_Function_handlerIFN8opendnp315StackStatisticsEvEZN8asiodnp311MasterStack18GetStackStatisticsEvEUlvE_E9_M_invokeERKSt9_Any_data, .-_ZNSt17_Function_handlerIFN8opendnp315StackStatisticsEvEZN8asiodnp311MasterStack18GetStackStatisticsEvEUlvE_E9_M_invokeERKSt9_Any_data
	.p2align 4
	.type	_ZNSt17_Function_handlerIFSt10shared_ptrIN8opendnp311IMasterTaskEEvEZN8asiodnp311MasterStack7AddScanEN7openpal12TimeDurationERKSt6vectorINS1_6HeaderESaISA_EERKNS1_10TaskConfigEEUlvE_E9_M_invokeERKSt9_Any_data, @function
_ZNSt17_Function_handlerIFSt10shared_ptrIN8opendnp311IMasterTaskEEvEZN8asiodnp311MasterStack7AddScanEN7openpal12TimeDurationERKSt6vectorINS1_6HeaderESaISA_EERKNS1_10TaskConfigEEUlvE_E9_M_invokeERKSt9_Any_data:
.LFB10027:
	.cfi_startproc
	endbr64
	pushq	%r12
	.cfi_def_cfa_offset 16
	.cfi_offset 12, -16
	movq	%rdi, %r12
	subq	$16, %rsp
	.cfi_def_cfa_offset 32
	movq	(%rsi), %rdx
	movq	%fs:40, %rax
	movq	%rax, 8(%rsp)
	xorl	%eax, %eax
	movq	48(%rdx), %r10
	movq	(%rdx), %rax
	leaq	16(%rdx), %rcx
	movq	56(%rdx), %r8
	movq	64(%rdx), %r9
	leaq	168(%rax), %rsi
	movq	%r10, %rdx
	call	_ZN8opendnp38MContext7AddScanEN7openpal12TimeDurationERKSt8functionIFbRNS_12HeaderWriterEEENS_10TaskConfigE@PLT
	movq	8(%rsp), %rax
	xorq	%fs:40, %rax
	jne	.L113
	addq	$16, %rsp
	.cfi_remember_state
	.cfi_def_cfa_offset 16
	movq	%r12, %rax
	popq	%r12
	.cfi_def_cfa_offset 8
	ret
.L113:
	.cfi_restore_state
	call	__stack_chk_fail@PLT
	.cfi_endproc
.LFE10027:
	.size	_ZNSt17_Function_handlerIFSt10shared_ptrIN8opendnp311IMasterTaskEEvEZN8asiodnp311MasterStack7AddScanEN7openpal12TimeDurationERKSt6vectorINS1_6HeaderESaISA_EERKNS1_10TaskConfigEEUlvE_E9_M_invokeERKSt9_Any_data, .-_ZNSt17_Function_handlerIFSt10shared_ptrIN8opendnp311IMasterTaskEEvEZN8asiodnp311MasterStack7AddScanEN7openpal12TimeDurationERKSt6vectorINS1_6HeaderESaISA_EERKNS1_10TaskConfigEEUlvE_E9_M_invokeERKSt9_Any_data
	.p2align 4
	.type	_ZNSt17_Function_handlerIFSt10shared_ptrIN8opendnp311IMasterTaskEEvEZN8asiodnp311MasterStack17AddAllObjectsScanENS1_16GroupVariationIDEN7openpal12TimeDurationERKNS1_10TaskConfigEEUlvE_E9_M_invokeERKSt9_Any_data, @function
_ZNSt17_Function_handlerIFSt10shared_ptrIN8opendnp311IMasterTaskEEvEZN8asiodnp311MasterStack17AddAllObjectsScanENS1_16GroupVariationIDEN7openpal12TimeDurationERKNS1_10TaskConfigEEUlvE_E9_M_invokeERKSt9_Any_data:
.LFB10056:
	.cfi_startproc
	endbr64
	pushq	%r12
	.cfi_def_cfa_offset 16
	.cfi_offset 12, -16
	movq	%rdi, %r12
	subq	$16, %rsp
	.cfi_def_cfa_offset 32
	movq	(%rsi), %rdx
	movq	%fs:40, %rax
	movq	%rax, 8(%rsp)
	xorl	%eax, %eax
	movzwl	16(%rdx), %r10d
	movq	(%rdx), %rax
	movq	24(%rdx), %rcx
	movq	32(%rdx), %r8
	movq	40(%rdx), %r9
	leaq	168(%rax), %rsi
	movl	%r10d, %edx
	call	_ZN8opendnp38MContext17AddAllObjectsScanENS_16GroupVariationIDEN7openpal12TimeDurationENS_10TaskConfigE@PLT
	movq	8(%rsp), %rax
	xorq	%fs:40, %rax
	jne	.L117
	addq	$16, %rsp
	.cfi_remember_state
	.cfi_def_cfa_offset 16
	movq	%r12, %rax
	popq	%r12
	.cfi_def_cfa_offset 8
	ret
.L117:
	.cfi_restore_state
	call	__stack_chk_fail@PLT
	.cfi_endproc
.LFE10056:
	.size	_ZNSt17_Function_handlerIFSt10shared_ptrIN8opendnp311IMasterTaskEEvEZN8asiodnp311MasterStack17AddAllObjectsScanENS1_16GroupVariationIDEN7openpal12TimeDurationERKNS1_10TaskConfigEEUlvE_E9_M_invokeERKSt9_Any_data, .-_ZNSt17_Function_handlerIFSt10shared_ptrIN8opendnp311IMasterTaskEEvEZN8asiodnp311MasterStack17AddAllObjectsScanENS1_16GroupVariationIDEN7openpal12TimeDurationERKNS1_10TaskConfigEEUlvE_E9_M_invokeERKSt9_Any_data
	.p2align 4
	.type	_ZNSt17_Function_handlerIFSt10shared_ptrIN8opendnp311IMasterTaskEEvEZN8asiodnp311MasterStack12AddClassScanERKNS1_10ClassFieldEN7openpal12TimeDurationERKNS1_10TaskConfigEEUlvE_E9_M_invokeERKSt9_Any_data, @function
_ZNSt17_Function_handlerIFSt10shared_ptrIN8opendnp311IMasterTaskEEvEZN8asiodnp311MasterStack12AddClassScanERKNS1_10ClassFieldEN7openpal12TimeDurationERKNS1_10TaskConfigEEUlvE_E9_M_invokeERKSt9_Any_data:
.LFB10060:
	.cfi_startproc
	endbr64
	pushq	%r12
	.cfi_def_cfa_offset 16
	.cfi_offset 12, -16
	movq	%rdi, %r12
	subq	$16, %rsp
	.cfi_def_cfa_offset 32
	movq	(%rsi), %rdx
	movq	%fs:40, %rax
	movq	%rax, 8(%rsp)
	xorl	%eax, %eax
	movq	(%rdx), %rax
	movq	24(%rdx), %rcx
	leaq	16(%rdx), %r10
	movq	32(%rdx), %r8
	movq	40(%rdx), %r9
	movq	%r10, %rdx
	leaq	168(%rax), %rsi
	call	_ZN8opendnp38MContext12AddClassScanERKNS_10ClassFieldEN7openpal12TimeDurationENS_10TaskConfigE@PLT
	movq	8(%rsp), %rax
	xorq	%fs:40, %rax
	jne	.L121
	addq	$16, %rsp
	.cfi_remember_state
	.cfi_def_cfa_offset 16
	movq	%r12, %rax
	popq	%r12
	.cfi_def_cfa_offset 8
	ret
.L121:
	.cfi_restore_state
	call	__stack_chk_fail@PLT
	.cfi_endproc
.LFE10060:
	.size	_ZNSt17_Function_handlerIFSt10shared_ptrIN8opendnp311IMasterTaskEEvEZN8asiodnp311MasterStack12AddClassScanERKNS1_10ClassFieldEN7openpal12TimeDurationERKNS1_10TaskConfigEEUlvE_E9_M_invokeERKSt9_Any_data, .-_ZNSt17_Function_handlerIFSt10shared_ptrIN8opendnp311IMasterTaskEEvEZN8asiodnp311MasterStack12AddClassScanERKNS1_10ClassFieldEN7openpal12TimeDurationERKNS1_10TaskConfigEEUlvE_E9_M_invokeERKSt9_Any_data
	.p2align 4
	.type	_ZNSt17_Function_handlerIFSt10shared_ptrIN8opendnp311IMasterTaskEEvEZN8asiodnp311MasterStack12AddRangeScanENS1_16GroupVariationIDEttN7openpal12TimeDurationERKNS1_10TaskConfigEEUlvE_E9_M_invokeERKSt9_Any_data, @function
_ZNSt17_Function_handlerIFSt10shared_ptrIN8opendnp311IMasterTaskEEvEZN8asiodnp311MasterStack12AddRangeScanENS1_16GroupVariationIDEttN7openpal12TimeDurationERKNS1_10TaskConfigEEUlvE_E9_M_invokeERKSt9_Any_data:
.LFB10064:
	.cfi_startproc
	endbr64
	pushq	%r12
	.cfi_def_cfa_offset 16
	.cfi_offset 12, -16
	movq	%rdi, %r12
	subq	$16, %rsp
	.cfi_def_cfa_offset 32
	movq	(%rsi), %rdx
	movq	%fs:40, %rax
	movq	%rax, 8(%rsp)
	xorl	%eax, %eax
	movq	24(%rdx), %r9
	movq	(%rdx), %rax
	movzwl	20(%rdx), %r8d
	movzwl	18(%rdx), %ecx
	movzwl	16(%rdx), %r10d
	pushq	40(%rdx)
	.cfi_def_cfa_offset 40
	leaq	168(%rax), %rsi
	pushq	32(%rdx)
	.cfi_def_cfa_offset 48
	movl	%r10d, %edx
	call	_ZN8opendnp38MContext12AddRangeScanENS_16GroupVariationIDEttN7openpal12TimeDurationENS_10TaskConfigE@PLT
	popq	%rax
	.cfi_def_cfa_offset 40
	popq	%rdx
	.cfi_def_cfa_offset 32
	movq	8(%rsp), %rax
	xorq	%fs:40, %rax
	jne	.L125
	addq	$16, %rsp
	.cfi_remember_state
	.cfi_def_cfa_offset 16
	movq	%r12, %rax
	popq	%r12
	.cfi_def_cfa_offset 8
	ret
.L125:
	.cfi_restore_state
	call	__stack_chk_fail@PLT
	.cfi_endproc
.LFE10064:
	.size	_ZNSt17_Function_handlerIFSt10shared_ptrIN8opendnp311IMasterTaskEEvEZN8asiodnp311MasterStack12AddRangeScanENS1_16GroupVariationIDEttN7openpal12TimeDurationERKNS1_10TaskConfigEEUlvE_E9_M_invokeERKSt9_Any_data, .-_ZNSt17_Function_handlerIFSt10shared_ptrIN8opendnp311IMasterTaskEEvEZN8asiodnp311MasterStack12AddRangeScanENS1_16GroupVariationIDEttN7openpal12TimeDurationERKNS1_10TaskConfigEEUlvE_E9_M_invokeERKSt9_Any_data
	.section	.text._ZN4asio6detail15system_categoryD2Ev,"axG",@progbits,_ZN4asio6detail15system_categoryD5Ev,comdat
	.align 2
	.p2align 4
	.weak	_ZN4asio6detail15system_categoryD2Ev
	.type	_ZN4asio6detail15system_categoryD2Ev, @function
_ZN4asio6detail15system_categoryD2Ev:
.LFB12110:
	.cfi_startproc
	endbr64
	movq	_ZTVN4asio6detail15system_categoryE@GOTPCREL(%rip), %rax
	addq	$16, %rax
	movq	%rax, (%rdi)
	jmp	_ZNSt3_V214error_categoryD2Ev@PLT
	.cfi_endproc
.LFE12110:
	.size	_ZN4asio6detail15system_categoryD2Ev, .-_ZN4asio6detail15system_categoryD2Ev
	.weak	_ZN4asio6detail15system_categoryD1Ev
	.set	_ZN4asio6detail15system_categoryD1Ev,_ZN4asio6detail15system_categoryD2Ev
	.section	.text._ZN4asio6detail15system_categoryD0Ev,"axG",@progbits,_ZN4asio6detail15system_categoryD5Ev,comdat
	.align 2
	.p2align 4
	.weak	_ZN4asio6detail15system_categoryD0Ev
	.type	_ZN4asio6detail15system_categoryD0Ev, @function
_ZN4asio6detail15system_categoryD0Ev:
.LFB12112:
	.cfi_startproc
	endbr64
	movq	_ZTVN4asio6detail15system_categoryE@GOTPCREL(%rip), %rax
	pushq	%rbp
	.cfi_def_cfa_offset 16
	.cfi_offset 6, -16
	movq	%rdi, %rbp
	addq	$16, %rax
	movq	%rax, (%rdi)
	call	_ZNSt3_V214error_categoryD2Ev@PLT
	movq	%rbp, %rdi
	movl	$8, %esi
	popq	%rbp
	.cfi_def_cfa_offset 8
	jmp	_ZdlPvm@PLT
	.cfi_endproc
.LFE12112:
	.size	_ZN4asio6detail15system_categoryD0Ev, .-_ZN4asio6detail15system_categoryD0Ev
	.section	.text._ZN4asio5error6detail14netdb_categoryD2Ev,"axG",@progbits,_ZN4asio5error6detail14netdb_categoryD5Ev,comdat
	.align 2
	.p2align 4
	.weak	_ZN4asio5error6detail14netdb_categoryD2Ev
	.type	_ZN4asio5error6detail14netdb_categoryD2Ev, @function
_ZN4asio5error6detail14netdb_categoryD2Ev:
.LFB12098:
	.cfi_startproc
	endbr64
	movq	_ZTVN4asio5error6detail14netdb_categoryE@GOTPCREL(%rip), %rax
	addq	$16, %rax
	movq	%rax, (%rdi)
	jmp	_ZNSt3_V214error_categoryD2Ev@PLT
	.cfi_endproc
.LFE12098:
	.size	_ZN4asio5error6detail14netdb_categoryD2Ev, .-_ZN4asio5error6detail14netdb_categoryD2Ev
	.weak	_ZN4asio5error6detail14netdb_categoryD1Ev
	.set	_ZN4asio5error6detail14netdb_categoryD1Ev,_ZN4asio5error6detail14netdb_categoryD2Ev
	.section	.text._ZN4asio5error6detail14netdb_categoryD0Ev,"axG",@progbits,_ZN4asio5error6detail14netdb_categoryD5Ev,comdat
	.align 2
	.p2align 4
	.weak	_ZN4asio5error6detail14netdb_categoryD0Ev
	.type	_ZN4asio5error6detail14netdb_categoryD0Ev, @function
_ZN4asio5error6detail14netdb_categoryD0Ev:
.LFB12100:
	.cfi_startproc
	endbr64
	movq	_ZTVN4asio5error6detail14netdb_categoryE@GOTPCREL(%rip), %rax
	pushq	%rbp
	.cfi_def_cfa_offset 16
	.cfi_offset 6, -16
	movq	%rdi, %rbp
	addq	$16, %rax
	movq	%rax, (%rdi)
	call	_ZNSt3_V214error_categoryD2Ev@PLT
	movq	%rbp, %rdi
	movl	$8, %esi
	popq	%rbp
	.cfi_def_cfa_offset 8
	jmp	_ZdlPvm@PLT
	.cfi_endproc
.LFE12100:
	.size	_ZN4asio5error6detail14netdb_categoryD0Ev, .-_ZN4asio5error6detail14netdb_categoryD0Ev
	.section	.text._ZN4asio5error6detail17addrinfo_categoryD2Ev,"axG",@progbits,_ZN4asio5error6detail17addrinfo_categoryD5Ev,comdat
	.align 2
	.p2align 4
	.weak	_ZN4asio5error6detail17addrinfo_categoryD2Ev
	.type	_ZN4asio5error6detail17addrinfo_categoryD2Ev, @function
_ZN4asio5error6detail17addrinfo_categoryD2Ev:
.LFB12094:
	.cfi_startproc
	endbr64
	movq	_ZTVN4asio5error6detail17addrinfo_categoryE@GOTPCREL(%rip), %rax
	addq	$16, %rax
	movq	%rax, (%rdi)
	jmp	_ZNSt3_V214error_categoryD2Ev@PLT
	.cfi_endproc
.LFE12094:
	.size	_ZN4asio5error6detail17addrinfo_categoryD2Ev, .-_ZN4asio5error6detail17addrinfo_categoryD2Ev
	.weak	_ZN4asio5error6detail17addrinfo_categoryD1Ev
	.set	_ZN4asio5error6detail17addrinfo_categoryD1Ev,_ZN4asio5error6detail17addrinfo_categoryD2Ev
	.section	.text._ZN4asio5error6detail17addrinfo_categoryD0Ev,"axG",@progbits,_ZN4asio5error6detail17addrinfo_categoryD5Ev,comdat
	.align 2
	.p2align 4
	.weak	_ZN4asio5error6detail17addrinfo_categoryD0Ev
	.type	_ZN4asio5error6detail17addrinfo_categoryD0Ev, @function
_ZN4asio5error6detail17addrinfo_categoryD0Ev:
.LFB12096:
	.cfi_startproc
	endbr64
	movq	_ZTVN4asio5error6detail17addrinfo_categoryE@GOTPCREL(%rip), %rax
	pushq	%rbp
	.cfi_def_cfa_offset 16
	.cfi_offset 6, -16
	movq	%rdi, %rbp
	addq	$16, %rax
	movq	%rax, (%rdi)
	call	_ZNSt3_V214error_categoryD2Ev@PLT
	movq	%rbp, %rdi
	movl	$8, %esi
	popq	%rbp
	.cfi_def_cfa_offset 8
	jmp	_ZdlPvm@PLT
	.cfi_endproc
.LFE12096:
	.size	_ZN4asio5error6detail17addrinfo_categoryD0Ev, .-_ZN4asio5error6detail17addrinfo_categoryD0Ev
	.section	.text._ZN4asio5error6detail13misc_categoryD2Ev,"axG",@progbits,_ZN4asio5error6detail13misc_categoryD5Ev,comdat
	.align 2
	.p2align 4
	.weak	_ZN4asio5error6detail13misc_categoryD2Ev
	.type	_ZN4asio5error6detail13misc_categoryD2Ev, @function
_ZN4asio5error6detail13misc_categoryD2Ev:
.LFB12090:
	.cfi_startproc
	endbr64
	movq	_ZTVN4asio5error6detail13misc_categoryE@GOTPCREL(%rip), %rax
	addq	$16, %rax
	movq	%rax, (%rdi)
	jmp	_ZNSt3_V214error_categoryD2Ev@PLT
	.cfi_endproc
.LFE12090:
	.size	_ZN4asio5error6detail13misc_categoryD2Ev, .-_ZN4asio5error6detail13misc_categoryD2Ev
	.weak	_ZN4asio5error6detail13misc_categoryD1Ev
	.set	_ZN4asio5error6detail13misc_categoryD1Ev,_ZN4asio5error6detail13misc_categoryD2Ev
	.section	.text._ZN4asio5error6detail13misc_categoryD0Ev,"axG",@progbits,_ZN4asio5error6detail13misc_categoryD5Ev,comdat
	.align 2
	.p2align 4
	.weak	_ZN4asio5error6detail13misc_categoryD0Ev
	.type	_ZN4asio5error6detail13misc_categoryD0Ev, @function
_ZN4asio5error6detail13misc_categoryD0Ev:
.LFB12092:
	.cfi_startproc
	endbr64
	movq	_ZTVN4asio5error6detail13misc_categoryE@GOTPCREL(%rip), %rax
	pushq	%rbp
	.cfi_def_cfa_offset 16
	.cfi_offset 6, -16
	movq	%rdi, %rbp
	addq	$16, %rax
	movq	%rax, (%rdi)
	call	_ZNSt3_V214error_categoryD2Ev@PLT
	movq	%rbp, %rdi
	movl	$8, %esi
	popq	%rbp
	.cfi_def_cfa_offset 8
	jmp	_ZdlPvm@PLT
	.cfi_endproc
.LFE12092:
	.size	_ZN4asio5error6detail13misc_categoryD0Ev, .-_ZN4asio5error6detail13misc_categoryD0Ev
	.section	.rodata.str1.1,"aMS",@progbits,1
.LC4:
	.string	"std::future_error: "
	.section	.text.unlikely,"ax",@progbits
	.align 2
.LCOLDB5:
	.text
.LHOTB5:
	.align 2
	.p2align 4
	.type	_ZNSt13__future_base13_State_baseV216_M_break_promiseESt10unique_ptrINS_12_Result_baseENS2_8_DeleterEE.part.0, @function
_ZNSt13__future_base13_State_baseV216_M_break_promiseESt10unique_ptrINS_12_Result_baseENS2_8_DeleterEE.part.0:
.LFB12596:
	.cfi_startproc
	.cfi_personality 0x9b,DW.ref.__gxx_personality_v0
	.cfi_lsda 0x1b,.LLSDA12596
	pushq	%r14
	.cfi_def_cfa_offset 16
	.cfi_offset 14, -16
	pushq	%r13
	.cfi_def_cfa_offset 24
	.cfi_offset 13, -24
	pushq	%r12
	.cfi_def_cfa_offset 32
	.cfi_offset 12, -32
	movq	%rsi, %r12
	pushq	%rbp
	.cfi_def_cfa_offset 40
	.cfi_offset 6, -40
	pushq	%rbx
	.cfi_def_cfa_offset 48
	.cfi_offset 3, -48
	movq	%rdi, %rbx
	addq	$-128, %rsp
	.cfi_def_cfa_offset 176
	movq	%fs:40, %rax
	movq	%rax, 120(%rsp)
	xorl	%eax, %eax
	leaq	48(%rsp), %r13
	call	_ZSt15future_categoryv@PLT
	movl	$4, %edx
	movq	%r13, %rdi
	movq	%rax, %rbp
	movq	(%rax), %rax
	movq	%rbp, %rsi
.LEHB2:
	call	*32(%rax)
.LEHE2:
	movl	$19, %r8d
	xorl	%edx, %edx
	xorl	%esi, %esi
	leaq	.LC4(%rip), %rcx
	movq	%r13, %rdi
.LEHB3:
	call	_ZNSt7__cxx1112basic_stringIcSt11char_traitsIcESaIcEE10_M_replaceEmmPKcm@PLT
.LEHE3:
	leaq	96(%rsp), %r14
	leaq	16(%rax), %rdx
	movq	%r14, 80(%rsp)
	movq	(%rax), %rcx
	cmpq	%rdx, %rcx
	je	.L153
	movq	%rcx, 80(%rsp)
	movq	16(%rax), %rcx
	movq	%rcx, 96(%rsp)
.L140:
	movq	8(%rax), %rcx
	movb	$0, 16(%rax)
	leaq	16(%rsp), %r13
	leaq	80(%rsp), %rsi
	movq	%r13, %rdi
	movq	%rcx, 88(%rsp)
	movq	%rdx, (%rax)
	movq	$0, 8(%rax)
.LEHB4:
	call	_ZNSt11logic_errorC2ERKNSt7__cxx1112basic_stringIcSt11char_traitsIcESaIcEEE@PLT
.LEHE4:
	movq	80(%rsp), %rdi
	cmpq	%r14, %rdi
	je	.L141
	call	_ZdlPv@PLT
.L141:
	movq	48(%rsp), %rdi
	leaq	64(%rsp), %rax
	cmpq	%rax, %rdi
	je	.L142
	call	_ZdlPv@PLT
.L142:
	movq	_ZTVSt12future_error@GOTPCREL(%rip), %rax
	movl	$32, %edi
	movq	%rbp, 40(%rsp)
	movl	$4, 32(%rsp)
	leaq	16(%rax), %r14
	movq	%r14, 16(%rsp)
	call	__cxa_allocate_exception@PLT
	movq	_ZNSt15__exception_ptr12__dest_thunkISt12future_errorEEvPv@GOTPCREL(%rip), %rdx
	movq	_ZTISt12future_error@GOTPCREL(%rip), %rsi
	movq	%rax, %rbp
	movq	%rax, %rdi
	call	__cxa_init_primary_exception@PLT
	movq	%r13, %rsi
	movq	%rbp, %rdi
	call	_ZNSt11logic_errorC2ERKS_@PLT
	movdqa	32(%rsp), %xmm0
	movq	%r14, 0(%rbp)
	movq	%rbp, %rsi
	leaq	8(%rsp), %r14
	movups	%xmm0, 16(%rbp)
	movq	%r14, %rdi
	movq	%rsp, %rbp
	call	_ZNSt15__exception_ptr13exception_ptrC1EPv@PLT
	movq	(%r12), %rax
	movq	%rbp, %rdi
	leaq	8(%rax), %rsi
	movq	8(%rsp), %rax
	movq	$0, 8(%rsp)
	movq	%rax, (%rsp)
	call	_ZNSt15__exception_ptr13exception_ptr4swapERS0_@PLT
	movq	%rbp, %rdi
	call	_ZNSt15__exception_ptr13exception_ptrD1Ev@PLT
	movq	%r14, %rdi
	call	_ZNSt15__exception_ptr13exception_ptrD1Ev@PLT
	movq	%r13, %rdi
	call	_ZNSt12future_errorD1Ev@PLT
	movq	8(%rbx), %rax
	movq	(%r12), %rdx
	leaq	16(%rbx), %rdi
	movq	%rax, (%r12)
	movl	$1, %eax
	movq	%rdx, 8(%rbx)
	xchgl	(%rdi), %eax
	testl	%eax, %eax
	js	.L154
.L138:
	movq	120(%rsp), %rax
	xorq	%fs:40, %rax
	jne	.L155
	subq	$-128, %rsp
	.cfi_remember_state
	.cfi_def_cfa_offset 48
	popq	%rbx
	.cfi_def_cfa_offset 40
	popq	%rbp
	.cfi_def_cfa_offset 32
	popq	%r12
	.cfi_def_cfa_offset 24
	popq	%r13
	.cfi_def_cfa_offset 16
	popq	%r14
	.cfi_def_cfa_offset 8
	ret
	.p2align 4,,10
	.p2align 3
.L153:
	.cfi_restore_state
	movdqu	16(%rax), %xmm1
	movaps	%xmm1, 96(%rsp)
	jmp	.L140
	.p2align 4,,10
	.p2align 3
.L154:
.LEHB5:
	call	_ZNSt28__atomic_futex_unsigned_base19_M_futex_notify_allEPj@PLT
.LEHE5:
	jmp	.L138
.L155:
	call	__stack_chk_fail@PLT
.L151:
	endbr64
	movq	%rax, %rbp
	jmp	.L145
.L150:
	endbr64
	movq	%rax, %rbp
	jmp	.L147
	.section	.gcc_except_table,"a",@progbits
.LLSDA12596:
	.byte	0xff
	.byte	0xff
	.byte	0x1
	.uleb128 .LLSDACSE12596-.LLSDACSB12596
.LLSDACSB12596:
	.uleb128 .LEHB2-.LFB12596
	.uleb128 .LEHE2-.LEHB2
	.uleb128 0
	.uleb128 0
	.uleb128 .LEHB3-.LFB12596
	.uleb128 .LEHE3-.LEHB3
	.uleb128 .L150-.LFB12596
	.uleb128 0
	.uleb128 .LEHB4-.LFB12596
	.uleb128 .LEHE4-.LEHB4
	.uleb128 .L151-.LFB12596
	.uleb128 0
	.uleb128 .LEHB5-.LFB12596
	.uleb128 .LEHE5-.LEHB5
	.uleb128 0
	.uleb128 0
.LLSDACSE12596:
	.text
	.cfi_endproc
	.section	.text.unlikely
	.cfi_startproc
	.cfi_personality 0x9b,DW.ref.__gxx_personality_v0
	.cfi_lsda 0x1b,.LLSDAC12596
	.type	_ZNSt13__future_base13_State_baseV216_M_break_promiseESt10unique_ptrINS_12_Result_baseENS2_8_DeleterEE.part.0.cold, @function
_ZNSt13__future_base13_State_baseV216_M_break_promiseESt10unique_ptrINS_12_Result_baseENS2_8_DeleterEE.part.0.cold:
.LFSB12596:
.L145:
	.cfi_def_cfa_offset 176
	.cfi_offset 3, -48
	.cfi_offset 6, -40
	.cfi_offset 12, -32
	.cfi_offset 13, -24
	.cfi_offset 14, -16
	movq	80(%rsp), %rdi
	cmpq	%r14, %rdi
	je	.L147
	call	_ZdlPv@PLT
.L147:
	movq	48(%rsp), %rdi
	leaq	64(%rsp), %rax
	cmpq	%rax, %rdi
	je	.L148
	call	_ZdlPv@PLT
.L148:
	movq	%rbp, %rdi
.LEHB6:
	call	_Unwind_Resume@PLT
.LEHE6:
	.cfi_endproc
.LFE12596:
	.section	.gcc_except_table
.LLSDAC12596:
	.byte	0xff
	.byte	0xff
	.byte	0x1
	.uleb128 .LLSDACSEC12596-.LLSDACSBC12596
.LLSDACSBC12596:
	.uleb128 .LEHB6-.LCOLDB5
	.uleb128 .LEHE6-.LEHB6
	.uleb128 0
	.uleb128 0
.LLSDACSEC12596:
	.section	.text.unlikely
	.text
	.size	_ZNSt13__future_base13_State_baseV216_M_break_promiseESt10unique_ptrINS_12_Result_baseENS2_8_DeleterEE.part.0, .-_ZNSt13__future_base13_State_baseV216_M_break_promiseESt10unique_ptrINS_12_Result_baseENS2_8_DeleterEE.part.0
	.section	.text.unlikely
	.size	_ZNSt13__future_base13_State_baseV216_M_break_promiseESt10unique_ptrINS_12_Result_baseENS2_8_DeleterEE.part.0.cold, .-_ZNSt13__future_base13_State_baseV216_M_break_promiseESt10unique_ptrINS_12_Result_baseENS2_8_DeleterEE.part.0.cold
.LCOLDE5:
	.text
.LHOTE5:
	.section	.text._ZNSt13__future_base7_ResultIN8opendnp315StackStatisticsEE10_M_destroyEv,"axG",@progbits,_ZNSt13__future_base7_ResultIN8opendnp315StackStatisticsEE10_M_destroyEv,comdat
	.align 2
	.p2align 4
	.weak	_ZNSt13__future_base7_ResultIN8opendnp315StackStatisticsEE10_M_destroyEv
	.type	_ZNSt13__future_base7_ResultIN8opendnp315StackStatisticsEE10_M_destroyEv, @function
_ZNSt13__future_base7_ResultIN8opendnp315StackStatisticsEE10_M_destroyEv:
.LFB12270:
	.cfi_startproc
	endbr64
	pushq	%rbp
	.cfi_def_cfa_offset 16
	.cfi_offset 6, -16
	movq	(%rdi), %rax
	movq	%rdi, %rbp
	movq	16(%rax), %rax
	cmpq	_ZNSt13__future_base7_ResultIN8opendnp315StackStatisticsEED0Ev@GOTPCREL(%rip), %rax
	jne	.L157
	movq	_ZTVNSt13__future_base7_ResultIN8opendnp315StackStatisticsEEE@GOTPCREL(%rip), %rax
	addq	$16, %rax
	movq	%rax, (%rdi)
	call	_ZNSt13__future_base12_Result_baseD2Ev@PLT
	movq	%rbp, %rdi
	movl	$64, %esi
	popq	%rbp
	.cfi_remember_state
	.cfi_def_cfa_offset 8
	jmp	_ZdlPvm@PLT
	.p2align 4,,10
	.p2align 3
.L157:
	.cfi_restore_state
	popq	%rbp
	.cfi_def_cfa_offset 8
	jmp	*%rax
	.cfi_endproc
.LFE12270:
	.size	_ZNSt13__future_base7_ResultIN8opendnp315StackStatisticsEE10_M_destroyEv, .-_ZNSt13__future_base7_ResultIN8opendnp315StackStatisticsEE10_M_destroyEv
	.section	.text._ZNSt13__future_base7_ResultIbE10_M_destroyEv,"axG",@progbits,_ZNSt13__future_base7_ResultIbE10_M_destroyEv,comdat
	.align 2
	.p2align 4
	.weak	_ZNSt13__future_base7_ResultIbE10_M_destroyEv
	.type	_ZNSt13__future_base7_ResultIbE10_M_destroyEv, @function
_ZNSt13__future_base7_ResultIbE10_M_destroyEv:
.LFB12275:
	.cfi_startproc
	endbr64
	pushq	%rbp
	.cfi_def_cfa_offset 16
	.cfi_offset 6, -16
	movq	(%rdi), %rax
	movq	%rdi, %rbp
	movq	16(%rax), %rax
	cmpq	_ZNSt13__future_base7_ResultIbED0Ev@GOTPCREL(%rip), %rax
	jne	.L160
	movq	_ZTVNSt13__future_base7_ResultIbEE@GOTPCREL(%rip), %rax
	addq	$16, %rax
	movq	%rax, (%rdi)
	call	_ZNSt13__future_base12_Result_baseD2Ev@PLT
	movq	%rbp, %rdi
	movl	$24, %esi
	popq	%rbp
	.cfi_remember_state
	.cfi_def_cfa_offset 8
	jmp	_ZdlPvm@PLT
	.p2align 4,,10
	.p2align 3
.L160:
	.cfi_restore_state
	popq	%rbp
	.cfi_def_cfa_offset 8
	jmp	*%rax
	.cfi_endproc
.LFE12275:
	.size	_ZNSt13__future_base7_ResultIbE10_M_destroyEv, .-_ZNSt13__future_base7_ResultIbE10_M_destroyEv
	.section	.text._ZN4asio6detail18completion_handlerIZN7asiopal8Executor10ReturnFromIN8opendnp315StackStatisticsEEET_RKSt8functionIFS7_vEEEUlvE_E11do_completeEPNS0_15task_io_serviceEPNS0_25task_io_service_operationERKSt10error_codem,"axG",@progbits,_ZN4asio6detail18completion_handlerIZN7asiopal8Executor10ReturnFromIN8opendnp315StackStatisticsEEET_RKSt8functionIFS7_vEEEUlvE_E11do_completeEPNS0_15task_io_serviceEPNS0_25task_io_service_operationERKSt10error_codem,comdat
	.p2align 4
	.weak	_ZN4asio6detail18completion_handlerIZN7asiopal8Executor10ReturnFromIN8opendnp315StackStatisticsEEET_RKSt8functionIFS7_vEEEUlvE_E11do_completeEPNS0_15task_io_serviceEPNS0_25task_io_service_operationERKSt10error_codem
	.type	_ZN4asio6detail18completion_handlerIZN7asiopal8Executor10ReturnFromIN8opendnp315StackStatisticsEEET_RKSt8functionIFS7_vEEEUlvE_E11do_completeEPNS0_15task_io_serviceEPNS0_25task_io_service_operationERKSt10error_codem, @function
_ZN4asio6detail18completion_handlerIZN7asiopal8Executor10ReturnFromIN8opendnp315StackStatisticsEEET_RKSt8functionIFS7_vEEEUlvE_E11do_completeEPNS0_15task_io_serviceEPNS0_25task_io_service_operationERKSt10error_codem:
.LFB11378:
	.cfi_startproc
	.cfi_personality 0x9b,DW.ref.__gxx_personality_v0
	.cfi_lsda 0x1b,.LLSDA11378
	endbr64
	pushq	%r13
	.cfi_def_cfa_offset 16
	.cfi_offset 13, -16
	pushq	%r12
	.cfi_def_cfa_offset 24
	.cfi_offset 12, -24
	pushq	%rbp
	.cfi_def_cfa_offset 32
	.cfi_offset 6, -32
	movq	%rsi, %rbp
	pushq	%rbx
	.cfi_def_cfa_offset 40
	.cfi_offset 3, -40
	movq	%rdi, %rbx
	subq	$184, %rsp
	.cfi_def_cfa_offset 224
	movq	24(%rsi), %r13
	movq	32(%rsi), %r12
	movq	%fs:40, %rax
	movq	%rax, 168(%rsp)
	xorl	%eax, %eax
	data16	leaq	_ZN4asio6detail15keyword_tss_ptrINS0_10call_stackINS0_15task_io_serviceENS0_27task_io_service_thread_infoEE7contextEE6value_E@tlsgd(%rip), %rdi
	.value	0x6666
	rex64
	call	__tls_get_addr@PLT
	movq	(%rax), %rax
	testq	%rax, %rax
	je	.L163
	movq	8(%rax), %rax
	testq	%rax, %rax
	je	.L163
	cmpq	$0, (%rax)
	je	.L195
.L163:
	movq	%rbp, %rdi
	call	_ZdlPv@PLT
.L164:
	testq	%rbx, %rbx
	je	.L162
	cmpq	$0, 16(%r12)
	je	.L196
	leaq	80(%rsp), %rbp
	movq	%r12, %rsi
	movq	%rbp, %rdi
.LEHB7:
	call	*24(%r12)
.LEHE7:
	movq	0(%r13), %rbx
	testq	%rbx, %rbx
	je	.L197
	leaq	7(%rsp), %rax
	movq	%rbp, 136(%rsp)
	movq	_ZNSt14_Function_base13_Base_managerINSt13__future_base13_State_baseV27_SetterIN8opendnp315StackStatisticsEOS5_EEE10_M_managerERSt9_Any_dataRKS9_St18_Manager_operation@GOTPCREL(%rip), %xmm0
	leaq	128(%rsp), %rbp
	movq	%rax, 24(%rsp)
	movq	_ZNSt13__future_base13_State_baseV29_M_do_setEPSt8functionIFSt10unique_ptrINS_12_Result_baseENS3_8_DeleterEEvEEPb@GOTPCREL(%rip), %rax
	movhps	_ZNSt17_Function_handlerIFSt10unique_ptrINSt13__future_base12_Result_baseENS2_8_DeleterEEvENS1_13_State_baseV27_SetterIN8opendnp315StackStatisticsEOS9_EEE9_M_invokeERKSt9_Any_data@GOTPCREL(%rip), %xmm0
	movq	%r13, 128(%rsp)
	movq	%rax, 32(%rsp)
	leaq	32(%rsp), %rax
	movaps	%xmm0, 144(%rsp)
	movq	%rax, %xmm0
	leaq	8(%rsp), %rax
	movq	%rax, %xmm1
	leaq	16(%rsp), %rax
	movb	$0, 7(%rsp)
	punpcklqdq	%xmm1, %xmm0
	movq	%rbp, 16(%rsp)
	movaps	%xmm0, 48(%rsp)
	movq	%rax, %xmm0
	leaq	24(%rsp), %rax
	movq	%rax, %xmm2
	movq	%rbx, 8(%rsp)
	movq	$0, 40(%rsp)
	punpcklqdq	%xmm2, %xmm0
	movaps	%xmm0, 64(%rsp)
	data16	leaq	_ZSt15__once_callable@tlsgd(%rip), %rdi
	.value	0x6666
	rex64
	call	__tls_get_addr@PLT
	leaq	48(%rsp), %rdx
	movq	%rdx, (%rax)
	data16	leaq	_ZSt11__once_call@tlsgd(%rip), %rdi
	.value	0x6666
	rex64
	call	__tls_get_addr@PLT
	movq	_ZZSt9call_onceIMNSt13__future_base13_State_baseV2EFvPSt8functionIFSt10unique_ptrINS0_12_Result_baseENS4_8_DeleterEEvEEPbEJPS1_S9_SA_EEvRSt9once_flagOT_DpOT0_ENUlvE0_4_FUNEv@GOTPCREL(%rip), %rdx
	leaq	24(%rbx), %rdi
	cmpq	$0, _ZL28__gthrw___pthread_key_createPjPFvPvE@GOTPCREL(%rip)
	movq	%rdx, (%rax)
	je	.L179
	movq	__once_proxy@GOTPCREL(%rip), %rsi
.LEHB8:
	call	_ZL20__gthrw_pthread_oncePiPFvvE@PLT
	testl	%eax, %eax
	jne	.L168
	cmpb	$0, 7(%rsp)
	jne	.L198
	movl	$2, %edi
	call	_ZSt20__throw_future_errori@PLT
	.p2align 4,,10
	.p2align 3
.L198:
	leaq	16(%rbx), %rdi
	movl	$1, %eax
	xchgl	(%rdi), %eax
	testl	%eax, %eax
	jns	.L174
	call	_ZNSt28__atomic_futex_unsigned_base19_M_futex_notify_allEPj@PLT
.LEHE8:
.L174:
	movq	144(%rsp), %rax
	testq	%rax, %rax
	je	.L173
	movl	$3, %edx
	movq	%rbp, %rsi
	movq	%rbp, %rdi
	call	*%rax
.L173:
	sfence
.L162:
	movq	168(%rsp), %rax
	xorq	%fs:40, %rax
	jne	.L199
	addq	$184, %rsp
	.cfi_remember_state
	.cfi_def_cfa_offset 40
	popq	%rbx
	.cfi_def_cfa_offset 32
	popq	%rbp
	.cfi_def_cfa_offset 24
	popq	%r12
	.cfi_def_cfa_offset 16
	popq	%r13
	.cfi_def_cfa_offset 8
	ret
	.p2align 4,,10
	.p2align 3
.L195:
	.cfi_restore_state
	movzbl	40(%rbp), %edx
	movb	%dl, 0(%rbp)
	movq	%rbp, (%rax)
	jmp	.L164
.L179:
	movl	$-1, %eax
.L168:
	movl	%eax, %edi
.LEHB9:
	call	_ZSt20__throw_system_errori@PLT
.LEHE9:
.L197:
	movl	$3, %edi
.LEHB10:
	call	_ZSt20__throw_future_errori@PLT
.L196:
	call	_ZSt25__throw_bad_function_callv@PLT
.LEHE10:
.L199:
	call	__stack_chk_fail@PLT
.L180:
	endbr64
	movq	%rax, %rdi
	jmp	.L177
.L181:
	endbr64
	movq	%rax, %rbx
.L175:
	movq	144(%rsp), %rax
	testq	%rax, %rax
	je	.L176
	movl	$3, %edx
	movq	%rbp, %rsi
	movq	%rbp, %rdi
	call	*%rax
.L176:
	movq	%rbx, %rdi
.L177:
	sfence
.LEHB11:
	call	_Unwind_Resume@PLT
.LEHE11:
	.cfi_endproc
.LFE11378:
	.section	.gcc_except_table
.LLSDA11378:
	.byte	0xff
	.byte	0xff
	.byte	0x1
	.uleb128 .LLSDACSE11378-.LLSDACSB11378
.LLSDACSB11378:
	.uleb128 .LEHB7-.LFB11378
	.uleb128 .LEHE7-.LEHB7
	.uleb128 .L180-.LFB11378
	.uleb128 0
	.uleb128 .LEHB8-.LFB11378
	.uleb128 .LEHE8-.LEHB8
	.uleb128 .L181-.LFB11378
	.uleb128 0
	.uleb128 .LEHB9-.LFB11378
	.uleb128 .LEHE9-.LEHB9
	.uleb128 .L181-.LFB11378
	.uleb128 0
	.uleb128 .LEHB10-.LFB11378
	.uleb128 .LEHE10-.LEHB10
	.uleb128 .L180-.LFB11378
	.uleb128 0
	.uleb128 .LEHB11-.LFB11378
	.uleb128 .LEHE11-.LEHB11
	.uleb128 0
	.uleb128 0
.LLSDACSE11378:
	.section	.text._ZN4asio6detail18completion_handlerIZN7asiopal8Executor10ReturnFromIN8opendnp315StackStatisticsEEET_RKSt8functionIFS7_vEEEUlvE_E11do_completeEPNS0_15task_io_serviceEPNS0_25task_io_service_operationERKSt10error_codem,"axG",@progbits,_ZN4asio6detail18completion_handlerIZN7asiopal8Executor10ReturnFromIN8opendnp315StackStatisticsEEET_RKSt8functionIFS7_vEEEUlvE_E11do_completeEPNS0_15task_io_serviceEPNS0_25task_io_service_operationERKSt10error_codem,comdat
	.size	_ZN4asio6detail18completion_handlerIZN7asiopal8Executor10ReturnFromIN8opendnp315StackStatisticsEEET_RKSt8functionIFS7_vEEEUlvE_E11do_completeEPNS0_15task_io_serviceEPNS0_25task_io_service_operationERKSt10error_codem, .-_ZN4asio6detail18completion_handlerIZN7asiopal8Executor10ReturnFromIN8opendnp315StackStatisticsEEET_RKSt8functionIFS7_vEEEUlvE_E11do_completeEPNS0_15task_io_serviceEPNS0_25task_io_service_operationERKSt10error_codem
	.section	.text._ZN4asio6detail18completion_handlerIZN7asiopal8Executor10ReturnFromIbEET_RKSt8functionIFS5_vEEEUlvE_E11do_completeEPNS0_15task_io_serviceEPNS0_25task_io_service_operationERKSt10error_codem,"axG",@progbits,_ZN4asio6detail18completion_handlerIZN7asiopal8Executor10ReturnFromIbEET_RKSt8functionIFS5_vEEEUlvE_E11do_completeEPNS0_15task_io_serviceEPNS0_25task_io_service_operationERKSt10error_codem,comdat
	.p2align 4
	.weak	_ZN4asio6detail18completion_handlerIZN7asiopal8Executor10ReturnFromIbEET_RKSt8functionIFS5_vEEEUlvE_E11do_completeEPNS0_15task_io_serviceEPNS0_25task_io_service_operationERKSt10error_codem
	.type	_ZN4asio6detail18completion_handlerIZN7asiopal8Executor10ReturnFromIbEET_RKSt8functionIFS5_vEEEUlvE_E11do_completeEPNS0_15task_io_serviceEPNS0_25task_io_service_operationERKSt10error_codem, @function
_ZN4asio6detail18completion_handlerIZN7asiopal8Executor10ReturnFromIbEET_RKSt8functionIFS5_vEEEUlvE_E11do_completeEPNS0_15task_io_serviceEPNS0_25task_io_service_operationERKSt10error_codem:
.LFB11342:
	.cfi_startproc
	.cfi_personality 0x9b,DW.ref.__gxx_personality_v0
	.cfi_lsda 0x1b,.LLSDA11342
	endbr64
	pushq	%r13
	.cfi_def_cfa_offset 16
	.cfi_offset 13, -16
	pushq	%r12
	.cfi_def_cfa_offset 24
	.cfi_offset 12, -24
	pushq	%rbp
	.cfi_def_cfa_offset 32
	.cfi_offset 6, -32
	movq	%rsi, %rbp
	pushq	%rbx
	.cfi_def_cfa_offset 40
	.cfi_offset 3, -40
	movq	%rdi, %rbx
	subq	$136, %rsp
	.cfi_def_cfa_offset 176
	movq	24(%rsi), %r13
	movq	32(%rsi), %r12
	movq	%fs:40, %rax
	movq	%rax, 120(%rsp)
	xorl	%eax, %eax
	data16	leaq	_ZN4asio6detail15keyword_tss_ptrINS0_10call_stackINS0_15task_io_serviceENS0_27task_io_service_thread_infoEE7contextEE6value_E@tlsgd(%rip), %rdi
	.value	0x6666
	rex64
	call	__tls_get_addr@PLT
	movq	(%rax), %rax
	testq	%rax, %rax
	je	.L201
	movq	8(%rax), %rax
	testq	%rax, %rax
	je	.L201
	cmpq	$0, (%rax)
	je	.L233
.L201:
	movq	%rbp, %rdi
	call	_ZdlPv@PLT
.L202:
	testq	%rbx, %rbx
	je	.L200
	cmpq	$0, 16(%r12)
	je	.L234
	movq	%r12, %rdi
.LEHB12:
	call	*24(%r12)
.LEHE12:
	movq	0(%r13), %rbx
	movb	%al, 6(%rsp)
	testq	%rbx, %rbx
	je	.L235
	leaq	6(%rsp), %rax
	leaq	80(%rsp), %rbp
	movq	%r13, 80(%rsp)
	movq	_ZNSt14_Function_base13_Base_managerINSt13__future_base13_State_baseV27_SetterIbObEEE10_M_managerERSt9_Any_dataRKS7_St18_Manager_operation@GOTPCREL(%rip), %xmm0
	movq	%rax, 88(%rsp)
	leaq	7(%rsp), %rax
	movq	%rax, 24(%rsp)
	movq	_ZNSt13__future_base13_State_baseV29_M_do_setEPSt8functionIFSt10unique_ptrINS_12_Result_baseENS3_8_DeleterEEvEEPb@GOTPCREL(%rip), %rax
	movhps	_ZNSt17_Function_handlerIFSt10unique_ptrINSt13__future_base12_Result_baseENS2_8_DeleterEEvENS1_13_State_baseV27_SetterIbObEEE9_M_invokeERKSt9_Any_data@GOTPCREL(%rip), %xmm0
	movaps	%xmm0, 96(%rsp)
	movq	%rax, 32(%rsp)
	leaq	32(%rsp), %rax
	movq	%rax, %xmm0
	leaq	8(%rsp), %rax
	movb	$0, 7(%rsp)
	movq	%rax, %xmm1
	leaq	16(%rsp), %rax
	movq	%rbp, 16(%rsp)
	punpcklqdq	%xmm1, %xmm0
	movq	%rbx, 8(%rsp)
	movaps	%xmm0, 48(%rsp)
	movq	%rax, %xmm0
	leaq	24(%rsp), %rax
	movq	$0, 40(%rsp)
	movq	%rax, %xmm2
	punpcklqdq	%xmm2, %xmm0
	movaps	%xmm0, 64(%rsp)
	data16	leaq	_ZSt15__once_callable@tlsgd(%rip), %rdi
	.value	0x6666
	rex64
	call	__tls_get_addr@PLT
	leaq	48(%rsp), %rdx
	movq	%rdx, (%rax)
	data16	leaq	_ZSt11__once_call@tlsgd(%rip), %rdi
	.value	0x6666
	rex64
	call	__tls_get_addr@PLT
	movq	_ZZSt9call_onceIMNSt13__future_base13_State_baseV2EFvPSt8functionIFSt10unique_ptrINS0_12_Result_baseENS4_8_DeleterEEvEEPbEJPS1_S9_SA_EEvRSt9once_flagOT_DpOT0_ENUlvE0_4_FUNEv@GOTPCREL(%rip), %rdx
	leaq	24(%rbx), %rdi
	cmpq	$0, _ZL28__gthrw___pthread_key_createPjPFvPvE@GOTPCREL(%rip)
	movq	%rdx, (%rax)
	je	.L217
	movq	__once_proxy@GOTPCREL(%rip), %rsi
.LEHB13:
	call	_ZL20__gthrw_pthread_oncePiPFvvE@PLT
	testl	%eax, %eax
	jne	.L206
	cmpb	$0, 7(%rsp)
	jne	.L236
	movl	$2, %edi
	call	_ZSt20__throw_future_errori@PLT
	.p2align 4,,10
	.p2align 3
.L236:
	leaq	16(%rbx), %rdi
	movl	$1, %eax
	xchgl	(%rdi), %eax
	testl	%eax, %eax
	jns	.L212
	call	_ZNSt28__atomic_futex_unsigned_base19_M_futex_notify_allEPj@PLT
.LEHE13:
.L212:
	movq	96(%rsp), %rax
	testq	%rax, %rax
	je	.L211
	movl	$3, %edx
	movq	%rbp, %rsi
	movq	%rbp, %rdi
	call	*%rax
.L211:
	sfence
.L200:
	movq	120(%rsp), %rax
	xorq	%fs:40, %rax
	jne	.L237
	addq	$136, %rsp
	.cfi_remember_state
	.cfi_def_cfa_offset 40
	popq	%rbx
	.cfi_def_cfa_offset 32
	popq	%rbp
	.cfi_def_cfa_offset 24
	popq	%r12
	.cfi_def_cfa_offset 16
	popq	%r13
	.cfi_def_cfa_offset 8
	ret
	.p2align 4,,10
	.p2align 3
.L233:
	.cfi_restore_state
	movzbl	40(%rbp), %edx
	movb	%dl, 0(%rbp)
	movq	%rbp, (%rax)
	jmp	.L202
.L217:
	movl	$-1, %eax
.L206:
	movl	%eax, %edi
.LEHB14:
	call	_ZSt20__throw_system_errori@PLT
.LEHE14:
.L235:
	movl	$3, %edi
.LEHB15:
	call	_ZSt20__throw_future_errori@PLT
.L234:
	call	_ZSt25__throw_bad_function_callv@PLT
.LEHE15:
.L237:
	call	__stack_chk_fail@PLT
.L218:
	endbr64
	movq	%rax, %rdi
	jmp	.L215
.L219:
	endbr64
	movq	%rax, %rbx
.L213:
	movq	96(%rsp), %rax
	testq	%rax, %rax
	je	.L214
	movl	$3, %edx
	movq	%rbp, %rsi
	movq	%rbp, %rdi
	call	*%rax
.L214:
	movq	%rbx, %rdi
.L215:
	sfence
.LEHB16:
	call	_Unwind_Resume@PLT
.LEHE16:
	.cfi_endproc
.LFE11342:
	.section	.gcc_except_table
.LLSDA11342:
	.byte	0xff
	.byte	0xff
	.byte	0x1
	.uleb128 .LLSDACSE11342-.LLSDACSB11342
.LLSDACSB11342:
	.uleb128 .LEHB12-.LFB11342
	.uleb128 .LEHE12-.LEHB12
	.uleb128 .L218-.LFB11342
	.uleb128 0
	.uleb128 .LEHB13-.LFB11342
	.uleb128 .LEHE13-.LEHB13
	.uleb128 .L219-.LFB11342
	.uleb128 0
	.uleb128 .LEHB14-.LFB11342
	.uleb128 .LEHE14-.LEHB14
	.uleb128 .L219-.LFB11342
	.uleb128 0
	.uleb128 .LEHB15-.LFB11342
	.uleb128 .LEHE15-.LEHB15
	.uleb128 .L218-.LFB11342
	.uleb128 0
	.uleb128 .LEHB16-.LFB11342
	.uleb128 .LEHE16-.LEHB16
	.uleb128 0
	.uleb128 0
.LLSDACSE11342:
	.section	.text._ZN4asio6detail18completion_handlerIZN7asiopal8Executor10ReturnFromIbEET_RKSt8functionIFS5_vEEEUlvE_E11do_completeEPNS0_15task_io_serviceEPNS0_25task_io_service_operationERKSt10error_codem,"axG",@progbits,_ZN4asio6detail18completion_handlerIZN7asiopal8Executor10ReturnFromIbEET_RKSt8functionIFS5_vEEEUlvE_E11do_completeEPNS0_15task_io_serviceEPNS0_25task_io_service_operationERKSt10error_codem,comdat
	.size	_ZN4asio6detail18completion_handlerIZN7asiopal8Executor10ReturnFromIbEET_RKSt8functionIFS5_vEEEUlvE_E11do_completeEPNS0_15task_io_serviceEPNS0_25task_io_service_operationERKSt10error_codem, .-_ZN4asio6detail18completion_handlerIZN7asiopal8Executor10ReturnFromIbEET_RKSt8functionIFS5_vEEEUlvE_E11do_completeEPNS0_15task_io_serviceEPNS0_25task_io_service_operationERKSt10error_codem
	.section	.text._ZNSt23_Sp_counted_ptr_inplaceIN8asiodnp310MasterScanESaIS1_ELN9__gnu_cxx12_Lock_policyE2EE10_M_disposeEv,"axG",@progbits,_ZNSt23_Sp_counted_ptr_inplaceIN8asiodnp310MasterScanESaIS1_ELN9__gnu_cxx12_Lock_policyE2EE10_M_disposeEv,comdat
	.align 2
	.p2align 4
	.weak	_ZNSt23_Sp_counted_ptr_inplaceIN8asiodnp310MasterScanESaIS1_ELN9__gnu_cxx12_Lock_policyE2EE10_M_disposeEv
	.type	_ZNSt23_Sp_counted_ptr_inplaceIN8asiodnp310MasterScanESaIS1_ELN9__gnu_cxx12_Lock_policyE2EE10_M_disposeEv, @function
_ZNSt23_Sp_counted_ptr_inplaceIN8asiodnp310MasterScanESaIS1_ELN9__gnu_cxx12_Lock_policyE2EE10_M_disposeEv:
.LFB12227:
	.cfi_startproc
	endbr64
	movq	_ZTVN8asiodnp310MasterScanE@GOTPCREL(%rip), %rax
	pushq	%r12
	.cfi_def_cfa_offset 16
	.cfi_offset 12, -16
	pushq	%rbp
	.cfi_def_cfa_offset 24
	.cfi_offset 6, -24
	pushq	%rbx
	.cfi_def_cfa_offset 32
	.cfi_offset 3, -32
	movq	48(%rdi), %rbp
	addq	$16, %rax
	movq	%rdi, %rbx
	movq	%rax, 16(%rdi)
	testq	%rbp, %rbp
	je	.L240
	movq	_ZL28__gthrw___pthread_key_createPjPFvPvE@GOTPCREL(%rip), %r12
	testq	%r12, %r12
	je	.L241
	movl	$-1, %eax
	lock xaddl	%eax, 8(%rbp)
	cmpl	$1, %eax
	je	.L254
	.p2align 4,,10
	.p2align 3
.L240:
	movq	32(%rbx), %rbp
	testq	%rbp, %rbp
	je	.L238
	movq	_ZL28__gthrw___pthread_key_createPjPFvPvE@GOTPCREL(%rip), %r12
	testq	%r12, %r12
	je	.L248
	movl	$-1, %eax
	lock xaddl	%eax, 8(%rbp)
	cmpl	$1, %eax
	je	.L255
.L238:
	popq	%rbx
	.cfi_remember_state
	.cfi_def_cfa_offset 24
	popq	%rbp
	.cfi_def_cfa_offset 16
	popq	%r12
	.cfi_def_cfa_offset 8
	ret
	.p2align 4,,10
	.p2align 3
.L241:
	.cfi_restore_state
	movl	8(%rbp), %eax
	leal	-1(%rax), %edx
	movl	%edx, 8(%rbp)
	cmpl	$1, %eax
	jne	.L240
.L254:
	movq	0(%rbp), %rax
	movq	%rbp, %rdi
	call	*16(%rax)
	testq	%r12, %r12
	je	.L244
	movl	$-1, %eax
	lock xaddl	%eax, 12(%rbp)
.L245:
	cmpl	$1, %eax
	jne	.L240
	movq	0(%rbp), %rax
	movq	%rbp, %rdi
	call	*24(%rax)
	jmp	.L240
	.p2align 4,,10
	.p2align 3
.L248:
	movl	8(%rbp), %eax
	leal	-1(%rax), %edx
	movl	%edx, 8(%rbp)
	cmpl	$1, %eax
	jne	.L238
.L255:
	movq	0(%rbp), %rax
	movq	%rbp, %rdi
	call	*16(%rax)
	testq	%r12, %r12
	je	.L251
	movl	$-1, %eax
	lock xaddl	%eax, 12(%rbp)
.L252:
	cmpl	$1, %eax
	jne	.L238
	movq	0(%rbp), %rax
	popq	%rbx
	.cfi_remember_state
	.cfi_def_cfa_offset 24
	movq	%rbp, %rdi
	popq	%rbp
	.cfi_def_cfa_offset 16
	popq	%r12
	.cfi_def_cfa_offset 8
	movq	24(%rax), %rax
	jmp	*%rax
	.p2align 4,,10
	.p2align 3
.L244:
	.cfi_restore_state
	movl	12(%rbp), %eax
	leal	-1(%rax), %edx
	movl	%edx, 12(%rbp)
	jmp	.L245
	.p2align 4,,10
	.p2align 3
.L251:
	movl	12(%rbp), %eax
	leal	-1(%rax), %edx
	movl	%edx, 12(%rbp)
	jmp	.L252
	.cfi_endproc
.LFE12227:
	.size	_ZNSt23_Sp_counted_ptr_inplaceIN8asiodnp310MasterScanESaIS1_ELN9__gnu_cxx12_Lock_policyE2EE10_M_disposeEv, .-_ZNSt23_Sp_counted_ptr_inplaceIN8asiodnp310MasterScanESaIS1_ELN9__gnu_cxx12_Lock_policyE2EE10_M_disposeEv
	.section	.rodata._ZNK4asio6detail15system_category7messageB5cxx11Ei.str1.8,"aMS",@progbits,1
	.align 8
.LC6:
	.string	"basic_string::_M_construct null not valid"
	.section	.text._ZNK4asio6detail15system_category7messageB5cxx11Ei,"axG",@progbits,_ZNK4asio6detail15system_category7messageB5cxx11Ei,comdat
	.align 2
	.p2align 4
	.weak	_ZNK4asio6detail15system_category7messageB5cxx11Ei
	.type	_ZNK4asio6detail15system_category7messageB5cxx11Ei, @function
_ZNK4asio6detail15system_category7messageB5cxx11Ei:
.LFB2812:
	.cfi_startproc
	endbr64
	pushq	%r14
	.cfi_def_cfa_offset 16
	.cfi_offset 14, -16
	pushq	%r13
	.cfi_def_cfa_offset 24
	.cfi_offset 13, -24
	pushq	%r12
	.cfi_def_cfa_offset 32
	.cfi_offset 12, -32
	movq	%rdi, %r12
	pushq	%rbp
	.cfi_def_cfa_offset 40
	.cfi_offset 6, -40
	leaq	16(%rdi), %rbp
	subq	$296, %rsp
	.cfi_def_cfa_offset 336
	movq	%fs:40, %rax
	movq	%rax, 280(%rsp)
	xorl	%eax, %eax
	cmpl	$125, %edx
	je	.L269
	pxor	%xmm0, %xmm0
	movl	%edx, %edi
	leaq	16(%rsp), %rsi
	movl	$256, %edx
	movaps	%xmm0, 16(%rsp)
	movaps	%xmm0, 32(%rsp)
	movaps	%xmm0, 48(%rsp)
	movaps	%xmm0, 64(%rsp)
	movaps	%xmm0, 80(%rsp)
	movaps	%xmm0, 96(%rsp)
	movaps	%xmm0, 112(%rsp)
	movaps	%xmm0, 128(%rsp)
	movaps	%xmm0, 144(%rsp)
	movaps	%xmm0, 160(%rsp)
	movaps	%xmm0, 176(%rsp)
	movaps	%xmm0, 192(%rsp)
	movaps	%xmm0, 208(%rsp)
	movaps	%xmm0, 224(%rsp)
	movaps	%xmm0, 240(%rsp)
	movaps	%xmm0, 256(%rsp)
	call	strerror_r@PLT
	movq	%rbp, (%r12)
	movq	%rax, %r14
	testq	%rax, %rax
	je	.L270
	movq	%rax, %rdi
	call	strlen@PLT
	movq	%rax, 8(%rsp)
	movq	%rax, %r13
	cmpq	$15, %rax
	ja	.L271
	cmpq	$1, %rax
	jne	.L262
	movzbl	(%r14), %edx
	movb	%dl, 16(%r12)
.L263:
	movq	%rax, 8(%r12)
	movb	$0, 0(%rbp,%rax)
.L256:
	movq	280(%rsp), %rax
	xorq	%fs:40, %rax
	jne	.L272
	addq	$296, %rsp
	.cfi_remember_state
	.cfi_def_cfa_offset 40
	movq	%r12, %rax
	popq	%rbp
	.cfi_def_cfa_offset 32
	popq	%r12
	.cfi_def_cfa_offset 24
	popq	%r13
	.cfi_def_cfa_offset 16
	popq	%r14
	.cfi_def_cfa_offset 8
	ret
	.p2align 4,,10
	.p2align 3
.L271:
	.cfi_restore_state
	leaq	8(%rsp), %rsi
	xorl	%edx, %edx
	movq	%r12, %rdi
	call	_ZNSt7__cxx1112basic_stringIcSt11char_traitsIcESaIcEE9_M_createERmm@PLT
	movq	%rax, (%r12)
	movq	%rax, %rbp
	movq	8(%rsp), %rax
	movq	%rax, 16(%r12)
.L261:
	movq	%rbp, %rdi
	movq	%r13, %rdx
	movq	%r14, %rsi
	call	memcpy@PLT
	movq	8(%rsp), %rax
	movq	(%r12), %rbp
	jmp	.L263
	.p2align 4,,10
	.p2align 3
.L269:
	movq	%rbp, (%rdi)
	xorl	%edx, %edx
	leaq	8(%rsp), %rsi
	movq	$18, 8(%rsp)
	call	_ZNSt7__cxx1112basic_stringIcSt11char_traitsIcESaIcEE9_M_createERmm@PLT
	movq	8(%rsp), %rdx
	movdqa	.LC7(%rip), %xmm0
	movq	%rax, (%r12)
	movq	%rdx, 16(%r12)
	movl	$11876, %edx
	movw	%dx, 16(%rax)
	movups	%xmm0, (%rax)
	movq	8(%rsp), %rax
	movq	(%r12), %rdx
	movq	%rax, 8(%r12)
	movb	$0, (%rdx,%rax)
	jmp	.L256
	.p2align 4,,10
	.p2align 3
.L262:
	testq	%rax, %rax
	je	.L263
	jmp	.L261
	.p2align 4,,10
	.p2align 3
.L270:
	leaq	.LC6(%rip), %rdi
	call	_ZSt19__throw_logic_errorPKc@PLT
.L272:
	call	__stack_chk_fail@PLT
	.cfi_endproc
.LFE2812:
	.size	_ZNK4asio6detail15system_category7messageB5cxx11Ei, .-_ZNK4asio6detail15system_category7messageB5cxx11Ei
	.section	.text.unlikely
	.align 2
	.type	_ZZN8asiodnp311MasterStack6DemandERKSt10shared_ptrIN8opendnp311IMasterTaskEEENUlvE_D2Ev, @function
_ZZN8asiodnp311MasterStack6DemandERKSt10shared_ptrIN8opendnp311IMasterTaskEEENUlvE_D2Ev:
.LFB8243:
	.cfi_startproc
	pushq	%r12
	.cfi_def_cfa_offset 16
	.cfi_offset 12, -16
	pushq	%rbp
	.cfi_def_cfa_offset 24
	.cfi_offset 6, -24
	pushq	%rbx
	.cfi_def_cfa_offset 32
	.cfi_offset 3, -32
	movq	24(%rdi), %rbp
	movq	%rdi, %rbx
	testq	%rbp, %rbp
	je	.L275
	movq	_ZL28__gthrw___pthread_key_createPjPFvPvE@GOTPCREL(%rip), %r12
	testq	%r12, %r12
	je	.L276
	orl	$-1, %eax
	lock xaddl	%eax, 8(%rbp)
	jmp	.L277
.L276:
	movl	8(%rbp), %eax
	leal	-1(%rax), %edx
	movl	%edx, 8(%rbp)
.L277:
	decl	%eax
	jne	.L275
	movq	0(%rbp), %rax
	movq	%rbp, %rdi
	call	*16(%rax)
	testq	%r12, %r12
	je	.L279
	orl	$-1, %eax
	lock xaddl	%eax, 12(%rbp)
	jmp	.L280
.L279:
	movl	12(%rbp), %eax
	leal	-1(%rax), %edx
	movl	%edx, 12(%rbp)
.L280:
	decl	%eax
	jne	.L275
	movq	0(%rbp), %rax
	movq	%rbp, %rdi
	call	*24(%rax)
.L275:
	movq	8(%rbx), %rbp
	testq	%rbp, %rbp
	je	.L273
	movq	_ZL28__gthrw___pthread_key_createPjPFvPvE@GOTPCREL(%rip), %rbx
	testq	%rbx, %rbx
	je	.L283
	orl	$-1, %eax
	lock xaddl	%eax, 8(%rbp)
	jmp	.L284
.L283:
	movl	8(%rbp), %eax
	leal	-1(%rax), %edx
	movl	%edx, 8(%rbp)
.L284:
	decl	%eax
	jne	.L273
	movq	0(%rbp), %rax
	movq	%rbp, %rdi
	call	*16(%rax)
	testq	%rbx, %rbx
	je	.L286
	orl	$-1, %eax
	lock xaddl	%eax, 12(%rbp)
	jmp	.L287
.L286:
	movl	12(%rbp), %eax
	leal	-1(%rax), %edx
	movl	%edx, 12(%rbp)
.L287:
	decl	%eax
	jne	.L273
	movq	0(%rbp), %rax
	popq	%rbx
	.cfi_remember_state
	.cfi_def_cfa_offset 24
	movq	%rbp, %rdi
	popq	%rbp
	.cfi_def_cfa_offset 16
	popq	%r12
	.cfi_def_cfa_offset 8
	movq	24(%rax), %rax
	jmp	*%rax
.L273:
	.cfi_restore_state
	popq	%rbx
	.cfi_def_cfa_offset 24
	popq	%rbp
	.cfi_def_cfa_offset 16
	popq	%r12
	.cfi_def_cfa_offset 8
	ret
	.cfi_endproc
.LFE8243:
	.size	_ZZN8asiodnp311MasterStack6DemandERKSt10shared_ptrIN8opendnp311IMasterTaskEEENUlvE_D2Ev, .-_ZZN8asiodnp311MasterStack6DemandERKSt10shared_ptrIN8opendnp311IMasterTaskEEENUlvE_D2Ev
	.set	_ZZN8asiodnp311MasterStack6DemandERKSt10shared_ptrIN8opendnp311IMasterTaskEEENUlvE_D1Ev,_ZZN8asiodnp311MasterStack6DemandERKSt10shared_ptrIN8opendnp311IMasterTaskEEENUlvE_D2Ev
	.section	.text._ZNK4asio5error6detail17addrinfo_category7messageB5cxx11Ei,"axG",@progbits,_ZNK4asio5error6detail17addrinfo_category7messageB5cxx11Ei,comdat
	.align 2
	.p2align 4
	.weak	_ZNK4asio5error6detail17addrinfo_category7messageB5cxx11Ei
	.type	_ZNK4asio5error6detail17addrinfo_category7messageB5cxx11Ei, @function
_ZNK4asio5error6detail17addrinfo_category7messageB5cxx11Ei:
.LFB2858:
	.cfi_startproc
	endbr64
	pushq	%r12
	.cfi_def_cfa_offset 16
	.cfi_offset 12, -16
	movq	%rdi, %r12
	subq	$16, %rsp
	.cfi_def_cfa_offset 32
	movq	%fs:40, %rax
	movq	%rax, 8(%rsp)
	xorl	%eax, %eax
	leaq	16(%rdi), %rax
	movq	%rax, (%rdi)
	cmpl	$-8, %edx
	je	.L295
	cmpl	$-7, %edx
	je	.L296
	xorl	%edx, %edx
	movq	%rsp, %rsi
	movq	$19, (%rsp)
	call	_ZNSt7__cxx1112basic_stringIcSt11char_traitsIcESaIcEE9_M_createERmm@PLT
	movq	(%rsp), %rdx
	movdqa	.LC10(%rip), %xmm0
	movq	%rax, (%r12)
	movq	%rdx, 16(%r12)
	movl	$28530, %edx
	movw	%dx, 16(%rax)
	movb	$114, 18(%rax)
	movups	%xmm0, (%rax)
	movq	(%rsp), %rax
	movq	(%r12), %rdx
	movq	%rax, 8(%r12)
	movb	$0, (%rdx,%rax)
.L289:
	movq	8(%rsp), %rax
	xorq	%fs:40, %rax
	jne	.L297
	addq	$16, %rsp
	.cfi_remember_state
	.cfi_def_cfa_offset 16
	movq	%r12, %rax
	popq	%r12
	.cfi_def_cfa_offset 8
	ret
	.p2align 4,,10
	.p2align 3
.L296:
	.cfi_restore_state
	xorl	%edx, %edx
	movq	%rsp, %rsi
	movq	$25, (%rsp)
	call	_ZNSt7__cxx1112basic_stringIcSt11char_traitsIcESaIcEE9_M_createERmm@PLT
	movq	(%rsp), %rdx
	movdqa	.LC9(%rip), %xmm0
	movabsq	$7310593918082512243, %rcx
	movq	%rax, (%r12)
	movq	%rdx, 16(%r12)
	movq	%rcx, 16(%rax)
	movb	$100, 24(%rax)
	movups	%xmm0, (%rax)
	movq	(%rsp), %rax
	movq	(%r12), %rdx
	movq	%rax, 8(%r12)
	movb	$0, (%rdx,%rax)
	jmp	.L289
	.p2align 4,,10
	.p2align 3
.L295:
	xorl	%edx, %edx
	movq	%rsp, %rsi
	movq	$17, (%rsp)
	call	_ZNSt7__cxx1112basic_stringIcSt11char_traitsIcESaIcEE9_M_createERmm@PLT
	movq	(%rsp), %rdx
	movdqa	.LC8(%rip), %xmm0
	movq	%rax, (%r12)
	movq	%rdx, 16(%r12)
	movb	$100, 16(%rax)
	movups	%xmm0, (%rax)
	movq	(%rsp), %rax
	movq	(%r12), %rdx
	movq	%rax, 8(%r12)
	movb	$0, (%rdx,%rax)
	jmp	.L289
.L297:
	call	__stack_chk_fail@PLT
	.cfi_endproc
.LFE2858:
	.size	_ZNK4asio5error6detail17addrinfo_category7messageB5cxx11Ei, .-_ZNK4asio5error6detail17addrinfo_category7messageB5cxx11Ei
	.section	.text._ZNK4asio5error6detail13misc_category7messageB5cxx11Ei,"axG",@progbits,_ZNK4asio5error6detail13misc_category7messageB5cxx11Ei,comdat
	.align 2
	.p2align 4
	.weak	_ZNK4asio5error6detail13misc_category7messageB5cxx11Ei
	.type	_ZNK4asio5error6detail13misc_category7messageB5cxx11Ei, @function
_ZNK4asio5error6detail13misc_category7messageB5cxx11Ei:
.LFB2864:
	.cfi_startproc
	endbr64
	pushq	%r12
	.cfi_def_cfa_offset 16
	.cfi_offset 12, -16
	movq	%rdi, %r12
	subq	$16, %rsp
	.cfi_def_cfa_offset 32
	movq	%fs:40, %rax
	movq	%rax, 8(%rsp)
	xorl	%eax, %eax
	leaq	16(%rdi), %rax
	movq	%rax, (%rdi)
	cmpl	$1, %edx
	je	.L306
	cmpl	$2, %edx
	je	.L307
	cmpl	$3, %edx
	je	.L308
	cmpl	$4, %edx
	je	.L309
	movabsq	$8316298233121436513, %rcx
	movl	$28530, %edx
	movq	%rcx, 16(%rdi)
	movl	$1919230051, 8(%rax)
	movw	%dx, 12(%rax)
	movb	$114, 14(%rax)
	movq	$15, 8(%rdi)
	movb	$0, 31(%rdi)
.L298:
	movq	8(%rsp), %rax
	xorq	%fs:40, %rax
	jne	.L310
	addq	$16, %rsp
	.cfi_remember_state
	.cfi_def_cfa_offset 16
	movq	%r12, %rax
	popq	%r12
	.cfi_def_cfa_offset 8
	ret
	.p2align 4,,10
	.p2align 3
.L306:
	.cfi_restore_state
	movabsq	$2340011850872286273, %rcx
	movq	%rcx, 16(%rdi)
	movl	$1852141679, 8(%rax)
	movq	$12, 8(%rdi)
	movb	$0, 28(%rdi)
	jmp	.L298
	.p2align 4,,10
	.p2align 3
.L309:
	movq	%rsp, %rsi
	xorl	%edx, %edx
	movq	$57, (%rsp)
	call	_ZNSt7__cxx1112basic_stringIcSt11char_traitsIcESaIcEE9_M_createERmm@PLT
	movq	(%rsp), %rdx
	movdqa	.LC12(%rip), %xmm0
	movabsq	$7310291504967217959, %rsi
	movq	%rax, (%r12)
	movq	%rdx, 16(%r12)
	movups	%xmm0, (%rax)
	movdqa	.LC13(%rip), %xmm0
	movq	%rsi, 48(%rax)
	movups	%xmm0, 16(%rax)
	movdqa	.LC14(%rip), %xmm0
	movb	$116, 56(%rax)
	movups	%xmm0, 32(%rax)
	movq	(%rsp), %rax
	movq	(%r12), %rdx
	movq	%rax, 8(%r12)
	movb	$0, (%rdx,%rax)
	jmp	.L298
	.p2align 4,,10
	.p2align 3
.L307:
	movabsq	$7358994418594246213, %rcx
	movq	%rcx, 16(%rdi)
	movl	$27753, %ecx
	movw	%cx, 8(%rax)
	movb	$101, 10(%rax)
	movq	$11, 8(%rdi)
	movb	$0, 27(%rdi)
	jmp	.L298
	.p2align 4,,10
	.p2align 3
.L308:
	xorl	%edx, %edx
	movq	%rsp, %rsi
	movq	$17, (%rsp)
	call	_ZNSt7__cxx1112basic_stringIcSt11char_traitsIcESaIcEE9_M_createERmm@PLT
	movq	(%rsp), %rdx
	movdqa	.LC11(%rip), %xmm0
	movq	%rax, (%r12)
	movq	%rdx, 16(%r12)
	movb	$100, 16(%rax)
	movups	%xmm0, (%rax)
	movq	(%rsp), %rax
	movq	(%r12), %rdx
	movq	%rax, 8(%r12)
	movb	$0, (%rdx,%rax)
	jmp	.L298
.L310:
	call	__stack_chk_fail@PLT
	.cfi_endproc
.LFE2864:
	.size	_ZNK4asio5error6detail13misc_category7messageB5cxx11Ei, .-_ZNK4asio5error6detail13misc_category7messageB5cxx11Ei
	.section	.text._ZNK4asio5error6detail14netdb_category7messageB5cxx11Ei,"axG",@progbits,_ZNK4asio5error6detail14netdb_category7messageB5cxx11Ei,comdat
	.align 2
	.p2align 4
	.weak	_ZNK4asio5error6detail14netdb_category7messageB5cxx11Ei
	.type	_ZNK4asio5error6detail14netdb_category7messageB5cxx11Ei, @function
_ZNK4asio5error6detail14netdb_category7messageB5cxx11Ei:
.LFB2852:
	.cfi_startproc
	endbr64
	pushq	%r12
	.cfi_def_cfa_offset 16
	.cfi_offset 12, -16
	movq	%rdi, %r12
	subq	$16, %rsp
	.cfi_def_cfa_offset 32
	movq	%fs:40, %rax
	movq	%rax, 8(%rsp)
	xorl	%eax, %eax
	leaq	16(%rdi), %rax
	movq	%rax, (%rdi)
	cmpl	$1, %edx
	je	.L319
	cmpl	$2, %edx
	je	.L320
	cmpl	$4, %edx
	je	.L321
	cmpl	$3, %edx
	je	.L322
	xorl	%edx, %edx
	movq	%rsp, %rsi
	movq	$16, (%rsp)
	call	_ZNSt7__cxx1112basic_stringIcSt11char_traitsIcESaIcEE9_M_createERmm@PLT
	movq	(%rsp), %rdx
	movdqa	.LC24(%rip), %xmm0
	movq	%rax, (%r12)
	movq	%rdx, 16(%r12)
	movups	%xmm0, (%rax)
	movq	(%rsp), %rax
	movq	(%r12), %rdx
	movq	%rax, 8(%r12)
	movb	$0, (%rdx,%rax)
.L311:
	movq	8(%rsp), %rax
	xorq	%fs:40, %rax
	jne	.L323
	addq	$16, %rsp
	.cfi_remember_state
	.cfi_def_cfa_offset 16
	movq	%r12, %rax
	popq	%r12
	.cfi_def_cfa_offset 8
	ret
	.p2align 4,,10
	.p2align 3
.L319:
	.cfi_restore_state
	movq	%rsp, %rsi
	xorl	%edx, %edx
	movq	$30, (%rsp)
	call	_ZNSt7__cxx1112basic_stringIcSt11char_traitsIcESaIcEE9_M_createERmm@PLT
	movq	(%rsp), %rdx
	movl	$10597, %esi
	movdqa	.LC15(%rip), %xmm0
	movabsq	$8388361603773658465, %rcx
	movq	%rax, (%r12)
	movq	%rdx, 16(%r12)
	movq	%rcx, 16(%rax)
	movl	$1986622561, 24(%rax)
	movw	%si, 28(%rax)
	movups	%xmm0, (%rax)
	movq	(%rsp), %rax
	movq	(%r12), %rdx
	movq	%rax, 8(%r12)
	movb	$0, (%rdx,%rax)
	jmp	.L311
	.p2align 4,,10
	.p2align 3
.L322:
	xorl	%edx, %edx
	movq	%rsp, %rsi
	movq	$55, (%rsp)
	call	_ZNSt7__cxx1112basic_stringIcSt11char_traitsIcESaIcEE9_M_createERmm@PLT
	movq	(%rsp), %rdx
	movdqa	.LC21(%rip), %xmm0
	movq	%rax, (%r12)
	movq	%rdx, 16(%r12)
	movl	$30059, %edx
	movups	%xmm0, (%rax)
	movdqa	.LC22(%rip), %xmm0
	movl	$1869573152, 48(%rax)
	movups	%xmm0, 16(%rax)
	movdqa	.LC23(%rip), %xmm0
	movw	%dx, 52(%rax)
	movb	$112, 54(%rax)
	movups	%xmm0, 32(%rax)
	movq	(%rsp), %rax
	movq	(%r12), %rdx
	movq	%rax, 8(%r12)
	movb	$0, (%rdx,%rax)
	jmp	.L311
	.p2align 4,,10
	.p2align 3
.L320:
	xorl	%edx, %edx
	movq	%rsp, %rsi
	movq	$51, (%rsp)
	call	_ZNSt7__cxx1112basic_stringIcSt11char_traitsIcESaIcEE9_M_createERmm@PLT
	movq	(%rsp), %rdx
	movl	$25972, %ecx
	movdqa	.LC15(%rip), %xmm0
	movq	%rax, (%r12)
	movq	%rdx, 16(%r12)
	movups	%xmm0, (%rax)
	movdqa	.LC16(%rip), %xmm0
	movw	%cx, 48(%rax)
	movups	%xmm0, 16(%rax)
	movdqa	.LC17(%rip), %xmm0
	movb	$114, 50(%rax)
	movups	%xmm0, 32(%rax)
	movq	(%rsp), %rax
	movq	(%r12), %rdx
	movq	%rax, 8(%r12)
	movb	$0, (%rdx,%rax)
	jmp	.L311
	.p2align 4,,10
	.p2align 3
.L321:
	xorl	%edx, %edx
	movq	%rsp, %rsi
	movq	$56, (%rsp)
	call	_ZNSt7__cxx1112basic_stringIcSt11char_traitsIcESaIcEE9_M_createERmm@PLT
	movq	(%rsp), %rdx
	movdqa	.LC18(%rip), %xmm0
	movabsq	$7022344801645520244, %rcx
	movq	%rax, (%r12)
	movq	%rdx, 16(%r12)
	movups	%xmm0, (%rax)
	movdqa	.LC19(%rip), %xmm0
	movq	%rcx, 48(%rax)
	movups	%xmm0, 16(%rax)
	movdqa	.LC20(%rip), %xmm0
	movups	%xmm0, 32(%rax)
	movq	(%rsp), %rax
	movq	(%r12), %rdx
	movq	%rax, 8(%r12)
	movb	$0, (%rdx,%rax)
	jmp	.L311
.L323:
	call	__stack_chk_fail@PLT
	.cfi_endproc
.LFE2852:
	.size	_ZNK4asio5error6detail14netdb_category7messageB5cxx11Ei, .-_ZNK4asio5error6detail14netdb_category7messageB5cxx11Ei
	.section	.text._ZN8asiodnp311MasterStackD2Ev,"axG",@progbits,_ZN8asiodnp311MasterStackD5Ev,comdat
	.p2align 4
	.weak	_ZThn16_N8asiodnp311MasterStackD1Ev
	.type	_ZThn16_N8asiodnp311MasterStackD1Ev, @function
_ZThn16_N8asiodnp311MasterStackD1Ev:
.LFB12712:
	.cfi_startproc
	endbr64
	pushq	%r13
	.cfi_def_cfa_offset 16
	.cfi_offset 13, -16
	pushq	%r12
	.cfi_def_cfa_offset 24
	.cfi_offset 12, -24
	pushq	%rbp
	.cfi_def_cfa_offset 32
	.cfi_offset 6, -32
	pushq	%rbx
	.cfi_def_cfa_offset 40
	.cfi_offset 3, -40
	movq	%rdi, %rbx
	subq	$8, %rsp
	.cfi_def_cfa_offset 48
	movq	_ZTVN8asiodnp311MasterStackE@GOTPCREL(%rip), %rax
	leaq	240(%rax), %rdx
	leaq	16(%rax), %rcx
	movq	%rdx, %xmm1
	leaq	304(%rax), %rsi
	movq	%rcx, %xmm0
	leaq	368(%rax), %rdx
	addq	$408, %rax
	punpcklqdq	%xmm1, %xmm0
	movq	%rax, 16(%rdi)
	movq	_ZTVN8opendnp38MContextE@GOTPCREL(%rip), %rax
	movq	%rdx, %xmm2
	movups	%xmm0, -16(%rdi)
	movq	%rsi, %xmm0
	leaq	128(%rax), %rdx
	leaq	16(%rax), %rcx
	punpcklqdq	%xmm2, %xmm0
	addq	$152, %rax
	movq	%rax, 168(%rdi)
	movq	_ZTVN7openpal5ArrayIhjEE@GOTPCREL(%rip), %rax
	movq	%rdx, %xmm3
	movups	%xmm0, (%rdi)
	movq	%rcx, %xmm0
	punpcklqdq	%xmm3, %xmm0
	addq	$16, %rax
	movq	%rax, 640(%rdi)
	movups	%xmm0, 152(%rdi)
	movq	656(%rdi), %rdi
	testq	%rdi, %rdi
	je	.L325
	call	_ZdaPv@PLT
.L325:
	movq	560(%rbx), %rdi
	testq	%rdi, %rdi
	je	.L326
	movq	632(%rbx), %rax
	movq	600(%rbx), %rbp
	leaq	8(%rax), %r12
	cmpq	%rbp, %r12
	jbe	.L327
	.p2align 4,,10
	.p2align 3
.L328:
	movq	0(%rbp), %rdi
	addq	$8, %rbp
	call	_ZdlPv@PLT
	cmpq	%rbp, %r12
	ja	.L328
	movq	560(%rbx), %rdi
.L327:
	call	_ZdlPv@PLT
.L326:
	movq	544(%rbx), %r13
	movq	536(%rbx), %rbp
	cmpq	%rbp, %r13
	je	.L329
	cmpq	$0, _ZL28__gthrw___pthread_key_createPjPFvPvE@GOTPCREL(%rip)
	je	.L336
	movq	8(%rbp), %r12
	testq	%r12, %r12
	jne	.L525
	.p2align 4,,10
	.p2align 3
.L338:
	addq	$16, %rbp
	cmpq	%rbp, %r13
	je	.L335
.L330:
	movq	8(%rbp), %r12
	testq	%r12, %r12
	je	.L338
.L525:
	lock subl	$1, 8(%r12)
	jne	.L338
	movq	(%r12), %rax
	movq	%r12, %rdi
	call	*16(%rax)
	lock subl	$1, 12(%r12)
	jne	.L338
	movq	(%r12), %rax
	addq	$16, %rbp
	movq	%r12, %rdi
	call	*24(%rax)
	cmpq	%rbp, %r13
	jne	.L330
	.p2align 4,,10
	.p2align 3
.L335:
	movq	536(%rbx), %rbp
.L329:
	testq	%rbp, %rbp
	je	.L340
	movq	%rbp, %rdi
	call	_ZdlPv@PLT
.L340:
	movq	512(%rbx), %r13
	movq	504(%rbx), %rbp
	cmpq	%rbp, %r13
	je	.L341
	cmpq	$0, _ZL28__gthrw___pthread_key_createPjPFvPvE@GOTPCREL(%rip)
	je	.L348
	movq	8(%rbp), %r12
	testq	%r12, %r12
	jne	.L526
	.p2align 4,,10
	.p2align 3
.L350:
	addq	$16, %rbp
	cmpq	%rbp, %r13
	je	.L347
.L342:
	movq	8(%rbp), %r12
	testq	%r12, %r12
	je	.L350
.L526:
	lock subl	$1, 8(%r12)
	jne	.L350
	movq	(%r12), %rax
	movq	%r12, %rdi
	call	*16(%rax)
	lock subl	$1, 12(%r12)
	jne	.L350
	movq	(%r12), %rax
	addq	$16, %rbp
	movq	%r12, %rdi
	call	*24(%rax)
	cmpq	%rbp, %r13
	jne	.L342
	.p2align 4,,10
	.p2align 3
.L347:
	movq	504(%rbx), %rbp
.L341:
	testq	%rbp, %rbp
	je	.L352
	movq	%rbp, %rdi
	call	_ZdlPv@PLT
.L352:
	movq	496(%rbx), %r12
	testq	%r12, %r12
	je	.L354
	movq	_ZL28__gthrw___pthread_key_createPjPFvPvE@GOTPCREL(%rip), %rbp
	testq	%rbp, %rbp
	je	.L355
	movl	$-1, %eax
	lock xaddl	%eax, 8(%r12)
	cmpl	$1, %eax
	je	.L527
	.p2align 4,,10
	.p2align 3
.L354:
	movq	480(%rbx), %r12
	testq	%r12, %r12
	je	.L361
	movq	_ZL28__gthrw___pthread_key_createPjPFvPvE@GOTPCREL(%rip), %rbp
	testq	%rbp, %rbp
	je	.L362
	movl	$-1, %eax
	lock xaddl	%eax, 8(%r12)
	cmpl	$1, %eax
	je	.L528
	.p2align 4,,10
	.p2align 3
.L361:
	movq	464(%rbx), %r12
	testq	%r12, %r12
	je	.L368
	movq	_ZL28__gthrw___pthread_key_createPjPFvPvE@GOTPCREL(%rip), %rbp
	testq	%rbp, %rbp
	je	.L369
	movl	$-1, %eax
	lock xaddl	%eax, 8(%r12)
	cmpl	$1, %eax
	je	.L529
	.p2align 4,,10
	.p2align 3
.L368:
	movq	448(%rbx), %r12
	testq	%r12, %r12
	je	.L375
	movq	_ZL28__gthrw___pthread_key_createPjPFvPvE@GOTPCREL(%rip), %rbp
	testq	%rbp, %rbp
	je	.L376
	movl	$-1, %eax
	lock xaddl	%eax, 8(%r12)
	cmpl	$1, %eax
	je	.L530
	.p2align 4,,10
	.p2align 3
.L375:
	movq	432(%rbx), %r12
	testq	%r12, %r12
	je	.L382
	movq	_ZL28__gthrw___pthread_key_createPjPFvPvE@GOTPCREL(%rip), %rbp
	testq	%rbp, %rbp
	je	.L383
	movl	$-1, %eax
	lock xaddl	%eax, 8(%r12)
	cmpl	$1, %eax
	je	.L531
	.p2align 4,,10
	.p2align 3
.L382:
	movq	416(%rbx), %r12
	testq	%r12, %r12
	je	.L389
	movq	_ZL28__gthrw___pthread_key_createPjPFvPvE@GOTPCREL(%rip), %rbp
	testq	%rbp, %rbp
	je	.L390
	movl	$-1, %eax
	lock xaddl	%eax, 8(%r12)
	cmpl	$1, %eax
	je	.L532
	.p2align 4,,10
	.p2align 3
.L389:
	movq	400(%rbx), %r12
	testq	%r12, %r12
	je	.L396
	movq	_ZL28__gthrw___pthread_key_createPjPFvPvE@GOTPCREL(%rip), %rbp
	testq	%rbp, %rbp
	je	.L397
	movl	$-1, %eax
	lock xaddl	%eax, 8(%r12)
	cmpl	$1, %eax
	je	.L533
	.p2align 4,,10
	.p2align 3
.L396:
	leaq	376(%rbx), %rdi
	call	_ZN7openpal8TimerRefD1Ev@PLT
	leaq	360(%rbx), %rdi
	call	_ZN7openpal8TimerRefD1Ev@PLT
	leaq	344(%rbx), %rdi
	call	_ZN7openpal8TimerRefD1Ev@PLT
	movq	336(%rbx), %r12
	testq	%r12, %r12
	je	.L403
	movq	_ZL28__gthrw___pthread_key_createPjPFvPvE@GOTPCREL(%rip), %rbp
	testq	%rbp, %rbp
	je	.L404
	movl	$-1, %eax
	lock xaddl	%eax, 8(%r12)
	cmpl	$1, %eax
	je	.L534
	.p2align 4,,10
	.p2align 3
.L403:
	movq	304(%rbx), %r12
	testq	%r12, %r12
	je	.L410
	movq	_ZL28__gthrw___pthread_key_createPjPFvPvE@GOTPCREL(%rip), %rbp
	testq	%rbp, %rbp
	je	.L411
	movl	$-1, %eax
	lock xaddl	%eax, 8(%r12)
	cmpl	$1, %eax
	je	.L535
	.p2align 4,,10
	.p2align 3
.L410:
	movq	288(%rbx), %r12
	testq	%r12, %r12
	je	.L417
	movq	_ZL28__gthrw___pthread_key_createPjPFvPvE@GOTPCREL(%rip), %rbp
	testq	%rbp, %rbp
	je	.L418
	movl	$-1, %eax
	lock xaddl	%eax, 8(%r12)
	cmpl	$1, %eax
	je	.L536
	.p2align 4,,10
	.p2align 3
.L417:
	movq	232(%rbx), %r12
	testq	%r12, %r12
	je	.L424
	movq	_ZL28__gthrw___pthread_key_createPjPFvPvE@GOTPCREL(%rip), %rbp
	testq	%rbp, %rbp
	je	.L425
	movl	$-1, %eax
	lock xaddl	%eax, 8(%r12)
	cmpl	$1, %eax
	je	.L537
	.p2align 4,,10
	.p2align 3
.L424:
	movq	216(%rbx), %r12
	testq	%r12, %r12
	je	.L431
	movq	_ZL28__gthrw___pthread_key_createPjPFvPvE@GOTPCREL(%rip), %rbp
	testq	%rbp, %rbp
	je	.L432
	movl	$-1, %eax
	lock xaddl	%eax, 8(%r12)
	cmpl	$1, %eax
	je	.L538
	.p2align 4,,10
	.p2align 3
.L431:
	movq	200(%rbx), %r12
	testq	%r12, %r12
	je	.L438
	movq	_ZL28__gthrw___pthread_key_createPjPFvPvE@GOTPCREL(%rip), %rbp
	testq	%rbp, %rbp
	je	.L439
	movl	$-1, %eax
	lock xaddl	%eax, 8(%r12)
	cmpl	$1, %eax
	je	.L539
	.p2align 4,,10
	.p2align 3
.L438:
	movq	184(%rbx), %r12
	testq	%r12, %r12
	je	.L445
	movq	_ZL28__gthrw___pthread_key_createPjPFvPvE@GOTPCREL(%rip), %rbp
	testq	%rbp, %rbp
	je	.L446
	movl	$-1, %eax
	lock xaddl	%eax, 8(%r12)
	cmpl	$1, %eax
	je	.L540
	.p2align 4,,10
	.p2align 3
.L445:
	movq	144(%rbx), %r12
	testq	%r12, %r12
	je	.L452
	movq	_ZL28__gthrw___pthread_key_createPjPFvPvE@GOTPCREL(%rip), %rbp
	testq	%rbp, %rbp
	je	.L453
	movl	$-1, %eax
	lock xaddl	%eax, 8(%r12)
	cmpl	$1, %eax
	je	.L541
	.p2align 4,,10
	.p2align 3
.L452:
	movq	128(%rbx), %r12
	testq	%r12, %r12
	je	.L459
	movq	_ZL28__gthrw___pthread_key_createPjPFvPvE@GOTPCREL(%rip), %rbp
	testq	%rbp, %rbp
	je	.L460
	movl	$-1, %eax
	lock xaddl	%eax, 8(%r12)
	cmpl	$1, %eax
	je	.L542
	.p2align 4,,10
	.p2align 3
.L459:
	movq	112(%rbx), %r12
	testq	%r12, %r12
	je	.L466
	movq	_ZL28__gthrw___pthread_key_createPjPFvPvE@GOTPCREL(%rip), %rbp
	testq	%rbp, %rbp
	je	.L467
	movl	$-1, %eax
	lock xaddl	%eax, 8(%r12)
	cmpl	$1, %eax
	je	.L543
	.p2align 4,,10
	.p2align 3
.L466:
	movq	96(%rbx), %r12
	testq	%r12, %r12
	je	.L473
	movq	_ZL28__gthrw___pthread_key_createPjPFvPvE@GOTPCREL(%rip), %rbp
	testq	%rbp, %rbp
	je	.L474
	movl	$-1, %eax
	lock xaddl	%eax, 8(%r12)
	cmpl	$1, %eax
	je	.L544
	.p2align 4,,10
	.p2align 3
.L473:
	movq	80(%rbx), %r12
	testq	%r12, %r12
	je	.L480
	movq	_ZL28__gthrw___pthread_key_createPjPFvPvE@GOTPCREL(%rip), %rbp
	testq	%rbp, %rbp
	je	.L481
	movl	$-1, %eax
	lock xaddl	%eax, 8(%r12)
	cmpl	$1, %eax
	je	.L545
	.p2align 4,,10
	.p2align 3
.L480:
	movq	64(%rbx), %r12
	testq	%r12, %r12
	je	.L487
	movq	_ZL28__gthrw___pthread_key_createPjPFvPvE@GOTPCREL(%rip), %rbp
	testq	%rbp, %rbp
	je	.L488
	movl	$-1, %eax
	lock xaddl	%eax, 8(%r12)
	cmpl	$1, %eax
	je	.L546
	.p2align 4,,10
	.p2align 3
.L487:
	movq	48(%rbx), %r12
	testq	%r12, %r12
	je	.L494
	movq	_ZL28__gthrw___pthread_key_createPjPFvPvE@GOTPCREL(%rip), %rbp
	testq	%rbp, %rbp
	je	.L495
	movl	$-1, %eax
	lock xaddl	%eax, 8(%r12)
	cmpl	$1, %eax
	je	.L547
	.p2align 4,,10
	.p2align 3
.L494:
	movq	32(%rbx), %rdi
	testq	%rdi, %rdi
	je	.L324
	cmpq	$0, _ZL28__gthrw___pthread_key_createPjPFvPvE@GOTPCREL(%rip)
	je	.L502
	movl	$-1, %eax
	lock xaddl	%eax, 12(%rdi)
	cmpl	$1, %eax
	je	.L548
.L324:
	addq	$8, %rsp
	.cfi_remember_state
	.cfi_def_cfa_offset 40
	popq	%rbx
	.cfi_def_cfa_offset 32
	popq	%rbp
	.cfi_def_cfa_offset 24
	popq	%r12
	.cfi_def_cfa_offset 16
	popq	%r13
	.cfi_def_cfa_offset 8
	ret
	.p2align 4,,10
	.p2align 3
.L334:
	.cfi_restore_state
	movq	(%r12), %rax
	movq	%r12, %rdi
	call	*16(%rax)
	movl	12(%r12), %eax
	leal	-1(%rax), %edx
	movl	%edx, 12(%r12)
	cmpl	$1, %eax
	jne	.L333
	movq	(%r12), %rax
	movq	%r12, %rdi
	call	*24(%rax)
	.p2align 4,,10
	.p2align 3
.L333:
	addq	$16, %rbp
	cmpq	%rbp, %r13
	je	.L335
.L336:
	movq	8(%rbp), %r12
	testq	%r12, %r12
	je	.L333
	movl	8(%r12), %eax
	leal	-1(%rax), %edx
	movl	%edx, 8(%r12)
	cmpl	$1, %eax
	jne	.L333
	jmp	.L334
	.p2align 4,,10
	.p2align 3
.L346:
	movq	(%r12), %rax
	movq	%r12, %rdi
	call	*16(%rax)
	movl	12(%r12), %eax
	leal	-1(%rax), %edx
	movl	%edx, 12(%r12)
	cmpl	$1, %eax
	jne	.L345
	movq	(%r12), %rax
	movq	%r12, %rdi
	call	*24(%rax)
	.p2align 4,,10
	.p2align 3
.L345:
	addq	$16, %rbp
	cmpq	%rbp, %r13
	je	.L347
.L348:
	movq	8(%rbp), %r12
	testq	%r12, %r12
	je	.L345
	movl	8(%r12), %eax
	leal	-1(%rax), %edx
	movl	%edx, 8(%r12)
	cmpl	$1, %eax
	jne	.L345
	jmp	.L346
	.p2align 4,,10
	.p2align 3
.L502:
	movl	12(%rdi), %eax
	leal	-1(%rax), %edx
	movl	%edx, 12(%rdi)
	cmpl	$1, %eax
	jne	.L324
.L548:
	movq	(%rdi), %rax
	movq	24(%rax), %rax
	addq	$8, %rsp
	.cfi_remember_state
	.cfi_def_cfa_offset 40
	popq	%rbx
	.cfi_def_cfa_offset 32
	popq	%rbp
	.cfi_def_cfa_offset 24
	popq	%r12
	.cfi_def_cfa_offset 16
	popq	%r13
	.cfi_def_cfa_offset 8
	jmp	*%rax
	.p2align 4,,10
	.p2align 3
.L355:
	.cfi_restore_state
	movl	8(%r12), %eax
	leal	-1(%rax), %edx
	movl	%edx, 8(%r12)
	cmpl	$1, %eax
	jne	.L354
.L527:
	movq	(%r12), %rax
	movq	%r12, %rdi
	call	*16(%rax)
	testq	%rbp, %rbp
	je	.L358
	movl	$-1, %eax
	lock xaddl	%eax, 12(%r12)
.L359:
	cmpl	$1, %eax
	jne	.L354
	movq	(%r12), %rax
	movq	%r12, %rdi
	call	*24(%rax)
	jmp	.L354
	.p2align 4,,10
	.p2align 3
.L369:
	movl	8(%r12), %eax
	leal	-1(%rax), %edx
	movl	%edx, 8(%r12)
	cmpl	$1, %eax
	jne	.L368
.L529:
	movq	(%r12), %rax
	movq	%r12, %rdi
	call	*16(%rax)
	testq	%rbp, %rbp
	je	.L372
	movl	$-1, %eax
	lock xaddl	%eax, 12(%r12)
.L373:
	cmpl	$1, %eax
	jne	.L368
	movq	(%r12), %rax
	movq	%r12, %rdi
	call	*24(%rax)
	jmp	.L368
	.p2align 4,,10
	.p2align 3
.L362:
	movl	8(%r12), %eax
	leal	-1(%rax), %edx
	movl	%edx, 8(%r12)
	cmpl	$1, %eax
	jne	.L361
.L528:
	movq	(%r12), %rax
	movq	%r12, %rdi
	call	*16(%rax)
	testq	%rbp, %rbp
	je	.L365
	movl	$-1, %eax
	lock xaddl	%eax, 12(%r12)
.L366:
	cmpl	$1, %eax
	jne	.L361
	movq	(%r12), %rax
	movq	%r12, %rdi
	call	*24(%rax)
	jmp	.L361
	.p2align 4,,10
	.p2align 3
.L383:
	movl	8(%r12), %eax
	leal	-1(%rax), %edx
	movl	%edx, 8(%r12)
	cmpl	$1, %eax
	jne	.L382
.L531:
	movq	(%r12), %rax
	movq	%r12, %rdi
	call	*16(%rax)
	testq	%rbp, %rbp
	je	.L386
	movl	$-1, %eax
	lock xaddl	%eax, 12(%r12)
.L387:
	cmpl	$1, %eax
	jne	.L382
	movq	(%r12), %rax
	movq	%r12, %rdi
	call	*24(%rax)
	jmp	.L382
	.p2align 4,,10
	.p2align 3
.L376:
	movl	8(%r12), %eax
	leal	-1(%rax), %edx
	movl	%edx, 8(%r12)
	cmpl	$1, %eax
	jne	.L375
.L530:
	movq	(%r12), %rax
	movq	%r12, %rdi
	call	*16(%rax)
	testq	%rbp, %rbp
	je	.L379
	movl	$-1, %eax
	lock xaddl	%eax, 12(%r12)
.L380:
	cmpl	$1, %eax
	jne	.L375
	movq	(%r12), %rax
	movq	%r12, %rdi
	call	*24(%rax)
	jmp	.L375
	.p2align 4,,10
	.p2align 3
.L397:
	movl	8(%r12), %eax
	leal	-1(%rax), %edx
	movl	%edx, 8(%r12)
	cmpl	$1, %eax
	jne	.L396
.L533:
	movq	(%r12), %rax
	movq	%r12, %rdi
	call	*16(%rax)
	testq	%rbp, %rbp
	je	.L400
	movl	$-1, %eax
	lock xaddl	%eax, 12(%r12)
.L401:
	cmpl	$1, %eax
	jne	.L396
	movq	(%r12), %rax
	movq	%r12, %rdi
	call	*24(%rax)
	jmp	.L396
	.p2align 4,,10
	.p2align 3
.L390:
	movl	8(%r12), %eax
	leal	-1(%rax), %edx
	movl	%edx, 8(%r12)
	cmpl	$1, %eax
	jne	.L389
.L532:
	movq	(%r12), %rax
	movq	%r12, %rdi
	call	*16(%rax)
	testq	%rbp, %rbp
	je	.L393
	movl	$-1, %eax
	lock xaddl	%eax, 12(%r12)
.L394:
	cmpl	$1, %eax
	jne	.L389
	movq	(%r12), %rax
	movq	%r12, %rdi
	call	*24(%rax)
	jmp	.L389
	.p2align 4,,10
	.p2align 3
.L411:
	movl	8(%r12), %eax
	leal	-1(%rax), %edx
	movl	%edx, 8(%r12)
	cmpl	$1, %eax
	jne	.L410
.L535:
	movq	(%r12), %rax
	movq	%r12, %rdi
	call	*16(%rax)
	testq	%rbp, %rbp
	je	.L414
	movl	$-1, %eax
	lock xaddl	%eax, 12(%r12)
.L415:
	cmpl	$1, %eax
	jne	.L410
	movq	(%r12), %rax
	movq	%r12, %rdi
	call	*24(%rax)
	jmp	.L410
	.p2align 4,,10
	.p2align 3
.L404:
	movl	8(%r12), %eax
	leal	-1(%rax), %edx
	movl	%edx, 8(%r12)
	cmpl	$1, %eax
	jne	.L403
.L534:
	movq	(%r12), %rax
	movq	%r12, %rdi
	call	*16(%rax)
	testq	%rbp, %rbp
	je	.L407
	movl	$-1, %eax
	lock xaddl	%eax, 12(%r12)
.L408:
	cmpl	$1, %eax
	jne	.L403
	movq	(%r12), %rax
	movq	%r12, %rdi
	call	*24(%rax)
	jmp	.L403
	.p2align 4,,10
	.p2align 3
.L425:
	movl	8(%r12), %eax
	leal	-1(%rax), %edx
	movl	%edx, 8(%r12)
	cmpl	$1, %eax
	jne	.L424
.L537:
	movq	(%r12), %rax
	movq	%r12, %rdi
	call	*16(%rax)
	testq	%rbp, %rbp
	je	.L428
	movl	$-1, %eax
	lock xaddl	%eax, 12(%r12)
.L429:
	cmpl	$1, %eax
	jne	.L424
	movq	(%r12), %rax
	movq	%r12, %rdi
	call	*24(%rax)
	jmp	.L424
	.p2align 4,,10
	.p2align 3
.L418:
	movl	8(%r12), %eax
	leal	-1(%rax), %edx
	movl	%edx, 8(%r12)
	cmpl	$1, %eax
	jne	.L417
.L536:
	movq	(%r12), %rax
	movq	%r12, %rdi
	call	*16(%rax)
	testq	%rbp, %rbp
	je	.L421
	movl	$-1, %eax
	lock xaddl	%eax, 12(%r12)
.L422:
	cmpl	$1, %eax
	jne	.L417
	movq	(%r12), %rax
	movq	%r12, %rdi
	call	*24(%rax)
	jmp	.L417
	.p2align 4,,10
	.p2align 3
.L439:
	movl	8(%r12), %eax
	leal	-1(%rax), %edx
	movl	%edx, 8(%r12)
	cmpl	$1, %eax
	jne	.L438
.L539:
	movq	(%r12), %rax
	movq	%r12, %rdi
	call	*16(%rax)
	testq	%rbp, %rbp
	je	.L442
	movl	$-1, %eax
	lock xaddl	%eax, 12(%r12)
.L443:
	cmpl	$1, %eax
	jne	.L438
	movq	(%r12), %rax
	movq	%r12, %rdi
	call	*24(%rax)
	jmp	.L438
	.p2align 4,,10
	.p2align 3
.L432:
	movl	8(%r12), %eax
	leal	-1(%rax), %edx
	movl	%edx, 8(%r12)
	cmpl	$1, %eax
	jne	.L431
.L538:
	movq	(%r12), %rax
	movq	%r12, %rdi
	call	*16(%rax)
	testq	%rbp, %rbp
	je	.L435
	movl	$-1, %eax
	lock xaddl	%eax, 12(%r12)
.L436:
	cmpl	$1, %eax
	jne	.L431
	movq	(%r12), %rax
	movq	%r12, %rdi
	call	*24(%rax)
	jmp	.L431
	.p2align 4,,10
	.p2align 3
.L453:
	movl	8(%r12), %eax
	leal	-1(%rax), %edx
	movl	%edx, 8(%r12)
	cmpl	$1, %eax
	jne	.L452
.L541:
	movq	(%r12), %rax
	movq	%r12, %rdi
	call	*16(%rax)
	testq	%rbp, %rbp
	je	.L456
	movl	$-1, %eax
	lock xaddl	%eax, 12(%r12)
.L457:
	cmpl	$1, %eax
	jne	.L452
	movq	(%r12), %rax
	movq	%r12, %rdi
	call	*24(%rax)
	jmp	.L452
	.p2align 4,,10
	.p2align 3
.L446:
	movl	8(%r12), %eax
	leal	-1(%rax), %edx
	movl	%edx, 8(%r12)
	cmpl	$1, %eax
	jne	.L445
.L540:
	movq	(%r12), %rax
	movq	%r12, %rdi
	call	*16(%rax)
	testq	%rbp, %rbp
	je	.L449
	movl	$-1, %eax
	lock xaddl	%eax, 12(%r12)
.L450:
	cmpl	$1, %eax
	jne	.L445
	movq	(%r12), %rax
	movq	%r12, %rdi
	call	*24(%rax)
	jmp	.L445
	.p2align 4,,10
	.p2align 3
.L467:
	movl	8(%r12), %eax
	leal	-1(%rax), %edx
	movl	%edx, 8(%r12)
	cmpl	$1, %eax
	jne	.L466
.L543:
	movq	(%r12), %rax
	movq	%r12, %rdi
	call	*16(%rax)
	testq	%rbp, %rbp
	je	.L470
	movl	$-1, %eax
	lock xaddl	%eax, 12(%r12)
.L471:
	cmpl	$1, %eax
	jne	.L466
	movq	(%r12), %rax
	movq	%r12, %rdi
	call	*24(%rax)
	jmp	.L466
	.p2align 4,,10
	.p2align 3
.L460:
	movl	8(%r12), %eax
	leal	-1(%rax), %edx
	movl	%edx, 8(%r12)
	cmpl	$1, %eax
	jne	.L459
.L542:
	movq	(%r12), %rax
	movq	%r12, %rdi
	call	*16(%rax)
	testq	%rbp, %rbp
	je	.L463
	movl	$-1, %eax
	lock xaddl	%eax, 12(%r12)
.L464:
	cmpl	$1, %eax
	jne	.L459
	movq	(%r12), %rax
	movq	%r12, %rdi
	call	*24(%rax)
	jmp	.L459
	.p2align 4,,10
	.p2align 3
.L481:
	movl	8(%r12), %eax
	leal	-1(%rax), %edx
	movl	%edx, 8(%r12)
	cmpl	$1, %eax
	jne	.L480
.L545:
	movq	(%r12), %rax
	movq	%r12, %rdi
	call	*16(%rax)
	testq	%rbp, %rbp
	je	.L484
	movl	$-1, %eax
	lock xaddl	%eax, 12(%r12)
.L485:
	cmpl	$1, %eax
	jne	.L480
	movq	(%r12), %rax
	movq	%r12, %rdi
	call	*24(%rax)
	jmp	.L480
	.p2align 4,,10
	.p2align 3
.L474:
	movl	8(%r12), %eax
	leal	-1(%rax), %edx
	movl	%edx, 8(%r12)
	cmpl	$1, %eax
	jne	.L473
.L544:
	movq	(%r12), %rax
	movq	%r12, %rdi
	call	*16(%rax)
	testq	%rbp, %rbp
	je	.L477
	movl	$-1, %eax
	lock xaddl	%eax, 12(%r12)
.L478:
	cmpl	$1, %eax
	jne	.L473
	movq	(%r12), %rax
	movq	%r12, %rdi
	call	*24(%rax)
	jmp	.L473
	.p2align 4,,10
	.p2align 3
.L495:
	movl	8(%r12), %eax
	leal	-1(%rax), %edx
	movl	%edx, 8(%r12)
	cmpl	$1, %eax
	jne	.L494
.L547:
	movq	(%r12), %rax
	movq	%r12, %rdi
	call	*16(%rax)
	testq	%rbp, %rbp
	je	.L498
	movl	$-1, %eax
	lock xaddl	%eax, 12(%r12)
.L499:
	cmpl	$1, %eax
	jne	.L494
	movq	(%r12), %rax
	movq	%r12, %rdi
	call	*24(%rax)
	jmp	.L494
	.p2align 4,,10
	.p2align 3
.L488:
	movl	8(%r12), %eax
	leal	-1(%rax), %edx
	movl	%edx, 8(%r12)
	cmpl	$1, %eax
	jne	.L487
.L546:
	movq	(%r12), %rax
	movq	%r12, %rdi
	call	*16(%rax)
	testq	%rbp, %rbp
	je	.L491
	movl	$-1, %eax
	lock xaddl	%eax, 12(%r12)
.L492:
	cmpl	$1, %eax
	jne	.L487
	movq	(%r12), %rax
	movq	%r12, %rdi
	call	*24(%rax)
	jmp	.L487
.L358:
	movl	12(%r12), %eax
	leal	-1(%rax), %edx
	movl	%edx, 12(%r12)
	jmp	.L359
.L365:
	movl	12(%r12), %eax
	leal	-1(%rax), %edx
	movl	%edx, 12(%r12)
	jmp	.L366
.L386:
	movl	12(%r12), %eax
	leal	-1(%rax), %edx
	movl	%edx, 12(%r12)
	jmp	.L387
.L372:
	movl	12(%r12), %eax
	leal	-1(%rax), %edx
	movl	%edx, 12(%r12)
	jmp	.L373
.L379:
	movl	12(%r12), %eax
	leal	-1(%rax), %edx
	movl	%edx, 12(%r12)
	jmp	.L380
.L393:
	movl	12(%r12), %eax
	leal	-1(%rax), %edx
	movl	%edx, 12(%r12)
	jmp	.L394
.L498:
	movl	12(%r12), %eax
	leal	-1(%rax), %edx
	movl	%edx, 12(%r12)
	jmp	.L499
.L484:
	movl	12(%r12), %eax
	leal	-1(%rax), %edx
	movl	%edx, 12(%r12)
	jmp	.L485
.L491:
	movl	12(%r12), %eax
	leal	-1(%rax), %edx
	movl	%edx, 12(%r12)
	jmp	.L492
.L456:
	movl	12(%r12), %eax
	leal	-1(%rax), %edx
	movl	%edx, 12(%r12)
	jmp	.L457
.L463:
	movl	12(%r12), %eax
	leal	-1(%rax), %edx
	movl	%edx, 12(%r12)
	jmp	.L464
.L470:
	movl	12(%r12), %eax
	leal	-1(%rax), %edx
	movl	%edx, 12(%r12)
	jmp	.L471
.L477:
	movl	12(%r12), %eax
	leal	-1(%rax), %edx
	movl	%edx, 12(%r12)
	jmp	.L478
.L400:
	movl	12(%r12), %eax
	leal	-1(%rax), %edx
	movl	%edx, 12(%r12)
	jmp	.L401
.L407:
	movl	12(%r12), %eax
	leal	-1(%rax), %edx
	movl	%edx, 12(%r12)
	jmp	.L408
.L414:
	movl	12(%r12), %eax
	leal	-1(%rax), %edx
	movl	%edx, 12(%r12)
	jmp	.L415
.L421:
	movl	12(%r12), %eax
	leal	-1(%rax), %edx
	movl	%edx, 12(%r12)
	jmp	.L422
.L428:
	movl	12(%r12), %eax
	leal	-1(%rax), %edx
	movl	%edx, 12(%r12)
	jmp	.L429
.L435:
	movl	12(%r12), %eax
	leal	-1(%rax), %edx
	movl	%edx, 12(%r12)
	jmp	.L436
.L442:
	movl	12(%r12), %eax
	leal	-1(%rax), %edx
	movl	%edx, 12(%r12)
	jmp	.L443
.L449:
	movl	12(%r12), %eax
	leal	-1(%rax), %edx
	movl	%edx, 12(%r12)
	jmp	.L450
	.cfi_endproc
.LFE12712:
	.size	_ZThn16_N8asiodnp311MasterStackD1Ev, .-_ZThn16_N8asiodnp311MasterStackD1Ev
	.section	.text.unlikely._ZSt20__throw_bad_weak_ptrv,"axG",@progbits,_ZSt20__throw_bad_weak_ptrv,comdat
	.weak	_ZSt20__throw_bad_weak_ptrv
	.type	_ZSt20__throw_bad_weak_ptrv, @function
_ZSt20__throw_bad_weak_ptrv:
.LFB1570:
	.cfi_startproc
	endbr64
	pushq	%rax
	.cfi_def_cfa_offset 16
	popq	%rax
	.cfi_def_cfa_offset 8
	movl	$8, %edi
	pushq	%rax
	.cfi_def_cfa_offset 16
	call	__cxa_allocate_exception@PLT
	movq	_ZNSt12bad_weak_ptrD1Ev@GOTPCREL(%rip), %rdx
	movq	_ZTISt12bad_weak_ptr@GOTPCREL(%rip), %rsi
	movq	%rax, %rdi
	movq	_ZTVSt12bad_weak_ptr@GOTPCREL(%rip), %rax
	addq	$16, %rax
	movq	%rax, (%rdi)
	call	__cxa_throw@PLT
	.cfi_endproc
.LFE1570:
	.size	_ZSt20__throw_bad_weak_ptrv, .-_ZSt20__throw_bad_weak_ptrv
	.section	.text._ZN4asio28asio_handler_is_continuationEz,"axG",@progbits,_ZN4asio28asio_handler_is_continuationEz,comdat
	.p2align 4
	.weak	_ZN4asio28asio_handler_is_continuationEz
	.type	_ZN4asio28asio_handler_is_continuationEz, @function
_ZN4asio28asio_handler_is_continuationEz:
.LFB2611:
	.cfi_startproc
	endbr64
	xorl	%eax, %eax
	ret
	.cfi_endproc
.LFE2611:
	.size	_ZN4asio28asio_handler_is_continuationEz, .-_ZN4asio28asio_handler_is_continuationEz
	.section	.text._ZN4asio6detail14strand_service7do_postERPNS1_11strand_implEPNS0_25task_io_service_operationEb,"axG",@progbits,_ZN4asio6detail14strand_service7do_postERPNS1_11strand_implEPNS0_25task_io_service_operationEb,comdat
	.align 2
	.p2align 4
	.weak	_ZN4asio6detail14strand_service7do_postERPNS1_11strand_implEPNS0_25task_io_service_operationEb
	.type	_ZN4asio6detail14strand_service7do_postERPNS1_11strand_implEPNS0_25task_io_service_operationEb, @function
_ZN4asio6detail14strand_service7do_postERPNS1_11strand_implEPNS0_25task_io_service_operationEb:
.LFB6514:
	.cfi_startproc
	endbr64
	pushq	%r13
	.cfi_def_cfa_offset 16
	.cfi_offset 13, -16
	movl	%ecx, %r13d
	pushq	%r12
	.cfi_def_cfa_offset 24
	.cfi_offset 12, -24
	movq	%rdi, %r12
	pushq	%rbp
	.cfi_def_cfa_offset 32
	.cfi_offset 6, -32
	movq	%rsi, %rbp
	pushq	%rbx
	.cfi_def_cfa_offset 40
	.cfi_offset 3, -40
	movq	%rdx, %rbx
	subq	$40, %rsp
	.cfi_def_cfa_offset 80
	movq	%fs:40, %rax
	movq	%rax, 24(%rsp)
	xorl	%eax, %eax
	movq	(%rsi), %rax
	leaq	24(%rax), %rdi
	call	pthread_mutex_lock@PLT
	movq	0(%rbp), %rdi
	cmpb	$0, 64(%rdi)
	je	.L553
	cmpq	$0, 80(%rdi)
	movq	$0, (%rbx)
	je	.L554
	movq	80(%rdi), %rax
	movq	%rbx, (%rax)
	movq	%rbx, 80(%rdi)
.L555:
	addq	$24, %rdi
	call	pthread_mutex_unlock@PLT
.L552:
	movq	24(%rsp), %rax
	xorq	%fs:40, %rax
	jne	.L582
	addq	$40, %rsp
	.cfi_remember_state
	.cfi_def_cfa_offset 40
	popq	%rbx
	.cfi_def_cfa_offset 32
	popq	%rbp
	.cfi_def_cfa_offset 24
	popq	%r12
	.cfi_def_cfa_offset 16
	popq	%r13
	.cfi_def_cfa_offset 8
	ret
	.p2align 4,,10
	.p2align 3
.L554:
	.cfi_restore_state
	movq	%rbx, %xmm0
	punpcklqdq	%xmm0, %xmm0
	movups	%xmm0, 72(%rdi)
	jmp	.L555
	.p2align 4,,10
	.p2align 3
.L553:
	movb	$1, 64(%rdi)
	addq	$24, %rdi
	call	pthread_mutex_unlock@PLT
	movq	0(%rbp), %rbp
	movq	$0, (%rbx)
	cmpq	$0, 96(%rbp)
	je	.L557
	movq	96(%rbp), %rax
	movq	%rbx, (%rax)
	movq	%rbx, 96(%rbp)
.L558:
	movq	40(%r12), %rbx
	cmpb	$0, 40(%rbx)
	jne	.L571
	testb	%r13b, %r13b
	je	.L559
.L571:
	data16	leaq	_ZN4asio6detail15keyword_tss_ptrINS0_10call_stackINS0_15task_io_serviceENS0_27task_io_service_thread_infoEE7contextEE6value_E@tlsgd(%rip), %rdi
	.value	0x6666
	rex64
	call	__tls_get_addr@PLT
	movq	(%rax), %rax
	testq	%rax, %rax
	jne	.L563
	jmp	.L559
	.p2align 4,,10
	.p2align 3
.L561:
	movq	16(%rax), %rax
	testq	%rax, %rax
	je	.L559
.L563:
	cmpq	(%rax), %rbx
	jne	.L561
	movq	8(%rax), %rax
	testq	%rax, %rax
	je	.L559
	addq	$1, 24(%rax)
	cmpq	$0, 16(%rax)
	movq	$0, 0(%rbp)
	je	.L564
	movq	16(%rax), %rdx
	movq	%rbp, (%rdx)
	movq	%rbp, 16(%rax)
	jmp	.L552
	.p2align 4,,10
	.p2align 3
.L559:
	lock addq	$1, 184(%rbx)
	leaq	48(%rbx), %r12
	movq	%r12, %rdi
	call	pthread_mutex_lock@PLT
	cmpq	$0, 200(%rbx)
	movq	$0, 0(%rbp)
	je	.L565
	movq	200(%rbx), %rax
	movq	%rbp, (%rax)
	movq	%rbp, 200(%rbx)
.L566:
	movq	136(%rbx), %rax
	orq	$1, %rax
	movq	%rax, 136(%rbx)
	cmpq	$1, %rax
	je	.L567
	movq	%r12, %rdi
	call	pthread_mutex_unlock@PLT
	leaq	88(%rbx), %rdi
	call	pthread_cond_signal@PLT
	jmp	.L552
	.p2align 4,,10
	.p2align 3
.L567:
	cmpb	$0, 176(%rbx)
	jne	.L569
	movq	144(%rbx), %rax
	testq	%rax, %rax
	je	.L569
	leaq	88(%rax), %rdx
	movb	$1, 176(%rbx)
	movl	96(%rax), %edi
	leaq	12(%rsp), %rcx
	movq	%rdx, 16(%rsp)
	movl	88(%rax), %edx
	movl	$3, %esi
	movl	$-2147483639, 12(%rsp)
	call	epoll_ctl@PLT
.L569:
	movq	%r12, %rdi
	call	pthread_mutex_unlock@PLT
	jmp	.L552
	.p2align 4,,10
	.p2align 3
.L557:
	movq	%rbx, %xmm0
	punpcklqdq	%xmm0, %xmm0
	movups	%xmm0, 88(%rbp)
	jmp	.L558
	.p2align 4,,10
	.p2align 3
.L565:
	movq	%rbp, %xmm0
	punpcklqdq	%xmm0, %xmm0
	movups	%xmm0, 192(%rbx)
	jmp	.L566
	.p2align 4,,10
	.p2align 3
.L564:
	movq	%rbp, %xmm0
	punpcklqdq	%xmm0, %xmm0
	movups	%xmm0, 8(%rax)
	jmp	.L552
.L582:
	call	__stack_chk_fail@PLT
	.cfi_endproc
.LFE6514:
	.size	_ZN4asio6detail14strand_service7do_postERPNS1_11strand_implEPNS0_25task_io_service_operationEb, .-_ZN4asio6detail14strand_service7do_postERPNS1_11strand_implEPNS0_25task_io_service_operationEb
	.section	.text._ZNSt13__future_base13_State_baseV24waitEv,"axG",@progbits,_ZNSt13__future_base13_State_baseV24waitEv,comdat
	.align 2
	.p2align 4
	.weak	_ZNSt13__future_base13_State_baseV24waitEv
	.type	_ZNSt13__future_base13_State_baseV24waitEv, @function
_ZNSt13__future_base13_State_baseV24waitEv:
.LFB6753:
	.cfi_startproc
	endbr64
	pushq	%rbp
	.cfi_def_cfa_offset 16
	.cfi_offset 6, -16
	pushq	%rbx
	.cfi_def_cfa_offset 24
	.cfi_offset 3, -24
	movq	%rdi, %rbx
	subq	$8, %rsp
	.cfi_def_cfa_offset 32
	movq	(%rdi), %rax
	call	*16(%rax)
	movl	16(%rbx), %edx
	andl	$2147483647, %edx
	cmpl	$1, %edx
	je	.L584
	leaq	16(%rbx), %rbp
	jmp	.L585
	.p2align 4,,10
	.p2align 3
.L593:
	cmpl	$1, %edx
	je	.L584
.L585:
	lock orl	$-2147483648, 0(%rbp)
	xorl	%r9d, %r9d
	xorl	%r8d, %r8d
	xorl	%ecx, %ecx
	orl	$-2147483648, %edx
	movq	%rbp, %rsi
	movq	%rbp, %rdi
	call	_ZNSt28__atomic_futex_unsigned_base19_M_futex_wait_untilEPjjbNSt6chrono8durationIlSt5ratioILl1ELl1EEEENS2_IlS3_ILl1ELl1000000000EEEE@PLT
	movl	0(%rbp), %edx
	andl	$2147483647, %edx
	cmpb	$1, %al
	je	.L593
.L584:
	movq	8(%rbx), %rax
	addq	$8, %rsp
	.cfi_def_cfa_offset 24
	popq	%rbx
	.cfi_def_cfa_offset 16
	popq	%rbp
	.cfi_def_cfa_offset 8
	ret
	.cfi_endproc
.LFE6753:
	.size	_ZNSt13__future_base13_State_baseV24waitEv, .-_ZNSt13__future_base13_State_baseV24waitEv
	.section	.text._ZN7openpal6LoggerD2Ev,"axG",@progbits,_ZN7openpal6LoggerD5Ev,comdat
	.align 2
	.p2align 4
	.weak	_ZN7openpal6LoggerD2Ev
	.type	_ZN7openpal6LoggerD2Ev, @function
_ZN7openpal6LoggerD2Ev:
.LFB7044:
	.cfi_startproc
	endbr64
	pushq	%r12
	.cfi_def_cfa_offset 16
	.cfi_offset 12, -16
	pushq	%rbp
	.cfi_def_cfa_offset 24
	.cfi_offset 6, -24
	pushq	%rbx
	.cfi_def_cfa_offset 32
	.cfi_offset 3, -32
	movq	24(%rdi), %rbp
	movq	%rdi, %rbx
	testq	%rbp, %rbp
	je	.L596
	movq	_ZL28__gthrw___pthread_key_createPjPFvPvE@GOTPCREL(%rip), %r12
	testq	%r12, %r12
	je	.L597
	movl	$-1, %eax
	lock xaddl	%eax, 8(%rbp)
	cmpl	$1, %eax
	je	.L610
	.p2align 4,,10
	.p2align 3
.L596:
	movq	8(%rbx), %rbp
	testq	%rbp, %rbp
	je	.L594
	movq	_ZL28__gthrw___pthread_key_createPjPFvPvE@GOTPCREL(%rip), %r12
	testq	%r12, %r12
	je	.L604
	movl	$-1, %eax
	lock xaddl	%eax, 8(%rbp)
	cmpl	$1, %eax
	je	.L611
.L594:
	popq	%rbx
	.cfi_remember_state
	.cfi_def_cfa_offset 24
	popq	%rbp
	.cfi_def_cfa_offset 16
	popq	%r12
	.cfi_def_cfa_offset 8
	ret
	.p2align 4,,10
	.p2align 3
.L597:
	.cfi_restore_state
	movl	8(%rbp), %eax
	leal	-1(%rax), %edx
	movl	%edx, 8(%rbp)
	cmpl	$1, %eax
	jne	.L596
.L610:
	movq	0(%rbp), %rax
	movq	%rbp, %rdi
	call	*16(%rax)
	testq	%r12, %r12
	je	.L600
	movl	$-1, %eax
	lock xaddl	%eax, 12(%rbp)
.L601:
	cmpl	$1, %eax
	jne	.L596
	movq	0(%rbp), %rax
	movq	%rbp, %rdi
	call	*24(%rax)
	jmp	.L596
	.p2align 4,,10
	.p2align 3
.L604:
	movl	8(%rbp), %eax
	leal	-1(%rax), %edx
	movl	%edx, 8(%rbp)
	cmpl	$1, %eax
	jne	.L594
.L611:
	movq	0(%rbp), %rax
	movq	%rbp, %rdi
	call	*16(%rax)
	testq	%r12, %r12
	je	.L607
	movl	$-1, %eax
	lock xaddl	%eax, 12(%rbp)
.L608:
	cmpl	$1, %eax
	jne	.L594
	movq	0(%rbp), %rax
	popq	%rbx
	.cfi_remember_state
	.cfi_def_cfa_offset 24
	movq	%rbp, %rdi
	popq	%rbp
	.cfi_def_cfa_offset 16
	popq	%r12
	.cfi_def_cfa_offset 8
	movq	24(%rax), %rax
	jmp	*%rax
	.p2align 4,,10
	.p2align 3
.L600:
	.cfi_restore_state
	movl	12(%rbp), %eax
	leal	-1(%rax), %edx
	movl	%edx, 12(%rbp)
	jmp	.L601
	.p2align 4,,10
	.p2align 3
.L607:
	movl	12(%rbp), %eax
	leal	-1(%rax), %edx
	movl	%edx, 12(%rbp)
	jmp	.L608
	.cfi_endproc
.LFE7044:
	.size	_ZN7openpal6LoggerD2Ev, .-_ZN7openpal6LoggerD2Ev
	.weak	_ZN7openpal6LoggerD1Ev
	.set	_ZN7openpal6LoggerD1Ev,_ZN7openpal6LoggerD2Ev
	.section	.text._ZNSt16_Sp_counted_baseILN9__gnu_cxx12_Lock_policyE2EE10_M_releaseEv,"axG",@progbits,_ZNSt16_Sp_counted_baseILN9__gnu_cxx12_Lock_policyE2EE10_M_releaseEv,comdat
	.align 2
	.p2align 4
	.weak	_ZNSt16_Sp_counted_baseILN9__gnu_cxx12_Lock_policyE2EE10_M_releaseEv
	.type	_ZNSt16_Sp_counted_baseILN9__gnu_cxx12_Lock_policyE2EE10_M_releaseEv, @function
_ZNSt16_Sp_counted_baseILN9__gnu_cxx12_Lock_policyE2EE10_M_releaseEv:
.LFB9713:
	.cfi_startproc
	endbr64
	pushq	%rbp
	.cfi_def_cfa_offset 16
	.cfi_offset 6, -16
	movq	%rdi, %rbp
	pushq	%rbx
	.cfi_def_cfa_offset 24
	.cfi_offset 3, -24
	subq	$8, %rsp
	.cfi_def_cfa_offset 32
	movq	_ZL28__gthrw___pthread_key_createPjPFvPvE@GOTPCREL(%rip), %rbx
	testq	%rbx, %rbx
	je	.L613
	movl	$-1, %eax
	lock xaddl	%eax, 8(%rdi)
	cmpl	$1, %eax
	je	.L621
.L612:
	addq	$8, %rsp
	.cfi_remember_state
	.cfi_def_cfa_offset 24
	popq	%rbx
	.cfi_def_cfa_offset 16
	popq	%rbp
	.cfi_def_cfa_offset 8
	ret
	.p2align 4,,10
	.p2align 3
.L613:
	.cfi_restore_state
	movl	8(%rdi), %eax
	leal	-1(%rax), %edx
	movl	%edx, 8(%rdi)
	cmpl	$1, %eax
	jne	.L612
.L621:
	movq	0(%rbp), %rax
	movq	%rbp, %rdi
	call	*16(%rax)
	testq	%rbx, %rbx
	je	.L617
	movl	$-1, %eax
	lock xaddl	%eax, 12(%rbp)
.L618:
	cmpl	$1, %eax
	jne	.L612
	movq	0(%rbp), %rax
	movq	%rbp, %rdi
	movq	24(%rax), %rax
	addq	$8, %rsp
	.cfi_remember_state
	.cfi_def_cfa_offset 24
	popq	%rbx
	.cfi_def_cfa_offset 16
	popq	%rbp
	.cfi_def_cfa_offset 8
	jmp	*%rax
	.p2align 4,,10
	.p2align 3
.L617:
	.cfi_restore_state
	movl	12(%rbp), %eax
	leal	-1(%rax), %edx
	movl	%edx, 12(%rbp)
	jmp	.L618
	.cfi_endproc
.LFE9713:
	.size	_ZNSt16_Sp_counted_baseILN9__gnu_cxx12_Lock_policyE2EE10_M_releaseEv, .-_ZNSt16_Sp_counted_baseILN9__gnu_cxx12_Lock_policyE2EE10_M_releaseEv
	.text
	.p2align 4
	.type	_ZNSt14_Function_base13_Base_managerIZN8asiodnp311MasterStack6EnableEvEUlvE_E10_M_managerERSt9_Any_dataRKS5_St18_Manager_operation, @function
_ZNSt14_Function_base13_Base_managerIZN8asiodnp311MasterStack6EnableEvEUlvE_E10_M_managerERSt9_Any_dataRKS5_St18_Manager_operation:
.LFB9948:
	.cfi_startproc
	endbr64
	pushq	%rbp
	.cfi_def_cfa_offset 16
	.cfi_offset 6, -16
	pushq	%rbx
	.cfi_def_cfa_offset 24
	.cfi_offset 3, -24
	movq	%rdi, %rbx
	subq	$8, %rsp
	.cfi_def_cfa_offset 32
	cmpl	$2, %edx
	je	.L623
	ja	.L624
	testl	%edx, %edx
	je	.L643
	movq	(%rsi), %rax
	movq	%rax, (%rdi)
.L628:
	addq	$8, %rsp
	.cfi_remember_state
	.cfi_def_cfa_offset 24
	xorl	%eax, %eax
	popq	%rbx
	.cfi_def_cfa_offset 16
	popq	%rbp
	.cfi_def_cfa_offset 8
	ret
	.p2align 4,,10
	.p2align 3
.L624:
	.cfi_restore_state
	cmpl	$3, %edx
	jne	.L628
	movq	(%rdi), %rbp
	testq	%rbp, %rbp
	je	.L628
	movq	8(%rbp), %rdi
	testq	%rdi, %rdi
	je	.L631
	call	_ZNSt16_Sp_counted_baseILN9__gnu_cxx12_Lock_policyE2EE10_M_releaseEv@PLT
.L631:
	movq	%rbp, %rdi
	movl	$16, %esi
	call	_ZdlPvm@PLT
	addq	$8, %rsp
	.cfi_remember_state
	.cfi_def_cfa_offset 24
	xorl	%eax, %eax
	popq	%rbx
	.cfi_def_cfa_offset 16
	popq	%rbp
	.cfi_def_cfa_offset 8
	ret
	.p2align 4,,10
	.p2align 3
.L623:
	.cfi_restore_state
	movq	(%rsi), %rbp
	movl	$16, %edi
	call	_Znwm@PLT
	movq	0(%rbp), %rdx
	movq	%rdx, (%rax)
	movq	8(%rbp), %rdx
	movq	%rdx, 8(%rax)
	testq	%rdx, %rdx
	je	.L629
	cmpq	$0, _ZL28__gthrw___pthread_key_createPjPFvPvE@GOTPCREL(%rip)
	je	.L630
	lock addl	$1, 8(%rdx)
.L629:
	movq	%rax, (%rbx)
	addq	$8, %rsp
	.cfi_remember_state
	.cfi_def_cfa_offset 24
	xorl	%eax, %eax
	popq	%rbx
	.cfi_def_cfa_offset 16
	popq	%rbp
	.cfi_def_cfa_offset 8
	ret
	.p2align 4,,10
	.p2align 3
.L643:
	.cfi_restore_state
	leaq	_ZTIZN8asiodnp311MasterStack6EnableEvEUlvE_(%rip), %rax
	movq	%rax, (%rdi)
	addq	$8, %rsp
	.cfi_remember_state
	.cfi_def_cfa_offset 24
	xorl	%eax, %eax
	popq	%rbx
	.cfi_def_cfa_offset 16
	popq	%rbp
	.cfi_def_cfa_offset 8
	ret
	.p2align 4,,10
	.p2align 3
.L630:
	.cfi_restore_state
	addl	$1, 8(%rdx)
	jmp	.L629
	.cfi_endproc
.LFE9948:
	.size	_ZNSt14_Function_base13_Base_managerIZN8asiodnp311MasterStack6EnableEvEUlvE_E10_M_managerERSt9_Any_dataRKS5_St18_Manager_operation, .-_ZNSt14_Function_base13_Base_managerIZN8asiodnp311MasterStack6EnableEvEUlvE_E10_M_managerERSt9_Any_dataRKS5_St18_Manager_operation
	.p2align 4
	.type	_ZNSt14_Function_base13_Base_managerIZN8asiodnp311MasterStack7DisableEvEUlvE_E10_M_managerERSt9_Any_dataRKS5_St18_Manager_operation, @function
_ZNSt14_Function_base13_Base_managerIZN8asiodnp311MasterStack7DisableEvEUlvE_E10_M_managerERSt9_Any_dataRKS5_St18_Manager_operation:
.LFB9969:
	.cfi_startproc
	endbr64
	pushq	%rbp
	.cfi_def_cfa_offset 16
	.cfi_offset 6, -16
	pushq	%rbx
	.cfi_def_cfa_offset 24
	.cfi_offset 3, -24
	movq	%rdi, %rbx
	subq	$8, %rsp
	.cfi_def_cfa_offset 32
	cmpl	$2, %edx
	je	.L645
	ja	.L646
	testl	%edx, %edx
	je	.L665
	movq	(%rsi), %rax
	movq	%rax, (%rdi)
.L650:
	addq	$8, %rsp
	.cfi_remember_state
	.cfi_def_cfa_offset 24
	xorl	%eax, %eax
	popq	%rbx
	.cfi_def_cfa_offset 16
	popq	%rbp
	.cfi_def_cfa_offset 8
	ret
	.p2align 4,,10
	.p2align 3
.L646:
	.cfi_restore_state
	cmpl	$3, %edx
	jne	.L650
	movq	(%rdi), %rbp
	testq	%rbp, %rbp
	je	.L650
	movq	8(%rbp), %rdi
	testq	%rdi, %rdi
	je	.L653
	call	_ZNSt16_Sp_counted_baseILN9__gnu_cxx12_Lock_policyE2EE10_M_releaseEv@PLT
.L653:
	movq	%rbp, %rdi
	movl	$16, %esi
	call	_ZdlPvm@PLT
	addq	$8, %rsp
	.cfi_remember_state
	.cfi_def_cfa_offset 24
	xorl	%eax, %eax
	popq	%rbx
	.cfi_def_cfa_offset 16
	popq	%rbp
	.cfi_def_cfa_offset 8
	ret
	.p2align 4,,10
	.p2align 3
.L645:
	.cfi_restore_state
	movq	(%rsi), %rbp
	movl	$16, %edi
	call	_Znwm@PLT
	movq	0(%rbp), %rdx
	movq	%rdx, (%rax)
	movq	8(%rbp), %rdx
	movq	%rdx, 8(%rax)
	testq	%rdx, %rdx
	je	.L651
	cmpq	$0, _ZL28__gthrw___pthread_key_createPjPFvPvE@GOTPCREL(%rip)
	je	.L652
	lock addl	$1, 8(%rdx)
.L651:
	movq	%rax, (%rbx)
	addq	$8, %rsp
	.cfi_remember_state
	.cfi_def_cfa_offset 24
	xorl	%eax, %eax
	popq	%rbx
	.cfi_def_cfa_offset 16
	popq	%rbp
	.cfi_def_cfa_offset 8
	ret
	.p2align 4,,10
	.p2align 3
.L665:
	.cfi_restore_state
	leaq	_ZTIZN8asiodnp311MasterStack7DisableEvEUlvE_(%rip), %rax
	movq	%rax, (%rdi)
	addq	$8, %rsp
	.cfi_remember_state
	.cfi_def_cfa_offset 24
	xorl	%eax, %eax
	popq	%rbx
	.cfi_def_cfa_offset 16
	popq	%rbp
	.cfi_def_cfa_offset 8
	ret
	.p2align 4,,10
	.p2align 3
.L652:
	.cfi_restore_state
	addl	$1, 8(%rdx)
	jmp	.L651
	.cfi_endproc
.LFE9969:
	.size	_ZNSt14_Function_base13_Base_managerIZN8asiodnp311MasterStack7DisableEvEUlvE_E10_M_managerERSt9_Any_dataRKS5_St18_Manager_operation, .-_ZNSt14_Function_base13_Base_managerIZN8asiodnp311MasterStack7DisableEvEUlvE_E10_M_managerERSt9_Any_dataRKS5_St18_Manager_operation
	.p2align 4
	.type	_ZNSt14_Function_base13_Base_managerIZN8asiodnp311MasterStack18GetStackStatisticsEvEUlvE_E10_M_managerERSt9_Any_dataRKS5_St18_Manager_operation, @function
_ZNSt14_Function_base13_Base_managerIZN8asiodnp311MasterStack18GetStackStatisticsEvEUlvE_E10_M_managerERSt9_Any_dataRKS5_St18_Manager_operation:
.LFB9985:
	.cfi_startproc
	endbr64
	pushq	%rbp
	.cfi_def_cfa_offset 16
	.cfi_offset 6, -16
	pushq	%rbx
	.cfi_def_cfa_offset 24
	.cfi_offset 3, -24
	movq	%rdi, %rbx
	subq	$8, %rsp
	.cfi_def_cfa_offset 32
	cmpl	$2, %edx
	je	.L667
	ja	.L668
	testl	%edx, %edx
	je	.L687
	movq	(%rsi), %rax
	movq	%rax, (%rdi)
.L672:
	addq	$8, %rsp
	.cfi_remember_state
	.cfi_def_cfa_offset 24
	xorl	%eax, %eax
	popq	%rbx
	.cfi_def_cfa_offset 16
	popq	%rbp
	.cfi_def_cfa_offset 8
	ret
	.p2align 4,,10
	.p2align 3
.L668:
	.cfi_restore_state
	cmpl	$3, %edx
	jne	.L672
	movq	(%rdi), %rbp
	testq	%rbp, %rbp
	je	.L672
	movq	8(%rbp), %rdi
	testq	%rdi, %rdi
	je	.L675
	call	_ZNSt16_Sp_counted_baseILN9__gnu_cxx12_Lock_policyE2EE10_M_releaseEv@PLT
.L675:
	movq	%rbp, %rdi
	movl	$16, %esi
	call	_ZdlPvm@PLT
	addq	$8, %rsp
	.cfi_remember_state
	.cfi_def_cfa_offset 24
	xorl	%eax, %eax
	popq	%rbx
	.cfi_def_cfa_offset 16
	popq	%rbp
	.cfi_def_cfa_offset 8
	ret
	.p2align 4,,10
	.p2align 3
.L667:
	.cfi_restore_state
	movq	(%rsi), %rbp
	movl	$16, %edi
	call	_Znwm@PLT
	movq	0(%rbp), %rdx
	movq	%rdx, (%rax)
	movq	8(%rbp), %rdx
	movq	%rdx, 8(%rax)
	testq	%rdx, %rdx
	je	.L673
	cmpq	$0, _ZL28__gthrw___pthread_key_createPjPFvPvE@GOTPCREL(%rip)
	je	.L674
	lock addl	$1, 8(%rdx)
.L673:
	movq	%rax, (%rbx)
	addq	$8, %rsp
	.cfi_remember_state
	.cfi_def_cfa_offset 24
	xorl	%eax, %eax
	popq	%rbx
	.cfi_def_cfa_offset 16
	popq	%rbp
	.cfi_def_cfa_offset 8
	ret
	.p2align 4,,10
	.p2align 3
.L687:
	.cfi_restore_state
	leaq	_ZTIZN8asiodnp311MasterStack18GetStackStatisticsEvEUlvE_(%rip), %rax
	movq	%rax, (%rdi)
	addq	$8, %rsp
	.cfi_remember_state
	.cfi_def_cfa_offset 24
	xorl	%eax, %eax
	popq	%rbx
	.cfi_def_cfa_offset 16
	popq	%rbp
	.cfi_def_cfa_offset 8
	ret
	.p2align 4,,10
	.p2align 3
.L674:
	.cfi_restore_state
	addl	$1, 8(%rdx)
	jmp	.L673
	.cfi_endproc
.LFE9985:
	.size	_ZNSt14_Function_base13_Base_managerIZN8asiodnp311MasterStack18GetStackStatisticsEvEUlvE_E10_M_managerERSt9_Any_dataRKS5_St18_Manager_operation, .-_ZNSt14_Function_base13_Base_managerIZN8asiodnp311MasterStack18GetStackStatisticsEvEUlvE_E10_M_managerERSt9_Any_dataRKS5_St18_Manager_operation
	.section	.text.unlikely
	.align 2
	.type	_ZZN8asiodnp311MasterStack7AddScanEN7openpal12TimeDurationERKSt6vectorIN8opendnp36HeaderESaIS5_EERKNS4_10TaskConfigEENUlvE_D2Ev, @function
_ZZN8asiodnp311MasterStack7AddScanEN7openpal12TimeDurationERKSt6vectorIN8opendnp36HeaderESaIS5_EERKNS4_10TaskConfigEENUlvE_D2Ev:
.LFB8262:
	.cfi_startproc
	.cfi_personality 0x9b,DW.ref.__gxx_personality_v0
	.cfi_lsda 0x1b,.LLSDA8262
	pushq	%rbx
	.cfi_def_cfa_offset 16
	.cfi_offset 3, -16
	movq	32(%rdi), %rax
	movq	%rdi, %rbx
	testq	%rax, %rax
	je	.L689
	leaq	16(%rdi), %rdi
	movl	$3, %edx
	movq	%rdi, %rsi
	call	*%rax
.L689:
	movq	8(%rbx), %rdi
	testq	%rdi, %rdi
	je	.L688
	popq	%rbx
	.cfi_remember_state
	.cfi_def_cfa_offset 8
	jmp	_ZNSt16_Sp_counted_baseILN9__gnu_cxx12_Lock_policyE2EE10_M_releaseEv@PLT
.L688:
	.cfi_restore_state
	popq	%rbx
	.cfi_def_cfa_offset 8
	ret
	.cfi_endproc
.LFE8262:
	.section	.gcc_except_table
.LLSDA8262:
	.byte	0xff
	.byte	0xff
	.byte	0x1
	.uleb128 .LLSDACSE8262-.LLSDACSB8262
.LLSDACSB8262:
.LLSDACSE8262:
	.section	.text.unlikely
	.size	_ZZN8asiodnp311MasterStack7AddScanEN7openpal12TimeDurationERKSt6vectorIN8opendnp36HeaderESaIS5_EERKNS4_10TaskConfigEENUlvE_D2Ev, .-_ZZN8asiodnp311MasterStack7AddScanEN7openpal12TimeDurationERKSt6vectorIN8opendnp36HeaderESaIS5_EERKNS4_10TaskConfigEENUlvE_D2Ev
	.set	_ZZN8asiodnp311MasterStack7AddScanEN7openpal12TimeDurationERKSt6vectorIN8opendnp36HeaderESaIS5_EERKNS4_10TaskConfigEENUlvE_D1Ev,_ZZN8asiodnp311MasterStack7AddScanEN7openpal12TimeDurationERKSt6vectorIN8opendnp36HeaderESaIS5_EERKNS4_10TaskConfigEENUlvE_D2Ev
	.text
	.p2align 4
	.type	_ZNSt14_Function_base13_Base_managerIZN8asiodnp311MasterStack17AddAllObjectsScanEN8opendnp316GroupVariationIDEN7openpal12TimeDurationERKNS3_10TaskConfigEEUlvE_E10_M_managerERSt9_Any_dataRKSC_St18_Manager_operation, @function
_ZNSt14_Function_base13_Base_managerIZN8asiodnp311MasterStack17AddAllObjectsScanEN8opendnp316GroupVariationIDEN7openpal12TimeDurationERKNS3_10TaskConfigEEUlvE_E10_M_managerERSt9_Any_dataRKSC_St18_Manager_operation:
.LFB10057:
	.cfi_startproc
	endbr64
	pushq	%rbp
	.cfi_def_cfa_offset 16
	.cfi_offset 6, -16
	pushq	%rbx
	.cfi_def_cfa_offset 24
	.cfi_offset 3, -24
	movq	%rdi, %rbx
	subq	$8, %rsp
	.cfi_def_cfa_offset 32
	cmpl	$2, %edx
	je	.L696
	ja	.L697
	testl	%edx, %edx
	je	.L716
	movq	(%rsi), %rax
	movq	%rax, (%rdi)
.L701:
	addq	$8, %rsp
	.cfi_remember_state
	.cfi_def_cfa_offset 24
	xorl	%eax, %eax
	popq	%rbx
	.cfi_def_cfa_offset 16
	popq	%rbp
	.cfi_def_cfa_offset 8
	ret
	.p2align 4,,10
	.p2align 3
.L697:
	.cfi_restore_state
	cmpl	$3, %edx
	jne	.L701
	movq	(%rdi), %rbp
	testq	%rbp, %rbp
	je	.L701
	movq	8(%rbp), %rdi
	testq	%rdi, %rdi
	je	.L704
	call	_ZNSt16_Sp_counted_baseILN9__gnu_cxx12_Lock_policyE2EE10_M_releaseEv@PLT
.L704:
	movq	%rbp, %rdi
	movl	$48, %esi
	call	_ZdlPvm@PLT
	addq	$8, %rsp
	.cfi_remember_state
	.cfi_def_cfa_offset 24
	xorl	%eax, %eax
	popq	%rbx
	.cfi_def_cfa_offset 16
	popq	%rbp
	.cfi_def_cfa_offset 8
	ret
	.p2align 4,,10
	.p2align 3
.L696:
	.cfi_restore_state
	movq	(%rsi), %rbp
	movl	$48, %edi
	call	_Znwm@PLT
	movq	0(%rbp), %rdx
	movq	%rdx, (%rax)
	movq	8(%rbp), %rdx
	movq	%rdx, 8(%rax)
	testq	%rdx, %rdx
	je	.L702
	cmpq	$0, _ZL28__gthrw___pthread_key_createPjPFvPvE@GOTPCREL(%rip)
	je	.L703
	lock addl	$1, 8(%rdx)
.L702:
	movzwl	16(%rbp), %edx
	movdqu	32(%rbp), %xmm0
	movw	%dx, 16(%rax)
	movq	24(%rbp), %rdx
	movups	%xmm0, 32(%rax)
	movq	%rdx, 24(%rax)
	movq	%rax, (%rbx)
	addq	$8, %rsp
	.cfi_remember_state
	.cfi_def_cfa_offset 24
	xorl	%eax, %eax
	popq	%rbx
	.cfi_def_cfa_offset 16
	popq	%rbp
	.cfi_def_cfa_offset 8
	ret
	.p2align 4,,10
	.p2align 3
.L716:
	.cfi_restore_state
	leaq	_ZTIZN8asiodnp311MasterStack17AddAllObjectsScanEN8opendnp316GroupVariationIDEN7openpal12TimeDurationERKNS1_10TaskConfigEEUlvE_(%rip), %rax
	movq	%rax, (%rdi)
	addq	$8, %rsp
	.cfi_remember_state
	.cfi_def_cfa_offset 24
	xorl	%eax, %eax
	popq	%rbx
	.cfi_def_cfa_offset 16
	popq	%rbp
	.cfi_def_cfa_offset 8
	ret
	.p2align 4,,10
	.p2align 3
.L703:
	.cfi_restore_state
	addl	$1, 8(%rdx)
	jmp	.L702
	.cfi_endproc
.LFE10057:
	.size	_ZNSt14_Function_base13_Base_managerIZN8asiodnp311MasterStack17AddAllObjectsScanEN8opendnp316GroupVariationIDEN7openpal12TimeDurationERKNS3_10TaskConfigEEUlvE_E10_M_managerERSt9_Any_dataRKSC_St18_Manager_operation, .-_ZNSt14_Function_base13_Base_managerIZN8asiodnp311MasterStack17AddAllObjectsScanEN8opendnp316GroupVariationIDEN7openpal12TimeDurationERKNS3_10TaskConfigEEUlvE_E10_M_managerERSt9_Any_dataRKSC_St18_Manager_operation
	.p2align 4
	.type	_ZNSt14_Function_base13_Base_managerIZN8asiodnp311MasterStack12AddClassScanERKN8opendnp310ClassFieldEN7openpal12TimeDurationERKNS3_10TaskConfigEEUlvE_E10_M_managerERSt9_Any_dataRKSE_St18_Manager_operation, @function
_ZNSt14_Function_base13_Base_managerIZN8asiodnp311MasterStack12AddClassScanERKN8opendnp310ClassFieldEN7openpal12TimeDurationERKNS3_10TaskConfigEEUlvE_E10_M_managerERSt9_Any_dataRKSE_St18_Manager_operation:
.LFB10061:
	.cfi_startproc
	endbr64
	pushq	%rbp
	.cfi_def_cfa_offset 16
	.cfi_offset 6, -16
	pushq	%rbx
	.cfi_def_cfa_offset 24
	.cfi_offset 3, -24
	movq	%rdi, %rbx
	subq	$8, %rsp
	.cfi_def_cfa_offset 32
	cmpl	$2, %edx
	je	.L718
	ja	.L719
	testl	%edx, %edx
	je	.L738
	movq	(%rsi), %rax
	movq	%rax, (%rdi)
.L723:
	addq	$8, %rsp
	.cfi_remember_state
	.cfi_def_cfa_offset 24
	xorl	%eax, %eax
	popq	%rbx
	.cfi_def_cfa_offset 16
	popq	%rbp
	.cfi_def_cfa_offset 8
	ret
	.p2align 4,,10
	.p2align 3
.L719:
	.cfi_restore_state
	cmpl	$3, %edx
	jne	.L723
	movq	(%rdi), %rbp
	testq	%rbp, %rbp
	je	.L723
	movq	8(%rbp), %rdi
	testq	%rdi, %rdi
	je	.L726
	call	_ZNSt16_Sp_counted_baseILN9__gnu_cxx12_Lock_policyE2EE10_M_releaseEv@PLT
.L726:
	movq	%rbp, %rdi
	movl	$48, %esi
	call	_ZdlPvm@PLT
	addq	$8, %rsp
	.cfi_remember_state
	.cfi_def_cfa_offset 24
	xorl	%eax, %eax
	popq	%rbx
	.cfi_def_cfa_offset 16
	popq	%rbp
	.cfi_def_cfa_offset 8
	ret
	.p2align 4,,10
	.p2align 3
.L718:
	.cfi_restore_state
	movq	(%rsi), %rbp
	movl	$48, %edi
	call	_Znwm@PLT
	movq	0(%rbp), %rdx
	movq	%rdx, (%rax)
	movq	8(%rbp), %rdx
	movq	%rdx, 8(%rax)
	testq	%rdx, %rdx
	je	.L724
	cmpq	$0, _ZL28__gthrw___pthread_key_createPjPFvPvE@GOTPCREL(%rip)
	je	.L725
	lock addl	$1, 8(%rdx)
.L724:
	movzbl	16(%rbp), %edx
	movdqu	32(%rbp), %xmm0
	movb	%dl, 16(%rax)
	movq	24(%rbp), %rdx
	movups	%xmm0, 32(%rax)
	movq	%rdx, 24(%rax)
	movq	%rax, (%rbx)
	addq	$8, %rsp
	.cfi_remember_state
	.cfi_def_cfa_offset 24
	xorl	%eax, %eax
	popq	%rbx
	.cfi_def_cfa_offset 16
	popq	%rbp
	.cfi_def_cfa_offset 8
	ret
	.p2align 4,,10
	.p2align 3
.L738:
	.cfi_restore_state
	leaq	_ZTIZN8asiodnp311MasterStack12AddClassScanERKN8opendnp310ClassFieldEN7openpal12TimeDurationERKNS1_10TaskConfigEEUlvE_(%rip), %rax
	movq	%rax, (%rdi)
	addq	$8, %rsp
	.cfi_remember_state
	.cfi_def_cfa_offset 24
	xorl	%eax, %eax
	popq	%rbx
	.cfi_def_cfa_offset 16
	popq	%rbp
	.cfi_def_cfa_offset 8
	ret
	.p2align 4,,10
	.p2align 3
.L725:
	.cfi_restore_state
	addl	$1, 8(%rdx)
	jmp	.L724
	.cfi_endproc
.LFE10061:
	.size	_ZNSt14_Function_base13_Base_managerIZN8asiodnp311MasterStack12AddClassScanERKN8opendnp310ClassFieldEN7openpal12TimeDurationERKNS3_10TaskConfigEEUlvE_E10_M_managerERSt9_Any_dataRKSE_St18_Manager_operation, .-_ZNSt14_Function_base13_Base_managerIZN8asiodnp311MasterStack12AddClassScanERKN8opendnp310ClassFieldEN7openpal12TimeDurationERKNS3_10TaskConfigEEUlvE_E10_M_managerERSt9_Any_dataRKSE_St18_Manager_operation
	.p2align 4
	.type	_ZNSt14_Function_base13_Base_managerIZN8asiodnp311MasterStack12AddRangeScanEN8opendnp316GroupVariationIDEttN7openpal12TimeDurationERKNS3_10TaskConfigEEUlvE_E10_M_managerERSt9_Any_dataRKSC_St18_Manager_operation, @function
_ZNSt14_Function_base13_Base_managerIZN8asiodnp311MasterStack12AddRangeScanEN8opendnp316GroupVariationIDEttN7openpal12TimeDurationERKNS3_10TaskConfigEEUlvE_E10_M_managerERSt9_Any_dataRKSC_St18_Manager_operation:
.LFB10065:
	.cfi_startproc
	endbr64
	pushq	%rbp
	.cfi_def_cfa_offset 16
	.cfi_offset 6, -16
	pushq	%rbx
	.cfi_def_cfa_offset 24
	.cfi_offset 3, -24
	movq	%rdi, %rbx
	subq	$8, %rsp
	.cfi_def_cfa_offset 32
	cmpl	$2, %edx
	je	.L740
	ja	.L741
	testl	%edx, %edx
	je	.L760
	movq	(%rsi), %rax
	movq	%rax, (%rdi)
.L745:
	addq	$8, %rsp
	.cfi_remember_state
	.cfi_def_cfa_offset 24
	xorl	%eax, %eax
	popq	%rbx
	.cfi_def_cfa_offset 16
	popq	%rbp
	.cfi_def_cfa_offset 8
	ret
	.p2align 4,,10
	.p2align 3
.L741:
	.cfi_restore_state
	cmpl	$3, %edx
	jne	.L745
	movq	(%rdi), %rbp
	testq	%rbp, %rbp
	je	.L745
	movq	8(%rbp), %rdi
	testq	%rdi, %rdi
	je	.L748
	call	_ZNSt16_Sp_counted_baseILN9__gnu_cxx12_Lock_policyE2EE10_M_releaseEv@PLT
.L748:
	movq	%rbp, %rdi
	movl	$48, %esi
	call	_ZdlPvm@PLT
	addq	$8, %rsp
	.cfi_remember_state
	.cfi_def_cfa_offset 24
	xorl	%eax, %eax
	popq	%rbx
	.cfi_def_cfa_offset 16
	popq	%rbp
	.cfi_def_cfa_offset 8
	ret
	.p2align 4,,10
	.p2align 3
.L740:
	.cfi_restore_state
	movq	(%rsi), %rbp
	movl	$48, %edi
	call	_Znwm@PLT
	movq	0(%rbp), %rdx
	movq	%rdx, (%rax)
	movq	8(%rbp), %rdx
	movq	%rdx, 8(%rax)
	testq	%rdx, %rdx
	je	.L746
	cmpq	$0, _ZL28__gthrw___pthread_key_createPjPFvPvE@GOTPCREL(%rip)
	je	.L747
	lock addl	$1, 8(%rdx)
.L746:
	movzwl	16(%rbp), %edx
	movdqu	32(%rbp), %xmm0
	movw	%dx, 16(%rax)
	movl	18(%rbp), %edx
	movups	%xmm0, 32(%rax)
	movl	%edx, 18(%rax)
	movq	24(%rbp), %rdx
	movq	%rdx, 24(%rax)
	movq	%rax, (%rbx)
	addq	$8, %rsp
	.cfi_remember_state
	.cfi_def_cfa_offset 24
	xorl	%eax, %eax
	popq	%rbx
	.cfi_def_cfa_offset 16
	popq	%rbp
	.cfi_def_cfa_offset 8
	ret
	.p2align 4,,10
	.p2align 3
.L760:
	.cfi_restore_state
	leaq	_ZTIZN8asiodnp311MasterStack12AddRangeScanEN8opendnp316GroupVariationIDEttN7openpal12TimeDurationERKNS1_10TaskConfigEEUlvE_(%rip), %rax
	movq	%rax, (%rdi)
	addq	$8, %rsp
	.cfi_remember_state
	.cfi_def_cfa_offset 24
	xorl	%eax, %eax
	popq	%rbx
	.cfi_def_cfa_offset 16
	popq	%rbp
	.cfi_def_cfa_offset 8
	ret
	.p2align 4,,10
	.p2align 3
.L747:
	.cfi_restore_state
	addl	$1, 8(%rdx)
	jmp	.L746
	.cfi_endproc
.LFE10065:
	.size	_ZNSt14_Function_base13_Base_managerIZN8asiodnp311MasterStack12AddRangeScanEN8opendnp316GroupVariationIDEttN7openpal12TimeDurationERKNS3_10TaskConfigEEUlvE_E10_M_managerERSt9_Any_dataRKSC_St18_Manager_operation, .-_ZNSt14_Function_base13_Base_managerIZN8asiodnp311MasterStack12AddRangeScanEN8opendnp316GroupVariationIDEttN7openpal12TimeDurationERKNS3_10TaskConfigEEUlvE_E10_M_managerERSt9_Any_dataRKSC_St18_Manager_operation
	.section	.text.unlikely
	.align 2
	.type	_ZZN8asiodnp311MasterStack4ScanERKSt6vectorIN8opendnp36HeaderESaIS3_EERKNS2_10TaskConfigEENUlvE_D2Ev, @function
_ZZN8asiodnp311MasterStack4ScanERKSt6vectorIN8opendnp36HeaderESaIS3_EERKNS2_10TaskConfigEENUlvE_D2Ev:
.LFB8321:
	.cfi_startproc
	.cfi_personality 0x9b,DW.ref.__gxx_personality_v0
	.cfi_lsda 0x1b,.LLSDA8321
	pushq	%rbx
	.cfi_def_cfa_offset 16
	.cfi_offset 3, -16
	movq	32(%rdi), %rax
	movq	%rdi, %rbx
	testq	%rax, %rax
	je	.L762
	leaq	16(%rdi), %rdi
	movl	$3, %edx
	movq	%rdi, %rsi
	call	*%rax
.L762:
	movq	8(%rbx), %rdi
	testq	%rdi, %rdi
	je	.L761
	popq	%rbx
	.cfi_remember_state
	.cfi_def_cfa_offset 8
	jmp	_ZNSt16_Sp_counted_baseILN9__gnu_cxx12_Lock_policyE2EE10_M_releaseEv@PLT
.L761:
	.cfi_restore_state
	popq	%rbx
	.cfi_def_cfa_offset 8
	ret
	.cfi_endproc
.LFE8321:
	.section	.gcc_except_table
.LLSDA8321:
	.byte	0xff
	.byte	0xff
	.byte	0x1
	.uleb128 .LLSDACSE8321-.LLSDACSB8321
.LLSDACSB8321:
.LLSDACSE8321:
	.section	.text.unlikely
	.size	_ZZN8asiodnp311MasterStack4ScanERKSt6vectorIN8opendnp36HeaderESaIS3_EERKNS2_10TaskConfigEENUlvE_D2Ev, .-_ZZN8asiodnp311MasterStack4ScanERKSt6vectorIN8opendnp36HeaderESaIS3_EERKNS2_10TaskConfigEENUlvE_D2Ev
	.set	_ZZN8asiodnp311MasterStack4ScanERKSt6vectorIN8opendnp36HeaderESaIS3_EERKNS2_10TaskConfigEENUlvE_D1Ev,_ZZN8asiodnp311MasterStack4ScanERKSt6vectorIN8opendnp36HeaderESaIS3_EERKNS2_10TaskConfigEENUlvE_D2Ev
	.align 2
	.type	_ZZN8asiodnp311MasterStack7RestartEN8opendnp311RestartTypeERKSt8functionIFvRKNS1_22RestartOperationResultEEENS1_10TaskConfigEENUlvE_D2Ev, @function
_ZZN8asiodnp311MasterStack7RestartEN8opendnp311RestartTypeERKSt8functionIFvRKNS1_22RestartOperationResultEEENS1_10TaskConfigEENUlvE_D2Ev:
.LFB8364:
	.cfi_startproc
	.cfi_personality 0x9b,DW.ref.__gxx_personality_v0
	.cfi_lsda 0x1b,.LLSDA8364
	pushq	%rbx
	.cfi_def_cfa_offset 16
	.cfi_offset 3, -16
	movq	40(%rdi), %rax
	movq	%rdi, %rbx
	testq	%rax, %rax
	je	.L769
	leaq	24(%rdi), %rdi
	movl	$3, %edx
	movq	%rdi, %rsi
	call	*%rax
.L769:
	movq	8(%rbx), %rdi
	testq	%rdi, %rdi
	je	.L768
	popq	%rbx
	.cfi_remember_state
	.cfi_def_cfa_offset 8
	jmp	_ZNSt16_Sp_counted_baseILN9__gnu_cxx12_Lock_policyE2EE10_M_releaseEv@PLT
.L768:
	.cfi_restore_state
	popq	%rbx
	.cfi_def_cfa_offset 8
	ret
	.cfi_endproc
.LFE8364:
	.section	.gcc_except_table
.LLSDA8364:
	.byte	0xff
	.byte	0xff
	.byte	0x1
	.uleb128 .LLSDACSE8364-.LLSDACSB8364
.LLSDACSB8364:
.LLSDACSE8364:
	.section	.text.unlikely
	.size	_ZZN8asiodnp311MasterStack7RestartEN8opendnp311RestartTypeERKSt8functionIFvRKNS1_22RestartOperationResultEEENS1_10TaskConfigEENUlvE_D2Ev, .-_ZZN8asiodnp311MasterStack7RestartEN8opendnp311RestartTypeERKSt8functionIFvRKNS1_22RestartOperationResultEEENS1_10TaskConfigEENUlvE_D2Ev
	.set	_ZZN8asiodnp311MasterStack7RestartEN8opendnp311RestartTypeERKSt8functionIFvRKNS1_22RestartOperationResultEEENS1_10TaskConfigEENUlvE_D1Ev,_ZZN8asiodnp311MasterStack7RestartEN8opendnp311RestartTypeERKSt8functionIFvRKNS1_22RestartOperationResultEEENS1_10TaskConfigEENUlvE_D2Ev
	.align 2
	.type	_ZZN8asiodnp311MasterStack16SelectAndOperateEON8opendnp310CommandSetERKSt8functionIFvRKNS1_18ICommandTaskResultEEERKNS1_10TaskConfigEENUlvE_D2Ev, @function
_ZZN8asiodnp311MasterStack16SelectAndOperateEON8opendnp310CommandSetERKSt8functionIFvRKNS1_18ICommandTaskResultEEERKNS1_10TaskConfigEENUlvE_D2Ev:
.LFB8396:
	.cfi_startproc
	.cfi_personality 0x9b,DW.ref.__gxx_personality_v0
	.cfi_lsda 0x1b,.LLSDA8396
	pushq	%rbx
	.cfi_def_cfa_offset 16
	.cfi_offset 3, -16
	movq	64(%rdi), %rax
	movq	%rdi, %rbx
	testq	%rax, %rax
	je	.L776
	leaq	48(%rdi), %rdi
	movl	$3, %edx
	movq	%rdi, %rsi
	call	*%rax
.L776:
	movq	24(%rbx), %rdi
	testq	%rdi, %rdi
	je	.L777
	call	_ZNSt16_Sp_counted_baseILN9__gnu_cxx12_Lock_policyE2EE10_M_releaseEv@PLT
.L777:
	movq	8(%rbx), %rdi
	testq	%rdi, %rdi
	je	.L775
	popq	%rbx
	.cfi_remember_state
	.cfi_def_cfa_offset 8
	jmp	_ZNSt16_Sp_counted_baseILN9__gnu_cxx12_Lock_policyE2EE10_M_releaseEv@PLT
.L775:
	.cfi_restore_state
	popq	%rbx
	.cfi_def_cfa_offset 8
	ret
	.cfi_endproc
.LFE8396:
	.section	.gcc_except_table
.LLSDA8396:
	.byte	0xff
	.byte	0xff
	.byte	0x1
	.uleb128 .LLSDACSE8396-.LLSDACSB8396
.LLSDACSB8396:
.LLSDACSE8396:
	.section	.text.unlikely
	.size	_ZZN8asiodnp311MasterStack16SelectAndOperateEON8opendnp310CommandSetERKSt8functionIFvRKNS1_18ICommandTaskResultEEERKNS1_10TaskConfigEENUlvE_D2Ev, .-_ZZN8asiodnp311MasterStack16SelectAndOperateEON8opendnp310CommandSetERKSt8functionIFvRKNS1_18ICommandTaskResultEEERKNS1_10TaskConfigEENUlvE_D2Ev
	.set	_ZZN8asiodnp311MasterStack16SelectAndOperateEON8opendnp310CommandSetERKSt8functionIFvRKNS1_18ICommandTaskResultEEERKNS1_10TaskConfigEENUlvE_D1Ev,_ZZN8asiodnp311MasterStack16SelectAndOperateEON8opendnp310CommandSetERKSt8functionIFvRKNS1_18ICommandTaskResultEEERKNS1_10TaskConfigEENUlvE_D2Ev
	.align 2
	.type	_ZZN8asiodnp311MasterStack13DirectOperateEON8opendnp310CommandSetERKSt8functionIFvRKNS1_18ICommandTaskResultEEERKNS1_10TaskConfigEENUlvE_D2Ev, @function
_ZZN8asiodnp311MasterStack13DirectOperateEON8opendnp310CommandSetERKSt8functionIFvRKNS1_18ICommandTaskResultEEERKNS1_10TaskConfigEENUlvE_D2Ev:
.LFB8404:
	.cfi_startproc
	.cfi_personality 0x9b,DW.ref.__gxx_personality_v0
	.cfi_lsda 0x1b,.LLSDA8404
	pushq	%rbx
	.cfi_def_cfa_offset 16
	.cfi_offset 3, -16
	movq	64(%rdi), %rax
	movq	%rdi, %rbx
	testq	%rax, %rax
	je	.L787
	leaq	48(%rdi), %rdi
	movl	$3, %edx
	movq	%rdi, %rsi
	call	*%rax
.L787:
	movq	24(%rbx), %rdi
	testq	%rdi, %rdi
	je	.L788
	call	_ZNSt16_Sp_counted_baseILN9__gnu_cxx12_Lock_policyE2EE10_M_releaseEv@PLT
.L788:
	movq	8(%rbx), %rdi
	testq	%rdi, %rdi
	je	.L786
	popq	%rbx
	.cfi_remember_state
	.cfi_def_cfa_offset 8
	jmp	_ZNSt16_Sp_counted_baseILN9__gnu_cxx12_Lock_policyE2EE10_M_releaseEv@PLT
.L786:
	.cfi_restore_state
	popq	%rbx
	.cfi_def_cfa_offset 8
	ret
	.cfi_endproc
.LFE8404:
	.section	.gcc_except_table
.LLSDA8404:
	.byte	0xff
	.byte	0xff
	.byte	0x1
	.uleb128 .LLSDACSE8404-.LLSDACSB8404
.LLSDACSB8404:
.LLSDACSE8404:
	.section	.text.unlikely
	.size	_ZZN8asiodnp311MasterStack13DirectOperateEON8opendnp310CommandSetERKSt8functionIFvRKNS1_18ICommandTaskResultEEERKNS1_10TaskConfigEENUlvE_D2Ev, .-_ZZN8asiodnp311MasterStack13DirectOperateEON8opendnp310CommandSetERKSt8functionIFvRKNS1_18ICommandTaskResultEEERKNS1_10TaskConfigEENUlvE_D2Ev
	.set	_ZZN8asiodnp311MasterStack13DirectOperateEON8opendnp310CommandSetERKSt8functionIFvRKNS1_18ICommandTaskResultEEERKNS1_10TaskConfigEENUlvE_D1Ev,_ZZN8asiodnp311MasterStack13DirectOperateEON8opendnp310CommandSetERKSt8functionIFvRKNS1_18ICommandTaskResultEEERKNS1_10TaskConfigEENUlvE_D2Ev
.LCOLDB25:
	.text
.LHOTB25:
	.p2align 4
	.type	_ZNSt17_Function_handlerIFbvEZN8asiodnp311MasterStack6EnableEvEUlvE_E9_M_invokeERKSt9_Any_data, @function
_ZNSt17_Function_handlerIFbvEZN8asiodnp311MasterStack6EnableEvEUlvE_E9_M_invokeERKSt9_Any_data:
.LFB9947:
	.cfi_startproc
	.cfi_personality 0x9b,DW.ref.__gxx_personality_v0
	.cfi_lsda 0x1b,.LLSDA9947
	endbr64
	pushq	%rbp
	.cfi_def_cfa_offset 16
	.cfi_offset 6, -16
	pushq	%rbx
	.cfi_def_cfa_offset 24
	.cfi_offset 3, -24
	subq	$56, %rsp
	.cfi_def_cfa_offset 80
	movq	(%rdi), %rdx
	movq	%fs:40, %rax
	movq	%rax, 40(%rsp)
	xorl	%eax, %eax
	movq	(%rdx), %rax
	movq	104(%rax), %rdi
	addq	$16, %rax
	movq	%rax, 16(%rsp)
	movq	8(%rdx), %rax
	movq	%rax, 24(%rsp)
	testq	%rax, %rax
	je	.L798
	cmpq	$0, _ZL28__gthrw___pthread_key_createPjPFvPvE@GOTPCREL(%rip)
	je	.L799
	lock addl	$1, 8(%rax)
.L798:
	leaq	16(%rsp), %rsi
.LEHB17:
	call	_ZN8asiodnp39IOHandler6EnableERKSt10shared_ptrIN8opendnp312ILinkSessionEE@PLT
.LEHE17:
	movq	24(%rsp), %rbp
	testq	%rbp, %rbp
	je	.L797
	movq	_ZL28__gthrw___pthread_key_createPjPFvPvE@GOTPCREL(%rip), %rbx
	testq	%rbx, %rbx
	je	.L802
	movl	$-1, %edx
	lock xaddl	%edx, 8(%rbp)
	cmpl	$1, %edx
	je	.L818
	.p2align 4,,10
	.p2align 3
.L797:
	movq	40(%rsp), %rcx
	xorq	%fs:40, %rcx
	jne	.L819
	addq	$56, %rsp
	.cfi_remember_state
	.cfi_def_cfa_offset 24
	popq	%rbx
	.cfi_def_cfa_offset 16
	popq	%rbp
	.cfi_def_cfa_offset 8
	ret
	.p2align 4,,10
	.p2align 3
.L799:
	.cfi_restore_state
	addl	$1, 8(%rax)
	jmp	.L798
	.p2align 4,,10
	.p2align 3
.L802:
	movl	8(%rbp), %edx
	leal	-1(%rdx), %ecx
	movl	%ecx, 8(%rbp)
	cmpl	$1, %edx
	jne	.L797
.L818:
	movq	0(%rbp), %rdx
	movb	%al, 15(%rsp)
	movq	%rbp, %rdi
	call	*16(%rdx)
	testq	%rbx, %rbx
	movzbl	15(%rsp), %eax
	je	.L805
	movl	$-1, %edx
	lock xaddl	%edx, 12(%rbp)
.L806:
	cmpl	$1, %edx
	jne	.L797
	movq	0(%rbp), %rdx
	movb	%al, 15(%rsp)
	movq	%rbp, %rdi
	call	*24(%rdx)
	movzbl	15(%rsp), %eax
	jmp	.L797
	.p2align 4,,10
	.p2align 3
.L805:
	movl	12(%rbp), %edx
	leal	-1(%rdx), %ecx
	movl	%ecx, 12(%rbp)
	jmp	.L806
.L819:
	call	__stack_chk_fail@PLT
.L810:
	endbr64
	movq	%rax, %rbp
	jmp	.L807
	.section	.gcc_except_table
.LLSDA9947:
	.byte	0xff
	.byte	0xff
	.byte	0x1
	.uleb128 .LLSDACSE9947-.LLSDACSB9947
.LLSDACSB9947:
	.uleb128 .LEHB17-.LFB9947
	.uleb128 .LEHE17-.LEHB17
	.uleb128 .L810-.LFB9947
	.uleb128 0
.LLSDACSE9947:
	.text
	.cfi_endproc
	.section	.text.unlikely
	.cfi_startproc
	.cfi_personality 0x9b,DW.ref.__gxx_personality_v0
	.cfi_lsda 0x1b,.LLSDAC9947
	.type	_ZNSt17_Function_handlerIFbvEZN8asiodnp311MasterStack6EnableEvEUlvE_E9_M_invokeERKSt9_Any_data.cold, @function
_ZNSt17_Function_handlerIFbvEZN8asiodnp311MasterStack6EnableEvEUlvE_E9_M_invokeERKSt9_Any_data.cold:
.LFSB9947:
.L807:
	.cfi_def_cfa_offset 80
	.cfi_offset 3, -24
	.cfi_offset 6, -16
	movq	24(%rsp), %rdi
	testq	%rdi, %rdi
	je	.L808
	call	_ZNSt16_Sp_counted_baseILN9__gnu_cxx12_Lock_policyE2EE10_M_releaseEv@PLT
.L808:
	movq	%rbp, %rdi
.LEHB18:
	call	_Unwind_Resume@PLT
.LEHE18:
	.cfi_endproc
.LFE9947:
	.section	.gcc_except_table
.LLSDAC9947:
	.byte	0xff
	.byte	0xff
	.byte	0x1
	.uleb128 .LLSDACSEC9947-.LLSDACSBC9947
.LLSDACSBC9947:
	.uleb128 .LEHB18-.LCOLDB25
	.uleb128 .LEHE18-.LEHB18
	.uleb128 0
	.uleb128 0
.LLSDACSEC9947:
	.section	.text.unlikely
	.text
	.size	_ZNSt17_Function_handlerIFbvEZN8asiodnp311MasterStack6EnableEvEUlvE_E9_M_invokeERKSt9_Any_data, .-_ZNSt17_Function_handlerIFbvEZN8asiodnp311MasterStack6EnableEvEUlvE_E9_M_invokeERKSt9_Any_data
	.section	.text.unlikely
	.size	_ZNSt17_Function_handlerIFbvEZN8asiodnp311MasterStack6EnableEvEUlvE_E9_M_invokeERKSt9_Any_data.cold, .-_ZNSt17_Function_handlerIFbvEZN8asiodnp311MasterStack6EnableEvEUlvE_E9_M_invokeERKSt9_Any_data.cold
.LCOLDE25:
	.text
.LHOTE25:
	.section	.text.unlikely
.LCOLDB26:
	.text
.LHOTB26:
	.p2align 4
	.type	_ZNSt17_Function_handlerIFbvEZN8asiodnp311MasterStack7DisableEvEUlvE_E9_M_invokeERKSt9_Any_data, @function
_ZNSt17_Function_handlerIFbvEZN8asiodnp311MasterStack7DisableEvEUlvE_E9_M_invokeERKSt9_Any_data:
.LFB9968:
	.cfi_startproc
	.cfi_personality 0x9b,DW.ref.__gxx_personality_v0
	.cfi_lsda 0x1b,.LLSDA9968
	endbr64
	pushq	%rbp
	.cfi_def_cfa_offset 16
	.cfi_offset 6, -16
	pushq	%rbx
	.cfi_def_cfa_offset 24
	.cfi_offset 3, -24
	subq	$56, %rsp
	.cfi_def_cfa_offset 80
	movq	(%rdi), %rdx
	movq	%fs:40, %rax
	movq	%rax, 40(%rsp)
	xorl	%eax, %eax
	movq	(%rdx), %rax
	movq	104(%rax), %rdi
	addq	$16, %rax
	movq	%rax, 16(%rsp)
	movq	8(%rdx), %rax
	movq	%rax, 24(%rsp)
	testq	%rax, %rax
	je	.L821
	cmpq	$0, _ZL28__gthrw___pthread_key_createPjPFvPvE@GOTPCREL(%rip)
	je	.L822
	lock addl	$1, 8(%rax)
.L821:
	leaq	16(%rsp), %rsi
.LEHB19:
	call	_ZN8asiodnp39IOHandler7DisableERKSt10shared_ptrIN8opendnp312ILinkSessionEE@PLT
.LEHE19:
	movq	24(%rsp), %rbp
	testq	%rbp, %rbp
	je	.L820
	movq	_ZL28__gthrw___pthread_key_createPjPFvPvE@GOTPCREL(%rip), %rbx
	testq	%rbx, %rbx
	je	.L825
	movl	$-1, %edx
	lock xaddl	%edx, 8(%rbp)
	cmpl	$1, %edx
	je	.L841
	.p2align 4,,10
	.p2align 3
.L820:
	movq	40(%rsp), %rcx
	xorq	%fs:40, %rcx
	jne	.L842
	addq	$56, %rsp
	.cfi_remember_state
	.cfi_def_cfa_offset 24
	popq	%rbx
	.cfi_def_cfa_offset 16
	popq	%rbp
	.cfi_def_cfa_offset 8
	ret
	.p2align 4,,10
	.p2align 3
.L822:
	.cfi_restore_state
	addl	$1, 8(%rax)
	jmp	.L821
	.p2align 4,,10
	.p2align 3
.L825:
	movl	8(%rbp), %edx
	leal	-1(%rdx), %ecx
	movl	%ecx, 8(%rbp)
	cmpl	$1, %edx
	jne	.L820
.L841:
	movq	0(%rbp), %rdx
	movb	%al, 15(%rsp)
	movq	%rbp, %rdi
	call	*16(%rdx)
	testq	%rbx, %rbx
	movzbl	15(%rsp), %eax
	je	.L828
	movl	$-1, %edx
	lock xaddl	%edx, 12(%rbp)
.L829:
	cmpl	$1, %edx
	jne	.L820
	movq	0(%rbp), %rdx
	movb	%al, 15(%rsp)
	movq	%rbp, %rdi
	call	*24(%rdx)
	movzbl	15(%rsp), %eax
	jmp	.L820
	.p2align 4,,10
	.p2align 3
.L828:
	movl	12(%rbp), %edx
	leal	-1(%rdx), %ecx
	movl	%ecx, 12(%rbp)
	jmp	.L829
.L842:
	call	__stack_chk_fail@PLT
.L833:
	endbr64
	movq	%rax, %rbp
	jmp	.L830
	.section	.gcc_except_table
.LLSDA9968:
	.byte	0xff
	.byte	0xff
	.byte	0x1
	.uleb128 .LLSDACSE9968-.LLSDACSB9968
.LLSDACSB9968:
	.uleb128 .LEHB19-.LFB9968
	.uleb128 .LEHE19-.LEHB19
	.uleb128 .L833-.LFB9968
	.uleb128 0
.LLSDACSE9968:
	.text
	.cfi_endproc
	.section	.text.unlikely
	.cfi_startproc
	.cfi_personality 0x9b,DW.ref.__gxx_personality_v0
	.cfi_lsda 0x1b,.LLSDAC9968
	.type	_ZNSt17_Function_handlerIFbvEZN8asiodnp311MasterStack7DisableEvEUlvE_E9_M_invokeERKSt9_Any_data.cold, @function
_ZNSt17_Function_handlerIFbvEZN8asiodnp311MasterStack7DisableEvEUlvE_E9_M_invokeERKSt9_Any_data.cold:
.LFSB9968:
.L830:
	.cfi_def_cfa_offset 80
	.cfi_offset 3, -24
	.cfi_offset 6, -16
	movq	24(%rsp), %rdi
	testq	%rdi, %rdi
	je	.L831
	call	_ZNSt16_Sp_counted_baseILN9__gnu_cxx12_Lock_policyE2EE10_M_releaseEv@PLT
.L831:
	movq	%rbp, %rdi
.LEHB20:
	call	_Unwind_Resume@PLT
.LEHE20:
	.cfi_endproc
.LFE9968:
	.section	.gcc_except_table
.LLSDAC9968:
	.byte	0xff
	.byte	0xff
	.byte	0x1
	.uleb128 .LLSDACSEC9968-.LLSDACSBC9968
.LLSDACSBC9968:
	.uleb128 .LEHB20-.LCOLDB26
	.uleb128 .LEHE20-.LEHB20
	.uleb128 0
	.uleb128 0
.LLSDACSEC9968:
	.section	.text.unlikely
	.text
	.size	_ZNSt17_Function_handlerIFbvEZN8asiodnp311MasterStack7DisableEvEUlvE_E9_M_invokeERKSt9_Any_data, .-_ZNSt17_Function_handlerIFbvEZN8asiodnp311MasterStack7DisableEvEUlvE_E9_M_invokeERKSt9_Any_data
	.section	.text.unlikely
	.size	_ZNSt17_Function_handlerIFbvEZN8asiodnp311MasterStack7DisableEvEUlvE_E9_M_invokeERKSt9_Any_data.cold, .-_ZNSt17_Function_handlerIFbvEZN8asiodnp311MasterStack7DisableEvEUlvE_E9_M_invokeERKSt9_Any_data.cold
.LCOLDE26:
	.text
.LHOTE26:
	.section	.text.unlikely
	.align 2
.LCOLDB27:
	.text
.LHOTB27:
	.align 2
	.p2align 4
	.globl	_ZN8asiodnp311MasterStack13SetLogFiltersERKN7openpal10LogFiltersE
	.type	_ZN8asiodnp311MasterStack13SetLogFiltersERKN7openpal10LogFiltersE, @function
_ZN8asiodnp311MasterStack13SetLogFiltersERKN7openpal10LogFiltersE:
.LFB8248:
	.cfi_startproc
	.cfi_personality 0x9b,DW.ref.__gxx_personality_v0
	.cfi_lsda 0x1b,.LLSDA8248
	endbr64
	pushq	%r13
	.cfi_def_cfa_offset 16
	.cfi_offset 13, -16
	pushq	%r12
	.cfi_def_cfa_offset 24
	.cfi_offset 12, -24
	pushq	%rbp
	.cfi_def_cfa_offset 32
	.cfi_offset 6, -32
	pushq	%rbx
	.cfi_def_cfa_offset 40
	.cfi_offset 3, -40
	subq	$56, %rsp
	.cfi_def_cfa_offset 96
	movq	48(%rdi), %rbp
	movq	%fs:40, %rax
	movq	%rax, 40(%rsp)
	xorl	%eax, %eax
	testq	%rbp, %rbp
	je	.L844
	movl	8(%rbp), %eax
	leaq	8(%rbp), %rdx
.L846:
	testl	%eax, %eax
	je	.L844
	leal	1(%rax), %ecx
	lock cmpxchgl	%ecx, (%rdx)
	jne	.L846
	movq	40(%rdi), %rcx
	cmpq	$0, _ZL28__gthrw___pthread_key_createPjPFvPvE@GOTPCREL(%rip)
	movq	%rbp, 8(%rsp)
	movl	(%rsi), %eax
	movq	88(%rdi), %r12
	movq	%rcx, (%rsp)
	je	.L847
	lock addl	$1, (%rdx)
.L848:
	movl	%eax, 16(%rsp)
	movq	%rsp, %rdi
	xorl	%eax, %eax
	movq	40(%r12), %r13
	call	_ZN4asio28asio_handler_is_continuationEz@PLT
	addq	$48, %r12
	movl	%eax, %ebx
	data16	leaq	_ZN4asio6detail15keyword_tss_ptrINS0_10call_stackINS0_15task_io_serviceENS0_27task_io_service_thread_infoEE7contextEE6value_E@tlsgd(%rip), %rdi
	.value	0x6666
	rex64
	call	__tls_get_addr@PLT
	movq	(%rax), %rax
	testq	%rax, %rax
	je	.L849
	movq	8(%rax), %rax
	testq	%rax, %rax
	je	.L849
	movq	(%rax), %rdx
	testq	%rdx, %rdx
	je	.L849
	movq	$0, (%rax)
	movzbl	(%rdx), %eax
	cmpb	$47, %al
	jbe	.L850
	movb	%al, 48(%rdx)
	jmp	.L851
	.p2align 4,,10
	.p2align 3
.L850:
	movq	%rdx, %rdi
	call	_ZdlPv@PLT
.L849:
	movl	$49, %edi
.LEHB21:
	call	_Znwm@PLT
.LEHE21:
	movb	$48, 48(%rax)
	movq	%rax, %rdx
.L851:
	leaq	_ZN4asio6detail18completion_handlerIZN8asiodnp311MasterStack13SetLogFiltersERKN7openpal10LogFiltersEEUlvE_E11do_completeEPNS0_15task_io_serviceEPNS0_25task_io_service_operationERKSt10error_codem(%rip), %rax
	movq	%r13, %rdi
	movzbl	%bl, %ecx
	movq	%r12, %rsi
	movq	%rax, 8(%rdx)
	movl	16(%rsp), %eax
	pxor	%xmm0, %xmm0
	movq	$0, (%rdx)
	movdqa	(%rsp), %xmm1
	movl	$0, 16(%rdx)
	movl	%eax, 40(%rdx)
	movups	%xmm1, 24(%rdx)
	movaps	%xmm0, (%rsp)
	call	_ZN4asio6detail14strand_service7do_postERPNS1_11strand_implEPNS0_25task_io_service_operationEb@PLT
	movq	8(%rsp), %rdi
	testq	%rdi, %rdi
	je	.L852
	call	_ZNSt16_Sp_counted_baseILN9__gnu_cxx12_Lock_policyE2EE10_M_releaseEv@PLT
.L852:
	movq	%rbp, %rdi
	call	_ZNSt16_Sp_counted_baseILN9__gnu_cxx12_Lock_policyE2EE10_M_releaseEv@PLT
	movq	40(%rsp), %rax
	xorq	%fs:40, %rax
	jne	.L879
	addq	$56, %rsp
	.cfi_remember_state
	.cfi_def_cfa_offset 40
	popq	%rbx
	.cfi_def_cfa_offset 32
	popq	%rbp
	.cfi_def_cfa_offset 24
	popq	%r12
	.cfi_def_cfa_offset 16
	popq	%r13
	.cfi_def_cfa_offset 8
	ret
	.p2align 4,,10
	.p2align 3
.L847:
	.cfi_restore_state
	addl	$1, 8(%rbp)
	jmp	.L848
.L879:
	call	__stack_chk_fail@PLT
.L856:
	endbr64
	movq	%rax, %r12
	jmp	.L853
	.section	.gcc_except_table
.LLSDA8248:
	.byte	0xff
	.byte	0xff
	.byte	0x1
	.uleb128 .LLSDACSE8248-.LLSDACSB8248
.LLSDACSB8248:
	.uleb128 .LEHB21-.LFB8248
	.uleb128 .LEHE21-.LEHB21
	.uleb128 .L856-.LFB8248
	.uleb128 0
.LLSDACSE8248:
	.text
	.cfi_endproc
	.section	.text.unlikely
	.cfi_startproc
	.cfi_personality 0x9b,DW.ref.__gxx_personality_v0
	.cfi_lsda 0x1b,.LLSDAC8248
	.type	_ZN8asiodnp311MasterStack13SetLogFiltersERKN7openpal10LogFiltersE.cold, @function
_ZN8asiodnp311MasterStack13SetLogFiltersERKN7openpal10LogFiltersE.cold:
.LFSB8248:
.L844:
	.cfi_def_cfa_offset 96
	.cfi_offset 3, -40
	.cfi_offset 6, -32
	.cfi_offset 12, -24
	.cfi_offset 13, -16
.LEHB22:
	call	_ZSt20__throw_bad_weak_ptrv@PLT
.L853:
	movq	8(%rsp), %rdi
	testq	%rdi, %rdi
	je	.L854
	call	_ZNSt16_Sp_counted_baseILN9__gnu_cxx12_Lock_policyE2EE10_M_releaseEv@PLT
.L854:
	movq	%rbp, %rdi
	call	_ZNSt16_Sp_counted_baseILN9__gnu_cxx12_Lock_policyE2EE10_M_releaseEv@PLT
	movq	%r12, %rdi
	call	_Unwind_Resume@PLT
.LEHE22:
	.cfi_endproc
.LFE8248:
	.section	.gcc_except_table
.LLSDAC8248:
	.byte	0xff
	.byte	0xff
	.byte	0x1
	.uleb128 .LLSDACSEC8248-.LLSDACSBC8248
.LLSDACSBC8248:
	.uleb128 .LEHB22-.LCOLDB27
	.uleb128 .LEHE22-.LEHB22
	.uleb128 0
	.uleb128 0
.LLSDACSEC8248:
	.section	.text.unlikely
	.text
	.size	_ZN8asiodnp311MasterStack13SetLogFiltersERKN7openpal10LogFiltersE, .-_ZN8asiodnp311MasterStack13SetLogFiltersERKN7openpal10LogFiltersE
	.section	.text.unlikely
	.size	_ZN8asiodnp311MasterStack13SetLogFiltersERKN7openpal10LogFiltersE.cold, .-_ZN8asiodnp311MasterStack13SetLogFiltersERKN7openpal10LogFiltersE.cold
.LCOLDE27:
	.text
.LHOTE27:
	.section	.text.unlikely
	.align 2
.LCOLDB28:
	.text
.LHOTB28:
	.align 2
	.p2align 4
	.globl	_ZN8asiodnp311MasterStack14ScanAllObjectsEN8opendnp316GroupVariationIDERKNS1_10TaskConfigE
	.type	_ZN8asiodnp311MasterStack14ScanAllObjectsEN8opendnp316GroupVariationIDERKNS1_10TaskConfigE, @function
_ZN8asiodnp311MasterStack14ScanAllObjectsEN8opendnp316GroupVariationIDERKNS1_10TaskConfigE:
.LFB8326:
	.cfi_startproc
	.cfi_personality 0x9b,DW.ref.__gxx_personality_v0
	.cfi_lsda 0x1b,.LLSDA8326
	endbr64
	pushq	%r13
	.cfi_def_cfa_offset 16
	.cfi_offset 13, -16
	pushq	%r12
	.cfi_def_cfa_offset 24
	.cfi_offset 12, -24
	pushq	%rbp
	.cfi_def_cfa_offset 32
	.cfi_offset 6, -32
	pushq	%rbx
	.cfi_def_cfa_offset 40
	.cfi_offset 3, -40
	subq	$72, %rsp
	.cfi_def_cfa_offset 112
	movq	48(%rdi), %rbp
	movq	%fs:40, %rax
	movq	%rax, 56(%rsp)
	xorl	%eax, %eax
	testq	%rbp, %rbp
	je	.L881
	movl	8(%rbp), %eax
	leaq	8(%rbp), %rcx
.L883:
	testl	%eax, %eax
	je	.L881
	leal	1(%rax), %r8d
	lock cmpxchgl	%r8d, (%rcx)
	jne	.L883
	movq	40(%rdi), %r10
	cmpq	$0, _ZL28__gthrw___pthread_key_createPjPFvPvE@GOTPCREL(%rip)
	movq	%rbp, 8(%rsp)
	movl	(%rdx), %r9d
	movzbl	4(%rdx), %r8d
	movq	8(%rdx), %rax
	movq	88(%rdi), %r12
	movq	%r10, (%rsp)
	je	.L884
	lock addl	$1, (%rcx)
.L885:
	movq	%rax, 32(%rsp)
	movq	%rsp, %rdi
	xorl	%eax, %eax
	movq	40(%r12), %r13
	movw	%si, 16(%rsp)
	addq	$48, %r12
	movl	%r9d, 24(%rsp)
	movb	%r8b, 28(%rsp)
	call	_ZN4asio28asio_handler_is_continuationEz@PLT
	movl	%eax, %ebx
	data16	leaq	_ZN4asio6detail15keyword_tss_ptrINS0_10call_stackINS0_15task_io_serviceENS0_27task_io_service_thread_infoEE7contextEE6value_E@tlsgd(%rip), %rdi
	.value	0x6666
	rex64
	call	__tls_get_addr@PLT
	movq	(%rax), %rax
	testq	%rax, %rax
	je	.L886
	movq	8(%rax), %rax
	testq	%rax, %rax
	je	.L886
	movq	(%rax), %rdx
	testq	%rdx, %rdx
	je	.L886
	movq	$0, (%rax)
	movzbl	(%rdx), %eax
	cmpb	$63, %al
	jbe	.L887
	movb	%al, 64(%rdx)
	jmp	.L888
	.p2align 4,,10
	.p2align 3
.L887:
	movq	%rdx, %rdi
	call	_ZdlPv@PLT
.L886:
	movl	$65, %edi
.LEHB23:
	call	_Znwm@PLT
.LEHE23:
	movb	$64, 64(%rax)
	movq	%rax, %rdx
.L888:
	leaq	_ZN4asio6detail18completion_handlerIZN8asiodnp311MasterStack14ScanAllObjectsEN8opendnp316GroupVariationIDERKNS4_10TaskConfigEEUlvE_E11do_completeEPNS0_15task_io_serviceEPNS0_25task_io_service_operationERKSt10error_codem(%rip), %rax
	movq	%r13, %rdi
	movzbl	%bl, %ecx
	movq	%r12, %rsi
	movq	%rax, 8(%rdx)
	movzwl	16(%rsp), %eax
	pxor	%xmm0, %xmm0
	movq	$0, (%rdx)
	movdqa	(%rsp), %xmm1
	movl	$0, 16(%rdx)
	movups	%xmm1, 24(%rdx)
	movdqu	24(%rsp), %xmm2
	movw	%ax, 40(%rdx)
	movups	%xmm2, 48(%rdx)
	movaps	%xmm0, (%rsp)
	call	_ZN4asio6detail14strand_service7do_postERPNS1_11strand_implEPNS0_25task_io_service_operationEb@PLT
	movq	8(%rsp), %rdi
	testq	%rdi, %rdi
	je	.L889
	call	_ZNSt16_Sp_counted_baseILN9__gnu_cxx12_Lock_policyE2EE10_M_releaseEv@PLT
.L889:
	movq	%rbp, %rdi
	call	_ZNSt16_Sp_counted_baseILN9__gnu_cxx12_Lock_policyE2EE10_M_releaseEv@PLT
	movq	56(%rsp), %rax
	xorq	%fs:40, %rax
	jne	.L916
	addq	$72, %rsp
	.cfi_remember_state
	.cfi_def_cfa_offset 40
	popq	%rbx
	.cfi_def_cfa_offset 32
	popq	%rbp
	.cfi_def_cfa_offset 24
	popq	%r12
	.cfi_def_cfa_offset 16
	popq	%r13
	.cfi_def_cfa_offset 8
	ret
	.p2align 4,,10
	.p2align 3
.L884:
	.cfi_restore_state
	addl	$1, 8(%rbp)
	jmp	.L885
.L916:
	call	__stack_chk_fail@PLT
.L893:
	endbr64
	movq	%rax, %r12
	jmp	.L890
	.section	.gcc_except_table
.LLSDA8326:
	.byte	0xff
	.byte	0xff
	.byte	0x1
	.uleb128 .LLSDACSE8326-.LLSDACSB8326
.LLSDACSB8326:
	.uleb128 .LEHB23-.LFB8326
	.uleb128 .LEHE23-.LEHB23
	.uleb128 .L893-.LFB8326
	.uleb128 0
.LLSDACSE8326:
	.text
	.cfi_endproc
	.section	.text.unlikely
	.cfi_startproc
	.cfi_personality 0x9b,DW.ref.__gxx_personality_v0
	.cfi_lsda 0x1b,.LLSDAC8326
	.type	_ZN8asiodnp311MasterStack14ScanAllObjectsEN8opendnp316GroupVariationIDERKNS1_10TaskConfigE.cold, @function
_ZN8asiodnp311MasterStack14ScanAllObjectsEN8opendnp316GroupVariationIDERKNS1_10TaskConfigE.cold:
.LFSB8326:
.L881:
	.cfi_def_cfa_offset 112
	.cfi_offset 3, -40
	.cfi_offset 6, -32
	.cfi_offset 12, -24
	.cfi_offset 13, -16
.LEHB24:
	call	_ZSt20__throw_bad_weak_ptrv@PLT
.L890:
	movq	8(%rsp), %rdi
	testq	%rdi, %rdi
	je	.L891
	call	_ZNSt16_Sp_counted_baseILN9__gnu_cxx12_Lock_policyE2EE10_M_releaseEv@PLT
.L891:
	movq	%rbp, %rdi
	call	_ZNSt16_Sp_counted_baseILN9__gnu_cxx12_Lock_policyE2EE10_M_releaseEv@PLT
	movq	%r12, %rdi
	call	_Unwind_Resume@PLT
.LEHE24:
	.cfi_endproc
.LFE8326:
	.section	.gcc_except_table
.LLSDAC8326:
	.byte	0xff
	.byte	0xff
	.byte	0x1
	.uleb128 .LLSDACSEC8326-.LLSDACSBC8326
.LLSDACSBC8326:
	.uleb128 .LEHB24-.LCOLDB28
	.uleb128 .LEHE24-.LEHB24
	.uleb128 0
	.uleb128 0
.LLSDACSEC8326:
	.section	.text.unlikely
	.text
	.size	_ZN8asiodnp311MasterStack14ScanAllObjectsEN8opendnp316GroupVariationIDERKNS1_10TaskConfigE, .-_ZN8asiodnp311MasterStack14ScanAllObjectsEN8opendnp316GroupVariationIDERKNS1_10TaskConfigE
	.section	.text.unlikely
	.size	_ZN8asiodnp311MasterStack14ScanAllObjectsEN8opendnp316GroupVariationIDERKNS1_10TaskConfigE.cold, .-_ZN8asiodnp311MasterStack14ScanAllObjectsEN8opendnp316GroupVariationIDERKNS1_10TaskConfigE.cold
.LCOLDE28:
	.text
.LHOTE28:
	.section	.text.unlikely
	.align 2
.LCOLDB29:
	.text
.LHOTB29:
	.align 2
	.p2align 4
	.globl	_ZN8asiodnp311MasterStack11ScanClassesERKN8opendnp310ClassFieldERKNS1_10TaskConfigE
	.type	_ZN8asiodnp311MasterStack11ScanClassesERKN8opendnp310ClassFieldERKNS1_10TaskConfigE, @function
_ZN8asiodnp311MasterStack11ScanClassesERKN8opendnp310ClassFieldERKNS1_10TaskConfigE:
.LFB8334:
	.cfi_startproc
	.cfi_personality 0x9b,DW.ref.__gxx_personality_v0
	.cfi_lsda 0x1b,.LLSDA8334
	endbr64
	pushq	%r13
	.cfi_def_cfa_offset 16
	.cfi_offset 13, -16
	pushq	%r12
	.cfi_def_cfa_offset 24
	.cfi_offset 12, -24
	pushq	%rbp
	.cfi_def_cfa_offset 32
	.cfi_offset 6, -32
	pushq	%rbx
	.cfi_def_cfa_offset 40
	.cfi_offset 3, -40
	subq	$72, %rsp
	.cfi_def_cfa_offset 112
	movq	48(%rdi), %rbp
	movq	%fs:40, %rax
	movq	%rax, 56(%rsp)
	xorl	%eax, %eax
	testq	%rbp, %rbp
	je	.L918
	movl	8(%rbp), %eax
	leaq	8(%rbp), %rcx
.L920:
	testl	%eax, %eax
	je	.L918
	leal	1(%rax), %r8d
	lock cmpxchgl	%r8d, (%rcx)
	jne	.L920
	movq	40(%rdi), %r10
	movzbl	(%rsi), %r9d
	movq	%rbp, 8(%rsp)
	cmpq	$0, _ZL28__gthrw___pthread_key_createPjPFvPvE@GOTPCREL(%rip)
	movl	(%rdx), %r8d
	movzbl	4(%rdx), %esi
	movq	8(%rdx), %rax
	movq	%r10, (%rsp)
	movq	88(%rdi), %r12
	je	.L921
	lock addl	$1, (%rcx)
.L922:
	movq	%rax, 32(%rsp)
	movq	%rsp, %rdi
	xorl	%eax, %eax
	movq	40(%r12), %r13
	movb	%r9b, 16(%rsp)
	addq	$48, %r12
	movl	%r8d, 24(%rsp)
	movb	%sil, 28(%rsp)
	call	_ZN4asio28asio_handler_is_continuationEz@PLT
	movl	%eax, %ebx
	data16	leaq	_ZN4asio6detail15keyword_tss_ptrINS0_10call_stackINS0_15task_io_serviceENS0_27task_io_service_thread_infoEE7contextEE6value_E@tlsgd(%rip), %rdi
	.value	0x6666
	rex64
	call	__tls_get_addr@PLT
	movq	(%rax), %rax
	testq	%rax, %rax
	je	.L923
	movq	8(%rax), %rax
	testq	%rax, %rax
	je	.L923
	movq	(%rax), %rdx
	testq	%rdx, %rdx
	je	.L923
	movq	$0, (%rax)
	movzbl	(%rdx), %eax
	cmpb	$63, %al
	jbe	.L924
	movb	%al, 64(%rdx)
	jmp	.L925
	.p2align 4,,10
	.p2align 3
.L924:
	movq	%rdx, %rdi
	call	_ZdlPv@PLT
.L923:
	movl	$65, %edi
.LEHB25:
	call	_Znwm@PLT
.LEHE25:
	movb	$64, 64(%rax)
	movq	%rax, %rdx
.L925:
	leaq	_ZN4asio6detail18completion_handlerIZN8asiodnp311MasterStack11ScanClassesERKN8opendnp310ClassFieldERKNS4_10TaskConfigEEUlvE_E11do_completeEPNS0_15task_io_serviceEPNS0_25task_io_service_operationERKSt10error_codem(%rip), %rax
	movq	%r13, %rdi
	movzbl	%bl, %ecx
	movq	%r12, %rsi
	movq	%rax, 8(%rdx)
	movzbl	16(%rsp), %eax
	pxor	%xmm0, %xmm0
	movq	$0, (%rdx)
	movdqa	(%rsp), %xmm1
	movl	$0, 16(%rdx)
	movups	%xmm1, 24(%rdx)
	movdqu	24(%rsp), %xmm2
	movb	%al, 40(%rdx)
	movups	%xmm2, 48(%rdx)
	movaps	%xmm0, (%rsp)
	call	_ZN4asio6detail14strand_service7do_postERPNS1_11strand_implEPNS0_25task_io_service_operationEb@PLT
	movq	8(%rsp), %rdi
	testq	%rdi, %rdi
	je	.L926
	call	_ZNSt16_Sp_counted_baseILN9__gnu_cxx12_Lock_policyE2EE10_M_releaseEv@PLT
.L926:
	movq	%rbp, %rdi
	call	_ZNSt16_Sp_counted_baseILN9__gnu_cxx12_Lock_policyE2EE10_M_releaseEv@PLT
	movq	56(%rsp), %rax
	xorq	%fs:40, %rax
	jne	.L953
	addq	$72, %rsp
	.cfi_remember_state
	.cfi_def_cfa_offset 40
	popq	%rbx
	.cfi_def_cfa_offset 32
	popq	%rbp
	.cfi_def_cfa_offset 24
	popq	%r12
	.cfi_def_cfa_offset 16
	popq	%r13
	.cfi_def_cfa_offset 8
	ret
	.p2align 4,,10
	.p2align 3
.L921:
	.cfi_restore_state
	addl	$1, 8(%rbp)
	jmp	.L922
.L953:
	call	__stack_chk_fail@PLT
.L930:
	endbr64
	movq	%rax, %r12
	jmp	.L927
	.section	.gcc_except_table
.LLSDA8334:
	.byte	0xff
	.byte	0xff
	.byte	0x1
	.uleb128 .LLSDACSE8334-.LLSDACSB8334
.LLSDACSB8334:
	.uleb128 .LEHB25-.LFB8334
	.uleb128 .LEHE25-.LEHB25
	.uleb128 .L930-.LFB8334
	.uleb128 0
.LLSDACSE8334:
	.text
	.cfi_endproc
	.section	.text.unlikely
	.cfi_startproc
	.cfi_personality 0x9b,DW.ref.__gxx_personality_v0
	.cfi_lsda 0x1b,.LLSDAC8334
	.type	_ZN8asiodnp311MasterStack11ScanClassesERKN8opendnp310ClassFieldERKNS1_10TaskConfigE.cold, @function
_ZN8asiodnp311MasterStack11ScanClassesERKN8opendnp310ClassFieldERKNS1_10TaskConfigE.cold:
.LFSB8334:
.L918:
	.cfi_def_cfa_offset 112
	.cfi_offset 3, -40
	.cfi_offset 6, -32
	.cfi_offset 12, -24
	.cfi_offset 13, -16
.LEHB26:
	call	_ZSt20__throw_bad_weak_ptrv@PLT
.L927:
	movq	8(%rsp), %rdi
	testq	%rdi, %rdi
	je	.L928
	call	_ZNSt16_Sp_counted_baseILN9__gnu_cxx12_Lock_policyE2EE10_M_releaseEv@PLT
.L928:
	movq	%rbp, %rdi
	call	_ZNSt16_Sp_counted_baseILN9__gnu_cxx12_Lock_policyE2EE10_M_releaseEv@PLT
	movq	%r12, %rdi
	call	_Unwind_Resume@PLT
.LEHE26:
	.cfi_endproc
.LFE8334:
	.section	.gcc_except_table
.LLSDAC8334:
	.byte	0xff
	.byte	0xff
	.byte	0x1
	.uleb128 .LLSDACSEC8334-.LLSDACSBC8334
.LLSDACSBC8334:
	.uleb128 .LEHB26-.LCOLDB29
	.uleb128 .LEHE26-.LEHB26
	.uleb128 0
	.uleb128 0
.LLSDACSEC8334:
	.section	.text.unlikely
	.text
	.size	_ZN8asiodnp311MasterStack11ScanClassesERKN8opendnp310ClassFieldERKNS1_10TaskConfigE, .-_ZN8asiodnp311MasterStack11ScanClassesERKN8opendnp310ClassFieldERKNS1_10TaskConfigE
	.section	.text.unlikely
	.size	_ZN8asiodnp311MasterStack11ScanClassesERKN8opendnp310ClassFieldERKNS1_10TaskConfigE.cold, .-_ZN8asiodnp311MasterStack11ScanClassesERKN8opendnp310ClassFieldERKNS1_10TaskConfigE.cold
.LCOLDE29:
	.text
.LHOTE29:
	.section	.text.unlikely
	.align 2
.LCOLDB30:
	.text
.LHOTB30:
	.align 2
	.p2align 4
	.globl	_ZN8asiodnp311MasterStack9ScanRangeEN8opendnp316GroupVariationIDEttRKNS1_10TaskConfigE
	.type	_ZN8asiodnp311MasterStack9ScanRangeEN8opendnp316GroupVariationIDEttRKNS1_10TaskConfigE, @function
_ZN8asiodnp311MasterStack9ScanRangeEN8opendnp316GroupVariationIDEttRKNS1_10TaskConfigE:
.LFB8342:
	.cfi_startproc
	.cfi_personality 0x9b,DW.ref.__gxx_personality_v0
	.cfi_lsda 0x1b,.LLSDA8342
	endbr64
	pushq	%r15
	.cfi_def_cfa_offset 16
	.cfi_offset 15, -16
	pushq	%r14
	.cfi_def_cfa_offset 24
	.cfi_offset 14, -24
	pushq	%r13
	.cfi_def_cfa_offset 32
	.cfi_offset 13, -32
	pushq	%r12
	.cfi_def_cfa_offset 40
	.cfi_offset 12, -40
	pushq	%rbp
	.cfi_def_cfa_offset 48
	.cfi_offset 6, -48
	pushq	%rbx
	.cfi_def_cfa_offset 56
	.cfi_offset 3, -56
	subq	$72, %rsp
	.cfi_def_cfa_offset 128
	movq	48(%rdi), %rbp
	movq	%fs:40, %rax
	movq	%rax, 56(%rsp)
	xorl	%eax, %eax
	testq	%rbp, %rbp
	je	.L955
	movl	8(%rbp), %eax
	movl	%edx, %r15d
	movl	%ecx, %r14d
	leaq	8(%rbp), %r9
.L957:
	testl	%eax, %eax
	je	.L955
	leal	1(%rax), %r10d
	lock cmpxchgl	%r10d, (%r9)
	jne	.L957
	movq	40(%rdi), %rbx
	cmpq	$0, _ZL28__gthrw___pthread_key_createPjPFvPvE@GOTPCREL(%rip)
	movq	%rbp, 8(%rsp)
	movl	(%r8), %r11d
	movzbl	4(%r8), %r10d
	movq	8(%r8), %rax
	movq	88(%rdi), %r12
	movq	%rbx, (%rsp)
	je	.L958
	lock addl	$1, (%r9)
.L959:
	movq	%rax, 32(%rsp)
	movq	%rsp, %rdi
	xorl	%eax, %eax
	movq	40(%r12), %r13
	movw	%si, 16(%rsp)
	addq	$48, %r12
	movw	%dx, 18(%rsp)
	movw	%cx, 20(%rsp)
	movl	%r11d, 24(%rsp)
	movb	%r10b, 28(%rsp)
	call	_ZN4asio28asio_handler_is_continuationEz@PLT
	movl	%eax, %ebx
	data16	leaq	_ZN4asio6detail15keyword_tss_ptrINS0_10call_stackINS0_15task_io_serviceENS0_27task_io_service_thread_infoEE7contextEE6value_E@tlsgd(%rip), %rdi
	.value	0x6666
	rex64
	call	__tls_get_addr@PLT
	movq	(%rax), %rax
	testq	%rax, %rax
	je	.L960
	movq	8(%rax), %rax
	testq	%rax, %rax
	je	.L960
	movq	(%rax), %rdx
	testq	%rdx, %rdx
	je	.L960
	movq	$0, (%rax)
	movzbl	(%rdx), %eax
	cmpb	$63, %al
	jbe	.L961
	movb	%al, 64(%rdx)
	jmp	.L962
	.p2align 4,,10
	.p2align 3
.L961:
	movq	%rdx, %rdi
	call	_ZdlPv@PLT
.L960:
	movl	$65, %edi
.LEHB27:
	call	_Znwm@PLT
.LEHE27:
	movb	$64, 64(%rax)
	movzwl	18(%rsp), %r15d
	movq	%rax, %rdx
	movzwl	20(%rsp), %r14d
.L962:
	movq	$0, (%rdx)
	movq	%r13, %rdi
	movzbl	%bl, %ecx
	movq	%r12, %rsi
	leaq	_ZN4asio6detail18completion_handlerIZN8asiodnp311MasterStack9ScanRangeEN8opendnp316GroupVariationIDEttRKNS4_10TaskConfigEEUlvE_E11do_completeEPNS0_15task_io_serviceEPNS0_25task_io_service_operationERKSt10error_codem(%rip), %rax
	movl	$0, 16(%rdx)
	pxor	%xmm0, %xmm0
	movq	%rax, 8(%rdx)
	movzwl	16(%rsp), %eax
	movdqa	(%rsp), %xmm1
	movw	%r15w, 42(%rdx)
	movw	%ax, 40(%rdx)
	movups	%xmm1, 24(%rdx)
	movdqu	24(%rsp), %xmm2
	movw	%r14w, 44(%rdx)
	movups	%xmm2, 48(%rdx)
	movaps	%xmm0, (%rsp)
	call	_ZN4asio6detail14strand_service7do_postERPNS1_11strand_implEPNS0_25task_io_service_operationEb@PLT
	movq	8(%rsp), %rdi
	testq	%rdi, %rdi
	je	.L963
	call	_ZNSt16_Sp_counted_baseILN9__gnu_cxx12_Lock_policyE2EE10_M_releaseEv@PLT
.L963:
	movq	%rbp, %rdi
	call	_ZNSt16_Sp_counted_baseILN9__gnu_cxx12_Lock_policyE2EE10_M_releaseEv@PLT
	movq	56(%rsp), %rax
	xorq	%fs:40, %rax
	jne	.L990
	addq	$72, %rsp
	.cfi_remember_state
	.cfi_def_cfa_offset 56
	popq	%rbx
	.cfi_def_cfa_offset 48
	popq	%rbp
	.cfi_def_cfa_offset 40
	popq	%r12
	.cfi_def_cfa_offset 32
	popq	%r13
	.cfi_def_cfa_offset 24
	popq	%r14
	.cfi_def_cfa_offset 16
	popq	%r15
	.cfi_def_cfa_offset 8
	ret
	.p2align 4,,10
	.p2align 3
.L958:
	.cfi_restore_state
	addl	$1, 8(%rbp)
	jmp	.L959
.L990:
	call	__stack_chk_fail@PLT
.L967:
	endbr64
	movq	%rax, %r12
	jmp	.L964
	.section	.gcc_except_table
.LLSDA8342:
	.byte	0xff
	.byte	0xff
	.byte	0x1
	.uleb128 .LLSDACSE8342-.LLSDACSB8342
.LLSDACSB8342:
	.uleb128 .LEHB27-.LFB8342
	.uleb128 .LEHE27-.LEHB27
	.uleb128 .L967-.LFB8342
	.uleb128 0
.LLSDACSE8342:
	.text
	.cfi_endproc
	.section	.text.unlikely
	.cfi_startproc
	.cfi_personality 0x9b,DW.ref.__gxx_personality_v0
	.cfi_lsda 0x1b,.LLSDAC8342
	.type	_ZN8asiodnp311MasterStack9ScanRangeEN8opendnp316GroupVariationIDEttRKNS1_10TaskConfigE.cold, @function
_ZN8asiodnp311MasterStack9ScanRangeEN8opendnp316GroupVariationIDEttRKNS1_10TaskConfigE.cold:
.LFSB8342:
.L955:
	.cfi_def_cfa_offset 128
	.cfi_offset 3, -56
	.cfi_offset 6, -48
	.cfi_offset 12, -40
	.cfi_offset 13, -32
	.cfi_offset 14, -24
	.cfi_offset 15, -16
.LEHB28:
	call	_ZSt20__throw_bad_weak_ptrv@PLT
.L964:
	movq	8(%rsp), %rdi
	testq	%rdi, %rdi
	je	.L965
	call	_ZNSt16_Sp_counted_baseILN9__gnu_cxx12_Lock_policyE2EE10_M_releaseEv@PLT
.L965:
	movq	%rbp, %rdi
	call	_ZNSt16_Sp_counted_baseILN9__gnu_cxx12_Lock_policyE2EE10_M_releaseEv@PLT
	movq	%r12, %rdi
	call	_Unwind_Resume@PLT
.LEHE28:
	.cfi_endproc
.LFE8342:
	.section	.gcc_except_table
.LLSDAC8342:
	.byte	0xff
	.byte	0xff
	.byte	0x1
	.uleb128 .LLSDACSEC8342-.LLSDACSBC8342
.LLSDACSBC8342:
	.uleb128 .LEHB28-.LCOLDB30
	.uleb128 .LEHE28-.LEHB28
	.uleb128 0
	.uleb128 0
.LLSDACSEC8342:
	.section	.text.unlikely
	.text
	.size	_ZN8asiodnp311MasterStack9ScanRangeEN8opendnp316GroupVariationIDEttRKNS1_10TaskConfigE, .-_ZN8asiodnp311MasterStack9ScanRangeEN8opendnp316GroupVariationIDEttRKNS1_10TaskConfigE
	.section	.text.unlikely
	.size	_ZN8asiodnp311MasterStack9ScanRangeEN8opendnp316GroupVariationIDEttRKNS1_10TaskConfigE.cold, .-_ZN8asiodnp311MasterStack9ScanRangeEN8opendnp316GroupVariationIDEttRKNS1_10TaskConfigE.cold
.LCOLDE30:
	.text
.LHOTE30:
	.section	.text.unlikely
	.align 2
.LCOLDB31:
	.text
.LHOTB31:
	.align 2
	.p2align 4
	.globl	_ZN8asiodnp311MasterStack5WriteERKN8opendnp315TimeAndIntervalEtRKNS1_10TaskConfigE
	.type	_ZN8asiodnp311MasterStack5WriteERKN8opendnp315TimeAndIntervalEtRKNS1_10TaskConfigE, @function
_ZN8asiodnp311MasterStack5WriteERKN8opendnp315TimeAndIntervalEtRKNS1_10TaskConfigE:
.LFB8350:
	.cfi_startproc
	.cfi_personality 0x9b,DW.ref.__gxx_personality_v0
	.cfi_lsda 0x1b,.LLSDA8350
	endbr64
	pushq	%r13
	.cfi_def_cfa_offset 16
	.cfi_offset 13, -16
	pushq	%r12
	.cfi_def_cfa_offset 24
	.cfi_offset 12, -24
	pushq	%rbp
	.cfi_def_cfa_offset 32
	.cfi_offset 6, -32
	pushq	%rbx
	.cfi_def_cfa_offset 40
	.cfi_offset 3, -40
	subq	$88, %rsp
	.cfi_def_cfa_offset 128
	movq	48(%rdi), %rbp
	movq	%fs:40, %rax
	movq	%rax, 72(%rsp)
	xorl	%eax, %eax
	testq	%rbp, %rbp
	je	.L992
	movl	8(%rbp), %eax
	leaq	8(%rbp), %r8
.L994:
	testl	%eax, %eax
	je	.L992
	leal	1(%rax), %r9d
	lock cmpxchgl	%r9d, (%r8)
	jne	.L994
	movq	40(%rdi), %r13
	movq	(%rsi), %rbx
	movq	%rbp, 8(%rsp)
	cmpq	$0, _ZL28__gthrw___pthread_key_createPjPFvPvE@GOTPCREL(%rip)
	movl	8(%rsi), %r11d
	movzbl	12(%rsi), %r10d
	movl	(%rcx), %r9d
	movq	%r13, (%rsp)
	movzbl	4(%rcx), %esi
	movq	8(%rcx), %rax
	movq	88(%rdi), %r12
	je	.L995
	lock addl	$1, (%r8)
.L996:
	movq	%rax, 48(%rsp)
	movq	%rsp, %rdi
	xorl	%eax, %eax
	movq	40(%r12), %r13
	movq	%rbx, 16(%rsp)
	addq	$48, %r12
	movl	%r11d, 24(%rsp)
	movb	%r10b, 28(%rsp)
	movw	%dx, 32(%rsp)
	movl	%r9d, 40(%rsp)
	movb	%sil, 44(%rsp)
	call	_ZN4asio28asio_handler_is_continuationEz@PLT
	movl	%eax, %ebx
	data16	leaq	_ZN4asio6detail15keyword_tss_ptrINS0_10call_stackINS0_15task_io_serviceENS0_27task_io_service_thread_infoEE7contextEE6value_E@tlsgd(%rip), %rdi
	.value	0x6666
	rex64
	call	__tls_get_addr@PLT
	movq	(%rax), %rax
	testq	%rax, %rax
	je	.L997
	movq	8(%rax), %rax
	testq	%rax, %rax
	je	.L997
	movq	(%rax), %rdx
	testq	%rdx, %rdx
	je	.L997
	movq	$0, (%rax)
	movzbl	(%rdx), %eax
	cmpb	$79, %al
	jbe	.L998
	movb	%al, 80(%rdx)
	jmp	.L999
	.p2align 4,,10
	.p2align 3
.L998:
	movq	%rdx, %rdi
	call	_ZdlPv@PLT
.L997:
	movl	$81, %edi
.LEHB29:
	call	_Znwm@PLT
.LEHE29:
	movb	$80, 80(%rax)
	movq	%rax, %rdx
.L999:
	leaq	_ZN4asio6detail18completion_handlerIZN8asiodnp311MasterStack5WriteERKN8opendnp315TimeAndIntervalEtRKNS4_10TaskConfigEEUlvE_E11do_completeEPNS0_15task_io_serviceEPNS0_25task_io_service_operationERKSt10error_codem(%rip), %rax
	movq	%r13, %rdi
	movzbl	%bl, %ecx
	movq	%r12, %rsi
	movq	%rax, 8(%rdx)
	pxor	%xmm0, %xmm0
	movq	$0, (%rdx)
	movdqa	(%rsp), %xmm1
	movl	$0, 16(%rdx)
	movups	%xmm1, 24(%rdx)
	movzwl	32(%rsp), %eax
	movdqa	16(%rsp), %xmm2
	movdqu	40(%rsp), %xmm3
	movaps	%xmm0, (%rsp)
	movw	%ax, 56(%rdx)
	movups	%xmm2, 40(%rdx)
	movups	%xmm3, 64(%rdx)
	call	_ZN4asio6detail14strand_service7do_postERPNS1_11strand_implEPNS0_25task_io_service_operationEb@PLT
	movq	8(%rsp), %rdi
	testq	%rdi, %rdi
	je	.L1000
	call	_ZNSt16_Sp_counted_baseILN9__gnu_cxx12_Lock_policyE2EE10_M_releaseEv@PLT
.L1000:
	movq	%rbp, %rdi
	call	_ZNSt16_Sp_counted_baseILN9__gnu_cxx12_Lock_policyE2EE10_M_releaseEv@PLT
	movq	72(%rsp), %rax
	xorq	%fs:40, %rax
	jne	.L1027
	addq	$88, %rsp
	.cfi_remember_state
	.cfi_def_cfa_offset 40
	popq	%rbx
	.cfi_def_cfa_offset 32
	popq	%rbp
	.cfi_def_cfa_offset 24
	popq	%r12
	.cfi_def_cfa_offset 16
	popq	%r13
	.cfi_def_cfa_offset 8
	ret
	.p2align 4,,10
	.p2align 3
.L995:
	.cfi_restore_state
	addl	$1, 8(%rbp)
	jmp	.L996
.L1027:
	call	__stack_chk_fail@PLT
.L1004:
	endbr64
	movq	%rax, %r12
	jmp	.L1001
	.section	.gcc_except_table
.LLSDA8350:
	.byte	0xff
	.byte	0xff
	.byte	0x1
	.uleb128 .LLSDACSE8350-.LLSDACSB8350
.LLSDACSB8350:
	.uleb128 .LEHB29-.LFB8350
	.uleb128 .LEHE29-.LEHB29
	.uleb128 .L1004-.LFB8350
	.uleb128 0
.LLSDACSE8350:
	.text
	.cfi_endproc
	.section	.text.unlikely
	.cfi_startproc
	.cfi_personality 0x9b,DW.ref.__gxx_personality_v0
	.cfi_lsda 0x1b,.LLSDAC8350
	.type	_ZN8asiodnp311MasterStack5WriteERKN8opendnp315TimeAndIntervalEtRKNS1_10TaskConfigE.cold, @function
_ZN8asiodnp311MasterStack5WriteERKN8opendnp315TimeAndIntervalEtRKNS1_10TaskConfigE.cold:
.LFSB8350:
.L992:
	.cfi_def_cfa_offset 128
	.cfi_offset 3, -40
	.cfi_offset 6, -32
	.cfi_offset 12, -24
	.cfi_offset 13, -16
.LEHB30:
	call	_ZSt20__throw_bad_weak_ptrv@PLT
.L1001:
	movq	8(%rsp), %rdi
	testq	%rdi, %rdi
	je	.L1002
	call	_ZNSt16_Sp_counted_baseILN9__gnu_cxx12_Lock_policyE2EE10_M_releaseEv@PLT
.L1002:
	movq	%rbp, %rdi
	call	_ZNSt16_Sp_counted_baseILN9__gnu_cxx12_Lock_policyE2EE10_M_releaseEv@PLT
	movq	%r12, %rdi
	call	_Unwind_Resume@PLT
.LEHE30:
	.cfi_endproc
.LFE8350:
	.section	.gcc_except_table
.LLSDAC8350:
	.byte	0xff
	.byte	0xff
	.byte	0x1
	.uleb128 .LLSDACSEC8350-.LLSDACSBC8350
.LLSDACSBC8350:
	.uleb128 .LEHB30-.LCOLDB31
	.uleb128 .LEHE30-.LEHB30
	.uleb128 0
	.uleb128 0
.LLSDACSEC8350:
	.section	.text.unlikely
	.text
	.size	_ZN8asiodnp311MasterStack5WriteERKN8opendnp315TimeAndIntervalEtRKNS1_10TaskConfigE, .-_ZN8asiodnp311MasterStack5WriteERKN8opendnp315TimeAndIntervalEtRKNS1_10TaskConfigE
	.section	.text.unlikely
	.size	_ZN8asiodnp311MasterStack5WriteERKN8opendnp315TimeAndIntervalEtRKNS1_10TaskConfigE.cold, .-_ZN8asiodnp311MasterStack5WriteERKN8opendnp315TimeAndIntervalEtRKNS1_10TaskConfigE.cold
.LCOLDE31:
	.text
.LHOTE31:
	.section	.text._ZN8asiodnp311MasterStack13BeginTransmitERKN7openpal6RSliceERN8opendnp312ILinkSessionE,"axG",@progbits,_ZN8asiodnp311MasterStack13BeginTransmitERKN7openpal6RSliceERN8opendnp312ILinkSessionE,comdat
	.align 2
	.p2align 4
	.weak	_ZN8asiodnp311MasterStack13BeginTransmitERKN7openpal6RSliceERN8opendnp312ILinkSessionE
	.type	_ZN8asiodnp311MasterStack13BeginTransmitERKN7openpal6RSliceERN8opendnp312ILinkSessionE, @function
_ZN8asiodnp311MasterStack13BeginTransmitERKN7openpal6RSliceERN8opendnp312ILinkSessionE:
.LFB8121:
	.cfi_startproc
	.cfi_personality 0x9b,DW.ref.__gxx_personality_v0
	.cfi_lsda 0x1b,.LLSDA8121
	endbr64
	pushq	%rbp
	.cfi_def_cfa_offset 16
	.cfi_offset 6, -16
	subq	$32, %rsp
	.cfi_def_cfa_offset 48
	movq	48(%rdi), %rcx
	movq	104(%rdi), %r8
	movq	%fs:40, %rax
	movq	%rax, 24(%rsp)
	xorl	%eax, %eax
	testq	%rcx, %rcx
	je	.L1029
	movl	8(%rcx), %eax
	movq	%rsi, %rdx
	leaq	8(%rcx), %rsi
.L1031:
	testl	%eax, %eax
	je	.L1029
	leal	1(%rax), %r9d
	lock cmpxchgl	%r9d, (%rsi)
	jne	.L1031
	movq	40(%rdi), %rax
	movq	%rcx, %xmm1
	movq	%r8, %rdi
	leaq	16(%rax), %rsi
	testq	%rax, %rax
	cmovne	%rsi, %rax
	movq	%rsp, %rsi
	movq	%rax, %xmm0
	punpcklqdq	%xmm1, %xmm0
	movaps	%xmm0, (%rsp)
.LEHB31:
	call	_ZN8asiodnp39IOHandler13BeginTransmitERKSt10shared_ptrIN8opendnp312ILinkSessionEERKN7openpal6RSliceE@PLT
.LEHE31:
	movq	8(%rsp), %rdi
	testq	%rdi, %rdi
	je	.L1028
	call	_ZNSt16_Sp_counted_baseILN9__gnu_cxx12_Lock_policyE2EE10_M_releaseEv@PLT
.L1028:
	movq	24(%rsp), %rax
	xorq	%fs:40, %rax
	jne	.L1052
	addq	$32, %rsp
	.cfi_remember_state
	.cfi_def_cfa_offset 16
	popq	%rbp
	.cfi_def_cfa_offset 8
	ret
.L1052:
	.cfi_restore_state
	call	__stack_chk_fail@PLT
.L1037:
	endbr64
	movq	%rax, %rbp
	jmp	.L1034
.L1029:
.LEHB32:
	call	_ZSt20__throw_bad_weak_ptrv@PLT
.L1034:
	movq	8(%rsp), %rdi
	testq	%rdi, %rdi
	je	.L1035
	call	_ZNSt16_Sp_counted_baseILN9__gnu_cxx12_Lock_policyE2EE10_M_releaseEv@PLT
.L1035:
	movq	%rbp, %rdi
	call	_Unwind_Resume@PLT
.LEHE32:
	.cfi_endproc
.LFE8121:
	.section	.gcc_except_table
.LLSDA8121:
	.byte	0xff
	.byte	0xff
	.byte	0x1
	.uleb128 .LLSDACSE8121-.LLSDACSB8121
.LLSDACSB8121:
	.uleb128 .LEHB31-.LFB8121
	.uleb128 .LEHE31-.LEHB31
	.uleb128 .L1037-.LFB8121
	.uleb128 0
	.uleb128 .LEHB32-.LFB8121
	.uleb128 .LEHE32-.LEHB32
	.uleb128 0
	.uleb128 0
.LLSDACSE8121:
	.section	.text._ZN8asiodnp311MasterStack13BeginTransmitERKN7openpal6RSliceERN8opendnp312ILinkSessionE,"axG",@progbits,_ZN8asiodnp311MasterStack13BeginTransmitERKN7openpal6RSliceERN8opendnp312ILinkSessionE,comdat
	.size	_ZN8asiodnp311MasterStack13BeginTransmitERKN7openpal6RSliceERN8opendnp312ILinkSessionE, .-_ZN8asiodnp311MasterStack13BeginTransmitERKN7openpal6RSliceERN8opendnp312ILinkSessionE
	.section	.text._ZN8asiodnp39StackBase15PerformShutdownINS_11MasterStackEEEvRKSt10shared_ptrIT_E,"axG",@progbits,_ZN8asiodnp39StackBase15PerformShutdownINS_11MasterStackEEEvRKSt10shared_ptrIT_E,comdat
	.align 2
	.p2align 4
	.weak	_ZN8asiodnp39StackBase15PerformShutdownINS_11MasterStackEEEvRKSt10shared_ptrIT_E
	.type	_ZN8asiodnp39StackBase15PerformShutdownINS_11MasterStackEEEvRKSt10shared_ptrIT_E, @function
_ZN8asiodnp39StackBase15PerformShutdownINS_11MasterStackEEEvRKSt10shared_ptrIT_E:
.LFB9318:
	.cfi_startproc
	.cfi_personality 0x9b,DW.ref.__gxx_personality_v0
	.cfi_lsda 0x1b,.LLSDA9318
	endbr64
	pushq	%r13
	.cfi_def_cfa_offset 16
	.cfi_offset 13, -16
	pushq	%r12
	.cfi_def_cfa_offset 24
	.cfi_offset 12, -24
	pushq	%rbp
	.cfi_def_cfa_offset 32
	.cfi_offset 6, -32
	pushq	%rbx
	.cfi_def_cfa_offset 40
	.cfi_offset 3, -40
	subq	$56, %rsp
	.cfi_def_cfa_offset 96
	movq	8(%rsi), %rbp
	movq	(%rsi), %rbx
	movq	%fs:40, %rax
	movq	%rax, 40(%rsp)
	xorl	%eax, %eax
	testq	%rbp, %rbp
	je	.L1054
	movq	_ZL28__gthrw___pthread_key_createPjPFvPvE@GOTPCREL(%rip), %rdx
	leaq	8(%rbp), %rax
	testq	%rdx, %rdx
	je	.L1055
	lock addl	$1, (%rax)
	movq	32(%rdi), %r13
	testq	%rdx, %rdx
	je	.L1100
.L1071:
	lock addl	$1, (%rax)
.L1057:
	movq	$0, 16(%rsp)
	movl	$16, %edi
.LEHB33:
	call	_Znwm@PLT
.LEHE33:
	movq	%rbx, %xmm0
	movq	%rbp, %xmm1
	punpcklqdq	%xmm1, %xmm0
	movups	%xmm0, (%rax)
	testq	%rbp, %rbp
	je	.L1058
	cmpq	$0, _ZL28__gthrw___pthread_key_createPjPFvPvE@GOTPCREL(%rip)
	je	.L1059
	lock addl	$1, 8(%rbp)
.L1058:
	movq	_ZNSt14_Function_base13_Base_managerIZN8asiodnp39StackBase15PerformShutdownINS1_11MasterStackEEEvRKSt10shared_ptrIT_EEUlvE_E10_M_managerERSt9_Any_dataRKSC_St18_Manager_operation@GOTPCREL(%rip), %xmm0
	movq	%rsp, %r12
	movq	%r13, %rdi
	movq	%rax, (%rsp)
	movq	%r12, %rsi
	movhps	_ZNSt17_Function_handlerIFvvEZN8asiodnp39StackBase15PerformShutdownINS1_11MasterStackEEEvRKSt10shared_ptrIT_EEUlvE_E9_M_invokeERKSt9_Any_data@GOTPCREL(%rip), %xmm0
	movaps	%xmm0, 16(%rsp)
.LEHB34:
	call	_ZN7asiopal8Executor18BlockUntilAndFlushERKSt8functionIFvvEE@PLT
.LEHE34:
	movq	16(%rsp), %rax
	testq	%rax, %rax
	je	.L1064
	movl	$3, %edx
	movq	%r12, %rsi
	movq	%r12, %rdi
	call	*%rax
.L1064:
	testq	%rbp, %rbp
	je	.L1053
	movq	%rbp, %rdi
	call	_ZNSt16_Sp_counted_baseILN9__gnu_cxx12_Lock_policyE2EE10_M_releaseEv@PLT
	movq	%rbp, %rdi
	call	_ZNSt16_Sp_counted_baseILN9__gnu_cxx12_Lock_policyE2EE10_M_releaseEv@PLT
.L1053:
	movq	40(%rsp), %rax
	xorq	%fs:40, %rax
	jne	.L1101
	addq	$56, %rsp
	.cfi_remember_state
	.cfi_def_cfa_offset 40
	popq	%rbx
	.cfi_def_cfa_offset 32
	popq	%rbp
	.cfi_def_cfa_offset 24
	popq	%r12
	.cfi_def_cfa_offset 16
	popq	%r13
	.cfi_def_cfa_offset 8
	ret
	.p2align 4,,10
	.p2align 3
.L1055:
	.cfi_restore_state
	addl	$1, 8(%rbp)
	movq	32(%rdi), %r13
	testq	%rdx, %rdx
	jne	.L1071
.L1100:
	addl	$1, 8(%rbp)
	jmp	.L1057
	.p2align 4,,10
	.p2align 3
.L1059:
	addl	$1, 8(%rbp)
	jmp	.L1058
	.p2align 4,,10
	.p2align 3
.L1054:
	movq	32(%rdi), %r13
	jmp	.L1057
.L1101:
	call	__stack_chk_fail@PLT
.L1075:
	endbr64
	movq	%rax, %r12
	jmp	.L1061
.L1074:
	endbr64
	movq	%rax, %rbx
	jmp	.L1066
.L1061:
	movq	16(%rsp), %rax
	testq	%rax, %rax
	je	.L1063
	movq	%rsp, %rdi
	movl	$3, %edx
	movq	%rdi, %rsi
	call	*%rax
.L1063:
	testq	%rbp, %rbp
	je	.L1069
	movq	%rbp, %rdi
	call	_ZNSt16_Sp_counted_baseILN9__gnu_cxx12_Lock_policyE2EE10_M_releaseEv@PLT
	movq	%rbp, %rdi
	call	_ZNSt16_Sp_counted_baseILN9__gnu_cxx12_Lock_policyE2EE10_M_releaseEv@PLT
.L1069:
	movq	%r12, %rdi
.LEHB35:
	call	_Unwind_Resume@PLT
.LEHE35:
.L1066:
	movq	16(%rsp), %rax
	testq	%rax, %rax
	je	.L1067
	movl	$3, %edx
	movq	%r12, %rsi
	movq	%r12, %rdi
	call	*%rax
.L1067:
	movq	%rbx, %r12
	jmp	.L1063
	.cfi_endproc
.LFE9318:
	.section	.gcc_except_table
.LLSDA9318:
	.byte	0xff
	.byte	0xff
	.byte	0x1
	.uleb128 .LLSDACSE9318-.LLSDACSB9318
.LLSDACSB9318:
	.uleb128 .LEHB33-.LFB9318
	.uleb128 .LEHE33-.LEHB33
	.uleb128 .L1075-.LFB9318
	.uleb128 0
	.uleb128 .LEHB34-.LFB9318
	.uleb128 .LEHE34-.LEHB34
	.uleb128 .L1074-.LFB9318
	.uleb128 0
	.uleb128 .LEHB35-.LFB9318
	.uleb128 .LEHE35-.LEHB35
	.uleb128 0
	.uleb128 0
.LLSDACSE9318:
	.section	.text._ZN8asiodnp39StackBase15PerformShutdownINS_11MasterStackEEEvRKSt10shared_ptrIT_E,"axG",@progbits,_ZN8asiodnp39StackBase15PerformShutdownINS_11MasterStackEEEvRKSt10shared_ptrIT_E,comdat
	.size	_ZN8asiodnp39StackBase15PerformShutdownINS_11MasterStackEEEvRKSt10shared_ptrIT_E, .-_ZN8asiodnp39StackBase15PerformShutdownINS_11MasterStackEEEvRKSt10shared_ptrIT_E
	.section	.text.unlikely
	.align 2
.LCOLDB32:
	.text
.LHOTB32:
	.align 2
	.p2align 4
	.globl	_ZN8asiodnp311MasterStack8ShutdownEv
	.type	_ZN8asiodnp311MasterStack8ShutdownEv, @function
_ZN8asiodnp311MasterStack8ShutdownEv:
.LFB8213:
	.cfi_startproc
	.cfi_personality 0x9b,DW.ref.__gxx_personality_v0
	.cfi_lsda 0x1b,.LLSDA8213
	endbr64
	pushq	%rbp
	.cfi_def_cfa_offset 16
	.cfi_offset 6, -16
	subq	$32, %rsp
	.cfi_def_cfa_offset 48
	movq	%fs:40, %rax
	movq	%rax, 24(%rsp)
	xorl	%eax, %eax
	movq	48(%rdi), %rax
	movq	%rax, 8(%rsp)
	testq	%rax, %rax
	je	.L1103
	leaq	8(%rax), %rdx
	movl	8(%rax), %eax
	leaq	56(%rdi), %r8
.L1105:
	testl	%eax, %eax
	je	.L1103
	leal	1(%rax), %ecx
	lock cmpxchgl	%ecx, (%rdx)
	jne	.L1105
	movq	40(%rdi), %rax
	movq	%rsp, %rsi
	movq	%r8, %rdi
	movq	%rax, (%rsp)
.LEHB36:
	call	_ZN8asiodnp39StackBase15PerformShutdownINS_11MasterStackEEEvRKSt10shared_ptrIT_E@PLT
.LEHE36:
	movq	8(%rsp), %rdi
	testq	%rdi, %rdi
	je	.L1102
	call	_ZNSt16_Sp_counted_baseILN9__gnu_cxx12_Lock_policyE2EE10_M_releaseEv@PLT
.L1102:
	movq	24(%rsp), %rax
	xorq	%fs:40, %rax
	jne	.L1123
	addq	$32, %rsp
	.cfi_remember_state
	.cfi_def_cfa_offset 16
	popq	%rbp
	.cfi_def_cfa_offset 8
	ret
.L1123:
	.cfi_restore_state
	call	__stack_chk_fail@PLT
.L1110:
	endbr64
	movq	%rax, %rbp
	jmp	.L1107
	.section	.gcc_except_table
.LLSDA8213:
	.byte	0xff
	.byte	0xff
	.byte	0x1
	.uleb128 .LLSDACSE8213-.LLSDACSB8213
.LLSDACSB8213:
	.uleb128 .LEHB36-.LFB8213
	.uleb128 .LEHE36-.LEHB36
	.uleb128 .L1110-.LFB8213
	.uleb128 0
.LLSDACSE8213:
	.text
	.cfi_endproc
	.section	.text.unlikely
	.cfi_startproc
	.cfi_personality 0x9b,DW.ref.__gxx_personality_v0
	.cfi_lsda 0x1b,.LLSDAC8213
	.type	_ZN8asiodnp311MasterStack8ShutdownEv.cold, @function
_ZN8asiodnp311MasterStack8ShutdownEv.cold:
.LFSB8213:
.L1103:
	.cfi_def_cfa_offset 48
	.cfi_offset 6, -16
.LEHB37:
	call	_ZSt20__throw_bad_weak_ptrv@PLT
.L1107:
	movq	8(%rsp), %rdi
	testq	%rdi, %rdi
	je	.L1108
	call	_ZNSt16_Sp_counted_baseILN9__gnu_cxx12_Lock_policyE2EE10_M_releaseEv@PLT
.L1108:
	movq	%rbp, %rdi
	call	_Unwind_Resume@PLT
.LEHE37:
	.cfi_endproc
.LFE8213:
	.section	.gcc_except_table
.LLSDAC8213:
	.byte	0xff
	.byte	0xff
	.byte	0x1
	.uleb128 .LLSDACSEC8213-.LLSDACSBC8213
.LLSDACSBC8213:
	.uleb128 .LEHB37-.LCOLDB32
	.uleb128 .LEHE37-.LEHB37
	.uleb128 0
	.uleb128 0
.LLSDACSEC8213:
	.section	.text.unlikely
	.text
	.size	_ZN8asiodnp311MasterStack8ShutdownEv, .-_ZN8asiodnp311MasterStack8ShutdownEv
	.section	.text.unlikely
	.size	_ZN8asiodnp311MasterStack8ShutdownEv.cold, .-_ZN8asiodnp311MasterStack8ShutdownEv.cold
.LCOLDE32:
	.text
.LHOTE32:
	.section	.text._ZNSt14_Function_base13_Base_managerIZN8asiodnp39StackBase15PerformShutdownINS1_11MasterStackEEEvRKSt10shared_ptrIT_EEUlvE_E10_M_managerERSt9_Any_dataRKSC_St18_Manager_operation,"axG",@progbits,_ZNSt14_Function_base13_Base_managerIZN8asiodnp39StackBase15PerformShutdownINS1_11MasterStackEEEvRKSt10shared_ptrIT_EEUlvE_E10_M_managerERSt9_Any_dataRKSC_St18_Manager_operation,comdat
	.p2align 4
	.weak	_ZNSt14_Function_base13_Base_managerIZN8asiodnp39StackBase15PerformShutdownINS1_11MasterStackEEEvRKSt10shared_ptrIT_EEUlvE_E10_M_managerERSt9_Any_dataRKSC_St18_Manager_operation
	.type	_ZNSt14_Function_base13_Base_managerIZN8asiodnp39StackBase15PerformShutdownINS1_11MasterStackEEEvRKSt10shared_ptrIT_EEUlvE_E10_M_managerERSt9_Any_dataRKSC_St18_Manager_operation, @function
_ZNSt14_Function_base13_Base_managerIZN8asiodnp39StackBase15PerformShutdownINS1_11MasterStackEEEvRKSt10shared_ptrIT_EEUlvE_E10_M_managerERSt9_Any_dataRKSC_St18_Manager_operation:
.LFB10549:
	.cfi_startproc
	endbr64
	pushq	%rbp
	.cfi_def_cfa_offset 16
	.cfi_offset 6, -16
	pushq	%rbx
	.cfi_def_cfa_offset 24
	.cfi_offset 3, -24
	movq	%rdi, %rbx
	subq	$8, %rsp
	.cfi_def_cfa_offset 32
	cmpl	$2, %edx
	je	.L1125
	ja	.L1126
	testl	%edx, %edx
	je	.L1145
	movq	(%rsi), %rax
	movq	%rax, (%rdi)
.L1130:
	addq	$8, %rsp
	.cfi_remember_state
	.cfi_def_cfa_offset 24
	xorl	%eax, %eax
	popq	%rbx
	.cfi_def_cfa_offset 16
	popq	%rbp
	.cfi_def_cfa_offset 8
	ret
	.p2align 4,,10
	.p2align 3
.L1126:
	.cfi_restore_state
	cmpl	$3, %edx
	jne	.L1130
	movq	(%rdi), %rbp
	testq	%rbp, %rbp
	je	.L1130
	movq	8(%rbp), %rdi
	testq	%rdi, %rdi
	je	.L1133
	call	_ZNSt16_Sp_counted_baseILN9__gnu_cxx12_Lock_policyE2EE10_M_releaseEv@PLT
.L1133:
	movq	%rbp, %rdi
	movl	$16, %esi
	call	_ZdlPvm@PLT
	addq	$8, %rsp
	.cfi_remember_state
	.cfi_def_cfa_offset 24
	xorl	%eax, %eax
	popq	%rbx
	.cfi_def_cfa_offset 16
	popq	%rbp
	.cfi_def_cfa_offset 8
	ret
	.p2align 4,,10
	.p2align 3
.L1125:
	.cfi_restore_state
	movq	(%rsi), %rbp
	movl	$16, %edi
	call	_Znwm@PLT
	movq	0(%rbp), %rdx
	movq	%rdx, (%rax)
	movq	8(%rbp), %rdx
	movq	%rdx, 8(%rax)
	testq	%rdx, %rdx
	je	.L1131
	cmpq	$0, _ZL28__gthrw___pthread_key_createPjPFvPvE@GOTPCREL(%rip)
	je	.L1132
	lock addl	$1, 8(%rdx)
.L1131:
	movq	%rax, (%rbx)
	addq	$8, %rsp
	.cfi_remember_state
	.cfi_def_cfa_offset 24
	xorl	%eax, %eax
	popq	%rbx
	.cfi_def_cfa_offset 16
	popq	%rbp
	.cfi_def_cfa_offset 8
	ret
	.p2align 4,,10
	.p2align 3
.L1145:
	.cfi_restore_state
	movq	_ZTIZN8asiodnp39StackBase15PerformShutdownINS_11MasterStackEEEvRKSt10shared_ptrIT_EEUlvE_@GOTPCREL(%rip), %rax
	movq	%rax, (%rdi)
	addq	$8, %rsp
	.cfi_remember_state
	.cfi_def_cfa_offset 24
	xorl	%eax, %eax
	popq	%rbx
	.cfi_def_cfa_offset 16
	popq	%rbp
	.cfi_def_cfa_offset 8
	ret
	.p2align 4,,10
	.p2align 3
.L1132:
	.cfi_restore_state
	addl	$1, 8(%rdx)
	jmp	.L1131
	.cfi_endproc
.LFE10549:
	.size	_ZNSt14_Function_base13_Base_managerIZN8asiodnp39StackBase15PerformShutdownINS1_11MasterStackEEEvRKSt10shared_ptrIT_EEUlvE_E10_M_managerERSt9_Any_dataRKSC_St18_Manager_operation, .-_ZNSt14_Function_base13_Base_managerIZN8asiodnp39StackBase15PerformShutdownINS1_11MasterStackEEEvRKSt10shared_ptrIT_EEUlvE_E10_M_managerERSt9_Any_dataRKSC_St18_Manager_operation
	.section	.text.unlikely
	.align 2
	.type	_ZZN8asiodnp311MasterStack15PerformFunctionERKNSt7__cxx1112basic_stringIcSt11char_traitsIcESaIcEEEN8opendnp312FunctionCodeERKSt6vectorINS9_6HeaderESaISC_EERKNS9_10TaskConfigEENUlvE_D2Ev, @function
_ZZN8asiodnp311MasterStack15PerformFunctionERKNSt7__cxx1112basic_stringIcSt11char_traitsIcESaIcEEEN8opendnp312FunctionCodeERKSt6vectorINS9_6HeaderESaISC_EERKNS9_10TaskConfigEENUlvE_D2Ev:
.LFB8372:
	.cfi_startproc
	.cfi_personality 0x9b,DW.ref.__gxx_personality_v0
	.cfi_lsda 0x1b,.LLSDA8372
	pushq	%rbx
	.cfi_def_cfa_offset 16
	.cfi_offset 3, -16
	movq	72(%rdi), %rax
	movq	%rdi, %rbx
	testq	%rax, %rax
	je	.L1147
	leaq	56(%rdi), %rdi
	movl	$3, %edx
	movq	%rdi, %rsi
	call	*%rax
.L1147:
	movq	16(%rbx), %rdi
	leaq	32(%rbx), %rax
	cmpq	%rax, %rdi
	je	.L1148
	call	_ZdlPv@PLT
.L1148:
	movq	8(%rbx), %rdi
	testq	%rdi, %rdi
	je	.L1146
	popq	%rbx
	.cfi_remember_state
	.cfi_def_cfa_offset 8
	jmp	_ZNSt16_Sp_counted_baseILN9__gnu_cxx12_Lock_policyE2EE10_M_releaseEv@PLT
.L1146:
	.cfi_restore_state
	popq	%rbx
	.cfi_def_cfa_offset 8
	ret
	.cfi_endproc
.LFE8372:
	.section	.gcc_except_table
.LLSDA8372:
	.byte	0xff
	.byte	0xff
	.byte	0x1
	.uleb128 .LLSDACSE8372-.LLSDACSB8372
.LLSDACSB8372:
.LLSDACSE8372:
	.section	.text.unlikely
	.size	_ZZN8asiodnp311MasterStack15PerformFunctionERKNSt7__cxx1112basic_stringIcSt11char_traitsIcESaIcEEEN8opendnp312FunctionCodeERKSt6vectorINS9_6HeaderESaISC_EERKNS9_10TaskConfigEENUlvE_D2Ev, .-_ZZN8asiodnp311MasterStack15PerformFunctionERKNSt7__cxx1112basic_stringIcSt11char_traitsIcESaIcEEEN8opendnp312FunctionCodeERKSt6vectorINS9_6HeaderESaISC_EERKNS9_10TaskConfigEENUlvE_D2Ev
	.set	_ZZN8asiodnp311MasterStack15PerformFunctionERKNSt7__cxx1112basic_stringIcSt11char_traitsIcESaIcEEEN8opendnp312FunctionCodeERKSt6vectorINS9_6HeaderESaISC_EERKNS9_10TaskConfigEENUlvE_D1Ev,_ZZN8asiodnp311MasterStack15PerformFunctionERKNSt7__cxx1112basic_stringIcSt11char_traitsIcESaIcEEEN8opendnp312FunctionCodeERKSt6vectorINS9_6HeaderESaISC_EERKNS9_10TaskConfigEENUlvE_D2Ev
	.section	.text._ZN4asio6detail18completion_handlerIZN7asiopal8Executor10ReturnFromISt10shared_ptrIN8opendnp311IMasterTaskEEEET_RKSt8functionIFS9_vEEEUlvE_E11do_completeEPNS0_15task_io_serviceEPNS0_25task_io_service_operationERKSt10error_codem,"axG",@progbits,_ZN4asio6detail18completion_handlerIZN7asiopal8Executor10ReturnFromISt10shared_ptrIN8opendnp311IMasterTaskEEEET_RKSt8functionIFS9_vEEEUlvE_E11do_completeEPNS0_15task_io_serviceEPNS0_25task_io_service_operationERKSt10error_codem,comdat
	.p2align 4
	.weak	_ZN4asio6detail18completion_handlerIZN7asiopal8Executor10ReturnFromISt10shared_ptrIN8opendnp311IMasterTaskEEEET_RKSt8functionIFS9_vEEEUlvE_E11do_completeEPNS0_15task_io_serviceEPNS0_25task_io_service_operationERKSt10error_codem
	.type	_ZN4asio6detail18completion_handlerIZN7asiopal8Executor10ReturnFromISt10shared_ptrIN8opendnp311IMasterTaskEEEET_RKSt8functionIFS9_vEEEUlvE_E11do_completeEPNS0_15task_io_serviceEPNS0_25task_io_service_operationERKSt10error_codem, @function
_ZN4asio6detail18completion_handlerIZN7asiopal8Executor10ReturnFromISt10shared_ptrIN8opendnp311IMasterTaskEEEET_RKSt8functionIFS9_vEEEUlvE_E11do_completeEPNS0_15task_io_serviceEPNS0_25task_io_service_operationERKSt10error_codem:
.LFB11410:
	.cfi_startproc
	.cfi_personality 0x9b,DW.ref.__gxx_personality_v0
	.cfi_lsda 0x1b,.LLSDA11410
	endbr64
	pushq	%r13
	.cfi_def_cfa_offset 16
	.cfi_offset 13, -16
	pushq	%r12
	.cfi_def_cfa_offset 24
	.cfi_offset 12, -24
	pushq	%rbp
	.cfi_def_cfa_offset 32
	.cfi_offset 6, -32
	movq	%rsi, %rbp
	pushq	%rbx
	.cfi_def_cfa_offset 40
	.cfi_offset 3, -40
	movq	%rdi, %rbx
	subq	$152, %rsp
	.cfi_def_cfa_offset 192
	movq	24(%rsi), %r13
	movq	32(%rsi), %r12
	movq	%fs:40, %rax
	movq	%rax, 136(%rsp)
	xorl	%eax, %eax
	data16	leaq	_ZN4asio6detail15keyword_tss_ptrINS0_10call_stackINS0_15task_io_serviceENS0_27task_io_service_thread_infoEE7contextEE6value_E@tlsgd(%rip), %rdi
	.value	0x6666
	rex64
	call	__tls_get_addr@PLT
	movq	(%rax), %rax
	testq	%rax, %rax
	je	.L1155
	movq	8(%rax), %rax
	testq	%rax, %rax
	je	.L1155
	cmpq	$0, (%rax)
	je	.L1195
.L1155:
	movq	%rbp, %rdi
	call	_ZdlPv@PLT
.L1156:
	testq	%rbx, %rbx
	je	.L1154
	cmpq	$0, 16(%r12)
	je	.L1196
	leaq	32(%rsp), %rbp
	movq	%r12, %rsi
	movq	%rbp, %rdi
.LEHB38:
	call	*24(%r12)
.LEHE38:
	movq	0(%r13), %rbx
	testq	%rbx, %rbx
	je	.L1197
	leaq	7(%rsp), %rax
	movq	%rbp, 104(%rsp)
	leaq	96(%rsp), %rbp
	movq	_ZNSt14_Function_base13_Base_managerINSt13__future_base13_State_baseV27_SetterISt10shared_ptrIN8opendnp311IMasterTaskEEOS7_EEE10_M_managerERSt9_Any_dataRKSB_St18_Manager_operation@GOTPCREL(%rip), %xmm0
	movq	%rax, 24(%rsp)
	movq	_ZNSt13__future_base13_State_baseV29_M_do_setEPSt8functionIFSt10unique_ptrINS_12_Result_baseENS3_8_DeleterEEvEEPb@GOTPCREL(%rip), %rax
	movhps	_ZNSt17_Function_handlerIFSt10unique_ptrINSt13__future_base12_Result_baseENS2_8_DeleterEEvENS1_13_State_baseV27_SetterISt10shared_ptrIN8opendnp311IMasterTaskEEOSB_EEE9_M_invokeERKSt9_Any_data@GOTPCREL(%rip), %xmm0
	movq	%r13, 96(%rsp)
	movq	%rax, 48(%rsp)
	leaq	48(%rsp), %rax
	movaps	%xmm0, 112(%rsp)
	movq	%rax, %xmm0
	leaq	8(%rsp), %rax
	movq	%rax, %xmm1
	leaq	16(%rsp), %rax
	movb	$0, 7(%rsp)
	punpcklqdq	%xmm1, %xmm0
	movq	%rbp, 16(%rsp)
	movaps	%xmm0, 64(%rsp)
	movq	%rax, %xmm0
	leaq	24(%rsp), %rax
	movq	%rax, %xmm2
	movq	%rbx, 8(%rsp)
	movq	$0, 56(%rsp)
	punpcklqdq	%xmm2, %xmm0
	movaps	%xmm0, 80(%rsp)
	data16	leaq	_ZSt15__once_callable@tlsgd(%rip), %rdi
	.value	0x6666
	rex64
	call	__tls_get_addr@PLT
	leaq	64(%rsp), %rdx
	movq	%rdx, (%rax)
	data16	leaq	_ZSt11__once_call@tlsgd(%rip), %rdi
	.value	0x6666
	rex64
	call	__tls_get_addr@PLT
	movq	_ZZSt9call_onceIMNSt13__future_base13_State_baseV2EFvPSt8functionIFSt10unique_ptrINS0_12_Result_baseENS4_8_DeleterEEvEEPbEJPS1_S9_SA_EEvRSt9once_flagOT_DpOT0_ENUlvE0_4_FUNEv@GOTPCREL(%rip), %rdx
	leaq	24(%rbx), %rdi
	cmpq	$0, _ZL28__gthrw___pthread_key_createPjPFvPvE@GOTPCREL(%rip)
	movq	%rdx, (%rax)
	je	.L1175
	movq	__once_proxy@GOTPCREL(%rip), %rsi
.LEHB39:
	call	_ZL20__gthrw_pthread_oncePiPFvvE@PLT
	testl	%eax, %eax
	jne	.L1160
	cmpb	$0, 7(%rsp)
	jne	.L1198
	movl	$2, %edi
	call	_ZSt20__throw_future_errori@PLT
	.p2align 4,,10
	.p2align 3
.L1198:
	leaq	16(%rbx), %rdi
	movl	$1, %eax
	xchgl	(%rdi), %eax
	testl	%eax, %eax
	jns	.L1166
	call	_ZNSt28__atomic_futex_unsigned_base19_M_futex_notify_allEPj@PLT
.LEHE39:
.L1166:
	movq	112(%rsp), %rax
	testq	%rax, %rax
	je	.L1165
	movl	$3, %edx
	movq	%rbp, %rsi
	movq	%rbp, %rdi
	call	*%rax
.L1165:
	movq	40(%rsp), %rdi
	testq	%rdi, %rdi
	je	.L1168
	call	_ZNSt16_Sp_counted_baseILN9__gnu_cxx12_Lock_policyE2EE10_M_releaseEv@PLT
.L1168:
	sfence
.L1154:
	movq	136(%rsp), %rax
	xorq	%fs:40, %rax
	jne	.L1199
	addq	$152, %rsp
	.cfi_remember_state
	.cfi_def_cfa_offset 40
	popq	%rbx
	.cfi_def_cfa_offset 32
	popq	%rbp
	.cfi_def_cfa_offset 24
	popq	%r12
	.cfi_def_cfa_offset 16
	popq	%r13
	.cfi_def_cfa_offset 8
	ret
	.p2align 4,,10
	.p2align 3
.L1195:
	.cfi_restore_state
	movzbl	40(%rbp), %edx
	movb	%dl, 0(%rbp)
	movq	%rbp, (%rax)
	jmp	.L1156
.L1175:
	movl	$-1, %eax
.L1160:
	movl	%eax, %edi
.LEHB40:
	call	_ZSt20__throw_system_errori@PLT
.LEHE40:
.L1196:
.LEHB41:
	call	_ZSt25__throw_bad_function_callv@PLT
.LEHE41:
.L1197:
	movl	$3, %edi
.LEHB42:
	call	_ZSt20__throw_future_errori@PLT
.LEHE42:
.L1199:
	call	__stack_chk_fail@PLT
.L1177:
	endbr64
	movq	%rax, %rbx
	jmp	.L1171
.L1176:
	endbr64
	movq	%rax, %rdi
	jmp	.L1173
.L1178:
	endbr64
	movq	%rax, %rbx
.L1169:
	movq	112(%rsp), %rax
	testq	%rax, %rax
	je	.L1171
	movl	$3, %edx
	movq	%rbp, %rsi
	movq	%rbp, %rdi
	call	*%rax
.L1171:
	movq	40(%rsp), %rdi
	testq	%rdi, %rdi
	je	.L1172
	call	_ZNSt16_Sp_counted_baseILN9__gnu_cxx12_Lock_policyE2EE10_M_releaseEv@PLT
.L1172:
	movq	%rbx, %rdi
.L1173:
	sfence
.LEHB43:
	call	_Unwind_Resume@PLT
.LEHE43:
	.cfi_endproc
.LFE11410:
	.section	.gcc_except_table
.LLSDA11410:
	.byte	0xff
	.byte	0xff
	.byte	0x1
	.uleb128 .LLSDACSE11410-.LLSDACSB11410
.LLSDACSB11410:
	.uleb128 .LEHB38-.LFB11410
	.uleb128 .LEHE38-.LEHB38
	.uleb128 .L1176-.LFB11410
	.uleb128 0
	.uleb128 .LEHB39-.LFB11410
	.uleb128 .LEHE39-.LEHB39
	.uleb128 .L1178-.LFB11410
	.uleb128 0
	.uleb128 .LEHB40-.LFB11410
	.uleb128 .LEHE40-.LEHB40
	.uleb128 .L1178-.LFB11410
	.uleb128 0
	.uleb128 .LEHB41-.LFB11410
	.uleb128 .LEHE41-.LEHB41
	.uleb128 .L1176-.LFB11410
	.uleb128 0
	.uleb128 .LEHB42-.LFB11410
	.uleb128 .LEHE42-.LEHB42
	.uleb128 .L1177-.LFB11410
	.uleb128 0
	.uleb128 .LEHB43-.LFB11410
	.uleb128 .LEHE43-.LEHB43
	.uleb128 0
	.uleb128 0
.LLSDACSE11410:
	.section	.text._ZN4asio6detail18completion_handlerIZN7asiopal8Executor10ReturnFromISt10shared_ptrIN8opendnp311IMasterTaskEEEET_RKSt8functionIFS9_vEEEUlvE_E11do_completeEPNS0_15task_io_serviceEPNS0_25task_io_service_operationERKSt10error_codem,"axG",@progbits,_ZN4asio6detail18completion_handlerIZN7asiopal8Executor10ReturnFromISt10shared_ptrIN8opendnp311IMasterTaskEEEET_RKSt8functionIFS9_vEEEUlvE_E11do_completeEPNS0_15task_io_serviceEPNS0_25task_io_service_operationERKSt10error_codem,comdat
	.size	_ZN4asio6detail18completion_handlerIZN7asiopal8Executor10ReturnFromISt10shared_ptrIN8opendnp311IMasterTaskEEEET_RKSt8functionIFS9_vEEEUlvE_E11do_completeEPNS0_15task_io_serviceEPNS0_25task_io_service_operationERKSt10error_codem, .-_ZN4asio6detail18completion_handlerIZN7asiopal8Executor10ReturnFromISt10shared_ptrIN8opendnp311IMasterTaskEEEET_RKSt8functionIFS9_vEEEUlvE_E11do_completeEPNS0_15task_io_serviceEPNS0_25task_io_service_operationERKSt10error_codem
	.section	.text._ZNSt13__future_base7_ResultISt10shared_ptrIN8opendnp311IMasterTaskEEED2Ev,"axG",@progbits,_ZNSt13__future_base7_ResultISt10shared_ptrIN8opendnp311IMasterTaskEEED5Ev,comdat
	.align 2
	.p2align 4
	.weak	_ZNSt13__future_base7_ResultISt10shared_ptrIN8opendnp311IMasterTaskEEED2Ev
	.type	_ZNSt13__future_base7_ResultISt10shared_ptrIN8opendnp311IMasterTaskEEED2Ev, @function
_ZNSt13__future_base7_ResultISt10shared_ptrIN8opendnp311IMasterTaskEEED2Ev:
.LFB12267:
	.cfi_startproc
	endbr64
	movq	_ZTVNSt13__future_base7_ResultISt10shared_ptrIN8opendnp311IMasterTaskEEEE@GOTPCREL(%rip), %rax
	pushq	%rbp
	.cfi_def_cfa_offset 16
	.cfi_offset 6, -16
	movq	%rdi, %rbp
	addq	$16, %rax
	cmpb	$0, 32(%rdi)
	movq	%rax, (%rdi)
	je	.L1201
	movq	24(%rdi), %rdi
	testq	%rdi, %rdi
	je	.L1201
	call	_ZNSt16_Sp_counted_baseILN9__gnu_cxx12_Lock_policyE2EE10_M_releaseEv@PLT
.L1201:
	movq	%rbp, %rdi
	popq	%rbp
	.cfi_def_cfa_offset 8
	jmp	_ZNSt13__future_base12_Result_baseD2Ev@PLT
	.cfi_endproc
.LFE12267:
	.size	_ZNSt13__future_base7_ResultISt10shared_ptrIN8opendnp311IMasterTaskEEED2Ev, .-_ZNSt13__future_base7_ResultISt10shared_ptrIN8opendnp311IMasterTaskEEED2Ev
	.weak	_ZNSt13__future_base7_ResultISt10shared_ptrIN8opendnp311IMasterTaskEEED1Ev
	.set	_ZNSt13__future_base7_ResultISt10shared_ptrIN8opendnp311IMasterTaskEEED1Ev,_ZNSt13__future_base7_ResultISt10shared_ptrIN8opendnp311IMasterTaskEEED2Ev
	.section	.text._ZNSt17_Function_handlerIFvvEZN8asiodnp39StackBase15PerformShutdownINS1_11MasterStackEEEvRKSt10shared_ptrIT_EEUlvE_E9_M_invokeERKSt9_Any_data,"axG",@progbits,_ZNSt17_Function_handlerIFvvEZN8asiodnp39StackBase15PerformShutdownINS1_11MasterStackEEEvRKSt10shared_ptrIT_EEUlvE_E9_M_invokeERKSt9_Any_data,comdat
	.p2align 4
	.weak	_ZNSt17_Function_handlerIFvvEZN8asiodnp39StackBase15PerformShutdownINS1_11MasterStackEEEvRKSt10shared_ptrIT_EEUlvE_E9_M_invokeERKSt9_Any_data
	.type	_ZNSt17_Function_handlerIFvvEZN8asiodnp39StackBase15PerformShutdownINS1_11MasterStackEEEvRKSt10shared_ptrIT_EEUlvE_E9_M_invokeERKSt9_Any_data, @function
_ZNSt17_Function_handlerIFvvEZN8asiodnp39StackBase15PerformShutdownINS1_11MasterStackEEEvRKSt10shared_ptrIT_EEUlvE_E9_M_invokeERKSt9_Any_data:
.LFB10548:
	.cfi_startproc
	.cfi_personality 0x9b,DW.ref.__gxx_personality_v0
	.cfi_lsda 0x1b,.LLSDA10548
	endbr64
	pushq	%r14
	.cfi_def_cfa_offset 16
	.cfi_offset 14, -16
	pushq	%r13
	.cfi_def_cfa_offset 24
	.cfi_offset 13, -24
	pushq	%r12
	.cfi_def_cfa_offset 32
	.cfi_offset 12, -32
	pushq	%rbp
	.cfi_def_cfa_offset 40
	.cfi_offset 6, -40
	pushq	%rbx
	.cfi_def_cfa_offset 48
	.cfi_offset 3, -48
	subq	$32, %rsp
	.cfi_def_cfa_offset 80
	movq	(%rdi), %r12
	movq	%fs:40, %rax
	movq	%rax, 24(%rsp)
	xorl	%eax, %eax
	movq	(%r12), %rax
	movq	104(%rax), %rdi
	addq	$16, %rax
	movq	%rax, (%rsp)
	movq	8(%r12), %rax
	movq	%rax, 8(%rsp)
	testq	%rax, %rax
	je	.L1208
	cmpq	$0, _ZL28__gthrw___pthread_key_createPjPFvPvE@GOTPCREL(%rip)
	je	.L1209
	lock addl	$1, 8(%rax)
.L1208:
	movq	%rsp, %r14
	movq	%r14, %rsi
.LEHB44:
	call	_ZN8asiodnp39IOHandler6RemoveERKSt10shared_ptrIN8opendnp312ILinkSessionEE@PLT
.LEHE44:
	movq	8(%rsp), %rbp
	testq	%rbp, %rbp
	je	.L1211
	movq	_ZL28__gthrw___pthread_key_createPjPFvPvE@GOTPCREL(%rip), %rbx
	testq	%rbx, %rbx
	je	.L1212
	movl	$-1, %eax
	lock xaddl	%eax, 8(%rbp)
	cmpl	$1, %eax
	je	.L1274
	.p2align 4,,10
	.p2align 3
.L1211:
	movq	8(%r12), %rbp
	movq	(%r12), %rax
	testq	%rbp, %rbp
	je	.L1217
	movq	_ZL28__gthrw___pthread_key_createPjPFvPvE@GOTPCREL(%rip), %rbx
	leaq	8(%rbp), %rdx
	testq	%rbx, %rbx
	je	.L1218
	lock addl	$1, (%rdx)
	movq	(%r12), %rcx
.L1219:
	movq	%rax, %xmm0
	movq	%rbp, %xmm2
	movq	88(%rcx), %r12
	punpcklqdq	%xmm2, %xmm0
	movaps	%xmm0, (%rsp)
	testq	%rbx, %rbx
	je	.L1275
	lock addl	$1, (%rdx)
.L1220:
	movq	%r14, %rdi
	xorl	%eax, %eax
	movq	40(%r12), %r13
	addq	$48, %r12
	call	_ZN4asio28asio_handler_is_continuationEz@PLT
	movl	%eax, %ebx
	data16	leaq	_ZN4asio6detail15keyword_tss_ptrINS0_10call_stackINS0_15task_io_serviceENS0_27task_io_service_thread_infoEE7contextEE6value_E@tlsgd(%rip), %rdi
	.value	0x6666
	rex64
	call	__tls_get_addr@PLT
	movq	(%rax), %rax
	testq	%rax, %rax
	je	.L1221
	movq	8(%rax), %rax
	testq	%rax, %rax
	je	.L1221
	movq	(%rax), %rdx
	testq	%rdx, %rdx
	je	.L1221
	movq	$0, (%rax)
	movzbl	(%rdx), %eax
	cmpb	$39, %al
	jbe	.L1222
	movb	%al, 40(%rdx)
.L1223:
	movq	_ZN4asio6detail18completion_handlerIZZN8asiodnp39StackBase15PerformShutdownINS2_11MasterStackEEEvRKSt10shared_ptrIT_EENKUlvE_clEvEUlvE_E11do_completeEPNS0_15task_io_serviceEPNS0_25task_io_service_operationERKSt10error_codem@GOTPCREL(%rip), %rax
	movq	$0, (%rdx)
	movl	$0, 16(%rdx)
	movq	%rax, 8(%rdx)
	movq	8(%rsp), %rax
	movdqa	(%rsp), %xmm1
	movups	%xmm1, 24(%rdx)
	testq	%rax, %rax
	je	.L1224
	cmpq	$0, _ZL28__gthrw___pthread_key_createPjPFvPvE@GOTPCREL(%rip)
	je	.L1225
	lock addl	$1, 8(%rax)
.L1224:
	movq	%r12, %rsi
	movzbl	%bl, %ecx
	movq	%r13, %rdi
	call	_ZN4asio6detail14strand_service7do_postERPNS1_11strand_implEPNS0_25task_io_service_operationEb@PLT
	movq	8(%rsp), %r12
	testq	%r12, %r12
	je	.L1227
	movq	_ZL28__gthrw___pthread_key_createPjPFvPvE@GOTPCREL(%rip), %rbx
	testq	%rbx, %rbx
	je	.L1228
	movl	$-1, %eax
	lock xaddl	%eax, 8(%r12)
	cmpl	$1, %eax
	je	.L1276
	.p2align 4,,10
	.p2align 3
.L1227:
	testq	%rbp, %rbp
	je	.L1207
	movq	_ZL28__gthrw___pthread_key_createPjPFvPvE@GOTPCREL(%rip), %rbx
	testq	%rbx, %rbx
	je	.L1239
	movl	$-1, %eax
	lock xaddl	%eax, 8(%rbp)
	cmpl	$1, %eax
	je	.L1277
	.p2align 4,,10
	.p2align 3
.L1207:
	movq	24(%rsp), %rax
	xorq	%fs:40, %rax
	jne	.L1278
	addq	$32, %rsp
	.cfi_remember_state
	.cfi_def_cfa_offset 48
	popq	%rbx
	.cfi_def_cfa_offset 40
	popq	%rbp
	.cfi_def_cfa_offset 32
	popq	%r12
	.cfi_def_cfa_offset 24
	popq	%r13
	.cfi_def_cfa_offset 16
	popq	%r14
	.cfi_def_cfa_offset 8
	ret
	.p2align 4,,10
	.p2align 3
.L1218:
	.cfi_restore_state
	addl	$1, 8(%rbp)
	movq	%rax, %rcx
	jmp	.L1219
	.p2align 4,,10
	.p2align 3
.L1209:
	addl	$1, 8(%rax)
	jmp	.L1208
	.p2align 4,,10
	.p2align 3
.L1212:
	movl	8(%rbp), %eax
	leal	-1(%rax), %edx
	movl	%edx, 8(%rbp)
	cmpl	$1, %eax
	jne	.L1211
.L1274:
	movq	0(%rbp), %rax
	movq	%rbp, %rdi
	call	*16(%rax)
	testq	%rbx, %rbx
	je	.L1215
	movl	$-1, %eax
	lock xaddl	%eax, 12(%rbp)
.L1216:
	cmpl	$1, %eax
	jne	.L1211
	movq	0(%rbp), %rax
	movq	%rbp, %rdi
	call	*24(%rax)
	jmp	.L1211
	.p2align 4,,10
	.p2align 3
.L1222:
	movq	%rdx, %rdi
	call	_ZdlPv@PLT
.L1221:
	movl	$41, %edi
.LEHB45:
	call	_Znwm@PLT
.LEHE45:
	movb	$40, 40(%rax)
	movq	%rax, %rdx
	jmp	.L1223
	.p2align 4,,10
	.p2align 3
.L1275:
	addl	$1, 8(%rbp)
	jmp	.L1220
	.p2align 4,,10
	.p2align 3
.L1225:
	addl	$1, 8(%rax)
	jmp	.L1224
	.p2align 4,,10
	.p2align 3
.L1217:
	movq	88(%rax), %r12
	movq	%rax, (%rsp)
	movq	$0, 8(%rsp)
	jmp	.L1220
	.p2align 4,,10
	.p2align 3
.L1228:
	movl	8(%r12), %eax
	leal	-1(%rax), %edx
	movl	%edx, 8(%r12)
	cmpl	$1, %eax
	jne	.L1227
.L1276:
	movq	(%r12), %rax
	movq	%r12, %rdi
	call	*16(%rax)
	testq	%rbx, %rbx
	je	.L1231
	movl	$-1, %eax
	lock xaddl	%eax, 12(%r12)
.L1232:
	cmpl	$1, %eax
	jne	.L1227
	movq	(%r12), %rax
	movq	%r12, %rdi
	call	*24(%rax)
	jmp	.L1227
	.p2align 4,,10
	.p2align 3
.L1239:
	movl	8(%rbp), %eax
	leal	-1(%rax), %edx
	movl	%edx, 8(%rbp)
	cmpl	$1, %eax
	jne	.L1207
.L1277:
	movq	0(%rbp), %rax
	movq	%rbp, %rdi
	call	*16(%rax)
	testq	%rbx, %rbx
	je	.L1242
	movl	$-1, %eax
	lock xaddl	%eax, 12(%rbp)
.L1243:
	cmpl	$1, %eax
	jne	.L1207
	movq	0(%rbp), %rax
	movq	%rbp, %rdi
	call	*24(%rax)
	jmp	.L1207
	.p2align 4,,10
	.p2align 3
.L1215:
	movl	12(%rbp), %eax
	leal	-1(%rax), %edx
	movl	%edx, 12(%rbp)
	jmp	.L1216
	.p2align 4,,10
	.p2align 3
.L1242:
	movl	12(%rbp), %eax
	leal	-1(%rax), %edx
	movl	%edx, 12(%rbp)
	jmp	.L1243
	.p2align 4,,10
	.p2align 3
.L1231:
	movl	12(%r12), %eax
	leal	-1(%rax), %edx
	movl	%edx, 12(%r12)
	jmp	.L1232
.L1278:
	call	__stack_chk_fail@PLT
.L1250:
	endbr64
	movq	%rax, %r12
	jmp	.L1235
.L1249:
	endbr64
	movq	%rax, %rbp
	jmp	.L1244
.L1235:
	movq	8(%rsp), %rdi
	testq	%rdi, %rdi
	je	.L1236
	call	_ZNSt16_Sp_counted_baseILN9__gnu_cxx12_Lock_policyE2EE10_M_releaseEv@PLT
.L1236:
	testq	%rbp, %rbp
	je	.L1238
	movq	%rbp, %rdi
	call	_ZNSt16_Sp_counted_baseILN9__gnu_cxx12_Lock_policyE2EE10_M_releaseEv@PLT
.L1238:
	movq	%r12, %rdi
.LEHB46:
	call	_Unwind_Resume@PLT
.L1244:
	movq	8(%rsp), %rdi
	testq	%rdi, %rdi
	je	.L1245
	call	_ZNSt16_Sp_counted_baseILN9__gnu_cxx12_Lock_policyE2EE10_M_releaseEv@PLT
.L1245:
	movq	%rbp, %rdi
	call	_Unwind_Resume@PLT
.LEHE46:
	.cfi_endproc
.LFE10548:
	.section	.gcc_except_table
.LLSDA10548:
	.byte	0xff
	.byte	0xff
	.byte	0x1
	.uleb128 .LLSDACSE10548-.LLSDACSB10548
.LLSDACSB10548:
	.uleb128 .LEHB44-.LFB10548
	.uleb128 .LEHE44-.LEHB44
	.uleb128 .L1249-.LFB10548
	.uleb128 0
	.uleb128 .LEHB45-.LFB10548
	.uleb128 .LEHE45-.LEHB45
	.uleb128 .L1250-.LFB10548
	.uleb128 0
	.uleb128 .LEHB46-.LFB10548
	.uleb128 .LEHE46-.LEHB46
	.uleb128 0
	.uleb128 0
.LLSDACSE10548:
	.section	.text._ZNSt17_Function_handlerIFvvEZN8asiodnp39StackBase15PerformShutdownINS1_11MasterStackEEEvRKSt10shared_ptrIT_EEUlvE_E9_M_invokeERKSt9_Any_data,"axG",@progbits,_ZNSt17_Function_handlerIFvvEZN8asiodnp39StackBase15PerformShutdownINS1_11MasterStackEEEvRKSt10shared_ptrIT_EEUlvE_E9_M_invokeERKSt9_Any_data,comdat
	.size	_ZNSt17_Function_handlerIFvvEZN8asiodnp39StackBase15PerformShutdownINS1_11MasterStackEEEvRKSt10shared_ptrIT_EEUlvE_E9_M_invokeERKSt9_Any_data, .-_ZNSt17_Function_handlerIFvvEZN8asiodnp39StackBase15PerformShutdownINS1_11MasterStackEEEvRKSt10shared_ptrIT_EEUlvE_E9_M_invokeERKSt9_Any_data
	.section	.text._ZNSt13__future_base7_ResultISt10shared_ptrIN8opendnp311IMasterTaskEEED0Ev,"axG",@progbits,_ZNSt13__future_base7_ResultISt10shared_ptrIN8opendnp311IMasterTaskEEED5Ev,comdat
	.align 2
	.p2align 4
	.weak	_ZNSt13__future_base7_ResultISt10shared_ptrIN8opendnp311IMasterTaskEEED0Ev
	.type	_ZNSt13__future_base7_ResultISt10shared_ptrIN8opendnp311IMasterTaskEEED0Ev, @function
_ZNSt13__future_base7_ResultISt10shared_ptrIN8opendnp311IMasterTaskEEED0Ev:
.LFB12269:
	.cfi_startproc
	endbr64
	movq	_ZTVNSt13__future_base7_ResultISt10shared_ptrIN8opendnp311IMasterTaskEEEE@GOTPCREL(%rip), %rax
	pushq	%rbp
	.cfi_def_cfa_offset 16
	.cfi_offset 6, -16
	movq	%rdi, %rbp
	addq	$16, %rax
	cmpb	$0, 32(%rdi)
	movq	%rax, (%rdi)
	je	.L1280
	movq	24(%rdi), %rdi
	testq	%rdi, %rdi
	je	.L1280
	call	_ZNSt16_Sp_counted_baseILN9__gnu_cxx12_Lock_policyE2EE10_M_releaseEv@PLT
.L1280:
	movq	%rbp, %rdi
	call	_ZNSt13__future_base12_Result_baseD2Ev@PLT
	movq	%rbp, %rdi
	movl	$40, %esi
	popq	%rbp
	.cfi_def_cfa_offset 8
	jmp	_ZdlPvm@PLT
	.cfi_endproc
.LFE12269:
	.size	_ZNSt13__future_base7_ResultISt10shared_ptrIN8opendnp311IMasterTaskEEED0Ev, .-_ZNSt13__future_base7_ResultISt10shared_ptrIN8opendnp311IMasterTaskEEED0Ev
	.section	.text._ZNSt13__future_base7_ResultISt10shared_ptrIN8opendnp311IMasterTaskEEE10_M_destroyEv,"axG",@progbits,_ZNSt13__future_base7_ResultISt10shared_ptrIN8opendnp311IMasterTaskEEE10_M_destroyEv,comdat
	.align 2
	.p2align 4
	.weak	_ZNSt13__future_base7_ResultISt10shared_ptrIN8opendnp311IMasterTaskEEE10_M_destroyEv
	.type	_ZNSt13__future_base7_ResultISt10shared_ptrIN8opendnp311IMasterTaskEEE10_M_destroyEv, @function
_ZNSt13__future_base7_ResultISt10shared_ptrIN8opendnp311IMasterTaskEEE10_M_destroyEv:
.LFB12265:
	.cfi_startproc
	endbr64
	pushq	%rbp
	.cfi_def_cfa_offset 16
	.cfi_offset 6, -16
	movq	(%rdi), %rax
	movq	%rdi, %rbp
	movq	16(%rax), %rax
	cmpq	_ZNSt13__future_base7_ResultISt10shared_ptrIN8opendnp311IMasterTaskEEED0Ev@GOTPCREL(%rip), %rax
	jne	.L1287
	movq	_ZTVNSt13__future_base7_ResultISt10shared_ptrIN8opendnp311IMasterTaskEEEE@GOTPCREL(%rip), %rax
	addq	$16, %rax
	cmpb	$0, 32(%rdi)
	movq	%rax, (%rdi)
	je	.L1288
	movq	24(%rdi), %rdi
	testq	%rdi, %rdi
	je	.L1288
	call	_ZNSt16_Sp_counted_baseILN9__gnu_cxx12_Lock_policyE2EE10_M_releaseEv@PLT
.L1288:
	movq	%rbp, %rdi
	call	_ZNSt13__future_base12_Result_baseD2Ev@PLT
	movq	%rbp, %rdi
	movl	$40, %esi
	popq	%rbp
	.cfi_remember_state
	.cfi_def_cfa_offset 8
	jmp	_ZdlPvm@PLT
	.p2align 4,,10
	.p2align 3
.L1287:
	.cfi_restore_state
	popq	%rbp
	.cfi_def_cfa_offset 8
	jmp	*%rax
	.cfi_endproc
.LFE12265:
	.size	_ZNSt13__future_base7_ResultISt10shared_ptrIN8opendnp311IMasterTaskEEE10_M_destroyEv, .-_ZNSt13__future_base7_ResultISt10shared_ptrIN8opendnp311IMasterTaskEEE10_M_destroyEv
	.section	.text._ZN8asiodnp39StackBaseD2Ev,"axG",@progbits,_ZN8asiodnp39StackBaseD5Ev,comdat
	.align 2
	.p2align 4
	.weak	_ZN8asiodnp39StackBaseD2Ev
	.type	_ZN8asiodnp39StackBaseD2Ev, @function
_ZN8asiodnp39StackBaseD2Ev:
.LFB8157:
	.cfi_startproc
	endbr64
	pushq	%rbx
	.cfi_def_cfa_offset 16
	.cfi_offset 3, -16
	movq	%rdi, %rbx
	movq	104(%rdi), %rdi
	testq	%rdi, %rdi
	je	.L1295
	call	_ZNSt16_Sp_counted_baseILN9__gnu_cxx12_Lock_policyE2EE10_M_releaseEv@PLT
.L1295:
	movq	88(%rbx), %rdi
	testq	%rdi, %rdi
	je	.L1296
	call	_ZNSt16_Sp_counted_baseILN9__gnu_cxx12_Lock_policyE2EE10_M_releaseEv@PLT
.L1296:
	movq	72(%rbx), %rdi
	testq	%rdi, %rdi
	je	.L1297
	call	_ZNSt16_Sp_counted_baseILN9__gnu_cxx12_Lock_policyE2EE10_M_releaseEv@PLT
.L1297:
	movq	56(%rbx), %rdi
	testq	%rdi, %rdi
	je	.L1298
	call	_ZNSt16_Sp_counted_baseILN9__gnu_cxx12_Lock_policyE2EE10_M_releaseEv@PLT
.L1298:
	movq	40(%rbx), %rdi
	testq	%rdi, %rdi
	je	.L1299
	call	_ZNSt16_Sp_counted_baseILN9__gnu_cxx12_Lock_policyE2EE10_M_releaseEv@PLT
.L1299:
	movq	24(%rbx), %rdi
	testq	%rdi, %rdi
	je	.L1300
	call	_ZNSt16_Sp_counted_baseILN9__gnu_cxx12_Lock_policyE2EE10_M_releaseEv@PLT
.L1300:
	movq	8(%rbx), %rdi
	testq	%rdi, %rdi
	je	.L1294
	popq	%rbx
	.cfi_remember_state
	.cfi_def_cfa_offset 8
	jmp	_ZNSt16_Sp_counted_baseILN9__gnu_cxx12_Lock_policyE2EE10_M_releaseEv@PLT
	.p2align 4,,10
	.p2align 3
.L1294:
	.cfi_restore_state
	popq	%rbx
	.cfi_def_cfa_offset 8
	ret
	.cfi_endproc
.LFE8157:
	.size	_ZN8asiodnp39StackBaseD2Ev, .-_ZN8asiodnp39StackBaseD2Ev
	.weak	_ZN8asiodnp39StackBaseD1Ev
	.set	_ZN8asiodnp39StackBaseD1Ev,_ZN8asiodnp39StackBaseD2Ev
	.text
	.p2align 4
	.type	_ZN4asio6detail18completion_handlerIZN8asiodnp311MasterStack13SetLogFiltersERKN7openpal10LogFiltersEEUlvE_E11do_completeEPNS0_15task_io_serviceEPNS0_25task_io_service_operationERKSt10error_codem, @function
_ZN4asio6detail18completion_handlerIZN8asiodnp311MasterStack13SetLogFiltersERKN7openpal10LogFiltersEEUlvE_E11do_completeEPNS0_15task_io_serviceEPNS0_25task_io_service_operationERKSt10error_codem:
.LFB11082:
	.cfi_startproc
	.cfi_personality 0x9b,DW.ref.__gxx_personality_v0
	endbr64
	pushq	%r14
	.cfi_def_cfa_offset 16
	.cfi_offset 14, -16
	movq	24(%rsi), %r14
	pushq	%r13
	.cfi_def_cfa_offset 24
	.cfi_offset 13, -24
	movl	40(%rsi), %r13d
	pushq	%r12
	.cfi_def_cfa_offset 32
	.cfi_offset 12, -32
	movq	32(%rsi), %r12
	pushq	%rbp
	.cfi_def_cfa_offset 40
	.cfi_offset 6, -40
	movq	%rsi, %rbp
	pushq	%rbx
	.cfi_def_cfa_offset 48
	.cfi_offset 3, -48
	movq	%rdi, %rbx
	data16	leaq	_ZN4asio6detail15keyword_tss_ptrINS0_10call_stackINS0_15task_io_serviceENS0_27task_io_service_thread_infoEE7contextEE6value_E@tlsgd(%rip), %rdi
	.value	0x6666
	rex64
	call	__tls_get_addr@PLT
	movq	(%rax), %rax
	testq	%rax, %rax
	je	.L1322
	movq	8(%rax), %rax
	testq	%rax, %rax
	je	.L1322
	cmpq	$0, (%rax)
	je	.L1336
.L1322:
	movq	%rbp, %rdi
	call	_ZdlPv@PLT
.L1323:
	testq	%rbx, %rbx
	je	.L1324
	movq	72(%r14), %rax
	movl	%r13d, 32(%rax)
	sfence
.L1324:
	testq	%r12, %r12
	je	.L1321
	popq	%rbx
	.cfi_remember_state
	.cfi_def_cfa_offset 40
	movq	%r12, %rdi
	popq	%rbp
	.cfi_def_cfa_offset 32
	popq	%r12
	.cfi_def_cfa_offset 24
	popq	%r13
	.cfi_def_cfa_offset 16
	popq	%r14
	.cfi_def_cfa_offset 8
	jmp	_ZNSt16_Sp_counted_baseILN9__gnu_cxx12_Lock_policyE2EE10_M_releaseEv@PLT
	.p2align 4,,10
	.p2align 3
.L1321:
	.cfi_restore_state
	popq	%rbx
	.cfi_remember_state
	.cfi_def_cfa_offset 40
	popq	%rbp
	.cfi_def_cfa_offset 32
	popq	%r12
	.cfi_def_cfa_offset 24
	popq	%r13
	.cfi_def_cfa_offset 16
	popq	%r14
	.cfi_def_cfa_offset 8
	ret
	.p2align 4,,10
	.p2align 3
.L1336:
	.cfi_restore_state
	movzbl	48(%rbp), %edx
	movb	%dl, 0(%rbp)
	movq	%rbp, (%rax)
	jmp	.L1323
	.cfi_endproc
.LFE11082:
	.size	_ZN4asio6detail18completion_handlerIZN8asiodnp311MasterStack13SetLogFiltersERKN7openpal10LogFiltersEEUlvE_E11do_completeEPNS0_15task_io_serviceEPNS0_25task_io_service_operationERKSt10error_codem, .-_ZN4asio6detail18completion_handlerIZN8asiodnp311MasterStack13SetLogFiltersERKN7openpal10LogFiltersEEUlvE_E11do_completeEPNS0_15task_io_serviceEPNS0_25task_io_service_operationERKSt10error_codem
	.section	.text.unlikely
	.align 2
.LCOLDB33:
	.text
.LHOTB33:
	.align 2
	.p2align 4
	.globl	_ZN8asiodnp311MasterStack6DemandERKSt10shared_ptrIN8opendnp311IMasterTaskEE
	.type	_ZN8asiodnp311MasterStack6DemandERKSt10shared_ptrIN8opendnp311IMasterTaskEE, @function
_ZN8asiodnp311MasterStack6DemandERKSt10shared_ptrIN8opendnp311IMasterTaskEE:
.LFB8228:
	.cfi_startproc
	.cfi_personality 0x9b,DW.ref.__gxx_personality_v0
	.cfi_lsda 0x1b,.LLSDA8228
	endbr64
	pushq	%r13
	.cfi_def_cfa_offset 16
	.cfi_offset 13, -16
	pushq	%r12
	.cfi_def_cfa_offset 24
	.cfi_offset 12, -24
	pushq	%rbp
	.cfi_def_cfa_offset 32
	.cfi_offset 6, -32
	pushq	%rbx
	.cfi_def_cfa_offset 40
	.cfi_offset 3, -40
	subq	$88, %rsp
	.cfi_def_cfa_offset 128
	movdqu	(%rsi), %xmm1
	movq	%fs:40, %rax
	movq	%rax, 72(%rsp)
	xorl	%eax, %eax
	movq	8(%rsi), %rax
	movaps	%xmm1, (%rsp)
	testq	%rax, %rax
	je	.L1338
	cmpq	$0, _ZL28__gthrw___pthread_key_createPjPFvPvE@GOTPCREL(%rip)
	je	.L1339
	lock addl	$1, 8(%rax)
.L1338:
	movq	48(%rdi), %rax
	movq	%rax, 24(%rsp)
	testq	%rax, %rax
	je	.L1340
	leaq	8(%rax), %rdx
	movl	8(%rax), %eax
.L1342:
	testl	%eax, %eax
	je	.L1398
	leal	1(%rax), %ecx
	lock cmpxchgl	%ecx, (%rdx)
	jne	.L1342
	movq	40(%rdi), %rdx
	movdqa	(%rsp), %xmm2
	movq	8(%rsp), %rax
	movq	88(%rdi), %rbp
	movq	%rdx, 16(%rsp)
	movaps	%xmm2, 32(%rsp)
	testq	%rax, %rax
	je	.L1343
	cmpq	$0, _ZL28__gthrw___pthread_key_createPjPFvPvE@GOTPCREL(%rip)
	je	.L1344
	lock addl	$1, 8(%rax)
	movq	16(%rsp), %rdx
.L1343:
	movq	24(%rsp), %rax
	movq	%rdx, 48(%rsp)
	movq	%rax, 56(%rsp)
	testq	%rax, %rax
	je	.L1345
	cmpq	$0, _ZL28__gthrw___pthread_key_createPjPFvPvE@GOTPCREL(%rip)
	je	.L1346
	lock addl	$1, 8(%rax)
.L1345:
	leaq	32(%rsp), %r13
	xorl	%eax, %eax
	movq	40(%rbp), %r12
	addq	$48, %rbp
	movq	%r13, %rdi
	call	_ZN4asio28asio_handler_is_continuationEz@PLT
	movl	%eax, %ebx
	data16	leaq	_ZN4asio6detail15keyword_tss_ptrINS0_10call_stackINS0_15task_io_serviceENS0_27task_io_service_thread_infoEE7contextEE6value_E@tlsgd(%rip), %rdi
	.value	0x6666
	rex64
	call	__tls_get_addr@PLT
	movq	(%rax), %rax
	testq	%rax, %rax
	je	.L1347
	movq	8(%rax), %rax
	testq	%rax, %rax
	je	.L1347
	movq	(%rax), %rdx
	testq	%rdx, %rdx
	je	.L1347
	movq	$0, (%rax)
	movzbl	(%rdx), %eax
	cmpb	$55, %al
	jbe	.L1348
	movb	%al, 56(%rdx)
	jmp	.L1349
	.p2align 4,,10
	.p2align 3
.L1348:
	movq	%rdx, %rdi
	call	_ZdlPv@PLT
.L1347:
	movl	$57, %edi
.LEHB47:
	call	_Znwm@PLT
.LEHE47:
	movb	$56, 56(%rax)
	movq	%rax, %rdx
.L1349:
	leaq	_ZN4asio6detail18completion_handlerIZN8asiodnp311MasterStack6DemandERKSt10shared_ptrIN8opendnp311IMasterTaskEEEUlvE_E11do_completeEPNS0_15task_io_serviceEPNS0_25task_io_service_operationERKSt10error_codem(%rip), %rax
	movq	$0, (%rdx)
	movq	%rax, 8(%rdx)
	movq	40(%rsp), %rax
	movdqa	32(%rsp), %xmm3
	movl	$0, 16(%rdx)
	movups	%xmm3, 24(%rdx)
	testq	%rax, %rax
	je	.L1350
	cmpq	$0, _ZL28__gthrw___pthread_key_createPjPFvPvE@GOTPCREL(%rip)
	je	.L1351
	lock addl	$1, 8(%rax)
.L1350:
	movdqa	48(%rsp), %xmm4
	pxor	%xmm0, %xmm0
	movq	%r12, %rdi
	movzbl	%bl, %ecx
	movq	%rbp, %rsi
	movaps	%xmm0, 48(%rsp)
	movups	%xmm4, 40(%rdx)
	call	_ZN4asio6detail14strand_service7do_postERPNS1_11strand_implEPNS0_25task_io_service_operationEb@PLT
	movq	56(%rsp), %rdi
	testq	%rdi, %rdi
	je	.L1352
	call	_ZNSt16_Sp_counted_baseILN9__gnu_cxx12_Lock_policyE2EE10_M_releaseEv@PLT
.L1352:
	movq	40(%rsp), %rdi
	testq	%rdi, %rdi
	je	.L1353
	call	_ZNSt16_Sp_counted_baseILN9__gnu_cxx12_Lock_policyE2EE10_M_releaseEv@PLT
.L1353:
	movq	24(%rsp), %rdi
	testq	%rdi, %rdi
	je	.L1355
	call	_ZNSt16_Sp_counted_baseILN9__gnu_cxx12_Lock_policyE2EE10_M_releaseEv@PLT
.L1355:
	movq	8(%rsp), %rdi
	testq	%rdi, %rdi
	je	.L1337
	call	_ZNSt16_Sp_counted_baseILN9__gnu_cxx12_Lock_policyE2EE10_M_releaseEv@PLT
.L1337:
	movq	72(%rsp), %rax
	xorq	%fs:40, %rax
	jne	.L1400
	addq	$88, %rsp
	.cfi_remember_state
	.cfi_def_cfa_offset 40
	popq	%rbx
	.cfi_def_cfa_offset 32
	popq	%rbp
	.cfi_def_cfa_offset 24
	popq	%r12
	.cfi_def_cfa_offset 16
	popq	%r13
	.cfi_def_cfa_offset 8
	ret
	.p2align 4,,10
	.p2align 3
.L1344:
	.cfi_restore_state
	addl	$1, 8(%rax)
	jmp	.L1343
	.p2align 4,,10
	.p2align 3
.L1339:
	addl	$1, 8(%rax)
	jmp	.L1338
	.p2align 4,,10
	.p2align 3
.L1351:
	addl	$1, 8(%rax)
	jmp	.L1350
	.p2align 4,,10
	.p2align 3
.L1346:
	addl	$1, 8(%rax)
	jmp	.L1345
.L1400:
	call	__stack_chk_fail@PLT
.L1362:
	endbr64
	movq	%rax, %rbp
	jmp	.L1356
	.section	.gcc_except_table
.LLSDA8228:
	.byte	0xff
	.byte	0xff
	.byte	0x1
	.uleb128 .LLSDACSE8228-.LLSDACSB8228
.LLSDACSB8228:
	.uleb128 .LEHB47-.LFB8228
	.uleb128 .LEHE47-.LEHB47
	.uleb128 .L1362-.LFB8228
	.uleb128 0
.LLSDACSE8228:
	.text
	.cfi_endproc
	.section	.text.unlikely
	.cfi_startproc
	.cfi_personality 0x9b,DW.ref.__gxx_personality_v0
	.cfi_lsda 0x1b,.LLSDAC8228
	.type	_ZN8asiodnp311MasterStack6DemandERKSt10shared_ptrIN8opendnp311IMasterTaskEE.cold, @function
_ZN8asiodnp311MasterStack6DemandERKSt10shared_ptrIN8opendnp311IMasterTaskEE.cold:
.LFSB8228:
.L1398:
	.cfi_def_cfa_offset 128
	.cfi_offset 3, -40
	.cfi_offset 6, -32
	.cfi_offset 12, -24
	.cfi_offset 13, -16
.LEHB48:
	call	_ZSt20__throw_bad_weak_ptrv@PLT
.L1340:
	call	_ZSt20__throw_bad_weak_ptrv@PLT
.LEHE48:
.L1356:
	movq	%r13, %rdi
	call	_ZZN8asiodnp311MasterStack6DemandERKSt10shared_ptrIN8opendnp311IMasterTaskEEENUlvE_D1Ev
	movq	%rsp, %rdi
	call	_ZZN8asiodnp311MasterStack6DemandERKSt10shared_ptrIN8opendnp311IMasterTaskEEENUlvE_D1Ev
	movq	%rbp, %rdi
.LEHB49:
	call	_Unwind_Resume@PLT
.L1361:
	endbr64
	movq	8(%rsp), %rdi
	movq	%rax, %rbp
	testq	%rdi, %rdi
	je	.L1359
	call	_ZNSt16_Sp_counted_baseILN9__gnu_cxx12_Lock_policyE2EE10_M_releaseEv@PLT
.L1359:
	movq	%rbp, %rdi
	call	_Unwind_Resume@PLT
.LEHE49:
	.cfi_endproc
.LFE8228:
	.section	.gcc_except_table
.LLSDAC8228:
	.byte	0xff
	.byte	0xff
	.byte	0x1
	.uleb128 .LLSDACSEC8228-.LLSDACSBC8228
.LLSDACSBC8228:
	.uleb128 .LEHB48-.LCOLDB33
	.uleb128 .LEHE48-.LEHB48
	.uleb128 .L1361-.LCOLDB33
	.uleb128 0
	.uleb128 .LEHB49-.LCOLDB33
	.uleb128 .LEHE49-.LEHB49
	.uleb128 0
	.uleb128 0
.LLSDACSEC8228:
	.section	.text.unlikely
	.text
	.size	_ZN8asiodnp311MasterStack6DemandERKSt10shared_ptrIN8opendnp311IMasterTaskEE, .-_ZN8asiodnp311MasterStack6DemandERKSt10shared_ptrIN8opendnp311IMasterTaskEE
	.section	.text.unlikely
	.size	_ZN8asiodnp311MasterStack6DemandERKSt10shared_ptrIN8opendnp311IMasterTaskEE.cold, .-_ZN8asiodnp311MasterStack6DemandERKSt10shared_ptrIN8opendnp311IMasterTaskEE.cold
.LCOLDE33:
	.text
.LHOTE33:
	.set	.LTHUNK15,_ZN8asiodnp311MasterStack6DemandERKSt10shared_ptrIN8opendnp311IMasterTaskEE
	.p2align 4
	.globl	_ZThn32_N8asiodnp311MasterStack6DemandERKSt10shared_ptrIN8opendnp311IMasterTaskEE
	.type	_ZThn32_N8asiodnp311MasterStack6DemandERKSt10shared_ptrIN8opendnp311IMasterTaskEE, @function
_ZThn32_N8asiodnp311MasterStack6DemandERKSt10shared_ptrIN8opendnp311IMasterTaskEE:
.LFB12738:
	.cfi_startproc
	endbr64
	subq	$32, %rdi
	jmp	.LTHUNK15
	.cfi_endproc
.LFE12738:
	.size	_ZThn32_N8asiodnp311MasterStack6DemandERKSt10shared_ptrIN8opendnp311IMasterTaskEE, .-_ZThn32_N8asiodnp311MasterStack6DemandERKSt10shared_ptrIN8opendnp311IMasterTaskEE
	.section	.text._ZN8asiodnp311MasterStack13BeginTransmitERKN7openpal6RSliceERN8opendnp312ILinkSessionE,"axG",@progbits,_ZN8asiodnp311MasterStack13BeginTransmitERKN7openpal6RSliceERN8opendnp312ILinkSessionE,comdat
	.p2align 4
	.weak	_ZThn24_N8asiodnp311MasterStack13BeginTransmitERKN7openpal6RSliceERN8opendnp312ILinkSessionE
	.type	_ZThn24_N8asiodnp311MasterStack13BeginTransmitERKN7openpal6RSliceERN8opendnp312ILinkSessionE, @function
_ZThn24_N8asiodnp311MasterStack13BeginTransmitERKN7openpal6RSliceERN8opendnp312ILinkSessionE:
.LFB12710:
	.cfi_startproc
	.cfi_personality 0x9b,DW.ref.__gxx_personality_v0
	.cfi_lsda 0x1b,.LLSDA12710
	endbr64
	pushq	%rbp
	.cfi_def_cfa_offset 16
	.cfi_offset 6, -16
	pushq	%rbx
	.cfi_def_cfa_offset 24
	.cfi_offset 3, -24
	subq	$40, %rsp
	.cfi_def_cfa_offset 64
	movq	24(%rdi), %rcx
	movq	80(%rdi), %r9
	movq	%fs:40, %rax
	movq	%rax, 24(%rsp)
	xorl	%eax, %eax
	testq	%rcx, %rcx
	je	.L1402
	movl	8(%rcx), %eax
	movq	%rsi, %rdx
	leaq	8(%rcx), %rsi
.L1404:
	testl	%eax, %eax
	je	.L1402
	leal	1(%rax), %r8d
	lock cmpxchgl	%r8d, (%rsi)
	jne	.L1404
	movq	16(%rdi), %rax
	movq	%rcx, %xmm1
	movq	%r9, %rdi
	leaq	16(%rax), %rsi
	testq	%rax, %rax
	cmovne	%rsi, %rax
	movq	%rsp, %rsi
	movq	%rax, %xmm0
	punpcklqdq	%xmm1, %xmm0
	movaps	%xmm0, (%rsp)
.LEHB50:
	call	_ZN8asiodnp39IOHandler13BeginTransmitERKSt10shared_ptrIN8opendnp312ILinkSessionEERKN7openpal6RSliceE@PLT
.LEHE50:
	movq	8(%rsp), %rbp
	testq	%rbp, %rbp
	je	.L1401
	movq	_ZL28__gthrw___pthread_key_createPjPFvPvE@GOTPCREL(%rip), %rbx
	testq	%rbx, %rbx
	je	.L1408
	movl	$-1, %eax
	lock xaddl	%eax, 8(%rbp)
	cmpl	$1, %eax
	je	.L1428
	.p2align 4,,10
	.p2align 3
.L1401:
	movq	24(%rsp), %rax
	xorq	%fs:40, %rax
	jne	.L1429
	addq	$40, %rsp
	.cfi_remember_state
	.cfi_def_cfa_offset 24
	popq	%rbx
	.cfi_def_cfa_offset 16
	popq	%rbp
	.cfi_def_cfa_offset 8
	ret
	.p2align 4,,10
	.p2align 3
.L1408:
	.cfi_restore_state
	movl	8(%rbp), %eax
	leal	-1(%rax), %edx
	movl	%edx, 8(%rbp)
	cmpl	$1, %eax
	jne	.L1401
.L1428:
	movq	0(%rbp), %rax
	movq	%rbp, %rdi
	call	*16(%rax)
	testq	%rbx, %rbx
	je	.L1411
	movl	$-1, %eax
	lock xaddl	%eax, 12(%rbp)
.L1412:
	cmpl	$1, %eax
	jne	.L1401
	movq	0(%rbp), %rax
	movq	%rbp, %rdi
	call	*24(%rax)
	jmp	.L1401
	.p2align 4,,10
	.p2align 3
.L1411:
	movl	12(%rbp), %eax
	leal	-1(%rax), %edx
	movl	%edx, 12(%rbp)
	jmp	.L1412
.L1429:
	call	__stack_chk_fail@PLT
.L1416:
	endbr64
	movq	%rax, %rbp
	jmp	.L1413
.L1402:
.LEHB51:
	call	_ZSt20__throw_bad_weak_ptrv@PLT
.L1413:
	movq	8(%rsp), %rdi
	testq	%rdi, %rdi
	je	.L1414
	call	_ZNSt16_Sp_counted_baseILN9__gnu_cxx12_Lock_policyE2EE10_M_releaseEv@PLT
.L1414:
	movq	%rbp, %rdi
	call	_Unwind_Resume@PLT
.LEHE51:
	.cfi_endproc
.LFE12710:
	.section	.gcc_except_table
.LLSDA12710:
	.byte	0xff
	.byte	0xff
	.byte	0x1
	.uleb128 .LLSDACSE12710-.LLSDACSB12710
.LLSDACSB12710:
	.uleb128 .LEHB50-.LFB12710
	.uleb128 .LEHE50-.LEHB50
	.uleb128 .L1416-.LFB12710
	.uleb128 0
	.uleb128 .LEHB51-.LFB12710
	.uleb128 .LEHE51-.LEHB51
	.uleb128 0
	.uleb128 0
.LLSDACSE12710:
	.section	.text._ZN8asiodnp311MasterStack13BeginTransmitERKN7openpal6RSliceERN8opendnp312ILinkSessionE,"axG",@progbits,_ZN8asiodnp311MasterStack13BeginTransmitERKN7openpal6RSliceERN8opendnp312ILinkSessionE,comdat
	.size	_ZThn24_N8asiodnp311MasterStack13BeginTransmitERKN7openpal6RSliceERN8opendnp312ILinkSessionE, .-_ZThn24_N8asiodnp311MasterStack13BeginTransmitERKN7openpal6RSliceERN8opendnp312ILinkSessionE
	.section	.text._ZN4asio6detail18completion_handlerIZZN8asiodnp39StackBase15PerformShutdownINS2_11MasterStackEEEvRKSt10shared_ptrIT_EENKUlvE_clEvEUlvE_E11do_completeEPNS0_15task_io_serviceEPNS0_25task_io_service_operationERKSt10error_codem,"axG",@progbits,_ZN4asio6detail18completion_handlerIZZN8asiodnp39StackBase15PerformShutdownINS2_11MasterStackEEEvRKSt10shared_ptrIT_EENKUlvE_clEvEUlvE_E11do_completeEPNS0_15task_io_serviceEPNS0_25task_io_service_operationERKSt10error_codem,comdat
	.p2align 4
	.weak	_ZN4asio6detail18completion_handlerIZZN8asiodnp39StackBase15PerformShutdownINS2_11MasterStackEEEvRKSt10shared_ptrIT_EENKUlvE_clEvEUlvE_E11do_completeEPNS0_15task_io_serviceEPNS0_25task_io_service_operationERKSt10error_codem
	.type	_ZN4asio6detail18completion_handlerIZZN8asiodnp39StackBase15PerformShutdownINS2_11MasterStackEEEvRKSt10shared_ptrIT_EENKUlvE_clEvEUlvE_E11do_completeEPNS0_15task_io_serviceEPNS0_25task_io_service_operationERKSt10error_codem, @function
_ZN4asio6detail18completion_handlerIZZN8asiodnp39StackBase15PerformShutdownINS2_11MasterStackEEEvRKSt10shared_ptrIT_EENKUlvE_clEvEUlvE_E11do_completeEPNS0_15task_io_serviceEPNS0_25task_io_service_operationERKSt10error_codem:
.LFB11348:
	.cfi_startproc
	.cfi_personality 0x9b,DW.ref.__gxx_personality_v0
	.cfi_lsda 0x1b,.LLSDA11348
	endbr64
	pushq	%r13
	.cfi_def_cfa_offset 16
	.cfi_offset 13, -16
	pushq	%r12
	.cfi_def_cfa_offset 24
	.cfi_offset 12, -24
	movq	%rsi, %r12
	pushq	%rbp
	.cfi_def_cfa_offset 32
	.cfi_offset 6, -32
	pushq	%rbx
	.cfi_def_cfa_offset 40
	.cfi_offset 3, -40
	movq	%rdi, %rbx
	subq	$40, %rsp
	.cfi_def_cfa_offset 80
	movq	32(%rsi), %rbp
	movq	24(%rsi), %r13
	movq	%fs:40, %rax
	movq	%rax, 24(%rsp)
	xorl	%eax, %eax
	testq	%rbp, %rbp
	je	.L1431
	cmpq	$0, _ZL28__gthrw___pthread_key_createPjPFvPvE@GOTPCREL(%rip)
	je	.L1432
	lock addl	$1, 8(%rbp)
	movq	32(%rsi), %rdi
	testq	%rdi, %rdi
	je	.L1431
.L1433:
	call	_ZNSt16_Sp_counted_baseILN9__gnu_cxx12_Lock_policyE2EE10_M_releaseEv@PLT
.L1431:
	data16	leaq	_ZN4asio6detail15keyword_tss_ptrINS0_10call_stackINS0_15task_io_serviceENS0_27task_io_service_thread_infoEE7contextEE6value_E@tlsgd(%rip), %rdi
	.value	0x6666
	rex64
	call	__tls_get_addr@PLT
	movq	(%rax), %rax
	testq	%rax, %rax
	je	.L1434
	movq	8(%rax), %rax
	testq	%rax, %rax
	je	.L1434
	cmpq	$0, (%rax)
	je	.L1471
.L1434:
	movq	%r12, %rdi
	call	_ZdlPv@PLT
.L1435:
	testq	%rbx, %rbx
	jne	.L1472
.L1437:
	testq	%rbp, %rbp
	je	.L1430
	movq	_ZL28__gthrw___pthread_key_createPjPFvPvE@GOTPCREL(%rip), %rbx
	testq	%rbx, %rbx
	je	.L1447
	movl	$-1, %eax
	lock xaddl	%eax, 8(%rbp)
	cmpl	$1, %eax
	je	.L1473
	.p2align 4,,10
	.p2align 3
.L1430:
	movq	24(%rsp), %rax
	xorq	%fs:40, %rax
	jne	.L1474
	addq	$40, %rsp
	.cfi_remember_state
	.cfi_def_cfa_offset 40
	popq	%rbx
	.cfi_def_cfa_offset 32
	popq	%rbp
	.cfi_def_cfa_offset 24
	popq	%r12
	.cfi_def_cfa_offset 16
	popq	%r13
	.cfi_def_cfa_offset 8
	ret
	.p2align 4,,10
	.p2align 3
.L1472:
	.cfi_restore_state
	movq	120(%r13), %rdi
	addq	$8, %r13
	movq	(%rdi), %rax
	movq	%r13, (%rsp)
	movq	%rbp, 8(%rsp)
	movq	16(%rax), %rax
	testq	%rbp, %rbp
	je	.L1439
	cmpq	$0, _ZL28__gthrw___pthread_key_createPjPFvPvE@GOTPCREL(%rip)
	je	.L1438
	lock addl	$1, 8(%rbp)
.L1439:
	movq	%rsp, %rsi
.LEHB52:
	call	*%rax
.LEHE52:
	movq	8(%rsp), %rdi
	testq	%rdi, %rdi
	je	.L1440
	call	_ZNSt16_Sp_counted_baseILN9__gnu_cxx12_Lock_policyE2EE10_M_releaseEv@PLT
.L1440:
	sfence
	jmp	.L1437
	.p2align 4,,10
	.p2align 3
.L1432:
	addl	$1, 8(%rbp)
	movq	%rbp, %rdi
	jmp	.L1433
	.p2align 4,,10
	.p2align 3
.L1447:
	movl	8(%rbp), %eax
	leal	-1(%rax), %edx
	movl	%edx, 8(%rbp)
	cmpl	$1, %eax
	jne	.L1430
.L1473:
	movq	0(%rbp), %rax
	movq	%rbp, %rdi
	call	*16(%rax)
	testq	%rbx, %rbx
	je	.L1450
	movl	$-1, %eax
	lock xaddl	%eax, 12(%rbp)
.L1451:
	cmpl	$1, %eax
	jne	.L1430
	movq	0(%rbp), %rax
	movq	%rbp, %rdi
	call	*24(%rax)
	jmp	.L1430
	.p2align 4,,10
	.p2align 3
.L1471:
	movzbl	40(%r12), %edx
	movb	%dl, (%r12)
	movq	%r12, (%rax)
	jmp	.L1435
	.p2align 4,,10
	.p2align 3
.L1438:
	addl	$1, 8(%rbp)
	jmp	.L1439
	.p2align 4,,10
	.p2align 3
.L1450:
	movl	12(%rbp), %eax
	leal	-1(%rax), %edx
	movl	%edx, 12(%rbp)
	jmp	.L1451
.L1474:
	call	__stack_chk_fail@PLT
.L1454:
	endbr64
	movq	%rax, %r12
.L1441:
	movq	8(%rsp), %rdi
	testq	%rdi, %rdi
	je	.L1442
	call	_ZNSt16_Sp_counted_baseILN9__gnu_cxx12_Lock_policyE2EE10_M_releaseEv@PLT
.L1442:
	sfence
	testq	%rbp, %rbp
	je	.L1444
	movq	%rbp, %rdi
	call	_ZNSt16_Sp_counted_baseILN9__gnu_cxx12_Lock_policyE2EE10_M_releaseEv@PLT
.L1444:
	movq	%r12, %rdi
.LEHB53:
	call	_Unwind_Resume@PLT
.LEHE53:
	.cfi_endproc
.LFE11348:
	.section	.gcc_except_table
.LLSDA11348:
	.byte	0xff
	.byte	0xff
	.byte	0x1
	.uleb128 .LLSDACSE11348-.LLSDACSB11348
.LLSDACSB11348:
	.uleb128 .LEHB52-.LFB11348
	.uleb128 .LEHE52-.LEHB52
	.uleb128 .L1454-.LFB11348
	.uleb128 0
	.uleb128 .LEHB53-.LFB11348
	.uleb128 .LEHE53-.LEHB53
	.uleb128 0
	.uleb128 0
.LLSDACSE11348:
	.section	.text._ZN4asio6detail18completion_handlerIZZN8asiodnp39StackBase15PerformShutdownINS2_11MasterStackEEEvRKSt10shared_ptrIT_EENKUlvE_clEvEUlvE_E11do_completeEPNS0_15task_io_serviceEPNS0_25task_io_service_operationERKSt10error_codem,"axG",@progbits,_ZN4asio6detail18completion_handlerIZZN8asiodnp39StackBase15PerformShutdownINS2_11MasterStackEEEvRKSt10shared_ptrIT_EENKUlvE_clEvEUlvE_E11do_completeEPNS0_15task_io_serviceEPNS0_25task_io_service_operationERKSt10error_codem,comdat
	.size	_ZN4asio6detail18completion_handlerIZZN8asiodnp39StackBase15PerformShutdownINS2_11MasterStackEEEvRKSt10shared_ptrIT_EENKUlvE_clEvEUlvE_E11do_completeEPNS0_15task_io_serviceEPNS0_25task_io_service_operationERKSt10error_codem, .-_ZN4asio6detail18completion_handlerIZZN8asiodnp39StackBase15PerformShutdownINS2_11MasterStackEEEvRKSt10shared_ptrIT_EENKUlvE_clEvEUlvE_E11do_completeEPNS0_15task_io_serviceEPNS0_25task_io_service_operationERKSt10error_codem
	.section	.text.unlikely
.LCOLDB34:
	.text
.LHOTB34:
	.p2align 4
	.type	_ZN4asio6detail18completion_handlerIZN8asiodnp311MasterStack14ScanAllObjectsEN8opendnp316GroupVariationIDERKNS4_10TaskConfigEEUlvE_E11do_completeEPNS0_15task_io_serviceEPNS0_25task_io_service_operationERKSt10error_codem, @function
_ZN4asio6detail18completion_handlerIZN8asiodnp311MasterStack14ScanAllObjectsEN8opendnp316GroupVariationIDERKNS4_10TaskConfigEEUlvE_E11do_completeEPNS0_15task_io_serviceEPNS0_25task_io_service_operationERKSt10error_codem:
.LFB11131:
	.cfi_startproc
	.cfi_personality 0x9b,DW.ref.__gxx_personality_v0
	.cfi_lsda 0x1b,.LLSDA11131
	endbr64
	pushq	%r13
	.cfi_def_cfa_offset 16
	.cfi_offset 13, -16
	pushq	%r12
	.cfi_def_cfa_offset 24
	.cfi_offset 12, -24
	pushq	%rbp
	.cfi_def_cfa_offset 32
	.cfi_offset 6, -32
	movq	%rsi, %rbp
	pushq	%rbx
	.cfi_def_cfa_offset 40
	.cfi_offset 3, -40
	movq	%rdi, %rbx
	subq	$56, %rsp
	.cfi_def_cfa_offset 96
	movzwl	40(%rsi), %eax
	movdqu	48(%rsi), %xmm0
	movq	24(%rsi), %r12
	movq	32(%rsi), %r13
	movw	%ax, 16(%rsp)
	movups	%xmm0, 24(%rsp)
	data16	leaq	_ZN4asio6detail15keyword_tss_ptrINS0_10call_stackINS0_15task_io_serviceENS0_27task_io_service_thread_infoEE7contextEE6value_E@tlsgd(%rip), %rdi
	.value	0x6666
	rex64
	call	__tls_get_addr@PLT
	movq	(%rax), %rax
	testq	%rax, %rax
	je	.L1476
	movq	8(%rax), %rax
	testq	%rax, %rax
	je	.L1476
	cmpq	$0, (%rax)
	je	.L1496
.L1476:
	movq	%rbp, %rdi
	call	_ZdlPv@PLT
.L1477:
	testq	%rbx, %rbx
	je	.L1478
	movq	24(%rsp), %rdx
	movq	32(%rsp), %rcx
	leaq	168(%r12), %rdi
	movzwl	16(%rsp), %esi
.LEHB54:
	call	_ZN8opendnp38MContext14ScanAllObjectsENS_16GroupVariationIDENS_10TaskConfigE@PLT
.LEHE54:
	sfence
.L1478:
	testq	%r13, %r13
	je	.L1475
	addq	$56, %rsp
	.cfi_remember_state
	.cfi_def_cfa_offset 40
	movq	%r13, %rdi
	popq	%rbx
	.cfi_def_cfa_offset 32
	popq	%rbp
	.cfi_def_cfa_offset 24
	popq	%r12
	.cfi_def_cfa_offset 16
	popq	%r13
	.cfi_def_cfa_offset 8
	jmp	_ZNSt16_Sp_counted_baseILN9__gnu_cxx12_Lock_policyE2EE10_M_releaseEv@PLT
	.p2align 4,,10
	.p2align 3
.L1475:
	.cfi_restore_state
	addq	$56, %rsp
	.cfi_remember_state
	.cfi_def_cfa_offset 40
	popq	%rbx
	.cfi_def_cfa_offset 32
	popq	%rbp
	.cfi_def_cfa_offset 24
	popq	%r12
	.cfi_def_cfa_offset 16
	popq	%r13
	.cfi_def_cfa_offset 8
	ret
	.p2align 4,,10
	.p2align 3
.L1496:
	.cfi_restore_state
	movzbl	64(%rbp), %edx
	movb	%dl, 0(%rbp)
	movq	%rbp, (%rax)
	jmp	.L1477
.L1482:
	endbr64
	movq	%rax, %rbp
	jmp	.L1480
	.section	.gcc_except_table
.LLSDA11131:
	.byte	0xff
	.byte	0xff
	.byte	0x1
	.uleb128 .LLSDACSE11131-.LLSDACSB11131
.LLSDACSB11131:
	.uleb128 .LEHB54-.LFB11131
	.uleb128 .LEHE54-.LEHB54
	.uleb128 .L1482-.LFB11131
	.uleb128 0
.LLSDACSE11131:
	.text
	.cfi_endproc
	.section	.text.unlikely
	.cfi_startproc
	.cfi_personality 0x9b,DW.ref.__gxx_personality_v0
	.cfi_lsda 0x1b,.LLSDAC11131
	.type	_ZN4asio6detail18completion_handlerIZN8asiodnp311MasterStack14ScanAllObjectsEN8opendnp316GroupVariationIDERKNS4_10TaskConfigEEUlvE_E11do_completeEPNS0_15task_io_serviceEPNS0_25task_io_service_operationERKSt10error_codem.cold, @function
_ZN4asio6detail18completion_handlerIZN8asiodnp311MasterStack14ScanAllObjectsEN8opendnp316GroupVariationIDERKNS4_10TaskConfigEEUlvE_E11do_completeEPNS0_15task_io_serviceEPNS0_25task_io_service_operationERKSt10error_codem.cold:
.LFSB11131:
.L1480:
	.cfi_def_cfa_offset 96
	.cfi_offset 3, -40
	.cfi_offset 6, -32
	.cfi_offset 12, -24
	.cfi_offset 13, -16
	sfence
	testq	%r13, %r13
	je	.L1481
	movq	%r13, %rdi
	call	_ZNSt16_Sp_counted_baseILN9__gnu_cxx12_Lock_policyE2EE10_M_releaseEv@PLT
.L1481:
	movq	%rbp, %rdi
.LEHB55:
	call	_Unwind_Resume@PLT
.LEHE55:
	.cfi_endproc
.LFE11131:
	.section	.gcc_except_table
.LLSDAC11131:
	.byte	0xff
	.byte	0xff
	.byte	0x1
	.uleb128 .LLSDACSEC11131-.LLSDACSBC11131
.LLSDACSBC11131:
	.uleb128 .LEHB55-.LCOLDB34
	.uleb128 .LEHE55-.LEHB55
	.uleb128 0
	.uleb128 0
.LLSDACSEC11131:
	.section	.text.unlikely
	.text
	.size	_ZN4asio6detail18completion_handlerIZN8asiodnp311MasterStack14ScanAllObjectsEN8opendnp316GroupVariationIDERKNS4_10TaskConfigEEUlvE_E11do_completeEPNS0_15task_io_serviceEPNS0_25task_io_service_operationERKSt10error_codem, .-_ZN4asio6detail18completion_handlerIZN8asiodnp311MasterStack14ScanAllObjectsEN8opendnp316GroupVariationIDERKNS4_10TaskConfigEEUlvE_E11do_completeEPNS0_15task_io_serviceEPNS0_25task_io_service_operationERKSt10error_codem
	.section	.text.unlikely
	.size	_ZN4asio6detail18completion_handlerIZN8asiodnp311MasterStack14ScanAllObjectsEN8opendnp316GroupVariationIDERKNS4_10TaskConfigEEUlvE_E11do_completeEPNS0_15task_io_serviceEPNS0_25task_io_service_operationERKSt10error_codem.cold, .-_ZN4asio6detail18completion_handlerIZN8asiodnp311MasterStack14ScanAllObjectsEN8opendnp316GroupVariationIDERKNS4_10TaskConfigEEUlvE_E11do_completeEPNS0_15task_io_serviceEPNS0_25task_io_service_operationERKSt10error_codem.cold
.LCOLDE34:
	.text
.LHOTE34:
	.section	.text.unlikely
.LCOLDB35:
	.text
.LHOTB35:
	.p2align 4
	.type	_ZN4asio6detail18completion_handlerIZN8asiodnp311MasterStack11ScanClassesERKN8opendnp310ClassFieldERKNS4_10TaskConfigEEUlvE_E11do_completeEPNS0_15task_io_serviceEPNS0_25task_io_service_operationERKSt10error_codem, @function
_ZN4asio6detail18completion_handlerIZN8asiodnp311MasterStack11ScanClassesERKN8opendnp310ClassFieldERKNS4_10TaskConfigEEUlvE_E11do_completeEPNS0_15task_io_serviceEPNS0_25task_io_service_operationERKSt10error_codem:
.LFB11136:
	.cfi_startproc
	.cfi_personality 0x9b,DW.ref.__gxx_personality_v0
	.cfi_lsda 0x1b,.LLSDA11136
	endbr64
	pushq	%rbp
	.cfi_def_cfa_offset 16
	.cfi_offset 6, -16
	movq	%rsi, %rbp
	pushq	%rbx
	.cfi_def_cfa_offset 24
	.cfi_offset 3, -24
	movq	%rdi, %rbx
	subq	$56, %rsp
	.cfi_def_cfa_offset 80
	movdqu	24(%rsi), %xmm0
	movdqu	48(%rsi), %xmm1
	movq	%fs:40, %rax
	movq	%rax, 40(%rsp)
	xorl	%eax, %eax
	movzbl	40(%rsi), %eax
	movaps	%xmm0, (%rsp)
	movb	%al, 16(%rsp)
	movups	%xmm1, 24(%rsp)
	data16	leaq	_ZN4asio6detail15keyword_tss_ptrINS0_10call_stackINS0_15task_io_serviceENS0_27task_io_service_thread_infoEE7contextEE6value_E@tlsgd(%rip), %rdi
	.value	0x6666
	rex64
	call	__tls_get_addr@PLT
	movq	(%rax), %rax
	testq	%rax, %rax
	je	.L1498
	movq	8(%rax), %rax
	testq	%rax, %rax
	je	.L1498
	cmpq	$0, (%rax)
	je	.L1522
.L1498:
	movq	%rbp, %rdi
	call	_ZdlPv@PLT
.L1499:
	testq	%rbx, %rbx
	je	.L1500
	movq	(%rsp), %rax
	movq	24(%rsp), %rdx
	leaq	16(%rsp), %rsi
	movq	32(%rsp), %rcx
	leaq	168(%rax), %rdi
.LEHB56:
	call	_ZN8opendnp38MContext11ScanClassesERKNS_10ClassFieldENS_10TaskConfigE@PLT
.LEHE56:
	sfence
.L1500:
	movq	8(%rsp), %rdi
	testq	%rdi, %rdi
	je	.L1497
	call	_ZNSt16_Sp_counted_baseILN9__gnu_cxx12_Lock_policyE2EE10_M_releaseEv@PLT
.L1497:
	movq	40(%rsp), %rax
	xorq	%fs:40, %rax
	jne	.L1523
	addq	$56, %rsp
	.cfi_remember_state
	.cfi_def_cfa_offset 24
	popq	%rbx
	.cfi_def_cfa_offset 16
	popq	%rbp
	.cfi_def_cfa_offset 8
	ret
	.p2align 4,,10
	.p2align 3
.L1522:
	.cfi_restore_state
	movzbl	64(%rbp), %edx
	movb	%dl, 0(%rbp)
	movq	%rbp, (%rax)
	jmp	.L1499
.L1523:
	call	__stack_chk_fail@PLT
.L1505:
	endbr64
	movq	%rax, %rbp
	jmp	.L1502
	.section	.gcc_except_table
.LLSDA11136:
	.byte	0xff
	.byte	0xff
	.byte	0x1
	.uleb128 .LLSDACSE11136-.LLSDACSB11136
.LLSDACSB11136:
	.uleb128 .LEHB56-.LFB11136
	.uleb128 .LEHE56-.LEHB56
	.uleb128 .L1505-.LFB11136
	.uleb128 0
.LLSDACSE11136:
	.text
	.cfi_endproc
	.section	.text.unlikely
	.cfi_startproc
	.cfi_personality 0x9b,DW.ref.__gxx_personality_v0
	.cfi_lsda 0x1b,.LLSDAC11136
	.type	_ZN4asio6detail18completion_handlerIZN8asiodnp311MasterStack11ScanClassesERKN8opendnp310ClassFieldERKNS4_10TaskConfigEEUlvE_E11do_completeEPNS0_15task_io_serviceEPNS0_25task_io_service_operationERKSt10error_codem.cold, @function
_ZN4asio6detail18completion_handlerIZN8asiodnp311MasterStack11ScanClassesERKN8opendnp310ClassFieldERKNS4_10TaskConfigEEUlvE_E11do_completeEPNS0_15task_io_serviceEPNS0_25task_io_service_operationERKSt10error_codem.cold:
.LFSB11136:
.L1502:
	.cfi_def_cfa_offset 80
	.cfi_offset 3, -24
	.cfi_offset 6, -16
	sfence
	movq	8(%rsp), %rdi
	testq	%rdi, %rdi
	je	.L1503
	call	_ZNSt16_Sp_counted_baseILN9__gnu_cxx12_Lock_policyE2EE10_M_releaseEv@PLT
.L1503:
	movq	%rbp, %rdi
.LEHB57:
	call	_Unwind_Resume@PLT
.LEHE57:
	.cfi_endproc
.LFE11136:
	.section	.gcc_except_table
.LLSDAC11136:
	.byte	0xff
	.byte	0xff
	.byte	0x1
	.uleb128 .LLSDACSEC11136-.LLSDACSBC11136
.LLSDACSBC11136:
	.uleb128 .LEHB57-.LCOLDB35
	.uleb128 .LEHE57-.LEHB57
	.uleb128 0
	.uleb128 0
.LLSDACSEC11136:
	.section	.text.unlikely
	.text
	.size	_ZN4asio6detail18completion_handlerIZN8asiodnp311MasterStack11ScanClassesERKN8opendnp310ClassFieldERKNS4_10TaskConfigEEUlvE_E11do_completeEPNS0_15task_io_serviceEPNS0_25task_io_service_operationERKSt10error_codem, .-_ZN4asio6detail18completion_handlerIZN8asiodnp311MasterStack11ScanClassesERKN8opendnp310ClassFieldERKNS4_10TaskConfigEEUlvE_E11do_completeEPNS0_15task_io_serviceEPNS0_25task_io_service_operationERKSt10error_codem
	.section	.text.unlikely
	.size	_ZN4asio6detail18completion_handlerIZN8asiodnp311MasterStack11ScanClassesERKN8opendnp310ClassFieldERKNS4_10TaskConfigEEUlvE_E11do_completeEPNS0_15task_io_serviceEPNS0_25task_io_service_operationERKSt10error_codem.cold, .-_ZN4asio6detail18completion_handlerIZN8asiodnp311MasterStack11ScanClassesERKN8opendnp310ClassFieldERKNS4_10TaskConfigEEUlvE_E11do_completeEPNS0_15task_io_serviceEPNS0_25task_io_service_operationERKSt10error_codem.cold
.LCOLDE35:
	.text
.LHOTE35:
	.section	.text.unlikely
.LCOLDB36:
	.text
.LHOTB36:
	.p2align 4
	.type	_ZN4asio6detail18completion_handlerIZN8asiodnp311MasterStack5WriteERKN8opendnp315TimeAndIntervalEtRKNS4_10TaskConfigEEUlvE_E11do_completeEPNS0_15task_io_serviceEPNS0_25task_io_service_operationERKSt10error_codem, @function
