	.file	"MasterSessionStack.cpp"
	.text
	.section	.rodata._ZNK4asio6detail15system_category4nameEv.str1.1,"aMS",@progbits,1
.LC0:
	.string	"asio.system"
	.section	.text._ZNK4asio6detail15system_category4nameEv,"axG",@progbits,_ZNK4asio6detail15system_category4nameEv,comdat
	.align 2
	.p2align 4
	.weak	_ZNK4asio6detail15system_category4nameEv
	.type	_ZNK4asio6detail15system_category4nameEv, @function
_ZNK4asio6detail15system_category4nameEv:
.LFB3412:
	.cfi_startproc
	endbr64
	leaq	.LC0(%rip), %rax
	ret
	.cfi_endproc
.LFE3412:
	.size	_ZNK4asio6detail15system_category4nameEv, .-_ZNK4asio6detail15system_category4nameEv
	.section	.rodata._ZNK4asio5error6detail14netdb_category4nameEv.str1.1,"aMS",@progbits,1
.LC1:
	.string	"asio.netdb"
	.section	.text._ZNK4asio5error6detail14netdb_category4nameEv,"axG",@progbits,_ZNK4asio5error6detail14netdb_category4nameEv,comdat
	.align 2
	.p2align 4
	.weak	_ZNK4asio5error6detail14netdb_category4nameEv
	.type	_ZNK4asio5error6detail14netdb_category4nameEv, @function
_ZNK4asio5error6detail14netdb_category4nameEv:
.LFB3452:
	.cfi_startproc
	endbr64
	leaq	.LC1(%rip), %rax
	ret
	.cfi_endproc
.LFE3452:
	.size	_ZNK4asio5error6detail14netdb_category4nameEv, .-_ZNK4asio5error6detail14netdb_category4nameEv
	.section	.rodata._ZNK4asio5error6detail17addrinfo_category4nameEv.str1.1,"aMS",@progbits,1
.LC2:
	.string	"asio.addrinfo"
	.section	.text._ZNK4asio5error6detail17addrinfo_category4nameEv,"axG",@progbits,_ZNK4asio5error6detail17addrinfo_category4nameEv,comdat
	.align 2
	.p2align 4
	.weak	_ZNK4asio5error6detail17addrinfo_category4nameEv
	.type	_ZNK4asio5error6detail17addrinfo_category4nameEv, @function
_ZNK4asio5error6detail17addrinfo_category4nameEv:
.LFB3458:
	.cfi_startproc
	endbr64
	leaq	.LC2(%rip), %rax
	ret
	.cfi_endproc
.LFE3458:
	.size	_ZNK4asio5error6detail17addrinfo_category4nameEv, .-_ZNK4asio5error6detail17addrinfo_category4nameEv
	.section	.rodata._ZNK4asio5error6detail13misc_category4nameEv.str1.1,"aMS",@progbits,1
.LC3:
	.string	"asio.misc"
	.section	.text._ZNK4asio5error6detail13misc_category4nameEv,"axG",@progbits,_ZNK4asio5error6detail13misc_category4nameEv,comdat
	.align 2
	.p2align 4
	.weak	_ZNK4asio5error6detail13misc_category4nameEv
	.type	_ZNK4asio5error6detail13misc_category4nameEv, @function
_ZNK4asio5error6detail13misc_category4nameEv:
.LFB3464:
	.cfi_startproc
	endbr64
	leaq	.LC3(%rip), %rax
	ret
	.cfi_endproc
.LFE3464:
	.size	_ZNK4asio5error6detail13misc_category4nameEv, .-_ZNK4asio5error6detail13misc_category4nameEv
	.section	.text._ZNSt13__future_base13_State_baseV217_M_complete_asyncEv,"axG",@progbits,_ZNSt13__future_base13_State_baseV217_M_complete_asyncEv,comdat
	.align 2
	.p2align 4
	.weak	_ZNSt13__future_base13_State_baseV217_M_complete_asyncEv
	.type	_ZNSt13__future_base13_State_baseV217_M_complete_asyncEv, @function
_ZNSt13__future_base13_State_baseV217_M_complete_asyncEv:
.LFB7394:
	.cfi_startproc
	endbr64
	ret
	.cfi_endproc
.LFE7394:
	.size	_ZNSt13__future_base13_State_baseV217_M_complete_asyncEv, .-_ZNSt13__future_base13_State_baseV217_M_complete_asyncEv
	.section	.text._ZNKSt13__future_base13_State_baseV221_M_is_deferred_futureEv,"axG",@progbits,_ZNKSt13__future_base13_State_baseV221_M_is_deferred_futureEv,comdat
	.align 2
	.p2align 4
	.weak	_ZNKSt13__future_base13_State_baseV221_M_is_deferred_futureEv
	.type	_ZNKSt13__future_base13_State_baseV221_M_is_deferred_futureEv, @function
_ZNKSt13__future_base13_State_baseV221_M_is_deferred_futureEv:
.LFB7395:
	.cfi_startproc
	endbr64
	xorl	%eax, %eax
	ret
	.cfi_endproc
.LFE7395:
	.size	_ZNKSt13__future_base13_State_baseV221_M_is_deferred_futureEv, .-_ZNKSt13__future_base13_State_baseV221_M_is_deferred_futureEv
	.section	.text._ZZSt9call_onceIMNSt13__future_base13_State_baseV2EFvPSt8functionIFSt10unique_ptrINS0_12_Result_baseENS4_8_DeleterEEvEEPbEJPS1_S9_SA_EEvRSt9once_flagOT_DpOT0_ENUlvE0_4_FUNEv,"axG",@progbits,_ZZSt9call_onceIMNSt13__future_base13_State_baseV2EFvPSt8functionIFSt10unique_ptrINS0_12_Result_baseENS4_8_DeleterEEvEEPbEJPS1_S9_SA_EEvRSt9once_flagOT_DpOT0_ENUlvE0_4_FUNEv,comdat
	.p2align 4
	.weak	_ZZSt9call_onceIMNSt13__future_base13_State_baseV2EFvPSt8functionIFSt10unique_ptrINS0_12_Result_baseENS4_8_DeleterEEvEEPbEJPS1_S9_SA_EEvRSt9once_flagOT_DpOT0_ENUlvE0_4_FUNEv
	.type	_ZZSt9call_onceIMNSt13__future_base13_State_baseV2EFvPSt8functionIFSt10unique_ptrINS0_12_Result_baseENS4_8_DeleterEEvEEPbEJPS1_S9_SA_EEvRSt9once_flagOT_DpOT0_ENUlvE0_4_FUNEv, @function
_ZZSt9call_onceIMNSt13__future_base13_State_baseV2EFvPSt8functionIFSt10unique_ptrINS0_12_Result_baseENS4_8_DeleterEEvEEPbEJPS1_S9_SA_EEvRSt9once_flagOT_DpOT0_ENUlvE0_4_FUNEv:
.LFB8718:
	.cfi_startproc
	endbr64
	subq	$8, %rsp
	.cfi_def_cfa_offset 16
	data16	leaq	_ZSt15__once_callable@tlsgd(%rip), %rdi
	.value	0x6666
	rex64
	call	__tls_get_addr@PLT
	movq	(%rax), %rax
	movq	16(%rax), %rcx
	movq	(%rax), %rdx
	movq	(%rcx), %rsi
	movq	24(%rax), %rcx
	movq	8(%rax), %rax
	movq	8(%rdx), %rdi
	movq	(%rcx), %r8
	addq	(%rax), %rdi
	movq	(%rdx), %rax
	testb	$1, %al
	je	.L9
	movq	(%rdi), %rdx
	movq	-1(%rdx,%rax), %rax
.L9:
	movq	%r8, %rdx
	addq	$8, %rsp
	.cfi_def_cfa_offset 8
	jmp	*%rax
	.cfi_endproc
.LFE8718:
	.size	_ZZSt9call_onceIMNSt13__future_base13_State_baseV2EFvPSt8functionIFSt10unique_ptrINS0_12_Result_baseENS4_8_DeleterEEvEEPbEJPS1_S9_SA_EEvRSt9once_flagOT_DpOT0_ENUlvE0_4_FUNEv, .-_ZZSt9call_onceIMNSt13__future_base13_State_baseV2EFvPSt8functionIFSt10unique_ptrINS0_12_Result_baseENS4_8_DeleterEEvEEPbEJPS1_S9_SA_EEvRSt9once_flagOT_DpOT0_ENUlvE0_4_FUNEv
	.section	.text._ZNSt15__exception_ptr12__dest_thunkISt12future_errorEEvPv,"axG",@progbits,_ZNSt15__exception_ptr12__dest_thunkISt12future_errorEEvPv,comdat
	.p2align 4
	.weak	_ZNSt15__exception_ptr12__dest_thunkISt12future_errorEEvPv
	.type	_ZNSt15__exception_ptr12__dest_thunkISt12future_errorEEvPv, @function
_ZNSt15__exception_ptr12__dest_thunkISt12future_errorEEvPv:
.LFB9344:
	.cfi_startproc
	endbr64
	movq	(%rdi), %rax
	jmp	*(%rax)
	.cfi_endproc
.LFE9344:
	.size	_ZNSt15__exception_ptr12__dest_thunkISt12future_errorEEvPv, .-_ZNSt15__exception_ptr12__dest_thunkISt12future_errorEEvPv
	.section	.text._ZNSt17_Function_handlerIFSt10unique_ptrINSt13__future_base12_Result_baseENS2_8_DeleterEEvENS1_13_State_baseV27_SetterIN8opendnp315StackStatisticsEOS9_EEE9_M_invokeERKSt9_Any_data,"axG",@progbits,_ZNSt17_Function_handlerIFSt10unique_ptrINSt13__future_base12_Result_baseENS2_8_DeleterEEvENS1_13_State_baseV27_SetterIN8opendnp315StackStatisticsEOS9_EEE9_M_invokeERKSt9_Any_data,comdat
	.p2align 4
	.weak	_ZNSt17_Function_handlerIFSt10unique_ptrINSt13__future_base12_Result_baseENS2_8_DeleterEEvENS1_13_State_baseV27_SetterIN8opendnp315StackStatisticsEOS9_EEE9_M_invokeERKSt9_Any_data
	.type	_ZNSt17_Function_handlerIFSt10unique_ptrINSt13__future_base12_Result_baseENS2_8_DeleterEEvENS1_13_State_baseV27_SetterIN8opendnp315StackStatisticsEOS9_EEE9_M_invokeERKSt9_Any_data, @function
_ZNSt17_Function_handlerIFSt10unique_ptrINSt13__future_base12_Result_baseENS2_8_DeleterEEvENS1_13_State_baseV27_SetterIN8opendnp315StackStatisticsEOS9_EEE9_M_invokeERKSt9_Any_data:
.LFB10412:
	.cfi_startproc
	endbr64
	movq	8(%rsi), %rcx
	movq	%rdi, %rax
	movq	(%rsi), %rdi
	movdqu	(%rcx), %xmm0
	movq	16(%rdi), %rdx
	movups	%xmm0, 16(%rdx)
	movdqu	16(%rcx), %xmm1
	movups	%xmm1, 32(%rdx)
	movq	32(%rcx), %rcx
	movb	$1, 56(%rdx)
	movq	%rcx, 48(%rdx)
	movq	$0, 16(%rdi)
	movq	%rdx, (%rax)
	ret
	.cfi_endproc
.LFE10412:
	.size	_ZNSt17_Function_handlerIFSt10unique_ptrINSt13__future_base12_Result_baseENS2_8_DeleterEEvENS1_13_State_baseV27_SetterIN8opendnp315StackStatisticsEOS9_EEE9_M_invokeERKSt9_Any_data, .-_ZNSt17_Function_handlerIFSt10unique_ptrINSt13__future_base12_Result_baseENS2_8_DeleterEEvENS1_13_State_baseV27_SetterIN8opendnp315StackStatisticsEOS9_EEE9_M_invokeERKSt9_Any_data
	.section	.text._ZNSt14_Function_base13_Base_managerINSt13__future_base13_State_baseV27_SetterIN8opendnp315StackStatisticsEOS5_EEE10_M_managerERSt9_Any_dataRKS9_St18_Manager_operation,"axG",@progbits,_ZNSt14_Function_base13_Base_managerINSt13__future_base13_State_baseV27_SetterIN8opendnp315StackStatisticsEOS5_EEE10_M_managerERSt9_Any_dataRKS9_St18_Manager_operation,comdat
	.p2align 4
	.weak	_ZNSt14_Function_base13_Base_managerINSt13__future_base13_State_baseV27_SetterIN8opendnp315StackStatisticsEOS5_EEE10_M_managerERSt9_Any_dataRKS9_St18_Manager_operation
	.type	_ZNSt14_Function_base13_Base_managerINSt13__future_base13_State_baseV27_SetterIN8opendnp315StackStatisticsEOS5_EEE10_M_managerERSt9_Any_dataRKS9_St18_Manager_operation, @function
_ZNSt14_Function_base13_Base_managerINSt13__future_base13_State_baseV27_SetterIN8opendnp315StackStatisticsEOS5_EEE10_M_managerERSt9_Any_dataRKS9_St18_Manager_operation:
.LFB10413:
	.cfi_startproc
	endbr64
	cmpl	$2, %edx
	je	.L17
	ja	.L18
	testl	%edx, %edx
	je	.L20
	movq	%rsi, (%rdi)
.L18:
	xorl	%eax, %eax
	ret
	.p2align 4,,10
	.p2align 3
.L17:
	movdqu	(%rsi), %xmm0
	xorl	%eax, %eax
	movups	%xmm0, (%rdi)
	ret
	.p2align 4,,10
	.p2align 3
.L20:
	movq	_ZTINSt13__future_base13_State_baseV27_SetterIN8opendnp315StackStatisticsEOS3_EE@GOTPCREL(%rip), %rax
	movq	%rax, (%rdi)
	xorl	%eax, %eax
	ret
	.cfi_endproc
.LFE10413:
	.size	_ZNSt14_Function_base13_Base_managerINSt13__future_base13_State_baseV27_SetterIN8opendnp315StackStatisticsEOS5_EEE10_M_managerERSt9_Any_dataRKS9_St18_Manager_operation, .-_ZNSt14_Function_base13_Base_managerINSt13__future_base13_State_baseV27_SetterIN8opendnp315StackStatisticsEOS5_EEE10_M_managerERSt9_Any_dataRKS9_St18_Manager_operation
	.section	.text._ZNSt17_Function_handlerIFSt10unique_ptrINSt13__future_base12_Result_baseENS2_8_DeleterEEvENS1_13_State_baseV27_SetterISt10shared_ptrIN8opendnp311IMasterTaskEEOSB_EEE9_M_invokeERKSt9_Any_data,"axG",@progbits,_ZNSt17_Function_handlerIFSt10unique_ptrINSt13__future_base12_Result_baseENS2_8_DeleterEEvENS1_13_State_baseV27_SetterISt10shared_ptrIN8opendnp311IMasterTaskEEOSB_EEE9_M_invokeERKSt9_Any_data,comdat
	.p2align 4
	.weak	_ZNSt17_Function_handlerIFSt10unique_ptrINSt13__future_base12_Result_baseENS2_8_DeleterEEvENS1_13_State_baseV27_SetterISt10shared_ptrIN8opendnp311IMasterTaskEEOSB_EEE9_M_invokeERKSt9_Any_data
	.type	_ZNSt17_Function_handlerIFSt10unique_ptrINSt13__future_base12_Result_baseENS2_8_DeleterEEvENS1_13_State_baseV27_SetterISt10shared_ptrIN8opendnp311IMasterTaskEEOSB_EEE9_M_invokeERKSt9_Any_data, @function
_ZNSt17_Function_handlerIFSt10unique_ptrINSt13__future_base12_Result_baseENS2_8_DeleterEEvENS1_13_State_baseV27_SetterISt10shared_ptrIN8opendnp311IMasterTaskEEOSB_EEE9_M_invokeERKSt9_Any_data:
.LFB10442:
	.cfi_startproc
	endbr64
	movq	8(%rsi), %rcx
	movq	%rdi, %rax
	movq	(%rsi), %rdi
	pxor	%xmm0, %xmm0
	movq	16(%rdi), %rdx
	movq	(%rcx), %rsi
	movq	$0, 24(%rdx)
	movq	%rsi, 16(%rdx)
	movq	8(%rcx), %rsi
	movups	%xmm0, (%rcx)
	movq	%rsi, 24(%rdx)
	movb	$1, 32(%rdx)
	movq	$0, 16(%rdi)
	movq	%rdx, (%rax)
	ret
	.cfi_endproc
.LFE10442:
	.size	_ZNSt17_Function_handlerIFSt10unique_ptrINSt13__future_base12_Result_baseENS2_8_DeleterEEvENS1_13_State_baseV27_SetterISt10shared_ptrIN8opendnp311IMasterTaskEEOSB_EEE9_M_invokeERKSt9_Any_data, .-_ZNSt17_Function_handlerIFSt10unique_ptrINSt13__future_base12_Result_baseENS2_8_DeleterEEvENS1_13_State_baseV27_SetterISt10shared_ptrIN8opendnp311IMasterTaskEEOSB_EEE9_M_invokeERKSt9_Any_data
	.section	.text._ZNSt14_Function_base13_Base_managerINSt13__future_base13_State_baseV27_SetterISt10shared_ptrIN8opendnp311IMasterTaskEEOS7_EEE10_M_managerERSt9_Any_dataRKSB_St18_Manager_operation,"axG",@progbits,_ZNSt14_Function_base13_Base_managerINSt13__future_base13_State_baseV27_SetterISt10shared_ptrIN8opendnp311IMasterTaskEEOS7_EEE10_M_managerERSt9_Any_dataRKSB_St18_Manager_operation,comdat
	.p2align 4
	.weak	_ZNSt14_Function_base13_Base_managerINSt13__future_base13_State_baseV27_SetterISt10shared_ptrIN8opendnp311IMasterTaskEEOS7_EEE10_M_managerERSt9_Any_dataRKSB_St18_Manager_operation
	.type	_ZNSt14_Function_base13_Base_managerINSt13__future_base13_State_baseV27_SetterISt10shared_ptrIN8opendnp311IMasterTaskEEOS7_EEE10_M_managerERSt9_Any_dataRKSB_St18_Manager_operation, @function
_ZNSt14_Function_base13_Base_managerINSt13__future_base13_State_baseV27_SetterISt10shared_ptrIN8opendnp311IMasterTaskEEOS7_EEE10_M_managerERSt9_Any_dataRKSB_St18_Manager_operation:
.LFB10443:
	.cfi_startproc
	endbr64
	cmpl	$2, %edx
	je	.L23
	ja	.L24
	testl	%edx, %edx
	je	.L26
	movq	%rsi, (%rdi)
.L24:
	xorl	%eax, %eax
	ret
	.p2align 4,,10
	.p2align 3
.L23:
	movdqu	(%rsi), %xmm0
	xorl	%eax, %eax
	movups	%xmm0, (%rdi)
	ret
	.p2align 4,,10
	.p2align 3
.L26:
	movq	_ZTINSt13__future_base13_State_baseV27_SetterISt10shared_ptrIN8opendnp311IMasterTaskEEOS5_EE@GOTPCREL(%rip), %rax
	movq	%rax, (%rdi)
	xorl	%eax, %eax
	ret
	.cfi_endproc
.LFE10443:
	.size	_ZNSt14_Function_base13_Base_managerINSt13__future_base13_State_baseV27_SetterISt10shared_ptrIN8opendnp311IMasterTaskEEOS7_EEE10_M_managerERSt9_Any_dataRKSB_St18_Manager_operation, .-_ZNSt14_Function_base13_Base_managerINSt13__future_base13_State_baseV27_SetterISt10shared_ptrIN8opendnp311IMasterTaskEEOS7_EEE10_M_managerERSt9_Any_dataRKSB_St18_Manager_operation
	.section	.text._ZNSt13__future_base13_State_baseV2D2Ev,"axG",@progbits,_ZNSt13__future_base13_State_baseV2D5Ev,comdat
	.align 2
	.p2align 4
	.weak	_ZNSt13__future_base13_State_baseV2D2Ev
	.type	_ZNSt13__future_base13_State_baseV2D2Ev, @function
_ZNSt13__future_base13_State_baseV2D2Ev:
.LFB11354:
	.cfi_startproc
	.cfi_personality 0x9b,DW.ref.__gxx_personality_v0
	.cfi_lsda 0x1b,.LLSDA11354
	endbr64
	movq	_ZTVNSt13__future_base13_State_baseV2E@GOTPCREL(%rip), %rax
	addq	$16, %rax
	movq	%rax, (%rdi)
	movq	8(%rdi), %rdi
	testq	%rdi, %rdi
	je	.L33
	subq	$8, %rsp
	.cfi_def_cfa_offset 16
	movq	(%rdi), %rax
	call	*(%rax)
	addq	$8, %rsp
	.cfi_def_cfa_offset 8
	ret
	.p2align 4,,10
	.p2align 3
.L33:
	ret
	.cfi_endproc
.LFE11354:
	.globl	__gxx_personality_v0
	.section	.gcc_except_table._ZNSt13__future_base13_State_baseV2D2Ev,"aG",@progbits,_ZNSt13__future_base13_State_baseV2D5Ev,comdat
.LLSDA11354:
	.byte	0xff
	.byte	0xff
	.byte	0x1
	.uleb128 .LLSDACSE11354-.LLSDACSB11354
.LLSDACSB11354:
.LLSDACSE11354:
	.section	.text._ZNSt13__future_base13_State_baseV2D2Ev,"axG",@progbits,_ZNSt13__future_base13_State_baseV2D5Ev,comdat
	.size	_ZNSt13__future_base13_State_baseV2D2Ev, .-_ZNSt13__future_base13_State_baseV2D2Ev
	.weak	_ZNSt13__future_base13_State_baseV2D1Ev
	.set	_ZNSt13__future_base13_State_baseV2D1Ev,_ZNSt13__future_base13_State_baseV2D2Ev
	.section	.text._ZN4asio6detail7tss_ptrINS0_10call_stackINS0_15task_io_serviceENS0_27task_io_service_thread_infoEE7contextEED2Ev,"axG",@progbits,_ZN4asio6detail7tss_ptrINS0_10call_stackINS0_15task_io_serviceENS0_27task_io_service_thread_infoEE7contextEED5Ev,comdat
	.align 2
	.p2align 4
	.weak	_ZN4asio6detail7tss_ptrINS0_10call_stackINS0_15task_io_serviceENS0_27task_io_service_thread_infoEE7contextEED2Ev
	.type	_ZN4asio6detail7tss_ptrINS0_10call_stackINS0_15task_io_serviceENS0_27task_io_service_thread_infoEE7contextEED2Ev, @function
_ZN4asio6detail7tss_ptrINS0_10call_stackINS0_15task_io_serviceENS0_27task_io_service_thread_infoEE7contextEED2Ev:
.LFB11419:
	.cfi_startproc
	endbr64
	ret
	.cfi_endproc
.LFE11419:
	.size	_ZN4asio6detail7tss_ptrINS0_10call_stackINS0_15task_io_serviceENS0_27task_io_service_thread_infoEE7contextEED2Ev, .-_ZN4asio6detail7tss_ptrINS0_10call_stackINS0_15task_io_serviceENS0_27task_io_service_thread_infoEE7contextEED2Ev
	.weak	_ZN4asio6detail7tss_ptrINS0_10call_stackINS0_15task_io_serviceENS0_27task_io_service_thread_infoEE7contextEED1Ev
	.set	_ZN4asio6detail7tss_ptrINS0_10call_stackINS0_15task_io_serviceENS0_27task_io_service_thread_infoEE7contextEED1Ev,_ZN4asio6detail7tss_ptrINS0_10call_stackINS0_15task_io_serviceENS0_27task_io_service_thread_infoEE7contextEED2Ev
	.section	.text._ZN4asio6detail10service_idINS0_13epoll_reactorEED2Ev,"axG",@progbits,_ZN4asio6detail10service_idINS0_13epoll_reactorEED5Ev,comdat
	.align 2
	.p2align 4
	.weak	_ZN4asio6detail10service_idINS0_13epoll_reactorEED2Ev
	.type	_ZN4asio6detail10service_idINS0_13epoll_reactorEED2Ev, @function
_ZN4asio6detail10service_idINS0_13epoll_reactorEED2Ev:
.LFB11422:
	.cfi_startproc
	endbr64
	ret
	.cfi_endproc
.LFE11422:
	.size	_ZN4asio6detail10service_idINS0_13epoll_reactorEED2Ev, .-_ZN4asio6detail10service_idINS0_13epoll_reactorEED2Ev
	.weak	_ZN4asio6detail10service_idINS0_13epoll_reactorEED1Ev
	.set	_ZN4asio6detail10service_idINS0_13epoll_reactorEED1Ev,_ZN4asio6detail10service_idINS0_13epoll_reactorEED2Ev
	.section	.text._ZN4asio6detail10service_idINS0_15task_io_serviceEED2Ev,"axG",@progbits,_ZN4asio6detail10service_idINS0_15task_io_serviceEED5Ev,comdat
	.align 2
	.p2align 4
	.weak	_ZN4asio6detail10service_idINS0_15task_io_serviceEED2Ev
	.type	_ZN4asio6detail10service_idINS0_15task_io_serviceEED2Ev, @function
_ZN4asio6detail10service_idINS0_15task_io_serviceEED2Ev:
.LFB11425:
	.cfi_startproc
	endbr64
	ret
	.cfi_endproc
.LFE11425:
	.size	_ZN4asio6detail10service_idINS0_15task_io_serviceEED2Ev, .-_ZN4asio6detail10service_idINS0_15task_io_serviceEED2Ev
	.weak	_ZN4asio6detail10service_idINS0_15task_io_serviceEED1Ev
	.set	_ZN4asio6detail10service_idINS0_15task_io_serviceEED1Ev,_ZN4asio6detail10service_idINS0_15task_io_serviceEED2Ev
	.section	.text._ZN4asio6detail7tss_ptrINS0_10call_stackINS0_14strand_service11strand_implEhE7contextEED2Ev,"axG",@progbits,_ZN4asio6detail7tss_ptrINS0_10call_stackINS0_14strand_service11strand_implEhE7contextEED5Ev,comdat
	.align 2
	.p2align 4
	.weak	_ZN4asio6detail7tss_ptrINS0_10call_stackINS0_14strand_service11strand_implEhE7contextEED2Ev
	.type	_ZN4asio6detail7tss_ptrINS0_10call_stackINS0_14strand_service11strand_implEhE7contextEED2Ev, @function
_ZN4asio6detail7tss_ptrINS0_10call_stackINS0_14strand_service11strand_implEhE7contextEED2Ev:
.LFB11428:
	.cfi_startproc
	endbr64
	ret
	.cfi_endproc
.LFE11428:
	.size	_ZN4asio6detail7tss_ptrINS0_10call_stackINS0_14strand_service11strand_implEhE7contextEED2Ev, .-_ZN4asio6detail7tss_ptrINS0_10call_stackINS0_14strand_service11strand_implEhE7contextEED2Ev
	.weak	_ZN4asio6detail7tss_ptrINS0_10call_stackINS0_14strand_service11strand_implEhE7contextEED1Ev
	.set	_ZN4asio6detail7tss_ptrINS0_10call_stackINS0_14strand_service11strand_implEhE7contextEED1Ev,_ZN4asio6detail7tss_ptrINS0_10call_stackINS0_14strand_service11strand_implEhE7contextEED2Ev
	.section	.text._ZN4asio6detail10service_idINS0_14strand_serviceEED2Ev,"axG",@progbits,_ZN4asio6detail10service_idINS0_14strand_serviceEED5Ev,comdat
	.align 2
	.p2align 4
	.weak	_ZN4asio6detail10service_idINS0_14strand_serviceEED2Ev
	.type	_ZN4asio6detail10service_idINS0_14strand_serviceEED2Ev, @function
_ZN4asio6detail10service_idINS0_14strand_serviceEED2Ev:
.LFB11431:
	.cfi_startproc
	endbr64
	ret
	.cfi_endproc
.LFE11431:
	.size	_ZN4asio6detail10service_idINS0_14strand_serviceEED2Ev, .-_ZN4asio6detail10service_idINS0_14strand_serviceEED2Ev
	.weak	_ZN4asio6detail10service_idINS0_14strand_serviceEED1Ev
	.set	_ZN4asio6detail10service_idINS0_14strand_serviceEED1Ev,_ZN4asio6detail10service_idINS0_14strand_serviceEED2Ev
	.section	.text._ZNSt23_Sp_counted_ptr_inplaceIN8opendnp310CommandSetESaIS1_ELN9__gnu_cxx12_Lock_policyE2EED2Ev,"axG",@progbits,_ZNSt23_Sp_counted_ptr_inplaceIN8opendnp310CommandSetESaIS1_ELN9__gnu_cxx12_Lock_policyE2EED5Ev,comdat
	.align 2
	.p2align 4
	.weak	_ZNSt23_Sp_counted_ptr_inplaceIN8opendnp310CommandSetESaIS1_ELN9__gnu_cxx12_Lock_policyE2EED2Ev
	.type	_ZNSt23_Sp_counted_ptr_inplaceIN8opendnp310CommandSetESaIS1_ELN9__gnu_cxx12_Lock_policyE2EED2Ev, @function
_ZNSt23_Sp_counted_ptr_inplaceIN8opendnp310CommandSetESaIS1_ELN9__gnu_cxx12_Lock_policyE2EED2Ev:
.LFB11498:
	.cfi_startproc
	endbr64
	ret
	.cfi_endproc
.LFE11498:
	.size	_ZNSt23_Sp_counted_ptr_inplaceIN8opendnp310CommandSetESaIS1_ELN9__gnu_cxx12_Lock_policyE2EED2Ev, .-_ZNSt23_Sp_counted_ptr_inplaceIN8opendnp310CommandSetESaIS1_ELN9__gnu_cxx12_Lock_policyE2EED2Ev
	.weak	_ZNSt23_Sp_counted_ptr_inplaceIN8opendnp310CommandSetESaIS1_ELN9__gnu_cxx12_Lock_policyE2EED1Ev
	.set	_ZNSt23_Sp_counted_ptr_inplaceIN8opendnp310CommandSetESaIS1_ELN9__gnu_cxx12_Lock_policyE2EED1Ev,_ZNSt23_Sp_counted_ptr_inplaceIN8opendnp310CommandSetESaIS1_ELN9__gnu_cxx12_Lock_policyE2EED2Ev
	.section	.text._ZNSt23_Sp_counted_ptr_inplaceIN8asiodnp318MasterSessionStackESaIS1_ELN9__gnu_cxx12_Lock_policyE2EED2Ev,"axG",@progbits,_ZNSt23_Sp_counted_ptr_inplaceIN8asiodnp318MasterSessionStackESaIS1_ELN9__gnu_cxx12_Lock_policyE2EED5Ev,comdat
	.align 2
	.p2align 4
	.weak	_ZNSt23_Sp_counted_ptr_inplaceIN8asiodnp318MasterSessionStackESaIS1_ELN9__gnu_cxx12_Lock_policyE2EED2Ev
	.type	_ZNSt23_Sp_counted_ptr_inplaceIN8asiodnp318MasterSessionStackESaIS1_ELN9__gnu_cxx12_Lock_policyE2EED2Ev, @function
_ZNSt23_Sp_counted_ptr_inplaceIN8asiodnp318MasterSessionStackESaIS1_ELN9__gnu_cxx12_Lock_policyE2EED2Ev:
.LFB11505:
	.cfi_startproc
	endbr64
	ret
	.cfi_endproc
.LFE11505:
	.size	_ZNSt23_Sp_counted_ptr_inplaceIN8asiodnp318MasterSessionStackESaIS1_ELN9__gnu_cxx12_Lock_policyE2EED2Ev, .-_ZNSt23_Sp_counted_ptr_inplaceIN8asiodnp318MasterSessionStackESaIS1_ELN9__gnu_cxx12_Lock_policyE2EED2Ev
	.weak	_ZNSt23_Sp_counted_ptr_inplaceIN8asiodnp318MasterSessionStackESaIS1_ELN9__gnu_cxx12_Lock_policyE2EED1Ev
	.set	_ZNSt23_Sp_counted_ptr_inplaceIN8asiodnp318MasterSessionStackESaIS1_ELN9__gnu_cxx12_Lock_policyE2EED1Ev,_ZNSt23_Sp_counted_ptr_inplaceIN8asiodnp318MasterSessionStackESaIS1_ELN9__gnu_cxx12_Lock_policyE2EED2Ev
	.section	.text._ZNSt23_Sp_counted_ptr_inplaceINSt13__future_base13_State_baseV2ESaIS1_ELN9__gnu_cxx12_Lock_policyE2EED2Ev,"axG",@progbits,_ZNSt23_Sp_counted_ptr_inplaceINSt13__future_base13_State_baseV2ESaIS1_ELN9__gnu_cxx12_Lock_policyE2EED5Ev,comdat
	.align 2
	.p2align 4
	.weak	_ZNSt23_Sp_counted_ptr_inplaceINSt13__future_base13_State_baseV2ESaIS1_ELN9__gnu_cxx12_Lock_policyE2EED2Ev
	.type	_ZNSt23_Sp_counted_ptr_inplaceINSt13__future_base13_State_baseV2ESaIS1_ELN9__gnu_cxx12_Lock_policyE2EED2Ev, @function
_ZNSt23_Sp_counted_ptr_inplaceINSt13__future_base13_State_baseV2ESaIS1_ELN9__gnu_cxx12_Lock_policyE2EED2Ev:
.LFB11526:
	.cfi_startproc
	endbr64
	ret
	.cfi_endproc
.LFE11526:
	.size	_ZNSt23_Sp_counted_ptr_inplaceINSt13__future_base13_State_baseV2ESaIS1_ELN9__gnu_cxx12_Lock_policyE2EED2Ev, .-_ZNSt23_Sp_counted_ptr_inplaceINSt13__future_base13_State_baseV2ESaIS1_ELN9__gnu_cxx12_Lock_policyE2EED2Ev
	.weak	_ZNSt23_Sp_counted_ptr_inplaceINSt13__future_base13_State_baseV2ESaIS1_ELN9__gnu_cxx12_Lock_policyE2EED1Ev
	.set	_ZNSt23_Sp_counted_ptr_inplaceINSt13__future_base13_State_baseV2ESaIS1_ELN9__gnu_cxx12_Lock_policyE2EED1Ev,_ZNSt23_Sp_counted_ptr_inplaceINSt13__future_base13_State_baseV2ESaIS1_ELN9__gnu_cxx12_Lock_policyE2EED2Ev
	.section	.text._ZNSt23_Sp_counted_ptr_inplaceINSt13__future_base13_State_baseV2ESaIS1_ELN9__gnu_cxx12_Lock_policyE2EE10_M_disposeEv,"axG",@progbits,_ZNSt23_Sp_counted_ptr_inplaceINSt13__future_base13_State_baseV2ESaIS1_ELN9__gnu_cxx12_Lock_policyE2EE10_M_disposeEv,comdat
	.align 2
	.p2align 4
	.weak	_ZNSt23_Sp_counted_ptr_inplaceINSt13__future_base13_State_baseV2ESaIS1_ELN9__gnu_cxx12_Lock_policyE2EE10_M_disposeEv
	.type	_ZNSt23_Sp_counted_ptr_inplaceINSt13__future_base13_State_baseV2ESaIS1_ELN9__gnu_cxx12_Lock_policyE2EE10_M_disposeEv, @function
_ZNSt23_Sp_counted_ptr_inplaceINSt13__future_base13_State_baseV2ESaIS1_ELN9__gnu_cxx12_Lock_policyE2EE10_M_disposeEv:
.LFB11529:
	.cfi_startproc
	endbr64
	movq	16(%rdi), %rax
	leaq	16(%rdi), %r8
	movq	%r8, %rdi
	movq	(%rax), %rax
	jmp	*%rax
	.cfi_endproc
.LFE11529:
	.size	_ZNSt23_Sp_counted_ptr_inplaceINSt13__future_base13_State_baseV2ESaIS1_ELN9__gnu_cxx12_Lock_policyE2EE10_M_disposeEv, .-_ZNSt23_Sp_counted_ptr_inplaceINSt13__future_base13_State_baseV2ESaIS1_ELN9__gnu_cxx12_Lock_policyE2EE10_M_disposeEv
	.section	.text._ZNSt23_Sp_counted_ptr_inplaceIN8asiodnp310MasterScanESaIS1_ELN9__gnu_cxx12_Lock_policyE2EED2Ev,"axG",@progbits,_ZNSt23_Sp_counted_ptr_inplaceIN8asiodnp310MasterScanESaIS1_ELN9__gnu_cxx12_Lock_policyE2EED5Ev,comdat
	.align 2
	.p2align 4
	.weak	_ZNSt23_Sp_counted_ptr_inplaceIN8asiodnp310MasterScanESaIS1_ELN9__gnu_cxx12_Lock_policyE2EED2Ev
	.type	_ZNSt23_Sp_counted_ptr_inplaceIN8asiodnp310MasterScanESaIS1_ELN9__gnu_cxx12_Lock_policyE2EED2Ev, @function
_ZNSt23_Sp_counted_ptr_inplaceIN8asiodnp310MasterScanESaIS1_ELN9__gnu_cxx12_Lock_policyE2EED2Ev:
.LFB11540:
	.cfi_startproc
	endbr64
	ret
	.cfi_endproc
.LFE11540:
	.size	_ZNSt23_Sp_counted_ptr_inplaceIN8asiodnp310MasterScanESaIS1_ELN9__gnu_cxx12_Lock_policyE2EED2Ev, .-_ZNSt23_Sp_counted_ptr_inplaceIN8asiodnp310MasterScanESaIS1_ELN9__gnu_cxx12_Lock_policyE2EED2Ev
	.weak	_ZNSt23_Sp_counted_ptr_inplaceIN8asiodnp310MasterScanESaIS1_ELN9__gnu_cxx12_Lock_policyE2EED1Ev
	.set	_ZNSt23_Sp_counted_ptr_inplaceIN8asiodnp310MasterScanESaIS1_ELN9__gnu_cxx12_Lock_policyE2EED1Ev,_ZNSt23_Sp_counted_ptr_inplaceIN8asiodnp310MasterScanESaIS1_ELN9__gnu_cxx12_Lock_policyE2EED2Ev
	.section	.text._ZNSt23_Sp_counted_ptr_inplaceIN8asiodnp310MasterScanESaIS1_ELN9__gnu_cxx12_Lock_policyE2EE14_M_get_deleterERKSt9type_info,"axG",@progbits,_ZNSt23_Sp_counted_ptr_inplaceIN8asiodnp310MasterScanESaIS1_ELN9__gnu_cxx12_Lock_policyE2EE14_M_get_deleterERKSt9type_info,comdat
	.align 2
	.p2align 4
	.weak	_ZNSt23_Sp_counted_ptr_inplaceIN8asiodnp310MasterScanESaIS1_ELN9__gnu_cxx12_Lock_policyE2EE14_M_get_deleterERKSt9type_info
	.type	_ZNSt23_Sp_counted_ptr_inplaceIN8asiodnp310MasterScanESaIS1_ELN9__gnu_cxx12_Lock_policyE2EE14_M_get_deleterERKSt9type_info, @function
_ZNSt23_Sp_counted_ptr_inplaceIN8asiodnp310MasterScanESaIS1_ELN9__gnu_cxx12_Lock_policyE2EE14_M_get_deleterERKSt9type_info:
.LFB11545:
	.cfi_startproc
	endbr64
	pushq	%r12
	.cfi_def_cfa_offset 16
	.cfi_offset 12, -16
	pushq	%rbx
	.cfi_def_cfa_offset 24
	.cfi_offset 3, -24
	movq	%rdi, %rbx
	subq	$8, %rsp
	.cfi_def_cfa_offset 32
	cmpq	_ZZNSt19_Sp_make_shared_tag5_S_tiEvE5__tag@GOTPCREL(%rip), %rsi
	je	.L47
	movq	8(%rsi), %rdi
	movq	_ZTSSt19_Sp_make_shared_tag@GOTPCREL(%rip), %rsi
	cmpq	%rsi, %rdi
	je	.L47
	xorl	%r12d, %r12d
	cmpb	$42, (%rdi)
	je	.L46
	call	strcmp@PLT
	testl	%eax, %eax
	jne	.L46
.L47:
	leaq	16(%rbx), %r12
.L46:
	addq	$8, %rsp
	.cfi_def_cfa_offset 24
	movq	%r12, %rax
	popq	%rbx
	.cfi_def_cfa_offset 16
	popq	%r12
	.cfi_def_cfa_offset 8
	ret
	.cfi_endproc
.LFE11545:
	.size	_ZNSt23_Sp_counted_ptr_inplaceIN8asiodnp310MasterScanESaIS1_ELN9__gnu_cxx12_Lock_policyE2EE14_M_get_deleterERKSt9type_info, .-_ZNSt23_Sp_counted_ptr_inplaceIN8asiodnp310MasterScanESaIS1_ELN9__gnu_cxx12_Lock_policyE2EE14_M_get_deleterERKSt9type_info
	.section	.text._ZNSt23_Sp_counted_ptr_inplaceINSt13__future_base13_State_baseV2ESaIS1_ELN9__gnu_cxx12_Lock_policyE2EE14_M_get_deleterERKSt9type_info,"axG",@progbits,_ZNSt23_Sp_counted_ptr_inplaceINSt13__future_base13_State_baseV2ESaIS1_ELN9__gnu_cxx12_Lock_policyE2EE14_M_get_deleterERKSt9type_info,comdat
	.align 2
	.p2align 4
	.weak	_ZNSt23_Sp_counted_ptr_inplaceINSt13__future_base13_State_baseV2ESaIS1_ELN9__gnu_cxx12_Lock_policyE2EE14_M_get_deleterERKSt9type_info
	.type	_ZNSt23_Sp_counted_ptr_inplaceINSt13__future_base13_State_baseV2ESaIS1_ELN9__gnu_cxx12_Lock_policyE2EE14_M_get_deleterERKSt9type_info, @function
_ZNSt23_Sp_counted_ptr_inplaceINSt13__future_base13_State_baseV2ESaIS1_ELN9__gnu_cxx12_Lock_policyE2EE14_M_get_deleterERKSt9type_info:
.LFB11531:
	.cfi_startproc
	endbr64
	pushq	%r12
	.cfi_def_cfa_offset 16
	.cfi_offset 12, -16
	pushq	%rbx
	.cfi_def_cfa_offset 24
	.cfi_offset 3, -24
	movq	%rdi, %rbx
	subq	$8, %rsp
	.cfi_def_cfa_offset 32
	cmpq	_ZZNSt19_Sp_make_shared_tag5_S_tiEvE5__tag@GOTPCREL(%rip), %rsi
	je	.L53
	movq	8(%rsi), %rdi
	movq	_ZTSSt19_Sp_make_shared_tag@GOTPCREL(%rip), %rsi
	cmpq	%rsi, %rdi
	je	.L53
	xorl	%r12d, %r12d
	cmpb	$42, (%rdi)
	je	.L52
	call	strcmp@PLT
	testl	%eax, %eax
	jne	.L52
.L53:
	leaq	16(%rbx), %r12
.L52:
	addq	$8, %rsp
	.cfi_def_cfa_offset 24
	movq	%r12, %rax
	popq	%rbx
	.cfi_def_cfa_offset 16
	popq	%r12
	.cfi_def_cfa_offset 8
	ret
	.cfi_endproc
.LFE11531:
	.size	_ZNSt23_Sp_counted_ptr_inplaceINSt13__future_base13_State_baseV2ESaIS1_ELN9__gnu_cxx12_Lock_policyE2EE14_M_get_deleterERKSt9type_info, .-_ZNSt23_Sp_counted_ptr_inplaceINSt13__future_base13_State_baseV2ESaIS1_ELN9__gnu_cxx12_Lock_policyE2EE14_M_get_deleterERKSt9type_info
	.section	.text._ZNSt23_Sp_counted_ptr_inplaceIN8asiodnp318MasterSessionStackESaIS1_ELN9__gnu_cxx12_Lock_policyE2EE14_M_get_deleterERKSt9type_info,"axG",@progbits,_ZNSt23_Sp_counted_ptr_inplaceIN8asiodnp318MasterSessionStackESaIS1_ELN9__gnu_cxx12_Lock_policyE2EE14_M_get_deleterERKSt9type_info,comdat
	.align 2
	.p2align 4
	.weak	_ZNSt23_Sp_counted_ptr_inplaceIN8asiodnp318MasterSessionStackESaIS1_ELN9__gnu_cxx12_Lock_policyE2EE14_M_get_deleterERKSt9type_info
	.type	_ZNSt23_Sp_counted_ptr_inplaceIN8asiodnp318MasterSessionStackESaIS1_ELN9__gnu_cxx12_Lock_policyE2EE14_M_get_deleterERKSt9type_info, @function
_ZNSt23_Sp_counted_ptr_inplaceIN8asiodnp318MasterSessionStackESaIS1_ELN9__gnu_cxx12_Lock_policyE2EE14_M_get_deleterERKSt9type_info:
.LFB11510:
	.cfi_startproc
	endbr64
	pushq	%r12
	.cfi_def_cfa_offset 16
	.cfi_offset 12, -16
	pushq	%rbx
	.cfi_def_cfa_offset 24
	.cfi_offset 3, -24
	movq	%rdi, %rbx
	subq	$8, %rsp
	.cfi_def_cfa_offset 32
	cmpq	_ZZNSt19_Sp_make_shared_tag5_S_tiEvE5__tag@GOTPCREL(%rip), %rsi
	je	.L59
	movq	8(%rsi), %rdi
	movq	_ZTSSt19_Sp_make_shared_tag@GOTPCREL(%rip), %rsi
	cmpq	%rsi, %rdi
	je	.L59
	xorl	%r12d, %r12d
	cmpb	$42, (%rdi)
	je	.L58
	call	strcmp@PLT
	testl	%eax, %eax
	jne	.L58
.L59:
	leaq	16(%rbx), %r12
.L58:
	addq	$8, %rsp
	.cfi_def_cfa_offset 24
	movq	%r12, %rax
	popq	%rbx
	.cfi_def_cfa_offset 16
	popq	%r12
	.cfi_def_cfa_offset 8
	ret
	.cfi_endproc
.LFE11510:
	.size	_ZNSt23_Sp_counted_ptr_inplaceIN8asiodnp318MasterSessionStackESaIS1_ELN9__gnu_cxx12_Lock_policyE2EE14_M_get_deleterERKSt9type_info, .-_ZNSt23_Sp_counted_ptr_inplaceIN8asiodnp318MasterSessionStackESaIS1_ELN9__gnu_cxx12_Lock_policyE2EE14_M_get_deleterERKSt9type_info
	.section	.text._ZNSt23_Sp_counted_ptr_inplaceIN8opendnp310CommandSetESaIS1_ELN9__gnu_cxx12_Lock_policyE2EE14_M_get_deleterERKSt9type_info,"axG",@progbits,_ZNSt23_Sp_counted_ptr_inplaceIN8opendnp310CommandSetESaIS1_ELN9__gnu_cxx12_Lock_policyE2EE14_M_get_deleterERKSt9type_info,comdat
	.align 2
	.p2align 4
	.weak	_ZNSt23_Sp_counted_ptr_inplaceIN8opendnp310CommandSetESaIS1_ELN9__gnu_cxx12_Lock_policyE2EE14_M_get_deleterERKSt9type_info
	.type	_ZNSt23_Sp_counted_ptr_inplaceIN8opendnp310CommandSetESaIS1_ELN9__gnu_cxx12_Lock_policyE2EE14_M_get_deleterERKSt9type_info, @function
_ZNSt23_Sp_counted_ptr_inplaceIN8opendnp310CommandSetESaIS1_ELN9__gnu_cxx12_Lock_policyE2EE14_M_get_deleterERKSt9type_info:
.LFB11503:
	.cfi_startproc
	endbr64
	pushq	%r12
	.cfi_def_cfa_offset 16
	.cfi_offset 12, -16
	pushq	%rbx
	.cfi_def_cfa_offset 24
	.cfi_offset 3, -24
	movq	%rdi, %rbx
	subq	$8, %rsp
	.cfi_def_cfa_offset 32
	cmpq	_ZZNSt19_Sp_make_shared_tag5_S_tiEvE5__tag@GOTPCREL(%rip), %rsi
	je	.L65
	movq	8(%rsi), %rdi
	movq	_ZTSSt19_Sp_make_shared_tag@GOTPCREL(%rip), %rsi
	cmpq	%rsi, %rdi
	je	.L65
	xorl	%r12d, %r12d
	cmpb	$42, (%rdi)
	je	.L64
	call	strcmp@PLT
	testl	%eax, %eax
	jne	.L64
.L65:
	leaq	16(%rbx), %r12
.L64:
	addq	$8, %rsp
	.cfi_def_cfa_offset 24
	movq	%r12, %rax
	popq	%rbx
	.cfi_def_cfa_offset 16
	popq	%r12
	.cfi_def_cfa_offset 8
	ret
	.cfi_endproc
.LFE11503:
	.size	_ZNSt23_Sp_counted_ptr_inplaceIN8opendnp310CommandSetESaIS1_ELN9__gnu_cxx12_Lock_policyE2EE14_M_get_deleterERKSt9type_info, .-_ZNSt23_Sp_counted_ptr_inplaceIN8opendnp310CommandSetESaIS1_ELN9__gnu_cxx12_Lock_policyE2EE14_M_get_deleterERKSt9type_info
	.section	.text._ZNSt13__future_base13_State_baseV2D0Ev,"axG",@progbits,_ZNSt13__future_base13_State_baseV2D5Ev,comdat
	.align 2
	.p2align 4
	.weak	_ZNSt13__future_base13_State_baseV2D0Ev
	.type	_ZNSt13__future_base13_State_baseV2D0Ev, @function
_ZNSt13__future_base13_State_baseV2D0Ev:
.LFB11356:
	.cfi_startproc
	.cfi_personality 0x9b,DW.ref.__gxx_personality_v0
	.cfi_lsda 0x1b,.LLSDA11356
	endbr64
	movq	_ZTVNSt13__future_base13_State_baseV2E@GOTPCREL(%rip), %rax
	pushq	%rbp
	.cfi_def_cfa_offset 16
	.cfi_offset 6, -16
	movq	%rdi, %rbp
	addq	$16, %rax
	movq	%rax, (%rdi)
	movq	8(%rdi), %rdi
	testq	%rdi, %rdi
	je	.L71
	movq	(%rdi), %rax
	call	*(%rax)
.L71:
	movq	%rbp, %rdi
	movl	$32, %esi
	popq	%rbp
	.cfi_def_cfa_offset 8
	jmp	_ZdlPvm@PLT
	.cfi_endproc
.LFE11356:
	.section	.gcc_except_table._ZNSt13__future_base13_State_baseV2D0Ev,"aG",@progbits,_ZNSt13__future_base13_State_baseV2D5Ev,comdat
.LLSDA11356:
	.byte	0xff
	.byte	0xff
	.byte	0x1
	.uleb128 .LLSDACSE11356-.LLSDACSB11356
.LLSDACSB11356:
.LLSDACSE11356:
	.section	.text._ZNSt13__future_base13_State_baseV2D0Ev,"axG",@progbits,_ZNSt13__future_base13_State_baseV2D5Ev,comdat
	.size	_ZNSt13__future_base13_State_baseV2D0Ev, .-_ZNSt13__future_base13_State_baseV2D0Ev
	.section	.text._ZNSt23_Sp_counted_ptr_inplaceIN8asiodnp310MasterScanESaIS1_ELN9__gnu_cxx12_Lock_policyE2EED0Ev,"axG",@progbits,_ZNSt23_Sp_counted_ptr_inplaceIN8asiodnp310MasterScanESaIS1_ELN9__gnu_cxx12_Lock_policyE2EED5Ev,comdat
	.align 2
	.p2align 4
	.weak	_ZNSt23_Sp_counted_ptr_inplaceIN8asiodnp310MasterScanESaIS1_ELN9__gnu_cxx12_Lock_policyE2EED0Ev
	.type	_ZNSt23_Sp_counted_ptr_inplaceIN8asiodnp310MasterScanESaIS1_ELN9__gnu_cxx12_Lock_policyE2EED0Ev, @function
_ZNSt23_Sp_counted_ptr_inplaceIN8asiodnp310MasterScanESaIS1_ELN9__gnu_cxx12_Lock_policyE2EED0Ev:
.LFB11542:
	.cfi_startproc
	endbr64
	movl	$56, %esi
	jmp	_ZdlPvm@PLT
	.cfi_endproc
.LFE11542:
	.size	_ZNSt23_Sp_counted_ptr_inplaceIN8asiodnp310MasterScanESaIS1_ELN9__gnu_cxx12_Lock_policyE2EED0Ev, .-_ZNSt23_Sp_counted_ptr_inplaceIN8asiodnp310MasterScanESaIS1_ELN9__gnu_cxx12_Lock_policyE2EED0Ev
	.section	.text._ZNSt23_Sp_counted_ptr_inplaceINSt13__future_base13_State_baseV2ESaIS1_ELN9__gnu_cxx12_Lock_policyE2EED0Ev,"axG",@progbits,_ZNSt23_Sp_counted_ptr_inplaceINSt13__future_base13_State_baseV2ESaIS1_ELN9__gnu_cxx12_Lock_policyE2EED5Ev,comdat
	.align 2
	.p2align 4
	.weak	_ZNSt23_Sp_counted_ptr_inplaceINSt13__future_base13_State_baseV2ESaIS1_ELN9__gnu_cxx12_Lock_policyE2EED0Ev
	.type	_ZNSt23_Sp_counted_ptr_inplaceINSt13__future_base13_State_baseV2ESaIS1_ELN9__gnu_cxx12_Lock_policyE2EED0Ev, @function
_ZNSt23_Sp_counted_ptr_inplaceINSt13__future_base13_State_baseV2ESaIS1_ELN9__gnu_cxx12_Lock_policyE2EED0Ev:
.LFB11528:
	.cfi_startproc
	endbr64
	movl	$48, %esi
	jmp	_ZdlPvm@PLT
	.cfi_endproc
.LFE11528:
	.size	_ZNSt23_Sp_counted_ptr_inplaceINSt13__future_base13_State_baseV2ESaIS1_ELN9__gnu_cxx12_Lock_policyE2EED0Ev, .-_ZNSt23_Sp_counted_ptr_inplaceINSt13__future_base13_State_baseV2ESaIS1_ELN9__gnu_cxx12_Lock_policyE2EED0Ev
	.section	.text._ZNSt23_Sp_counted_ptr_inplaceIN8asiodnp318MasterSessionStackESaIS1_ELN9__gnu_cxx12_Lock_policyE2EED0Ev,"axG",@progbits,_ZNSt23_Sp_counted_ptr_inplaceIN8asiodnp318MasterSessionStackESaIS1_ELN9__gnu_cxx12_Lock_policyE2EED5Ev,comdat
	.align 2
	.p2align 4
	.weak	_ZNSt23_Sp_counted_ptr_inplaceIN8asiodnp318MasterSessionStackESaIS1_ELN9__gnu_cxx12_Lock_policyE2EED0Ev
	.type	_ZNSt23_Sp_counted_ptr_inplaceIN8asiodnp318MasterSessionStackESaIS1_ELN9__gnu_cxx12_Lock_policyE2EED0Ev, @function
_ZNSt23_Sp_counted_ptr_inplaceIN8asiodnp318MasterSessionStackESaIS1_ELN9__gnu_cxx12_Lock_policyE2EED0Ev:
.LFB11507:
	.cfi_startproc
	endbr64
	movl	$632, %esi
	jmp	_ZdlPvm@PLT
	.cfi_endproc
.LFE11507:
	.size	_ZNSt23_Sp_counted_ptr_inplaceIN8asiodnp318MasterSessionStackESaIS1_ELN9__gnu_cxx12_Lock_policyE2EED0Ev, .-_ZNSt23_Sp_counted_ptr_inplaceIN8asiodnp318MasterSessionStackESaIS1_ELN9__gnu_cxx12_Lock_policyE2EED0Ev
	.section	.text._ZNSt23_Sp_counted_ptr_inplaceIN8opendnp310CommandSetESaIS1_ELN9__gnu_cxx12_Lock_policyE2EED0Ev,"axG",@progbits,_ZNSt23_Sp_counted_ptr_inplaceIN8opendnp310CommandSetESaIS1_ELN9__gnu_cxx12_Lock_policyE2EED5Ev,comdat
	.align 2
	.p2align 4
	.weak	_ZNSt23_Sp_counted_ptr_inplaceIN8opendnp310CommandSetESaIS1_ELN9__gnu_cxx12_Lock_policyE2EED0Ev
	.type	_ZNSt23_Sp_counted_ptr_inplaceIN8opendnp310CommandSetESaIS1_ELN9__gnu_cxx12_Lock_policyE2EED0Ev, @function
_ZNSt23_Sp_counted_ptr_inplaceIN8opendnp310CommandSetESaIS1_ELN9__gnu_cxx12_Lock_policyE2EED0Ev:
.LFB11500:
	.cfi_startproc
	endbr64
	movl	$40, %esi
	jmp	_ZdlPvm@PLT
	.cfi_endproc
.LFE11500:
	.size	_ZNSt23_Sp_counted_ptr_inplaceIN8opendnp310CommandSetESaIS1_ELN9__gnu_cxx12_Lock_policyE2EED0Ev, .-_ZNSt23_Sp_counted_ptr_inplaceIN8opendnp310CommandSetESaIS1_ELN9__gnu_cxx12_Lock_policyE2EED0Ev
	.section	.text._ZN7openpal5ArrayIhjED2Ev,"axG",@progbits,_ZN7openpal5ArrayIhjED5Ev,comdat
	.align 2
	.p2align 4
	.weak	_ZN7openpal5ArrayIhjED2Ev
	.type	_ZN7openpal5ArrayIhjED2Ev, @function
_ZN7openpal5ArrayIhjED2Ev:
.LFB8306:
	.cfi_startproc
	endbr64
	movq	_ZTVN7openpal5ArrayIhjEE@GOTPCREL(%rip), %rax
	addq	$16, %rax
	movq	%rax, (%rdi)
	movq	16(%rdi), %rdi
	testq	%rdi, %rdi
	je	.L80
	jmp	_ZdaPv@PLT
	.p2align 4,,10
	.p2align 3
.L80:
	ret
	.cfi_endproc
.LFE8306:
	.size	_ZN7openpal5ArrayIhjED2Ev, .-_ZN7openpal5ArrayIhjED2Ev
	.weak	_ZN7openpal5ArrayIhjED1Ev
	.set	_ZN7openpal5ArrayIhjED1Ev,_ZN7openpal5ArrayIhjED2Ev
	.section	.text._ZN7openpal5ArrayIhjED0Ev,"axG",@progbits,_ZN7openpal5ArrayIhjED5Ev,comdat
	.align 2
	.p2align 4
	.weak	_ZN7openpal5ArrayIhjED0Ev
	.type	_ZN7openpal5ArrayIhjED0Ev, @function
_ZN7openpal5ArrayIhjED0Ev:
.LFB8308:
	.cfi_startproc
	endbr64
	movq	_ZTVN7openpal5ArrayIhjEE@GOTPCREL(%rip), %rax
	pushq	%rbp
	.cfi_def_cfa_offset 16
	.cfi_offset 6, -16
	movq	%rdi, %rbp
	addq	$16, %rax
	movq	%rax, (%rdi)
	movq	16(%rdi), %rdi
	testq	%rdi, %rdi
	je	.L83
	call	_ZdaPv@PLT
.L83:
	movq	%rbp, %rdi
	movl	$24, %esi
	popq	%rbp
	.cfi_def_cfa_offset 8
	jmp	_ZdlPvm@PLT
	.cfi_endproc
.LFE8308:
	.size	_ZN7openpal5ArrayIhjED0Ev, .-_ZN7openpal5ArrayIhjED0Ev
	.section	.text._ZNSt23_Sp_counted_ptr_inplaceIN8opendnp310CommandSetESaIS1_ELN9__gnu_cxx12_Lock_policyE2EE10_M_destroyEv,"axG",@progbits,_ZNSt23_Sp_counted_ptr_inplaceIN8opendnp310CommandSetESaIS1_ELN9__gnu_cxx12_Lock_policyE2EE10_M_destroyEv,comdat
	.align 2
	.p2align 4
	.weak	_ZNSt23_Sp_counted_ptr_inplaceIN8opendnp310CommandSetESaIS1_ELN9__gnu_cxx12_Lock_policyE2EE10_M_destroyEv
	.type	_ZNSt23_Sp_counted_ptr_inplaceIN8opendnp310CommandSetESaIS1_ELN9__gnu_cxx12_Lock_policyE2EE10_M_destroyEv, @function
_ZNSt23_Sp_counted_ptr_inplaceIN8opendnp310CommandSetESaIS1_ELN9__gnu_cxx12_Lock_policyE2EE10_M_destroyEv:
.LFB11502:
	.cfi_startproc
	endbr64
	jmp	_ZdlPv@PLT
	.cfi_endproc
.LFE11502:
	.size	_ZNSt23_Sp_counted_ptr_inplaceIN8opendnp310CommandSetESaIS1_ELN9__gnu_cxx12_Lock_policyE2EE10_M_destroyEv, .-_ZNSt23_Sp_counted_ptr_inplaceIN8opendnp310CommandSetESaIS1_ELN9__gnu_cxx12_Lock_policyE2EE10_M_destroyEv
	.section	.text._ZNSt23_Sp_counted_ptr_inplaceIN8asiodnp318MasterSessionStackESaIS1_ELN9__gnu_cxx12_Lock_policyE2EE10_M_destroyEv,"axG",@progbits,_ZNSt23_Sp_counted_ptr_inplaceIN8asiodnp318MasterSessionStackESaIS1_ELN9__gnu_cxx12_Lock_policyE2EE10_M_destroyEv,comdat
	.align 2
	.p2align 4
	.weak	_ZNSt23_Sp_counted_ptr_inplaceIN8asiodnp318MasterSessionStackESaIS1_ELN9__gnu_cxx12_Lock_policyE2EE10_M_destroyEv
	.type	_ZNSt23_Sp_counted_ptr_inplaceIN8asiodnp318MasterSessionStackESaIS1_ELN9__gnu_cxx12_Lock_policyE2EE10_M_destroyEv, @function
_ZNSt23_Sp_counted_ptr_inplaceIN8asiodnp318MasterSessionStackESaIS1_ELN9__gnu_cxx12_Lock_policyE2EE10_M_destroyEv:
.LFB11509:
	.cfi_startproc
	endbr64
	jmp	_ZdlPv@PLT
	.cfi_endproc
.LFE11509:
	.size	_ZNSt23_Sp_counted_ptr_inplaceIN8asiodnp318MasterSessionStackESaIS1_ELN9__gnu_cxx12_Lock_policyE2EE10_M_destroyEv, .-_ZNSt23_Sp_counted_ptr_inplaceIN8asiodnp318MasterSessionStackESaIS1_ELN9__gnu_cxx12_Lock_policyE2EE10_M_destroyEv
	.section	.text._ZNSt23_Sp_counted_ptr_inplaceINSt13__future_base13_State_baseV2ESaIS1_ELN9__gnu_cxx12_Lock_policyE2EE10_M_destroyEv,"axG",@progbits,_ZNSt23_Sp_counted_ptr_inplaceINSt13__future_base13_State_baseV2ESaIS1_ELN9__gnu_cxx12_Lock_policyE2EE10_M_destroyEv,comdat
	.align 2
	.p2align 4
	.weak	_ZNSt23_Sp_counted_ptr_inplaceINSt13__future_base13_State_baseV2ESaIS1_ELN9__gnu_cxx12_Lock_policyE2EE10_M_destroyEv
	.type	_ZNSt23_Sp_counted_ptr_inplaceINSt13__future_base13_State_baseV2ESaIS1_ELN9__gnu_cxx12_Lock_policyE2EE10_M_destroyEv, @function
_ZNSt23_Sp_counted_ptr_inplaceINSt13__future_base13_State_baseV2ESaIS1_ELN9__gnu_cxx12_Lock_policyE2EE10_M_destroyEv:
.LFB11530:
	.cfi_startproc
	endbr64
	jmp	_ZdlPv@PLT
	.cfi_endproc
.LFE11530:
	.size	_ZNSt23_Sp_counted_ptr_inplaceINSt13__future_base13_State_baseV2ESaIS1_ELN9__gnu_cxx12_Lock_policyE2EE10_M_destroyEv, .-_ZNSt23_Sp_counted_ptr_inplaceINSt13__future_base13_State_baseV2ESaIS1_ELN9__gnu_cxx12_Lock_policyE2EE10_M_destroyEv
	.section	.text._ZNSt23_Sp_counted_ptr_inplaceIN8asiodnp310MasterScanESaIS1_ELN9__gnu_cxx12_Lock_policyE2EE10_M_destroyEv,"axG",@progbits,_ZNSt23_Sp_counted_ptr_inplaceIN8asiodnp310MasterScanESaIS1_ELN9__gnu_cxx12_Lock_policyE2EE10_M_destroyEv,comdat
	.align 2
	.p2align 4
	.weak	_ZNSt23_Sp_counted_ptr_inplaceIN8asiodnp310MasterScanESaIS1_ELN9__gnu_cxx12_Lock_policyE2EE10_M_destroyEv
	.type	_ZNSt23_Sp_counted_ptr_inplaceIN8asiodnp310MasterScanESaIS1_ELN9__gnu_cxx12_Lock_policyE2EE10_M_destroyEv, @function
_ZNSt23_Sp_counted_ptr_inplaceIN8asiodnp310MasterScanESaIS1_ELN9__gnu_cxx12_Lock_policyE2EE10_M_destroyEv:
.LFB11544:
	.cfi_startproc
	endbr64
	jmp	_ZdlPv@PLT
	.cfi_endproc
.LFE11544:
	.size	_ZNSt23_Sp_counted_ptr_inplaceIN8asiodnp310MasterScanESaIS1_ELN9__gnu_cxx12_Lock_policyE2EE10_M_destroyEv, .-_ZNSt23_Sp_counted_ptr_inplaceIN8asiodnp310MasterScanESaIS1_ELN9__gnu_cxx12_Lock_policyE2EE10_M_destroyEv
	.section	.text._ZNSt23_Sp_counted_ptr_inplaceIN8opendnp310CommandSetESaIS1_ELN9__gnu_cxx12_Lock_policyE2EE10_M_disposeEv,"axG",@progbits,_ZNSt23_Sp_counted_ptr_inplaceIN8opendnp310CommandSetESaIS1_ELN9__gnu_cxx12_Lock_policyE2EE10_M_disposeEv,comdat
	.align 2
	.p2align 4
	.weak	_ZNSt23_Sp_counted_ptr_inplaceIN8opendnp310CommandSetESaIS1_ELN9__gnu_cxx12_Lock_policyE2EE10_M_disposeEv
	.type	_ZNSt23_Sp_counted_ptr_inplaceIN8opendnp310CommandSetESaIS1_ELN9__gnu_cxx12_Lock_policyE2EE10_M_disposeEv, @function
_ZNSt23_Sp_counted_ptr_inplaceIN8opendnp310CommandSetESaIS1_ELN9__gnu_cxx12_Lock_policyE2EE10_M_disposeEv:
.LFB11501:
	.cfi_startproc
	endbr64
	addq	$16, %rdi
	jmp	_ZN8opendnp310CommandSetD1Ev@PLT
	.cfi_endproc
.LFE11501:
	.size	_ZNSt23_Sp_counted_ptr_inplaceIN8opendnp310CommandSetESaIS1_ELN9__gnu_cxx12_Lock_policyE2EE10_M_disposeEv, .-_ZNSt23_Sp_counted_ptr_inplaceIN8opendnp310CommandSetESaIS1_ELN9__gnu_cxx12_Lock_policyE2EE10_M_disposeEv
	.section	.text._ZNSt13__future_base7_ResultIN8opendnp315StackStatisticsEED2Ev,"axG",@progbits,_ZNSt13__future_base7_ResultIN8opendnp315StackStatisticsEED5Ev,comdat
	.align 2
	.p2align 4
	.weak	_ZNSt13__future_base7_ResultIN8opendnp315StackStatisticsEED2Ev
	.type	_ZNSt13__future_base7_ResultIN8opendnp315StackStatisticsEED2Ev, @function
_ZNSt13__future_base7_ResultIN8opendnp315StackStatisticsEED2Ev:
.LFB11567:
	.cfi_startproc
	endbr64
	movq	_ZTVNSt13__future_base7_ResultIN8opendnp315StackStatisticsEEE@GOTPCREL(%rip), %rax
	addq	$16, %rax
	movq	%rax, (%rdi)
	jmp	_ZNSt13__future_base12_Result_baseD2Ev@PLT
	.cfi_endproc
.LFE11567:
	.size	_ZNSt13__future_base7_ResultIN8opendnp315StackStatisticsEED2Ev, .-_ZNSt13__future_base7_ResultIN8opendnp315StackStatisticsEED2Ev
	.weak	_ZNSt13__future_base7_ResultIN8opendnp315StackStatisticsEED1Ev
	.set	_ZNSt13__future_base7_ResultIN8opendnp315StackStatisticsEED1Ev,_ZNSt13__future_base7_ResultIN8opendnp315StackStatisticsEED2Ev
	.section	.text._ZNSt13__future_base7_ResultIN8opendnp315StackStatisticsEED0Ev,"axG",@progbits,_ZNSt13__future_base7_ResultIN8opendnp315StackStatisticsEED5Ev,comdat
	.align 2
	.p2align 4
	.weak	_ZNSt13__future_base7_ResultIN8opendnp315StackStatisticsEED0Ev
	.type	_ZNSt13__future_base7_ResultIN8opendnp315StackStatisticsEED0Ev, @function
_ZNSt13__future_base7_ResultIN8opendnp315StackStatisticsEED0Ev:
.LFB11569:
	.cfi_startproc
	endbr64
	movq	_ZTVNSt13__future_base7_ResultIN8opendnp315StackStatisticsEEE@GOTPCREL(%rip), %rax
	pushq	%rbp
	.cfi_def_cfa_offset 16
	.cfi_offset 6, -16
	movq	%rdi, %rbp
	addq	$16, %rax
	movq	%rax, (%rdi)
	call	_ZNSt13__future_base12_Result_baseD2Ev@PLT
	movq	%rbp, %rdi
	movl	$64, %esi
	popq	%rbp
	.cfi_def_cfa_offset 8
	jmp	_ZdlPvm@PLT
	.cfi_endproc
.LFE11569:
	.size	_ZNSt13__future_base7_ResultIN8opendnp315StackStatisticsEED0Ev, .-_ZNSt13__future_base7_ResultIN8opendnp315StackStatisticsEED0Ev
	.section	.text._ZNSt13__future_base13_State_baseV29_M_do_setEPSt8functionIFSt10unique_ptrINS_12_Result_baseENS3_8_DeleterEEvEEPb,"axG",@progbits,_ZNSt13__future_base13_State_baseV29_M_do_setEPSt8functionIFSt10unique_ptrINS_12_Result_baseENS3_8_DeleterEEvEEPb,comdat
	.align 2
	.p2align 4
	.weak	_ZNSt13__future_base13_State_baseV29_M_do_setEPSt8functionIFSt10unique_ptrINS_12_Result_baseENS3_8_DeleterEEvEEPb
	.type	_ZNSt13__future_base13_State_baseV29_M_do_setEPSt8functionIFSt10unique_ptrINS_12_Result_baseENS3_8_DeleterEEvEEPb, @function
_ZNSt13__future_base13_State_baseV29_M_do_setEPSt8functionIFSt10unique_ptrINS_12_Result_baseENS3_8_DeleterEEvEEPb:
.LFB7393:
	.cfi_startproc
	.cfi_personality 0x9b,DW.ref.__gxx_personality_v0
	.cfi_lsda 0x1b,.LLSDA7393
	endbr64
	pushq	%rbp
	.cfi_def_cfa_offset 16
	.cfi_offset 6, -16
	pushq	%rbx
	.cfi_def_cfa_offset 24
	.cfi_offset 3, -24
	subq	$24, %rsp
	.cfi_def_cfa_offset 48
	movq	%fs:40, %rax
	movq	%rax, 8(%rsp)
	xorl	%eax, %eax
	cmpq	$0, 16(%rsi)
	je	.L104
	movq	%rdi, %rbx
	movq	%rdx, %rbp
	movq	%rsp, %rdi
.LEHB0:
	call	*24(%rsi)
.LEHE0:
	movq	8(%rbx), %rdi
	movq	(%rsp), %rax
	movb	$1, 0(%rbp)
	movq	%rdi, (%rsp)
	movq	%rax, 8(%rbx)
	testq	%rdi, %rdi
	je	.L96
	movq	(%rdi), %rax
	call	*(%rax)
.L96:
	movq	8(%rsp), %rax
	xorq	%fs:40, %rax
	jne	.L105
	addq	$24, %rsp
	.cfi_remember_state
	.cfi_def_cfa_offset 24
	popq	%rbx
	.cfi_def_cfa_offset 16
	popq	%rbp
	.cfi_def_cfa_offset 8
	ret
.L104:
	.cfi_restore_state
.LEHB1:
	call	_ZSt25__throw_bad_function_callv@PLT
.LEHE1:
.L105:
	call	__stack_chk_fail@PLT
	.cfi_endproc
.LFE7393:
	.section	.gcc_except_table._ZNSt13__future_base13_State_baseV29_M_do_setEPSt8functionIFSt10unique_ptrINS_12_Result_baseENS3_8_DeleterEEvEEPb,"aG",@progbits,_ZNSt13__future_base13_State_baseV29_M_do_setEPSt8functionIFSt10unique_ptrINS_12_Result_baseENS3_8_DeleterEEvEEPb,comdat
.LLSDA7393:
	.byte	0xff
	.byte	0xff
	.byte	0x1
	.uleb128 .LLSDACSE7393-.LLSDACSB7393
.LLSDACSB7393:
	.uleb128 .LEHB0-.LFB7393
	.uleb128 .LEHE0-.LEHB0
	.uleb128 0
	.uleb128 0
	.uleb128 .LEHB1-.LFB7393
	.uleb128 .LEHE1-.LEHB1
	.uleb128 0
	.uleb128 0
.LLSDACSE7393:
	.section	.text._ZNSt13__future_base13_State_baseV29_M_do_setEPSt8functionIFSt10unique_ptrINS_12_Result_baseENS3_8_DeleterEEvEEPb,"axG",@progbits,_ZNSt13__future_base13_State_baseV29_M_do_setEPSt8functionIFSt10unique_ptrINS_12_Result_baseENS3_8_DeleterEEvEEPb,comdat
	.size	_ZNSt13__future_base13_State_baseV29_M_do_setEPSt8functionIFSt10unique_ptrINS_12_Result_baseENS3_8_DeleterEEvEEPb, .-_ZNSt13__future_base13_State_baseV29_M_do_setEPSt8functionIFSt10unique_ptrINS_12_Result_baseENS3_8_DeleterEEvEEPb
	.text
	.p2align 4
	.type	_ZNSt17_Function_handlerIFSt10shared_ptrIN8opendnp311IMasterTaskEEvEZN8asiodnp318MasterSessionStack7AddScanEN7openpal12TimeDurationERKSt6vectorINS1_6HeaderESaISA_EERKNS1_10TaskConfigEEUlvE_E9_M_invokeERKSt9_Any_data, @function
_ZNSt17_Function_handlerIFSt10shared_ptrIN8opendnp311IMasterTaskEEvEZN8asiodnp318MasterSessionStack7AddScanEN7openpal12TimeDurationERKSt6vectorINS1_6HeaderESaISA_EERKNS1_10TaskConfigEEUlvE_E9_M_invokeERKSt9_Any_data:
.LFB9526:
	.cfi_startproc
	endbr64
	pushq	%r12
	.cfi_def_cfa_offset 16
	.cfi_offset 12, -16
	movq	%rdi, %r12
	subq	$16, %rsp
	.cfi_def_cfa_offset 32
	movq	(%rsi), %rdx
	movq	%fs:40, %rax
	movq	%rax, 8(%rsp)
	xorl	%eax, %eax
	movq	16(%rdx), %r10
	movq	(%rdx), %rax
	leaq	24(%rdx), %rcx
	movq	56(%rdx), %r8
	movq	64(%rdx), %r9
	leaq	96(%rax), %rsi
	movq	%r10, %rdx
	call	_ZN8opendnp38MContext7AddScanEN7openpal12TimeDurationERKSt8functionIFbRNS_12HeaderWriterEEENS_10TaskConfigE@PLT
	movq	8(%rsp), %rax
	xorq	%fs:40, %rax
	jne	.L109
	addq	$16, %rsp
	.cfi_remember_state
	.cfi_def_cfa_offset 16
	movq	%r12, %rax
	popq	%r12
	.cfi_def_cfa_offset 8
	ret
.L109:
	.cfi_restore_state
	call	__stack_chk_fail@PLT
	.cfi_endproc
.LFE9526:
	.size	_ZNSt17_Function_handlerIFSt10shared_ptrIN8opendnp311IMasterTaskEEvEZN8asiodnp318MasterSessionStack7AddScanEN7openpal12TimeDurationERKSt6vectorINS1_6HeaderESaISA_EERKNS1_10TaskConfigEEUlvE_E9_M_invokeERKSt9_Any_data, .-_ZNSt17_Function_handlerIFSt10shared_ptrIN8opendnp311IMasterTaskEEvEZN8asiodnp318MasterSessionStack7AddScanEN7openpal12TimeDurationERKSt6vectorINS1_6HeaderESaISA_EERKNS1_10TaskConfigEEUlvE_E9_M_invokeERKSt9_Any_data
	.p2align 4
	.type	_ZNSt17_Function_handlerIFSt10shared_ptrIN8opendnp311IMasterTaskEEvEZN8asiodnp318MasterSessionStack17AddAllObjectsScanENS1_16GroupVariationIDEN7openpal12TimeDurationERKNS1_10TaskConfigEEUlvE_E9_M_invokeERKSt9_Any_data, @function
_ZNSt17_Function_handlerIFSt10shared_ptrIN8opendnp311IMasterTaskEEvEZN8asiodnp318MasterSessionStack17AddAllObjectsScanENS1_16GroupVariationIDEN7openpal12TimeDurationERKNS1_10TaskConfigEEUlvE_E9_M_invokeERKSt9_Any_data:
.LFB9555:
	.cfi_startproc
	endbr64
	pushq	%r12
	.cfi_def_cfa_offset 16
	.cfi_offset 12, -16
	movq	%rdi, %r12
	subq	$16, %rsp
	.cfi_def_cfa_offset 32
	movq	(%rsi), %rdx
	movq	%fs:40, %rax
	movq	%rax, 8(%rsp)
	xorl	%eax, %eax
	movzwl	16(%rdx), %r10d
	movq	(%rdx), %rax
	movq	24(%rdx), %rcx
	movq	32(%rdx), %r8
	movq	40(%rdx), %r9
	leaq	96(%rax), %rsi
	movl	%r10d, %edx
	call	_ZN8opendnp38MContext17AddAllObjectsScanENS_16GroupVariationIDEN7openpal12TimeDurationENS_10TaskConfigE@PLT
	movq	8(%rsp), %rax
	xorq	%fs:40, %rax
	jne	.L113
	addq	$16, %rsp
	.cfi_remember_state
	.cfi_def_cfa_offset 16
	movq	%r12, %rax
	popq	%r12
	.cfi_def_cfa_offset 8
	ret
.L113:
	.cfi_restore_state
	call	__stack_chk_fail@PLT
	.cfi_endproc
.LFE9555:
	.size	_ZNSt17_Function_handlerIFSt10shared_ptrIN8opendnp311IMasterTaskEEvEZN8asiodnp318MasterSessionStack17AddAllObjectsScanENS1_16GroupVariationIDEN7openpal12TimeDurationERKNS1_10TaskConfigEEUlvE_E9_M_invokeERKSt9_Any_data, .-_ZNSt17_Function_handlerIFSt10shared_ptrIN8opendnp311IMasterTaskEEvEZN8asiodnp318MasterSessionStack17AddAllObjectsScanENS1_16GroupVariationIDEN7openpal12TimeDurationERKNS1_10TaskConfigEEUlvE_E9_M_invokeERKSt9_Any_data
	.p2align 4
	.type	_ZNSt17_Function_handlerIFSt10shared_ptrIN8opendnp311IMasterTaskEEvEZN8asiodnp318MasterSessionStack12AddClassScanERKNS1_10ClassFieldEN7openpal12TimeDurationERKNS1_10TaskConfigEEUlvE_E9_M_invokeERKSt9_Any_data, @function
_ZNSt17_Function_handlerIFSt10shared_ptrIN8opendnp311IMasterTaskEEvEZN8asiodnp318MasterSessionStack12AddClassScanERKNS1_10ClassFieldEN7openpal12TimeDurationERKNS1_10TaskConfigEEUlvE_E9_M_invokeERKSt9_Any_data:
.LFB9559:
	.cfi_startproc
	endbr64
	pushq	%r12
	.cfi_def_cfa_offset 16
	.cfi_offset 12, -16
	movq	%rdi, %r12
	subq	$16, %rsp
	.cfi_def_cfa_offset 32
	movq	(%rsi), %rdx
	movq	%fs:40, %rax
	movq	%rax, 8(%rsp)
	xorl	%eax, %eax
	movq	(%rdx), %rax
	movq	24(%rdx), %rcx
	leaq	16(%rdx), %r10
	movq	32(%rdx), %r8
	movq	40(%rdx), %r9
	movq	%r10, %rdx
	leaq	96(%rax), %rsi
	call	_ZN8opendnp38MContext12AddClassScanERKNS_10ClassFieldEN7openpal12TimeDurationENS_10TaskConfigE@PLT
	movq	8(%rsp), %rax
	xorq	%fs:40, %rax
	jne	.L117
	addq	$16, %rsp
	.cfi_remember_state
	.cfi_def_cfa_offset 16
	movq	%r12, %rax
	popq	%r12
	.cfi_def_cfa_offset 8
	ret
.L117:
	.cfi_restore_state
	call	__stack_chk_fail@PLT
	.cfi_endproc
.LFE9559:
	.size	_ZNSt17_Function_handlerIFSt10shared_ptrIN8opendnp311IMasterTaskEEvEZN8asiodnp318MasterSessionStack12AddClassScanERKNS1_10ClassFieldEN7openpal12TimeDurationERKNS1_10TaskConfigEEUlvE_E9_M_invokeERKSt9_Any_data, .-_ZNSt17_Function_handlerIFSt10shared_ptrIN8opendnp311IMasterTaskEEvEZN8asiodnp318MasterSessionStack12AddClassScanERKNS1_10ClassFieldEN7openpal12TimeDurationERKNS1_10TaskConfigEEUlvE_E9_M_invokeERKSt9_Any_data
	.p2align 4
	.type	_ZNSt17_Function_handlerIFSt10shared_ptrIN8opendnp311IMasterTaskEEvEZN8asiodnp318MasterSessionStack12AddRangeScanENS1_16GroupVariationIDEttN7openpal12TimeDurationERKNS1_10TaskConfigEEUlvE_E9_M_invokeERKSt9_Any_data, @function
_ZNSt17_Function_handlerIFSt10shared_ptrIN8opendnp311IMasterTaskEEvEZN8asiodnp318MasterSessionStack12AddRangeScanENS1_16GroupVariationIDEttN7openpal12TimeDurationERKNS1_10TaskConfigEEUlvE_E9_M_invokeERKSt9_Any_data:
.LFB9563:
	.cfi_startproc
	endbr64
	pushq	%r12
	.cfi_def_cfa_offset 16
	.cfi_offset 12, -16
	movq	%rdi, %r12
	subq	$16, %rsp
	.cfi_def_cfa_offset 32
	movq	(%rsi), %rdx
	movq	%fs:40, %rax
	movq	%rax, 8(%rsp)
	xorl	%eax, %eax
	movq	24(%rdx), %r9
	movq	(%rdx), %rax
	movzwl	20(%rdx), %r8d
	movzwl	18(%rdx), %ecx
	movzwl	16(%rdx), %r10d
	pushq	40(%rdx)
	.cfi_def_cfa_offset 40
	leaq	96(%rax), %rsi
	pushq	32(%rdx)
	.cfi_def_cfa_offset 48
	movl	%r10d, %edx
	call	_ZN8opendnp38MContext12AddRangeScanENS_16GroupVariationIDEttN7openpal12TimeDurationENS_10TaskConfigE@PLT
	popq	%rax
	.cfi_def_cfa_offset 40
	popq	%rdx
	.cfi_def_cfa_offset 32
	movq	8(%rsp), %rax
	xorq	%fs:40, %rax
	jne	.L121
	addq	$16, %rsp
	.cfi_remember_state
	.cfi_def_cfa_offset 16
	movq	%r12, %rax
	popq	%r12
	.cfi_def_cfa_offset 8
	ret
.L121:
	.cfi_restore_state
	call	__stack_chk_fail@PLT
	.cfi_endproc
.LFE9563:
	.size	_ZNSt17_Function_handlerIFSt10shared_ptrIN8opendnp311IMasterTaskEEvEZN8asiodnp318MasterSessionStack12AddRangeScanENS1_16GroupVariationIDEttN7openpal12TimeDurationERKNS1_10TaskConfigEEUlvE_E9_M_invokeERKSt9_Any_data, .-_ZNSt17_Function_handlerIFSt10shared_ptrIN8opendnp311IMasterTaskEEvEZN8asiodnp318MasterSessionStack12AddRangeScanENS1_16GroupVariationIDEttN7openpal12TimeDurationERKNS1_10TaskConfigEEUlvE_E9_M_invokeERKSt9_Any_data
	.section	.text._ZN4asio6detail15system_categoryD2Ev,"axG",@progbits,_ZN4asio6detail15system_categoryD5Ev,comdat
	.align 2
	.p2align 4
	.weak	_ZN4asio6detail15system_categoryD2Ev
	.type	_ZN4asio6detail15system_categoryD2Ev, @function
_ZN4asio6detail15system_categoryD2Ev:
.LFB11398:
	.cfi_startproc
	endbr64
	movq	_ZTVN4asio6detail15system_categoryE@GOTPCREL(%rip), %rax
	addq	$16, %rax
	movq	%rax, (%rdi)
	jmp	_ZNSt3_V214error_categoryD2Ev@PLT
	.cfi_endproc
.LFE11398:
	.size	_ZN4asio6detail15system_categoryD2Ev, .-_ZN4asio6detail15system_categoryD2Ev
	.weak	_ZN4asio6detail15system_categoryD1Ev
	.set	_ZN4asio6detail15system_categoryD1Ev,_ZN4asio6detail15system_categoryD2Ev
	.section	.text._ZN4asio6detail15system_categoryD0Ev,"axG",@progbits,_ZN4asio6detail15system_categoryD5Ev,comdat
	.align 2
	.p2align 4
	.weak	_ZN4asio6detail15system_categoryD0Ev
	.type	_ZN4asio6detail15system_categoryD0Ev, @function
_ZN4asio6detail15system_categoryD0Ev:
.LFB11400:
	.cfi_startproc
	endbr64
	movq	_ZTVN4asio6detail15system_categoryE@GOTPCREL(%rip), %rax
	pushq	%rbp
	.cfi_def_cfa_offset 16
	.cfi_offset 6, -16
	movq	%rdi, %rbp
	addq	$16, %rax
	movq	%rax, (%rdi)
	call	_ZNSt3_V214error_categoryD2Ev@PLT
	movq	%rbp, %rdi
	movl	$8, %esi
	popq	%rbp
	.cfi_def_cfa_offset 8
	jmp	_ZdlPvm@PLT
	.cfi_endproc
.LFE11400:
	.size	_ZN4asio6detail15system_categoryD0Ev, .-_ZN4asio6detail15system_categoryD0Ev
	.section	.text._ZN4asio5error6detail14netdb_categoryD2Ev,"axG",@progbits,_ZN4asio5error6detail14netdb_categoryD5Ev,comdat
	.align 2
	.p2align 4
	.weak	_ZN4asio5error6detail14netdb_categoryD2Ev
	.type	_ZN4asio5error6detail14netdb_categoryD2Ev, @function
_ZN4asio5error6detail14netdb_categoryD2Ev:
.LFB11386:
	.cfi_startproc
	endbr64
	movq	_ZTVN4asio5error6detail14netdb_categoryE@GOTPCREL(%rip), %rax
	addq	$16, %rax
	movq	%rax, (%rdi)
	jmp	_ZNSt3_V214error_categoryD2Ev@PLT
	.cfi_endproc
.LFE11386:
	.size	_ZN4asio5error6detail14netdb_categoryD2Ev, .-_ZN4asio5error6detail14netdb_categoryD2Ev
	.weak	_ZN4asio5error6detail14netdb_categoryD1Ev
	.set	_ZN4asio5error6detail14netdb_categoryD1Ev,_ZN4asio5error6detail14netdb_categoryD2Ev
	.section	.text._ZN4asio5error6detail14netdb_categoryD0Ev,"axG",@progbits,_ZN4asio5error6detail14netdb_categoryD5Ev,comdat
	.align 2
	.p2align 4
	.weak	_ZN4asio5error6detail14netdb_categoryD0Ev
	.type	_ZN4asio5error6detail14netdb_categoryD0Ev, @function
_ZN4asio5error6detail14netdb_categoryD0Ev:
.LFB11388:
	.cfi_startproc
	endbr64
	movq	_ZTVN4asio5error6detail14netdb_categoryE@GOTPCREL(%rip), %rax
	pushq	%rbp
	.cfi_def_cfa_offset 16
	.cfi_offset 6, -16
	movq	%rdi, %rbp
	addq	$16, %rax
	movq	%rax, (%rdi)
	call	_ZNSt3_V214error_categoryD2Ev@PLT
	movq	%rbp, %rdi
	movl	$8, %esi
	popq	%rbp
	.cfi_def_cfa_offset 8
	jmp	_ZdlPvm@PLT
	.cfi_endproc
.LFE11388:
	.size	_ZN4asio5error6detail14netdb_categoryD0Ev, .-_ZN4asio5error6detail14netdb_categoryD0Ev
	.section	.text._ZN4asio5error6detail17addrinfo_categoryD2Ev,"axG",@progbits,_ZN4asio5error6detail17addrinfo_categoryD5Ev,comdat
	.align 2
	.p2align 4
	.weak	_ZN4asio5error6detail17addrinfo_categoryD2Ev
	.type	_ZN4asio5error6detail17addrinfo_categoryD2Ev, @function
_ZN4asio5error6detail17addrinfo_categoryD2Ev:
.LFB11382:
	.cfi_startproc
	endbr64
	movq	_ZTVN4asio5error6detail17addrinfo_categoryE@GOTPCREL(%rip), %rax
	addq	$16, %rax
	movq	%rax, (%rdi)
	jmp	_ZNSt3_V214error_categoryD2Ev@PLT
	.cfi_endproc
.LFE11382:
	.size	_ZN4asio5error6detail17addrinfo_categoryD2Ev, .-_ZN4asio5error6detail17addrinfo_categoryD2Ev
	.weak	_ZN4asio5error6detail17addrinfo_categoryD1Ev
	.set	_ZN4asio5error6detail17addrinfo_categoryD1Ev,_ZN4asio5error6detail17addrinfo_categoryD2Ev
	.section	.text._ZN4asio5error6detail17addrinfo_categoryD0Ev,"axG",@progbits,_ZN4asio5error6detail17addrinfo_categoryD5Ev,comdat
	.align 2
	.p2align 4
	.weak	_ZN4asio5error6detail17addrinfo_categoryD0Ev
	.type	_ZN4asio5error6detail17addrinfo_categoryD0Ev, @function
_ZN4asio5error6detail17addrinfo_categoryD0Ev:
.LFB11384:
	.cfi_startproc
	endbr64
	movq	_ZTVN4asio5error6detail17addrinfo_categoryE@GOTPCREL(%rip), %rax
	pushq	%rbp
	.cfi_def_cfa_offset 16
	.cfi_offset 6, -16
	movq	%rdi, %rbp
	addq	$16, %rax
	movq	%rax, (%rdi)
	call	_ZNSt3_V214error_categoryD2Ev@PLT
	movq	%rbp, %rdi
	movl	$8, %esi
	popq	%rbp
	.cfi_def_cfa_offset 8
	jmp	_ZdlPvm@PLT
	.cfi_endproc
.LFE11384:
	.size	_ZN4asio5error6detail17addrinfo_categoryD0Ev, .-_ZN4asio5error6detail17addrinfo_categoryD0Ev
	.section	.text._ZN4asio5error6detail13misc_categoryD2Ev,"axG",@progbits,_ZN4asio5error6detail13misc_categoryD5Ev,comdat
	.align 2
	.p2align 4
	.weak	_ZN4asio5error6detail13misc_categoryD2Ev
	.type	_ZN4asio5error6detail13misc_categoryD2Ev, @function
_ZN4asio5error6detail13misc_categoryD2Ev:
.LFB11378:
	.cfi_startproc
	endbr64
	movq	_ZTVN4asio5error6detail13misc_categoryE@GOTPCREL(%rip), %rax
	addq	$16, %rax
	movq	%rax, (%rdi)
	jmp	_ZNSt3_V214error_categoryD2Ev@PLT
	.cfi_endproc
.LFE11378:
	.size	_ZN4asio5error6detail13misc_categoryD2Ev, .-_ZN4asio5error6detail13misc_categoryD2Ev
	.weak	_ZN4asio5error6detail13misc_categoryD1Ev
	.set	_ZN4asio5error6detail13misc_categoryD1Ev,_ZN4asio5error6detail13misc_categoryD2Ev
	.section	.text._ZN4asio5error6detail13misc_categoryD0Ev,"axG",@progbits,_ZN4asio5error6detail13misc_categoryD5Ev,comdat
	.align 2
	.p2align 4
	.weak	_ZN4asio5error6detail13misc_categoryD0Ev
	.type	_ZN4asio5error6detail13misc_categoryD0Ev, @function
_ZN4asio5error6detail13misc_categoryD0Ev:
.LFB11380:
	.cfi_startproc
	endbr64
	movq	_ZTVN4asio5error6detail13misc_categoryE@GOTPCREL(%rip), %rax
	pushq	%rbp
	.cfi_def_cfa_offset 16
	.cfi_offset 6, -16
	movq	%rdi, %rbp
	addq	$16, %rax
	movq	%rax, (%rdi)
	call	_ZNSt3_V214error_categoryD2Ev@PLT
	movq	%rbp, %rdi
	movl	$8, %esi
	popq	%rbp
	.cfi_def_cfa_offset 8
	jmp	_ZdlPvm@PLT
	.cfi_endproc
.LFE11380:
	.size	_ZN4asio5error6detail13misc_categoryD0Ev, .-_ZN4asio5error6detail13misc_categoryD0Ev
	.section	.text._ZNSt13__future_base7_ResultIN8opendnp315StackStatisticsEE10_M_destroyEv,"axG",@progbits,_ZNSt13__future_base7_ResultIN8opendnp315StackStatisticsEE10_M_destroyEv,comdat
	.align 2
	.p2align 4
	.weak	_ZNSt13__future_base7_ResultIN8opendnp315StackStatisticsEE10_M_destroyEv
	.type	_ZNSt13__future_base7_ResultIN8opendnp315StackStatisticsEE10_M_destroyEv, @function
_ZNSt13__future_base7_ResultIN8opendnp315StackStatisticsEE10_M_destroyEv:
.LFB11565:
	.cfi_startproc
	endbr64
	pushq	%rbp
	.cfi_def_cfa_offset 16
	.cfi_offset 6, -16
	movq	(%rdi), %rax
	movq	%rdi, %rbp
	movq	16(%rax), %rax
	cmpq	_ZNSt13__future_base7_ResultIN8opendnp315StackStatisticsEED0Ev@GOTPCREL(%rip), %rax
	jne	.L135
	movq	_ZTVNSt13__future_base7_ResultIN8opendnp315StackStatisticsEEE@GOTPCREL(%rip), %rax
	addq	$16, %rax
	movq	%rax, (%rdi)
	call	_ZNSt13__future_base12_Result_baseD2Ev@PLT
	movq	%rbp, %rdi
	movl	$64, %esi
	popq	%rbp
	.cfi_remember_state
	.cfi_def_cfa_offset 8
	jmp	_ZdlPvm@PLT
	.p2align 4,,10
	.p2align 3
.L135:
	.cfi_restore_state
	popq	%rbp
	.cfi_def_cfa_offset 8
	jmp	*%rax
	.cfi_endproc
.LFE11565:
	.size	_ZNSt13__future_base7_ResultIN8opendnp315StackStatisticsEE10_M_destroyEv, .-_ZNSt13__future_base7_ResultIN8opendnp315StackStatisticsEE10_M_destroyEv
	.section	.text._ZN4asio6detail18completion_handlerIZN7asiopal8Executor10ReturnFromIN8opendnp315StackStatisticsEEET_RKSt8functionIFS7_vEEEUlvE_E11do_completeEPNS0_15task_io_serviceEPNS0_25task_io_service_operationERKSt10error_codem,"axG",@progbits,_ZN4asio6detail18completion_handlerIZN7asiopal8Executor10ReturnFromIN8opendnp315StackStatisticsEEET_RKSt8functionIFS7_vEEEUlvE_E11do_completeEPNS0_15task_io_serviceEPNS0_25task_io_service_operationERKSt10error_codem,comdat
	.p2align 4
	.weak	_ZN4asio6detail18completion_handlerIZN7asiopal8Executor10ReturnFromIN8opendnp315StackStatisticsEEET_RKSt8functionIFS7_vEEEUlvE_E11do_completeEPNS0_15task_io_serviceEPNS0_25task_io_service_operationERKSt10error_codem
	.type	_ZN4asio6detail18completion_handlerIZN7asiopal8Executor10ReturnFromIN8opendnp315StackStatisticsEEET_RKSt8functionIFS7_vEEEUlvE_E11do_completeEPNS0_15task_io_serviceEPNS0_25task_io_service_operationERKSt10error_codem, @function
_ZN4asio6detail18completion_handlerIZN7asiopal8Executor10ReturnFromIN8opendnp315StackStatisticsEEET_RKSt8functionIFS7_vEEEUlvE_E11do_completeEPNS0_15task_io_serviceEPNS0_25task_io_service_operationERKSt10error_codem:
.LFB10662:
	.cfi_startproc
	.cfi_personality 0x9b,DW.ref.__gxx_personality_v0
	.cfi_lsda 0x1b,.LLSDA10662
	endbr64
	pushq	%r13
	.cfi_def_cfa_offset 16
	.cfi_offset 13, -16
	pushq	%r12
	.cfi_def_cfa_offset 24
	.cfi_offset 12, -24
	pushq	%rbp
	.cfi_def_cfa_offset 32
	.cfi_offset 6, -32
	movq	%rsi, %rbp
	pushq	%rbx
	.cfi_def_cfa_offset 40
	.cfi_offset 3, -40
	movq	%rdi, %rbx
	subq	$184, %rsp
	.cfi_def_cfa_offset 224
	movq	24(%rsi), %r13
	movq	32(%rsi), %r12
	movq	%fs:40, %rax
	movq	%rax, 168(%rsp)
	xorl	%eax, %eax
	data16	leaq	_ZN4asio6detail15keyword_tss_ptrINS0_10call_stackINS0_15task_io_serviceENS0_27task_io_service_thread_infoEE7contextEE6value_E@tlsgd(%rip), %rdi
	.value	0x6666
	rex64
	call	__tls_get_addr@PLT
	movq	(%rax), %rax
	testq	%rax, %rax
	je	.L138
	movq	8(%rax), %rax
	testq	%rax, %rax
	je	.L138
	cmpq	$0, (%rax)
	je	.L170
.L138:
	movq	%rbp, %rdi
	call	_ZdlPv@PLT
.L139:
	testq	%rbx, %rbx
	je	.L137
	cmpq	$0, 16(%r12)
	je	.L171
	leaq	80(%rsp), %rbp
	movq	%r12, %rsi
	movq	%rbp, %rdi
.LEHB2:
	call	*24(%r12)
.LEHE2:
	movq	0(%r13), %rbx
	testq	%rbx, %rbx
	je	.L172
	leaq	7(%rsp), %rax
	movq	%rbp, 136(%rsp)
	movq	_ZNSt14_Function_base13_Base_managerINSt13__future_base13_State_baseV27_SetterIN8opendnp315StackStatisticsEOS5_EEE10_M_managerERSt9_Any_dataRKS9_St18_Manager_operation@GOTPCREL(%rip), %xmm0
	leaq	128(%rsp), %rbp
	movq	%rax, 24(%rsp)
	movq	_ZNSt13__future_base13_State_baseV29_M_do_setEPSt8functionIFSt10unique_ptrINS_12_Result_baseENS3_8_DeleterEEvEEPb@GOTPCREL(%rip), %rax
	movhps	_ZNSt17_Function_handlerIFSt10unique_ptrINSt13__future_base12_Result_baseENS2_8_DeleterEEvENS1_13_State_baseV27_SetterIN8opendnp315StackStatisticsEOS9_EEE9_M_invokeERKSt9_Any_data@GOTPCREL(%rip), %xmm0
	movq	%r13, 128(%rsp)
	movq	%rax, 32(%rsp)
	leaq	32(%rsp), %rax
	movaps	%xmm0, 144(%rsp)
	movq	%rax, %xmm0
	leaq	8(%rsp), %rax
	movq	%rax, %xmm1
	leaq	16(%rsp), %rax
	movb	$0, 7(%rsp)
	punpcklqdq	%xmm1, %xmm0
	movq	%rbp, 16(%rsp)
	movaps	%xmm0, 48(%rsp)
	movq	%rax, %xmm0
	leaq	24(%rsp), %rax
	movq	%rax, %xmm2
	movq	%rbx, 8(%rsp)
	movq	$0, 40(%rsp)
	punpcklqdq	%xmm2, %xmm0
	movaps	%xmm0, 64(%rsp)
	data16	leaq	_ZSt15__once_callable@tlsgd(%rip), %rdi
	.value	0x6666
	rex64
	call	__tls_get_addr@PLT
	leaq	48(%rsp), %rdx
	movq	%rdx, (%rax)
	data16	leaq	_ZSt11__once_call@tlsgd(%rip), %rdi
	.value	0x6666
	rex64
	call	__tls_get_addr@PLT
	movq	_ZZSt9call_onceIMNSt13__future_base13_State_baseV2EFvPSt8functionIFSt10unique_ptrINS0_12_Result_baseENS4_8_DeleterEEvEEPbEJPS1_S9_SA_EEvRSt9once_flagOT_DpOT0_ENUlvE0_4_FUNEv@GOTPCREL(%rip), %rdx
	leaq	24(%rbx), %rdi
	cmpq	$0, _ZL28__gthrw___pthread_key_createPjPFvPvE@GOTPCREL(%rip)
	movq	%rdx, (%rax)
	je	.L154
	movq	__once_proxy@GOTPCREL(%rip), %rsi
.LEHB3:
	call	_ZL20__gthrw_pthread_oncePiPFvvE@PLT
	testl	%eax, %eax
	jne	.L143
	cmpb	$0, 7(%rsp)
	jne	.L173
	movl	$2, %edi
	call	_ZSt20__throw_future_errori@PLT
	.p2align 4,,10
	.p2align 3
.L173:
	leaq	16(%rbx), %rdi
	movl	$1, %eax
	xchgl	(%rdi), %eax
	testl	%eax, %eax
	jns	.L149
	call	_ZNSt28__atomic_futex_unsigned_base19_M_futex_notify_allEPj@PLT
.LEHE3:
.L149:
	movq	144(%rsp), %rax
	testq	%rax, %rax
	je	.L148
	movl	$3, %edx
	movq	%rbp, %rsi
	movq	%rbp, %rdi
	call	*%rax
.L148:
	sfence
.L137:
	movq	168(%rsp), %rax
	xorq	%fs:40, %rax
	jne	.L174
	addq	$184, %rsp
	.cfi_remember_state
	.cfi_def_cfa_offset 40
	popq	%rbx
	.cfi_def_cfa_offset 32
	popq	%rbp
	.cfi_def_cfa_offset 24
	popq	%r12
	.cfi_def_cfa_offset 16
	popq	%r13
	.cfi_def_cfa_offset 8
	ret
	.p2align 4,,10
	.p2align 3
.L170:
	.cfi_restore_state
	movzbl	40(%rbp), %edx
	movb	%dl, 0(%rbp)
	movq	%rbp, (%rax)
	jmp	.L139
.L154:
	movl	$-1, %eax
.L143:
	movl	%eax, %edi
.LEHB4:
	call	_ZSt20__throw_system_errori@PLT
.LEHE4:
.L172:
	movl	$3, %edi
.LEHB5:
	call	_ZSt20__throw_future_errori@PLT
.L171:
	call	_ZSt25__throw_bad_function_callv@PLT
.LEHE5:
.L174:
	call	__stack_chk_fail@PLT
.L155:
	endbr64
	movq	%rax, %rdi
	jmp	.L152
.L156:
	endbr64
	movq	%rax, %rbx
.L150:
	movq	144(%rsp), %rax
	testq	%rax, %rax
	je	.L151
	movl	$3, %edx
	movq	%rbp, %rsi
	movq	%rbp, %rdi
	call	*%rax
.L151:
	movq	%rbx, %rdi
.L152:
	sfence
.LEHB6:
	call	_Unwind_Resume@PLT
.LEHE6:
	.cfi_endproc
.LFE10662:
	.section	.gcc_except_table._ZN4asio6detail18completion_handlerIZN7asiopal8Executor10ReturnFromIN8opendnp315StackStatisticsEEET_RKSt8functionIFS7_vEEEUlvE_E11do_completeEPNS0_15task_io_serviceEPNS0_25task_io_service_operationERKSt10error_codem,"aG",@progbits,_ZN4asio6detail18completion_handlerIZN7asiopal8Executor10ReturnFromIN8opendnp315StackStatisticsEEET_RKSt8functionIFS7_vEEEUlvE_E11do_completeEPNS0_15task_io_serviceEPNS0_25task_io_service_operationERKSt10error_codem,comdat
.LLSDA10662:
	.byte	0xff
	.byte	0xff
	.byte	0x1
	.uleb128 .LLSDACSE10662-.LLSDACSB10662
.LLSDACSB10662:
	.uleb128 .LEHB2-.LFB10662
	.uleb128 .LEHE2-.LEHB2
	.uleb128 .L155-.LFB10662
	.uleb128 0
	.uleb128 .LEHB3-.LFB10662
	.uleb128 .LEHE3-.LEHB3
	.uleb128 .L156-.LFB10662
	.uleb128 0
	.uleb128 .LEHB4-.LFB10662
	.uleb128 .LEHE4-.LEHB4
	.uleb128 .L156-.LFB10662
	.uleb128 0
	.uleb128 .LEHB5-.LFB10662
	.uleb128 .LEHE5-.LEHB5
	.uleb128 .L155-.LFB10662
	.uleb128 0
	.uleb128 .LEHB6-.LFB10662
	.uleb128 .LEHE6-.LEHB6
	.uleb128 0
	.uleb128 0
.LLSDACSE10662:
	.section	.text._ZN4asio6detail18completion_handlerIZN7asiopal8Executor10ReturnFromIN8opendnp315StackStatisticsEEET_RKSt8functionIFS7_vEEEUlvE_E11do_completeEPNS0_15task_io_serviceEPNS0_25task_io_service_operationERKSt10error_codem,"axG",@progbits,_ZN4asio6detail18completion_handlerIZN7asiopal8Executor10ReturnFromIN8opendnp315StackStatisticsEEET_RKSt8functionIFS7_vEEEUlvE_E11do_completeEPNS0_15task_io_serviceEPNS0_25task_io_service_operationERKSt10error_codem,comdat
	.size	_ZN4asio6detail18completion_handlerIZN7asiopal8Executor10ReturnFromIN8opendnp315StackStatisticsEEET_RKSt8functionIFS7_vEEEUlvE_E11do_completeEPNS0_15task_io_serviceEPNS0_25task_io_service_operationERKSt10error_codem, .-_ZN4asio6detail18completion_handlerIZN7asiopal8Executor10ReturnFromIN8opendnp315StackStatisticsEEET_RKSt8functionIFS7_vEEEUlvE_E11do_completeEPNS0_15task_io_serviceEPNS0_25task_io_service_operationERKSt10error_codem
	.section	.text.unlikely,"ax",@progbits
.LCOLDB4:
	.text
.LHOTB4:
	.p2align 4
	.type	_ZN4asio6detail18completion_handlerIZN8asiodnp318MasterSessionStack13SetLogFiltersERKN7openpal10LogFiltersEEUlvE_E11do_completeEPNS0_15task_io_serviceEPNS0_25task_io_service_operationERKSt10error_codem, @function
_ZN4asio6detail18completion_handlerIZN8asiodnp318MasterSessionStack13SetLogFiltersERKN7openpal10LogFiltersEEUlvE_E11do_completeEPNS0_15task_io_serviceEPNS0_25task_io_service_operationERKSt10error_codem:
.LFB10387:
	.cfi_startproc
	.cfi_personality 0x9b,DW.ref.__gxx_personality_v0
	.cfi_lsda 0x1b,.LLSDA10387
	endbr64
	pushq	%r13
	.cfi_def_cfa_offset 16
	.cfi_offset 13, -16
	pushq	%r12
	.cfi_def_cfa_offset 24
	.cfi_offset 12, -24
	pushq	%rbp
	.cfi_def_cfa_offset 32
	.cfi_offset 6, -32
	movq	%rsi, %rbp
	pushq	%rbx
	.cfi_def_cfa_offset 40
	.cfi_offset 3, -40
	movq	%rdi, %rbx
	subq	$8, %rsp
	.cfi_def_cfa_offset 48
	movq	32(%rsi), %r12
	movq	24(%rsi), %r13
	data16	leaq	_ZN4asio6detail15keyword_tss_ptrINS0_10call_stackINS0_15task_io_serviceENS0_27task_io_service_thread_infoEE7contextEE6value_E@tlsgd(%rip), %rdi
	.value	0x6666
	rex64
	call	__tls_get_addr@PLT
	movq	(%rax), %rax
	testq	%rax, %rax
	je	.L176
	movq	8(%rax), %rax
	testq	%rax, %rax
	je	.L176
	cmpq	$0, (%rax)
	je	.L192
.L176:
	movq	%rbp, %rdi
	call	_ZdlPv@PLT
.L177:
	testq	%rbx, %rbx
	je	.L181
	movq	48(%r13), %rdi
	movl	%r12d, %esi
.LEHB7:
	call	_ZN8asiodnp311LinkSession13SetLogFiltersEN7openpal10LogFiltersE@PLT
.LEHE7:
	sfence
.L181:
	addq	$8, %rsp
	.cfi_remember_state
	.cfi_def_cfa_offset 40
	popq	%rbx
	.cfi_def_cfa_offset 32
	popq	%rbp
	.cfi_def_cfa_offset 24
	popq	%r12
	.cfi_def_cfa_offset 16
	popq	%r13
	.cfi_def_cfa_offset 8
	ret
	.p2align 4,,10
	.p2align 3
.L192:
	.cfi_restore_state
	movzbl	40(%rbp), %edx
	movb	%dl, 0(%rbp)
	movq	%rbp, (%rax)
	jmp	.L177
.L180:
	endbr64
	movq	%rax, %rdi
	jmp	.L179
	.section	.gcc_except_table,"a",@progbits
.LLSDA10387:
	.byte	0xff
	.byte	0xff
	.byte	0x1
	.uleb128 .LLSDACSE10387-.LLSDACSB10387
.LLSDACSB10387:
	.uleb128 .LEHB7-.LFB10387
	.uleb128 .LEHE7-.LEHB7
	.uleb128 .L180-.LFB10387
	.uleb128 0
.LLSDACSE10387:
	.text
	.cfi_endproc
	.section	.text.unlikely
	.cfi_startproc
	.cfi_personality 0x9b,DW.ref.__gxx_personality_v0
	.cfi_lsda 0x1b,.LLSDAC10387
	.type	_ZN4asio6detail18completion_handlerIZN8asiodnp318MasterSessionStack13SetLogFiltersERKN7openpal10LogFiltersEEUlvE_E11do_completeEPNS0_15task_io_serviceEPNS0_25task_io_service_operationERKSt10error_codem.cold, @function
_ZN4asio6detail18completion_handlerIZN8asiodnp318MasterSessionStack13SetLogFiltersERKN7openpal10LogFiltersEEUlvE_E11do_completeEPNS0_15task_io_serviceEPNS0_25task_io_service_operationERKSt10error_codem.cold:
.LFSB10387:
.L179:
	.cfi_def_cfa_offset 48
	.cfi_offset 3, -40
	.cfi_offset 6, -32
	.cfi_offset 12, -24
	.cfi_offset 13, -16
	sfence
.LEHB8:
	call	_Unwind_Resume@PLT
.LEHE8:
	.cfi_endproc
.LFE10387:
	.section	.gcc_except_table
.LLSDAC10387:
	.byte	0xff
	.byte	0xff
	.byte	0x1
	.uleb128 .LLSDACSEC10387-.LLSDACSBC10387
.LLSDACSBC10387:
	.uleb128 .LEHB8-.LCOLDB4
	.uleb128 .LEHE8-.LEHB8
	.uleb128 0
	.uleb128 0
.LLSDACSEC10387:
	.section	.text.unlikely
	.text
	.size	_ZN4asio6detail18completion_handlerIZN8asiodnp318MasterSessionStack13SetLogFiltersERKN7openpal10LogFiltersEEUlvE_E11do_completeEPNS0_15task_io_serviceEPNS0_25task_io_service_operationERKSt10error_codem, .-_ZN4asio6detail18completion_handlerIZN8asiodnp318MasterSessionStack13SetLogFiltersERKN7openpal10LogFiltersEEUlvE_E11do_completeEPNS0_15task_io_serviceEPNS0_25task_io_service_operationERKSt10error_codem
	.section	.text.unlikely
	.size	_ZN4asio6detail18completion_handlerIZN8asiodnp318MasterSessionStack13SetLogFiltersERKN7openpal10LogFiltersEEUlvE_E11do_completeEPNS0_15task_io_serviceEPNS0_25task_io_service_operationERKSt10error_codem.cold, .-_ZN4asio6detail18completion_handlerIZN8asiodnp318MasterSessionStack13SetLogFiltersERKN7openpal10LogFiltersEEUlvE_E11do_completeEPNS0_15task_io_serviceEPNS0_25task_io_service_operationERKSt10error_codem.cold
.LCOLDE4:
	.text
.LHOTE4:
	.section	.text._ZNSt23_Sp_counted_ptr_inplaceIN8asiodnp310MasterScanESaIS1_ELN9__gnu_cxx12_Lock_policyE2EE10_M_disposeEv,"axG",@progbits,_ZNSt23_Sp_counted_ptr_inplaceIN8asiodnp310MasterScanESaIS1_ELN9__gnu_cxx12_Lock_policyE2EE10_M_disposeEv,comdat
	.align 2
	.p2align 4
	.weak	_ZNSt23_Sp_counted_ptr_inplaceIN8asiodnp310MasterScanESaIS1_ELN9__gnu_cxx12_Lock_policyE2EE10_M_disposeEv
	.type	_ZNSt23_Sp_counted_ptr_inplaceIN8asiodnp310MasterScanESaIS1_ELN9__gnu_cxx12_Lock_policyE2EE10_M_disposeEv, @function
_ZNSt23_Sp_counted_ptr_inplaceIN8asiodnp310MasterScanESaIS1_ELN9__gnu_cxx12_Lock_policyE2EE10_M_disposeEv:
.LFB11543:
	.cfi_startproc
	endbr64
	movq	_ZTVN8asiodnp310MasterScanE@GOTPCREL(%rip), %rax
	pushq	%r12
	.cfi_def_cfa_offset 16
	.cfi_offset 12, -16
	pushq	%rbp
	.cfi_def_cfa_offset 24
	.cfi_offset 6, -24
	pushq	%rbx
	.cfi_def_cfa_offset 32
	.cfi_offset 3, -32
	movq	48(%rdi), %rbp
	addq	$16, %rax
	movq	%rdi, %rbx
	movq	%rax, 16(%rdi)
	testq	%rbp, %rbp
	je	.L195
	movq	_ZL28__gthrw___pthread_key_createPjPFvPvE@GOTPCREL(%rip), %r12
	testq	%r12, %r12
	je	.L196
	movl	$-1, %eax
	lock xaddl	%eax, 8(%rbp)
	cmpl	$1, %eax
	je	.L209
	.p2align 4,,10
	.p2align 3
.L195:
	movq	32(%rbx), %rbp
	testq	%rbp, %rbp
	je	.L193
	movq	_ZL28__gthrw___pthread_key_createPjPFvPvE@GOTPCREL(%rip), %r12
	testq	%r12, %r12
	je	.L203
	movl	$-1, %eax
	lock xaddl	%eax, 8(%rbp)
	cmpl	$1, %eax
	je	.L210
.L193:
	popq	%rbx
	.cfi_remember_state
	.cfi_def_cfa_offset 24
	popq	%rbp
	.cfi_def_cfa_offset 16
	popq	%r12
	.cfi_def_cfa_offset 8
	ret
	.p2align 4,,10
	.p2align 3
.L196:
	.cfi_restore_state
	movl	8(%rbp), %eax
	leal	-1(%rax), %edx
	movl	%edx, 8(%rbp)
	cmpl	$1, %eax
	jne	.L195
.L209:
	movq	0(%rbp), %rax
	movq	%rbp, %rdi
	call	*16(%rax)
	testq	%r12, %r12
	je	.L199
	movl	$-1, %eax
	lock xaddl	%eax, 12(%rbp)
.L200:
	cmpl	$1, %eax
	jne	.L195
	movq	0(%rbp), %rax
	movq	%rbp, %rdi
	call	*24(%rax)
	jmp	.L195
	.p2align 4,,10
	.p2align 3
.L203:
	movl	8(%rbp), %eax
	leal	-1(%rax), %edx
	movl	%edx, 8(%rbp)
	cmpl	$1, %eax
	jne	.L193
.L210:
	movq	0(%rbp), %rax
	movq	%rbp, %rdi
	call	*16(%rax)
	testq	%r12, %r12
	je	.L206
	movl	$-1, %eax
	lock xaddl	%eax, 12(%rbp)
.L207:
	cmpl	$1, %eax
	jne	.L193
	movq	0(%rbp), %rax
	popq	%rbx
	.cfi_remember_state
	.cfi_def_cfa_offset 24
	movq	%rbp, %rdi
	popq	%rbp
	.cfi_def_cfa_offset 16
	popq	%r12
	.cfi_def_cfa_offset 8
	movq	24(%rax), %rax
	jmp	*%rax
	.p2align 4,,10
	.p2align 3
.L199:
	.cfi_restore_state
	movl	12(%rbp), %eax
	leal	-1(%rax), %edx
	movl	%edx, 12(%rbp)
	jmp	.L200
	.p2align 4,,10
	.p2align 3
.L206:
	movl	12(%rbp), %eax
	leal	-1(%rax), %edx
	movl	%edx, 12(%rbp)
	jmp	.L207
	.cfi_endproc
.LFE11543:
	.size	_ZNSt23_Sp_counted_ptr_inplaceIN8asiodnp310MasterScanESaIS1_ELN9__gnu_cxx12_Lock_policyE2EE10_M_disposeEv, .-_ZNSt23_Sp_counted_ptr_inplaceIN8asiodnp310MasterScanESaIS1_ELN9__gnu_cxx12_Lock_policyE2EE10_M_disposeEv
	.section	.rodata._ZNK4asio6detail15system_category7messageB5cxx11Ei.str1.8,"aMS",@progbits,1
	.align 8
.LC5:
	.string	"basic_string::_M_construct null not valid"
	.section	.text._ZNK4asio6detail15system_category7messageB5cxx11Ei,"axG",@progbits,_ZNK4asio6detail15system_category7messageB5cxx11Ei,comdat
	.align 2
	.p2align 4
	.weak	_ZNK4asio6detail15system_category7messageB5cxx11Ei
	.type	_ZNK4asio6detail15system_category7messageB5cxx11Ei, @function
_ZNK4asio6detail15system_category7messageB5cxx11Ei:
.LFB3413:
	.cfi_startproc
	endbr64
	pushq	%r14
	.cfi_def_cfa_offset 16
	.cfi_offset 14, -16
	pushq	%r13
	.cfi_def_cfa_offset 24
	.cfi_offset 13, -24
	pushq	%r12
	.cfi_def_cfa_offset 32
	.cfi_offset 12, -32
	movq	%rdi, %r12
	pushq	%rbp
	.cfi_def_cfa_offset 40
	.cfi_offset 6, -40
	leaq	16(%rdi), %rbp
	subq	$296, %rsp
	.cfi_def_cfa_offset 336
	movq	%fs:40, %rax
	movq	%rax, 280(%rsp)
	xorl	%eax, %eax
	cmpl	$125, %edx
	je	.L224
	pxor	%xmm0, %xmm0
	movl	%edx, %edi
	leaq	16(%rsp), %rsi
	movl	$256, %edx
	movaps	%xmm0, 16(%rsp)
	movaps	%xmm0, 32(%rsp)
	movaps	%xmm0, 48(%rsp)
	movaps	%xmm0, 64(%rsp)
	movaps	%xmm0, 80(%rsp)
	movaps	%xmm0, 96(%rsp)
	movaps	%xmm0, 112(%rsp)
	movaps	%xmm0, 128(%rsp)
	movaps	%xmm0, 144(%rsp)
	movaps	%xmm0, 160(%rsp)
	movaps	%xmm0, 176(%rsp)
	movaps	%xmm0, 192(%rsp)
	movaps	%xmm0, 208(%rsp)
	movaps	%xmm0, 224(%rsp)
	movaps	%xmm0, 240(%rsp)
	movaps	%xmm0, 256(%rsp)
	call	strerror_r@PLT
	movq	%rbp, (%r12)
	movq	%rax, %r14
	testq	%rax, %rax
	je	.L225
	movq	%rax, %rdi
	call	strlen@PLT
	movq	%rax, 8(%rsp)
	movq	%rax, %r13
	cmpq	$15, %rax
	ja	.L226
	cmpq	$1, %rax
	jne	.L217
	movzbl	(%r14), %edx
	movb	%dl, 16(%r12)
.L218:
	movq	%rax, 8(%r12)
	movb	$0, 0(%rbp,%rax)
.L211:
	movq	280(%rsp), %rax
	xorq	%fs:40, %rax
	jne	.L227
	addq	$296, %rsp
	.cfi_remember_state
	.cfi_def_cfa_offset 40
	movq	%r12, %rax
	popq	%rbp
	.cfi_def_cfa_offset 32
	popq	%r12
	.cfi_def_cfa_offset 24
	popq	%r13
	.cfi_def_cfa_offset 16
	popq	%r14
	.cfi_def_cfa_offset 8
	ret
	.p2align 4,,10
	.p2align 3
.L226:
	.cfi_restore_state
	leaq	8(%rsp), %rsi
	xorl	%edx, %edx
	movq	%r12, %rdi
	call	_ZNSt7__cxx1112basic_stringIcSt11char_traitsIcESaIcEE9_M_createERmm@PLT
	movq	%rax, (%r12)
	movq	%rax, %rbp
	movq	8(%rsp), %rax
	movq	%rax, 16(%r12)
.L216:
	movq	%rbp, %rdi
	movq	%r13, %rdx
	movq	%r14, %rsi
	call	memcpy@PLT
	movq	8(%rsp), %rax
	movq	(%r12), %rbp
	jmp	.L218
	.p2align 4,,10
	.p2align 3
.L224:
	movq	%rbp, (%rdi)
	xorl	%edx, %edx
	leaq	8(%rsp), %rsi
	movq	$18, 8(%rsp)
	call	_ZNSt7__cxx1112basic_stringIcSt11char_traitsIcESaIcEE9_M_createERmm@PLT
	movq	8(%rsp), %rdx
	movdqa	.LC6(%rip), %xmm0
	movq	%rax, (%r12)
	movq	%rdx, 16(%r12)
	movl	$11876, %edx
	movw	%dx, 16(%rax)
	movups	%xmm0, (%rax)
	movq	8(%rsp), %rax
	movq	(%r12), %rdx
	movq	%rax, 8(%r12)
	movb	$0, (%rdx,%rax)
	jmp	.L211
	.p2align 4,,10
	.p2align 3
.L217:
	testq	%rax, %rax
	je	.L218
	jmp	.L216
	.p2align 4,,10
	.p2align 3
.L225:
	leaq	.LC5(%rip), %rdi
	call	_ZSt19__throw_logic_errorPKc@PLT
.L227:
	call	__stack_chk_fail@PLT
	.cfi_endproc
.LFE3413:
	.size	_ZNK4asio6detail15system_category7messageB5cxx11Ei, .-_ZNK4asio6detail15system_category7messageB5cxx11Ei
	.section	.text.unlikely
	.align 2
	.type	_ZZN8asiodnp318MasterSessionStack6DemandERKSt10shared_ptrIN8opendnp311IMasterTaskEEENUlvE_D2Ev, @function
_ZZN8asiodnp318MasterSessionStack6DemandERKSt10shared_ptrIN8opendnp311IMasterTaskEEENUlvE_D2Ev:
.LFB7856:
	.cfi_startproc
	pushq	%r12
	.cfi_def_cfa_offset 16
	.cfi_offset 12, -16
	pushq	%rbp
	.cfi_def_cfa_offset 24
	.cfi_offset 6, -24
	pushq	%rbx
	.cfi_def_cfa_offset 32
	.cfi_offset 3, -32
	movq	24(%rdi), %rbp
	movq	%rdi, %rbx
	testq	%rbp, %rbp
	je	.L230
	movq	_ZL28__gthrw___pthread_key_createPjPFvPvE@GOTPCREL(%rip), %r12
	testq	%r12, %r12
	je	.L231
	orl	$-1, %eax
	lock xaddl	%eax, 8(%rbp)
	jmp	.L232
.L231:
	movl	8(%rbp), %eax
	leal	-1(%rax), %edx
	movl	%edx, 8(%rbp)
.L232:
	decl	%eax
	jne	.L230
	movq	0(%rbp), %rax
	movq	%rbp, %rdi
	call	*16(%rax)
	testq	%r12, %r12
	je	.L234
	orl	$-1, %eax
	lock xaddl	%eax, 12(%rbp)
	jmp	.L235
.L234:
	movl	12(%rbp), %eax
	leal	-1(%rax), %edx
	movl	%edx, 12(%rbp)
.L235:
	decl	%eax
	jne	.L230
	movq	0(%rbp), %rax
	movq	%rbp, %rdi
	call	*24(%rax)
.L230:
	movq	8(%rbx), %rbp
	testq	%rbp, %rbp
	je	.L228
	movq	_ZL28__gthrw___pthread_key_createPjPFvPvE@GOTPCREL(%rip), %rbx
	testq	%rbx, %rbx
	je	.L238
	orl	$-1, %eax
	lock xaddl	%eax, 8(%rbp)
	jmp	.L239
.L238:
	movl	8(%rbp), %eax
	leal	-1(%rax), %edx
	movl	%edx, 8(%rbp)
.L239:
	decl	%eax
	jne	.L228
	movq	0(%rbp), %rax
	movq	%rbp, %rdi
	call	*16(%rax)
	testq	%rbx, %rbx
	je	.L241
	orl	$-1, %eax
	lock xaddl	%eax, 12(%rbp)
	jmp	.L242
.L241:
	movl	12(%rbp), %eax
	leal	-1(%rax), %edx
	movl	%edx, 12(%rbp)
.L242:
	decl	%eax
	jne	.L228
	movq	0(%rbp), %rax
	popq	%rbx
	.cfi_remember_state
	.cfi_def_cfa_offset 24
	movq	%rbp, %rdi
	popq	%rbp
	.cfi_def_cfa_offset 16
	popq	%r12
	.cfi_def_cfa_offset 8
	movq	24(%rax), %rax
	jmp	*%rax
.L228:
	.cfi_restore_state
	popq	%rbx
	.cfi_def_cfa_offset 24
	popq	%rbp
	.cfi_def_cfa_offset 16
	popq	%r12
	.cfi_def_cfa_offset 8
	ret
	.cfi_endproc
.LFE7856:
	.size	_ZZN8asiodnp318MasterSessionStack6DemandERKSt10shared_ptrIN8opendnp311IMasterTaskEEENUlvE_D2Ev, .-_ZZN8asiodnp318MasterSessionStack6DemandERKSt10shared_ptrIN8opendnp311IMasterTaskEEENUlvE_D2Ev
	.set	_ZZN8asiodnp318MasterSessionStack6DemandERKSt10shared_ptrIN8opendnp311IMasterTaskEEENUlvE_D1Ev,_ZZN8asiodnp318MasterSessionStack6DemandERKSt10shared_ptrIN8opendnp311IMasterTaskEEENUlvE_D2Ev
	.section	.text._ZNK4asio5error6detail17addrinfo_category7messageB5cxx11Ei,"axG",@progbits,_ZNK4asio5error6detail17addrinfo_category7messageB5cxx11Ei,comdat
	.align 2
	.p2align 4
	.weak	_ZNK4asio5error6detail17addrinfo_category7messageB5cxx11Ei
	.type	_ZNK4asio5error6detail17addrinfo_category7messageB5cxx11Ei, @function
_ZNK4asio5error6detail17addrinfo_category7messageB5cxx11Ei:
.LFB3459:
	.cfi_startproc
	endbr64
	pushq	%r12
	.cfi_def_cfa_offset 16
	.cfi_offset 12, -16
	movq	%rdi, %r12
	subq	$16, %rsp
	.cfi_def_cfa_offset 32
	movq	%fs:40, %rax
	movq	%rax, 8(%rsp)
	xorl	%eax, %eax
	leaq	16(%rdi), %rax
	movq	%rax, (%rdi)
	cmpl	$-8, %edx
	je	.L250
	cmpl	$-7, %edx
	je	.L251
	xorl	%edx, %edx
	movq	%rsp, %rsi
	movq	$19, (%rsp)
	call	_ZNSt7__cxx1112basic_stringIcSt11char_traitsIcESaIcEE9_M_createERmm@PLT
	movq	(%rsp), %rdx
	movdqa	.LC9(%rip), %xmm0
	movq	%rax, (%r12)
	movq	%rdx, 16(%r12)
	movl	$28530, %edx
	movw	%dx, 16(%rax)
	movb	$114, 18(%rax)
	movups	%xmm0, (%rax)
	movq	(%rsp), %rax
	movq	(%r12), %rdx
	movq	%rax, 8(%r12)
	movb	$0, (%rdx,%rax)
.L244:
	movq	8(%rsp), %rax
	xorq	%fs:40, %rax
	jne	.L252
	addq	$16, %rsp
	.cfi_remember_state
	.cfi_def_cfa_offset 16
	movq	%r12, %rax
	popq	%r12
	.cfi_def_cfa_offset 8
	ret
	.p2align 4,,10
	.p2align 3
.L251:
	.cfi_restore_state
	xorl	%edx, %edx
	movq	%rsp, %rsi
	movq	$25, (%rsp)
	call	_ZNSt7__cxx1112basic_stringIcSt11char_traitsIcESaIcEE9_M_createERmm@PLT
	movq	(%rsp), %rdx
	movdqa	.LC8(%rip), %xmm0
	movabsq	$7310593918082512243, %rcx
	movq	%rax, (%r12)
	movq	%rdx, 16(%r12)
	movq	%rcx, 16(%rax)
	movb	$100, 24(%rax)
	movups	%xmm0, (%rax)
	movq	(%rsp), %rax
	movq	(%r12), %rdx
	movq	%rax, 8(%r12)
	movb	$0, (%rdx,%rax)
	jmp	.L244
	.p2align 4,,10
	.p2align 3
.L250:
	xorl	%edx, %edx
	movq	%rsp, %rsi
	movq	$17, (%rsp)
	call	_ZNSt7__cxx1112basic_stringIcSt11char_traitsIcESaIcEE9_M_createERmm@PLT
	movq	(%rsp), %rdx
	movdqa	.LC7(%rip), %xmm0
	movq	%rax, (%r12)
	movq	%rdx, 16(%r12)
	movb	$100, 16(%rax)
	movups	%xmm0, (%rax)
	movq	(%rsp), %rax
	movq	(%r12), %rdx
	movq	%rax, 8(%r12)
	movb	$0, (%rdx,%rax)
	jmp	.L244
.L252:
	call	__stack_chk_fail@PLT
	.cfi_endproc
.LFE3459:
	.size	_ZNK4asio5error6detail17addrinfo_category7messageB5cxx11Ei, .-_ZNK4asio5error6detail17addrinfo_category7messageB5cxx11Ei
	.section	.text._ZNK4asio5error6detail14netdb_category7messageB5cxx11Ei,"axG",@progbits,_ZNK4asio5error6detail14netdb_category7messageB5cxx11Ei,comdat
	.align 2
	.p2align 4
	.weak	_ZNK4asio5error6detail14netdb_category7messageB5cxx11Ei
	.type	_ZNK4asio5error6detail14netdb_category7messageB5cxx11Ei, @function
_ZNK4asio5error6detail14netdb_category7messageB5cxx11Ei:
.LFB3453:
	.cfi_startproc
	endbr64
	pushq	%r12
	.cfi_def_cfa_offset 16
	.cfi_offset 12, -16
	movq	%rdi, %r12
	subq	$16, %rsp
	.cfi_def_cfa_offset 32
	movq	%fs:40, %rax
	movq	%rax, 8(%rsp)
	xorl	%eax, %eax
	leaq	16(%rdi), %rax
	movq	%rax, (%rdi)
	cmpl	$1, %edx
	je	.L261
	cmpl	$2, %edx
	je	.L262
	cmpl	$4, %edx
	je	.L263
	cmpl	$3, %edx
	je	.L264
	xorl	%edx, %edx
	movq	%rsp, %rsi
	movq	$16, (%rsp)
	call	_ZNSt7__cxx1112basic_stringIcSt11char_traitsIcESaIcEE9_M_createERmm@PLT
	movq	(%rsp), %rdx
	movdqa	.LC19(%rip), %xmm0
	movq	%rax, (%r12)
	movq	%rdx, 16(%r12)
	movups	%xmm0, (%rax)
	movq	(%rsp), %rax
	movq	(%r12), %rdx
	movq	%rax, 8(%r12)
	movb	$0, (%rdx,%rax)
.L253:
	movq	8(%rsp), %rax
	xorq	%fs:40, %rax
	jne	.L265
	addq	$16, %rsp
	.cfi_remember_state
	.cfi_def_cfa_offset 16
	movq	%r12, %rax
	popq	%r12
	.cfi_def_cfa_offset 8
	ret
	.p2align 4,,10
	.p2align 3
.L261:
	.cfi_restore_state
	movq	%rsp, %rsi
	xorl	%edx, %edx
	movq	$30, (%rsp)
	call	_ZNSt7__cxx1112basic_stringIcSt11char_traitsIcESaIcEE9_M_createERmm@PLT
	movq	(%rsp), %rdx
	movl	$10597, %esi
	movdqa	.LC10(%rip), %xmm0
	movabsq	$8388361603773658465, %rcx
	movq	%rax, (%r12)
	movq	%rdx, 16(%r12)
	movq	%rcx, 16(%rax)
	movl	$1986622561, 24(%rax)
	movw	%si, 28(%rax)
	movups	%xmm0, (%rax)
	movq	(%rsp), %rax
	movq	(%r12), %rdx
	movq	%rax, 8(%r12)
	movb	$0, (%rdx,%rax)
	jmp	.L253
	.p2align 4,,10
	.p2align 3
.L264:
	xorl	%edx, %edx
	movq	%rsp, %rsi
	movq	$55, (%rsp)
	call	_ZNSt7__cxx1112basic_stringIcSt11char_traitsIcESaIcEE9_M_createERmm@PLT
	movq	(%rsp), %rdx
	movdqa	.LC16(%rip), %xmm0
	movq	%rax, (%r12)
	movq	%rdx, 16(%r12)
	movl	$30059, %edx
	movups	%xmm0, (%rax)
	movdqa	.LC17(%rip), %xmm0
	movl	$1869573152, 48(%rax)
	movups	%xmm0, 16(%rax)
	movdqa	.LC18(%rip), %xmm0
	movw	%dx, 52(%rax)
	movb	$112, 54(%rax)
	movups	%xmm0, 32(%rax)
	movq	(%rsp), %rax
	movq	(%r12), %rdx
	movq	%rax, 8(%r12)
	movb	$0, (%rdx,%rax)
	jmp	.L253
	.p2align 4,,10
	.p2align 3
.L262:
	xorl	%edx, %edx
	movq	%rsp, %rsi
	movq	$51, (%rsp)
	call	_ZNSt7__cxx1112basic_stringIcSt11char_traitsIcESaIcEE9_M_createERmm@PLT
	movq	(%rsp), %rdx
	movl	$25972, %ecx
	movdqa	.LC10(%rip), %xmm0
	movq	%rax, (%r12)
	movq	%rdx, 16(%r12)
	movups	%xmm0, (%rax)
	movdqa	.LC11(%rip), %xmm0
	movw	%cx, 48(%rax)
	movups	%xmm0, 16(%rax)
	movdqa	.LC12(%rip), %xmm0
	movb	$114, 50(%rax)
	movups	%xmm0, 32(%rax)
	movq	(%rsp), %rax
	movq	(%r12), %rdx
	movq	%rax, 8(%r12)
	movb	$0, (%rdx,%rax)
	jmp	.L253
	.p2align 4,,10
	.p2align 3
.L263:
	xorl	%edx, %edx
	movq	%rsp, %rsi
	movq	$56, (%rsp)
	call	_ZNSt7__cxx1112basic_stringIcSt11char_traitsIcESaIcEE9_M_createERmm@PLT
	movq	(%rsp), %rdx
	movdqa	.LC13(%rip), %xmm0
	movabsq	$7022344801645520244, %rcx
	movq	%rax, (%r12)
	movq	%rdx, 16(%r12)
	movups	%xmm0, (%rax)
	movdqa	.LC14(%rip), %xmm0
	movq	%rcx, 48(%rax)
	movups	%xmm0, 16(%rax)
	movdqa	.LC15(%rip), %xmm0
	movups	%xmm0, 32(%rax)
	movq	(%rsp), %rax
	movq	(%r12), %rdx
	movq	%rax, 8(%r12)
	movb	$0, (%rdx,%rax)
	jmp	.L253
.L265:
	call	__stack_chk_fail@PLT
	.cfi_endproc
.LFE3453:
	.size	_ZNK4asio5error6detail14netdb_category7messageB5cxx11Ei, .-_ZNK4asio5error6detail14netdb_category7messageB5cxx11Ei
	.section	.text._ZNK4asio5error6detail13misc_category7messageB5cxx11Ei,"axG",@progbits,_ZNK4asio5error6detail13misc_category7messageB5cxx11Ei,comdat
	.align 2
	.p2align 4
	.weak	_ZNK4asio5error6detail13misc_category7messageB5cxx11Ei
	.type	_ZNK4asio5error6detail13misc_category7messageB5cxx11Ei, @function
_ZNK4asio5error6detail13misc_category7messageB5cxx11Ei:
.LFB3465:
	.cfi_startproc
	endbr64
	pushq	%r12
	.cfi_def_cfa_offset 16
	.cfi_offset 12, -16
	movq	%rdi, %r12
	subq	$16, %rsp
	.cfi_def_cfa_offset 32
	movq	%fs:40, %rax
	movq	%rax, 8(%rsp)
	xorl	%eax, %eax
	leaq	16(%rdi), %rax
	movq	%rax, (%rdi)
	cmpl	$1, %edx
	je	.L274
	cmpl	$2, %edx
	je	.L275
	cmpl	$3, %edx
	je	.L276
	cmpl	$4, %edx
	je	.L277
	movabsq	$8316298233121436513, %rcx
	movl	$28530, %edx
	movq	%rcx, 16(%rdi)
	movl	$1919230051, 8(%rax)
	movw	%dx, 12(%rax)
	movb	$114, 14(%rax)
	movq	$15, 8(%rdi)
	movb	$0, 31(%rdi)
.L266:
	movq	8(%rsp), %rax
	xorq	%fs:40, %rax
	jne	.L278
	addq	$16, %rsp
	.cfi_remember_state
	.cfi_def_cfa_offset 16
	movq	%r12, %rax
	popq	%r12
	.cfi_def_cfa_offset 8
	ret
	.p2align 4,,10
	.p2align 3
.L274:
	.cfi_restore_state
	movabsq	$2340011850872286273, %rcx
	movq	%rcx, 16(%rdi)
	movl	$1852141679, 8(%rax)
	movq	$12, 8(%rdi)
	movb	$0, 28(%rdi)
	jmp	.L266
	.p2align 4,,10
	.p2align 3
.L277:
	movq	%rsp, %rsi
	xorl	%edx, %edx
	movq	$57, (%rsp)
	call	_ZNSt7__cxx1112basic_stringIcSt11char_traitsIcESaIcEE9_M_createERmm@PLT
	movq	(%rsp), %rdx
	movdqa	.LC21(%rip), %xmm0
	movabsq	$7310291504967217959, %rsi
	movq	%rax, (%r12)
	movq	%rdx, 16(%r12)
	movups	%xmm0, (%rax)
	movdqa	.LC22(%rip), %xmm0
	movq	%rsi, 48(%rax)
	movups	%xmm0, 16(%rax)
	movdqa	.LC23(%rip), %xmm0
	movb	$116, 56(%rax)
	movups	%xmm0, 32(%rax)
	movq	(%rsp), %rax
	movq	(%r12), %rdx
	movq	%rax, 8(%r12)
	movb	$0, (%rdx,%rax)
	jmp	.L266
	.p2align 4,,10
	.p2align 3
.L275:
	movabsq	$7358994418594246213, %rcx
	movq	%rcx, 16(%rdi)
	movl	$27753, %ecx
	movw	%cx, 8(%rax)
	movb	$101, 10(%rax)
	movq	$11, 8(%rdi)
	movb	$0, 27(%rdi)
	jmp	.L266
	.p2align 4,,10
	.p2align 3
.L276:
	xorl	%edx, %edx
	movq	%rsp, %rsi
	movq	$17, (%rsp)
	call	_ZNSt7__cxx1112basic_stringIcSt11char_traitsIcESaIcEE9_M_createERmm@PLT
	movq	(%rsp), %rdx
	movdqa	.LC20(%rip), %xmm0
	movq	%rax, (%r12)
	movq	%rdx, 16(%r12)
	movb	$100, 16(%rax)
	movups	%xmm0, (%rax)
	movq	(%rsp), %rax
	movq	(%r12), %rdx
	movq	%rax, 8(%r12)
	movb	$0, (%rdx,%rax)
	jmp	.L266
.L278:
	call	__stack_chk_fail@PLT
	.cfi_endproc
.LFE3465:
	.size	_ZNK4asio5error6detail13misc_category7messageB5cxx11Ei, .-_ZNK4asio5error6detail13misc_category7messageB5cxx11Ei
	.section	.text._ZN8asiodnp318MasterSessionStackD2Ev,"axG",@progbits,_ZN8asiodnp318MasterSessionStackD5Ev,comdat
	.p2align 4
	.weak	_ZThn8_N8asiodnp318MasterSessionStackD1Ev
	.type	_ZThn8_N8asiodnp318MasterSessionStackD1Ev, @function
_ZThn8_N8asiodnp318MasterSessionStackD1Ev:
.LFB12016:
	.cfi_startproc
	endbr64
	pushq	%r13
	.cfi_def_cfa_offset 16
	.cfi_offset 13, -16
	pushq	%r12
	.cfi_def_cfa_offset 24
	.cfi_offset 12, -24
	pushq	%rbp
	.cfi_def_cfa_offset 32
	.cfi_offset 6, -32
	pushq	%rbx
	.cfi_def_cfa_offset 40
	.cfi_offset 3, -40
	movq	%rdi, %rbx
	subq	$8, %rsp
	.cfi_def_cfa_offset 48
	movq	_ZTVN8asiodnp318MasterSessionStackE@GOTPCREL(%rip), %rax
	leaq	184(%rax), %rdx
	addq	$16, %rax
	movq	%rax, %xmm0
	movq	_ZTVN8opendnp38MContextE@GOTPCREL(%rip), %rax
	movq	%rdx, %xmm1
	punpcklqdq	%xmm1, %xmm0
	leaq	128(%rax), %rdx
	leaq	16(%rax), %rcx
	movups	%xmm0, -8(%rdi)
	addq	$152, %rax
	movq	%rax, 104(%rdi)
	movq	_ZTVN7openpal5ArrayIhjEE@GOTPCREL(%rip), %rax
	movq	%rcx, %xmm0
	movq	%rdx, %xmm2
	punpcklqdq	%xmm2, %xmm0
	addq	$16, %rax
	movups	%xmm0, 88(%rdi)
	movq	%rax, 576(%rdi)
	movq	592(%rdi), %rdi
	testq	%rdi, %rdi
	je	.L280
	call	_ZdaPv@PLT
.L280:
	movq	496(%rbx), %rdi
	testq	%rdi, %rdi
	je	.L281
	movq	568(%rbx), %rax
	movq	536(%rbx), %rbp
	leaq	8(%rax), %r12
	cmpq	%rbp, %r12
	jbe	.L282
	.p2align 4,,10
	.p2align 3
.L283:
	movq	0(%rbp), %rdi
	addq	$8, %rbp
	call	_ZdlPv@PLT
	cmpq	%rbp, %r12
	ja	.L283
	movq	496(%rbx), %rdi
.L282:
	call	_ZdlPv@PLT
.L281:
	movq	480(%rbx), %r13
	movq	472(%rbx), %rbp
	cmpq	%rbp, %r13
	je	.L284
	cmpq	$0, _ZL28__gthrw___pthread_key_createPjPFvPvE@GOTPCREL(%rip)
	je	.L291
	movq	8(%rbp), %r12
	testq	%r12, %r12
	jne	.L459
	.p2align 4,,10
	.p2align 3
.L293:
	addq	$16, %rbp
	cmpq	%rbp, %r13
	je	.L290
.L285:
	movq	8(%rbp), %r12
	testq	%r12, %r12
	je	.L293
.L459:
	lock subl	$1, 8(%r12)
	jne	.L293
	movq	(%r12), %rax
	movq	%r12, %rdi
	call	*16(%rax)
	lock subl	$1, 12(%r12)
	jne	.L293
	movq	(%r12), %rax
	addq	$16, %rbp
	movq	%r12, %rdi
	call	*24(%rax)
	cmpq	%rbp, %r13
	jne	.L285
	.p2align 4,,10
	.p2align 3
.L290:
	movq	472(%rbx), %rbp
.L284:
	testq	%rbp, %rbp
	je	.L295
	movq	%rbp, %rdi
	call	_ZdlPv@PLT
.L295:
	movq	448(%rbx), %r13
	movq	440(%rbx), %rbp
	cmpq	%rbp, %r13
	je	.L296
	cmpq	$0, _ZL28__gthrw___pthread_key_createPjPFvPvE@GOTPCREL(%rip)
	je	.L303
	movq	8(%rbp), %r12
	testq	%r12, %r12
	jne	.L460
	.p2align 4,,10
	.p2align 3
.L305:
	addq	$16, %rbp
	cmpq	%rbp, %r13
	je	.L302
.L297:
	movq	8(%rbp), %r12
	testq	%r12, %r12
	je	.L305
.L460:
	lock subl	$1, 8(%r12)
	jne	.L305
	movq	(%r12), %rax
	movq	%r12, %rdi
	call	*16(%rax)
	lock subl	$1, 12(%r12)
	jne	.L305
	movq	(%r12), %rax
	addq	$16, %rbp
	movq	%r12, %rdi
	call	*24(%rax)
	cmpq	%rbp, %r13
	jne	.L297
	.p2align 4,,10
	.p2align 3
.L302:
	movq	440(%rbx), %rbp
.L296:
	testq	%rbp, %rbp
	je	.L307
	movq	%rbp, %rdi
	call	_ZdlPv@PLT
.L307:
	movq	432(%rbx), %r12
	testq	%r12, %r12
	je	.L309
	movq	_ZL28__gthrw___pthread_key_createPjPFvPvE@GOTPCREL(%rip), %rbp
	testq	%rbp, %rbp
	je	.L310
	movl	$-1, %eax
	lock xaddl	%eax, 8(%r12)
	cmpl	$1, %eax
	je	.L461
	.p2align 4,,10
	.p2align 3
.L309:
	movq	416(%rbx), %r12
	testq	%r12, %r12
	je	.L316
	movq	_ZL28__gthrw___pthread_key_createPjPFvPvE@GOTPCREL(%rip), %rbp
	testq	%rbp, %rbp
	je	.L317
	movl	$-1, %eax
	lock xaddl	%eax, 8(%r12)
	cmpl	$1, %eax
	je	.L462
	.p2align 4,,10
	.p2align 3
.L316:
	movq	400(%rbx), %r12
	testq	%r12, %r12
	je	.L323
	movq	_ZL28__gthrw___pthread_key_createPjPFvPvE@GOTPCREL(%rip), %rbp
	testq	%rbp, %rbp
	je	.L324
	movl	$-1, %eax
	lock xaddl	%eax, 8(%r12)
	cmpl	$1, %eax
	je	.L463
	.p2align 4,,10
	.p2align 3
.L323:
	movq	384(%rbx), %r12
	testq	%r12, %r12
	je	.L330
	movq	_ZL28__gthrw___pthread_key_createPjPFvPvE@GOTPCREL(%rip), %rbp
	testq	%rbp, %rbp
	je	.L331
	movl	$-1, %eax
	lock xaddl	%eax, 8(%r12)
	cmpl	$1, %eax
	je	.L464
	.p2align 4,,10
	.p2align 3
.L330:
	movq	368(%rbx), %r12
	testq	%r12, %r12
	je	.L337
	movq	_ZL28__gthrw___pthread_key_createPjPFvPvE@GOTPCREL(%rip), %rbp
	testq	%rbp, %rbp
	je	.L338
	movl	$-1, %eax
	lock xaddl	%eax, 8(%r12)
	cmpl	$1, %eax
	je	.L465
	.p2align 4,,10
	.p2align 3
.L337:
	movq	352(%rbx), %r12
	testq	%r12, %r12
	je	.L344
	movq	_ZL28__gthrw___pthread_key_createPjPFvPvE@GOTPCREL(%rip), %rbp
	testq	%rbp, %rbp
	je	.L345
	movl	$-1, %eax
	lock xaddl	%eax, 8(%r12)
	cmpl	$1, %eax
	je	.L466
	.p2align 4,,10
	.p2align 3
.L344:
	movq	336(%rbx), %r12
	testq	%r12, %r12
	je	.L351
	movq	_ZL28__gthrw___pthread_key_createPjPFvPvE@GOTPCREL(%rip), %rbp
	testq	%rbp, %rbp
	je	.L352
	movl	$-1, %eax
	lock xaddl	%eax, 8(%r12)
	cmpl	$1, %eax
	je	.L467
	.p2align 4,,10
	.p2align 3
.L351:
	leaq	312(%rbx), %rdi
	call	_ZN7openpal8TimerRefD1Ev@PLT
	leaq	296(%rbx), %rdi
	call	_ZN7openpal8TimerRefD1Ev@PLT
	leaq	280(%rbx), %rdi
	call	_ZN7openpal8TimerRefD1Ev@PLT
	movq	272(%rbx), %r12
	testq	%r12, %r12
	je	.L358
	movq	_ZL28__gthrw___pthread_key_createPjPFvPvE@GOTPCREL(%rip), %rbp
	testq	%rbp, %rbp
	je	.L359
	movl	$-1, %eax
	lock xaddl	%eax, 8(%r12)
	cmpl	$1, %eax
	je	.L468
	.p2align 4,,10
	.p2align 3
.L358:
	movq	240(%rbx), %r12
	testq	%r12, %r12
	je	.L365
	movq	_ZL28__gthrw___pthread_key_createPjPFvPvE@GOTPCREL(%rip), %rbp
	testq	%rbp, %rbp
	je	.L366
	movl	$-1, %eax
	lock xaddl	%eax, 8(%r12)
	cmpl	$1, %eax
	je	.L469
	.p2align 4,,10
	.p2align 3
.L365:
	movq	224(%rbx), %r12
	testq	%r12, %r12
	je	.L372
	movq	_ZL28__gthrw___pthread_key_createPjPFvPvE@GOTPCREL(%rip), %rbp
	testq	%rbp, %rbp
	je	.L373
	movl	$-1, %eax
	lock xaddl	%eax, 8(%r12)
	cmpl	$1, %eax
	je	.L470
	.p2align 4,,10
	.p2align 3
.L372:
	movq	168(%rbx), %r12
	testq	%r12, %r12
	je	.L379
	movq	_ZL28__gthrw___pthread_key_createPjPFvPvE@GOTPCREL(%rip), %rbp
	testq	%rbp, %rbp
	je	.L380
	movl	$-1, %eax
	lock xaddl	%eax, 8(%r12)
	cmpl	$1, %eax
	je	.L471
	.p2align 4,,10
	.p2align 3
.L379:
	movq	152(%rbx), %r12
	testq	%r12, %r12
	je	.L386
	movq	_ZL28__gthrw___pthread_key_createPjPFvPvE@GOTPCREL(%rip), %rbp
	testq	%rbp, %rbp
	je	.L387
	movl	$-1, %eax
	lock xaddl	%eax, 8(%r12)
	cmpl	$1, %eax
	je	.L472
	.p2align 4,,10
	.p2align 3
.L386:
	movq	136(%rbx), %r12
	testq	%r12, %r12
	je	.L393
	movq	_ZL28__gthrw___pthread_key_createPjPFvPvE@GOTPCREL(%rip), %rbp
	testq	%rbp, %rbp
	je	.L394
	movl	$-1, %eax
	lock xaddl	%eax, 8(%r12)
	cmpl	$1, %eax
	je	.L473
	.p2align 4,,10
	.p2align 3
.L393:
	movq	120(%rbx), %r12
	testq	%r12, %r12
	je	.L400
	movq	_ZL28__gthrw___pthread_key_createPjPFvPvE@GOTPCREL(%rip), %rbp
	testq	%rbp, %rbp
	je	.L401
	movl	$-1, %eax
	lock xaddl	%eax, 8(%r12)
	cmpl	$1, %eax
	je	.L474
	.p2align 4,,10
	.p2align 3
.L400:
	movq	80(%rbx), %r12
	testq	%r12, %r12
	je	.L407
	movq	_ZL28__gthrw___pthread_key_createPjPFvPvE@GOTPCREL(%rip), %rbp
	testq	%rbp, %rbp
	je	.L408
	movl	$-1, %eax
	lock xaddl	%eax, 8(%r12)
	cmpl	$1, %eax
	je	.L475
	.p2align 4,,10
	.p2align 3
.L407:
	movq	64(%rbx), %r12
	testq	%r12, %r12
	je	.L414
	movq	_ZL28__gthrw___pthread_key_createPjPFvPvE@GOTPCREL(%rip), %rbp
	testq	%rbp, %rbp
	je	.L415
	movl	$-1, %eax
	lock xaddl	%eax, 8(%r12)
	cmpl	$1, %eax
	je	.L476
	.p2align 4,,10
	.p2align 3
.L414:
	movq	48(%rbx), %r12
	testq	%r12, %r12
	je	.L421
	movq	_ZL28__gthrw___pthread_key_createPjPFvPvE@GOTPCREL(%rip), %rbp
	testq	%rbp, %rbp
	je	.L422
	movl	$-1, %eax
	lock xaddl	%eax, 8(%r12)
	cmpl	$1, %eax
	je	.L477
	.p2align 4,,10
	.p2align 3
.L421:
	movq	32(%rbx), %r12
	testq	%r12, %r12
	je	.L428
	movq	_ZL28__gthrw___pthread_key_createPjPFvPvE@GOTPCREL(%rip), %rbp
	testq	%rbp, %rbp
	je	.L429
	movl	$-1, %eax
	lock xaddl	%eax, 8(%r12)
	cmpl	$1, %eax
	je	.L478
	.p2align 4,,10
	.p2align 3
.L428:
	movq	16(%rbx), %rdi
	testq	%rdi, %rdi
	je	.L279
	cmpq	$0, _ZL28__gthrw___pthread_key_createPjPFvPvE@GOTPCREL(%rip)
	je	.L436
	movl	$-1, %eax
	lock xaddl	%eax, 12(%rdi)
	cmpl	$1, %eax
	je	.L479
.L279:
	addq	$8, %rsp
	.cfi_remember_state
	.cfi_def_cfa_offset 40
	popq	%rbx
	.cfi_def_cfa_offset 32
	popq	%rbp
	.cfi_def_cfa_offset 24
	popq	%r12
	.cfi_def_cfa_offset 16
	popq	%r13
	.cfi_def_cfa_offset 8
	ret
	.p2align 4,,10
	.p2align 3
.L289:
	.cfi_restore_state
	movq	(%r12), %rax
	movq	%r12, %rdi
	call	*16(%rax)
	movl	12(%r12), %eax
	leal	-1(%rax), %edx
	movl	%edx, 12(%r12)
	cmpl	$1, %eax
	jne	.L288
	movq	(%r12), %rax
	movq	%r12, %rdi
	call	*24(%rax)
	.p2align 4,,10
	.p2align 3
.L288:
	addq	$16, %rbp
	cmpq	%rbp, %r13
	je	.L290
.L291:
	movq	8(%rbp), %r12
	testq	%r12, %r12
	je	.L288
	movl	8(%r12), %eax
	leal	-1(%rax), %edx
	movl	%edx, 8(%r12)
	cmpl	$1, %eax
	jne	.L288
	jmp	.L289
	.p2align 4,,10
	.p2align 3
.L301:
	movq	(%r12), %rax
	movq	%r12, %rdi
	call	*16(%rax)
	movl	12(%r12), %eax
	leal	-1(%rax), %edx
	movl	%edx, 12(%r12)
	cmpl	$1, %eax
	jne	.L300
	movq	(%r12), %rax
	movq	%r12, %rdi
	call	*24(%rax)
	.p2align 4,,10
	.p2align 3
.L300:
	addq	$16, %rbp
	cmpq	%rbp, %r13
	je	.L302
.L303:
	movq	8(%rbp), %r12
	testq	%r12, %r12
	je	.L300
	movl	8(%r12), %eax
	leal	-1(%rax), %edx
	movl	%edx, 8(%r12)
	cmpl	$1, %eax
	jne	.L300
	jmp	.L301
	.p2align 4,,10
	.p2align 3
.L436:
	movl	12(%rdi), %eax
	leal	-1(%rax), %edx
	movl	%edx, 12(%rdi)
	cmpl	$1, %eax
	jne	.L279
.L479:
	movq	(%rdi), %rax
	movq	24(%rax), %rax
	addq	$8, %rsp
	.cfi_remember_state
	.cfi_def_cfa_offset 40
	popq	%rbx
	.cfi_def_cfa_offset 32
	popq	%rbp
	.cfi_def_cfa_offset 24
	popq	%r12
	.cfi_def_cfa_offset 16
	popq	%r13
	.cfi_def_cfa_offset 8
	jmp	*%rax
	.p2align 4,,10
	.p2align 3
.L317:
	.cfi_restore_state
	movl	8(%r12), %eax
	leal	-1(%rax), %edx
	movl	%edx, 8(%r12)
	cmpl	$1, %eax
	jne	.L316
.L462:
	movq	(%r12), %rax
	movq	%r12, %rdi
	call	*16(%rax)
	testq	%rbp, %rbp
	je	.L320
	movl	$-1, %eax
	lock xaddl	%eax, 12(%r12)
.L321:
	cmpl	$1, %eax
	jne	.L316
	movq	(%r12), %rax
	movq	%r12, %rdi
	call	*24(%rax)
	jmp	.L316
	.p2align 4,,10
	.p2align 3
.L310:
	movl	8(%r12), %eax
	leal	-1(%rax), %edx
	movl	%edx, 8(%r12)
	cmpl	$1, %eax
	jne	.L309
.L461:
	movq	(%r12), %rax
	movq	%r12, %rdi
	call	*16(%rax)
	testq	%rbp, %rbp
	je	.L313
	movl	$-1, %eax
	lock xaddl	%eax, 12(%r12)
.L314:
	cmpl	$1, %eax
	jne	.L309
	movq	(%r12), %rax
	movq	%r12, %rdi
	call	*24(%rax)
	jmp	.L309
	.p2align 4,,10
	.p2align 3
.L401:
	movl	8(%r12), %eax
	leal	-1(%rax), %edx
	movl	%edx, 8(%r12)
	cmpl	$1, %eax
	jne	.L400
.L474:
	movq	(%r12), %rax
	movq	%r12, %rdi
	call	*16(%rax)
	testq	%rbp, %rbp
	je	.L404
	movl	$-1, %eax
	lock xaddl	%eax, 12(%r12)
.L405:
	cmpl	$1, %eax
	jne	.L400
	movq	(%r12), %rax
	movq	%r12, %rdi
	call	*24(%rax)
	jmp	.L400
	.p2align 4,,10
	.p2align 3
.L394:
	movl	8(%r12), %eax
	leal	-1(%rax), %edx
	movl	%edx, 8(%r12)
	cmpl	$1, %eax
	jne	.L393
.L473:
	movq	(%r12), %rax
	movq	%r12, %rdi
	call	*16(%rax)
	testq	%rbp, %rbp
	je	.L397
	movl	$-1, %eax
	lock xaddl	%eax, 12(%r12)
.L398:
	cmpl	$1, %eax
	jne	.L393
	movq	(%r12), %rax
	movq	%r12, %rdi
	call	*24(%rax)
	jmp	.L393
	.p2align 4,,10
	.p2align 3
.L387:
	movl	8(%r12), %eax
	leal	-1(%rax), %edx
	movl	%edx, 8(%r12)
	cmpl	$1, %eax
	jne	.L386
.L472:
	movq	(%r12), %rax
	movq	%r12, %rdi
	call	*16(%rax)
	testq	%rbp, %rbp
	je	.L390
	movl	$-1, %eax
	lock xaddl	%eax, 12(%r12)
.L391:
	cmpl	$1, %eax
	jne	.L386
	movq	(%r12), %rax
	movq	%r12, %rdi
	call	*24(%rax)
	jmp	.L386
	.p2align 4,,10
	.p2align 3
.L380:
	movl	8(%r12), %eax
	leal	-1(%rax), %edx
	movl	%edx, 8(%r12)
	cmpl	$1, %eax
	jne	.L379
.L471:
	movq	(%r12), %rax
	movq	%r12, %rdi
	call	*16(%rax)
	testq	%rbp, %rbp
	je	.L383
	movl	$-1, %eax
	lock xaddl	%eax, 12(%r12)
.L384:
	cmpl	$1, %eax
	jne	.L379
	movq	(%r12), %rax
	movq	%r12, %rdi
	call	*24(%rax)
	jmp	.L379
	.p2align 4,,10
	.p2align 3
.L429:
	movl	8(%r12), %eax
	leal	-1(%rax), %edx
	movl	%edx, 8(%r12)
	cmpl	$1, %eax
	jne	.L428
.L478:
	movq	(%r12), %rax
	movq	%r12, %rdi
	call	*16(%rax)
	testq	%rbp, %rbp
	je	.L432
	movl	$-1, %eax
	lock xaddl	%eax, 12(%r12)
.L433:
	cmpl	$1, %eax
	jne	.L428
	movq	(%r12), %rax
	movq	%r12, %rdi
	call	*24(%rax)
	jmp	.L428
	.p2align 4,,10
	.p2align 3
.L422:
	movl	8(%r12), %eax
	leal	-1(%rax), %edx
	movl	%edx, 8(%r12)
	cmpl	$1, %eax
	jne	.L421
.L477:
	movq	(%r12), %rax
	movq	%r12, %rdi
	call	*16(%rax)
	testq	%rbp, %rbp
	je	.L425
	movl	$-1, %eax
	lock xaddl	%eax, 12(%r12)
.L426:
	cmpl	$1, %eax
	jne	.L421
	movq	(%r12), %rax
	movq	%r12, %rdi
	call	*24(%rax)
	jmp	.L421
	.p2align 4,,10
	.p2align 3
.L415:
	movl	8(%r12), %eax
	leal	-1(%rax), %edx
	movl	%edx, 8(%r12)
	cmpl	$1, %eax
	jne	.L414
.L476:
	movq	(%r12), %rax
	movq	%r12, %rdi
	call	*16(%rax)
	testq	%rbp, %rbp
	je	.L418
	movl	$-1, %eax
	lock xaddl	%eax, 12(%r12)
.L419:
	cmpl	$1, %eax
	jne	.L414
	movq	(%r12), %rax
	movq	%r12, %rdi
	call	*24(%rax)
	jmp	.L414
	.p2align 4,,10
	.p2align 3
.L408:
	movl	8(%r12), %eax
	leal	-1(%rax), %edx
	movl	%edx, 8(%r12)
	cmpl	$1, %eax
	jne	.L407
.L475:
	movq	(%r12), %rax
	movq	%r12, %rdi
	call	*16(%rax)
	testq	%rbp, %rbp
	je	.L411
	movl	$-1, %eax
	lock xaddl	%eax, 12(%r12)
.L412:
	cmpl	$1, %eax
	jne	.L407
	movq	(%r12), %rax
	movq	%r12, %rdi
	call	*24(%rax)
	jmp	.L407
	.p2align 4,,10
	.p2align 3
.L345:
	movl	8(%r12), %eax
	leal	-1(%rax), %edx
	movl	%edx, 8(%r12)
	cmpl	$1, %eax
	jne	.L344
.L466:
	movq	(%r12), %rax
	movq	%r12, %rdi
	call	*16(%rax)
	testq	%rbp, %rbp
	je	.L348
	movl	$-1, %eax
	lock xaddl	%eax, 12(%r12)
.L349:
	cmpl	$1, %eax
	jne	.L344
	movq	(%r12), %rax
	movq	%r12, %rdi
	call	*24(%rax)
	jmp	.L344
	.p2align 4,,10
	.p2align 3
.L338:
	movl	8(%r12), %eax
	leal	-1(%rax), %edx
	movl	%edx, 8(%r12)
	cmpl	$1, %eax
	jne	.L337
.L465:
	movq	(%r12), %rax
	movq	%r12, %rdi
	call	*16(%rax)
	testq	%rbp, %rbp
	je	.L341
	movl	$-1, %eax
	lock xaddl	%eax, 12(%r12)
.L342:
	cmpl	$1, %eax
	jne	.L337
	movq	(%r12), %rax
	movq	%r12, %rdi
	call	*24(%rax)
	jmp	.L337
	.p2align 4,,10
	.p2align 3
.L331:
	movl	8(%r12), %eax
	leal	-1(%rax), %edx
	movl	%edx, 8(%r12)
	cmpl	$1, %eax
	jne	.L330
.L464:
	movq	(%r12), %rax
	movq	%r12, %rdi
	call	*16(%rax)
	testq	%rbp, %rbp
	je	.L334
	movl	$-1, %eax
	lock xaddl	%eax, 12(%r12)
.L335:
	cmpl	$1, %eax
	jne	.L330
	movq	(%r12), %rax
	movq	%r12, %rdi
	call	*24(%rax)
	jmp	.L330
	.p2align 4,,10
	.p2align 3
.L324:
	movl	8(%r12), %eax
	leal	-1(%rax), %edx
	movl	%edx, 8(%r12)
	cmpl	$1, %eax
	jne	.L323
.L463:
	movq	(%r12), %rax
	movq	%r12, %rdi
	call	*16(%rax)
	testq	%rbp, %rbp
	je	.L327
	movl	$-1, %eax
	lock xaddl	%eax, 12(%r12)
.L328:
	cmpl	$1, %eax
	jne	.L323
	movq	(%r12), %rax
	movq	%r12, %rdi
	call	*24(%rax)
	jmp	.L323
	.p2align 4,,10
	.p2align 3
.L373:
	movl	8(%r12), %eax
	leal	-1(%rax), %edx
	movl	%edx, 8(%r12)
	cmpl	$1, %eax
	jne	.L372
.L470:
	movq	(%r12), %rax
	movq	%r12, %rdi
	call	*16(%rax)
	testq	%rbp, %rbp
	je	.L376
	movl	$-1, %eax
	lock xaddl	%eax, 12(%r12)
.L377:
	cmpl	$1, %eax
	jne	.L372
	movq	(%r12), %rax
	movq	%r12, %rdi
	call	*24(%rax)
	jmp	.L372
	.p2align 4,,10
	.p2align 3
.L366:
	movl	8(%r12), %eax
	leal	-1(%rax), %edx
	movl	%edx, 8(%r12)
	cmpl	$1, %eax
	jne	.L365
.L469:
	movq	(%r12), %rax
	movq	%r12, %rdi
	call	*16(%rax)
	testq	%rbp, %rbp
	je	.L369
	movl	$-1, %eax
	lock xaddl	%eax, 12(%r12)
.L370:
	cmpl	$1, %eax
	jne	.L365
	movq	(%r12), %rax
	movq	%r12, %rdi
	call	*24(%rax)
	jmp	.L365
	.p2align 4,,10
	.p2align 3
.L359:
	movl	8(%r12), %eax
	leal	-1(%rax), %edx
	movl	%edx, 8(%r12)
	cmpl	$1, %eax
	jne	.L358
.L468:
	movq	(%r12), %rax
	movq	%r12, %rdi
	call	*16(%rax)
	testq	%rbp, %rbp
	je	.L362
	movl	$-1, %eax
	lock xaddl	%eax, 12(%r12)
.L363:
	cmpl	$1, %eax
	jne	.L358
	movq	(%r12), %rax
	movq	%r12, %rdi
	call	*24(%rax)
	jmp	.L358
	.p2align 4,,10
	.p2align 3
.L352:
	movl	8(%r12), %eax
	leal	-1(%rax), %edx
	movl	%edx, 8(%r12)
	cmpl	$1, %eax
	jne	.L351
.L467:
	movq	(%r12), %rax
	movq	%r12, %rdi
	call	*16(%rax)
	testq	%rbp, %rbp
	je	.L355
	movl	$-1, %eax
	lock xaddl	%eax, 12(%r12)
.L356:
	cmpl	$1, %eax
	jne	.L351
	movq	(%r12), %rax
	movq	%r12, %rdi
	call	*24(%rax)
	jmp	.L351
.L313:
	movl	12(%r12), %eax
	leal	-1(%rax), %edx
	movl	%edx, 12(%r12)
	jmp	.L314
.L320:
	movl	12(%r12), %eax
	leal	-1(%rax), %edx
	movl	%edx, 12(%r12)
	jmp	.L321
.L327:
	movl	12(%r12), %eax
	leal	-1(%rax), %edx
	movl	%edx, 12(%r12)
	jmp	.L328
.L432:
	movl	12(%r12), %eax
	leal	-1(%rax), %edx
	movl	%edx, 12(%r12)
	jmp	.L433
.L418:
	movl	12(%r12), %eax
	leal	-1(%rax), %edx
	movl	%edx, 12(%r12)
	jmp	.L419
.L425:
	movl	12(%r12), %eax
	leal	-1(%rax), %edx
	movl	%edx, 12(%r12)
	jmp	.L426
.L390:
	movl	12(%r12), %eax
	leal	-1(%rax), %edx
	movl	%edx, 12(%r12)
	jmp	.L391
.L397:
	movl	12(%r12), %eax
	leal	-1(%rax), %edx
	movl	%edx, 12(%r12)
	jmp	.L398
.L404:
	movl	12(%r12), %eax
	leal	-1(%rax), %edx
	movl	%edx, 12(%r12)
	jmp	.L405
.L411:
	movl	12(%r12), %eax
	leal	-1(%rax), %edx
	movl	%edx, 12(%r12)
	jmp	.L412
.L334:
	movl	12(%r12), %eax
	leal	-1(%rax), %edx
	movl	%edx, 12(%r12)
	jmp	.L335
.L341:
	movl	12(%r12), %eax
	leal	-1(%rax), %edx
	movl	%edx, 12(%r12)
	jmp	.L342
.L348:
	movl	12(%r12), %eax
	leal	-1(%rax), %edx
	movl	%edx, 12(%r12)
	jmp	.L349
.L355:
	movl	12(%r12), %eax
	leal	-1(%rax), %edx
	movl	%edx, 12(%r12)
	jmp	.L356
.L362:
	movl	12(%r12), %eax
	leal	-1(%rax), %edx
	movl	%edx, 12(%r12)
	jmp	.L363
.L369:
	movl	12(%r12), %eax
	leal	-1(%rax), %edx
	movl	%edx, 12(%r12)
	jmp	.L370
.L376:
	movl	12(%r12), %eax
	leal	-1(%rax), %edx
	movl	%edx, 12(%r12)
	jmp	.L377
.L383:
	movl	12(%r12), %eax
	leal	-1(%rax), %edx
	movl	%edx, 12(%r12)
	jmp	.L384
	.cfi_endproc
.LFE12016:
	.size	_ZThn8_N8asiodnp318MasterSessionStackD1Ev, .-_ZThn8_N8asiodnp318MasterSessionStackD1Ev
	.section	.text._ZNSt23_Sp_counted_ptr_inplaceIN8asiodnp318MasterSessionStackESaIS1_ELN9__gnu_cxx12_Lock_policyE2EE10_M_disposeEv,"axG",@progbits,_ZNSt23_Sp_counted_ptr_inplaceIN8asiodnp318MasterSessionStackESaIS1_ELN9__gnu_cxx12_Lock_policyE2EE10_M_disposeEv,comdat
	.align 2
	.p2align 4
	.weak	_ZNSt23_Sp_counted_ptr_inplaceIN8asiodnp318MasterSessionStackESaIS1_ELN9__gnu_cxx12_Lock_policyE2EE10_M_disposeEv
	.type	_ZNSt23_Sp_counted_ptr_inplaceIN8asiodnp318MasterSessionStackESaIS1_ELN9__gnu_cxx12_Lock_policyE2EE10_M_disposeEv, @function
_ZNSt23_Sp_counted_ptr_inplaceIN8asiodnp318MasterSessionStackESaIS1_ELN9__gnu_cxx12_Lock_policyE2EE10_M_disposeEv:
.LFB11508:
	.cfi_startproc
	endbr64
	pushq	%r13
	.cfi_def_cfa_offset 16
	.cfi_offset 13, -16
	pushq	%r12
	.cfi_def_cfa_offset 24
	.cfi_offset 12, -24
	pushq	%rbp
	.cfi_def_cfa_offset 32
	.cfi_offset 6, -32
	pushq	%rbx
	.cfi_def_cfa_offset 40
	.cfi_offset 3, -40
	movq	%rdi, %rbx
	subq	$8, %rsp
	.cfi_def_cfa_offset 48
	movq	_ZTVN8asiodnp318MasterSessionStackE@GOTPCREL(%rip), %rax
	leaq	184(%rax), %rdx
	addq	$16, %rax
	movq	%rax, %xmm0
	movq	_ZTVN8opendnp38MContextE@GOTPCREL(%rip), %rax
	movq	%rdx, %xmm1
	punpcklqdq	%xmm1, %xmm0
	leaq	128(%rax), %rdx
	leaq	16(%rax), %rcx
	movups	%xmm0, 16(%rdi)
	addq	$152, %rax
	movq	%rax, 128(%rdi)
	movq	%rcx, %xmm0
	movq	%rdx, %xmm2
	movq	_ZTVN7openpal5ArrayIhjEE@GOTPCREL(%rip), %rax
	punpcklqdq	%xmm2, %xmm0
	addq	$16, %rax
	movups	%xmm0, 112(%rdi)
	movq	%rax, 600(%rdi)
	movq	616(%rdi), %rdi
	testq	%rdi, %rdi
	je	.L481
	call	_ZdaPv@PLT
.L481:
	movq	520(%rbx), %rdi
	testq	%rdi, %rdi
	je	.L482
	movq	592(%rbx), %rax
	movq	560(%rbx), %rbp
	leaq	8(%rax), %r12
	cmpq	%rbp, %r12
	jbe	.L483
	.p2align 4,,10
	.p2align 3
.L484:
	movq	0(%rbp), %rdi
	addq	$8, %rbp
	call	_ZdlPv@PLT
	cmpq	%rbp, %r12
	ja	.L484
	movq	520(%rbx), %rdi
.L483:
	call	_ZdlPv@PLT
.L482:
	movq	504(%rbx), %r13
	movq	496(%rbx), %rbp
	cmpq	%rbp, %r13
	je	.L485
	cmpq	$0, _ZL28__gthrw___pthread_key_createPjPFvPvE@GOTPCREL(%rip)
	je	.L492
	movq	8(%rbp), %r12
	testq	%r12, %r12
	jne	.L660
	.p2align 4,,10
	.p2align 3
.L494:
	addq	$16, %rbp
	cmpq	%rbp, %r13
	je	.L491
.L486:
	movq	8(%rbp), %r12
	testq	%r12, %r12
	je	.L494
.L660:
	lock subl	$1, 8(%r12)
	jne	.L494
	movq	(%r12), %rax
	movq	%r12, %rdi
	call	*16(%rax)
	lock subl	$1, 12(%r12)
	jne	.L494
	movq	(%r12), %rax
	addq	$16, %rbp
	movq	%r12, %rdi
	call	*24(%rax)
	cmpq	%rbp, %r13
	jne	.L486
	.p2align 4,,10
	.p2align 3
.L491:
	movq	496(%rbx), %rbp
.L485:
	testq	%rbp, %rbp
	je	.L496
	movq	%rbp, %rdi
	call	_ZdlPv@PLT
.L496:
	movq	472(%rbx), %r13
	movq	464(%rbx), %rbp
	cmpq	%rbp, %r13
	je	.L497
	cmpq	$0, _ZL28__gthrw___pthread_key_createPjPFvPvE@GOTPCREL(%rip)
	je	.L504
	movq	8(%rbp), %r12
	testq	%r12, %r12
	jne	.L661
	.p2align 4,,10
	.p2align 3
.L506:
	addq	$16, %rbp
	cmpq	%rbp, %r13
	je	.L503
.L498:
	movq	8(%rbp), %r12
	testq	%r12, %r12
	je	.L506
.L661:
	lock subl	$1, 8(%r12)
	jne	.L506
	movq	(%r12), %rax
	movq	%r12, %rdi
	call	*16(%rax)
	lock subl	$1, 12(%r12)
	jne	.L506
	movq	(%r12), %rax
	addq	$16, %rbp
	movq	%r12, %rdi
	call	*24(%rax)
	cmpq	%rbp, %r13
	jne	.L498
	.p2align 4,,10
	.p2align 3
.L503:
	movq	464(%rbx), %rbp
.L497:
	testq	%rbp, %rbp
	je	.L508
	movq	%rbp, %rdi
	call	_ZdlPv@PLT
.L508:
	movq	456(%rbx), %r12
	testq	%r12, %r12
	je	.L510
	movq	_ZL28__gthrw___pthread_key_createPjPFvPvE@GOTPCREL(%rip), %rbp
	testq	%rbp, %rbp
	je	.L511
	movl	$-1, %eax
	lock xaddl	%eax, 8(%r12)
	cmpl	$1, %eax
	je	.L662
	.p2align 4,,10
	.p2align 3
.L510:
	movq	440(%rbx), %r12
	testq	%r12, %r12
	je	.L517
	movq	_ZL28__gthrw___pthread_key_createPjPFvPvE@GOTPCREL(%rip), %rbp
	testq	%rbp, %rbp
	je	.L518
	movl	$-1, %eax
	lock xaddl	%eax, 8(%r12)
	cmpl	$1, %eax
	je	.L663
	.p2align 4,,10
	.p2align 3
.L517:
	movq	424(%rbx), %r12
	testq	%r12, %r12
	je	.L524
	movq	_ZL28__gthrw___pthread_key_createPjPFvPvE@GOTPCREL(%rip), %rbp
	testq	%rbp, %rbp
	je	.L525
	movl	$-1, %eax
	lock xaddl	%eax, 8(%r12)
	cmpl	$1, %eax
	je	.L664
	.p2align 4,,10
	.p2align 3
.L524:
	movq	408(%rbx), %r12
	testq	%r12, %r12
	je	.L531
	movq	_ZL28__gthrw___pthread_key_createPjPFvPvE@GOTPCREL(%rip), %rbp
	testq	%rbp, %rbp
	je	.L532
	movl	$-1, %eax
	lock xaddl	%eax, 8(%r12)
	cmpl	$1, %eax
	je	.L665
	.p2align 4,,10
	.p2align 3
.L531:
	movq	392(%rbx), %r12
	testq	%r12, %r12
	je	.L538
	movq	_ZL28__gthrw___pthread_key_createPjPFvPvE@GOTPCREL(%rip), %rbp
	testq	%rbp, %rbp
	je	.L539
	movl	$-1, %eax
	lock xaddl	%eax, 8(%r12)
	cmpl	$1, %eax
	je	.L666
	.p2align 4,,10
	.p2align 3
.L538:
	movq	376(%rbx), %r12
	testq	%r12, %r12
	je	.L545
	movq	_ZL28__gthrw___pthread_key_createPjPFvPvE@GOTPCREL(%rip), %rbp
	testq	%rbp, %rbp
	je	.L546
	movl	$-1, %eax
	lock xaddl	%eax, 8(%r12)
	cmpl	$1, %eax
	je	.L667
	.p2align 4,,10
	.p2align 3
.L545:
	movq	360(%rbx), %r12
	testq	%r12, %r12
	je	.L552
	movq	_ZL28__gthrw___pthread_key_createPjPFvPvE@GOTPCREL(%rip), %rbp
	testq	%rbp, %rbp
	je	.L553
	movl	$-1, %eax
	lock xaddl	%eax, 8(%r12)
	cmpl	$1, %eax
	je	.L668
	.p2align 4,,10
	.p2align 3
.L552:
	leaq	336(%rbx), %rdi
	call	_ZN7openpal8TimerRefD1Ev@PLT
	leaq	320(%rbx), %rdi
	call	_ZN7openpal8TimerRefD1Ev@PLT
	leaq	304(%rbx), %rdi
	call	_ZN7openpal8TimerRefD1Ev@PLT
	movq	296(%rbx), %r12
	testq	%r12, %r12
	je	.L559
	movq	_ZL28__gthrw___pthread_key_createPjPFvPvE@GOTPCREL(%rip), %rbp
	testq	%rbp, %rbp
	je	.L560
	movl	$-1, %eax
	lock xaddl	%eax, 8(%r12)
	cmpl	$1, %eax
	je	.L669
	.p2align 4,,10
	.p2align 3
.L559:
	movq	264(%rbx), %r12
	testq	%r12, %r12
	je	.L566
	movq	_ZL28__gthrw___pthread_key_createPjPFvPvE@GOTPCREL(%rip), %rbp
	testq	%rbp, %rbp
	je	.L567
	movl	$-1, %eax
	lock xaddl	%eax, 8(%r12)
	cmpl	$1, %eax
	je	.L670
	.p2align 4,,10
	.p2align 3
.L566:
	movq	248(%rbx), %r12
	testq	%r12, %r12
	je	.L573
	movq	_ZL28__gthrw___pthread_key_createPjPFvPvE@GOTPCREL(%rip), %rbp
	testq	%rbp, %rbp
	je	.L574
	movl	$-1, %eax
	lock xaddl	%eax, 8(%r12)
	cmpl	$1, %eax
	je	.L671
	.p2align 4,,10
	.p2align 3
.L573:
	movq	192(%rbx), %r12
	testq	%r12, %r12
	je	.L580
	movq	_ZL28__gthrw___pthread_key_createPjPFvPvE@GOTPCREL(%rip), %rbp
	testq	%rbp, %rbp
	je	.L581
	movl	$-1, %eax
	lock xaddl	%eax, 8(%r12)
	cmpl	$1, %eax
	je	.L672
	.p2align 4,,10
	.p2align 3
.L580:
	movq	176(%rbx), %r12
	testq	%r12, %r12
	je	.L587
	movq	_ZL28__gthrw___pthread_key_createPjPFvPvE@GOTPCREL(%rip), %rbp
	testq	%rbp, %rbp
	je	.L588
	movl	$-1, %eax
	lock xaddl	%eax, 8(%r12)
	cmpl	$1, %eax
	je	.L673
	.p2align 4,,10
	.p2align 3
.L587:
	movq	160(%rbx), %r12
	testq	%r12, %r12
	je	.L594
	movq	_ZL28__gthrw___pthread_key_createPjPFvPvE@GOTPCREL(%rip), %rbp
	testq	%rbp, %rbp
	je	.L595
	movl	$-1, %eax
	lock xaddl	%eax, 8(%r12)
	cmpl	$1, %eax
	je	.L674
	.p2align 4,,10
	.p2align 3
.L594:
	movq	144(%rbx), %r12
	testq	%r12, %r12
	je	.L601
	movq	_ZL28__gthrw___pthread_key_createPjPFvPvE@GOTPCREL(%rip), %rbp
	testq	%rbp, %rbp
	je	.L602
	movl	$-1, %eax
	lock xaddl	%eax, 8(%r12)
	cmpl	$1, %eax
	je	.L675
	.p2align 4,,10
	.p2align 3
.L601:
	movq	104(%rbx), %r12
	testq	%r12, %r12
	je	.L608
	movq	_ZL28__gthrw___pthread_key_createPjPFvPvE@GOTPCREL(%rip), %rbp
	testq	%rbp, %rbp
	je	.L609
	movl	$-1, %eax
	lock xaddl	%eax, 8(%r12)
	cmpl	$1, %eax
	je	.L676
	.p2align 4,,10
	.p2align 3
.L608:
	movq	88(%rbx), %r12
	testq	%r12, %r12
	je	.L615
	movq	_ZL28__gthrw___pthread_key_createPjPFvPvE@GOTPCREL(%rip), %rbp
	testq	%rbp, %rbp
	je	.L616
	movl	$-1, %eax
	lock xaddl	%eax, 8(%r12)
	cmpl	$1, %eax
	je	.L677
	.p2align 4,,10
	.p2align 3
.L615:
	movq	72(%rbx), %r12
	testq	%r12, %r12
	je	.L622
	movq	_ZL28__gthrw___pthread_key_createPjPFvPvE@GOTPCREL(%rip), %rbp
	testq	%rbp, %rbp
	je	.L623
	movl	$-1, %eax
	lock xaddl	%eax, 8(%r12)
	cmpl	$1, %eax
	je	.L678
	.p2align 4,,10
	.p2align 3
.L622:
	movq	56(%rbx), %r12
	testq	%r12, %r12
	je	.L629
	movq	_ZL28__gthrw___pthread_key_createPjPFvPvE@GOTPCREL(%rip), %rbp
	testq	%rbp, %rbp
	je	.L630
	movl	$-1, %eax
	lock xaddl	%eax, 8(%r12)
	cmpl	$1, %eax
	je	.L679
	.p2align 4,,10
	.p2align 3
.L629:
	movq	40(%rbx), %rdi
	testq	%rdi, %rdi
	je	.L480
	cmpq	$0, _ZL28__gthrw___pthread_key_createPjPFvPvE@GOTPCREL(%rip)
	je	.L637
	movl	$-1, %eax
	lock xaddl	%eax, 12(%rdi)
	cmpl	$1, %eax
	je	.L680
.L480:
	addq	$8, %rsp
	.cfi_remember_state
	.cfi_def_cfa_offset 40
	popq	%rbx
	.cfi_def_cfa_offset 32
	popq	%rbp
	.cfi_def_cfa_offset 24
	popq	%r12
	.cfi_def_cfa_offset 16
	popq	%r13
	.cfi_def_cfa_offset 8
	ret
	.p2align 4,,10
	.p2align 3
.L490:
	.cfi_restore_state
	movq	(%r12), %rax
	movq	%r12, %rdi
	call	*16(%rax)
	movl	12(%r12), %eax
	leal	-1(%rax), %edx
	movl	%edx, 12(%r12)
	cmpl	$1, %eax
	jne	.L489
	movq	(%r12), %rax
	movq	%r12, %rdi
	call	*24(%rax)
	.p2align 4,,10
	.p2align 3
.L489:
	addq	$16, %rbp
	cmpq	%rbp, %r13
	je	.L491
.L492:
	movq	8(%rbp), %r12
	testq	%r12, %r12
	je	.L489
	movl	8(%r12), %eax
	leal	-1(%rax), %edx
	movl	%edx, 8(%r12)
	cmpl	$1, %eax
	jne	.L489
	jmp	.L490
	.p2align 4,,10
	.p2align 3
.L502:
	movq	(%r12), %rax
	movq	%r12, %rdi
	call	*16(%rax)
	movl	12(%r12), %eax
	leal	-1(%rax), %edx
	movl	%edx, 12(%r12)
	cmpl	$1, %eax
	jne	.L501
	movq	(%r12), %rax
	movq	%r12, %rdi
	call	*24(%rax)
	.p2align 4,,10
	.p2align 3
.L501:
	addq	$16, %rbp
	cmpq	%rbp, %r13
	je	.L503
.L504:
	movq	8(%rbp), %r12
	testq	%r12, %r12
	je	.L501
	movl	8(%r12), %eax
	leal	-1(%rax), %edx
	movl	%edx, 8(%r12)
	cmpl	$1, %eax
	jne	.L501
	jmp	.L502
	.p2align 4,,10
	.p2align 3
.L637:
	movl	12(%rdi), %eax
	leal	-1(%rax), %edx
	movl	%edx, 12(%rdi)
	cmpl	$1, %eax
	jne	.L480
.L680:
	movq	(%rdi), %rax
	movq	24(%rax), %rax
	addq	$8, %rsp
	.cfi_remember_state
	.cfi_def_cfa_offset 40
	popq	%rbx
	.cfi_def_cfa_offset 32
	popq	%rbp
	.cfi_def_cfa_offset 24
	popq	%r12
	.cfi_def_cfa_offset 16
	popq	%r13
	.cfi_def_cfa_offset 8
	jmp	*%rax
	.p2align 4,,10
	.p2align 3
.L518:
	.cfi_restore_state
	movl	8(%r12), %eax
	leal	-1(%rax), %edx
	movl	%edx, 8(%r12)
	cmpl	$1, %eax
	jne	.L517
.L663:
	movq	(%r12), %rax
	movq	%r12, %rdi
	call	*16(%rax)
	testq	%rbp, %rbp
	je	.L521
	movl	$-1, %eax
	lock xaddl	%eax, 12(%r12)
.L522:
	cmpl	$1, %eax
	jne	.L517
	movq	(%r12), %rax
	movq	%r12, %rdi
	call	*24(%rax)
	jmp	.L517
	.p2align 4,,10
	.p2align 3
.L511:
	movl	8(%r12), %eax
	leal	-1(%rax), %edx
	movl	%edx, 8(%r12)
	cmpl	$1, %eax
	jne	.L510
.L662:
	movq	(%r12), %rax
	movq	%r12, %rdi
	call	*16(%rax)
	testq	%rbp, %rbp
	je	.L514
	movl	$-1, %eax
	lock xaddl	%eax, 12(%r12)
.L515:
	cmpl	$1, %eax
	jne	.L510
	movq	(%r12), %rax
	movq	%r12, %rdi
	call	*24(%rax)
	jmp	.L510
	.p2align 4,,10
	.p2align 3
.L602:
	movl	8(%r12), %eax
	leal	-1(%rax), %edx
	movl	%edx, 8(%r12)
	cmpl	$1, %eax
	jne	.L601
.L675:
	movq	(%r12), %rax
	movq	%r12, %rdi
	call	*16(%rax)
	testq	%rbp, %rbp
	je	.L605
	movl	$-1, %eax
	lock xaddl	%eax, 12(%r12)
.L606:
	cmpl	$1, %eax
	jne	.L601
	movq	(%r12), %rax
	movq	%r12, %rdi
	call	*24(%rax)
	jmp	.L601
	.p2align 4,,10
	.p2align 3
.L595:
	movl	8(%r12), %eax
	leal	-1(%rax), %edx
	movl	%edx, 8(%r12)
	cmpl	$1, %eax
	jne	.L594
.L674:
	movq	(%r12), %rax
	movq	%r12, %rdi
	call	*16(%rax)
	testq	%rbp, %rbp
	je	.L598
	movl	$-1, %eax
	lock xaddl	%eax, 12(%r12)
.L599:
	cmpl	$1, %eax
	jne	.L594
	movq	(%r12), %rax
	movq	%r12, %rdi
	call	*24(%rax)
	jmp	.L594
	.p2align 4,,10
	.p2align 3
.L588:
	movl	8(%r12), %eax
	leal	-1(%rax), %edx
	movl	%edx, 8(%r12)
	cmpl	$1, %eax
	jne	.L587
.L673:
	movq	(%r12), %rax
	movq	%r12, %rdi
	call	*16(%rax)
	testq	%rbp, %rbp
	je	.L591
	movl	$-1, %eax
	lock xaddl	%eax, 12(%r12)
.L592:
	cmpl	$1, %eax
	jne	.L587
	movq	(%r12), %rax
	movq	%r12, %rdi
	call	*24(%rax)
	jmp	.L587
	.p2align 4,,10
	.p2align 3
.L581:
	movl	8(%r12), %eax
	leal	-1(%rax), %edx
	movl	%edx, 8(%r12)
	cmpl	$1, %eax
	jne	.L580
.L672:
	movq	(%r12), %rax
	movq	%r12, %rdi
	call	*16(%rax)
	testq	%rbp, %rbp
	je	.L584
	movl	$-1, %eax
	lock xaddl	%eax, 12(%r12)
.L585:
	cmpl	$1, %eax
	jne	.L580
	movq	(%r12), %rax
	movq	%r12, %rdi
	call	*24(%rax)
	jmp	.L580
	.p2align 4,,10
	.p2align 3
.L630:
	movl	8(%r12), %eax
	leal	-1(%rax), %edx
	movl	%edx, 8(%r12)
	cmpl	$1, %eax
	jne	.L629
.L679:
	movq	(%r12), %rax
	movq	%r12, %rdi
	call	*16(%rax)
	testq	%rbp, %rbp
	je	.L633
	movl	$-1, %eax
	lock xaddl	%eax, 12(%r12)
.L634:
	cmpl	$1, %eax
	jne	.L629
	movq	(%r12), %rax
	movq	%r12, %rdi
	call	*24(%rax)
	jmp	.L629
	.p2align 4,,10
	.p2align 3
.L623:
	movl	8(%r12), %eax
	leal	-1(%rax), %edx
	movl	%edx, 8(%r12)
	cmpl	$1, %eax
	jne	.L622
.L678:
	movq	(%r12), %rax
	movq	%r12, %rdi
	call	*16(%rax)
	testq	%rbp, %rbp
	je	.L626
	movl	$-1, %eax
	lock xaddl	%eax, 12(%r12)
.L627:
	cmpl	$1, %eax
	jne	.L622
	movq	(%r12), %rax
	movq	%r12, %rdi
	call	*24(%rax)
	jmp	.L622
	.p2align 4,,10
	.p2align 3
.L616:
	movl	8(%r12), %eax
	leal	-1(%rax), %edx
	movl	%edx, 8(%r12)
	cmpl	$1, %eax
	jne	.L615
.L677:
	movq	(%r12), %rax
	movq	%r12, %rdi
	call	*16(%rax)
	testq	%rbp, %rbp
	je	.L619
	movl	$-1, %eax
	lock xaddl	%eax, 12(%r12)
.L620:
	cmpl	$1, %eax
	jne	.L615
	movq	(%r12), %rax
	movq	%r12, %rdi
	call	*24(%rax)
	jmp	.L615
	.p2align 4,,10
	.p2align 3
.L609:
	movl	8(%r12), %eax
	leal	-1(%rax), %edx
	movl	%edx, 8(%r12)
	cmpl	$1, %eax
	jne	.L608
.L676:
	movq	(%r12), %rax
	movq	%r12, %rdi
	call	*16(%rax)
	testq	%rbp, %rbp
	je	.L612
	movl	$-1, %eax
	lock xaddl	%eax, 12(%r12)
.L613:
	cmpl	$1, %eax
	jne	.L608
	movq	(%r12), %rax
	movq	%r12, %rdi
	call	*24(%rax)
	jmp	.L608
	.p2align 4,,10
	.p2align 3
.L546:
	movl	8(%r12), %eax
	leal	-1(%rax), %edx
	movl	%edx, 8(%r12)
	cmpl	$1, %eax
	jne	.L545
.L667:
	movq	(%r12), %rax
	movq	%r12, %rdi
	call	*16(%rax)
	testq	%rbp, %rbp
	je	.L549
	movl	$-1, %eax
	lock xaddl	%eax, 12(%r12)
.L550:
	cmpl	$1, %eax
	jne	.L545
	movq	(%r12), %rax
	movq	%r12, %rdi
	call	*24(%rax)
	jmp	.L545
	.p2align 4,,10
	.p2align 3
.L539:
	movl	8(%r12), %eax
	leal	-1(%rax), %edx
	movl	%edx, 8(%r12)
	cmpl	$1, %eax
	jne	.L538
.L666:
	movq	(%r12), %rax
	movq	%r12, %rdi
	call	*16(%rax)
	testq	%rbp, %rbp
	je	.L542
	movl	$-1, %eax
	lock xaddl	%eax, 12(%r12)
.L543:
	cmpl	$1, %eax
	jne	.L538
	movq	(%r12), %rax
	movq	%r12, %rdi
	call	*24(%rax)
	jmp	.L538
	.p2align 4,,10
	.p2align 3
.L532:
	movl	8(%r12), %eax
	leal	-1(%rax), %edx
	movl	%edx, 8(%r12)
	cmpl	$1, %eax
	jne	.L531
.L665:
	movq	(%r12), %rax
	movq	%r12, %rdi
	call	*16(%rax)
	testq	%rbp, %rbp
	je	.L535
	movl	$-1, %eax
	lock xaddl	%eax, 12(%r12)
.L536:
	cmpl	$1, %eax
	jne	.L531
	movq	(%r12), %rax
	movq	%r12, %rdi
	call	*24(%rax)
	jmp	.L531
	.p2align 4,,10
	.p2align 3
.L525:
	movl	8(%r12), %eax
	leal	-1(%rax), %edx
	movl	%edx, 8(%r12)
	cmpl	$1, %eax
	jne	.L524
.L664:
	movq	(%r12), %rax
	movq	%r12, %rdi
	call	*16(%rax)
	testq	%rbp, %rbp
	je	.L528
	movl	$-1, %eax
	lock xaddl	%eax, 12(%r12)
.L529:
	cmpl	$1, %eax
	jne	.L524
	movq	(%r12), %rax
	movq	%r12, %rdi
	call	*24(%rax)
	jmp	.L524
	.p2align 4,,10
	.p2align 3
.L574:
	movl	8(%r12), %eax
	leal	-1(%rax), %edx
	movl	%edx, 8(%r12)
	cmpl	$1, %eax
	jne	.L573
.L671:
	movq	(%r12), %rax
	movq	%r12, %rdi
	call	*16(%rax)
	testq	%rbp, %rbp
	je	.L577
	movl	$-1, %eax
	lock xaddl	%eax, 12(%r12)
.L578:
	cmpl	$1, %eax
	jne	.L573
	movq	(%r12), %rax
	movq	%r12, %rdi
	call	*24(%rax)
	jmp	.L573
	.p2align 4,,10
	.p2align 3
.L567:
	movl	8(%r12), %eax
	leal	-1(%rax), %edx
	movl	%edx, 8(%r12)
	cmpl	$1, %eax
	jne	.L566
.L670:
	movq	(%r12), %rax
	movq	%r12, %rdi
	call	*16(%rax)
	testq	%rbp, %rbp
	je	.L570
	movl	$-1, %eax
	lock xaddl	%eax, 12(%r12)
.L571:
	cmpl	$1, %eax
	jne	.L566
	movq	(%r12), %rax
	movq	%r12, %rdi
	call	*24(%rax)
	jmp	.L566
	.p2align 4,,10
	.p2align 3
.L560:
	movl	8(%r12), %eax
	leal	-1(%rax), %edx
	movl	%edx, 8(%r12)
	cmpl	$1, %eax
	jne	.L559
.L669:
	movq	(%r12), %rax
	movq	%r12, %rdi
	call	*16(%rax)
	testq	%rbp, %rbp
	je	.L563
	movl	$-1, %eax
	lock xaddl	%eax, 12(%r12)
.L564:
	cmpl	$1, %eax
	jne	.L559
	movq	(%r12), %rax
	movq	%r12, %rdi
	call	*24(%rax)
	jmp	.L559
	.p2align 4,,10
	.p2align 3
.L553:
	movl	8(%r12), %eax
	leal	-1(%rax), %edx
	movl	%edx, 8(%r12)
	cmpl	$1, %eax
	jne	.L552
.L668:
	movq	(%r12), %rax
	movq	%r12, %rdi
	call	*16(%rax)
	testq	%rbp, %rbp
	je	.L556
	movl	$-1, %eax
	lock xaddl	%eax, 12(%r12)
.L557:
	cmpl	$1, %eax
	jne	.L552
	movq	(%r12), %rax
	movq	%r12, %rdi
	call	*24(%rax)
	jmp	.L552
	.p2align 4,,10
	.p2align 3
.L514:
	movl	12(%r12), %eax
	leal	-1(%rax), %edx
	movl	%edx, 12(%r12)
	jmp	.L515
	.p2align 4,,10
	.p2align 3
.L521:
	movl	12(%r12), %eax
	leal	-1(%rax), %edx
	movl	%edx, 12(%r12)
	jmp	.L522
	.p2align 4,,10
	.p2align 3
.L528:
	movl	12(%r12), %eax
	leal	-1(%rax), %edx
	movl	%edx, 12(%r12)
	jmp	.L529
	.p2align 4,,10
	.p2align 3
.L633:
	movl	12(%r12), %eax
	leal	-1(%rax), %edx
	movl	%edx, 12(%r12)
	jmp	.L634
	.p2align 4,,10
	.p2align 3
.L619:
	movl	12(%r12), %eax
	leal	-1(%rax), %edx
	movl	%edx, 12(%r12)
	jmp	.L620
	.p2align 4,,10
	.p2align 3
.L626:
	movl	12(%r12), %eax
	leal	-1(%rax), %edx
	movl	%edx, 12(%r12)
	jmp	.L627
	.p2align 4,,10
	.p2align 3
.L591:
	movl	12(%r12), %eax
	leal	-1(%rax), %edx
	movl	%edx, 12(%r12)
	jmp	.L592
	.p2align 4,,10
	.p2align 3
.L598:
	movl	12(%r12), %eax
	leal	-1(%rax), %edx
	movl	%edx, 12(%r12)
	jmp	.L599
	.p2align 4,,10
	.p2align 3
.L605:
	movl	12(%r12), %eax
	leal	-1(%rax), %edx
	movl	%edx, 12(%r12)
	jmp	.L606
	.p2align 4,,10
	.p2align 3
.L612:
	movl	12(%r12), %eax
	leal	-1(%rax), %edx
	movl	%edx, 12(%r12)
	jmp	.L613
	.p2align 4,,10
	.p2align 3
.L535:
	movl	12(%r12), %eax
	leal	-1(%rax), %edx
	movl	%edx, 12(%r12)
	jmp	.L536
	.p2align 4,,10
	.p2align 3
.L542:
	movl	12(%r12), %eax
	leal	-1(%rax), %edx
	movl	%edx, 12(%r12)
	jmp	.L543
	.p2align 4,,10
	.p2align 3
.L549:
	movl	12(%r12), %eax
	leal	-1(%rax), %edx
	movl	%edx, 12(%r12)
	jmp	.L550
	.p2align 4,,10
	.p2align 3
.L556:
	movl	12(%r12), %eax
	leal	-1(%rax), %edx
	movl	%edx, 12(%r12)
	jmp	.L557
	.p2align 4,,10
	.p2align 3
.L563:
	movl	12(%r12), %eax
	leal	-1(%rax), %edx
	movl	%edx, 12(%r12)
	jmp	.L564
	.p2align 4,,10
	.p2align 3
.L570:
	movl	12(%r12), %eax
	leal	-1(%rax), %edx
	movl	%edx, 12(%r12)
	jmp	.L571
	.p2align 4,,10
	.p2align 3
.L577:
	movl	12(%r12), %eax
	leal	-1(%rax), %edx
	movl	%edx, 12(%r12)
	jmp	.L578
	.p2align 4,,10
	.p2align 3
.L584:
	movl	12(%r12), %eax
	leal	-1(%rax), %edx
	movl	%edx, 12(%r12)
	jmp	.L585
	.cfi_endproc
.LFE11508:
	.size	_ZNSt23_Sp_counted_ptr_inplaceIN8asiodnp318MasterSessionStackESaIS1_ELN9__gnu_cxx12_Lock_policyE2EE10_M_disposeEv, .-_ZNSt23_Sp_counted_ptr_inplaceIN8asiodnp318MasterSessionStackESaIS1_ELN9__gnu_cxx12_Lock_policyE2EE10_M_disposeEv
	.section	.text.unlikely._ZSt20__throw_bad_weak_ptrv,"axG",@progbits,_ZSt20__throw_bad_weak_ptrv,comdat
	.weak	_ZSt20__throw_bad_weak_ptrv
	.type	_ZSt20__throw_bad_weak_ptrv, @function
_ZSt20__throw_bad_weak_ptrv:
.LFB1700:
	.cfi_startproc
	endbr64
	pushq	%rax
	.cfi_def_cfa_offset 16
	popq	%rax
	.cfi_def_cfa_offset 8
	movl	$8, %edi
	pushq	%rax
	.cfi_def_cfa_offset 16
	call	__cxa_allocate_exception@PLT
	movq	_ZNSt12bad_weak_ptrD1Ev@GOTPCREL(%rip), %rdx
	movq	_ZTISt12bad_weak_ptr@GOTPCREL(%rip), %rsi
	movq	%rax, %rdi
	movq	_ZTVSt12bad_weak_ptr@GOTPCREL(%rip), %rax
	addq	$16, %rax
	movq	%rax, (%rdi)
	call	__cxa_throw@PLT
	.cfi_endproc
.LFE1700:
	.size	_ZSt20__throw_bad_weak_ptrv, .-_ZSt20__throw_bad_weak_ptrv
	.section	.text._ZN4asio28asio_handler_is_continuationEz,"axG",@progbits,_ZN4asio28asio_handler_is_continuationEz,comdat
	.p2align 4
	.weak	_ZN4asio28asio_handler_is_continuationEz
	.type	_ZN4asio28asio_handler_is_continuationEz, @function
_ZN4asio28asio_handler_is_continuationEz:
.LFB3239:
	.cfi_startproc
	endbr64
	xorl	%eax, %eax
	ret
	.cfi_endproc
.LFE3239:
	.size	_ZN4asio28asio_handler_is_continuationEz, .-_ZN4asio28asio_handler_is_continuationEz
	.section	.text._ZN4asio6detail14strand_service7do_postERPNS1_11strand_implEPNS0_25task_io_service_operationEb,"axG",@progbits,_ZN4asio6detail14strand_service7do_postERPNS1_11strand_implEPNS0_25task_io_service_operationEb,comdat
	.align 2
	.p2align 4
	.weak	_ZN4asio6detail14strand_service7do_postERPNS1_11strand_implEPNS0_25task_io_service_operationEb
	.type	_ZN4asio6detail14strand_service7do_postERPNS1_11strand_implEPNS0_25task_io_service_operationEb, @function
_ZN4asio6detail14strand_service7do_postERPNS1_11strand_implEPNS0_25task_io_service_operationEb:
.LFB7115:
	.cfi_startproc
	endbr64
	pushq	%r13
	.cfi_def_cfa_offset 16
	.cfi_offset 13, -16
	movl	%ecx, %r13d
	pushq	%r12
	.cfi_def_cfa_offset 24
	.cfi_offset 12, -24
	movq	%rdi, %r12
	pushq	%rbp
	.cfi_def_cfa_offset 32
	.cfi_offset 6, -32
	movq	%rsi, %rbp
	pushq	%rbx
	.cfi_def_cfa_offset 40
	.cfi_offset 3, -40
	movq	%rdx, %rbx
	subq	$40, %rsp
	.cfi_def_cfa_offset 80
	movq	%fs:40, %rax
	movq	%rax, 24(%rsp)
	xorl	%eax, %eax
	movq	(%rsi), %rax
	leaq	24(%rax), %rdi
	call	pthread_mutex_lock@PLT
	movq	0(%rbp), %rdi
	cmpb	$0, 64(%rdi)
	je	.L685
	cmpq	$0, 80(%rdi)
	movq	$0, (%rbx)
	je	.L686
	movq	80(%rdi), %rax
	movq	%rbx, (%rax)
	movq	%rbx, 80(%rdi)
.L687:
	addq	$24, %rdi
	call	pthread_mutex_unlock@PLT
.L684:
	movq	24(%rsp), %rax
	xorq	%fs:40, %rax
	jne	.L714
	addq	$40, %rsp
	.cfi_remember_state
	.cfi_def_cfa_offset 40
	popq	%rbx
	.cfi_def_cfa_offset 32
	popq	%rbp
	.cfi_def_cfa_offset 24
	popq	%r12
	.cfi_def_cfa_offset 16
	popq	%r13
	.cfi_def_cfa_offset 8
	ret
	.p2align 4,,10
	.p2align 3
.L686:
	.cfi_restore_state
	movq	%rbx, %xmm0
	punpcklqdq	%xmm0, %xmm0
	movups	%xmm0, 72(%rdi)
	jmp	.L687
	.p2align 4,,10
	.p2align 3
.L685:
	movb	$1, 64(%rdi)
	addq	$24, %rdi
	call	pthread_mutex_unlock@PLT
	movq	0(%rbp), %rbp
	movq	$0, (%rbx)
	cmpq	$0, 96(%rbp)
	je	.L689
	movq	96(%rbp), %rax
	movq	%rbx, (%rax)
	movq	%rbx, 96(%rbp)
.L690:
	movq	40(%r12), %rbx
	cmpb	$0, 40(%rbx)
	jne	.L703
	testb	%r13b, %r13b
	je	.L691
.L703:
	data16	leaq	_ZN4asio6detail15keyword_tss_ptrINS0_10call_stackINS0_15task_io_serviceENS0_27task_io_service_thread_infoEE7contextEE6value_E@tlsgd(%rip), %rdi
	.value	0x6666
	rex64
	call	__tls_get_addr@PLT
	movq	(%rax), %rax
	testq	%rax, %rax
	jne	.L695
	jmp	.L691
	.p2align 4,,10
	.p2align 3
.L693:
	movq	16(%rax), %rax
	testq	%rax, %rax
	je	.L691
.L695:
	cmpq	(%rax), %rbx
	jne	.L693
	movq	8(%rax), %rax
	testq	%rax, %rax
	je	.L691
	addq	$1, 24(%rax)
	cmpq	$0, 16(%rax)
	movq	$0, 0(%rbp)
	je	.L696
	movq	16(%rax), %rdx
	movq	%rbp, (%rdx)
	movq	%rbp, 16(%rax)
	jmp	.L684
	.p2align 4,,10
	.p2align 3
.L691:
	lock addq	$1, 184(%rbx)
	leaq	48(%rbx), %r12
	movq	%r12, %rdi
	call	pthread_mutex_lock@PLT
	cmpq	$0, 200(%rbx)
	movq	$0, 0(%rbp)
	je	.L697
	movq	200(%rbx), %rax
	movq	%rbp, (%rax)
	movq	%rbp, 200(%rbx)
.L698:
	movq	136(%rbx), %rax
	orq	$1, %rax
	movq	%rax, 136(%rbx)
	cmpq	$1, %rax
	je	.L699
	movq	%r12, %rdi
	call	pthread_mutex_unlock@PLT
	leaq	88(%rbx), %rdi
	call	pthread_cond_signal@PLT
	jmp	.L684
	.p2align 4,,10
	.p2align 3
.L699:
	cmpb	$0, 176(%rbx)
	jne	.L701
	movq	144(%rbx), %rax
	testq	%rax, %rax
	je	.L701
	leaq	88(%rax), %rdx
	movb	$1, 176(%rbx)
	movl	96(%rax), %edi
	leaq	12(%rsp), %rcx
	movq	%rdx, 16(%rsp)
	movl	88(%rax), %edx
	movl	$3, %esi
	movl	$-2147483639, 12(%rsp)
	call	epoll_ctl@PLT
.L701:
	movq	%r12, %rdi
	call	pthread_mutex_unlock@PLT
	jmp	.L684
	.p2align 4,,10
	.p2align 3
.L689:
	movq	%rbx, %xmm0
	punpcklqdq	%xmm0, %xmm0
	movups	%xmm0, 88(%rbp)
	jmp	.L690
	.p2align 4,,10
	.p2align 3
.L697:
	movq	%rbp, %xmm0
	punpcklqdq	%xmm0, %xmm0
	movups	%xmm0, 192(%rbx)
	jmp	.L698
	.p2align 4,,10
	.p2align 3
.L696:
	movq	%rbp, %xmm0
	punpcklqdq	%xmm0, %xmm0
	movups	%xmm0, 8(%rax)
	jmp	.L684
.L714:
	call	__stack_chk_fail@PLT
	.cfi_endproc
.LFE7115:
	.size	_ZN4asio6detail14strand_service7do_postERPNS1_11strand_implEPNS0_25task_io_service_operationEb, .-_ZN4asio6detail14strand_service7do_postERPNS1_11strand_implEPNS0_25task_io_service_operationEb
	.text
	.align 2
	.p2align 4
	.globl	_ZN8asiodnp318MasterSessionStack13SetLogFiltersERKN7openpal10LogFiltersE
	.type	_ZN8asiodnp318MasterSessionStack13SetLogFiltersERKN7openpal10LogFiltersE, @function
_ZN8asiodnp318MasterSessionStack13SetLogFiltersERKN7openpal10LogFiltersE:
.LFB7839:
	.cfi_startproc
	endbr64
	pushq	%r14
	.cfi_def_cfa_offset 16
	.cfi_offset 14, -16
	pushq	%r13
	.cfi_def_cfa_offset 24
	.cfi_offset 13, -24
	pushq	%r12
	.cfi_def_cfa_offset 32
	.cfi_offset 12, -32
	pushq	%rbp
	.cfi_def_cfa_offset 40
	.cfi_offset 6, -40
	pushq	%rbx
	.cfi_def_cfa_offset 48
	.cfi_offset 3, -48
	movq	%rdi, %rbx
	subq	$32, %rsp
	.cfi_def_cfa_offset 80
	movl	(%rsi), %r14d
	movq	32(%rdi), %r12
	movq	%fs:40, %rax
	movq	%rax, 24(%rsp)
	xorl	%eax, %eax
	movq	%rdi, (%rsp)
	movq	%rsp, %rdi
	movl	%r14d, 8(%rsp)
	movq	40(%r12), %r13
	addq	$48, %r12
	call	_ZN4asio28asio_handler_is_continuationEz@PLT
	movl	%eax, %ebp
	data16	leaq	_ZN4asio6detail15keyword_tss_ptrINS0_10call_stackINS0_15task_io_serviceENS0_27task_io_service_thread_infoEE7contextEE6value_E@tlsgd(%rip), %rdi
	.value	0x6666
	rex64
	call	__tls_get_addr@PLT
	movq	(%rax), %rax
	testq	%rax, %rax
	je	.L716
	movq	8(%rax), %rax
	testq	%rax, %rax
	je	.L716
	movq	(%rax), %rdx
	testq	%rdx, %rdx
	je	.L716
	movq	$0, (%rax)
	movzbl	(%rdx), %eax
	cmpb	$39, %al
	jbe	.L717
	movb	%al, 40(%rdx)
	jmp	.L718
	.p2align 4,,10
	.p2align 3
.L717:
	movq	%rdx, %rdi
	call	_ZdlPv@PLT
.L716:
	movl	$41, %edi
	call	_Znwm@PLT
	movq	(%rsp), %rbx
	movl	8(%rsp), %r14d
	movb	$40, 40(%rax)
	movq	%rax, %rdx
.L718:
	movq	%rbx, 24(%rdx)
	movzbl	%bpl, %ecx
	movq	%r12, %rsi
	movq	%r13, %rdi
	leaq	_ZN4asio6detail18completion_handlerIZN8asiodnp318MasterSessionStack13SetLogFiltersERKN7openpal10LogFiltersEEUlvE_E11do_completeEPNS0_15task_io_serviceEPNS0_25task_io_service_operationERKSt10error_codem(%rip), %rax
	movq	$0, (%rdx)
	movq	%rax, 8(%rdx)
	movl	$0, 16(%rdx)
	movl	%r14d, 32(%rdx)
	call	_ZN4asio6detail14strand_service7do_postERPNS1_11strand_implEPNS0_25task_io_service_operationEb@PLT
	movq	24(%rsp), %rax
	xorq	%fs:40, %rax
	jne	.L730
	addq	$32, %rsp
	.cfi_remember_state
	.cfi_def_cfa_offset 48
	popq	%rbx
	.cfi_def_cfa_offset 40
	popq	%rbp
	.cfi_def_cfa_offset 32
	popq	%r12
	.cfi_def_cfa_offset 24
	popq	%r13
	.cfi_def_cfa_offset 16
	popq	%r14
	.cfi_def_cfa_offset 8
	ret
.L730:
	.cfi_restore_state
	call	__stack_chk_fail@PLT
	.cfi_endproc
.LFE7839:
	.size	_ZN8asiodnp318MasterSessionStack13SetLogFiltersERKN7openpal10LogFiltersE, .-_ZN8asiodnp318MasterSessionStack13SetLogFiltersERKN7openpal10LogFiltersE
	.section	.text._ZN8opendnp314TransportStackD2Ev,"axG",@progbits,_ZN8opendnp314TransportStackD5Ev,comdat
	.align 2
	.p2align 4
	.weak	_ZN8opendnp314TransportStackD2Ev
	.type	_ZN8opendnp314TransportStackD2Ev, @function
_ZN8opendnp314TransportStackD2Ev:
.LFB7810:
	.cfi_startproc
	endbr64
	pushq	%r12
	.cfi_def_cfa_offset 16
	.cfi_offset 12, -16
	pushq	%rbp
	.cfi_def_cfa_offset 24
	.cfi_offset 6, -24
	pushq	%rbx
	.cfi_def_cfa_offset 32
	.cfi_offset 3, -32
	movq	24(%rdi), %rbp
	movq	%rdi, %rbx
	testq	%rbp, %rbp
	je	.L733
	movq	_ZL28__gthrw___pthread_key_createPjPFvPvE@GOTPCREL(%rip), %r12
	testq	%r12, %r12
	je	.L734
	movl	$-1, %eax
	lock xaddl	%eax, 8(%rbp)
	cmpl	$1, %eax
	je	.L747
	.p2align 4,,10
	.p2align 3
.L733:
	movq	8(%rbx), %rbp
	testq	%rbp, %rbp
	je	.L731
	movq	_ZL28__gthrw___pthread_key_createPjPFvPvE@GOTPCREL(%rip), %r12
	testq	%r12, %r12
	je	.L741
	movl	$-1, %eax
	lock xaddl	%eax, 8(%rbp)
	cmpl	$1, %eax
	je	.L748
.L731:
	popq	%rbx
	.cfi_remember_state
	.cfi_def_cfa_offset 24
	popq	%rbp
	.cfi_def_cfa_offset 16
	popq	%r12
	.cfi_def_cfa_offset 8
	ret
	.p2align 4,,10
	.p2align 3
.L734:
	.cfi_restore_state
	movl	8(%rbp), %eax
	leal	-1(%rax), %edx
	movl	%edx, 8(%rbp)
	cmpl	$1, %eax
	jne	.L733
.L747:
	movq	0(%rbp), %rax
	movq	%rbp, %rdi
	call	*16(%rax)
	testq	%r12, %r12
	je	.L737
	movl	$-1, %eax
	lock xaddl	%eax, 12(%rbp)
.L738:
	cmpl	$1, %eax
	jne	.L733
	movq	0(%rbp), %rax
	movq	%rbp, %rdi
	call	*24(%rax)
	jmp	.L733
	.p2align 4,,10
	.p2align 3
.L741:
	movl	8(%rbp), %eax
	leal	-1(%rax), %edx
	movl	%edx, 8(%rbp)
	cmpl	$1, %eax
	jne	.L731
.L748:
	movq	0(%rbp), %rax
	movq	%rbp, %rdi
	call	*16(%rax)
	testq	%r12, %r12
	je	.L744
	movl	$-1, %eax
	lock xaddl	%eax, 12(%rbp)
.L745:
	cmpl	$1, %eax
	jne	.L731
	movq	0(%rbp), %rax
	popq	%rbx
	.cfi_remember_state
	.cfi_def_cfa_offset 24
	movq	%rbp, %rdi
	popq	%rbp
	.cfi_def_cfa_offset 16
	popq	%r12
	.cfi_def_cfa_offset 8
	movq	24(%rax), %rax
	jmp	*%rax
	.p2align 4,,10
	.p2align 3
.L737:
	.cfi_restore_state
	movl	12(%rbp), %eax
	leal	-1(%rax), %edx
	movl	%edx, 12(%rbp)
	jmp	.L738
	.p2align 4,,10
	.p2align 3
.L744:
	movl	12(%rbp), %eax
	leal	-1(%rax), %edx
	movl	%edx, 12(%rbp)
	jmp	.L745
	.cfi_endproc
.LFE7810:
	.size	_ZN8opendnp314TransportStackD2Ev, .-_ZN8opendnp314TransportStackD2Ev
	.weak	_ZN8opendnp314TransportStackD1Ev
	.set	_ZN8opendnp314TransportStackD1Ev,_ZN8opendnp314TransportStackD2Ev
	.text
	.align 2
	.p2align 4
	.globl	_ZNK8asiodnp318MasterSessionStack16CreateStatisticsEv
	.type	_ZNK8asiodnp318MasterSessionStack16CreateStatisticsEv, @function
_ZNK8asiodnp318MasterSessionStack16CreateStatisticsEv:
.LFB8042:
	.cfi_startproc
	endbr64
	pushq	%r12
	.cfi_def_cfa_offset 16
	.cfi_offset 12, -16
	movq	%rdi, %r12
	pushq	%rbx
	.cfi_def_cfa_offset 24
	.cfi_offset 3, -24
	movq	%rsi, %rbx
	subq	$40, %rsp
	.cfi_def_cfa_offset 64
	movq	64(%rsi), %rsi
	movq	%fs:40, %rax
	movq	%rax, 24(%rsp)
	xorl	%eax, %eax
	movq	%rsp, %rdi
	call	_ZNK8opendnp314TransportLayer13GetStatisticsEv@PLT
	movq	80(%rbx), %rdi
	call	_ZNK8opendnp39LinkLayer13GetStatisticsEv@PLT
	movdqa	(%rsp), %xmm1
	movdqu	(%rax), %xmm0
	movq	16(%rsp), %rax
	movups	%xmm1, 16(%r12)
	movq	%rax, 32(%r12)
	movups	%xmm0, (%r12)
	movq	24(%rsp), %rax
	xorq	%fs:40, %rax
	jne	.L752
	addq	$40, %rsp
	.cfi_remember_state
	.cfi_def_cfa_offset 24
	movq	%r12, %rax
	popq	%rbx
	.cfi_def_cfa_offset 16
	popq	%r12
	.cfi_def_cfa_offset 8
	ret
.L752:
	.cfi_restore_state
	call	__stack_chk_fail@PLT
	.cfi_endproc
.LFE8042:
	.size	_ZNK8asiodnp318MasterSessionStack16CreateStatisticsEv, .-_ZNK8asiodnp318MasterSessionStack16CreateStatisticsEv
	.p2align 4
	.type	_ZNSt17_Function_handlerIFN8opendnp315StackStatisticsEvEZN8asiodnp318MasterSessionStack18GetStackStatisticsEvEUlvE_E9_M_invokeERKSt9_Any_data, @function
_ZNSt17_Function_handlerIFN8opendnp315StackStatisticsEvEZN8asiodnp318MasterSessionStack18GetStackStatisticsEvEUlvE_E9_M_invokeERKSt9_Any_data:
.LFB9500:
	.cfi_startproc
	endbr64
	pushq	%r12
	.cfi_def_cfa_offset 16
	.cfi_offset 12, -16
	movq	%rdi, %r12
	subq	$16, %rsp
	.cfi_def_cfa_offset 32
	movq	%fs:40, %rax
	movq	%rax, 8(%rsp)
	xorl	%eax, %eax
	movq	(%rsi), %rax
	movq	(%rax), %rsi
	call	_ZNK8asiodnp318MasterSessionStack16CreateStatisticsEv@PLT
	movq	8(%rsp), %rax
	xorq	%fs:40, %rax
	jne	.L756
	addq	$16, %rsp
	.cfi_remember_state
	.cfi_def_cfa_offset 16
	movq	%r12, %rax
	popq	%r12
	.cfi_def_cfa_offset 8
	ret
.L756:
	.cfi_restore_state
	call	__stack_chk_fail@PLT
	.cfi_endproc
.LFE9500:
	.size	_ZNSt17_Function_handlerIFN8opendnp315StackStatisticsEvEZN8asiodnp318MasterSessionStack18GetStackStatisticsEvEUlvE_E9_M_invokeERKSt9_Any_data, .-_ZNSt17_Function_handlerIFN8opendnp315StackStatisticsEvEZN8asiodnp318MasterSessionStack18GetStackStatisticsEvEUlvE_E9_M_invokeERKSt9_Any_data
	.section	.text._ZNSt8functionIFbRN8opendnp312HeaderWriterEEEC2ERKS4_,"axG",@progbits,_ZNSt8functionIFbRN8opendnp312HeaderWriterEEEC5ERKS4_,comdat
	.align 2
	.p2align 4
	.weak	_ZNSt8functionIFbRN8opendnp312HeaderWriterEEEC2ERKS4_
	.type	_ZNSt8functionIFbRN8opendnp312HeaderWriterEEEC2ERKS4_, @function
_ZNSt8functionIFbRN8opendnp312HeaderWriterEEEC2ERKS4_:
.LFB8944:
	.cfi_startproc
	.cfi_personality 0x9b,DW.ref.__gxx_personality_v0
	.cfi_lsda 0x1b,.LLSDA8944
	endbr64
	movq	$0, 16(%rdi)
	movq	16(%rsi), %rax
	testq	%rax, %rax
	je	.L769
	pushq	%r12
	.cfi_def_cfa_offset 16
	.cfi_offset 12, -16
	movl	$2, %edx
	pushq	%rbp
	.cfi_def_cfa_offset 24
	.cfi_offset 6, -24
	movq	%rdi, %rbp
	pushq	%rbx
	.cfi_def_cfa_offset 32
	.cfi_offset 3, -32
	movq	%rsi, %rbx
.LEHB9:
	call	*%rax
.LEHE9:
	movdqu	16(%rbx), %xmm0
	movups	%xmm0, 16(%rbp)
	popq	%rbx
	.cfi_def_cfa_offset 24
	popq	%rbp
	.cfi_def_cfa_offset 16
	popq	%r12
	.cfi_def_cfa_offset 8
	ret
	.p2align 4,,10
	.p2align 3
.L769:
	.cfi_restore 3
	.cfi_restore 6
	.cfi_restore 12
	ret
.L761:
	.cfi_def_cfa_offset 32
	.cfi_offset 3, -32
	.cfi_offset 6, -24
	.cfi_offset 12, -16
	endbr64
	movq	%rax, %r12
.L759:
	movq	16(%rbp), %rax
	testq	%rax, %rax
	je	.L760
	movl	$3, %edx
	movq	%rbp, %rsi
	movq	%rbp, %rdi
	call	*%rax
.L760:
	movq	%r12, %rdi
.LEHB10:
	call	_Unwind_Resume@PLT
.LEHE10:
	.cfi_endproc
.LFE8944:
	.section	.gcc_except_table
.LLSDA8944:
	.byte	0xff
	.byte	0xff
	.byte	0x1
	.uleb128 .LLSDACSE8944-.LLSDACSB8944
.LLSDACSB8944:
	.uleb128 .LEHB9-.LFB8944
	.uleb128 .LEHE9-.LEHB9
	.uleb128 .L761-.LFB8944
	.uleb128 0
	.uleb128 .LEHB10-.LFB8944
	.uleb128 .LEHE10-.LEHB10
	.uleb128 0
	.uleb128 0
.LLSDACSE8944:
	.section	.text._ZNSt8functionIFbRN8opendnp312HeaderWriterEEEC2ERKS4_,"axG",@progbits,_ZNSt8functionIFbRN8opendnp312HeaderWriterEEEC5ERKS4_,comdat
	.size	_ZNSt8functionIFbRN8opendnp312HeaderWriterEEEC2ERKS4_, .-_ZNSt8functionIFbRN8opendnp312HeaderWriterEEEC2ERKS4_
	.weak	_ZNSt8functionIFbRN8opendnp312HeaderWriterEEEC1ERKS4_
	.set	_ZNSt8functionIFbRN8opendnp312HeaderWriterEEEC1ERKS4_,_ZNSt8functionIFbRN8opendnp312HeaderWriterEEEC2ERKS4_
	.section	.text._ZNSt16_Sp_counted_baseILN9__gnu_cxx12_Lock_policyE2EE10_M_releaseEv,"axG",@progbits,_ZNSt16_Sp_counted_baseILN9__gnu_cxx12_Lock_policyE2EE10_M_releaseEv,comdat
	.align 2
	.p2align 4
	.weak	_ZNSt16_Sp_counted_baseILN9__gnu_cxx12_Lock_policyE2EE10_M_releaseEv
	.type	_ZNSt16_Sp_counted_baseILN9__gnu_cxx12_Lock_policyE2EE10_M_releaseEv, @function
_ZNSt16_Sp_counted_baseILN9__gnu_cxx12_Lock_policyE2EE10_M_releaseEv:
.LFB9139:
	.cfi_startproc
	endbr64
	pushq	%rbp
	.cfi_def_cfa_offset 16
	.cfi_offset 6, -16
	movq	%rdi, %rbp
	pushq	%rbx
	.cfi_def_cfa_offset 24
	.cfi_offset 3, -24
	subq	$8, %rsp
	.cfi_def_cfa_offset 32
	movq	_ZL28__gthrw___pthread_key_createPjPFvPvE@GOTPCREL(%rip), %rbx
	testq	%rbx, %rbx
	je	.L773
	movl	$-1, %eax
	lock xaddl	%eax, 8(%rdi)
	cmpl	$1, %eax
	je	.L781
.L772:
	addq	$8, %rsp
	.cfi_remember_state
	.cfi_def_cfa_offset 24
	popq	%rbx
	.cfi_def_cfa_offset 16
	popq	%rbp
	.cfi_def_cfa_offset 8
	ret
	.p2align 4,,10
	.p2align 3
.L773:
	.cfi_restore_state
	movl	8(%rdi), %eax
	leal	-1(%rax), %edx
	movl	%edx, 8(%rdi)
	cmpl	$1, %eax
	jne	.L772
.L781:
	movq	0(%rbp), %rax
	movq	%rbp, %rdi
	call	*16(%rax)
	testq	%rbx, %rbx
	je	.L777
	movl	$-1, %eax
	lock xaddl	%eax, 12(%rbp)
.L778:
	cmpl	$1, %eax
	jne	.L772
	movq	0(%rbp), %rax
	movq	%rbp, %rdi
	movq	24(%rax), %rax
	addq	$8, %rsp
	.cfi_remember_state
	.cfi_def_cfa_offset 24
	popq	%rbx
	.cfi_def_cfa_offset 16
	popq	%rbp
	.cfi_def_cfa_offset 8
	jmp	*%rax
	.p2align 4,,10
	.p2align 3
.L777:
	.cfi_restore_state
	movl	12(%rbp), %eax
	leal	-1(%rax), %edx
	movl	%edx, 12(%rbp)
	jmp	.L778
	.cfi_endproc
.LFE9139:
	.size	_ZNSt16_Sp_counted_baseILN9__gnu_cxx12_Lock_policyE2EE10_M_releaseEv, .-_ZNSt16_Sp_counted_baseILN9__gnu_cxx12_Lock_policyE2EE10_M_releaseEv
	.text
	.p2align 4
	.type	_ZNSt14_Function_base13_Base_managerIZN8asiodnp318MasterSessionStack18GetStackStatisticsEvEUlvE_E10_M_managerERSt9_Any_dataRKS5_St18_Manager_operation, @function
_ZNSt14_Function_base13_Base_managerIZN8asiodnp318MasterSessionStack18GetStackStatisticsEvEUlvE_E10_M_managerERSt9_Any_dataRKS5_St18_Manager_operation:
.LFB9501:
	.cfi_startproc
	endbr64
	pushq	%rbp
	.cfi_def_cfa_offset 16
	.cfi_offset 6, -16
	pushq	%rbx
	.cfi_def_cfa_offset 24
	.cfi_offset 3, -24
	movq	%rdi, %rbx
	subq	$8, %rsp
	.cfi_def_cfa_offset 32
	cmpl	$2, %edx
	je	.L783
	ja	.L784
	testl	%edx, %edx
	je	.L803
	movq	(%rsi), %rax
	movq	%rax, (%rdi)
.L788:
	addq	$8, %rsp
	.cfi_remember_state
	.cfi_def_cfa_offset 24
	xorl	%eax, %eax
	popq	%rbx
	.cfi_def_cfa_offset 16
	popq	%rbp
	.cfi_def_cfa_offset 8
	ret
	.p2align 4,,10
	.p2align 3
.L784:
	.cfi_restore_state
	cmpl	$3, %edx
	jne	.L788
	movq	(%rdi), %rbp
	testq	%rbp, %rbp
	je	.L788
	movq	8(%rbp), %rdi
	testq	%rdi, %rdi
	je	.L791
	call	_ZNSt16_Sp_counted_baseILN9__gnu_cxx12_Lock_policyE2EE10_M_releaseEv@PLT
.L791:
	movq	%rbp, %rdi
	movl	$16, %esi
	call	_ZdlPvm@PLT
	addq	$8, %rsp
	.cfi_remember_state
	.cfi_def_cfa_offset 24
	xorl	%eax, %eax
	popq	%rbx
	.cfi_def_cfa_offset 16
	popq	%rbp
	.cfi_def_cfa_offset 8
	ret
	.p2align 4,,10
	.p2align 3
.L783:
	.cfi_restore_state
	movq	(%rsi), %rbp
	movl	$16, %edi
	call	_Znwm@PLT
	movq	0(%rbp), %rdx
	movq	%rdx, (%rax)
	movq	8(%rbp), %rdx
	movq	%rdx, 8(%rax)
	testq	%rdx, %rdx
	je	.L789
	cmpq	$0, _ZL28__gthrw___pthread_key_createPjPFvPvE@GOTPCREL(%rip)
	je	.L790
	lock addl	$1, 8(%rdx)
.L789:
	movq	%rax, (%rbx)
	addq	$8, %rsp
	.cfi_remember_state
	.cfi_def_cfa_offset 24
	xorl	%eax, %eax
	popq	%rbx
	.cfi_def_cfa_offset 16
	popq	%rbp
	.cfi_def_cfa_offset 8
	ret
	.p2align 4,,10
	.p2align 3
.L803:
	.cfi_restore_state
	leaq	_ZTIZN8asiodnp318MasterSessionStack18GetStackStatisticsEvEUlvE_(%rip), %rax
	movq	%rax, (%rdi)
	addq	$8, %rsp
	.cfi_remember_state
	.cfi_def_cfa_offset 24
	xorl	%eax, %eax
	popq	%rbx
	.cfi_def_cfa_offset 16
	popq	%rbp
	.cfi_def_cfa_offset 8
	ret
	.p2align 4,,10
	.p2align 3
.L790:
	.cfi_restore_state
	addl	$1, 8(%rdx)
	jmp	.L789
	.cfi_endproc
.LFE9501:
	.size	_ZNSt14_Function_base13_Base_managerIZN8asiodnp318MasterSessionStack18GetStackStatisticsEvEUlvE_E10_M_managerERSt9_Any_dataRKS5_St18_Manager_operation, .-_ZNSt14_Function_base13_Base_managerIZN8asiodnp318MasterSessionStack18GetStackStatisticsEvEUlvE_E10_M_managerERSt9_Any_dataRKS5_St18_Manager_operation
	.section	.text.unlikely
	.align 2
	.type	_ZZN8asiodnp318MasterSessionStack7AddScanEN7openpal12TimeDurationERKSt6vectorIN8opendnp36HeaderESaIS5_EERKNS4_10TaskConfigEENUlvE_D2Ev, @function
_ZZN8asiodnp318MasterSessionStack7AddScanEN7openpal12TimeDurationERKSt6vectorIN8opendnp36HeaderESaIS5_EERKNS4_10TaskConfigEENUlvE_D2Ev:
.LFB7895:
	.cfi_startproc
	.cfi_personality 0x9b,DW.ref.__gxx_personality_v0
	.cfi_lsda 0x1b,.LLSDA7895
	pushq	%rbx
	.cfi_def_cfa_offset 16
	.cfi_offset 3, -16
	movq	40(%rdi), %rax
	movq	%rdi, %rbx
	testq	%rax, %rax
	je	.L805
	leaq	24(%rdi), %rdi
	movl	$3, %edx
	movq	%rdi, %rsi
	call	*%rax
.L805:
	movq	8(%rbx), %rdi
	testq	%rdi, %rdi
	je	.L804
	popq	%rbx
	.cfi_remember_state
	.cfi_def_cfa_offset 8
	jmp	_ZNSt16_Sp_counted_baseILN9__gnu_cxx12_Lock_policyE2EE10_M_releaseEv@PLT
.L804:
	.cfi_restore_state
	popq	%rbx
	.cfi_def_cfa_offset 8
	ret
	.cfi_endproc
.LFE7895:
	.section	.gcc_except_table
.LLSDA7895:
	.byte	0xff
	.byte	0xff
	.byte	0x1
	.uleb128 .LLSDACSE7895-.LLSDACSB7895
.LLSDACSB7895:
.LLSDACSE7895:
	.section	.text.unlikely
	.size	_ZZN8asiodnp318MasterSessionStack7AddScanEN7openpal12TimeDurationERKSt6vectorIN8opendnp36HeaderESaIS5_EERKNS4_10TaskConfigEENUlvE_D2Ev, .-_ZZN8asiodnp318MasterSessionStack7AddScanEN7openpal12TimeDurationERKSt6vectorIN8opendnp36HeaderESaIS5_EERKNS4_10TaskConfigEENUlvE_D2Ev
	.set	_ZZN8asiodnp318MasterSessionStack7AddScanEN7openpal12TimeDurationERKSt6vectorIN8opendnp36HeaderESaIS5_EERKNS4_10TaskConfigEENUlvE_D1Ev,_ZZN8asiodnp318MasterSessionStack7AddScanEN7openpal12TimeDurationERKSt6vectorIN8opendnp36HeaderESaIS5_EERKNS4_10TaskConfigEENUlvE_D2Ev
	.text
	.p2align 4
	.type	_ZNSt14_Function_base13_Base_managerIZN8asiodnp318MasterSessionStack17AddAllObjectsScanEN8opendnp316GroupVariationIDEN7openpal12TimeDurationERKNS3_10TaskConfigEEUlvE_E10_M_managerERSt9_Any_dataRKSC_St18_Manager_operation, @function
_ZNSt14_Function_base13_Base_managerIZN8asiodnp318MasterSessionStack17AddAllObjectsScanEN8opendnp316GroupVariationIDEN7openpal12TimeDurationERKNS3_10TaskConfigEEUlvE_E10_M_managerERSt9_Any_dataRKSC_St18_Manager_operation:
.LFB9556:
	.cfi_startproc
	endbr64
	pushq	%rbp
	.cfi_def_cfa_offset 16
	.cfi_offset 6, -16
	pushq	%rbx
	.cfi_def_cfa_offset 24
	.cfi_offset 3, -24
	movq	%rdi, %rbx
	subq	$8, %rsp
	.cfi_def_cfa_offset 32
	cmpl	$2, %edx
	je	.L812
	ja	.L813
	testl	%edx, %edx
	je	.L832
	movq	(%rsi), %rax
	movq	%rax, (%rdi)
.L817:
	addq	$8, %rsp
	.cfi_remember_state
	.cfi_def_cfa_offset 24
	xorl	%eax, %eax
	popq	%rbx
	.cfi_def_cfa_offset 16
	popq	%rbp
	.cfi_def_cfa_offset 8
	ret
	.p2align 4,,10
	.p2align 3
.L813:
	.cfi_restore_state
	cmpl	$3, %edx
	jne	.L817
	movq	(%rdi), %rbp
	testq	%rbp, %rbp
	je	.L817
	movq	8(%rbp), %rdi
	testq	%rdi, %rdi
	je	.L820
	call	_ZNSt16_Sp_counted_baseILN9__gnu_cxx12_Lock_policyE2EE10_M_releaseEv@PLT
.L820:
	movq	%rbp, %rdi
	movl	$48, %esi
	call	_ZdlPvm@PLT
	addq	$8, %rsp
	.cfi_remember_state
	.cfi_def_cfa_offset 24
	xorl	%eax, %eax
	popq	%rbx
	.cfi_def_cfa_offset 16
	popq	%rbp
	.cfi_def_cfa_offset 8
	ret
	.p2align 4,,10
	.p2align 3
.L812:
	.cfi_restore_state
	movq	(%rsi), %rbp
	movl	$48, %edi
	call	_Znwm@PLT
	movq	0(%rbp), %rdx
	movq	%rdx, (%rax)
	movq	8(%rbp), %rdx
	movq	%rdx, 8(%rax)
	testq	%rdx, %rdx
	je	.L818
	cmpq	$0, _ZL28__gthrw___pthread_key_createPjPFvPvE@GOTPCREL(%rip)
	je	.L819
	lock addl	$1, 8(%rdx)
.L818:
	movzwl	16(%rbp), %edx
	movdqu	32(%rbp), %xmm0
	movw	%dx, 16(%rax)
	movq	24(%rbp), %rdx
	movups	%xmm0, 32(%rax)
	movq	%rdx, 24(%rax)
	movq	%rax, (%rbx)
	addq	$8, %rsp
	.cfi_remember_state
	.cfi_def_cfa_offset 24
	xorl	%eax, %eax
	popq	%rbx
	.cfi_def_cfa_offset 16
	popq	%rbp
	.cfi_def_cfa_offset 8
	ret
	.p2align 4,,10
	.p2align 3
.L832:
	.cfi_restore_state
	leaq	_ZTIZN8asiodnp318MasterSessionStack17AddAllObjectsScanEN8opendnp316GroupVariationIDEN7openpal12TimeDurationERKNS1_10TaskConfigEEUlvE_(%rip), %rax
	movq	%rax, (%rdi)
	addq	$8, %rsp
	.cfi_remember_state
	.cfi_def_cfa_offset 24
	xorl	%eax, %eax
	popq	%rbx
	.cfi_def_cfa_offset 16
	popq	%rbp
	.cfi_def_cfa_offset 8
	ret
	.p2align 4,,10
	.p2align 3
.L819:
	.cfi_restore_state
	addl	$1, 8(%rdx)
	jmp	.L818
	.cfi_endproc
.LFE9556:
	.size	_ZNSt14_Function_base13_Base_managerIZN8asiodnp318MasterSessionStack17AddAllObjectsScanEN8opendnp316GroupVariationIDEN7openpal12TimeDurationERKNS3_10TaskConfigEEUlvE_E10_M_managerERSt9_Any_dataRKSC_St18_Manager_operation, .-_ZNSt14_Function_base13_Base_managerIZN8asiodnp318MasterSessionStack17AddAllObjectsScanEN8opendnp316GroupVariationIDEN7openpal12TimeDurationERKNS3_10TaskConfigEEUlvE_E10_M_managerERSt9_Any_dataRKSC_St18_Manager_operation
	.p2align 4
	.type	_ZNSt14_Function_base13_Base_managerIZN8asiodnp318MasterSessionStack12AddClassScanERKN8opendnp310ClassFieldEN7openpal12TimeDurationERKNS3_10TaskConfigEEUlvE_E10_M_managerERSt9_Any_dataRKSE_St18_Manager_operation, @function
_ZNSt14_Function_base13_Base_managerIZN8asiodnp318MasterSessionStack12AddClassScanERKN8opendnp310ClassFieldEN7openpal12TimeDurationERKNS3_10TaskConfigEEUlvE_E10_M_managerERSt9_Any_dataRKSE_St18_Manager_operation:
.LFB9560:
	.cfi_startproc
	endbr64
	pushq	%rbp
	.cfi_def_cfa_offset 16
	.cfi_offset 6, -16
	pushq	%rbx
	.cfi_def_cfa_offset 24
	.cfi_offset 3, -24
	movq	%rdi, %rbx
	subq	$8, %rsp
	.cfi_def_cfa_offset 32
	cmpl	$2, %edx
	je	.L834
	ja	.L835
	testl	%edx, %edx
	je	.L854
	movq	(%rsi), %rax
	movq	%rax, (%rdi)
.L839:
	addq	$8, %rsp
	.cfi_remember_state
	.cfi_def_cfa_offset 24
	xorl	%eax, %eax
	popq	%rbx
	.cfi_def_cfa_offset 16
	popq	%rbp
	.cfi_def_cfa_offset 8
	ret
	.p2align 4,,10
	.p2align 3
.L835:
	.cfi_restore_state
	cmpl	$3, %edx
	jne	.L839
	movq	(%rdi), %rbp
	testq	%rbp, %rbp
	je	.L839
	movq	8(%rbp), %rdi
	testq	%rdi, %rdi
	je	.L842
	call	_ZNSt16_Sp_counted_baseILN9__gnu_cxx12_Lock_policyE2EE10_M_releaseEv@PLT
.L842:
	movq	%rbp, %rdi
	movl	$48, %esi
	call	_ZdlPvm@PLT
	addq	$8, %rsp
	.cfi_remember_state
	.cfi_def_cfa_offset 24
	xorl	%eax, %eax
	popq	%rbx
	.cfi_def_cfa_offset 16
	popq	%rbp
	.cfi_def_cfa_offset 8
	ret
	.p2align 4,,10
	.p2align 3
.L834:
	.cfi_restore_state
	movq	(%rsi), %rbp
	movl	$48, %edi
	call	_Znwm@PLT
	movq	0(%rbp), %rdx
	movq	%rdx, (%rax)
	movq	8(%rbp), %rdx
	movq	%rdx, 8(%rax)
	testq	%rdx, %rdx
	je	.L840
	cmpq	$0, _ZL28__gthrw___pthread_key_createPjPFvPvE@GOTPCREL(%rip)
	je	.L841
	lock addl	$1, 8(%rdx)
.L840:
	movzbl	16(%rbp), %edx
	movdqu	32(%rbp), %xmm0
	movb	%dl, 16(%rax)
	movq	24(%rbp), %rdx
	movups	%xmm0, 32(%rax)
	movq	%rdx, 24(%rax)
	movq	%rax, (%rbx)
	addq	$8, %rsp
	.cfi_remember_state
	.cfi_def_cfa_offset 24
	xorl	%eax, %eax
	popq	%rbx
	.cfi_def_cfa_offset 16
	popq	%rbp
	.cfi_def_cfa_offset 8
	ret
	.p2align 4,,10
	.p2align 3
.L854:
	.cfi_restore_state
	leaq	_ZTIZN8asiodnp318MasterSessionStack12AddClassScanERKN8opendnp310ClassFieldEN7openpal12TimeDurationERKNS1_10TaskConfigEEUlvE_(%rip), %rax
	movq	%rax, (%rdi)
	addq	$8, %rsp
	.cfi_remember_state
	.cfi_def_cfa_offset 24
	xorl	%eax, %eax
	popq	%rbx
	.cfi_def_cfa_offset 16
	popq	%rbp
	.cfi_def_cfa_offset 8
	ret
	.p2align 4,,10
	.p2align 3
.L841:
	.cfi_restore_state
	addl	$1, 8(%rdx)
	jmp	.L840
	.cfi_endproc
.LFE9560:
	.size	_ZNSt14_Function_base13_Base_managerIZN8asiodnp318MasterSessionStack12AddClassScanERKN8opendnp310ClassFieldEN7openpal12TimeDurationERKNS3_10TaskConfigEEUlvE_E10_M_managerERSt9_Any_dataRKSE_St18_Manager_operation, .-_ZNSt14_Function_base13_Base_managerIZN8asiodnp318MasterSessionStack12AddClassScanERKN8opendnp310ClassFieldEN7openpal12TimeDurationERKNS3_10TaskConfigEEUlvE_E10_M_managerERSt9_Any_dataRKSE_St18_Manager_operation
	.p2align 4
	.type	_ZNSt14_Function_base13_Base_managerIZN8asiodnp318MasterSessionStack12AddRangeScanEN8opendnp316GroupVariationIDEttN7openpal12TimeDurationERKNS3_10TaskConfigEEUlvE_E10_M_managerERSt9_Any_dataRKSC_St18_Manager_operation, @function
_ZNSt14_Function_base13_Base_managerIZN8asiodnp318MasterSessionStack12AddRangeScanEN8opendnp316GroupVariationIDEttN7openpal12TimeDurationERKNS3_10TaskConfigEEUlvE_E10_M_managerERSt9_Any_dataRKSC_St18_Manager_operation:
.LFB9564:
	.cfi_startproc
	endbr64
	pushq	%rbp
	.cfi_def_cfa_offset 16
	.cfi_offset 6, -16
	pushq	%rbx
	.cfi_def_cfa_offset 24
	.cfi_offset 3, -24
	movq	%rdi, %rbx
	subq	$8, %rsp
	.cfi_def_cfa_offset 32
	cmpl	$2, %edx
	je	.L856
	ja	.L857
	testl	%edx, %edx
	je	.L876
	movq	(%rsi), %rax
	movq	%rax, (%rdi)
.L861:
	addq	$8, %rsp
	.cfi_remember_state
	.cfi_def_cfa_offset 24
	xorl	%eax, %eax
	popq	%rbx
	.cfi_def_cfa_offset 16
	popq	%rbp
	.cfi_def_cfa_offset 8
	ret
	.p2align 4,,10
	.p2align 3
.L857:
	.cfi_restore_state
	cmpl	$3, %edx
	jne	.L861
	movq	(%rdi), %rbp
	testq	%rbp, %rbp
	je	.L861
	movq	8(%rbp), %rdi
	testq	%rdi, %rdi
	je	.L864
	call	_ZNSt16_Sp_counted_baseILN9__gnu_cxx12_Lock_policyE2EE10_M_releaseEv@PLT
.L864:
	movq	%rbp, %rdi
	movl	$48, %esi
	call	_ZdlPvm@PLT
	addq	$8, %rsp
	.cfi_remember_state
	.cfi_def_cfa_offset 24
	xorl	%eax, %eax
	popq	%rbx
	.cfi_def_cfa_offset 16
	popq	%rbp
	.cfi_def_cfa_offset 8
	ret
	.p2align 4,,10
	.p2align 3
.L856:
	.cfi_restore_state
	movq	(%rsi), %rbp
	movl	$48, %edi
	call	_Znwm@PLT
	movq	0(%rbp), %rdx
	movq	%rdx, (%rax)
	movq	8(%rbp), %rdx
	movq	%rdx, 8(%rax)
	testq	%rdx, %rdx
	je	.L862
	cmpq	$0, _ZL28__gthrw___pthread_key_createPjPFvPvE@GOTPCREL(%rip)
	je	.L863
	lock addl	$1, 8(%rdx)
.L862:
	movzwl	16(%rbp), %edx
	movdqu	32(%rbp), %xmm0
	movw	%dx, 16(%rax)
	movl	18(%rbp), %edx
	movups	%xmm0, 32(%rax)
	movl	%edx, 18(%rax)
	movq	24(%rbp), %rdx
	movq	%rdx, 24(%rax)
	movq	%rax, (%rbx)
	addq	$8, %rsp
	.cfi_remember_state
	.cfi_def_cfa_offset 24
	xorl	%eax, %eax
	popq	%rbx
	.cfi_def_cfa_offset 16
	popq	%rbp
	.cfi_def_cfa_offset 8
	ret
	.p2align 4,,10
	.p2align 3
.L876:
	.cfi_restore_state
	leaq	_ZTIZN8asiodnp318MasterSessionStack12AddRangeScanEN8opendnp316GroupVariationIDEttN7openpal12TimeDurationERKNS1_10TaskConfigEEUlvE_(%rip), %rax
	movq	%rax, (%rdi)
	addq	$8, %rsp
	.cfi_remember_state
	.cfi_def_cfa_offset 24
	xorl	%eax, %eax
	popq	%rbx
	.cfi_def_cfa_offset 16
	popq	%rbp
	.cfi_def_cfa_offset 8
	ret
	.p2align 4,,10
	.p2align 3
.L863:
	.cfi_restore_state
	addl	$1, 8(%rdx)
	jmp	.L862
	.cfi_endproc
.LFE9564:
	.size	_ZNSt14_Function_base13_Base_managerIZN8asiodnp318MasterSessionStack12AddRangeScanEN8opendnp316GroupVariationIDEttN7openpal12TimeDurationERKNS3_10TaskConfigEEUlvE_E10_M_managerERSt9_Any_dataRKSC_St18_Manager_operation, .-_ZNSt14_Function_base13_Base_managerIZN8asiodnp318MasterSessionStack12AddRangeScanEN8opendnp316GroupVariationIDEttN7openpal12TimeDurationERKNS3_10TaskConfigEEUlvE_E10_M_managerERSt9_Any_dataRKSC_St18_Manager_operation
	.section	.text.unlikely
	.align 2
	.type	_ZZN8asiodnp318MasterSessionStack4ScanERKSt6vectorIN8opendnp36HeaderESaIS3_EERKNS2_10TaskConfigEENUlvE_D2Ev, @function
_ZZN8asiodnp318MasterSessionStack4ScanERKSt6vectorIN8opendnp36HeaderESaIS3_EERKNS2_10TaskConfigEENUlvE_D2Ev:
.LFB7954:
	.cfi_startproc
	.cfi_personality 0x9b,DW.ref.__gxx_personality_v0
	.cfi_lsda 0x1b,.LLSDA7954
	pushq	%rbx
	.cfi_def_cfa_offset 16
	.cfi_offset 3, -16
	movq	32(%rdi), %rax
	movq	%rdi, %rbx
	testq	%rax, %rax
	je	.L878
	leaq	16(%rdi), %rdi
	movl	$3, %edx
	movq	%rdi, %rsi
	call	*%rax
.L878:
	movq	8(%rbx), %rdi
	testq	%rdi, %rdi
	je	.L877
	popq	%rbx
	.cfi_remember_state
	.cfi_def_cfa_offset 8
	jmp	_ZNSt16_Sp_counted_baseILN9__gnu_cxx12_Lock_policyE2EE10_M_releaseEv@PLT
.L877:
	.cfi_restore_state
	popq	%rbx
	.cfi_def_cfa_offset 8
	ret
	.cfi_endproc
.LFE7954:
	.section	.gcc_except_table
.LLSDA7954:
	.byte	0xff
	.byte	0xff
	.byte	0x1
	.uleb128 .LLSDACSE7954-.LLSDACSB7954
.LLSDACSB7954:
.LLSDACSE7954:
	.section	.text.unlikely
	.size	_ZZN8asiodnp318MasterSessionStack4ScanERKSt6vectorIN8opendnp36HeaderESaIS3_EERKNS2_10TaskConfigEENUlvE_D2Ev, .-_ZZN8asiodnp318MasterSessionStack4ScanERKSt6vectorIN8opendnp36HeaderESaIS3_EERKNS2_10TaskConfigEENUlvE_D2Ev
	.set	_ZZN8asiodnp318MasterSessionStack4ScanERKSt6vectorIN8opendnp36HeaderESaIS3_EERKNS2_10TaskConfigEENUlvE_D1Ev,_ZZN8asiodnp318MasterSessionStack4ScanERKSt6vectorIN8opendnp36HeaderESaIS3_EERKNS2_10TaskConfigEENUlvE_D2Ev
	.align 2
	.type	_ZZN8asiodnp318MasterSessionStack7RestartEN8opendnp311RestartTypeERKSt8functionIFvRKNS1_22RestartOperationResultEEENS1_10TaskConfigEENUlvE_D2Ev, @function
_ZZN8asiodnp318MasterSessionStack7RestartEN8opendnp311RestartTypeERKSt8functionIFvRKNS1_22RestartOperationResultEEENS1_10TaskConfigEENUlvE_D2Ev:
.LFB7997:
	.cfi_startproc
	.cfi_personality 0x9b,DW.ref.__gxx_personality_v0
	.cfi_lsda 0x1b,.LLSDA7997
	pushq	%rbx
	.cfi_def_cfa_offset 16
	.cfi_offset 3, -16
	movq	40(%rdi), %rax
	movq	%rdi, %rbx
	testq	%rax, %rax
	je	.L885
	leaq	24(%rdi), %rdi
	movl	$3, %edx
	movq	%rdi, %rsi
	call	*%rax
.L885:
	movq	8(%rbx), %rdi
	testq	%rdi, %rdi
	je	.L884
	popq	%rbx
	.cfi_remember_state
	.cfi_def_cfa_offset 8
	jmp	_ZNSt16_Sp_counted_baseILN9__gnu_cxx12_Lock_policyE2EE10_M_releaseEv@PLT
.L884:
	.cfi_restore_state
	popq	%rbx
	.cfi_def_cfa_offset 8
	ret
	.cfi_endproc
.LFE7997:
	.section	.gcc_except_table
.LLSDA7997:
	.byte	0xff
	.byte	0xff
	.byte	0x1
	.uleb128 .LLSDACSE7997-.LLSDACSB7997
.LLSDACSB7997:
.LLSDACSE7997:
	.section	.text.unlikely
	.size	_ZZN8asiodnp318MasterSessionStack7RestartEN8opendnp311RestartTypeERKSt8functionIFvRKNS1_22RestartOperationResultEEENS1_10TaskConfigEENUlvE_D2Ev, .-_ZZN8asiodnp318MasterSessionStack7RestartEN8opendnp311RestartTypeERKSt8functionIFvRKNS1_22RestartOperationResultEEENS1_10TaskConfigEENUlvE_D2Ev
	.set	_ZZN8asiodnp318MasterSessionStack7RestartEN8opendnp311RestartTypeERKSt8functionIFvRKNS1_22RestartOperationResultEEENS1_10TaskConfigEENUlvE_D1Ev,_ZZN8asiodnp318MasterSessionStack7RestartEN8opendnp311RestartTypeERKSt8functionIFvRKNS1_22RestartOperationResultEEENS1_10TaskConfigEENUlvE_D2Ev
	.align 2
	.type	_ZZN8asiodnp318MasterSessionStack16SelectAndOperateEON8opendnp310CommandSetERKSt8functionIFvRKNS1_18ICommandTaskResultEEERKNS1_10TaskConfigEENUlvE_D2Ev, @function
_ZZN8asiodnp318MasterSessionStack16SelectAndOperateEON8opendnp310CommandSetERKSt8functionIFvRKNS1_18ICommandTaskResultEEERKNS1_10TaskConfigEENUlvE_D2Ev:
.LFB8029:
	.cfi_startproc
	.cfi_personality 0x9b,DW.ref.__gxx_personality_v0
	.cfi_lsda 0x1b,.LLSDA8029
	pushq	%rbx
	.cfi_def_cfa_offset 16
	.cfi_offset 3, -16
	movq	64(%rdi), %rax
	movq	%rdi, %rbx
	testq	%rax, %rax
	je	.L892
	leaq	48(%rdi), %rdi
	movl	$3, %edx
	movq	%rdi, %rsi
	call	*%rax
.L892:
	movq	24(%rbx), %rdi
	testq	%rdi, %rdi
	je	.L893
	call	_ZNSt16_Sp_counted_baseILN9__gnu_cxx12_Lock_policyE2EE10_M_releaseEv@PLT
.L893:
	movq	8(%rbx), %rdi
	testq	%rdi, %rdi
	je	.L891
	popq	%rbx
	.cfi_remember_state
	.cfi_def_cfa_offset 8
	jmp	_ZNSt16_Sp_counted_baseILN9__gnu_cxx12_Lock_policyE2EE10_M_releaseEv@PLT
.L891:
	.cfi_restore_state
	popq	%rbx
	.cfi_def_cfa_offset 8
	ret
	.cfi_endproc
.LFE8029:
	.section	.gcc_except_table
.LLSDA8029:
	.byte	0xff
	.byte	0xff
	.byte	0x1
	.uleb128 .LLSDACSE8029-.LLSDACSB8029
.LLSDACSB8029:
.LLSDACSE8029:
	.section	.text.unlikely
	.size	_ZZN8asiodnp318MasterSessionStack16SelectAndOperateEON8opendnp310CommandSetERKSt8functionIFvRKNS1_18ICommandTaskResultEEERKNS1_10TaskConfigEENUlvE_D2Ev, .-_ZZN8asiodnp318MasterSessionStack16SelectAndOperateEON8opendnp310CommandSetERKSt8functionIFvRKNS1_18ICommandTaskResultEEERKNS1_10TaskConfigEENUlvE_D2Ev
	.set	_ZZN8asiodnp318MasterSessionStack16SelectAndOperateEON8opendnp310CommandSetERKSt8functionIFvRKNS1_18ICommandTaskResultEEERKNS1_10TaskConfigEENUlvE_D1Ev,_ZZN8asiodnp318MasterSessionStack16SelectAndOperateEON8opendnp310CommandSetERKSt8functionIFvRKNS1_18ICommandTaskResultEEERKNS1_10TaskConfigEENUlvE_D2Ev
	.align 2
	.type	_ZZN8asiodnp318MasterSessionStack13DirectOperateEON8opendnp310CommandSetERKSt8functionIFvRKNS1_18ICommandTaskResultEEERKNS1_10TaskConfigEENUlvE_D2Ev, @function
_ZZN8asiodnp318MasterSessionStack13DirectOperateEON8opendnp310CommandSetERKSt8functionIFvRKNS1_18ICommandTaskResultEEERKNS1_10TaskConfigEENUlvE_D2Ev:
.LFB8037:
	.cfi_startproc
	.cfi_personality 0x9b,DW.ref.__gxx_personality_v0
	.cfi_lsda 0x1b,.LLSDA8037
	pushq	%rbx
	.cfi_def_cfa_offset 16
	.cfi_offset 3, -16
	movq	64(%rdi), %rax
	movq	%rdi, %rbx
	testq	%rax, %rax
	je	.L903
	leaq	48(%rdi), %rdi
	movl	$3, %edx
	movq	%rdi, %rsi
	call	*%rax
.L903:
	movq	24(%rbx), %rdi
	testq	%rdi, %rdi
	je	.L904
	call	_ZNSt16_Sp_counted_baseILN9__gnu_cxx12_Lock_policyE2EE10_M_releaseEv@PLT
.L904:
	movq	8(%rbx), %rdi
	testq	%rdi, %rdi
	je	.L902
	popq	%rbx
	.cfi_remember_state
	.cfi_def_cfa_offset 8
	jmp	_ZNSt16_Sp_counted_baseILN9__gnu_cxx12_Lock_policyE2EE10_M_releaseEv@PLT
.L902:
	.cfi_restore_state
	popq	%rbx
	.cfi_def_cfa_offset 8
	ret
	.cfi_endproc
.LFE8037:
	.section	.gcc_except_table
.LLSDA8037:
	.byte	0xff
	.byte	0xff
	.byte	0x1
	.uleb128 .LLSDACSE8037-.LLSDACSB8037
.LLSDACSB8037:
.LLSDACSE8037:
	.section	.text.unlikely
	.size	_ZZN8asiodnp318MasterSessionStack13DirectOperateEON8opendnp310CommandSetERKSt8functionIFvRKNS1_18ICommandTaskResultEEERKNS1_10TaskConfigEENUlvE_D2Ev, .-_ZZN8asiodnp318MasterSessionStack13DirectOperateEON8opendnp310CommandSetERKSt8functionIFvRKNS1_18ICommandTaskResultEEERKNS1_10TaskConfigEENUlvE_D2Ev
	.set	_ZZN8asiodnp318MasterSessionStack13DirectOperateEON8opendnp310CommandSetERKSt8functionIFvRKNS1_18ICommandTaskResultEEERKNS1_10TaskConfigEENUlvE_D1Ev,_ZZN8asiodnp318MasterSessionStack13DirectOperateEON8opendnp310CommandSetERKSt8functionIFvRKNS1_18ICommandTaskResultEEERKNS1_10TaskConfigEENUlvE_D2Ev
	.align 2
.LCOLDB24:
	.text
.LHOTB24:
	.align 2
	.p2align 4
	.globl	_ZN8asiodnp318MasterSessionStack13BeginShutdownEv
	.type	_ZN8asiodnp318MasterSessionStack13BeginShutdownEv, @function
_ZN8asiodnp318MasterSessionStack13BeginShutdownEv:
.LFB7861:
	.cfi_startproc
	.cfi_personality 0x9b,DW.ref.__gxx_personality_v0
	.cfi_lsda 0x1b,.LLSDA7861
	endbr64
	pushq	%r13
	.cfi_def_cfa_offset 16
	.cfi_offset 13, -16
	pushq	%r12
	.cfi_def_cfa_offset 24
	.cfi_offset 12, -24
	pushq	%rbp
	.cfi_def_cfa_offset 32
	.cfi_offset 6, -32
	pushq	%rbx
	.cfi_def_cfa_offset 40
	.cfi_offset 3, -40
	subq	$40, %rsp
	.cfi_def_cfa_offset 80
	movq	56(%rdi), %rbp
	movq	48(%rdi), %rdx
	movq	%fs:40, %rax
	movq	%rax, 24(%rsp)
	xorl	%eax, %eax
	testq	%rbp, %rbp
	je	.L914
	movq	_ZL28__gthrw___pthread_key_createPjPFvPvE@GOTPCREL(%rip), %rsi
	leaq	8(%rbp), %rcx
	testq	%rsi, %rsi
	je	.L915
	lock addl	$1, (%rcx)
.L916:
	movq	%rdx, %xmm0
	movq	%rbp, %xmm2
	movq	32(%rdi), %rax
	punpcklqdq	%xmm2, %xmm0
	movaps	%xmm0, (%rsp)
	testq	%rsi, %rsi
	je	.L949
	lock addl	$1, (%rcx)
.L917:
	movq	%rsp, %rdi
	movq	40(%rax), %r12
	leaq	48(%rax), %r13
	xorl	%eax, %eax
	call	_ZN4asio28asio_handler_is_continuationEz@PLT
	movl	%eax, %ebx
	data16	leaq	_ZN4asio6detail15keyword_tss_ptrINS0_10call_stackINS0_15task_io_serviceENS0_27task_io_service_thread_infoEE7contextEE6value_E@tlsgd(%rip), %rdi
	.value	0x6666
	rex64
	call	__tls_get_addr@PLT
	movq	(%rax), %rax
	testq	%rax, %rax
	je	.L918
	movq	8(%rax), %rax
	testq	%rax, %rax
	je	.L918
	movq	(%rax), %rdx
	testq	%rdx, %rdx
	je	.L918
	movq	$0, (%rax)
	movzbl	(%rdx), %eax
	cmpb	$39, %al
	jbe	.L919
	movb	%al, 40(%rdx)
.L920:
	leaq	_ZN4asio6detail18completion_handlerIZN8asiodnp318MasterSessionStack13BeginShutdownEvEUlvE_E11do_completeEPNS0_15task_io_serviceEPNS0_25task_io_service_operationERKSt10error_codem(%rip), %rax
	movq	%r12, %rdi
	movzbl	%bl, %ecx
	movq	%r13, %rsi
	movq	$0, (%rdx)
	pxor	%xmm0, %xmm0
	movq	%rax, 8(%rdx)
	movdqa	(%rsp), %xmm1
	movl	$0, 16(%rdx)
	movups	%xmm1, 24(%rdx)
	movaps	%xmm0, (%rsp)
	call	_ZN4asio6detail14strand_service7do_postERPNS1_11strand_implEPNS0_25task_io_service_operationEb@PLT
	movq	8(%rsp), %rdi
	testq	%rdi, %rdi
	je	.L921
	call	_ZNSt16_Sp_counted_baseILN9__gnu_cxx12_Lock_policyE2EE10_M_releaseEv@PLT
.L921:
	testq	%rbp, %rbp
	je	.L913
	movq	%rbp, %rdi
	call	_ZNSt16_Sp_counted_baseILN9__gnu_cxx12_Lock_policyE2EE10_M_releaseEv@PLT
.L913:
	movq	24(%rsp), %rax
	xorq	%fs:40, %rax
	jne	.L950
	addq	$40, %rsp
	.cfi_remember_state
	.cfi_def_cfa_offset 40
	popq	%rbx
	.cfi_def_cfa_offset 32
	popq	%rbp
	.cfi_def_cfa_offset 24
	popq	%r12
	.cfi_def_cfa_offset 16
	popq	%r13
	.cfi_def_cfa_offset 8
	ret
	.p2align 4,,10
	.p2align 3
.L915:
	.cfi_restore_state
	addl	$1, 8(%rbp)
	jmp	.L916
	.p2align 4,,10
	.p2align 3
.L919:
	movq	%rdx, %rdi
	call	_ZdlPv@PLT
.L918:
	movl	$41, %edi
.LEHB11:
	call	_Znwm@PLT
.LEHE11:
	movb	$40, 40(%rax)
	movq	%rax, %rdx
	jmp	.L920
	.p2align 4,,10
	.p2align 3
.L949:
	addl	$1, 8(%rbp)
	jmp	.L917
	.p2align 4,,10
	.p2align 3
.L914:
	movq	%rdx, (%rsp)
	movq	32(%rdi), %rax
	movq	$0, 8(%rsp)
	jmp	.L917
.L950:
	call	__stack_chk_fail@PLT
.L931:
	endbr64
	movq	%rax, %r12
	jmp	.L924
	.section	.gcc_except_table
.LLSDA7861:
	.byte	0xff
	.byte	0xff
	.byte	0x1
	.uleb128 .LLSDACSE7861-.LLSDACSB7861
.LLSDACSB7861:
	.uleb128 .LEHB11-.LFB7861
	.uleb128 .LEHE11-.LEHB11
	.uleb128 .L931-.LFB7861
	.uleb128 0
.LLSDACSE7861:
	.text
	.cfi_endproc
	.section	.text.unlikely
	.cfi_startproc
	.cfi_personality 0x9b,DW.ref.__gxx_personality_v0
	.cfi_lsda 0x1b,.LLSDAC7861
	.type	_ZN8asiodnp318MasterSessionStack13BeginShutdownEv.cold, @function
_ZN8asiodnp318MasterSessionStack13BeginShutdownEv.cold:
.LFSB7861:
.L924:
	.cfi_def_cfa_offset 80
	.cfi_offset 3, -40
	.cfi_offset 6, -32
	.cfi_offset 12, -24
	.cfi_offset 13, -16
	movq	8(%rsp), %rdi
	testq	%rdi, %rdi
	je	.L925
	call	_ZNSt16_Sp_counted_baseILN9__gnu_cxx12_Lock_policyE2EE10_M_releaseEv@PLT
.L925:
	testq	%rbp, %rbp
	je	.L927
	movq	%rbp, %rdi
	call	_ZNSt16_Sp_counted_baseILN9__gnu_cxx12_Lock_policyE2EE10_M_releaseEv@PLT
.L927:
	movq	%r12, %rdi
.LEHB12:
	call	_Unwind_Resume@PLT
.LEHE12:
	.cfi_endproc
.LFE7861:
	.section	.gcc_except_table
.LLSDAC7861:
	.byte	0xff
	.byte	0xff
	.byte	0x1
	.uleb128 .LLSDACSEC7861-.LLSDACSBC7861
.LLSDACSBC7861:
	.uleb128 .LEHB12-.LCOLDB24
	.uleb128 .LEHE12-.LEHB12
	.uleb128 0
	.uleb128 0
.LLSDACSEC7861:
	.section	.text.unlikely
	.text
	.size	_ZN8asiodnp318MasterSessionStack13BeginShutdownEv, .-_ZN8asiodnp318MasterSessionStack13BeginShutdownEv
	.section	.text.unlikely
	.size	_ZN8asiodnp318MasterSessionStack13BeginShutdownEv.cold, .-_ZN8asiodnp318MasterSessionStack13BeginShutdownEv.cold
.LCOLDE24:
	.text
.LHOTE24:
	.section	.text.unlikely
	.align 2
.LCOLDB25:
	.text
.LHOTB25:
	.align 2
	.p2align 4
	.globl	_ZN8asiodnp318MasterSessionStack14ScanAllObjectsEN8opendnp316GroupVariationIDERKNS1_10TaskConfigE
	.type	_ZN8asiodnp318MasterSessionStack14ScanAllObjectsEN8opendnp316GroupVariationIDERKNS1_10TaskConfigE, @function
_ZN8asiodnp318MasterSessionStack14ScanAllObjectsEN8opendnp316GroupVariationIDERKNS1_10TaskConfigE:
.LFB7959:
	.cfi_startproc
	.cfi_personality 0x9b,DW.ref.__gxx_personality_v0
	.cfi_lsda 0x1b,.LLSDA7959
	endbr64
	pushq	%r13
	.cfi_def_cfa_offset 16
	.cfi_offset 13, -16
	pushq	%r12
	.cfi_def_cfa_offset 24
	.cfi_offset 12, -24
	pushq	%rbp
	.cfi_def_cfa_offset 32
	.cfi_offset 6, -32
	pushq	%rbx
	.cfi_def_cfa_offset 40
	.cfi_offset 3, -40
	subq	$72, %rsp
	.cfi_def_cfa_offset 112
	movq	24(%rdi), %rbp
	movq	%fs:40, %rax
	movq	%rax, 56(%rsp)
	xorl	%eax, %eax
	testq	%rbp, %rbp
	je	.L952
	movl	8(%rbp), %eax
	leaq	8(%rbp), %rcx
.L954:
	testl	%eax, %eax
	je	.L952
	leal	1(%rax), %r8d
	lock cmpxchgl	%r8d, (%rcx)
	jne	.L954
	movq	16(%rdi), %r10
	cmpq	$0, _ZL28__gthrw___pthread_key_createPjPFvPvE@GOTPCREL(%rip)
	movq	%rbp, 8(%rsp)
	movl	(%rdx), %r9d
	movzbl	4(%rdx), %r8d
	movq	8(%rdx), %rax
	movq	32(%rdi), %r12
	movq	%r10, (%rsp)
	je	.L955
	lock addl	$1, (%rcx)
.L956:
	movq	%rax, 32(%rsp)
	movq	%rsp, %rdi
	xorl	%eax, %eax
	movq	40(%r12), %r13
	movw	%si, 16(%rsp)
	addq	$48, %r12
	movl	%r9d, 24(%rsp)
	movb	%r8b, 28(%rsp)
	call	_ZN4asio28asio_handler_is_continuationEz@PLT
	movl	%eax, %ebx
	data16	leaq	_ZN4asio6detail15keyword_tss_ptrINS0_10call_stackINS0_15task_io_serviceENS0_27task_io_service_thread_infoEE7contextEE6value_E@tlsgd(%rip), %rdi
	.value	0x6666
	rex64
	call	__tls_get_addr@PLT
	movq	(%rax), %rax
	testq	%rax, %rax
	je	.L957
	movq	8(%rax), %rax
	testq	%rax, %rax
	je	.L957
	movq	(%rax), %rdx
	testq	%rdx, %rdx
	je	.L957
	movq	$0, (%rax)
	movzbl	(%rdx), %eax
	cmpb	$63, %al
	jbe	.L958
	movb	%al, 64(%rdx)
	jmp	.L959
	.p2align 4,,10
	.p2align 3
.L958:
	movq	%rdx, %rdi
	call	_ZdlPv@PLT
.L957:
	movl	$65, %edi
.LEHB13:
	call	_Znwm@PLT
.LEHE13:
	movb	$64, 64(%rax)
	movq	%rax, %rdx
.L959:
	leaq	_ZN4asio6detail18completion_handlerIZN8asiodnp318MasterSessionStack14ScanAllObjectsEN8opendnp316GroupVariationIDERKNS4_10TaskConfigEEUlvE_E11do_completeEPNS0_15task_io_serviceEPNS0_25task_io_service_operationERKSt10error_codem(%rip), %rax
	movq	%r13, %rdi
	movzbl	%bl, %ecx
	movq	%r12, %rsi
	movq	%rax, 8(%rdx)
	movzwl	16(%rsp), %eax
	pxor	%xmm0, %xmm0
	movq	$0, (%rdx)
	movdqa	(%rsp), %xmm1
	movl	$0, 16(%rdx)
	movups	%xmm1, 24(%rdx)
	movdqu	24(%rsp), %xmm2
	movw	%ax, 40(%rdx)
	movups	%xmm2, 48(%rdx)
	movaps	%xmm0, (%rsp)
	call	_ZN4asio6detail14strand_service7do_postERPNS1_11strand_implEPNS0_25task_io_service_operationEb@PLT
	movq	8(%rsp), %rdi
	testq	%rdi, %rdi
	je	.L960
	call	_ZNSt16_Sp_counted_baseILN9__gnu_cxx12_Lock_policyE2EE10_M_releaseEv@PLT
.L960:
	movq	%rbp, %rdi
	call	_ZNSt16_Sp_counted_baseILN9__gnu_cxx12_Lock_policyE2EE10_M_releaseEv@PLT
	movq	56(%rsp), %rax
	xorq	%fs:40, %rax
	jne	.L987
	addq	$72, %rsp
	.cfi_remember_state
	.cfi_def_cfa_offset 40
	popq	%rbx
	.cfi_def_cfa_offset 32
	popq	%rbp
	.cfi_def_cfa_offset 24
	popq	%r12
	.cfi_def_cfa_offset 16
	popq	%r13
	.cfi_def_cfa_offset 8
	ret
	.p2align 4,,10
	.p2align 3
.L955:
	.cfi_restore_state
	addl	$1, 8(%rbp)
	jmp	.L956
.L987:
	call	__stack_chk_fail@PLT
.L964:
	endbr64
	movq	%rax, %r12
	jmp	.L961
	.section	.gcc_except_table
.LLSDA7959:
	.byte	0xff
	.byte	0xff
	.byte	0x1
	.uleb128 .LLSDACSE7959-.LLSDACSB7959
.LLSDACSB7959:
	.uleb128 .LEHB13-.LFB7959
	.uleb128 .LEHE13-.LEHB13
	.uleb128 .L964-.LFB7959
	.uleb128 0
.LLSDACSE7959:
	.text
	.cfi_endproc
	.section	.text.unlikely
	.cfi_startproc
	.cfi_personality 0x9b,DW.ref.__gxx_personality_v0
	.cfi_lsda 0x1b,.LLSDAC7959
	.type	_ZN8asiodnp318MasterSessionStack14ScanAllObjectsEN8opendnp316GroupVariationIDERKNS1_10TaskConfigE.cold, @function
_ZN8asiodnp318MasterSessionStack14ScanAllObjectsEN8opendnp316GroupVariationIDERKNS1_10TaskConfigE.cold:
.LFSB7959:
.L952:
	.cfi_def_cfa_offset 112
	.cfi_offset 3, -40
	.cfi_offset 6, -32
	.cfi_offset 12, -24
	.cfi_offset 13, -16
.LEHB14:
	call	_ZSt20__throw_bad_weak_ptrv@PLT
.L961:
	movq	8(%rsp), %rdi
	testq	%rdi, %rdi
	je	.L962
	call	_ZNSt16_Sp_counted_baseILN9__gnu_cxx12_Lock_policyE2EE10_M_releaseEv@PLT
.L962:
	movq	%rbp, %rdi
	call	_ZNSt16_Sp_counted_baseILN9__gnu_cxx12_Lock_policyE2EE10_M_releaseEv@PLT
	movq	%r12, %rdi
	call	_Unwind_Resume@PLT
.LEHE14:
	.cfi_endproc
.LFE7959:
	.section	.gcc_except_table
.LLSDAC7959:
	.byte	0xff
	.byte	0xff
	.byte	0x1
	.uleb128 .LLSDACSEC7959-.LLSDACSBC7959
.LLSDACSBC7959:
	.uleb128 .LEHB14-.LCOLDB25
	.uleb128 .LEHE14-.LEHB14
	.uleb128 0
	.uleb128 0
.LLSDACSEC7959:
	.section	.text.unlikely
	.text
	.size	_ZN8asiodnp318MasterSessionStack14ScanAllObjectsEN8opendnp316GroupVariationIDERKNS1_10TaskConfigE, .-_ZN8asiodnp318MasterSessionStack14ScanAllObjectsEN8opendnp316GroupVariationIDERKNS1_10TaskConfigE
	.section	.text.unlikely
	.size	_ZN8asiodnp318MasterSessionStack14ScanAllObjectsEN8opendnp316GroupVariationIDERKNS1_10TaskConfigE.cold, .-_ZN8asiodnp318MasterSessionStack14ScanAllObjectsEN8opendnp316GroupVariationIDERKNS1_10TaskConfigE.cold
.LCOLDE25:
	.text
.LHOTE25:
	.section	.text.unlikely
	.align 2
.LCOLDB26:
	.text
.LHOTB26:
	.align 2
	.p2align 4
	.globl	_ZN8asiodnp318MasterSessionStack11ScanClassesERKN8opendnp310ClassFieldERKNS1_10TaskConfigE
	.type	_ZN8asiodnp318MasterSessionStack11ScanClassesERKN8opendnp310ClassFieldERKNS1_10TaskConfigE, @function
_ZN8asiodnp318MasterSessionStack11ScanClassesERKN8opendnp310ClassFieldERKNS1_10TaskConfigE:
.LFB7967:
	.cfi_startproc
	.cfi_personality 0x9b,DW.ref.__gxx_personality_v0
	.cfi_lsda 0x1b,.LLSDA7967
	endbr64
	pushq	%r13
	.cfi_def_cfa_offset 16
	.cfi_offset 13, -16
	pushq	%r12
	.cfi_def_cfa_offset 24
	.cfi_offset 12, -24
	pushq	%rbp
	.cfi_def_cfa_offset 32
	.cfi_offset 6, -32
	pushq	%rbx
	.cfi_def_cfa_offset 40
	.cfi_offset 3, -40
	subq	$72, %rsp
	.cfi_def_cfa_offset 112
	movq	24(%rdi), %rbp
	movq	%fs:40, %rax
	movq	%rax, 56(%rsp)
	xorl	%eax, %eax
	testq	%rbp, %rbp
	je	.L989
	movl	8(%rbp), %eax
	leaq	8(%rbp), %rcx
.L991:
	testl	%eax, %eax
	je	.L989
	leal	1(%rax), %r8d
	lock cmpxchgl	%r8d, (%rcx)
	jne	.L991
	movq	16(%rdi), %r10
	movzbl	(%rsi), %r9d
	movq	%rbp, 8(%rsp)
	cmpq	$0, _ZL28__gthrw___pthread_key_createPjPFvPvE@GOTPCREL(%rip)
	movl	(%rdx), %r8d
	movzbl	4(%rdx), %esi
	movq	8(%rdx), %rax
	movq	%r10, (%rsp)
	movq	32(%rdi), %r12
	je	.L992
	lock addl	$1, (%rcx)
.L993:
	movq	%rax, 32(%rsp)
	movq	%rsp, %rdi
	xorl	%eax, %eax
	movq	40(%r12), %r13
	movb	%r9b, 16(%rsp)
	addq	$48, %r12
	movl	%r8d, 24(%rsp)
	movb	%sil, 28(%rsp)
	call	_ZN4asio28asio_handler_is_continuationEz@PLT
	movl	%eax, %ebx
	data16	leaq	_ZN4asio6detail15keyword_tss_ptrINS0_10call_stackINS0_15task_io_serviceENS0_27task_io_service_thread_infoEE7contextEE6value_E@tlsgd(%rip), %rdi
	.value	0x6666
	rex64
	call	__tls_get_addr@PLT
	movq	(%rax), %rax
	testq	%rax, %rax
	je	.L994
	movq	8(%rax), %rax
	testq	%rax, %rax
	je	.L994
	movq	(%rax), %rdx
	testq	%rdx, %rdx
	je	.L994
	movq	$0, (%rax)
	movzbl	(%rdx), %eax
	cmpb	$63, %al
	jbe	.L995
	movb	%al, 64(%rdx)
	jmp	.L996
	.p2align 4,,10
	.p2align 3
.L995:
	movq	%rdx, %rdi
	call	_ZdlPv@PLT
.L994:
	movl	$65, %edi
.LEHB15:
	call	_Znwm@PLT
.LEHE15:
	movb	$64, 64(%rax)
	movq	%rax, %rdx
.L996:
	leaq	_ZN4asio6detail18completion_handlerIZN8asiodnp318MasterSessionStack11ScanClassesERKN8opendnp310ClassFieldERKNS4_10TaskConfigEEUlvE_E11do_completeEPNS0_15task_io_serviceEPNS0_25task_io_service_operationERKSt10error_codem(%rip), %rax
	movq	%r13, %rdi
	movzbl	%bl, %ecx
	movq	%r12, %rsi
	movq	%rax, 8(%rdx)
	movzbl	16(%rsp), %eax
	pxor	%xmm0, %xmm0
	movq	$0, (%rdx)
	movdqa	(%rsp), %xmm1
	movl	$0, 16(%rdx)
	movups	%xmm1, 24(%rdx)
	movdqu	24(%rsp), %xmm2
	movb	%al, 40(%rdx)
	movups	%xmm2, 48(%rdx)
	movaps	%xmm0, (%rsp)
	call	_ZN4asio6detail14strand_service7do_postERPNS1_11strand_implEPNS0_25task_io_service_operationEb@PLT
	movq	8(%rsp), %rdi
	testq	%rdi, %rdi
	je	.L997
	call	_ZNSt16_Sp_counted_baseILN9__gnu_cxx12_Lock_policyE2EE10_M_releaseEv@PLT
.L997:
	movq	%rbp, %rdi
	call	_ZNSt16_Sp_counted_baseILN9__gnu_cxx12_Lock_policyE2EE10_M_releaseEv@PLT
	movq	56(%rsp), %rax
	xorq	%fs:40, %rax
	jne	.L1024
	addq	$72, %rsp
	.cfi_remember_state
	.cfi_def_cfa_offset 40
	popq	%rbx
	.cfi_def_cfa_offset 32
	popq	%rbp
	.cfi_def_cfa_offset 24
	popq	%r12
	.cfi_def_cfa_offset 16
	popq	%r13
	.cfi_def_cfa_offset 8
	ret
	.p2align 4,,10
	.p2align 3
.L992:
	.cfi_restore_state
	addl	$1, 8(%rbp)
	jmp	.L993
.L1024:
	call	__stack_chk_fail@PLT
.L1001:
	endbr64
	movq	%rax, %r12
	jmp	.L998
	.section	.gcc_except_table
.LLSDA7967:
	.byte	0xff
	.byte	0xff
	.byte	0x1
	.uleb128 .LLSDACSE7967-.LLSDACSB7967
.LLSDACSB7967:
	.uleb128 .LEHB15-.LFB7967
	.uleb128 .LEHE15-.LEHB15
	.uleb128 .L1001-.LFB7967
	.uleb128 0
.LLSDACSE7967:
	.text
	.cfi_endproc
	.section	.text.unlikely
	.cfi_startproc
	.cfi_personality 0x9b,DW.ref.__gxx_personality_v0
	.cfi_lsda 0x1b,.LLSDAC7967
	.type	_ZN8asiodnp318MasterSessionStack11ScanClassesERKN8opendnp310ClassFieldERKNS1_10TaskConfigE.cold, @function
_ZN8asiodnp318MasterSessionStack11ScanClassesERKN8opendnp310ClassFieldERKNS1_10TaskConfigE.cold:
.LFSB7967:
.L989:
	.cfi_def_cfa_offset 112
	.cfi_offset 3, -40
	.cfi_offset 6, -32
	.cfi_offset 12, -24
	.cfi_offset 13, -16
.LEHB16:
	call	_ZSt20__throw_bad_weak_ptrv@PLT
.L998:
	movq	8(%rsp), %rdi
	testq	%rdi, %rdi
	je	.L999
	call	_ZNSt16_Sp_counted_baseILN9__gnu_cxx12_Lock_policyE2EE10_M_releaseEv@PLT
.L999:
	movq	%rbp, %rdi
	call	_ZNSt16_Sp_counted_baseILN9__gnu_cxx12_Lock_policyE2EE10_M_releaseEv@PLT
	movq	%r12, %rdi
	call	_Unwind_Resume@PLT
.LEHE16:
	.cfi_endproc
.LFE7967:
	.section	.gcc_except_table
.LLSDAC7967:
	.byte	0xff
	.byte	0xff
	.byte	0x1
	.uleb128 .LLSDACSEC7967-.LLSDACSBC7967
.LLSDACSBC7967:
	.uleb128 .LEHB16-.LCOLDB26
	.uleb128 .LEHE16-.LEHB16
	.uleb128 0
	.uleb128 0
.LLSDACSEC7967:
	.section	.text.unlikely
	.text
	.size	_ZN8asiodnp318MasterSessionStack11ScanClassesERKN8opendnp310ClassFieldERKNS1_10TaskConfigE, .-_ZN8asiodnp318MasterSessionStack11ScanClassesERKN8opendnp310ClassFieldERKNS1_10TaskConfigE
	.section	.text.unlikely
	.size	_ZN8asiodnp318MasterSessionStack11ScanClassesERKN8opendnp310ClassFieldERKNS1_10TaskConfigE.cold, .-_ZN8asiodnp318MasterSessionStack11ScanClassesERKN8opendnp310ClassFieldERKNS1_10TaskConfigE.cold
.LCOLDE26:
	.text
.LHOTE26:
	.section	.text.unlikely
	.align 2
.LCOLDB27:
	.text
.LHOTB27:
	.align 2
	.p2align 4
	.globl	_ZN8asiodnp318MasterSessionStack9ScanRangeEN8opendnp316GroupVariationIDEttRKNS1_10TaskConfigE
	.type	_ZN8asiodnp318MasterSessionStack9ScanRangeEN8opendnp316GroupVariationIDEttRKNS1_10TaskConfigE, @function
_ZN8asiodnp318MasterSessionStack9ScanRangeEN8opendnp316GroupVariationIDEttRKNS1_10TaskConfigE:
.LFB7975:
	.cfi_startproc
	.cfi_personality 0x9b,DW.ref.__gxx_personality_v0
	.cfi_lsda 0x1b,.LLSDA7975
	endbr64
	pushq	%r15
	.cfi_def_cfa_offset 16
	.cfi_offset 15, -16
	pushq	%r14
	.cfi_def_cfa_offset 24
	.cfi_offset 14, -24
	pushq	%r13
	.cfi_def_cfa_offset 32
	.cfi_offset 13, -32
	pushq	%r12
	.cfi_def_cfa_offset 40
	.cfi_offset 12, -40
	pushq	%rbp
	.cfi_def_cfa_offset 48
	.cfi_offset 6, -48
	pushq	%rbx
	.cfi_def_cfa_offset 56
	.cfi_offset 3, -56
	subq	$72, %rsp
	.cfi_def_cfa_offset 128
	movq	24(%rdi), %rbp
	movq	%fs:40, %rax
	movq	%rax, 56(%rsp)
	xorl	%eax, %eax
	testq	%rbp, %rbp
	je	.L1026
	movl	8(%rbp), %eax
	movl	%edx, %r15d
	movl	%ecx, %r14d
	leaq	8(%rbp), %r9
.L1028:
	testl	%eax, %eax
	je	.L1026
	leal	1(%rax), %r10d
	lock cmpxchgl	%r10d, (%r9)
	jne	.L1028
	movq	16(%rdi), %rbx
	cmpq	$0, _ZL28__gthrw___pthread_key_createPjPFvPvE@GOTPCREL(%rip)
	movq	%rbp, 8(%rsp)
	movl	(%r8), %r11d
	movzbl	4(%r8), %r10d
	movq	8(%r8), %rax
	movq	32(%rdi), %r12
	movq	%rbx, (%rsp)
	je	.L1029
	lock addl	$1, (%r9)
.L1030:
	movq	%rax, 32(%rsp)
	movq	%rsp, %rdi
	xorl	%eax, %eax
	movq	40(%r12), %r13
	movw	%si, 16(%rsp)
	addq	$48, %r12
	movw	%dx, 18(%rsp)
	movw	%cx, 20(%rsp)
	movl	%r11d, 24(%rsp)
	movb	%r10b, 28(%rsp)
	call	_ZN4asio28asio_handler_is_continuationEz@PLT
	movl	%eax, %ebx
	data16	leaq	_ZN4asio6detail15keyword_tss_ptrINS0_10call_stackINS0_15task_io_serviceENS0_27task_io_service_thread_infoEE7contextEE6value_E@tlsgd(%rip), %rdi
	.value	0x6666
	rex64
	call	__tls_get_addr@PLT
	movq	(%rax), %rax
	testq	%rax, %rax
	je	.L1031
	movq	8(%rax), %rax
	testq	%rax, %rax
	je	.L1031
	movq	(%rax), %rdx
	testq	%rdx, %rdx
	je	.L1031
	movq	$0, (%rax)
	movzbl	(%rdx), %eax
	cmpb	$63, %al
	jbe	.L1032
	movb	%al, 64(%rdx)
	jmp	.L1033
	.p2align 4,,10
	.p2align 3
.L1032:
	movq	%rdx, %rdi
	call	_ZdlPv@PLT
.L1031:
	movl	$65, %edi
.LEHB17:
	call	_Znwm@PLT
.LEHE17:
	movb	$64, 64(%rax)
	movzwl	18(%rsp), %r15d
	movq	%rax, %rdx
	movzwl	20(%rsp), %r14d
.L1033:
	movq	$0, (%rdx)
	movq	%r13, %rdi
	movzbl	%bl, %ecx
	movq	%r12, %rsi
	leaq	_ZN4asio6detail18completion_handlerIZN8asiodnp318MasterSessionStack9ScanRangeEN8opendnp316GroupVariationIDEttRKNS4_10TaskConfigEEUlvE_E11do_completeEPNS0_15task_io_serviceEPNS0_25task_io_service_operationERKSt10error_codem(%rip), %rax
	movl	$0, 16(%rdx)
	pxor	%xmm0, %xmm0
	movq	%rax, 8(%rdx)
	movzwl	16(%rsp), %eax
	movdqa	(%rsp), %xmm1
	movw	%r15w, 42(%rdx)
	movw	%ax, 40(%rdx)
	movups	%xmm1, 24(%rdx)
	movdqu	24(%rsp), %xmm2
	movw	%r14w, 44(%rdx)
	movups	%xmm2, 48(%rdx)
	movaps	%xmm0, (%rsp)
	call	_ZN4asio6detail14strand_service7do_postERPNS1_11strand_implEPNS0_25task_io_service_operationEb@PLT
	movq	8(%rsp), %rdi
	testq	%rdi, %rdi
	je	.L1034
	call	_ZNSt16_Sp_counted_baseILN9__gnu_cxx12_Lock_policyE2EE10_M_releaseEv@PLT
.L1034:
	movq	%rbp, %rdi
	call	_ZNSt16_Sp_counted_baseILN9__gnu_cxx12_Lock_policyE2EE10_M_releaseEv@PLT
	movq	56(%rsp), %rax
	xorq	%fs:40, %rax
	jne	.L1061
	addq	$72, %rsp
	.cfi_remember_state
	.cfi_def_cfa_offset 56
	popq	%rbx
	.cfi_def_cfa_offset 48
	popq	%rbp
	.cfi_def_cfa_offset 40
	popq	%r12
	.cfi_def_cfa_offset 32
	popq	%r13
	.cfi_def_cfa_offset 24
	popq	%r14
	.cfi_def_cfa_offset 16
	popq	%r15
	.cfi_def_cfa_offset 8
	ret
	.p2align 4,,10
	.p2align 3
.L1029:
	.cfi_restore_state
	addl	$1, 8(%rbp)
	jmp	.L1030
.L1061:
	call	__stack_chk_fail@PLT
.L1038:
	endbr64
	movq	%rax, %r12
	jmp	.L1035
	.section	.gcc_except_table
.LLSDA7975:
	.byte	0xff
	.byte	0xff
	.byte	0x1
	.uleb128 .LLSDACSE7975-.LLSDACSB7975
.LLSDACSB7975:
	.uleb128 .LEHB17-.LFB7975
	.uleb128 .LEHE17-.LEHB17
	.uleb128 .L1038-.LFB7975
	.uleb128 0
.LLSDACSE7975:
	.text
	.cfi_endproc
	.section	.text.unlikely
	.cfi_startproc
	.cfi_personality 0x9b,DW.ref.__gxx_personality_v0
	.cfi_lsda 0x1b,.LLSDAC7975
	.type	_ZN8asiodnp318MasterSessionStack9ScanRangeEN8opendnp316GroupVariationIDEttRKNS1_10TaskConfigE.cold, @function
_ZN8asiodnp318MasterSessionStack9ScanRangeEN8opendnp316GroupVariationIDEttRKNS1_10TaskConfigE.cold:
.LFSB7975:
.L1026:
	.cfi_def_cfa_offset 128
	.cfi_offset 3, -56
	.cfi_offset 6, -48
	.cfi_offset 12, -40
	.cfi_offset 13, -32
	.cfi_offset 14, -24
	.cfi_offset 15, -16
.LEHB18:
	call	_ZSt20__throw_bad_weak_ptrv@PLT
.L1035:
	movq	8(%rsp), %rdi
	testq	%rdi, %rdi
	je	.L1036
	call	_ZNSt16_Sp_counted_baseILN9__gnu_cxx12_Lock_policyE2EE10_M_releaseEv@PLT
.L1036:
	movq	%rbp, %rdi
	call	_ZNSt16_Sp_counted_baseILN9__gnu_cxx12_Lock_policyE2EE10_M_releaseEv@PLT
	movq	%r12, %rdi
	call	_Unwind_Resume@PLT
.LEHE18:
	.cfi_endproc
.LFE7975:
	.section	.gcc_except_table
.LLSDAC7975:
	.byte	0xff
	.byte	0xff
	.byte	0x1
	.uleb128 .LLSDACSEC7975-.LLSDACSBC7975
.LLSDACSBC7975:
	.uleb128 .LEHB18-.LCOLDB27
	.uleb128 .LEHE18-.LEHB18
	.uleb128 0
	.uleb128 0
.LLSDACSEC7975:
	.section	.text.unlikely
	.text
	.size	_ZN8asiodnp318MasterSessionStack9ScanRangeEN8opendnp316GroupVariationIDEttRKNS1_10TaskConfigE, .-_ZN8asiodnp318MasterSessionStack9ScanRangeEN8opendnp316GroupVariationIDEttRKNS1_10TaskConfigE
	.section	.text.unlikely
	.size	_ZN8asiodnp318MasterSessionStack9ScanRangeEN8opendnp316GroupVariationIDEttRKNS1_10TaskConfigE.cold, .-_ZN8asiodnp318MasterSessionStack9ScanRangeEN8opendnp316GroupVariationIDEttRKNS1_10TaskConfigE.cold
.LCOLDE27:
	.text
.LHOTE27:
	.section	.text.unlikely
	.align 2
.LCOLDB28:
	.text
.LHOTB28:
	.align 2
	.p2align 4
	.globl	_ZN8asiodnp318MasterSessionStack5WriteERKN8opendnp315TimeAndIntervalEtRKNS1_10TaskConfigE
	.type	_ZN8asiodnp318MasterSessionStack5WriteERKN8opendnp315TimeAndIntervalEtRKNS1_10TaskConfigE, @function
_ZN8asiodnp318MasterSessionStack5WriteERKN8opendnp315TimeAndIntervalEtRKNS1_10TaskConfigE:
.LFB7983:
	.cfi_startproc
	.cfi_personality 0x9b,DW.ref.__gxx_personality_v0
	.cfi_lsda 0x1b,.LLSDA7983
	endbr64
	pushq	%r13
	.cfi_def_cfa_offset 16
	.cfi_offset 13, -16
	pushq	%r12
	.cfi_def_cfa_offset 24
	.cfi_offset 12, -24
	pushq	%rbp
	.cfi_def_cfa_offset 32
	.cfi_offset 6, -32
	pushq	%rbx
	.cfi_def_cfa_offset 40
	.cfi_offset 3, -40
	subq	$88, %rsp
	.cfi_def_cfa_offset 128
	movq	24(%rdi), %rbp
	movq	%fs:40, %rax
	movq	%rax, 72(%rsp)
	xorl	%eax, %eax
	testq	%rbp, %rbp
	je	.L1063
	movl	8(%rbp), %eax
	leaq	8(%rbp), %r8
.L1065:
	testl	%eax, %eax
	je	.L1063
	leal	1(%rax), %r9d
	lock cmpxchgl	%r9d, (%r8)
	jne	.L1065
	movq	16(%rdi), %r13
	movq	(%rsi), %rbx
	movq	%rbp, 8(%rsp)
	cmpq	$0, _ZL28__gthrw___pthread_key_createPjPFvPvE@GOTPCREL(%rip)
	movl	8(%rsi), %r11d
	movzbl	12(%rsi), %r10d
	movl	(%rcx), %r9d
	movq	%r13, (%rsp)
	movzbl	4(%rcx), %esi
	movq	8(%rcx), %rax
	movq	32(%rdi), %r12
	je	.L1066
	lock addl	$1, (%r8)
.L1067:
	movq	%rax, 48(%rsp)
	movq	%rsp, %rdi
	xorl	%eax, %eax
	movq	40(%r12), %r13
	movq	%rbx, 16(%rsp)
	addq	$48, %r12
	movl	%r11d, 24(%rsp)
	movb	%r10b, 28(%rsp)
	movw	%dx, 32(%rsp)
	movl	%r9d, 40(%rsp)
	movb	%sil, 44(%rsp)
	call	_ZN4asio28asio_handler_is_continuationEz@PLT
	movl	%eax, %ebx
	data16	leaq	_ZN4asio6detail15keyword_tss_ptrINS0_10call_stackINS0_15task_io_serviceENS0_27task_io_service_thread_infoEE7contextEE6value_E@tlsgd(%rip), %rdi
	.value	0x6666
	rex64
	call	__tls_get_addr@PLT
	movq	(%rax), %rax
	testq	%rax, %rax
	je	.L1068
	movq	8(%rax), %rax
	testq	%rax, %rax
	je	.L1068
	movq	(%rax), %rdx
	testq	%rdx, %rdx
	je	.L1068
	movq	$0, (%rax)
	movzbl	(%rdx), %eax
	cmpb	$79, %al
	jbe	.L1069
	movb	%al, 80(%rdx)
	jmp	.L1070
	.p2align 4,,10
	.p2align 3
.L1069:
	movq	%rdx, %rdi
	call	_ZdlPv@PLT
.L1068:
	movl	$81, %edi
.LEHB19:
	call	_Znwm@PLT
.LEHE19:
	movb	$80, 80(%rax)
	movq	%rax, %rdx
.L1070:
	leaq	_ZN4asio6detail18completion_handlerIZN8asiodnp318MasterSessionStack5WriteERKN8opendnp315TimeAndIntervalEtRKNS4_10TaskConfigEEUlvE_E11do_completeEPNS0_15task_io_serviceEPNS0_25task_io_service_operationERKSt10error_codem(%rip), %rax
	movq	%r13, %rdi
	movzbl	%bl, %ecx
	movq	%r12, %rsi
	movq	%rax, 8(%rdx)
	pxor	%xmm0, %xmm0
	movq	$0, (%rdx)
	movdqa	(%rsp), %xmm1
	movl	$0, 16(%rdx)
	movups	%xmm1, 24(%rdx)
	movzwl	32(%rsp), %eax
	movdqa	16(%rsp), %xmm2
	movdqu	40(%rsp), %xmm3
	movaps	%xmm0, (%rsp)
	movw	%ax, 56(%rdx)
	movups	%xmm2, 40(%rdx)
	movups	%xmm3, 64(%rdx)
	call	_ZN4asio6detail14strand_service7do_postERPNS1_11strand_implEPNS0_25task_io_service_operationEb@PLT
	movq	8(%rsp), %rdi
	testq	%rdi, %rdi
	je	.L1071
	call	_ZNSt16_Sp_counted_baseILN9__gnu_cxx12_Lock_policyE2EE10_M_releaseEv@PLT
.L1071:
	movq	%rbp, %rdi
	call	_ZNSt16_Sp_counted_baseILN9__gnu_cxx12_Lock_policyE2EE10_M_releaseEv@PLT
	movq	72(%rsp), %rax
	xorq	%fs:40, %rax
	jne	.L1098
	addq	$88, %rsp
	.cfi_remember_state
	.cfi_def_cfa_offset 40
	popq	%rbx
	.cfi_def_cfa_offset 32
	popq	%rbp
	.cfi_def_cfa_offset 24
	popq	%r12
	.cfi_def_cfa_offset 16
	popq	%r13
	.cfi_def_cfa_offset 8
	ret
	.p2align 4,,10
	.p2align 3
.L1066:
	.cfi_restore_state
	addl	$1, 8(%rbp)
	jmp	.L1067
.L1098:
	call	__stack_chk_fail@PLT
.L1075:
	endbr64
	movq	%rax, %r12
	jmp	.L1072
	.section	.gcc_except_table
.LLSDA7983:
	.byte	0xff
	.byte	0xff
	.byte	0x1
	.uleb128 .LLSDACSE7983-.LLSDACSB7983
.LLSDACSB7983:
	.uleb128 .LEHB19-.LFB7983
	.uleb128 .LEHE19-.LEHB19
	.uleb128 .L1075-.LFB7983
	.uleb128 0
.LLSDACSE7983:
	.text
	.cfi_endproc
	.section	.text.unlikely
	.cfi_startproc
	.cfi_personality 0x9b,DW.ref.__gxx_personality_v0
	.cfi_lsda 0x1b,.LLSDAC7983
	.type	_ZN8asiodnp318MasterSessionStack5WriteERKN8opendnp315TimeAndIntervalEtRKNS1_10TaskConfigE.cold, @function
_ZN8asiodnp318MasterSessionStack5WriteERKN8opendnp315TimeAndIntervalEtRKNS1_10TaskConfigE.cold:
.LFSB7983:
.L1063:
	.cfi_def_cfa_offset 128
	.cfi_offset 3, -40
	.cfi_offset 6, -32
	.cfi_offset 12, -24
	.cfi_offset 13, -16
.LEHB20:
	call	_ZSt20__throw_bad_weak_ptrv@PLT
.L1072:
	movq	8(%rsp), %rdi
	testq	%rdi, %rdi
	je	.L1073
	call	_ZNSt16_Sp_counted_baseILN9__gnu_cxx12_Lock_policyE2EE10_M_releaseEv@PLT
.L1073:
	movq	%rbp, %rdi
	call	_ZNSt16_Sp_counted_baseILN9__gnu_cxx12_Lock_policyE2EE10_M_releaseEv@PLT
	movq	%r12, %rdi
	call	_Unwind_Resume@PLT
.LEHE20:
	.cfi_endproc
.LFE7983:
	.section	.gcc_except_table
.LLSDAC7983:
	.byte	0xff
	.byte	0xff
	.byte	0x1
	.uleb128 .LLSDACSEC7983-.LLSDACSBC7983
.LLSDACSBC7983:
	.uleb128 .LEHB20-.LCOLDB28
	.uleb128 .LEHE20-.LEHB20
	.uleb128 0
	.uleb128 0
.LLSDACSEC7983:
	.section	.text.unlikely
	.text
	.size	_ZN8asiodnp318MasterSessionStack5WriteERKN8opendnp315TimeAndIntervalEtRKNS1_10TaskConfigE, .-_ZN8asiodnp318MasterSessionStack5WriteERKN8opendnp315TimeAndIntervalEtRKNS1_10TaskConfigE
	.section	.text.unlikely
	.size	_ZN8asiodnp318MasterSessionStack5WriteERKN8opendnp315TimeAndIntervalEtRKNS1_10TaskConfigE.cold, .-_ZN8asiodnp318MasterSessionStack5WriteERKN8opendnp315TimeAndIntervalEtRKNS1_10TaskConfigE.cold
.LCOLDE28:
	.text
.LHOTE28:
	.section	.text.unlikely
	.align 2
	.type	_ZZN8asiodnp318MasterSessionStack15PerformFunctionERKNSt7__cxx1112basic_stringIcSt11char_traitsIcESaIcEEEN8opendnp312FunctionCodeERKSt6vectorINS9_6HeaderESaISC_EERKNS9_10TaskConfigEENUlvE_D2Ev, @function
_ZZN8asiodnp318MasterSessionStack15PerformFunctionERKNSt7__cxx1112basic_stringIcSt11char_traitsIcESaIcEEEN8opendnp312FunctionCodeERKSt6vectorINS9_6HeaderESaISC_EERKNS9_10TaskConfigEENUlvE_D2Ev:
.LFB8005:
	.cfi_startproc
	.cfi_personality 0x9b,DW.ref.__gxx_personality_v0
	.cfi_lsda 0x1b,.LLSDA8005
	pushq	%rbx
	.cfi_def_cfa_offset 16
	.cfi_offset 3, -16
	movq	72(%rdi), %rax
	movq	%rdi, %rbx
	testq	%rax, %rax
	je	.L1100
	leaq	56(%rdi), %rdi
	movl	$3, %edx
	movq	%rdi, %rsi
	call	*%rax
.L1100:
	movq	16(%rbx), %rdi
	leaq	32(%rbx), %rax
	cmpq	%rax, %rdi
	je	.L1101
	call	_ZdlPv@PLT
.L1101:
	movq	8(%rbx), %rdi
	testq	%rdi, %rdi
	je	.L1099
	popq	%rbx
	.cfi_remember_state
	.cfi_def_cfa_offset 8
	jmp	_ZNSt16_Sp_counted_baseILN9__gnu_cxx12_Lock_policyE2EE10_M_releaseEv@PLT
.L1099:
	.cfi_restore_state
	popq	%rbx
	.cfi_def_cfa_offset 8
	ret
	.cfi_endproc
.LFE8005:
	.section	.gcc_except_table
.LLSDA8005:
	.byte	0xff
	.byte	0xff
	.byte	0x1
	.uleb128 .LLSDACSE8005-.LLSDACSB8005
.LLSDACSB8005:
.LLSDACSE8005:
	.section	.text.unlikely
	.size	_ZZN8asiodnp318MasterSessionStack15PerformFunctionERKNSt7__cxx1112basic_stringIcSt11char_traitsIcESaIcEEEN8opendnp312FunctionCodeERKSt6vectorINS9_6HeaderESaISC_EERKNS9_10TaskConfigEENUlvE_D2Ev, .-_ZZN8asiodnp318MasterSessionStack15PerformFunctionERKNSt7__cxx1112basic_stringIcSt11char_traitsIcESaIcEEEN8opendnp312FunctionCodeERKSt6vectorINS9_6HeaderESaISC_EERKNS9_10TaskConfigEENUlvE_D2Ev
	.set	_ZZN8asiodnp318MasterSessionStack15PerformFunctionERKNSt7__cxx1112basic_stringIcSt11char_traitsIcESaIcEEEN8opendnp312FunctionCodeERKSt6vectorINS9_6HeaderESaISC_EERKNS9_10TaskConfigEENUlvE_D1Ev,_ZZN8asiodnp318MasterSessionStack15PerformFunctionERKNSt7__cxx1112basic_stringIcSt11char_traitsIcESaIcEEEN8opendnp312FunctionCodeERKSt6vectorINS9_6HeaderESaISC_EERKNS9_10TaskConfigEENUlvE_D2Ev
	.section	.text._ZN4asio6detail18completion_handlerIZN7asiopal8Executor10ReturnFromISt10shared_ptrIN8opendnp311IMasterTaskEEEET_RKSt8functionIFS9_vEEEUlvE_E11do_completeEPNS0_15task_io_serviceEPNS0_25task_io_service_operationERKSt10error_codem,"axG",@progbits,_ZN4asio6detail18completion_handlerIZN7asiopal8Executor10ReturnFromISt10shared_ptrIN8opendnp311IMasterTaskEEEET_RKSt8functionIFS9_vEEEUlvE_E11do_completeEPNS0_15task_io_serviceEPNS0_25task_io_service_operationERKSt10error_codem,comdat
	.p2align 4
	.weak	_ZN4asio6detail18completion_handlerIZN7asiopal8Executor10ReturnFromISt10shared_ptrIN8opendnp311IMasterTaskEEEET_RKSt8functionIFS9_vEEEUlvE_E11do_completeEPNS0_15task_io_serviceEPNS0_25task_io_service_operationERKSt10error_codem
	.type	_ZN4asio6detail18completion_handlerIZN7asiopal8Executor10ReturnFromISt10shared_ptrIN8opendnp311IMasterTaskEEEET_RKSt8functionIFS9_vEEEUlvE_E11do_completeEPNS0_15task_io_serviceEPNS0_25task_io_service_operationERKSt10error_codem, @function
_ZN4asio6detail18completion_handlerIZN7asiopal8Executor10ReturnFromISt10shared_ptrIN8opendnp311IMasterTaskEEEET_RKSt8functionIFS9_vEEEUlvE_E11do_completeEPNS0_15task_io_serviceEPNS0_25task_io_service_operationERKSt10error_codem:
.LFB10690:
	.cfi_startproc
	.cfi_personality 0x9b,DW.ref.__gxx_personality_v0
	.cfi_lsda 0x1b,.LLSDA10690
	endbr64
	pushq	%r13
	.cfi_def_cfa_offset 16
	.cfi_offset 13, -16
	pushq	%r12
	.cfi_def_cfa_offset 24
	.cfi_offset 12, -24
	pushq	%rbp
	.cfi_def_cfa_offset 32
	.cfi_offset 6, -32
	movq	%rsi, %rbp
	pushq	%rbx
	.cfi_def_cfa_offset 40
	.cfi_offset 3, -40
	movq	%rdi, %rbx
	subq	$152, %rsp
	.cfi_def_cfa_offset 192
	movq	24(%rsi), %r13
	movq	32(%rsi), %r12
	movq	%fs:40, %rax
	movq	%rax, 136(%rsp)
	xorl	%eax, %eax
	data16	leaq	_ZN4asio6detail15keyword_tss_ptrINS0_10call_stackINS0_15task_io_serviceENS0_27task_io_service_thread_infoEE7contextEE6value_E@tlsgd(%rip), %rdi
	.value	0x6666
	rex64
	call	__tls_get_addr@PLT
	movq	(%rax), %rax
	testq	%rax, %rax
	je	.L1108
	movq	8(%rax), %rax
	testq	%rax, %rax
	je	.L1108
	cmpq	$0, (%rax)
	je	.L1148
.L1108:
	movq	%rbp, %rdi
	call	_ZdlPv@PLT
.L1109:
	testq	%rbx, %rbx
	je	.L1107
	cmpq	$0, 16(%r12)
	je	.L1149
	leaq	32(%rsp), %rbp
	movq	%r12, %rsi
	movq	%rbp, %rdi
.LEHB21:
	call	*24(%r12)
.LEHE21:
	movq	0(%r13), %rbx
	testq	%rbx, %rbx
	je	.L1150
	leaq	7(%rsp), %rax
	movq	%rbp, 104(%rsp)
	leaq	96(%rsp), %rbp
	movq	_ZNSt14_Function_base13_Base_managerINSt13__future_base13_State_baseV27_SetterISt10shared_ptrIN8opendnp311IMasterTaskEEOS7_EEE10_M_managerERSt9_Any_dataRKSB_St18_Manager_operation@GOTPCREL(%rip), %xmm0
	movq	%rax, 24(%rsp)
	movq	_ZNSt13__future_base13_State_baseV29_M_do_setEPSt8functionIFSt10unique_ptrINS_12_Result_baseENS3_8_DeleterEEvEEPb@GOTPCREL(%rip), %rax
	movhps	_ZNSt17_Function_handlerIFSt10unique_ptrINSt13__future_base12_Result_baseENS2_8_DeleterEEvENS1_13_State_baseV27_SetterISt10shared_ptrIN8opendnp311IMasterTaskEEOSB_EEE9_M_invokeERKSt9_Any_data@GOTPCREL(%rip), %xmm0
	movq	%r13, 96(%rsp)
	movq	%rax, 48(%rsp)
	leaq	48(%rsp), %rax
	movaps	%xmm0, 112(%rsp)
	movq	%rax, %xmm0
	leaq	8(%rsp), %rax
	movq	%rax, %xmm1
	leaq	16(%rsp), %rax
	movb	$0, 7(%rsp)
	punpcklqdq	%xmm1, %xmm0
	movq	%rbp, 16(%rsp)
	movaps	%xmm0, 64(%rsp)
	movq	%rax, %xmm0
	leaq	24(%rsp), %rax
	movq	%rax, %xmm2
	movq	%rbx, 8(%rsp)
	movq	$0, 56(%rsp)
	punpcklqdq	%xmm2, %xmm0
	movaps	%xmm0, 80(%rsp)
	data16	leaq	_ZSt15__once_callable@tlsgd(%rip), %rdi
	.value	0x6666
	rex64
	call	__tls_get_addr@PLT
	leaq	64(%rsp), %rdx
	movq	%rdx, (%rax)
	data16	leaq	_ZSt11__once_call@tlsgd(%rip), %rdi
	.value	0x6666
	rex64
	call	__tls_get_addr@PLT
	movq	_ZZSt9call_onceIMNSt13__future_base13_State_baseV2EFvPSt8functionIFSt10unique_ptrINS0_12_Result_baseENS4_8_DeleterEEvEEPbEJPS1_S9_SA_EEvRSt9once_flagOT_DpOT0_ENUlvE0_4_FUNEv@GOTPCREL(%rip), %rdx
	leaq	24(%rbx), %rdi
	cmpq	$0, _ZL28__gthrw___pthread_key_createPjPFvPvE@GOTPCREL(%rip)
	movq	%rdx, (%rax)
	je	.L1128
	movq	__once_proxy@GOTPCREL(%rip), %rsi
.LEHB22:
	call	_ZL20__gthrw_pthread_oncePiPFvvE@PLT
	testl	%eax, %eax
	jne	.L1113
	cmpb	$0, 7(%rsp)
	jne	.L1151
	movl	$2, %edi
	call	_ZSt20__throw_future_errori@PLT
	.p2align 4,,10
	.p2align 3
.L1151:
	leaq	16(%rbx), %rdi
	movl	$1, %eax
	xchgl	(%rdi), %eax
	testl	%eax, %eax
	jns	.L1119
	call	_ZNSt28__atomic_futex_unsigned_base19_M_futex_notify_allEPj@PLT
.LEHE22:
.L1119:
	movq	112(%rsp), %rax
	testq	%rax, %rax
	je	.L1118
	movl	$3, %edx
	movq	%rbp, %rsi
	movq	%rbp, %rdi
	call	*%rax
.L1118:
	movq	40(%rsp), %rdi
	testq	%rdi, %rdi
	je	.L1121
	call	_ZNSt16_Sp_counted_baseILN9__gnu_cxx12_Lock_policyE2EE10_M_releaseEv@PLT
.L1121:
	sfence
.L1107:
	movq	136(%rsp), %rax
	xorq	%fs:40, %rax
	jne	.L1152
	addq	$152, %rsp
	.cfi_remember_state
	.cfi_def_cfa_offset 40
	popq	%rbx
	.cfi_def_cfa_offset 32
	popq	%rbp
	.cfi_def_cfa_offset 24
	popq	%r12
	.cfi_def_cfa_offset 16
	popq	%r13
	.cfi_def_cfa_offset 8
	ret
	.p2align 4,,10
	.p2align 3
.L1148:
	.cfi_restore_state
	movzbl	40(%rbp), %edx
	movb	%dl, 0(%rbp)
	movq	%rbp, (%rax)
	jmp	.L1109
.L1128:
	movl	$-1, %eax
.L1113:
	movl	%eax, %edi
.LEHB23:
	call	_ZSt20__throw_system_errori@PLT
.LEHE23:
.L1149:
.LEHB24:
	call	_ZSt25__throw_bad_function_callv@PLT
.LEHE24:
.L1150:
	movl	$3, %edi
.LEHB25:
	call	_ZSt20__throw_future_errori@PLT
.LEHE25:
.L1152:
	call	__stack_chk_fail@PLT
.L1130:
	endbr64
	movq	%rax, %rbx
	jmp	.L1124
.L1129:
	endbr64
	movq	%rax, %rdi
	jmp	.L1126
.L1131:
	endbr64
	movq	%rax, %rbx
.L1122:
	movq	112(%rsp), %rax
	testq	%rax, %rax
	je	.L1124
	movl	$3, %edx
	movq	%rbp, %rsi
	movq	%rbp, %rdi
	call	*%rax
.L1124:
	movq	40(%rsp), %rdi
	testq	%rdi, %rdi
	je	.L1125
	call	_ZNSt16_Sp_counted_baseILN9__gnu_cxx12_Lock_policyE2EE10_M_releaseEv@PLT
.L1125:
	movq	%rbx, %rdi
.L1126:
	sfence
.LEHB26:
	call	_Unwind_Resume@PLT
.LEHE26:
	.cfi_endproc
.LFE10690:
	.section	.gcc_except_table
.LLSDA10690:
	.byte	0xff
	.byte	0xff
	.byte	0x1
	.uleb128 .LLSDACSE10690-.LLSDACSB10690
.LLSDACSB10690:
	.uleb128 .LEHB21-.LFB10690
	.uleb128 .LEHE21-.LEHB21
	.uleb128 .L1129-.LFB10690
	.uleb128 0
	.uleb128 .LEHB22-.LFB10690
	.uleb128 .LEHE22-.LEHB22
	.uleb128 .L1131-.LFB10690
	.uleb128 0
	.uleb128 .LEHB23-.LFB10690
	.uleb128 .LEHE23-.LEHB23
	.uleb128 .L1131-.LFB10690
	.uleb128 0
	.uleb128 .LEHB24-.LFB10690
	.uleb128 .LEHE24-.LEHB24
	.uleb128 .L1129-.LFB10690
	.uleb128 0
	.uleb128 .LEHB25-.LFB10690
	.uleb128 .LEHE25-.LEHB25
	.uleb128 .L1130-.LFB10690
	.uleb128 0
	.uleb128 .LEHB26-.LFB10690
	.uleb128 .LEHE26-.LEHB26
	.uleb128 0
	.uleb128 0
.LLSDACSE10690:
	.section	.text._ZN4asio6detail18completion_handlerIZN7asiopal8Executor10ReturnFromISt10shared_ptrIN8opendnp311IMasterTaskEEEET_RKSt8functionIFS9_vEEEUlvE_E11do_completeEPNS0_15task_io_serviceEPNS0_25task_io_service_operationERKSt10error_codem,"axG",@progbits,_ZN4asio6detail18completion_handlerIZN7asiopal8Executor10ReturnFromISt10shared_ptrIN8opendnp311IMasterTaskEEEET_RKSt8functionIFS9_vEEEUlvE_E11do_completeEPNS0_15task_io_serviceEPNS0_25task_io_service_operationERKSt10error_codem,comdat
	.size	_ZN4asio6detail18completion_handlerIZN7asiopal8Executor10ReturnFromISt10shared_ptrIN8opendnp311IMasterTaskEEEET_RKSt8functionIFS9_vEEEUlvE_E11do_completeEPNS0_15task_io_serviceEPNS0_25task_io_service_operationERKSt10error_codem, .-_ZN4asio6detail18completion_handlerIZN7asiopal8Executor10ReturnFromISt10shared_ptrIN8opendnp311IMasterTaskEEEET_RKSt8functionIFS9_vEEEUlvE_E11do_completeEPNS0_15task_io_serviceEPNS0_25task_io_service_operationERKSt10error_codem
	.section	.text._ZNSt13__future_base7_ResultISt10shared_ptrIN8opendnp311IMasterTaskEEED2Ev,"axG",@progbits,_ZNSt13__future_base7_ResultISt10shared_ptrIN8opendnp311IMasterTaskEEED5Ev,comdat
	.align 2
	.p2align 4
	.weak	_ZNSt13__future_base7_ResultISt10shared_ptrIN8opendnp311IMasterTaskEEED2Ev
	.type	_ZNSt13__future_base7_ResultISt10shared_ptrIN8opendnp311IMasterTaskEEED2Ev, @function
_ZNSt13__future_base7_ResultISt10shared_ptrIN8opendnp311IMasterTaskEEED2Ev:
.LFB11562:
	.cfi_startproc
	endbr64
	movq	_ZTVNSt13__future_base7_ResultISt10shared_ptrIN8opendnp311IMasterTaskEEEE@GOTPCREL(%rip), %rax
	pushq	%rbp
	.cfi_def_cfa_offset 16
	.cfi_offset 6, -16
	movq	%rdi, %rbp
	addq	$16, %rax
	cmpb	$0, 32(%rdi)
	movq	%rax, (%rdi)
	je	.L1154
	movq	24(%rdi), %rdi
	testq	%rdi, %rdi
	je	.L1154
	call	_ZNSt16_Sp_counted_baseILN9__gnu_cxx12_Lock_policyE2EE10_M_releaseEv@PLT
.L1154:
	movq	%rbp, %rdi
	popq	%rbp
	.cfi_def_cfa_offset 8
	jmp	_ZNSt13__future_base12_Result_baseD2Ev@PLT
	.cfi_endproc
.LFE11562:
	.size	_ZNSt13__future_base7_ResultISt10shared_ptrIN8opendnp311IMasterTaskEEED2Ev, .-_ZNSt13__future_base7_ResultISt10shared_ptrIN8opendnp311IMasterTaskEEED2Ev
	.weak	_ZNSt13__future_base7_ResultISt10shared_ptrIN8opendnp311IMasterTaskEEED1Ev
	.set	_ZNSt13__future_base7_ResultISt10shared_ptrIN8opendnp311IMasterTaskEEED1Ev,_ZNSt13__future_base7_ResultISt10shared_ptrIN8opendnp311IMasterTaskEEED2Ev
	.section	.text._ZNSt13__future_base7_ResultISt10shared_ptrIN8opendnp311IMasterTaskEEED0Ev,"axG",@progbits,_ZNSt13__future_base7_ResultISt10shared_ptrIN8opendnp311IMasterTaskEEED5Ev,comdat
	.align 2
	.p2align 4
	.weak	_ZNSt13__future_base7_ResultISt10shared_ptrIN8opendnp311IMasterTaskEEED0Ev
	.type	_ZNSt13__future_base7_ResultISt10shared_ptrIN8opendnp311IMasterTaskEEED0Ev, @function
_ZNSt13__future_base7_ResultISt10shared_ptrIN8opendnp311IMasterTaskEEED0Ev:
.LFB11564:
	.cfi_startproc
	endbr64
	movq	_ZTVNSt13__future_base7_ResultISt10shared_ptrIN8opendnp311IMasterTaskEEEE@GOTPCREL(%rip), %rax
	pushq	%rbp
	.cfi_def_cfa_offset 16
	.cfi_offset 6, -16
	movq	%rdi, %rbp
	addq	$16, %rax
	cmpb	$0, 32(%rdi)
	movq	%rax, (%rdi)
	je	.L1161
	movq	24(%rdi), %rdi
	testq	%rdi, %rdi
	je	.L1161
	call	_ZNSt16_Sp_counted_baseILN9__gnu_cxx12_Lock_policyE2EE10_M_releaseEv@PLT
.L1161:
	movq	%rbp, %rdi
	call	_ZNSt13__future_base12_Result_baseD2Ev@PLT
	movq	%rbp, %rdi
	movl	$40, %esi
	popq	%rbp
	.cfi_def_cfa_offset 8
	jmp	_ZdlPvm@PLT
	.cfi_endproc
.LFE11564:
	.size	_ZNSt13__future_base7_ResultISt10shared_ptrIN8opendnp311IMasterTaskEEED0Ev, .-_ZNSt13__future_base7_ResultISt10shared_ptrIN8opendnp311IMasterTaskEEED0Ev
	.section	.text._ZNSt13__future_base7_ResultISt10shared_ptrIN8opendnp311IMasterTaskEEE10_M_destroyEv,"axG",@progbits,_ZNSt13__future_base7_ResultISt10shared_ptrIN8opendnp311IMasterTaskEEE10_M_destroyEv,comdat
	.align 2
	.p2align 4
	.weak	_ZNSt13__future_base7_ResultISt10shared_ptrIN8opendnp311IMasterTaskEEE10_M_destroyEv
	.type	_ZNSt13__future_base7_ResultISt10shared_ptrIN8opendnp311IMasterTaskEEE10_M_destroyEv, @function
_ZNSt13__future_base7_ResultISt10shared_ptrIN8opendnp311IMasterTaskEEE10_M_destroyEv:
.LFB11560:
	.cfi_startproc
	endbr64
	pushq	%rbp
	.cfi_def_cfa_offset 16
	.cfi_offset 6, -16
	movq	(%rdi), %rax
	movq	%rdi, %rbp
	movq	16(%rax), %rax
	cmpq	_ZNSt13__future_base7_ResultISt10shared_ptrIN8opendnp311IMasterTaskEEED0Ev@GOTPCREL(%rip), %rax
	jne	.L1168
	movq	_ZTVNSt13__future_base7_ResultISt10shared_ptrIN8opendnp311IMasterTaskEEEE@GOTPCREL(%rip), %rax
	addq	$16, %rax
	cmpb	$0, 32(%rdi)
	movq	%rax, (%rdi)
	je	.L1169
	movq	24(%rdi), %rdi
	testq	%rdi, %rdi
	je	.L1169
	call	_ZNSt16_Sp_counted_baseILN9__gnu_cxx12_Lock_policyE2EE10_M_releaseEv@PLT
.L1169:
	movq	%rbp, %rdi
	call	_ZNSt13__future_base12_Result_baseD2Ev@PLT
	movq	%rbp, %rdi
	movl	$40, %esi
	popq	%rbp
	.cfi_remember_state
	.cfi_def_cfa_offset 8
	jmp	_ZdlPvm@PLT
	.p2align 4,,10
	.p2align 3
.L1168:
	.cfi_restore_state
	popq	%rbp
	.cfi_def_cfa_offset 8
	jmp	*%rax
	.cfi_endproc
.LFE11560:
	.size	_ZNSt13__future_base7_ResultISt10shared_ptrIN8opendnp311IMasterTaskEEE10_M_destroyEv, .-_ZNSt13__future_base7_ResultISt10shared_ptrIN8opendnp311IMasterTaskEEE10_M_destroyEv
	.section	.text.unlikely
	.align 2
.LCOLDB29:
	.text
.LHOTB29:
	.align 2
	.p2align 4
	.globl	_ZN8asiodnp318MasterSessionStack6DemandERKSt10shared_ptrIN8opendnp311IMasterTaskEE
	.type	_ZN8asiodnp318MasterSessionStack6DemandERKSt10shared_ptrIN8opendnp311IMasterTaskEE, @function
_ZN8asiodnp318MasterSessionStack6DemandERKSt10shared_ptrIN8opendnp311IMasterTaskEE:
.LFB7841:
	.cfi_startproc
	.cfi_personality 0x9b,DW.ref.__gxx_personality_v0
	.cfi_lsda 0x1b,.LLSDA7841
	endbr64
	pushq	%r13
	.cfi_def_cfa_offset 16
	.cfi_offset 13, -16
	pushq	%r12
	.cfi_def_cfa_offset 24
	.cfi_offset 12, -24
	pushq	%rbp
	.cfi_def_cfa_offset 32
	.cfi_offset 6, -32
	pushq	%rbx
	.cfi_def_cfa_offset 40
	.cfi_offset 3, -40
	subq	$88, %rsp
	.cfi_def_cfa_offset 128
	movdqu	(%rsi), %xmm1
	movq	%fs:40, %rax
	movq	%rax, 72(%rsp)
	xorl	%eax, %eax
	movq	8(%rsi), %rax
	movaps	%xmm1, (%rsp)
	testq	%rax, %rax
	je	.L1176
	cmpq	$0, _ZL28__gthrw___pthread_key_createPjPFvPvE@GOTPCREL(%rip)
	je	.L1177
	lock addl	$1, 8(%rax)
.L1176:
	movq	24(%rdi), %rax
	movq	%rax, 24(%rsp)
	testq	%rax, %rax
	je	.L1178
	leaq	8(%rax), %rdx
	movl	8(%rax), %eax
.L1180:
	testl	%eax, %eax
	je	.L1236
	leal	1(%rax), %ecx
	lock cmpxchgl	%ecx, (%rdx)
	jne	.L1180
	movq	16(%rdi), %rdx
	movdqa	(%rsp), %xmm2
	movq	8(%rsp), %rax
	movq	32(%rdi), %rbp
	movq	%rdx, 16(%rsp)
	movaps	%xmm2, 32(%rsp)
	testq	%rax, %rax
	je	.L1181
	cmpq	$0, _ZL28__gthrw___pthread_key_createPjPFvPvE@GOTPCREL(%rip)
	je	.L1182
	lock addl	$1, 8(%rax)
	movq	16(%rsp), %rdx
.L1181:
	movq	24(%rsp), %rax
	movq	%rdx, 48(%rsp)
	movq	%rax, 56(%rsp)
	testq	%rax, %rax
	je	.L1183
	cmpq	$0, _ZL28__gthrw___pthread_key_createPjPFvPvE@GOTPCREL(%rip)
	je	.L1184
	lock addl	$1, 8(%rax)
.L1183:
	leaq	32(%rsp), %r13
	xorl	%eax, %eax
	movq	40(%rbp), %r12
	addq	$48, %rbp
	movq	%r13, %rdi
	call	_ZN4asio28asio_handler_is_continuationEz@PLT
	movl	%eax, %ebx
	data16	leaq	_ZN4asio6detail15keyword_tss_ptrINS0_10call_stackINS0_15task_io_serviceENS0_27task_io_service_thread_infoEE7contextEE6value_E@tlsgd(%rip), %rdi
	.value	0x6666
	rex64
	call	__tls_get_addr@PLT
	movq	(%rax), %rax
	testq	%rax, %rax
	je	.L1185
	movq	8(%rax), %rax
	testq	%rax, %rax
	je	.L1185
	movq	(%rax), %rdx
	testq	%rdx, %rdx
	je	.L1185
	movq	$0, (%rax)
	movzbl	(%rdx), %eax
	cmpb	$55, %al
	jbe	.L1186
	movb	%al, 56(%rdx)
	jmp	.L1187
	.p2align 4,,10
	.p2align 3
.L1186:
	movq	%rdx, %rdi
	call	_ZdlPv@PLT
.L1185:
	movl	$57, %edi
.LEHB27:
	call	_Znwm@PLT
.LEHE27:
	movb	$56, 56(%rax)
	movq	%rax, %rdx
.L1187:
	leaq	_ZN4asio6detail18completion_handlerIZN8asiodnp318MasterSessionStack6DemandERKSt10shared_ptrIN8opendnp311IMasterTaskEEEUlvE_E11do_completeEPNS0_15task_io_serviceEPNS0_25task_io_service_operationERKSt10error_codem(%rip), %rax
	movq	$0, (%rdx)
	movq	%rax, 8(%rdx)
	movq	40(%rsp), %rax
	movdqa	32(%rsp), %xmm3
	movl	$0, 16(%rdx)
	movups	%xmm3, 24(%rdx)
	testq	%rax, %rax
	je	.L1188
	cmpq	$0, _ZL28__gthrw___pthread_key_createPjPFvPvE@GOTPCREL(%rip)
	je	.L1189
	lock addl	$1, 8(%rax)
.L1188:
	movdqa	48(%rsp), %xmm4
	pxor	%xmm0, %xmm0
	movq	%r12, %rdi
	movzbl	%bl, %ecx
	movq	%rbp, %rsi
	movaps	%xmm0, 48(%rsp)
	movups	%xmm4, 40(%rdx)
	call	_ZN4asio6detail14strand_service7do_postERPNS1_11strand_implEPNS0_25task_io_service_operationEb@PLT
	movq	56(%rsp), %rdi
	testq	%rdi, %rdi
	je	.L1190
	call	_ZNSt16_Sp_counted_baseILN9__gnu_cxx12_Lock_policyE2EE10_M_releaseEv@PLT
.L1190:
	movq	40(%rsp), %rdi
	testq	%rdi, %rdi
	je	.L1191
	call	_ZNSt16_Sp_counted_baseILN9__gnu_cxx12_Lock_policyE2EE10_M_releaseEv@PLT
.L1191:
	movq	24(%rsp), %rdi
	testq	%rdi, %rdi
	je	.L1193
	call	_ZNSt16_Sp_counted_baseILN9__gnu_cxx12_Lock_policyE2EE10_M_releaseEv@PLT
.L1193:
	movq	8(%rsp), %rdi
	testq	%rdi, %rdi
	je	.L1175
	call	_ZNSt16_Sp_counted_baseILN9__gnu_cxx12_Lock_policyE2EE10_M_releaseEv@PLT
.L1175:
	movq	72(%rsp), %rax
	xorq	%fs:40, %rax
	jne	.L1238
	addq	$88, %rsp
	.cfi_remember_state
	.cfi_def_cfa_offset 40
	popq	%rbx
	.cfi_def_cfa_offset 32
	popq	%rbp
	.cfi_def_cfa_offset 24
	popq	%r12
	.cfi_def_cfa_offset 16
	popq	%r13
	.cfi_def_cfa_offset 8
	ret
	.p2align 4,,10
	.p2align 3
.L1182:
	.cfi_restore_state
	addl	$1, 8(%rax)
	jmp	.L1181
	.p2align 4,,10
	.p2align 3
.L1177:
	addl	$1, 8(%rax)
	jmp	.L1176
	.p2align 4,,10
	.p2align 3
.L1189:
	addl	$1, 8(%rax)
	jmp	.L1188
	.p2align 4,,10
	.p2align 3
.L1184:
	addl	$1, 8(%rax)
	jmp	.L1183
.L1238:
	call	__stack_chk_fail@PLT
.L1200:
	endbr64
	movq	%rax, %rbp
	jmp	.L1194
	.section	.gcc_except_table
.LLSDA7841:
	.byte	0xff
	.byte	0xff
	.byte	0x1
	.uleb128 .LLSDACSE7841-.LLSDACSB7841
.LLSDACSB7841:
	.uleb128 .LEHB27-.LFB7841
	.uleb128 .LEHE27-.LEHB27
	.uleb128 .L1200-.LFB7841
	.uleb128 0
.LLSDACSE7841:
	.text
	.cfi_endproc
	.section	.text.unlikely
	.cfi_startproc
	.cfi_personality 0x9b,DW.ref.__gxx_personality_v0
	.cfi_lsda 0x1b,.LLSDAC7841
	.type	_ZN8asiodnp318MasterSessionStack6DemandERKSt10shared_ptrIN8opendnp311IMasterTaskEE.cold, @function
_ZN8asiodnp318MasterSessionStack6DemandERKSt10shared_ptrIN8opendnp311IMasterTaskEE.cold:
.LFSB7841:
.L1236:
	.cfi_def_cfa_offset 128
	.cfi_offset 3, -40
	.cfi_offset 6, -32
	.cfi_offset 12, -24
	.cfi_offset 13, -16
.LEHB28:
	call	_ZSt20__throw_bad_weak_ptrv@PLT
.L1178:
	call	_ZSt20__throw_bad_weak_ptrv@PLT
.LEHE28:
.L1194:
	movq	%r13, %rdi
	call	_ZZN8asiodnp318MasterSessionStack6DemandERKSt10shared_ptrIN8opendnp311IMasterTaskEEENUlvE_D1Ev
	movq	%rsp, %rdi
	call	_ZZN8asiodnp318MasterSessionStack6DemandERKSt10shared_ptrIN8opendnp311IMasterTaskEEENUlvE_D1Ev
	movq	%rbp, %rdi
.LEHB29:
	call	_Unwind_Resume@PLT
.L1199:
	endbr64
	movq	8(%rsp), %rdi
	movq	%rax, %rbp
	testq	%rdi, %rdi
	je	.L1197
	call	_ZNSt16_Sp_counted_baseILN9__gnu_cxx12_Lock_policyE2EE10_M_releaseEv@PLT
.L1197:
	movq	%rbp, %rdi
	call	_Unwind_Resume@PLT
.LEHE29:
	.cfi_endproc
.LFE7841:
	.section	.gcc_except_table
.LLSDAC7841:
	.byte	0xff
	.byte	0xff
	.byte	0x1
	.uleb128 .LLSDACSEC7841-.LLSDACSBC7841
.LLSDACSBC7841:
	.uleb128 .LEHB28-.LCOLDB29
	.uleb128 .LEHE28-.LEHB28
	.uleb128 .L1199-.LCOLDB29
	.uleb128 0
	.uleb128 .LEHB29-.LCOLDB29
	.uleb128 .LEHE29-.LEHB29
	.uleb128 0
	.uleb128 0
.LLSDACSEC7841:
	.section	.text.unlikely
	.text
	.size	_ZN8asiodnp318MasterSessionStack6DemandERKSt10shared_ptrIN8opendnp311IMasterTaskEE, .-_ZN8asiodnp318MasterSessionStack6DemandERKSt10shared_ptrIN8opendnp311IMasterTaskEE
	.section	.text.unlikely
	.size	_ZN8asiodnp318MasterSessionStack6DemandERKSt10shared_ptrIN8opendnp311IMasterTaskEE.cold, .-_ZN8asiodnp318MasterSessionStack6DemandERKSt10shared_ptrIN8opendnp311IMasterTaskEE.cold
.LCOLDE29:
	.text
.LHOTE29:
	.set	.LTHUNK2,_ZN8asiodnp318MasterSessionStack6DemandERKSt10shared_ptrIN8opendnp311IMasterTaskEE
	.p2align 4
	.globl	_ZThn8_N8asiodnp318MasterSessionStack6DemandERKSt10shared_ptrIN8opendnp311IMasterTaskEE
	.type	_ZThn8_N8asiodnp318MasterSessionStack6DemandERKSt10shared_ptrIN8opendnp311IMasterTaskEE, @function
_ZThn8_N8asiodnp318MasterSessionStack6DemandERKSt10shared_ptrIN8opendnp311IMasterTaskEE:
.LFB12039:
	.cfi_startproc
	endbr64
	subq	$8, %rdi
	jmp	.LTHUNK2
	.cfi_endproc
.LFE12039:
	.size	_ZThn8_N8asiodnp318MasterSessionStack6DemandERKSt10shared_ptrIN8opendnp311IMasterTaskEE, .-_ZThn8_N8asiodnp318MasterSessionStack6DemandERKSt10shared_ptrIN8opendnp311IMasterTaskEE
	.section	.text.unlikely
.LCOLDB30:
	.text
.LHOTB30:
	.p2align 4
	.type	_ZN4asio6detail18completion_handlerIZN8asiodnp318MasterSessionStack13BeginShutdownEvEUlvE_E11do_completeEPNS0_15task_io_serviceEPNS0_25task_io_service_operationERKSt10error_codem, @function
_ZN4asio6detail18completion_handlerIZN8asiodnp318MasterSessionStack13BeginShutdownEvEUlvE_E11do_completeEPNS0_15task_io_serviceEPNS0_25task_io_service_operationERKSt10error_codem:
.LFB10397:
	.cfi_startproc
	.cfi_personality 0x9b,DW.ref.__gxx_personality_v0
	.cfi_lsda 0x1b,.LLSDA10397
	endbr64
	pushq	%r13
	.cfi_def_cfa_offset 16
	.cfi_offset 13, -16
	pushq	%r12
	.cfi_def_cfa_offset 24
	.cfi_offset 12, -24
	pushq	%rbp
	.cfi_def_cfa_offset 32
	.cfi_offset 6, -32
	movq	%rsi, %rbp
	pushq	%rbx
	.cfi_def_cfa_offset 40
	.cfi_offset 3, -40
	movq	%rdi, %rbx
	subq	$8, %rsp
	.cfi_def_cfa_offset 48
	movq	24(%rsi), %r13
	movq	32(%rsi), %r12
	data16	leaq	_ZN4asio6detail15keyword_tss_ptrINS0_10call_stackINS0_15task_io_serviceENS0_27task_io_service_thread_infoEE7contextEE6value_E@tlsgd(%rip), %rdi
	.value	0x6666
	rex64
	call	__tls_get_addr@PLT
	movq	(%rax), %rax
	testq	%rax, %rax
	je	.L1240
	movq	8(%rax), %rax
	testq	%rax, %rax
	je	.L1240
	cmpq	$0, (%rax)
	je	.L1260
.L1240:
	movq	%rbp, %rdi
	call	_ZdlPv@PLT
.L1241:
	testq	%rbx, %rbx
	je	.L1242
	movq	%r13, %rdi
.LEHB30:
	call	_ZN8asiodnp311LinkSession8ShutdownEv@PLT
.LEHE30:
	sfence
.L1242:
	testq	%r12, %r12
	je	.L1239
	addq	$8, %rsp
	.cfi_remember_state
	.cfi_def_cfa_offset 40
	movq	%r12, %rdi
	popq	%rbx
	.cfi_def_cfa_offset 32
	popq	%rbp
	.cfi_def_cfa_offset 24
	popq	%r12
	.cfi_def_cfa_offset 16
	popq	%r13
	.cfi_def_cfa_offset 8
	jmp	_ZNSt16_Sp_counted_baseILN9__gnu_cxx12_Lock_policyE2EE10_M_releaseEv@PLT
	.p2align 4,,10
	.p2align 3
.L1239:
	.cfi_restore_state
	addq	$8, %rsp
	.cfi_remember_state
	.cfi_def_cfa_offset 40
	popq	%rbx
	.cfi_def_cfa_offset 32
	popq	%rbp
	.cfi_def_cfa_offset 24
	popq	%r12
	.cfi_def_cfa_offset 16
	popq	%r13
	.cfi_def_cfa_offset 8
	ret
	.p2align 4,,10
	.p2align 3
.L1260:
	.cfi_restore_state
	movzbl	40(%rbp), %edx
	movb	%dl, 0(%rbp)
	movq	%rbp, (%rax)
	jmp	.L1241
.L1246:
	endbr64
	movq	%rax, %rbp
	jmp	.L1244
	.section	.gcc_except_table
.LLSDA10397:
	.byte	0xff
	.byte	0xff
	.byte	0x1
	.uleb128 .LLSDACSE10397-.LLSDACSB10397
.LLSDACSB10397:
	.uleb128 .LEHB30-.LFB10397
	.uleb128 .LEHE30-.LEHB30
	.uleb128 .L1246-.LFB10397
	.uleb128 0
.LLSDACSE10397:
	.text
	.cfi_endproc
	.section	.text.unlikely
	.cfi_startproc
	.cfi_personality 0x9b,DW.ref.__gxx_personality_v0
	.cfi_lsda 0x1b,.LLSDAC10397
	.type	_ZN4asio6detail18completion_handlerIZN8asiodnp318MasterSessionStack13BeginShutdownEvEUlvE_E11do_completeEPNS0_15task_io_serviceEPNS0_25task_io_service_operationERKSt10error_codem.cold, @function
_ZN4asio6detail18completion_handlerIZN8asiodnp318MasterSessionStack13BeginShutdownEvEUlvE_E11do_completeEPNS0_15task_io_serviceEPNS0_25task_io_service_operationERKSt10error_codem.cold:
.LFSB10397:
.L1244:
	.cfi_def_cfa_offset 48
	.cfi_offset 3, -40
	.cfi_offset 6, -32
	.cfi_offset 12, -24
	.cfi_offset 13, -16
	sfence
	testq	%r12, %r12
	je	.L1245
	movq	%r12, %rdi
	call	_ZNSt16_Sp_counted_baseILN9__gnu_cxx12_Lock_policyE2EE10_M_releaseEv@PLT
.L1245:
	movq	%rbp, %rdi
.LEHB31:
	call	_Unwind_Resume@PLT
.LEHE31:
	.cfi_endproc
.LFE10397:
	.section	.gcc_except_table
.LLSDAC10397:
	.byte	0xff
	.byte	0xff
	.byte	0x1
	.uleb128 .LLSDACSEC10397-.LLSDACSBC10397
.LLSDACSBC10397:
	.uleb128 .LEHB31-.LCOLDB30
	.uleb128 .LEHE31-.LEHB31
	.uleb128 0
	.uleb128 0
.LLSDACSEC10397:
	.section	.text.unlikely
	.text
	.size	_ZN4asio6detail18completion_handlerIZN8asiodnp318MasterSessionStack13BeginShutdownEvEUlvE_E11do_completeEPNS0_15task_io_serviceEPNS0_25task_io_service_operationERKSt10error_codem, .-_ZN4asio6detail18completion_handlerIZN8asiodnp318MasterSessionStack13BeginShutdownEvEUlvE_E11do_completeEPNS0_15task_io_serviceEPNS0_25task_io_service_operationERKSt10error_codem
	.section	.text.unlikely
	.size	_ZN4asio6detail18completion_handlerIZN8asiodnp318MasterSessionStack13BeginShutdownEvEUlvE_E11do_completeEPNS0_15task_io_serviceEPNS0_25task_io_service_operationERKSt10error_codem.cold, .-_ZN4asio6detail18completion_handlerIZN8asiodnp318MasterSessionStack13BeginShutdownEvEUlvE_E11do_completeEPNS0_15task_io_serviceEPNS0_25task_io_service_operationERKSt10error_codem.cold
.LCOLDE30:
	.text
.LHOTE30:
	.section	.text.unlikely
.LCOLDB31:
	.text
.LHOTB31:
	.p2align 4
	.type	_ZN4asio6detail18completion_handlerIZN8asiodnp318MasterSessionStack14ScanAllObjectsEN8opendnp316GroupVariationIDERKNS4_10TaskConfigEEUlvE_E11do_completeEPNS0_15task_io_serviceEPNS0_25task_io_service_operationERKSt10error_codem, @function
_ZN4asio6detail18completion_handlerIZN8asiodnp318MasterSessionStack14ScanAllObjectsEN8opendnp316GroupVariationIDERKNS4_10TaskConfigEEUlvE_E11do_completeEPNS0_15task_io_serviceEPNS0_25task_io_service_operationERKSt10error_codem:
.LFB10476:
	.cfi_startproc
	.cfi_personality 0x9b,DW.ref.__gxx_personality_v0
	.cfi_lsda 0x1b,.LLSDA10476
	endbr64
	pushq	%r13
	.cfi_def_cfa_offset 16
	.cfi_offset 13, -16
	pushq	%r12
	.cfi_def_cfa_offset 24
	.cfi_offset 12, -24
	pushq	%rbp
	.cfi_def_cfa_offset 32
	.cfi_offset 6, -32
	movq	%rsi, %rbp
	pushq	%rbx
	.cfi_def_cfa_offset 40
	.cfi_offset 3, -40
	movq	%rdi, %rbx
	subq	$56, %rsp
	.cfi_def_cfa_offset 96
	movzwl	40(%rsi), %eax
	movdqu	48(%rsi), %xmm0
	movq	24(%rsi), %r12
	movq	32(%rsi), %r13
	movw	%ax, 16(%rsp)
	movups	%xmm0, 24(%rsp)
	data16	leaq	_ZN4asio6detail15keyword_tss_ptrINS0_10call_stackINS0_15task_io_serviceENS0_27task_io_service_thread_infoEE7contextEE6value_E@tlsgd(%rip), %rdi
	.value	0x6666
	rex64
	call	__tls_get_addr@PLT
	movq	(%rax), %rax
	testq	%rax, %rax
	je	.L1262
	movq	8(%rax), %rax
	testq	%rax, %rax
	je	.L1262
	cmpq	$0, (%rax)
	je	.L1282
.L1262:
	movq	%rbp, %rdi
	call	_ZdlPv@PLT
.L1263:
	testq	%rbx, %rbx
	je	.L1264
	movq	24(%rsp), %rdx
	movq	32(%rsp), %rcx
	leaq	96(%r12), %rdi
	movzwl	16(%rsp), %esi
.LEHB32:
	call	_ZN8opendnp38MContext14ScanAllObjectsENS_16GroupVariationIDENS_10TaskConfigE@PLT
.LEHE32:
	sfence
.L1264:
	testq	%r13, %r13
	je	.L1261
	addq	$56, %rsp
	.cfi_remember_state
	.cfi_def_cfa_offset 40
	movq	%r13, %rdi
	popq	%rbx
	.cfi_def_cfa_offset 32
	popq	%rbp
	.cfi_def_cfa_offset 24
	popq	%r12
	.cfi_def_cfa_offset 16
	popq	%r13
	.cfi_def_cfa_offset 8
	jmp	_ZNSt16_Sp_counted_baseILN9__gnu_cxx12_Lock_policyE2EE10_M_releaseEv@PLT
	.p2align 4,,10
	.p2align 3
.L1261:
	.cfi_restore_state
	addq	$56, %rsp
	.cfi_remember_state
	.cfi_def_cfa_offset 40
	popq	%rbx
	.cfi_def_cfa_offset 32
	popq	%rbp
	.cfi_def_cfa_offset 24
	popq	%r12
	.cfi_def_cfa_offset 16
	popq	%r13
	.cfi_def_cfa_offset 8
	ret
	.p2align 4,,10
	.p2align 3
.L1282:
	.cfi_restore_state
	movzbl	64(%rbp), %edx
	movb	%dl, 0(%rbp)
	movq	%rbp, (%rax)
	jmp	.L1263
.L1268:
	endbr64
	movq	%rax, %rbp
	jmp	.L1266
	.section	.gcc_except_table
.LLSDA10476:
	.byte	0xff
	.byte	0xff
	.byte	0x1
	.uleb128 .LLSDACSE10476-.LLSDACSB10476
.LLSDACSB10476:
	.uleb128 .LEHB32-.LFB10476
	.uleb128 .LEHE32-.LEHB32
	.uleb128 .L1268-.LFB10476
	.uleb128 0
.LLSDACSE10476:
	.text
	.cfi_endproc
	.section	.text.unlikely
	.cfi_startproc
	.cfi_personality 0x9b,DW.ref.__gxx_personality_v0
	.cfi_lsda 0x1b,.LLSDAC10476
	.type	_ZN4asio6detail18completion_handlerIZN8asiodnp318MasterSessionStack14ScanAllObjectsEN8opendnp316GroupVariationIDERKNS4_10TaskConfigEEUlvE_E11do_completeEPNS0_15task_io_serviceEPNS0_25task_io_service_operationERKSt10error_codem.cold, @function
_ZN4asio6detail18completion_handlerIZN8asiodnp318MasterSessionStack14ScanAllObjectsEN8opendnp316GroupVariationIDERKNS4_10TaskConfigEEUlvE_E11do_completeEPNS0_15task_io_serviceEPNS0_25task_io_service_operationERKSt10error_codem.cold:
.LFSB10476:
.L1266:
	.cfi_def_cfa_offset 96
	.cfi_offset 3, -40
	.cfi_offset 6, -32
	.cfi_offset 12, -24
	.cfi_offset 13, -16
	sfence
	testq	%r13, %r13
	je	.L1267
	movq	%r13, %rdi
	call	_ZNSt16_Sp_counted_baseILN9__gnu_cxx12_Lock_policyE2EE10_M_releaseEv@PLT
.L1267:
	movq	%rbp, %rdi
.LEHB33:
	call	_Unwind_Resume@PLT
.LEHE33:
	.cfi_endproc
.LFE10476:
	.section	.gcc_except_table
.LLSDAC10476:
	.byte	0xff
	.byte	0xff
	.byte	0x1
	.uleb128 .LLSDACSEC10476-.LLSDACSBC10476
.LLSDACSBC10476:
	.uleb128 .LEHB33-.LCOLDB31
	.uleb128 .LEHE33-.LEHB33
	.uleb128 0
	.uleb128 0
.LLSDACSEC10476:
	.section	.text.unlikely
	.text
	.size	_ZN4asio6detail18completion_handlerIZN8asiodnp318MasterSessionStack14ScanAllObjectsEN8opendnp316GroupVariationIDERKNS4_10TaskConfigEEUlvE_E11do_completeEPNS0_15task_io_serviceEPNS0_25task_io_service_operationERKSt10error_codem, .-_ZN4asio6detail18completion_handlerIZN8asiodnp318MasterSessionStack14ScanAllObjectsEN8opendnp316GroupVariationIDERKNS4_10TaskConfigEEUlvE_E11do_completeEPNS0_15task_io_serviceEPNS0_25task_io_service_operationERKSt10error_codem
	.section	.text.unlikely
	.size	_ZN4asio6detail18completion_handlerIZN8asiodnp318MasterSessionStack14ScanAllObjectsEN8opendnp316GroupVariationIDERKNS4_10TaskConfigEEUlvE_E11do_completeEPNS0_15task_io_serviceEPNS0_25task_io_service_operationERKSt10error_codem.cold, .-_ZN4asio6detail18completion_handlerIZN8asiodnp318MasterSessionStack14ScanAllObjectsEN8opendnp316GroupVariationIDERKNS4_10TaskConfigEEUlvE_E11do_completeEPNS0_15task_io_serviceEPNS0_25task_io_service_operationERKSt10error_codem.cold
.LCOLDE31:
	.text
.LHOTE31:
	.section	.text.unlikely
.LCOLDB32:
	.text
.LHOTB32:
	.p2align 4
	.type	_ZN4asio6detail18completion_handlerIZN8asiodnp318MasterSessionStack11ScanClassesERKN8opendnp310ClassFieldERKNS4_10TaskConfigEEUlvE_E11do_completeEPNS0_15task_io_serviceEPNS0_25task_io_service_operationERKSt10error_codem, @function
_ZN4asio6detail18completion_handlerIZN8asiodnp318MasterSessionStack11ScanClassesERKN8opendnp310ClassFieldERKNS4_10TaskConfigEEUlvE_E11do_completeEPNS0_15task_io_serviceEPNS0_25task_io_service_operationERKSt10error_codem:
.LFB10481:
	.cfi_startproc
	.cfi_personality 0x9b,DW.ref.__gxx_personality_v0
	.cfi_lsda 0x1b,.LLSDA10481
	endbr64
	pushq	%rbp
	.cfi_def_cfa_offset 16
	.cfi_offset 6, -16
	movq	%rsi, %rbp
	pushq	%rbx
	.cfi_def_cfa_offset 24
	.cfi_offset 3, -24
	movq	%rdi, %rbx
	subq	$56, %rsp
	.cfi_def_cfa_offset 80
	movdqu	24(%rsi), %xmm0
	movdqu	48(%rsi), %xmm1
	movq	%fs:40, %rax
	movq	%rax, 40(%rsp)
	xorl	%eax, %eax
	movzbl	40(%rsi), %eax
	movaps	%xmm0, (%rsp)
	movb	%al, 16(%rsp)
	movups	%xmm1, 24(%rsp)
	data16	leaq	_ZN4asio6detail15keyword_tss_ptrINS0_10call_stackINS0_15task_io_serviceENS0_27task_io_service_thread_infoEE7contextEE6value_E@tlsgd(%rip), %rdi
	.value	0x6666
	rex64
	call	__tls_get_addr@PLT
	movq	(%rax), %rax
	testq	%rax, %rax
	je	.L1284
	movq	8(%rax), %rax
	testq	%rax, %rax
	je	.L1284
	cmpq	$0, (%rax)
	je	.L1308
.L1284:
	movq	%rbp, %rdi
	call	_ZdlPv@PLT
.L1285:
	testq	%rbx, %rbx
	je	.L1286
	movq	(%rsp), %rax
	movq	24(%rsp), %rdx
	leaq	16(%rsp), %rsi
	movq	32(%rsp), %rcx
	leaq	96(%rax), %rdi
.LEHB34:
	call	_ZN8opendnp38MContext11ScanClassesERKNS_10ClassFieldENS_10TaskConfigE@PLT
.LEHE34:
	sfence
.L1286:
	movq	8(%rsp), %rdi
	testq	%rdi, %rdi
	je	.L1283
	call	_ZNSt16_Sp_counted_baseILN9__gnu_cxx12_Lock_policyE2EE10_M_releaseEv@PLT
.L1283:
	movq	40(%rsp), %rax
	xorq	%fs:40, %rax
	jne	.L1309
	addq	$56, %rsp
	.cfi_remember_state
	.cfi_def_cfa_offset 24
	popq	%rbx
	.cfi_def_cfa_offset 16
	popq	%rbp
	.cfi_def_cfa_offset 8
	ret
	.p2align 4,,10
	.p2align 3
.L1308:
	.cfi_restore_state
	movzbl	64(%rbp), %edx
	movb	%dl, 0(%rbp)
	movq	%rbp, (%rax)
	jmp	.L1285
.L1309:
	call	__stack_chk_fail@PLT
.L1291:
	endbr64
	movq	%rax, %rbp
	jmp	.L1288
	.section	.gcc_except_table
.LLSDA10481:
	.byte	0xff
	.byte	0xff
	.byte	0x1
	.uleb128 .LLSDACSE10481-.LLSDACSB10481
.LLSDACSB10481:
	.uleb128 .LEHB34-.LFB10481
	.uleb128 .LEHE34-.LEHB34
	.uleb128 .L1291-.LFB10481
	.uleb128 0
.LLSDACSE10481:
	.text
	.cfi_endproc
	.section	.text.unlikely
	.cfi_startproc
	.cfi_personality 0x9b,DW.ref.__gxx_personality_v0
	.cfi_lsda 0x1b,.LLSDAC10481
	.type	_ZN4asio6detail18completion_handlerIZN8asiodnp318MasterSessionStack11ScanClassesERKN8opendnp310ClassFieldERKNS4_10TaskConfigEEUlvE_E11do_completeEPNS0_15task_io_serviceEPNS0_25task_io_service_operationERKSt10error_codem.cold, @function
_ZN4asio6detail18completion_handlerIZN8asiodnp318MasterSessionStack11ScanClassesERKN8opendnp310ClassFieldERKNS4_10TaskConfigEEUlvE_E11do_completeEPNS0_15task_io_serviceEPNS0_25task_io_service_operationERKSt10error_codem.cold:
.LFSB10481:
.L1288:
	.cfi_def_cfa_offset 80
	.cfi_offset 3, -24
	.cfi_offset 6, -16
	sfence
	movq	8(%rsp), %rdi
	testq	%rdi, %rdi
	je	.L1289
	call	_ZNSt16_Sp_counted_baseILN9__gnu_cxx12_Lock_policyE2EE10_M_releaseEv@PLT
.L1289:
	movq	%rbp, %rdi
.LEHB35:
	call	_Unwind_Resume@PLT
.LEHE35:
	.cfi_endproc
.LFE10481:
	.section	.gcc_except_table
.LLSDAC10481:
	.byte	0xff
	.byte	0xff
	.byte	0x1
	.uleb128 .LLSDACSEC10481-.LLSDACSBC10481
.LLSDACSBC10481:
	.uleb128 .LEHB35-.LCOLDB32
	.uleb128 .LEHE35-.LEHB35
	.uleb128 0
	.uleb128 0
.LLSDACSEC10481:
	.section	.text.unlikely
	.text
	.size	_ZN4asio6detail18completion_handlerIZN8asiodnp318MasterSessionStack11ScanClassesERKN8opendnp310ClassFieldERKNS4_10TaskConfigEEUlvE_E11do_completeEPNS0_15task_io_serviceEPNS0_25task_io_service_operationERKSt10error_codem, .-_ZN4asio6detail18completion_handlerIZN8asiodnp318MasterSessionStack11ScanClassesERKN8opendnp310ClassFieldERKNS4_10TaskConfigEEUlvE_E11do_completeEPNS0_15task_io_serviceEPNS0_25task_io_service_operationERKSt10error_codem
	.section	.text.unlikely
	.size	_ZN4asio6detail18completion_handlerIZN8asiodnp318MasterSessionStack11ScanClassesERKN8opendnp310ClassFieldERKNS4_10TaskConfigEEUlvE_E11do_completeEPNS0_15task_io_serviceEPNS0_25task_io_service_operationERKSt10error_codem.cold, .-_ZN4asio6detail18completion_handlerIZN8asiodnp318MasterSessionStack11ScanClassesERKN8opendnp310ClassFieldERKNS4_10TaskConfigEEUlvE_E11do_completeEPNS0_15task_io_serviceEPNS0_25task_io_service_operationERKSt10error_codem.cold
.LCOLDE32:
	.text
.LHOTE32:
	.section	.text.unlikely
.LCOLDB33:
	.text
.LHOTB33:
	.p2align 4
	.type	_ZN4asio6detail18completion_handlerIZN8asiodnp318MasterSessionStack5WriteERKN8opendnp315TimeAndIntervalEtRKNS4_10TaskConfigEEUlvE_E11do_completeEPNS0_15task_io_serviceEPNS0_25task_io_service_operationERKSt10error_codem, @function
_ZN4asio6detail18completion_handlerIZN8asiodnp318MasterSessionStack5WriteERKN8opendnp315TimeAndIntervalEtRKNS4_10TaskConfigEEUlvE_E11do_completeEPNS0_15task_io_serviceEPNS0_25task_io_service_operationERKSt10error_codem:
.LFB10491:
	.cfi_startproc
	.cfi_personality 0x9b,DW.ref.__gxx_personality_v0
	.cfi_lsda 0x1b,.LLSDA10491
	endbr64
	pushq	%rbp
	.cfi_def_cfa_offset 16
	.cfi_offset 6, -16
	movq	%rsi, %rbp
	pushq	%rbx
	.cfi_def_cfa_offset 24
	.cfi_offset 3, -24
	movq	%rdi, %rbx
	subq	$72, %rsp
	.cfi_def_cfa_offset 96
	movdqu	24(%rsi), %xmm0
	movdqu	40(%rsi), %xmm1
	movq	%fs:40, %rax
	movq	%rax, 56(%rsp)
	xorl	%eax, %eax
	movdqu	64(%rsi), %xmm2
	movzwl	56(%rsi), %eax
	movaps	%xmm0, (%rsp)
	movw	%ax, 32(%rsp)
	movaps	%xmm1, 16(%rsp)
	movups	%xmm2, 40(%rsp)
	data16	leaq	_ZN4asio6detail15keyword_tss_ptrINS0_10call_stackINS0_15task_io_serviceENS0_27task_io_service_thread_infoEE7contextEE6value_E@tlsgd(%rip), %rdi
	.value	0x6666
	rex64
	call	__tls_get_addr@PLT
	movq	(%rax), %rax
	testq	%rax, %rax
	je	.L1311
	movq	8(%rax), %rax
	testq	%rax, %rax
	je	.L1311
	cmpq	$0, (%rax)
	je	.L1335
.L1311:
	movq	%rbp, %rdi
	call	_ZdlPv@PLT
.L1312:
	testq	%rbx, %rbx
	je	.L1313
	movq	(%rsp), %rax
	movzwl	32(%rsp), %edx
	leaq	16(%rsp), %rsi
	movq	40(%rsp), %rcx
	movq	48(%rsp), %r8
	leaq	96(%rax), %rdi
.LEHB36:
	call	_ZN8opendnp38MContext5WriteERKNS_15TimeAndIntervalEtNS_10TaskConfigE@PLT
.LEHE36:
	sfence
.L1313:
	movq	8(%rsp), %rdi
	testq	%rdi, %rdi
	je	.L1310
	call	_ZNSt16_Sp_counted_baseILN9__gnu_cxx12_Lock_policyE2EE10_M_releaseEv@PLT
.L1310:
	movq	56(%rsp), %rax
	xorq	%fs:40, %rax
	jne	.L1336
	addq	$72, %rsp
	.cfi_remember_state
	.cfi_def_cfa_offset 24
	popq	%rbx
	.cfi_def_cfa_offset 16
	popq	%rbp
	.cfi_def_cfa_offset 8
	ret
	.p2align 4,,10
	.p2align 3
.L1335:
	.cfi_restore_state
	movzbl	80(%rbp), %edx
	movb	%dl, 0(%rbp)
	movq	%rbp, (%rax)
	jmp	.L1312
.L1336:
	call	__stack_chk_fail@PLT
.L1318:
	endbr64
	movq	%rax, %rbp
	jmp	.L1315
	.section	.gcc_except_table
.LLSDA10491:
	.byte	0xff
	.byte	0xff
	.byte	0x1
	.uleb128 .LLSDACSE10491-.LLSDACSB10491
.LLSDACSB10491:
	.uleb128 .LEHB36-.LFB10491
	.uleb128 .LEHE36-.LEHB36
	.uleb128 .L1318-.LFB10491
	.uleb128 0
.LLSDACSE10491:
	.text
	.cfi_endproc
	.section	.text.unlikely
	.cfi_startproc
	.cfi_personality 0x9b,DW.ref.__gxx_personality_v0
	.cfi_lsda 0x1b,.LLSDAC10491
	.type	_ZN4asio6detail18completion_handlerIZN8asiodnp318MasterSessionStack5WriteERKN8opendnp315TimeAndIntervalEtRKNS4_10TaskConfigEEUlvE_E11do_completeEPNS0_15task_io_serviceEPNS0_25task_io_service_operationERKSt10error_codem.cold, @function
_ZN4asio6detail18completion_handlerIZN8asiodnp318MasterSessionStack5WriteERKN8opendnp315TimeAndIntervalEtRKNS4_10TaskConfigEEUlvE_E11do_completeEPNS0_15task_io_serviceEPNS0_25task_io_service_operationERKSt10error_codem.cold:
.LFSB10491:
.L1315:
	.cfi_def_cfa_offset 96
	.cfi_offset 3, -24
	.cfi_offset 6, -16
	sfence
	movq	8(%rsp), %rdi
	testq	%rdi, %rdi
	je	.L1316
	call	_ZNSt16_Sp_counted_baseILN9__gnu_cxx12_Lock_policyE2EE10_M_releaseEv@PLT
.L1316:
	movq	%rbp, %rdi
.LEHB37:
	call	_Unwind_Resume@PLT
.LEHE37:
	.cfi_endproc
.LFE10491:
	.section	.gcc_except_table
.LLSDAC10491:
	.byte	0xff
	.byte	0xff
	.byte	0x1
	.uleb128 .LLSDACSEC10491-.LLSDACSBC10491
.LLSDACSBC10491:
	.uleb128 .LEHB37-.LCOLDB33
	.uleb128 .LEHE37-.LEHB37
	.uleb128 0
	.uleb128 0
.LLSDACSEC10491:
	.section	.text.unlikely
	.text
	.size	_ZN4asio6detail18completion_handlerIZN8asiodnp318MasterSessionStack5WriteERKN8opendnp315TimeAndIntervalEtRKNS4_10TaskConfigEEUlvE_E11do_completeEPNS0_15task_io_serviceEPNS0_25task_io_service_operationERKSt10error_codem, .-_ZN4asio6detail18completion_handlerIZN8asiodnp318MasterSessionStack5WriteERKN8opendnp315TimeAndIntervalEtRKNS4_10TaskConfigEEUlvE_E11do_completeEPNS0_15task_io_serviceEPNS0_25task_io_service_operationERKSt10error_codem
	.section	.text.unlikely
	.size	_ZN4asio6detail18completion_handlerIZN8asiodnp318MasterSessionStack5WriteERKN8opendnp315TimeAndIntervalEtRKNS4_10TaskConfigEEUlvE_E11do_completeEPNS0_15task_io_serviceEPNS0_25task_io_service_operationERKSt10error_codem.cold, .-_ZN4asio6detail18completion_handlerIZN8asiodnp318MasterSessionStack5WriteERKN8opendnp315TimeAndIntervalEtRKNS4_10TaskConfigEEUlvE_E11do_completeEPNS0_15task_io_serviceEPNS0_25task_io_service_operationERKSt10error_codem.cold
.LCOLDE33:
	.text
.LHOTE33:
	.section	.text.unlikely
.LCOLDB34:
	.text
.LHOTB34:
	.p2align 4
	.type	_ZN4asio6detail18completion_handlerIZN8asiodnp318MasterSessionStack6DemandERKSt10shared_ptrIN8opendnp311IMasterTaskEEEUlvE_E11do_completeEPNS0_15task_io_serviceEPNS0_25task_io_service_operationERKSt10error_codem, @function
_ZN4asio6detail18completion_handlerIZN8asiodnp318MasterSessionStack6DemandERKSt10shared_ptrIN8opendnp311IMasterTaskEEEUlvE_E11do_completeEPNS0_15task_io_serviceEPNS0_25task_io_service_operationERKSt10error_codem:
.LFB10392:
	.cfi_startproc
	.cfi_personality 0x9b,DW.ref.__gxx_personality_v0
	.cfi_lsda 0x1b,.LLSDA10392
	endbr64
	pushq	%rbp
	.cfi_def_cfa_offset 16
	.cfi_offset 6, -16
	movq	%rsi, %rbp
	pushq	%rbx
	.cfi_def_cfa_offset 24
	.cfi_offset 3, -24
	movq	%rdi, %rbx
	subq	$56, %rsp
	.cfi_def_cfa_offset 80
	movdqu	24(%rsi), %xmm0
	movq	32(%rsi), %rdi
	movq	%fs:40, %rax
	movq	%rax, 40(%rsp)
	xorl	%eax, %eax
	movaps	%xmm0, (%rsp)
	testq	%rdi, %rdi
	je	.L1338
	cmpq	$0, _ZL28__gthrw___pthread_key_createPjPFvPvE@GOTPCREL(%rip)
	je	.L1339
	lock addl	$1, 8(%rdi)
	movdqu	40(%rsi), %xmm1
	movq	32(%rsi), %rdi
	movaps	%xmm1, 16(%rsp)
	testq	%rdi, %rdi
	jne	.L1340
.L1341:
	data16	leaq	_ZN4asio6detail15keyword_tss_ptrINS0_10call_stackINS0_15task_io_serviceENS0_27task_io_service_thread_infoEE7contextEE6value_E@tlsgd(%rip), %rdi
	.value	0x6666
	rex64
	call	__tls_get_addr@PLT
	movq	(%rax), %rax
	testq	%rax, %rax
	je	.L1342
	movq	8(%rax), %rax
	testq	%rax, %rax
	je	.L1342
	cmpq	$0, (%rax)
	je	.L1366
.L1342:
	movq	%rbp, %rdi
	call	_ZdlPv@PLT
.L1343:
	testq	%rbx, %rbx
	je	.L1344
	movq	(%rsp), %rdi
.LEHB38:
	call	_ZN8opendnp311IMasterTask6DemandEv@PLT
	movq	16(%rsp), %rax
	leaq	96(%rax), %rdi
	call	_ZN8opendnp38MContext12CheckForTaskEv@PLT
.LEHE38:
	sfence
.L1344:
	movq	24(%rsp), %rdi
	testq	%rdi, %rdi
	je	.L1345
	call	_ZNSt16_Sp_counted_baseILN9__gnu_cxx12_Lock_policyE2EE10_M_releaseEv@PLT
.L1345:
	movq	8(%rsp), %rdi
	testq	%rdi, %rdi
	je	.L1337
	call	_ZNSt16_Sp_counted_baseILN9__gnu_cxx12_Lock_policyE2EE10_M_releaseEv@PLT
.L1337:
	movq	40(%rsp), %rax
	xorq	%fs:40, %rax
	jne	.L1367
	addq	$56, %rsp
	.cfi_remember_state
	.cfi_def_cfa_offset 24
	popq	%rbx
	.cfi_def_cfa_offset 16
	popq	%rbp
	.cfi_def_cfa_offset 8
	ret
	.p2align 4,,10
	.p2align 3
.L1339:
	.cfi_restore_state
	addl	$1, 8(%rdi)
	movdqu	40(%rsi), %xmm2
	movaps	%xmm2, 16(%rsp)
.L1340:
	call	_ZNSt16_Sp_counted_baseILN9__gnu_cxx12_Lock_policyE2EE10_M_releaseEv@PLT
	jmp	.L1341
	.p2align 4,,10
	.p2align 3
.L1338:
	movdqu	40(%rsi), %xmm3
	movaps	%xmm3, 16(%rsp)
	jmp	.L1341
	.p2align 4,,10
	.p2align 3
.L1366:
	movzbl	56(%rbp), %edx
	movb	%dl, 0(%rbp)
	movq	%rbp, (%rax)
	jmp	.L1343
.L1367:
	call	__stack_chk_fail@PLT
.L1349:
	endbr64
	movq	%rax, %rbp
	jmp	.L1347
	.section	.gcc_except_table
.LLSDA10392:
	.byte	0xff
	.byte	0xff
	.byte	0x1
	.uleb128 .LLSDACSE10392-.LLSDACSB10392
.LLSDACSB10392:
	.uleb128 .LEHB38-.LFB10392
	.uleb128 .LEHE38-.LEHB38
	.uleb128 .L1349-.LFB10392
	.uleb128 0
.LLSDACSE10392:
	.text
	.cfi_endproc
	.section	.text.unlikely
	.cfi_startproc
	.cfi_personality 0x9b,DW.ref.__gxx_personality_v0
	.cfi_lsda 0x1b,.LLSDAC10392
	.type	_ZN4asio6detail18completion_handlerIZN8asiodnp318MasterSessionStack6DemandERKSt10shared_ptrIN8opendnp311IMasterTaskEEEUlvE_E11do_completeEPNS0_15task_io_serviceEPNS0_25task_io_service_operationERKSt10error_codem.cold, @function
_ZN4asio6detail18completion_handlerIZN8asiodnp318MasterSessionStack6DemandERKSt10shared_ptrIN8opendnp311IMasterTaskEEEUlvE_E11do_completeEPNS0_15task_io_serviceEPNS0_25task_io_service_operationERKSt10error_codem.cold:
.LFSB10392:
.L1347:
	.cfi_def_cfa_offset 80
	.cfi_offset 3, -24
	.cfi_offset 6, -16
	sfence
	movq	%rsp, %rdi
	call	_ZZN8asiodnp318MasterSessionStack6DemandERKSt10shared_ptrIN8opendnp311IMasterTaskEEENUlvE_D1Ev
	movq	%rbp, %rdi
.LEHB39:
	call	_Unwind_Resume@PLT
.LEHE39:
	.cfi_endproc
.LFE10392:
	.section	.gcc_except_table
.LLSDAC10392:
	.byte	0xff
	.byte	0xff
	.byte	0x1
	.uleb128 .LLSDACSEC10392-.LLSDACSBC10392
.LLSDACSBC10392:
	.uleb128 .LEHB39-.LCOLDB34
	.uleb128 .LEHE39-.LEHB39
	.uleb128 0
	.uleb128 0
.LLSDACSEC10392:
	.section	.text.unlikely
	.text
	.size	_ZN4asio6detail18completion_handlerIZN8asiodnp318MasterSessionStack6DemandERKSt10shared_ptrIN8opendnp311IMasterTaskEEEUlvE_E11do_completeEPNS0_15task_io_serviceEPNS0_25task_io_service_operationERKSt10error_codem, .-_ZN4asio6detail18completion_handlerIZN8asiodnp318MasterSessionStack6DemandERKSt10shared_ptrIN8opendnp311IMasterTaskEEEUlvE_E11do_completeEPNS0_15task_io_serviceEPNS0_25task_io_service_operationERKSt10error_codem
	.section	.text.unlikely
	.size	_ZN4asio6detail18completion_handlerIZN8asiodnp318MasterSessionStack6DemandERKSt10shared_ptrIN8opendnp311IMasterTaskEEEUlvE_E11do_completeEPNS0_15task_io_serviceEPNS0_25task_io_service_operationERKSt10error_codem.cold, .-_ZN4asio6detail18completion_handlerIZN8asiodnp318MasterSessionStack6DemandERKSt10shared_ptrIN8opendnp311IMasterTaskEEEUlvE_E11do_completeEPNS0_15task_io_serviceEPNS0_25task_io_service_operationERKSt10error_codem.cold
.LCOLDE34:
	.text
.LHOTE34:
	.section	.text.unlikely
.LCOLDB35:
	.text
.LHOTB35:
	.p2align 4
	.type	_ZN4asio6detail18completion_handlerIZN8asiodnp318MasterSessionStack9ScanRangeEN8opendnp316GroupVariationIDEttRKNS4_10TaskConfigEEUlvE_E11do_completeEPNS0_15task_io_serviceEPNS0_25task_io_service_operationERKSt10error_codem, @function
_ZN4asio6detail18completion_handlerIZN8asiodnp318MasterSessionStack9ScanRangeEN8opendnp316GroupVariationIDEttRKNS4_10TaskConfigEEUlvE_E11do_completeEPNS0_15task_io_serviceEPNS0_25task_io_service_operationERKSt10error_codem:
.LFB10486:
	.cfi_startproc
	.cfi_personality 0x9b,DW.ref.__gxx_personality_v0
	.cfi_lsda 0x1b,.LLSDA10486
	endbr64
	pushq	%r15
	.cfi_def_cfa_offset 16
	.cfi_offset 15, -16
	pushq	%r14
	.cfi_def_cfa_offset 24
	.cfi_offset 14, -24
	pushq	%r13
	.cfi_def_cfa_offset 32
	.cfi_offset 13, -32
	pushq	%r12
	.cfi_def_cfa_offset 40
	.cfi_offset 12, -40
	pushq	%rbp
	.cfi_def_cfa_offset 48
	.cfi_offset 6, -48
	movq	%rsi, %rbp
	pushq	%rbx
	.cfi_def_cfa_offset 56
	.cfi_offset 3, -56
	movq	%rdi, %rbx
	subq	$56, %rsp
	.cfi_def_cfa_offset 112
	movzwl	40(%rsi), %eax
	movdqu	48(%rsi), %xmm0
	movq	24(%rsi), %r12
	movq	32(%rsi), %r14
	movzwl	42(%rsi), %r13d
	movzwl	44(%rsi), %r15d
	movw	%ax, 16(%rsp)
	movups	%xmm0, 24(%rsp)
	data16	leaq	_ZN4asio6detail15keyword_tss_ptrINS0_10call_stackINS0_15task_io_serviceENS0_27task_io_service_thread_infoEE7contextEE6value_E@tlsgd(%rip), %rdi
	.value	0x6666
	rex64
	call	__tls_get_addr@PLT
	movq	(%rax), %rax
	testq	%rax, %rax
	je	.L1369
	movq	8(%rax), %rax
	testq	%rax, %rax
	je	.L1369
	cmpq	$0, (%rax)
	je	.L1389
.L1369:
	movq	%rbp, %rdi
	call	_ZdlPv@PLT
.L1370:
	testq	%rbx, %rbx
	je	.L1371
	movq	24(%rsp), %r8
	movq	32(%rsp), %r9
	movzwl	%r15w, %ecx
	movzwl	%r13w, %edx
	movzwl	16(%rsp), %esi
	leaq	96(%r12), %rdi
.LEHB40:
	call	_ZN8opendnp38MContext9ScanRangeENS_16GroupVariationIDEttNS_10TaskConfigE@PLT
.LEHE40:
	sfence
.L1371:
	testq	%r14, %r14
	je	.L1368
	addq	$56, %rsp
	.cfi_remember_state
	.cfi_def_cfa_offset 56
	movq	%r14, %rdi
	popq	%rbx
	.cfi_def_cfa_offset 48
	popq	%rbp
	.cfi_def_cfa_offset 40
	popq	%r12
	.cfi_def_cfa_offset 32
	popq	%r13
	.cfi_def_cfa_offset 24
	popq	%r14
	.cfi_def_cfa_offset 16
	popq	%r15
	.cfi_def_cfa_offset 8
	jmp	_ZNSt16_Sp_counted_baseILN9__gnu_cxx12_Lock_policyE2EE10_M_releaseEv@PLT
	.p2align 4,,10
	.p2align 3
.L1368:
	.cfi_restore_state
	addq	$56, %rsp
	.cfi_remember_state
	.cfi_def_cfa_offset 56
	popq	%rbx
	.cfi_def_cfa_offset 48
	popq	%rbp
	.cfi_def_cfa_offset 40
	popq	%r12
	.cfi_def_cfa_offset 32
	popq	%r13
	.cfi_def_cfa_offset 24
	popq	%r14
	.cfi_def_cfa_offset 16
	popq	%r15
	.cfi_def_cfa_offset 8
	ret
	.p2align 4,,10
	.p2align 3
.L1389:
	.cfi_restore_state
	movzbl	64(%rbp), %edx
	movb	%dl, 0(%rbp)
	movq	%rbp, (%rax)
	jmp	.L1370
.L1375:
	endbr64
	movq	%rax, %rbp
	jmp	.L1373
	.section	.gcc_except_table
.LLSDA10486:
	.byte	0xff
	.byte	0xff
	.byte	0x1
	.uleb128 .LLSDACSE10486-.LLSDACSB10486
.LLSDACSB10486:
	.uleb128 .LEHB40-.LFB10486
	.uleb128 .LEHE40-.LEHB40
	.uleb128 .L1375-.LFB10486
	.uleb128 0
.LLSDACSE10486:
	.text
	.cfi_endproc
	.section	.text.unlikely
	.cfi_startproc
	.cfi_personality 0x9b,DW.ref.__gxx_personality_v0
	.cfi_lsda 0x1b,.LLSDAC10486
	.type	_ZN4asio6detail18completion_handlerIZN8asiodnp318MasterSessionStack9ScanRangeEN8opendnp316GroupVariationIDEttRKNS4_10TaskConfigEEUlvE_E11do_completeEPNS0_15task_io_serviceEPNS0_25task_io_service_operationERKSt10error_codem.cold, @function
_ZN4asio6detail18completion_handlerIZN8asiodnp318MasterSessionStack9ScanRangeEN8opendnp316GroupVariationIDEttRKNS4_10TaskConfigEEUlvE_E11do_completeEPNS0_15task_io_serviceEPNS0_25task_io_service_operationERKSt10error_codem.cold:
.LFSB10486:
.L1373:
	.cfi_def_cfa_offset 112
	.cfi_offset 3, -56
	.cfi_offset 6, -48
	.cfi_offset 12, -40
	.cfi_offset 13, -32
	.cfi_offset 14, -24
	.cfi_offset 15, -16
	sfence
	testq	%r14, %r14
	je	.L1374
	movq	%r14, %rdi
	call	_ZNSt16_Sp_counted_baseILN9__gnu_cxx12_Lock_policyE2EE10_M_releaseEv@PLT
.L1374:
	movq	%rbp, %rdi
.LEHB41:
	call	_Unwind_Resume@PLT
.LEHE41:
	.cfi_endproc
.LFE10486:
	.section	.gcc_except_table
.LLSDAC10486:
	.byte	0xff
	.byte	0xff
	.byte	0x1
	.uleb128 .LLSDACSEC10486-.LLSDACSBC10486
.LLSDACSBC10486:
	.uleb128 .LEHB41-.LCOLDB35
	.uleb128 .LEHE41-.LEHB41
	.uleb128 0
	.uleb128 0
.LLSDACSEC10486:
	.section	.text.unlikely
	.text
	.size	_ZN4asio6detail18completion_handlerIZN8asiodnp318MasterSessionStack9ScanRangeEN8opendnp316GroupVariationIDEttRKNS4_10TaskConfigEEUlvE_E11do_completeEPNS0_15task_io_serviceEPNS0_25task_io_service_operationERKSt10error_codem, .-_ZN4asio6detail18completion_handlerIZN8asiodnp318MasterSessionStack9ScanRangeEN8opendnp316GroupVariationIDEttRKNS4_10TaskConfigEEUlvE_E11do_completeEPNS0_15task_io_serviceEPNS0_25task_io_service_operationERKSt10error_codem
	.section	.text.unlikely
	.size	_ZN4asio6detail18completion_handlerIZN8asiodnp318MasterSessionStack9ScanRangeEN8opendnp316GroupVariationIDEttRKNS4_10TaskConfigEEUlvE_E11do_completeEPNS0_15task_io_serviceEPNS0_25task_io_service_operationERKSt10error_codem.cold, .-_ZN4asio6detail18completion_handlerIZN8asiodnp318MasterSessionStack9ScanRangeEN8opendnp316GroupVariationIDEttRKNS4_10TaskConfigEEUlvE_E11do_completeEPNS0_15task_io_serviceEPNS0_25task_io_service_operationERKSt10error_codem.cold
.LCOLDE35:
	.text
.LHOTE35:
	.section	.text.unlikely
	.align 2
	.type	_ZN4asio6detail18completion_handlerIZN8asiodnp318MasterSessionStack7RestartEN8opendnp311RestartTypeERKSt8functionIFvRKNS4_22RestartOperationResultEEENS4_10TaskConfigEEUlvE_E3ptr5resetEv.isra.0, @function
_ZN4asio6detail18completion_handlerIZN8asiodnp318MasterSessionStack7RestartEN8opendnp311RestartTypeERKSt8functionIFvRKNS4_22RestartOperationResultEEENS4_10TaskConfigEEUlvE_E3ptr5resetEv.isra.0:
.LFB11842:
	.cfi_startproc
	.cfi_personality 0x9b,DW.ref.__gxx_personality_v0
	.cfi_lsda 0x1b,.LLSDA11842
	pushq	%r12
	.cfi_def_cfa_offset 16
	.cfi_offset 12, -16
	pushq	%rbp
	.cfi_def_cfa_offset 24
	.cfi_offset 6, -24
	pushq	%rbx
	.cfi_def_cfa_offset 32
	.cfi_offset 3, -32
	movq	(%rsi), %r12
	movq	%rdi, %rbx
	testq	%r12, %r12
	je	.L1391
	movq	64(%r12), %rax
	movq	%rsi, %rbp
	testq	%rax, %rax
	je	.L1392
	leaq	48(%r12), %rdi
	movl	$3, %edx
	movq	%rdi, %rsi
	call	*%rax
.L1392:
	movq	32(%r12), %rdi
	testq	%rdi, %rdi
	je	.L1393
	call	_ZNSt16_Sp_counted_baseILN9__gnu_cxx12_Lock_policyE2EE10_M_releaseEv@PLT
.L1393:
	movq	$0, 0(%rbp)
.L1391:
	movq	(%rbx), %rbp
	testq	%rbp, %rbp
	je	.L1390
	data16	leaq	_ZN4asio6detail15keyword_tss_ptrINS0_10call_stackINS0_15task_io_serviceENS0_27task_io_service_thread_infoEE7contextEE6value_E@tlsgd(%rip), %rdi
	.value	0x6666
	rex64
	call	__tls_get_addr@PLT
	movq	(%rax), %rax
	testq	%rax, %rax
	je	.L1395
	movq	8(%rax), %rax
	testq	%rax, %rax
	je	.L1395
	cmpq	$0, (%rax)
	jne	.L1395
	movb	96(%rbp), %dl
	movb	%dl, 0(%rbp)
	movq	%rbp, (%rax)
	jmp	.L1396
.L1395:
	movq	%rbp, %rdi
	call	_ZdlPv@PLT
.L1396:
	movq	$0, (%rbx)
.L1390:
	popq	%rbx
	.cfi_def_cfa_offset 24
	popq	%rbp
	.cfi_def_cfa_offset 16
	popq	%r12
	.cfi_def_cfa_offset 8
	ret
	.cfi_endproc
.LFE11842:
	.section	.gcc_except_table
.LLSDA11842:
	.byte	0xff
	.byte	0xff
	.byte	0x1
	.uleb128 .LLSDACSE11842-.LLSDACSB11842
.LLSDACSB11842:
.LLSDACSE11842:
	.section	.text.unlikely
	.size	_ZN4asio6detail18completion_handlerIZN8asiodnp318MasterSessionStack7RestartEN8opendnp311RestartTypeERKSt8functionIFvRKNS4_22RestartOperationResultEEENS4_10TaskConfigEEUlvE_E3ptr5resetEv.isra.0, .-_ZN4asio6detail18completion_handlerIZN8asiodnp318MasterSessionStack7RestartEN8opendnp311RestartTypeERKSt8functionIFvRKNS4_22RestartOperationResultEEENS4_10TaskConfigEEUlvE_E3ptr5resetEv.isra.0
	.align 2
.LCOLDB36:
	.text
.LHOTB36:
	.align 2
	.p2align 4
	.globl	_ZN8asiodnp318MasterSessionStack7RestartEN8opendnp311RestartTypeERKSt8functionIFvRKNS1_22RestartOperationResultEEENS1_10TaskConfigE
	.type	_ZN8asiodnp318MasterSessionStack7RestartEN8opendnp311RestartTypeERKSt8functionIFvRKNS1_22RestartOperationResultEEENS1_10TaskConfigE, @function
_ZN8asiodnp318MasterSessionStack7RestartEN8opendnp311RestartTypeERKSt8functionIFvRKNS1_22RestartOperationResultEEENS1_10TaskConfigE:
.LFB7991:
	.cfi_startproc
	.cfi_personality 0x9b,DW.ref.__gxx_personality_v0
	.cfi_lsda 0x1b,.LLSDA7991
	endbr64
	pushq	%r15
	.cfi_def_cfa_offset 16
	.cfi_offset 15, -16
	pushq	%r14
	.cfi_def_cfa_offset 24
	.cfi_offset 14, -24
	pushq	%r13
	.cfi_def_cfa_offset 32
	.cfi_offset 13, -32
	pushq	%r12
	.cfi_def_cfa_offset 40
	.cfi_offset 12, -40
	pushq	%rbp
	.cfi_def_cfa_offset 48
	.cfi_offset 6, -48
	pushq	%rbx
	.cfi_def_cfa_offset 56
	.cfi_offset 3, -56
	subq	$216, %rsp
	.cfi_def_cfa_offset 272
	movq	%fs:40, %rax
	movq	%rax, 200(%rsp)
	xorl	%eax, %eax
	movq	24(%rdi), %rax
	movq	%rax, 40(%rsp)
	testq	%rax, %rax
	je	.L1417
	movq	%rdx, %r12
	leaq	8(%rax), %rdx
	movl	8(%rax), %eax
	movq	%rdi, %rbx
	movq	%rcx, %r13
	movq	%r8, %rbp
.L1419:
	testl	%eax, %eax
	je	.L1417
	leal	1(%rax), %ecx
	lock cmpxchgl	%ecx, (%rdx)
	jne	.L1419
	movq	16(%rbx), %rdx
	movq	16(%r12), %rax
	movb	%sil, 48(%rsp)
	movq	$0, 72(%rsp)
	movq	%rdx, 32(%rsp)
	testq	%rax, %rax
	je	.L1420
	leaq	56(%rsp), %r14
	movl	$2, %edx
	movq	%r12, %rsi
	movq	%r14, %rdi
.LEHB42:
	call	*%rax
.LEHE42:
	movdqu	16(%r12), %xmm4
	movq	16(%r12), %rax
	movq	32(%rsp), %rdx
	movups	%xmm4, 72(%rsp)
.L1420:
	movq	%rdx, 112(%rsp)
	movq	40(%rsp), %rdx
	movq	%rbp, 96(%rsp)
	movq	32(%rbx), %rbp
	movq	%r13, 88(%rsp)
	movq	%rdx, 120(%rsp)
	testq	%rdx, %rdx
	je	.L1422
	cmpq	$0, _ZL28__gthrw___pthread_key_createPjPFvPvE@GOTPCREL(%rip)
	je	.L1427
	lock addl	$1, 8(%rdx)
	movq	72(%rsp), %rax
.L1422:
	movzbl	48(%rsp), %edx
	movq	$0, 152(%rsp)
	movb	%dl, 128(%rsp)
	testq	%rax, %rax
	je	.L1428
	leaq	136(%rsp), %r12
	leaq	56(%rsp), %rsi
	movl	$2, %edx
	movq	%r12, %rdi
.LEHB43:
	call	*%rax
.LEHE43:
	movdqu	72(%rsp), %xmm5
	movups	%xmm5, 152(%rsp)
.L1428:
	movdqu	88(%rsp), %xmm1
	xorl	%eax, %eax
	movq	40(%rbp), %r13
	addq	$48, %rbp
	leaq	112(%rsp), %r14
	movq	%r14, %rdi
	movups	%xmm1, 168(%rsp)
	call	_ZN4asio28asio_handler_is_continuationEz@PLT
	pxor	%xmm0, %xmm0
	movq	%r14, (%rsp)
	movl	%eax, %ebx
	movups	%xmm0, 8(%rsp)
	data16	leaq	_ZN4asio6detail15keyword_tss_ptrINS0_10call_stackINS0_15task_io_serviceENS0_27task_io_service_thread_infoEE7contextEE6value_E@tlsgd(%rip), %rdi
	.value	0x6666
	rex64
	call	__tls_get_addr@PLT
	movq	(%rax), %rax
	testq	%rax, %rax
	je	.L1430
	movq	8(%rax), %rax
	testq	%rax, %rax
	je	.L1430
	movq	(%rax), %r12
	testq	%r12, %r12
	je	.L1430
	movq	$0, (%rax)
	movzbl	(%r12), %eax
	cmpb	$95, %al
	jbe	.L1435
	movb	%al, 96(%r12)
	jmp	.L1436
	.p2align 4,,10
	.p2align 3
.L1435:
	movq	%r12, %rdi
	call	_ZdlPv@PLT
.L1430:
	movl	$97, %edi
.LEHB44:
	call	_Znwm@PLT
.LEHE44:
	movb	$96, 96(%rax)
	movq	%rax, %r12
.L1436:
	leaq	_ZN4asio6detail18completion_handlerIZN8asiodnp318MasterSessionStack7RestartEN8opendnp311RestartTypeERKSt8functionIFvRKNS4_22RestartOperationResultEEENS4_10TaskConfigEEUlvE_E11do_completeEPNS0_15task_io_serviceEPNS0_25task_io_service_operationERKSt10error_codem(%rip), %rax
	movq	%r12, 8(%rsp)
	pxor	%xmm0, %xmm0
	movq	%rax, 8(%r12)
	movzbl	128(%rsp), %eax
	movq	$0, (%r12)
	movdqa	112(%rsp), %xmm2
	movb	%al, 40(%r12)
	movups	%xmm2, 24(%r12)
	movq	152(%rsp), %rax
	movl	$0, 16(%r12)
	movq	$0, 64(%r12)
	movaps	%xmm0, 112(%rsp)
	testq	%rax, %rax
	je	.L1437
	leaq	48(%r12), %r15
	leaq	136(%rsp), %rsi
	movl	$2, %edx
	movq	%r15, %rdi
.LEHB45:
	call	*%rax
.LEHE45:
	movdqu	152(%rsp), %xmm6
	movups	%xmm6, 64(%r12)
.L1437:
	movzbl	%bl, %ecx
	movq	%r12, %rdx
	movq	%rbp, %rsi
	movq	%r13, %rdi
	movdqu	168(%rsp), %xmm3
	movq	%r12, 16(%rsp)
	movups	%xmm3, 80(%r12)
	call	_ZN4asio6detail14strand_service7do_postERPNS1_11strand_implEPNS0_25task_io_service_operationEb@PLT
	movq	152(%rsp), %rax
	testq	%rax, %rax
	je	.L1439
	leaq	136(%rsp), %rdi
	movl	$3, %edx
	movq	%rdi, %rsi
	call	*%rax
.L1439:
	movq	120(%rsp), %rdi
	testq	%rdi, %rdi
	je	.L1444
	call	_ZNSt16_Sp_counted_baseILN9__gnu_cxx12_Lock_policyE2EE10_M_releaseEv@PLT
.L1444:
	movq	72(%rsp), %rax
	testq	%rax, %rax
	je	.L1446
	leaq	56(%rsp), %rdi
	movl	$3, %edx
	movq	%rdi, %rsi
	call	*%rax
.L1446:
	movq	40(%rsp), %rdi
	testq	%rdi, %rdi
	je	.L1416
	call	_ZNSt16_Sp_counted_baseILN9__gnu_cxx12_Lock_policyE2EE10_M_releaseEv@PLT
.L1416:
	movq	200(%rsp), %rax
	xorq	%fs:40, %rax
	jne	.L1495
	addq	$216, %rsp
	.cfi_remember_state
	.cfi_def_cfa_offset 56
	popq	%rbx
	.cfi_def_cfa_offset 48
	popq	%rbp
	.cfi_def_cfa_offset 40
	popq	%r12
	.cfi_def_cfa_offset 32
	popq	%r13
	.cfi_def_cfa_offset 24
	popq	%r14
	.cfi_def_cfa_offset 16
	popq	%r15
	.cfi_def_cfa_offset 8
	ret
	.p2align 4,,10
	.p2align 3
.L1427:
	.cfi_restore_state
	addl	$1, 8(%rdx)
	jmp	.L1422
.L1495:
	call	__stack_chk_fail@PLT
.L1449:
	endbr64
	movq	%rax, %rbp
	jmp	.L1423
.L1451:
	endbr64
	movq	%rax, %rbp
	jmp	.L1431
.L1452:
	endbr64
	movq	%rax, %rbp
	jmp	.L1440
.L1450:
	endbr64
	movq	%rax, %rbp
	jmp	.L1443
	.section	.gcc_except_table
.LLSDA7991:
	.byte	0xff
	.byte	0xff
	.byte	0x1
	.uleb128 .LLSDACSE7991-.LLSDACSB7991
.LLSDACSB7991:
	.uleb128 .LEHB42-.LFB7991
	.uleb128 .LEHE42-.LEHB42
	.uleb128 .L1449-.LFB7991
	.uleb128 0
	.uleb128 .LEHB43-.LFB7991
	.uleb128 .LEHE43-.LEHB43
	.uleb128 .L1451-.LFB7991
	.uleb128 0
	.uleb128 .LEHB44-.LFB7991
	.uleb128 .LEHE44-.LEHB44
	.uleb128 .L1450-.LFB7991
	.uleb128 0
	.uleb128 .LEHB45-.LFB7991
	.uleb128 .LEHE45-.LEHB45
	.uleb128 .L1452-.LFB7991
	.uleb128 0
.LLSDACSE7991:
	.text
	.cfi_endproc
	.section	.text.unlikely
	.cfi_startproc
	.cfi_personality 0x9b,DW.ref.__gxx_personality_v0
	.cfi_lsda 0x1b,.LLSDAC7991
	.type	_ZN8asiodnp318MasterSessionStack7RestartEN8opendnp311RestartTypeERKSt8functionIFvRKNS1_22RestartOperationResultEEENS1_10TaskConfigE.cold, @function
_ZN8asiodnp318MasterSessionStack7RestartEN8opendnp311RestartTypeERKSt8functionIFvRKNS1_22RestartOperationResultEEENS1_10TaskConfigE.cold:
.LFSB7991:
.L1417:
	.cfi_def_cfa_offset 272
	.cfi_offset 3, -56
	.cfi_offset 6, -48
	.cfi_offset 12, -40
	.cfi_offset 13, -32
	.cfi_offset 14, -24
	.cfi_offset 15, -16
.LEHB46:
	call	_ZSt20__throw_bad_weak_ptrv@PLT
.LEHE46:
.L1423:
	movq	72(%rsp), %rax
	testq	%rax, %rax
	je	.L1424
	movl	$3, %edx
	movq	%r14, %rsi
	movq	%r14, %rdi
	call	*%rax
.L1424:
	movq	40(%rsp), %rdi
	testq	%rdi, %rdi
	je	.L1426
	call	_ZNSt16_Sp_counted_baseILN9__gnu_cxx12_Lock_policyE2EE10_M_releaseEv@PLT
.L1426:
	movq	%rbp, %rdi
.LEHB47:
	call	_Unwind_Resume@PLT
.LEHE47:
.L1431:
	movq	152(%rsp), %rax
	testq	%rax, %rax
	je	.L1432
	movl	$3, %edx
	movq	%r12, %rsi
	movq	%r12, %rdi
	call	*%rax
.L1432:
	movq	120(%rsp), %rdi
	testq	%rdi, %rdi
	je	.L1434
	call	_ZNSt16_Sp_counted_baseILN9__gnu_cxx12_Lock_policyE2EE10_M_releaseEv@PLT
	jmp	.L1434
.L1440:
	movq	64(%r12), %rax
	testq	%rax, %rax
	je	.L1441
	movl	$3, %edx
	movq	%r15, %rsi
	movq	%r15, %rdi
	call	*%rax
.L1441:
	movq	32(%r12), %rdi
	testq	%rdi, %rdi
	je	.L1442
	call	_ZNSt16_Sp_counted_baseILN9__gnu_cxx12_Lock_policyE2EE10_M_releaseEv@PLT
.L1442:
	leaq	16(%rsp), %rsi
	leaq	8(%rsp), %rdi
	call	_ZN4asio6detail18completion_handlerIZN8asiodnp318MasterSessionStack7RestartEN8opendnp311RestartTypeERKSt8functionIFvRKNS4_22RestartOperationResultEEENS4_10TaskConfigEEUlvE_E3ptr5resetEv.isra.0
.L1443:
	movq	%r14, %rdi
	call	_ZZN8asiodnp318MasterSessionStack7RestartEN8opendnp311RestartTypeERKSt8functionIFvRKNS1_22RestartOperationResultEEENS1_10TaskConfigEENUlvE_D1Ev
.L1434:
	leaq	32(%rsp), %rdi
	call	_ZZN8asiodnp318MasterSessionStack7RestartEN8opendnp311RestartTypeERKSt8functionIFvRKNS1_22RestartOperationResultEEENS1_10TaskConfigEENUlvE_D1Ev
	movq	%rbp, %rdi
.LEHB48:
	call	_Unwind_Resume@PLT
.LEHE48:
	.cfi_endproc
.LFE7991:
	.section	.gcc_except_table
.LLSDAC7991:
	.byte	0xff
	.byte	0xff
	.byte	0x1
	.uleb128 .LLSDACSEC7991-.LLSDACSBC7991
.LLSDACSBC7991:
	.uleb128 .LEHB46-.LCOLDB36
	.uleb128 .LEHE46-.LEHB46
	.uleb128 0
	.uleb128 0
	.uleb128 .LEHB47-.LCOLDB36
	.uleb128 .LEHE47-.LEHB47
	.uleb128 0
	.uleb128 0
	.uleb128 .LEHB48-.LCOLDB36
	.uleb128 .LEHE48-.LEHB48
	.uleb128 0
	.uleb128 0
.LLSDACSEC7991:
	.section	.text.unlikely
	.text
	.size	_ZN8asiodnp318MasterSessionStack7RestartEN8opendnp311RestartTypeERKSt8functionIFvRKNS1_22RestartOperationResultEEENS1_10TaskConfigE, .-_ZN8asiodnp318MasterSessionStack7RestartEN8opendnp311RestartTypeERKSt8functionIFvRKNS1_22RestartOperationResultEEENS1_10TaskConfigE
	.section	.text.unlikely
	.size	_ZN8asiodnp318MasterSessionStack7RestartEN8opendnp311RestartTypeERKSt8functionIFvRKNS1_22RestartOperationResultEEENS1_10TaskConfigE.cold, .-_ZN8asiodnp318MasterSessionStack7RestartEN8opendnp311RestartTypeERKSt8functionIFvRKNS1_22RestartOperationResultEEENS1_10TaskConfigE.cold
.LCOLDE36:
	.text
.LHOTE36:
	.section	.text.unlikely
	.align 2
.LCOLDB37:
	.text
.LHOTB37:
	.align 2
	.p2align 4
	.globl	_ZN8asiodnp318MasterSessionStack4ScanERKSt6vectorIN8opendnp36HeaderESaIS3_EERKNS2_10TaskConfigE
	.type	_ZN8asiodnp318MasterSessionStack4ScanERKSt6vectorIN8opendnp36HeaderESaIS3_EERKNS2_10TaskConfigE, @function
_ZN8asiodnp318MasterSessionStack4ScanERKSt6vectorIN8opendnp36HeaderESaIS3_EERKNS2_10TaskConfigE:
.LFB7951:
	.cfi_startproc
	.cfi_personality 0x9b,DW.ref.__gxx_personality_v0
	.cfi_lsda 0x1b,.LLSDA7951
	endbr64
	pushq	%r14
	.cfi_def_cfa_offset 16
	.cfi_offset 14, -16
	pushq	%r13
	.cfi_def_cfa_offset 24
	.cfi_offset 13, -24
	pushq	%r12
	.cfi_def_cfa_offset 32
	.cfi_offset 12, -32
	movq	%rdx, %r12
	pushq	%rbp
	.cfi_def_cfa_offset 40
	.cfi_offset 6, -40
	pushq	%rbx
	.cfi_def_cfa_offset 48
	.cfi_offset 3, -48
	movq	%rdi, %rbx
	subq	$176, %rsp
	.cfi_def_cfa_offset 224
	movq	%fs:40, %rax
	movq	%rax, 168(%rsp)
	xorl	%eax, %eax
	movq	%rsp, %rbp
	movq	%rbp, %rdi
.LEHB49:
	call	_ZN8asiodnp315ConvertToLambdaERKSt6vectorIN8opendnp36HeaderESaIS2_EE@PLT
.LEHE49:
	movq	24(%rbx), %rax
	movq	%rax, 40(%rsp)
	testq	%rax, %rax
	je	.L1497
	leaq	8(%rax), %rdx
	movl	8(%rax), %eax
.L1499:
	testl	%eax, %eax
	je	.L1569
	leal	1(%rax), %ecx
	lock cmpxchgl	%ecx, (%rdx)
	jne	.L1499
	movq	16(%rbx), %rdx
	movq	16(%rsp), %rax
	movq	$0, 64(%rsp)
	movq	%rdx, 32(%rsp)
	testq	%rax, %rax
	je	.L1500
	leaq	48(%rsp), %r13
	movl	$2, %edx
	movq	%rbp, %rsi
	movq	%r13, %rdi
.LEHB50:
	call	*%rax
.LEHE50:
	movdqa	16(%rsp), %xmm6
	movq	16(%rsp), %rax
	movq	32(%rsp), %rdx
	movaps	%xmm6, 64(%rsp)
.L1500:
	movdqu	(%r12), %xmm1
	movq	32(%rbx), %r12
	movq	%rdx, 96(%rsp)
	movq	40(%rsp), %rdx
	movaps	%xmm1, 80(%rsp)
	movq	%rdx, 104(%rsp)
	testq	%rdx, %rdx
	je	.L1502
	cmpq	$0, _ZL28__gthrw___pthread_key_createPjPFvPvE@GOTPCREL(%rip)
	je	.L1507
	lock addl	$1, 8(%rdx)
	movq	64(%rsp), %rax
.L1502:
	movq	$0, 128(%rsp)
	testq	%rax, %rax
	je	.L1508
	leaq	112(%rsp), %r13
	leaq	48(%rsp), %rsi
	movl	$2, %edx
	movq	%r13, %rdi
.LEHB51:
	call	*%rax
.LEHE51:
	movdqa	64(%rsp), %xmm7
	movaps	%xmm7, 128(%rsp)
.L1508:
	leaq	96(%rsp), %r14
	xorl	%eax, %eax
	movq	40(%r12), %r13
	addq	$48, %r12
	movdqa	80(%rsp), %xmm2
	movq	%r14, %rdi
	movaps	%xmm2, 144(%rsp)
	call	_ZN4asio28asio_handler_is_continuationEz@PLT
	movl	%eax, %ebx
	data16	leaq	_ZN4asio6detail15keyword_tss_ptrINS0_10call_stackINS0_15task_io_serviceENS0_27task_io_service_thread_infoEE7contextEE6value_E@tlsgd(%rip), %rdi
	.value	0x6666
	rex64
	call	__tls_get_addr@PLT
	movq	(%rax), %rax
	testq	%rax, %rax
	je	.L1510
	movq	8(%rax), %rax
	testq	%rax, %rax
	je	.L1510
	movq	(%rax), %rdx
	testq	%rdx, %rdx
	je	.L1510
	movq	$0, (%rax)
	movzbl	(%rdx), %eax
	cmpb	$87, %al
	jbe	.L1515
	movb	%al, 88(%rdx)
	jmp	.L1516
	.p2align 4,,10
	.p2align 3
.L1515:
	movq	%rdx, %rdi
	call	_ZdlPv@PLT
.L1510:
	movl	$89, %edi
.LEHB52:
	call	_Znwm@PLT
.LEHE52:
	movb	$88, 88(%rax)
	movq	%rax, %rdx
.L1516:
	pxor	%xmm0, %xmm0
	movdqu	40(%rdx), %xmm4
	movq	64(%rdx), %rcx
	movq	%r12, %rsi
	leaq	_ZN4asio6detail18completion_handlerIZN8asiodnp318MasterSessionStack4ScanERKSt6vectorIN8opendnp36HeaderESaIS6_EERKNS5_10TaskConfigEEUlvE_E11do_completeEPNS0_15task_io_serviceEPNS0_25task_io_service_operationERKSt10error_codem(%rip), %rax
	movq	$0, (%rdx)
	movq	%r13, %rdi
	movq	%rax, 8(%rdx)
	movdqa	96(%rsp), %xmm3
	movl	$0, 16(%rdx)
	movups	%xmm3, 24(%rdx)
	movq	128(%rsp), %rax
	movaps	%xmm0, 96(%rsp)
	movdqa	112(%rsp), %xmm0
	movq	%rax, 56(%rdx)
	movups	%xmm0, 40(%rdx)
	movq	136(%rsp), %rax
