	.file	"MeasurementHandler.cpp"
	.text
	.section	.text._ZN8opendnp312IAPDUHandler14OnHeaderResultERKNS_12HeaderRecordERKNS_8IINFieldE,"axG",@progbits,_ZN8opendnp312IAPDUHandler14OnHeaderResultERKNS_12HeaderRecordERKNS_8IINFieldE,comdat
	.align 2
	.p2align 4
	.weak	_ZN8opendnp312IAPDUHandler14OnHeaderResultERKNS_12HeaderRecordERKNS_8IINFieldE
	.type	_ZN8opendnp312IAPDUHandler14OnHeaderResultERKNS_12HeaderRecordERKNS_8IINFieldE, @function
_ZN8opendnp312IAPDUHandler14OnHeaderResultERKNS_12HeaderRecordERKNS_8IINFieldE:
.LFB2334:
	.cfi_startproc
	endbr64
	ret
	.cfi_endproc
.LFE2334:
	.size	_ZN8opendnp312IAPDUHandler14OnHeaderResultERKNS_12HeaderRecordERKNS_8IINFieldE, .-_ZN8opendnp312IAPDUHandler14OnHeaderResultERKNS_12HeaderRecordERKNS_8IINFieldE
	.section	.text._ZN8opendnp318MeasurementHandler9IsAllowedEjNS_14GroupVariationENS_13QualifierCodeE,"axG",@progbits,_ZN8opendnp318MeasurementHandler9IsAllowedEjNS_14GroupVariationENS_13QualifierCodeE,comdat
	.align 2
	.p2align 4
	.weak	_ZN8opendnp318MeasurementHandler9IsAllowedEjNS_14GroupVariationENS_13QualifierCodeE
	.type	_ZN8opendnp318MeasurementHandler9IsAllowedEjNS_14GroupVariationENS_13QualifierCodeE, @function
_ZN8opendnp318MeasurementHandler9IsAllowedEjNS_14GroupVariationENS_13QualifierCodeE:
.LFB2345:
	.cfi_startproc
	endbr64
	movl	$1, %eax
	ret
	.cfi_endproc
.LFE2345:
	.size	_ZN8opendnp318MeasurementHandler9IsAllowedEjNS_14GroupVariationENS_13QualifierCodeE, .-_ZN8opendnp318MeasurementHandler9IsAllowedEjNS_14GroupVariationENS_13QualifierCodeE
	.section	.text._ZN8opendnp314FunctorVisitorINS_11Group51Var2EZNKS_11ICollectionIS1_E13ReadOnlyValueERS1_EUlRKS1_E_E7OnValueES6_,"axG",@progbits,_ZN8opendnp314FunctorVisitorINS_11Group51Var2EZNKS_11ICollectionIS1_E13ReadOnlyValueERS1_EUlRKS1_E_E7OnValueES6_,comdat
	.align 2
	.p2align 4
	.weak	_ZN8opendnp314FunctorVisitorINS_11Group51Var2EZNKS_11ICollectionIS1_E13ReadOnlyValueERS1_EUlRKS1_E_E7OnValueES6_
	.type	_ZN8opendnp314FunctorVisitorINS_11Group51Var2EZNKS_11ICollectionIS1_E13ReadOnlyValueERS1_EUlRKS1_E_E7OnValueES6_, @function
_ZN8opendnp314FunctorVisitorINS_11Group51Var2EZNKS_11ICollectionIS1_E13ReadOnlyValueERS1_EUlRKS1_E_E7OnValueES6_:
.LFB3193:
	.cfi_startproc
	endbr64
	movq	(%rsi), %rdx
	movq	8(%rdi), %rax
	movq	%rdx, (%rax)
	ret
	.cfi_endproc
.LFE3193:
	.size	_ZN8opendnp314FunctorVisitorINS_11Group51Var2EZNKS_11ICollectionIS1_E13ReadOnlyValueERS1_EUlRKS1_E_E7OnValueES6_, .-_ZN8opendnp314FunctorVisitorINS_11Group51Var2EZNKS_11ICollectionIS1_E13ReadOnlyValueERS1_EUlRKS1_E_E7OnValueES6_
	.section	.text._ZN8opendnp314FunctorVisitorINS_11Group51Var1EZNKS_11ICollectionIS1_E13ReadOnlyValueERS1_EUlRKS1_E_E7OnValueES6_,"axG",@progbits,_ZN8opendnp314FunctorVisitorINS_11Group51Var1EZNKS_11ICollectionIS1_E13ReadOnlyValueERS1_EUlRKS1_E_E7OnValueES6_,comdat
	.align 2
	.p2align 4
	.weak	_ZN8opendnp314FunctorVisitorINS_11Group51Var1EZNKS_11ICollectionIS1_E13ReadOnlyValueERS1_EUlRKS1_E_E7OnValueES6_
	.type	_ZN8opendnp314FunctorVisitorINS_11Group51Var1EZNKS_11ICollectionIS1_E13ReadOnlyValueERS1_EUlRKS1_E_E7OnValueES6_, @function
_ZN8opendnp314FunctorVisitorINS_11Group51Var1EZNKS_11ICollectionIS1_E13ReadOnlyValueERS1_EUlRKS1_E_E7OnValueES6_:
.LFB3194:
	.cfi_startproc
	endbr64
	movq	(%rsi), %rdx
	movq	8(%rdi), %rax
	movq	%rdx, (%rax)
	ret
	.cfi_endproc
.LFE3194:
	.size	_ZN8opendnp314FunctorVisitorINS_11Group51Var1EZNKS_11ICollectionIS1_E13ReadOnlyValueERS1_EUlRKS1_E_E7OnValueES6_, .-_ZN8opendnp314FunctorVisitorINS_11Group51Var1EZNKS_11ICollectionIS1_E13ReadOnlyValueERS1_EUlRKS1_E_E7OnValueES6_
	.section	.text._ZNK8opendnp321TransformedCollectionINS_7IndexedINS_12Group122Var2EEENS1_INS_12SecurityStatEEEZNS_18MeasurementHandler25LoadValuesWithTransformToIS4_S2_EENS_8IINFieldERKNS_12HeaderRecordERKNS_11ICollectionINS1_IT0_EEEEEUlRKS3_E_E5CountEv,"axG",@progbits,_ZNK8opendnp321TransformedCollectionINS_7IndexedINS_12Group122Var2EEENS1_INS_12SecurityStatEEEZNS_18MeasurementHandler25LoadValuesWithTransformToIS4_S2_EENS_8IINFieldERKNS_12HeaderRecordERKNS_11ICollectionINS1_IT0_EEEEEUlRKS3_E_E5CountEv,comdat
	.align 2
	.p2align 4
	.weak	_ZNK8opendnp321TransformedCollectionINS_7IndexedINS_12Group122Var2EEENS1_INS_12SecurityStatEEEZNS_18MeasurementHandler25LoadValuesWithTransformToIS4_S2_EENS_8IINFieldERKNS_12HeaderRecordERKNS_11ICollectionINS1_IT0_EEEEEUlRKS3_E_E5CountEv
	.type	_ZNK8opendnp321TransformedCollectionINS_7IndexedINS_12Group122Var2EEENS1_INS_12SecurityStatEEEZNS_18MeasurementHandler25LoadValuesWithTransformToIS4_S2_EENS_8IINFieldERKNS_12HeaderRecordERKNS_11ICollectionINS1_IT0_EEEEEUlRKS3_E_E5CountEv, @function
_ZNK8opendnp321TransformedCollectionINS_7IndexedINS_12Group122Var2EEENS1_INS_12SecurityStatEEEZNS_18MeasurementHandler25LoadValuesWithTransformToIS4_S2_EENS_8IINFieldERKNS_12HeaderRecordERKNS_11ICollectionINS1_IT0_EEEEEUlRKS3_E_E5CountEv:
.LFB3195:
	.cfi_startproc
	endbr64
	movq	8(%rdi), %rdi
	movq	(%rdi), %rax
	jmp	*(%rax)
	.cfi_endproc
.LFE3195:
	.size	_ZNK8opendnp321TransformedCollectionINS_7IndexedINS_12Group122Var2EEENS1_INS_12SecurityStatEEEZNS_18MeasurementHandler25LoadValuesWithTransformToIS4_S2_EENS_8IINFieldERKNS_12HeaderRecordERKNS_11ICollectionINS1_IT0_EEEEEUlRKS3_E_E5CountEv, .-_ZNK8opendnp321TransformedCollectionINS_7IndexedINS_12Group122Var2EEENS1_INS_12SecurityStatEEEZNS_18MeasurementHandler25LoadValuesWithTransformToIS4_S2_EENS_8IINFieldERKNS_12HeaderRecordERKNS_11ICollectionINS1_IT0_EEEEEUlRKS3_E_E5CountEv
	.section	.text._ZNK8opendnp321TransformedCollectionINS_7IndexedINS_12Group122Var2EEENS1_INS_12SecurityStatEEEZNS_18MeasurementHandler25LoadValuesWithTransformToIS4_S2_EENS_8IINFieldERKNS_12HeaderRecordERKNS_11ICollectionINS1_IT0_EEEEEUlRKS3_E_E7ForeachERNS_8IVisitorIS5_EE,"axG",@progbits,_ZNK8opendnp321TransformedCollectionINS_7IndexedINS_12Group122Var2EEENS1_INS_12SecurityStatEEEZNS_18MeasurementHandler25LoadValuesWithTransformToIS4_S2_EENS_8IINFieldERKNS_12HeaderRecordERKNS_11ICollectionINS1_IT0_EEEEEUlRKS3_E_E7ForeachERNS_8IVisitorIS5_EE,comdat
	.align 2
	.p2align 4
	.weak	_ZNK8opendnp321TransformedCollectionINS_7IndexedINS_12Group122Var2EEENS1_INS_12SecurityStatEEEZNS_18MeasurementHandler25LoadValuesWithTransformToIS4_S2_EENS_8IINFieldERKNS_12HeaderRecordERKNS_11ICollectionINS1_IT0_EEEEEUlRKS3_E_E7ForeachERNS_8IVisitorIS5_EE
	.type	_ZNK8opendnp321TransformedCollectionINS_7IndexedINS_12Group122Var2EEENS1_INS_12SecurityStatEEEZNS_18MeasurementHandler25LoadValuesWithTransformToIS4_S2_EENS_8IINFieldERKNS_12HeaderRecordERKNS_11ICollectionINS1_IT0_EEEEEUlRKS3_E_E7ForeachERNS_8IVisitorIS5_EE, @function
_ZNK8opendnp321TransformedCollectionINS_7IndexedINS_12Group122Var2EEENS1_INS_12SecurityStatEEEZNS_18MeasurementHandler25LoadValuesWithTransformToIS4_S2_EENS_8IINFieldERKNS_12HeaderRecordERKNS_11ICollectionINS1_IT0_EEEEEUlRKS3_E_E7ForeachERNS_8IVisitorIS5_EE:
.LFB3196:
	.cfi_startproc
	endbr64
	subq	$40, %rsp
	.cfi_def_cfa_offset 48
	movq	8(%rdi), %r8
	movq	%fs:40, %rax
	movq	%rax, 24(%rsp)
	xorl	%eax, %eax
	movq	_ZTVN8opendnp314FunctorVisitorINS_7IndexedINS_12Group122Var2EEEZNKS_21TransformedCollectionIS3_NS1_INS_12SecurityStatEEEZNS_18MeasurementHandler25LoadValuesWithTransformToIS5_S2_EENS_8IINFieldERKNS_12HeaderRecordERKNS_11ICollectionINS1_IT0_EEEEEUlRKS3_E_E7ForeachERNS_8IVisitorIS6_EEEUlSK_E_EE@GOTPCREL(%rip), %rax
	movq	%rdi, 8(%rsp)
	movq	%rsi, 16(%rsp)
	movq	%r8, %rdi
	movq	%rsp, %rsi
	addq	$16, %rax
	movq	%rax, (%rsp)
	movq	(%r8), %rax
	call	*8(%rax)
	movq	24(%rsp), %rax
	xorq	%fs:40, %rax
	jne	.L10
	addq	$40, %rsp
	.cfi_remember_state
	.cfi_def_cfa_offset 8
	ret
.L10:
	.cfi_restore_state
	call	__stack_chk_fail@PLT
	.cfi_endproc
.LFE3196:
	.size	_ZNK8opendnp321TransformedCollectionINS_7IndexedINS_12Group122Var2EEENS1_INS_12SecurityStatEEEZNS_18MeasurementHandler25LoadValuesWithTransformToIS4_S2_EENS_8IINFieldERKNS_12HeaderRecordERKNS_11ICollectionINS1_IT0_EEEEEUlRKS3_E_E7ForeachERNS_8IVisitorIS5_EE, .-_ZNK8opendnp321TransformedCollectionINS_7IndexedINS_12Group122Var2EEENS1_INS_12SecurityStatEEEZNS_18MeasurementHandler25LoadValuesWithTransformToIS4_S2_EENS_8IINFieldERKNS_12HeaderRecordERKNS_11ICollectionINS1_IT0_EEEEEUlRKS3_E_E7ForeachERNS_8IVisitorIS5_EE
	.section	.text._ZNK8opendnp321TransformedCollectionINS_7IndexedINS_12Group122Var1EEENS1_INS_12SecurityStatEEEZNS_18MeasurementHandler25LoadValuesWithTransformToIS4_S2_EENS_8IINFieldERKNS_12HeaderRecordERKNS_11ICollectionINS1_IT0_EEEEEUlRKS3_E_E5CountEv,"axG",@progbits,_ZNK8opendnp321TransformedCollectionINS_7IndexedINS_12Group122Var1EEENS1_INS_12SecurityStatEEEZNS_18MeasurementHandler25LoadValuesWithTransformToIS4_S2_EENS_8IINFieldERKNS_12HeaderRecordERKNS_11ICollectionINS1_IT0_EEEEEUlRKS3_E_E5CountEv,comdat
	.align 2
	.p2align 4
	.weak	_ZNK8opendnp321TransformedCollectionINS_7IndexedINS_12Group122Var1EEENS1_INS_12SecurityStatEEEZNS_18MeasurementHandler25LoadValuesWithTransformToIS4_S2_EENS_8IINFieldERKNS_12HeaderRecordERKNS_11ICollectionINS1_IT0_EEEEEUlRKS3_E_E5CountEv
	.type	_ZNK8opendnp321TransformedCollectionINS_7IndexedINS_12Group122Var1EEENS1_INS_12SecurityStatEEEZNS_18MeasurementHandler25LoadValuesWithTransformToIS4_S2_EENS_8IINFieldERKNS_12HeaderRecordERKNS_11ICollectionINS1_IT0_EEEEEUlRKS3_E_E5CountEv, @function
_ZNK8opendnp321TransformedCollectionINS_7IndexedINS_12Group122Var1EEENS1_INS_12SecurityStatEEEZNS_18MeasurementHandler25LoadValuesWithTransformToIS4_S2_EENS_8IINFieldERKNS_12HeaderRecordERKNS_11ICollectionINS1_IT0_EEEEEUlRKS3_E_E5CountEv:
.LFB3198:
	.cfi_startproc
	endbr64
	movq	8(%rdi), %rdi
	movq	(%rdi), %rax
	jmp	*(%rax)
	.cfi_endproc
.LFE3198:
	.size	_ZNK8opendnp321TransformedCollectionINS_7IndexedINS_12Group122Var1EEENS1_INS_12SecurityStatEEEZNS_18MeasurementHandler25LoadValuesWithTransformToIS4_S2_EENS_8IINFieldERKNS_12HeaderRecordERKNS_11ICollectionINS1_IT0_EEEEEUlRKS3_E_E5CountEv, .-_ZNK8opendnp321TransformedCollectionINS_7IndexedINS_12Group122Var1EEENS1_INS_12SecurityStatEEEZNS_18MeasurementHandler25LoadValuesWithTransformToIS4_S2_EENS_8IINFieldERKNS_12HeaderRecordERKNS_11ICollectionINS1_IT0_EEEEEUlRKS3_E_E5CountEv
	.section	.text._ZNK8opendnp321TransformedCollectionINS_7IndexedINS_12Group122Var1EEENS1_INS_12SecurityStatEEEZNS_18MeasurementHandler25LoadValuesWithTransformToIS4_S2_EENS_8IINFieldERKNS_12HeaderRecordERKNS_11ICollectionINS1_IT0_EEEEEUlRKS3_E_E7ForeachERNS_8IVisitorIS5_EE,"axG",@progbits,_ZNK8opendnp321TransformedCollectionINS_7IndexedINS_12Group122Var1EEENS1_INS_12SecurityStatEEEZNS_18MeasurementHandler25LoadValuesWithTransformToIS4_S2_EENS_8IINFieldERKNS_12HeaderRecordERKNS_11ICollectionINS1_IT0_EEEEEUlRKS3_E_E7ForeachERNS_8IVisitorIS5_EE,comdat
	.align 2
	.p2align 4
	.weak	_ZNK8opendnp321TransformedCollectionINS_7IndexedINS_12Group122Var1EEENS1_INS_12SecurityStatEEEZNS_18MeasurementHandler25LoadValuesWithTransformToIS4_S2_EENS_8IINFieldERKNS_12HeaderRecordERKNS_11ICollectionINS1_IT0_EEEEEUlRKS3_E_E7ForeachERNS_8IVisitorIS5_EE
	.type	_ZNK8opendnp321TransformedCollectionINS_7IndexedINS_12Group122Var1EEENS1_INS_12SecurityStatEEEZNS_18MeasurementHandler25LoadValuesWithTransformToIS4_S2_EENS_8IINFieldERKNS_12HeaderRecordERKNS_11ICollectionINS1_IT0_EEEEEUlRKS3_E_E7ForeachERNS_8IVisitorIS5_EE, @function
_ZNK8opendnp321TransformedCollectionINS_7IndexedINS_12Group122Var1EEENS1_INS_12SecurityStatEEEZNS_18MeasurementHandler25LoadValuesWithTransformToIS4_S2_EENS_8IINFieldERKNS_12HeaderRecordERKNS_11ICollectionINS1_IT0_EEEEEUlRKS3_E_E7ForeachERNS_8IVisitorIS5_EE:
.LFB3199:
	.cfi_startproc
	endbr64
	subq	$40, %rsp
	.cfi_def_cfa_offset 48
	movq	8(%rdi), %r8
	movq	%fs:40, %rax
	movq	%rax, 24(%rsp)
	xorl	%eax, %eax
	movq	_ZTVN8opendnp314FunctorVisitorINS_7IndexedINS_12Group122Var1EEEZNKS_21TransformedCollectionIS3_NS1_INS_12SecurityStatEEEZNS_18MeasurementHandler25LoadValuesWithTransformToIS5_S2_EENS_8IINFieldERKNS_12HeaderRecordERKNS_11ICollectionINS1_IT0_EEEEEUlRKS3_E_E7ForeachERNS_8IVisitorIS6_EEEUlSK_E_EE@GOTPCREL(%rip), %rax
	movq	%rdi, 8(%rsp)
	movq	%rsi, 16(%rsp)
	movq	%r8, %rdi
	movq	%rsp, %rsi
	addq	$16, %rax
	movq	%rax, (%rsp)
	movq	(%r8), %rax
	call	*8(%rax)
	movq	24(%rsp), %rax
	xorq	%fs:40, %rax
	jne	.L15
	addq	$40, %rsp
	.cfi_remember_state
	.cfi_def_cfa_offset 8
	ret
.L15:
	.cfi_restore_state
	call	__stack_chk_fail@PLT
	.cfi_endproc
.LFE3199:
	.size	_ZNK8opendnp321TransformedCollectionINS_7IndexedINS_12Group122Var1EEENS1_INS_12SecurityStatEEEZNS_18MeasurementHandler25LoadValuesWithTransformToIS4_S2_EENS_8IINFieldERKNS_12HeaderRecordERKNS_11ICollectionINS1_IT0_EEEEEUlRKS3_E_E7ForeachERNS_8IVisitorIS5_EE, .-_ZNK8opendnp321TransformedCollectionINS_7IndexedINS_12Group122Var1EEENS1_INS_12SecurityStatEEEZNS_18MeasurementHandler25LoadValuesWithTransformToIS4_S2_EENS_8IINFieldERKNS_12HeaderRecordERKNS_11ICollectionINS1_IT0_EEEEEUlRKS3_E_E7ForeachERNS_8IVisitorIS5_EE
	.section	.text._ZNK8opendnp321TransformedCollectionINS_7IndexedINS_15DoubleBitBinaryEEES3_ZNS_18MeasurementHandler14ProcessWithCTOIS2_EENS_8IINFieldERKNS_12HeaderRecordERKNS_11ICollectionINS1_IT_EEEEEUlRKS3_E_E5CountEv,"axG",@progbits,_ZNK8opendnp321TransformedCollectionINS_7IndexedINS_15DoubleBitBinaryEEES3_ZNS_18MeasurementHandler14ProcessWithCTOIS2_EENS_8IINFieldERKNS_12HeaderRecordERKNS_11ICollectionINS1_IT_EEEEEUlRKS3_E_E5CountEv,comdat
	.align 2
	.p2align 4
	.weak	_ZNK8opendnp321TransformedCollectionINS_7IndexedINS_15DoubleBitBinaryEEES3_ZNS_18MeasurementHandler14ProcessWithCTOIS2_EENS_8IINFieldERKNS_12HeaderRecordERKNS_11ICollectionINS1_IT_EEEEEUlRKS3_E_E5CountEv
	.type	_ZNK8opendnp321TransformedCollectionINS_7IndexedINS_15DoubleBitBinaryEEES3_ZNS_18MeasurementHandler14ProcessWithCTOIS2_EENS_8IINFieldERKNS_12HeaderRecordERKNS_11ICollectionINS1_IT_EEEEEUlRKS3_E_E5CountEv, @function
_ZNK8opendnp321TransformedCollectionINS_7IndexedINS_15DoubleBitBinaryEEES3_ZNS_18MeasurementHandler14ProcessWithCTOIS2_EENS_8IINFieldERKNS_12HeaderRecordERKNS_11ICollectionINS1_IT_EEEEEUlRKS3_E_E5CountEv:
.LFB3201:
	.cfi_startproc
	endbr64
	movq	8(%rdi), %rdi
	movq	(%rdi), %rax
	jmp	*(%rax)
	.cfi_endproc
.LFE3201:
	.size	_ZNK8opendnp321TransformedCollectionINS_7IndexedINS_15DoubleBitBinaryEEES3_ZNS_18MeasurementHandler14ProcessWithCTOIS2_EENS_8IINFieldERKNS_12HeaderRecordERKNS_11ICollectionINS1_IT_EEEEEUlRKS3_E_E5CountEv, .-_ZNK8opendnp321TransformedCollectionINS_7IndexedINS_15DoubleBitBinaryEEES3_ZNS_18MeasurementHandler14ProcessWithCTOIS2_EENS_8IINFieldERKNS_12HeaderRecordERKNS_11ICollectionINS1_IT_EEEEEUlRKS3_E_E5CountEv
	.section	.text._ZNK8opendnp321TransformedCollectionINS_7IndexedINS_15DoubleBitBinaryEEES3_ZNS_18MeasurementHandler14ProcessWithCTOIS2_EENS_8IINFieldERKNS_12HeaderRecordERKNS_11ICollectionINS1_IT_EEEEEUlRKS3_E_E7ForeachERNS_8IVisitorIS3_EE,"axG",@progbits,_ZNK8opendnp321TransformedCollectionINS_7IndexedINS_15DoubleBitBinaryEEES3_ZNS_18MeasurementHandler14ProcessWithCTOIS2_EENS_8IINFieldERKNS_12HeaderRecordERKNS_11ICollectionINS1_IT_EEEEEUlRKS3_E_E7ForeachERNS_8IVisitorIS3_EE,comdat
	.align 2
	.p2align 4
	.weak	_ZNK8opendnp321TransformedCollectionINS_7IndexedINS_15DoubleBitBinaryEEES3_ZNS_18MeasurementHandler14ProcessWithCTOIS2_EENS_8IINFieldERKNS_12HeaderRecordERKNS_11ICollectionINS1_IT_EEEEEUlRKS3_E_E7ForeachERNS_8IVisitorIS3_EE
	.type	_ZNK8opendnp321TransformedCollectionINS_7IndexedINS_15DoubleBitBinaryEEES3_ZNS_18MeasurementHandler14ProcessWithCTOIS2_EENS_8IINFieldERKNS_12HeaderRecordERKNS_11ICollectionINS1_IT_EEEEEUlRKS3_E_E7ForeachERNS_8IVisitorIS3_EE, @function
_ZNK8opendnp321TransformedCollectionINS_7IndexedINS_15DoubleBitBinaryEEES3_ZNS_18MeasurementHandler14ProcessWithCTOIS2_EENS_8IINFieldERKNS_12HeaderRecordERKNS_11ICollectionINS1_IT_EEEEEUlRKS3_E_E7ForeachERNS_8IVisitorIS3_EE:
.LFB3202:
	.cfi_startproc
	endbr64
	subq	$40, %rsp
	.cfi_def_cfa_offset 48
	movq	8(%rdi), %r8
	movq	%fs:40, %rax
	movq	%rax, 24(%rsp)
	xorl	%eax, %eax
	movq	_ZTVN8opendnp314FunctorVisitorINS_7IndexedINS_15DoubleBitBinaryEEEZNKS_21TransformedCollectionIS3_S3_ZNS_18MeasurementHandler14ProcessWithCTOIS2_EENS_8IINFieldERKNS_12HeaderRecordERKNS_11ICollectionINS1_IT_EEEEEUlRKS3_E_E7ForeachERNS_8IVisitorIS3_EEEUlSI_E_EE@GOTPCREL(%rip), %rax
	movq	%rdi, 8(%rsp)
	movq	%rsi, 16(%rsp)
	movq	%r8, %rdi
	movq	%rsp, %rsi
	addq	$16, %rax
	movq	%rax, (%rsp)
	movq	(%r8), %rax
	call	*8(%rax)
	movq	24(%rsp), %rax
	xorq	%fs:40, %rax
	jne	.L20
	addq	$40, %rsp
	.cfi_remember_state
	.cfi_def_cfa_offset 8
	ret
.L20:
	.cfi_restore_state
	call	__stack_chk_fail@PLT
	.cfi_endproc
.LFE3202:
	.size	_ZNK8opendnp321TransformedCollectionINS_7IndexedINS_15DoubleBitBinaryEEES3_ZNS_18MeasurementHandler14ProcessWithCTOIS2_EENS_8IINFieldERKNS_12HeaderRecordERKNS_11ICollectionINS1_IT_EEEEEUlRKS3_E_E7ForeachERNS_8IVisitorIS3_EE, .-_ZNK8opendnp321TransformedCollectionINS_7IndexedINS_15DoubleBitBinaryEEES3_ZNS_18MeasurementHandler14ProcessWithCTOIS2_EENS_8IINFieldERKNS_12HeaderRecordERKNS_11ICollectionINS1_IT_EEEEEUlRKS3_E_E7ForeachERNS_8IVisitorIS3_EE
	.section	.text._ZNK8opendnp321TransformedCollectionINS_7IndexedINS_6BinaryEEES3_ZNS_18MeasurementHandler14ProcessWithCTOIS2_EENS_8IINFieldERKNS_12HeaderRecordERKNS_11ICollectionINS1_IT_EEEEEUlRKS3_E_E5CountEv,"axG",@progbits,_ZNK8opendnp321TransformedCollectionINS_7IndexedINS_6BinaryEEES3_ZNS_18MeasurementHandler14ProcessWithCTOIS2_EENS_8IINFieldERKNS_12HeaderRecordERKNS_11ICollectionINS1_IT_EEEEEUlRKS3_E_E5CountEv,comdat
	.align 2
	.p2align 4
	.weak	_ZNK8opendnp321TransformedCollectionINS_7IndexedINS_6BinaryEEES3_ZNS_18MeasurementHandler14ProcessWithCTOIS2_EENS_8IINFieldERKNS_12HeaderRecordERKNS_11ICollectionINS1_IT_EEEEEUlRKS3_E_E5CountEv
	.type	_ZNK8opendnp321TransformedCollectionINS_7IndexedINS_6BinaryEEES3_ZNS_18MeasurementHandler14ProcessWithCTOIS2_EENS_8IINFieldERKNS_12HeaderRecordERKNS_11ICollectionINS1_IT_EEEEEUlRKS3_E_E5CountEv, @function
_ZNK8opendnp321TransformedCollectionINS_7IndexedINS_6BinaryEEES3_ZNS_18MeasurementHandler14ProcessWithCTOIS2_EENS_8IINFieldERKNS_12HeaderRecordERKNS_11ICollectionINS1_IT_EEEEEUlRKS3_E_E5CountEv:
.LFB3204:
	.cfi_startproc
	endbr64
	movq	8(%rdi), %rdi
	movq	(%rdi), %rax
	jmp	*(%rax)
	.cfi_endproc
.LFE3204:
	.size	_ZNK8opendnp321TransformedCollectionINS_7IndexedINS_6BinaryEEES3_ZNS_18MeasurementHandler14ProcessWithCTOIS2_EENS_8IINFieldERKNS_12HeaderRecordERKNS_11ICollectionINS1_IT_EEEEEUlRKS3_E_E5CountEv, .-_ZNK8opendnp321TransformedCollectionINS_7IndexedINS_6BinaryEEES3_ZNS_18MeasurementHandler14ProcessWithCTOIS2_EENS_8IINFieldERKNS_12HeaderRecordERKNS_11ICollectionINS1_IT_EEEEEUlRKS3_E_E5CountEv
	.section	.text._ZNK8opendnp321TransformedCollectionINS_7IndexedINS_6BinaryEEES3_ZNS_18MeasurementHandler14ProcessWithCTOIS2_EENS_8IINFieldERKNS_12HeaderRecordERKNS_11ICollectionINS1_IT_EEEEEUlRKS3_E_E7ForeachERNS_8IVisitorIS3_EE,"axG",@progbits,_ZNK8opendnp321TransformedCollectionINS_7IndexedINS_6BinaryEEES3_ZNS_18MeasurementHandler14ProcessWithCTOIS2_EENS_8IINFieldERKNS_12HeaderRecordERKNS_11ICollectionINS1_IT_EEEEEUlRKS3_E_E7ForeachERNS_8IVisitorIS3_EE,comdat
	.align 2
	.p2align 4
	.weak	_ZNK8opendnp321TransformedCollectionINS_7IndexedINS_6BinaryEEES3_ZNS_18MeasurementHandler14ProcessWithCTOIS2_EENS_8IINFieldERKNS_12HeaderRecordERKNS_11ICollectionINS1_IT_EEEEEUlRKS3_E_E7ForeachERNS_8IVisitorIS3_EE
	.type	_ZNK8opendnp321TransformedCollectionINS_7IndexedINS_6BinaryEEES3_ZNS_18MeasurementHandler14ProcessWithCTOIS2_EENS_8IINFieldERKNS_12HeaderRecordERKNS_11ICollectionINS1_IT_EEEEEUlRKS3_E_E7ForeachERNS_8IVisitorIS3_EE, @function
_ZNK8opendnp321TransformedCollectionINS_7IndexedINS_6BinaryEEES3_ZNS_18MeasurementHandler14ProcessWithCTOIS2_EENS_8IINFieldERKNS_12HeaderRecordERKNS_11ICollectionINS1_IT_EEEEEUlRKS3_E_E7ForeachERNS_8IVisitorIS3_EE:
.LFB3205:
	.cfi_startproc
	endbr64
	subq	$40, %rsp
	.cfi_def_cfa_offset 48
	movq	8(%rdi), %r8
	movq	%fs:40, %rax
	movq	%rax, 24(%rsp)
	xorl	%eax, %eax
	movq	_ZTVN8opendnp314FunctorVisitorINS_7IndexedINS_6BinaryEEEZNKS_21TransformedCollectionIS3_S3_ZNS_18MeasurementHandler14ProcessWithCTOIS2_EENS_8IINFieldERKNS_12HeaderRecordERKNS_11ICollectionINS1_IT_EEEEEUlRKS3_E_E7ForeachERNS_8IVisitorIS3_EEEUlSI_E_EE@GOTPCREL(%rip), %rax
	movq	%rdi, 8(%rsp)
	movq	%rsi, 16(%rsp)
	movq	%r8, %rdi
	movq	%rsp, %rsi
	addq	$16, %rax
	movq	%rax, (%rsp)
	movq	(%r8), %rax
	call	*8(%rax)
	movq	24(%rsp), %rax
	xorq	%fs:40, %rax
	jne	.L25
	addq	$40, %rsp
	.cfi_remember_state
	.cfi_def_cfa_offset 8
	ret
.L25:
	.cfi_restore_state
	call	__stack_chk_fail@PLT
	.cfi_endproc
.LFE3205:
	.size	_ZNK8opendnp321TransformedCollectionINS_7IndexedINS_6BinaryEEES3_ZNS_18MeasurementHandler14ProcessWithCTOIS2_EENS_8IINFieldERKNS_12HeaderRecordERKNS_11ICollectionINS1_IT_EEEEEUlRKS3_E_E7ForeachERNS_8IVisitorIS3_EE, .-_ZNK8opendnp321TransformedCollectionINS_7IndexedINS_6BinaryEEES3_ZNS_18MeasurementHandler14ProcessWithCTOIS2_EENS_8IINFieldERKNS_12HeaderRecordERKNS_11ICollectionINS1_IT_EEEEEUlRKS3_E_E7ForeachERNS_8IVisitorIS3_EE
	.section	.text._ZNK8opendnp321TransformedCollectionINS_7IndexedINS_12Group121Var1EEENS1_INS_12SecurityStatEEEZNS_18MeasurementHandler25LoadValuesWithTransformToIS4_S2_EENS_8IINFieldERKNS_12HeaderRecordERKNS_11ICollectionINS1_IT0_EEEEEUlRKS3_E_E5CountEv,"axG",@progbits,_ZNK8opendnp321TransformedCollectionINS_7IndexedINS_12Group121Var1EEENS1_INS_12SecurityStatEEEZNS_18MeasurementHandler25LoadValuesWithTransformToIS4_S2_EENS_8IINFieldERKNS_12HeaderRecordERKNS_11ICollectionINS1_IT0_EEEEEUlRKS3_E_E5CountEv,comdat
	.align 2
	.p2align 4
	.weak	_ZNK8opendnp321TransformedCollectionINS_7IndexedINS_12Group121Var1EEENS1_INS_12SecurityStatEEEZNS_18MeasurementHandler25LoadValuesWithTransformToIS4_S2_EENS_8IINFieldERKNS_12HeaderRecordERKNS_11ICollectionINS1_IT0_EEEEEUlRKS3_E_E5CountEv
	.type	_ZNK8opendnp321TransformedCollectionINS_7IndexedINS_12Group121Var1EEENS1_INS_12SecurityStatEEEZNS_18MeasurementHandler25LoadValuesWithTransformToIS4_S2_EENS_8IINFieldERKNS_12HeaderRecordERKNS_11ICollectionINS1_IT0_EEEEEUlRKS3_E_E5CountEv, @function
_ZNK8opendnp321TransformedCollectionINS_7IndexedINS_12Group121Var1EEENS1_INS_12SecurityStatEEEZNS_18MeasurementHandler25LoadValuesWithTransformToIS4_S2_EENS_8IINFieldERKNS_12HeaderRecordERKNS_11ICollectionINS1_IT0_EEEEEUlRKS3_E_E5CountEv:
.LFB3207:
	.cfi_startproc
	endbr64
	movq	8(%rdi), %rdi
	movq	(%rdi), %rax
	jmp	*(%rax)
	.cfi_endproc
.LFE3207:
	.size	_ZNK8opendnp321TransformedCollectionINS_7IndexedINS_12Group121Var1EEENS1_INS_12SecurityStatEEEZNS_18MeasurementHandler25LoadValuesWithTransformToIS4_S2_EENS_8IINFieldERKNS_12HeaderRecordERKNS_11ICollectionINS1_IT0_EEEEEUlRKS3_E_E5CountEv, .-_ZNK8opendnp321TransformedCollectionINS_7IndexedINS_12Group121Var1EEENS1_INS_12SecurityStatEEEZNS_18MeasurementHandler25LoadValuesWithTransformToIS4_S2_EENS_8IINFieldERKNS_12HeaderRecordERKNS_11ICollectionINS1_IT0_EEEEEUlRKS3_E_E5CountEv
	.section	.text._ZNK8opendnp321TransformedCollectionINS_7IndexedINS_12Group121Var1EEENS1_INS_12SecurityStatEEEZNS_18MeasurementHandler25LoadValuesWithTransformToIS4_S2_EENS_8IINFieldERKNS_12HeaderRecordERKNS_11ICollectionINS1_IT0_EEEEEUlRKS3_E_E7ForeachERNS_8IVisitorIS5_EE,"axG",@progbits,_ZNK8opendnp321TransformedCollectionINS_7IndexedINS_12Group121Var1EEENS1_INS_12SecurityStatEEEZNS_18MeasurementHandler25LoadValuesWithTransformToIS4_S2_EENS_8IINFieldERKNS_12HeaderRecordERKNS_11ICollectionINS1_IT0_EEEEEUlRKS3_E_E7ForeachERNS_8IVisitorIS5_EE,comdat
	.align 2
	.p2align 4
	.weak	_ZNK8opendnp321TransformedCollectionINS_7IndexedINS_12Group121Var1EEENS1_INS_12SecurityStatEEEZNS_18MeasurementHandler25LoadValuesWithTransformToIS4_S2_EENS_8IINFieldERKNS_12HeaderRecordERKNS_11ICollectionINS1_IT0_EEEEEUlRKS3_E_E7ForeachERNS_8IVisitorIS5_EE
	.type	_ZNK8opendnp321TransformedCollectionINS_7IndexedINS_12Group121Var1EEENS1_INS_12SecurityStatEEEZNS_18MeasurementHandler25LoadValuesWithTransformToIS4_S2_EENS_8IINFieldERKNS_12HeaderRecordERKNS_11ICollectionINS1_IT0_EEEEEUlRKS3_E_E7ForeachERNS_8IVisitorIS5_EE, @function
_ZNK8opendnp321TransformedCollectionINS_7IndexedINS_12Group121Var1EEENS1_INS_12SecurityStatEEEZNS_18MeasurementHandler25LoadValuesWithTransformToIS4_S2_EENS_8IINFieldERKNS_12HeaderRecordERKNS_11ICollectionINS1_IT0_EEEEEUlRKS3_E_E7ForeachERNS_8IVisitorIS5_EE:
.LFB3208:
	.cfi_startproc
	endbr64
	subq	$40, %rsp
	.cfi_def_cfa_offset 48
	movq	8(%rdi), %r8
	movq	%fs:40, %rax
	movq	%rax, 24(%rsp)
	xorl	%eax, %eax
	movq	_ZTVN8opendnp314FunctorVisitorINS_7IndexedINS_12Group121Var1EEEZNKS_21TransformedCollectionIS3_NS1_INS_12SecurityStatEEEZNS_18MeasurementHandler25LoadValuesWithTransformToIS5_S2_EENS_8IINFieldERKNS_12HeaderRecordERKNS_11ICollectionINS1_IT0_EEEEEUlRKS3_E_E7ForeachERNS_8IVisitorIS6_EEEUlSK_E_EE@GOTPCREL(%rip), %rax
	movq	%rdi, 8(%rsp)
	movq	%rsi, 16(%rsp)
	movq	%r8, %rdi
	movq	%rsp, %rsi
	addq	$16, %rax
	movq	%rax, (%rsp)
	movq	(%r8), %rax
	call	*8(%rax)
	movq	24(%rsp), %rax
	xorq	%fs:40, %rax
	jne	.L30
	addq	$40, %rsp
	.cfi_remember_state
	.cfi_def_cfa_offset 8
	ret
.L30:
	.cfi_restore_state
	call	__stack_chk_fail@PLT
	.cfi_endproc
.LFE3208:
	.size	_ZNK8opendnp321TransformedCollectionINS_7IndexedINS_12Group121Var1EEENS1_INS_12SecurityStatEEEZNS_18MeasurementHandler25LoadValuesWithTransformToIS4_S2_EENS_8IINFieldERKNS_12HeaderRecordERKNS_11ICollectionINS1_IT0_EEEEEUlRKS3_E_E7ForeachERNS_8IVisitorIS5_EE, .-_ZNK8opendnp321TransformedCollectionINS_7IndexedINS_12Group121Var1EEENS1_INS_12SecurityStatEEEZNS_18MeasurementHandler25LoadValuesWithTransformToIS4_S2_EENS_8IINFieldERKNS_12HeaderRecordERKNS_11ICollectionINS1_IT0_EEEEEUlRKS3_E_E7ForeachERNS_8IVisitorIS5_EE
	.text
	.align 2
	.p2align 4
	.type	_ZNK8opendnp321TransformedCollectionINS_11Group50Var1EN7openpal10UInt48TypeEZNS_18MeasurementHandler13ProcessHeaderERKNS_11CountHeaderERKNS_11ICollectionIS1_EEEUlRKS1_E_E5CountEv, @function
_ZNK8opendnp321TransformedCollectionINS_11Group50Var1EN7openpal10UInt48TypeEZNS_18MeasurementHandler13ProcessHeaderERKNS_11CountHeaderERKNS_11ICollectionIS1_EEEUlRKS1_E_E5CountEv:
.LFB3210:
	.cfi_startproc
	endbr64
	movq	8(%rdi), %rdi
	movq	(%rdi), %rax
	jmp	*(%rax)
	.cfi_endproc
.LFE3210:
	.size	_ZNK8opendnp321TransformedCollectionINS_11Group50Var1EN7openpal10UInt48TypeEZNS_18MeasurementHandler13ProcessHeaderERKNS_11CountHeaderERKNS_11ICollectionIS1_EEEUlRKS1_E_E5CountEv, .-_ZNK8opendnp321TransformedCollectionINS_11Group50Var1EN7openpal10UInt48TypeEZNS_18MeasurementHandler13ProcessHeaderERKNS_11CountHeaderERKNS_11ICollectionIS1_EEEUlRKS1_E_E5CountEv
	.align 2
	.p2align 4
	.type	_ZNK8opendnp321TransformedCollectionINS_11Group50Var1EN7openpal10UInt48TypeEZNS_18MeasurementHandler13ProcessHeaderERKNS_11CountHeaderERKNS_11ICollectionIS1_EEEUlRKS1_E_E7ForeachERNS_8IVisitorIS3_EE, @function
_ZNK8opendnp321TransformedCollectionINS_11Group50Var1EN7openpal10UInt48TypeEZNS_18MeasurementHandler13ProcessHeaderERKNS_11CountHeaderERKNS_11ICollectionIS1_EEEUlRKS1_E_E7ForeachERNS_8IVisitorIS3_EE:
.LFB3211:
	.cfi_startproc
	endbr64
	subq	$40, %rsp
	.cfi_def_cfa_offset 48
	movq	8(%rdi), %r8
	movq	%fs:40, %rax
	movq	%rax, 24(%rsp)
	xorl	%eax, %eax
	leaq	16+_ZTVN8opendnp314FunctorVisitorINS_11Group50Var1EZNKS_21TransformedCollectionIS1_N7openpal10UInt48TypeEZNS_18MeasurementHandler13ProcessHeaderERKNS_11CountHeaderERKNS_11ICollectionIS1_EEEUlRKS1_E_E7ForeachERNS_8IVisitorIS4_EEEUlSE_E_EE(%rip), %rax
	movq	%rdi, 8(%rsp)
	movq	%rax, (%rsp)
	movq	(%r8), %rax
	movq	%r8, %rdi
	movq	%rsi, 16(%rsp)
	movq	%rsp, %rsi
	call	*8(%rax)
	movq	24(%rsp), %rax
	xorq	%fs:40, %rax
	jne	.L35
	addq	$40, %rsp
	.cfi_remember_state
	.cfi_def_cfa_offset 8
	ret
.L35:
	.cfi_restore_state
	call	__stack_chk_fail@PLT
	.cfi_endproc
.LFE3211:
	.size	_ZNK8opendnp321TransformedCollectionINS_11Group50Var1EN7openpal10UInt48TypeEZNS_18MeasurementHandler13ProcessHeaderERKNS_11CountHeaderERKNS_11ICollectionIS1_EEEUlRKS1_E_E7ForeachERNS_8IVisitorIS3_EE, .-_ZNK8opendnp321TransformedCollectionINS_11Group50Var1EN7openpal10UInt48TypeEZNS_18MeasurementHandler13ProcessHeaderERKNS_11CountHeaderERKNS_11ICollectionIS1_EEEUlRKS1_E_E7ForeachERNS_8IVisitorIS3_EE
	.align 2
	.p2align 4
	.type	_ZN8opendnp314FunctorVisitorINS_11Group50Var1EZNKS_21TransformedCollectionIS1_N7openpal10UInt48TypeEZNS_18MeasurementHandler13ProcessHeaderERKNS_11CountHeaderERKNS_11ICollectionIS1_EEEUlRKS1_E_E7ForeachERNS_8IVisitorIS4_EEEUlSE_E_E7OnValueESE_, @function
_ZN8opendnp314FunctorVisitorINS_11Group50Var1EZNKS_21TransformedCollectionIS1_N7openpal10UInt48TypeEZNS_18MeasurementHandler13ProcessHeaderERKNS_11CountHeaderERKNS_11ICollectionIS1_EEEUlRKS1_E_E7ForeachERNS_8IVisitorIS4_EEEUlSE_E_E7OnValueESE_:
.LFB3262:
	.cfi_startproc
	endbr64
	subq	$24, %rsp
	.cfi_def_cfa_offset 32
	movq	16(%rdi), %rdi
	movq	(%rsi), %rdx
	movq	%fs:40, %rax
	movq	%rax, 8(%rsp)
	xorl	%eax, %eax
	movq	%rsp, %rsi
	movq	(%rdi), %rax
	movq	(%rax), %rax
	movq	%rdx, (%rsp)
	call	*%rax
	movq	8(%rsp), %rax
	xorq	%fs:40, %rax
	jne	.L39
	addq	$24, %rsp
	.cfi_remember_state
	.cfi_def_cfa_offset 8
	ret
.L39:
	.cfi_restore_state
	call	__stack_chk_fail@PLT
	.cfi_endproc
.LFE3262:
	.size	_ZN8opendnp314FunctorVisitorINS_11Group50Var1EZNKS_21TransformedCollectionIS1_N7openpal10UInt48TypeEZNS_18MeasurementHandler13ProcessHeaderERKNS_11CountHeaderERKNS_11ICollectionIS1_EEEUlRKS1_E_E7ForeachERNS_8IVisitorIS4_EEEUlSE_E_E7OnValueESE_, .-_ZN8opendnp314FunctorVisitorINS_11Group50Var1EZNKS_21TransformedCollectionIS1_N7openpal10UInt48TypeEZNS_18MeasurementHandler13ProcessHeaderERKNS_11CountHeaderERKNS_11ICollectionIS1_EEEUlRKS1_E_E7ForeachERNS_8IVisitorIS4_EEEUlSE_E_E7OnValueESE_
	.section	.text._ZN8opendnp314FunctorVisitorINS_7IndexedINS_6BinaryEEEZNKS_21TransformedCollectionIS3_S3_ZNS_18MeasurementHandler14ProcessWithCTOIS2_EENS_8IINFieldERKNS_12HeaderRecordERKNS_11ICollectionINS1_IT_EEEEEUlRKS3_E_E7ForeachERNS_8IVisitorIS3_EEEUlSI_E_E7OnValueESI_,"axG",@progbits,_ZN8opendnp314FunctorVisitorINS_7IndexedINS_6BinaryEEEZNKS_21TransformedCollectionIS3_S3_ZNS_18MeasurementHandler14ProcessWithCTOIS2_EENS_8IINFieldERKNS_12HeaderRecordERKNS_11ICollectionINS1_IT_EEEEEUlRKS3_E_E7ForeachERNS_8IVisitorIS3_EEEUlSI_E_E7OnValueESI_,comdat
	.align 2
	.p2align 4
	.weak	_ZN8opendnp314FunctorVisitorINS_7IndexedINS_6BinaryEEEZNKS_21TransformedCollectionIS3_S3_ZNS_18MeasurementHandler14ProcessWithCTOIS2_EENS_8IINFieldERKNS_12HeaderRecordERKNS_11ICollectionINS1_IT_EEEEEUlRKS3_E_E7ForeachERNS_8IVisitorIS3_EEEUlSI_E_E7OnValueESI_
	.type	_ZN8opendnp314FunctorVisitorINS_7IndexedINS_6BinaryEEEZNKS_21TransformedCollectionIS3_S3_ZNS_18MeasurementHandler14ProcessWithCTOIS2_EENS_8IINFieldERKNS_12HeaderRecordERKNS_11ICollectionINS1_IT_EEEEEUlRKS3_E_E7ForeachERNS_8IVisitorIS3_EEEUlSI_E_E7OnValueESI_, @function
_ZN8opendnp314FunctorVisitorINS_7IndexedINS_6BinaryEEEZNKS_21TransformedCollectionIS3_S3_ZNS_18MeasurementHandler14ProcessWithCTOIS2_EENS_8IINFieldERKNS_12HeaderRecordERKNS_11ICollectionINS1_IT_EEEEEUlRKS3_E_E7ForeachERNS_8IVisitorIS3_EEEUlSI_E_E7OnValueESI_:
.LFB3264:
	.cfi_startproc
	endbr64
	subq	$56, %rsp
	.cfi_def_cfa_offset 64
	movq	16(%rdi), %r8
	movq	8(%rdi), %rdi
	movq	%fs:40, %rax
	movq	%rax, 40(%rsp)
	xorl	%eax, %eax
	movzbl	16(%rsi), %r9d
	movzwl	24(%rsi), %ecx
	movq	(%r8), %rax
	movq	(%rax), %rdx
	movq	8(%rsi), %rax
	movzbl	(%rsi), %esi
	addq	16(%rdi), %rax
	movb	%r9b, 16(%rsp)
	movq	%r8, %rdi
	movq	%rax, 8(%rsp)
	movb	%sil, (%rsp)
	movq	%rsp, %rsi
	movw	%cx, 24(%rsp)
	call	*%rdx
	movq	40(%rsp), %rax
	xorq	%fs:40, %rax
	jne	.L43
	addq	$56, %rsp
	.cfi_remember_state
	.cfi_def_cfa_offset 8
	ret
.L43:
	.cfi_restore_state
	call	__stack_chk_fail@PLT
	.cfi_endproc
.LFE3264:
	.size	_ZN8opendnp314FunctorVisitorINS_7IndexedINS_6BinaryEEEZNKS_21TransformedCollectionIS3_S3_ZNS_18MeasurementHandler14ProcessWithCTOIS2_EENS_8IINFieldERKNS_12HeaderRecordERKNS_11ICollectionINS1_IT_EEEEEUlRKS3_E_E7ForeachERNS_8IVisitorIS3_EEEUlSI_E_E7OnValueESI_, .-_ZN8opendnp314FunctorVisitorINS_7IndexedINS_6BinaryEEEZNKS_21TransformedCollectionIS3_S3_ZNS_18MeasurementHandler14ProcessWithCTOIS2_EENS_8IINFieldERKNS_12HeaderRecordERKNS_11ICollectionINS1_IT_EEEEEUlRKS3_E_E7ForeachERNS_8IVisitorIS3_EEEUlSI_E_E7OnValueESI_
	.section	.text._ZN8opendnp314FunctorVisitorINS_7IndexedINS_15DoubleBitBinaryEEEZNKS_21TransformedCollectionIS3_S3_ZNS_18MeasurementHandler14ProcessWithCTOIS2_EENS_8IINFieldERKNS_12HeaderRecordERKNS_11ICollectionINS1_IT_EEEEEUlRKS3_E_E7ForeachERNS_8IVisitorIS3_EEEUlSI_E_E7OnValueESI_,"axG",@progbits,_ZN8opendnp314FunctorVisitorINS_7IndexedINS_15DoubleBitBinaryEEEZNKS_21TransformedCollectionIS3_S3_ZNS_18MeasurementHandler14ProcessWithCTOIS2_EENS_8IINFieldERKNS_12HeaderRecordERKNS_11ICollectionINS1_IT_EEEEEUlRKS3_E_E7ForeachERNS_8IVisitorIS3_EEEUlSI_E_E7OnValueESI_,comdat
	.align 2
	.p2align 4
	.weak	_ZN8opendnp314FunctorVisitorINS_7IndexedINS_15DoubleBitBinaryEEEZNKS_21TransformedCollectionIS3_S3_ZNS_18MeasurementHandler14ProcessWithCTOIS2_EENS_8IINFieldERKNS_12HeaderRecordERKNS_11ICollectionINS1_IT_EEEEEUlRKS3_E_E7ForeachERNS_8IVisitorIS3_EEEUlSI_E_E7OnValueESI_
	.type	_ZN8opendnp314FunctorVisitorINS_7IndexedINS_15DoubleBitBinaryEEEZNKS_21TransformedCollectionIS3_S3_ZNS_18MeasurementHandler14ProcessWithCTOIS2_EENS_8IINFieldERKNS_12HeaderRecordERKNS_11ICollectionINS1_IT_EEEEEUlRKS3_E_E7ForeachERNS_8IVisitorIS3_EEEUlSI_E_E7OnValueESI_, @function
_ZN8opendnp314FunctorVisitorINS_7IndexedINS_15DoubleBitBinaryEEEZNKS_21TransformedCollectionIS3_S3_ZNS_18MeasurementHandler14ProcessWithCTOIS2_EENS_8IINFieldERKNS_12HeaderRecordERKNS_11ICollectionINS1_IT_EEEEEUlRKS3_E_E7ForeachERNS_8IVisitorIS3_EEEUlSI_E_E7OnValueESI_:
.LFB3265:
	.cfi_startproc
	endbr64
	subq	$56, %rsp
	.cfi_def_cfa_offset 64
	movq	16(%rdi), %r8
	movq	8(%rdi), %rdi
	movq	%fs:40, %rax
	movq	%rax, 40(%rsp)
	xorl	%eax, %eax
	movzbl	16(%rsi), %r9d
	movzwl	24(%rsi), %ecx
	movq	(%r8), %rax
	movq	(%rax), %rdx
	movq	8(%rsi), %rax
	movzbl	(%rsi), %esi
	addq	16(%rdi), %rax
	movb	%r9b, 16(%rsp)
	movq	%r8, %rdi
	movq	%rax, 8(%rsp)
	movb	%sil, (%rsp)
	movq	%rsp, %rsi
	movw	%cx, 24(%rsp)
	call	*%rdx
	movq	40(%rsp), %rax
	xorq	%fs:40, %rax
	jne	.L47
	addq	$56, %rsp
	.cfi_remember_state
	.cfi_def_cfa_offset 8
	ret
.L47:
	.cfi_restore_state
	call	__stack_chk_fail@PLT
	.cfi_endproc
.LFE3265:
	.size	_ZN8opendnp314FunctorVisitorINS_7IndexedINS_15DoubleBitBinaryEEEZNKS_21TransformedCollectionIS3_S3_ZNS_18MeasurementHandler14ProcessWithCTOIS2_EENS_8IINFieldERKNS_12HeaderRecordERKNS_11ICollectionINS1_IT_EEEEEUlRKS3_E_E7ForeachERNS_8IVisitorIS3_EEEUlSI_E_E7OnValueESI_, .-_ZN8opendnp314FunctorVisitorINS_7IndexedINS_15DoubleBitBinaryEEEZNKS_21TransformedCollectionIS3_S3_ZNS_18MeasurementHandler14ProcessWithCTOIS2_EENS_8IINFieldERKNS_12HeaderRecordERKNS_11ICollectionINS1_IT_EEEEEUlRKS3_E_E7ForeachERNS_8IVisitorIS3_EEEUlSI_E_E7OnValueESI_
	.text
	.align 2
	.p2align 4
	.globl	_ZN8opendnp318MeasurementHandler13ProcessHeaderERKNS_11CountHeaderERKNS_11ICollectionINS_11Group51Var1EEE
	.type	_ZN8opendnp318MeasurementHandler13ProcessHeaderERKNS_11CountHeaderERKNS_11ICollectionINS_11Group51Var1EEE, @function
_ZN8opendnp318MeasurementHandler13ProcessHeaderERKNS_11CountHeaderERKNS_11ICollectionINS_11Group51Var1EEE:
.LFB2380:
	.cfi_startproc
	endbr64
	pushq	%r12
	.cfi_def_cfa_offset 16
	.cfi_offset 12, -16
	pushq	%rbp
	.cfi_def_cfa_offset 24
	.cfi_offset 6, -24
	movq	%rdx, %rbp
	pushq	%rbx
	.cfi_def_cfa_offset 32
	.cfi_offset 3, -32
	movq	%rdi, %rbx
	subq	$48, %rsp
	.cfi_def_cfa_offset 80
	movq	%fs:40, %rax
	movq	%rax, 40(%rsp)
	xorl	%eax, %eax
	leaq	8(%rsp), %r12
	movq	%r12, %rdi
	call	_ZN8opendnp311Group51Var1C1Ev@PLT
	movq	0(%rbp), %rax
	movq	%rbp, %rdi
	call	*(%rax)
	cmpq	$1, %rax
	jne	.L49
	movq	_ZTVN8opendnp314FunctorVisitorINS_11Group51Var1EZNKS_11ICollectionIS1_E13ReadOnlyValueERS1_EUlRKS1_E_EE@GOTPCREL(%rip), %rax
	movq	%r12, %xmm1
	leaq	16(%rsp), %rsi
	movq	%rbp, %rdi
	addq	$16, %rax
	movq	%rax, %xmm0
	movq	0(%rbp), %rax
	punpcklqdq	%xmm1, %xmm0
	movaps	%xmm0, 16(%rsp)
	call	*8(%rax)
	movq	8(%rsp), %rax
	movb	$1, 72(%rbx)
	movq	%rax, 80(%rbx)
.L49:
	movq	40(%rsp), %rax
	xorq	%fs:40, %rax
	jne	.L52
	addq	$48, %rsp
	.cfi_remember_state
	.cfi_def_cfa_offset 32
	xorl	%eax, %eax
	popq	%rbx
	.cfi_def_cfa_offset 24
	popq	%rbp
	.cfi_def_cfa_offset 16
	popq	%r12
	.cfi_def_cfa_offset 8
	ret
.L52:
	.cfi_restore_state
	call	__stack_chk_fail@PLT
	.cfi_endproc
.LFE2380:
	.size	_ZN8opendnp318MeasurementHandler13ProcessHeaderERKNS_11CountHeaderERKNS_11ICollectionINS_11Group51Var1EEE, .-_ZN8opendnp318MeasurementHandler13ProcessHeaderERKNS_11CountHeaderERKNS_11ICollectionINS_11Group51Var1EEE
	.align 2
	.p2align 4
	.globl	_ZN8opendnp318MeasurementHandler13ProcessHeaderERKNS_11CountHeaderERKNS_11ICollectionINS_11Group51Var2EEE
	.type	_ZN8opendnp318MeasurementHandler13ProcessHeaderERKNS_11CountHeaderERKNS_11ICollectionINS_11Group51Var2EEE, @function
_ZN8opendnp318MeasurementHandler13ProcessHeaderERKNS_11CountHeaderERKNS_11ICollectionINS_11Group51Var2EEE:
.LFB2381:
	.cfi_startproc
	endbr64
	pushq	%r12
	.cfi_def_cfa_offset 16
	.cfi_offset 12, -16
	pushq	%rbp
	.cfi_def_cfa_offset 24
	.cfi_offset 6, -24
	movq	%rdx, %rbp
	pushq	%rbx
	.cfi_def_cfa_offset 32
	.cfi_offset 3, -32
	movq	%rdi, %rbx
	subq	$48, %rsp
	.cfi_def_cfa_offset 80
	movq	%fs:40, %rax
	movq	%rax, 40(%rsp)
	xorl	%eax, %eax
	leaq	8(%rsp), %r12
	movq	%r12, %rdi
	call	_ZN8opendnp311Group51Var2C1Ev@PLT
	movq	0(%rbp), %rax
	movq	%rbp, %rdi
	call	*(%rax)
	cmpq	$1, %rax
	jne	.L54
	movq	_ZTVN8opendnp314FunctorVisitorINS_11Group51Var2EZNKS_11ICollectionIS1_E13ReadOnlyValueERS1_EUlRKS1_E_EE@GOTPCREL(%rip), %rax
	movq	%r12, %xmm1
	leaq	16(%rsp), %rsi
	movq	%rbp, %rdi
	addq	$16, %rax
	movq	%rax, %xmm0
	movq	0(%rbp), %rax
	punpcklqdq	%xmm1, %xmm0
	movaps	%xmm0, 16(%rsp)
	call	*8(%rax)
	movq	8(%rsp), %rax
	movb	$2, 72(%rbx)
	movq	%rax, 80(%rbx)
.L54:
	movq	40(%rsp), %rax
	xorq	%fs:40, %rax
	jne	.L57
	addq	$48, %rsp
	.cfi_remember_state
	.cfi_def_cfa_offset 32
	xorl	%eax, %eax
	popq	%rbx
	.cfi_def_cfa_offset 24
	popq	%rbp
	.cfi_def_cfa_offset 16
	popq	%r12
	.cfi_def_cfa_offset 8
	ret
.L57:
	.cfi_restore_state
	call	__stack_chk_fail@PLT
	.cfi_endproc
.LFE2381:
	.size	_ZN8opendnp318MeasurementHandler13ProcessHeaderERKNS_11CountHeaderERKNS_11ICollectionINS_11Group51Var2EEE, .-_ZN8opendnp318MeasurementHandler13ProcessHeaderERKNS_11CountHeaderERKNS_11ICollectionINS_11Group51Var2EEE
	.align 2
	.p2align 4
	.globl	_ZN8opendnp318MeasurementHandlerC2ERKN7openpal6LoggerEPNS_11ISOEHandlerE
	.type	_ZN8opendnp318MeasurementHandlerC2ERKN7openpal6LoggerEPNS_11ISOEHandlerE, @function
_ZN8opendnp318MeasurementHandlerC2ERKN7openpal6LoggerEPNS_11ISOEHandlerE:
.LFB2363:
	.cfi_startproc
	endbr64
	pushq	%r12
	.cfi_def_cfa_offset 16
	.cfi_offset 12, -16
	movq	%rdx, %r12
	pushq	%rbp
	.cfi_def_cfa_offset 24
	.cfi_offset 6, -24
	movq	%rsi, %rbp
	pushq	%rbx
	.cfi_def_cfa_offset 32
	.cfi_offset 3, -32
	movq	%rdi, %rbx
	call	_ZN8opendnp312IAPDUHandlerC2Ev@PLT
	movq	_ZTVN8opendnp318MeasurementHandlerE@GOTPCREL(%rip), %rax
	addq	$16, %rax
	movq	%rax, (%rbx)
	movq	0(%rbp), %rax
	movq	%rax, 24(%rbx)
	movq	8(%rbp), %rax
	movq	%rax, 32(%rbx)
	testq	%rax, %rax
	je	.L59
	cmpq	$0, _ZL28__gthrw___pthread_key_createPjPFvPvE@GOTPCREL(%rip)
	je	.L60
	lock addl	$1, 8(%rax)
.L59:
	movq	16(%rbp), %rax
	movq	%rax, 40(%rbx)
	movq	24(%rbp), %rax
	movq	%rax, 48(%rbx)
	testq	%rax, %rax
	je	.L61
	cmpq	$0, _ZL28__gthrw___pthread_key_createPjPFvPvE@GOTPCREL(%rip)
	je	.L62
	lock addl	$1, 8(%rax)
.L61:
	movq	%r12, 64(%rbx)
	movb	$0, 56(%rbx)
	movb	$0, 72(%rbx)
	movq	$0, 80(%rbx)
	popq	%rbx
	.cfi_remember_state
	.cfi_def_cfa_offset 24
	popq	%rbp
	.cfi_def_cfa_offset 16
	popq	%r12
	.cfi_def_cfa_offset 8
	ret
	.p2align 4,,10
	.p2align 3
.L60:
	.cfi_restore_state
	addl	$1, 8(%rax)
	jmp	.L59
	.p2align 4,,10
	.p2align 3
.L62:
	addl	$1, 8(%rax)
	jmp	.L61
	.cfi_endproc
.LFE2363:
	.size	_ZN8opendnp318MeasurementHandlerC2ERKN7openpal6LoggerEPNS_11ISOEHandlerE, .-_ZN8opendnp318MeasurementHandlerC2ERKN7openpal6LoggerEPNS_11ISOEHandlerE
	.globl	_ZN8opendnp318MeasurementHandlerC1ERKN7openpal6LoggerEPNS_11ISOEHandlerE
	.set	_ZN8opendnp318MeasurementHandlerC1ERKN7openpal6LoggerEPNS_11ISOEHandlerE,_ZN8opendnp318MeasurementHandlerC2ERKN7openpal6LoggerEPNS_11ISOEHandlerE
	.align 2
	.p2align 4
	.globl	_ZN8opendnp318MeasurementHandlerD2Ev
	.type	_ZN8opendnp318MeasurementHandlerD2Ev, @function
_ZN8opendnp318MeasurementHandlerD2Ev:
.LFB2366:
	.cfi_startproc
	.cfi_personality 0x9b,DW.ref.__gxx_personality_v0
	.cfi_lsda 0x1b,.LLSDA2366
	endbr64
	movq	_ZTVN8opendnp318MeasurementHandlerE@GOTPCREL(%rip), %rax
	pushq	%r12
	.cfi_def_cfa_offset 16
	.cfi_offset 12, -16
	pushq	%rbp
	.cfi_def_cfa_offset 24
	.cfi_offset 6, -24
	addq	$16, %rax
	pushq	%rbx
	.cfi_def_cfa_offset 32
	.cfi_offset 3, -32
	cmpb	$0, 56(%rdi)
	movq	%rdi, %rbx
	movq	%rax, (%rdi)
	je	.L71
	movq	64(%rdi), %rdi
	testq	%rdi, %rdi
	je	.L71
	movq	(%rdi), %rax
	call	*24(%rax)
.L71:
	movq	48(%rbx), %rbp
	testq	%rbp, %rbp
	je	.L73
	movq	_ZL28__gthrw___pthread_key_createPjPFvPvE@GOTPCREL(%rip), %r12
	testq	%r12, %r12
	je	.L74
	movl	$-1, %eax
	lock xaddl	%eax, 8(%rbp)
	cmpl	$1, %eax
	je	.L90
	.p2align 4,,10
	.p2align 3
.L73:
	movq	32(%rbx), %rbp
	testq	%rbp, %rbp
	je	.L70
	movq	_ZL28__gthrw___pthread_key_createPjPFvPvE@GOTPCREL(%rip), %r12
	testq	%r12, %r12
	je	.L81
	movl	$-1, %eax
	lock xaddl	%eax, 8(%rbp)
	cmpl	$1, %eax
	je	.L91
.L70:
	popq	%rbx
	.cfi_remember_state
	.cfi_def_cfa_offset 24
	popq	%rbp
	.cfi_def_cfa_offset 16
	popq	%r12
	.cfi_def_cfa_offset 8
	ret
	.p2align 4,,10
	.p2align 3
.L81:
	.cfi_restore_state
	movl	8(%rbp), %eax
	leal	-1(%rax), %edx
	movl	%edx, 8(%rbp)
	cmpl	$1, %eax
	jne	.L70
.L91:
	movq	0(%rbp), %rax
	movq	%rbp, %rdi
	call	*16(%rax)
	testq	%r12, %r12
	je	.L84
	movl	$-1, %eax
	lock xaddl	%eax, 12(%rbp)
.L85:
	cmpl	$1, %eax
	jne	.L70
	movq	0(%rbp), %rax
	popq	%rbx
	.cfi_remember_state
	.cfi_def_cfa_offset 24
	movq	%rbp, %rdi
	popq	%rbp
	.cfi_def_cfa_offset 16
	popq	%r12
	.cfi_def_cfa_offset 8
	movq	24(%rax), %rax
	jmp	*%rax
	.p2align 4,,10
	.p2align 3
.L74:
	.cfi_restore_state
	movl	8(%rbp), %eax
	leal	-1(%rax), %edx
	movl	%edx, 8(%rbp)
	cmpl	$1, %eax
	jne	.L73
.L90:
	movq	0(%rbp), %rax
	movq	%rbp, %rdi
	call	*16(%rax)
	testq	%r12, %r12
	je	.L77
	movl	$-1, %eax
	lock xaddl	%eax, 12(%rbp)
.L78:
	cmpl	$1, %eax
	jne	.L73
	movq	0(%rbp), %rax
	movq	%rbp, %rdi
	call	*24(%rax)
	jmp	.L73
	.p2align 4,,10
	.p2align 3
.L77:
	movl	12(%rbp), %eax
	leal	-1(%rax), %edx
	movl	%edx, 12(%rbp)
	jmp	.L78
	.p2align 4,,10
	.p2align 3
.L84:
	movl	12(%rbp), %eax
	leal	-1(%rax), %edx
	movl	%edx, 12(%rbp)
	jmp	.L85
	.cfi_endproc
.LFE2366:
	.globl	__gxx_personality_v0
	.section	.gcc_except_table,"a",@progbits
.LLSDA2366:
	.byte	0xff
	.byte	0xff
	.byte	0x1
	.uleb128 .LLSDACSE2366-.LLSDACSB2366
.LLSDACSB2366:
.LLSDACSE2366:
	.text
	.size	_ZN8opendnp318MeasurementHandlerD2Ev, .-_ZN8opendnp318MeasurementHandlerD2Ev
	.globl	_ZN8opendnp318MeasurementHandlerD1Ev
	.set	_ZN8opendnp318MeasurementHandlerD1Ev,_ZN8opendnp318MeasurementHandlerD2Ev
	.section	.text.unlikely,"ax",@progbits
	.align 2
.LCOLDB0:
	.text
.LHOTB0:
	.align 2
	.p2align 4
	.globl	_ZN8opendnp318MeasurementHandler19ProcessMeasurementsERKN7openpal6RSliceERNS1_6LoggerEPNS_11ISOEHandlerE
	.type	_ZN8opendnp318MeasurementHandler19ProcessMeasurementsERKN7openpal6RSliceERNS1_6LoggerEPNS_11ISOEHandlerE, @function
_ZN8opendnp318MeasurementHandler19ProcessMeasurementsERKN7openpal6RSliceERNS1_6LoggerEPNS_11ISOEHandlerE:
.LFB2361:
	.cfi_startproc
	.cfi_personality 0x9b,DW.ref.__gxx_personality_v0
	.cfi_lsda 0x1b,.LLSDA2361
	endbr64
	pushq	%r13
	.cfi_def_cfa_offset 16
	.cfi_offset 13, -16
	movq	%rdi, %r13
	pushq	%r12
	.cfi_def_cfa_offset 24
	.cfi_offset 12, -24
	movq	%rsi, %r12
	pushq	%rbp
	.cfi_def_cfa_offset 32
	.cfi_offset 6, -32
	subq	$96, %rsp
	.cfi_def_cfa_offset 128
	movq	%fs:40, %rax
	movq	%rax, 88(%rsp)
	xorl	%eax, %eax
	movq	%rsp, %rbp
	movq	%rbp, %rdi
.LEHB0:
	call	_ZN8opendnp318MeasurementHandlerC1ERKN7openpal6LoggerEPNS_11ISOEHandlerE@PLT
.LEHE0:
	movq	%r12, %rdx
	movq	%rbp, %rsi
	movq	%r13, %rdi
	movabsq	$35184372088833, %rcx
.LEHB1:
	call	_ZN8opendnp310APDUParser5ParseERKN7openpal6RSliceERNS_12IAPDUHandlerEPNS1_6LoggerENS_14ParserSettingsE@PLT
.LEHE1:
	movq	%rbp, %rdi
	movl	%eax, %r12d
	call	_ZN8opendnp318MeasurementHandlerD1Ev@PLT
	movq	88(%rsp), %rax
	xorq	%fs:40, %rax
	jne	.L98
	addq	$96, %rsp
	.cfi_remember_state
	.cfi_def_cfa_offset 32
	movl	%r12d, %eax
	popq	%rbp
	.cfi_def_cfa_offset 24
	popq	%r12
	.cfi_def_cfa_offset 16
	popq	%r13
	.cfi_def_cfa_offset 8
	ret
.L98:
	.cfi_restore_state
	call	__stack_chk_fail@PLT
.L95:
	endbr64
	movq	%rax, %r12
	jmp	.L93
	.section	.gcc_except_table
.LLSDA2361:
	.byte	0xff
	.byte	0xff
	.byte	0x1
	.uleb128 .LLSDACSE2361-.LLSDACSB2361
.LLSDACSB2361:
	.uleb128 .LEHB0-.LFB2361
	.uleb128 .LEHE0-.LEHB0
	.uleb128 0
	.uleb128 0
	.uleb128 .LEHB1-.LFB2361
	.uleb128 .LEHE1-.LEHB1
	.uleb128 .L95-.LFB2361
	.uleb128 0
.LLSDACSE2361:
	.text
	.cfi_endproc
	.section	.text.unlikely
	.cfi_startproc
	.cfi_personality 0x9b,DW.ref.__gxx_personality_v0
	.cfi_lsda 0x1b,.LLSDAC2361
	.type	_ZN8opendnp318MeasurementHandler19ProcessMeasurementsERKN7openpal6RSliceERNS1_6LoggerEPNS_11ISOEHandlerE.cold, @function
_ZN8opendnp318MeasurementHandler19ProcessMeasurementsERKN7openpal6RSliceERNS1_6LoggerEPNS_11ISOEHandlerE.cold:
.LFSB2361:
.L93:
	.cfi_def_cfa_offset 128
	.cfi_offset 6, -32
	.cfi_offset 12, -24
	.cfi_offset 13, -16
	movq	%rbp, %rdi
	call	_ZN8opendnp318MeasurementHandlerD1Ev@PLT
	movq	%r12, %rdi
.LEHB2:
	call	_Unwind_Resume@PLT
.LEHE2:
	.cfi_endproc
.LFE2361:
	.section	.gcc_except_table
.LLSDAC2361:
	.byte	0xff
	.byte	0xff
	.byte	0x1
	.uleb128 .LLSDACSEC2361-.LLSDACSBC2361
.LLSDACSBC2361:
	.uleb128 .LEHB2-.LCOLDB0
	.uleb128 .LEHE2-.LEHB2
	.uleb128 0
	.uleb128 0
.LLSDACSEC2361:
	.section	.text.unlikely
	.text
	.size	_ZN8opendnp318MeasurementHandler19ProcessMeasurementsERKN7openpal6RSliceERNS1_6LoggerEPNS_11ISOEHandlerE, .-_ZN8opendnp318MeasurementHandler19ProcessMeasurementsERKN7openpal6RSliceERNS1_6LoggerEPNS_11ISOEHandlerE
	.section	.text.unlikely
	.size	_ZN8opendnp318MeasurementHandler19ProcessMeasurementsERKN7openpal6RSliceERNS1_6LoggerEPNS_11ISOEHandlerE.cold, .-_ZN8opendnp318MeasurementHandler19ProcessMeasurementsERKN7openpal6RSliceERNS1_6LoggerEPNS_11ISOEHandlerE.cold
.LCOLDE0:
	.text
.LHOTE0:
	.align 2
	.p2align 4
	.globl	_ZN8opendnp318MeasurementHandler12ModeFromTypeENS_14GroupVariationE
	.type	_ZN8opendnp318MeasurementHandler12ModeFromTypeENS_14GroupVariationE, @function
_ZN8opendnp318MeasurementHandler12ModeFromTypeENS_14GroupVariationE:
.LFB2368:
	.cfi_startproc
	endbr64
	jmp	_ZN8opendnp315HasAbsoluteTimeENS_14GroupVariationE@PLT
	.cfi_endproc
.LFE2368:
	.size	_ZN8opendnp318MeasurementHandler12ModeFromTypeENS_14GroupVariationE, .-_ZN8opendnp318MeasurementHandler12ModeFromTypeENS_14GroupVariationE
	.align 2
	.p2align 4
	.globl	_ZN8opendnp318MeasurementHandler15CheckForTxStartEv
	.type	_ZN8opendnp318MeasurementHandler15CheckForTxStartEv, @function
_ZN8opendnp318MeasurementHandler15CheckForTxStartEv:
.LFB2369:
	.cfi_startproc
	endbr64
	cmpb	$0, 56(%rdi)
	jne	.L100
	movb	$1, 56(%rdi)
	movq	64(%rdi), %rdi
	testq	%rdi, %rdi
	je	.L100
	movq	(%rdi), %rax
	jmp	*16(%rax)
	.p2align 4,,10
	.p2align 3
.L100:
	ret
	.cfi_endproc
.LFE2369:
	.size	_ZN8opendnp318MeasurementHandler15CheckForTxStartEv, .-_ZN8opendnp318MeasurementHandler15CheckForTxStartEv
	.align 2
	.p2align 4
	.globl	_ZN8opendnp318MeasurementHandler13ProcessHeaderERKNS_11RangeHeaderERKNS_11ICollectionINS_7IndexedINS_18BinaryOutputStatusEEEEE
	.type	_ZN8opendnp318MeasurementHandler13ProcessHeaderERKNS_11RangeHeaderERKNS_11ICollectionINS_7IndexedINS_18BinaryOutputStatusEEEEE, @function
_ZN8opendnp318MeasurementHandler13ProcessHeaderERKNS_11RangeHeaderERKNS_11ICollectionINS_7IndexedINS_18BinaryOutputStatusEEEEE:
.LFB2384:
	.cfi_startproc
	endbr64
	pushq	%r15
	.cfi_def_cfa_offset 16
	.cfi_offset 15, -16
	pushq	%r14
	.cfi_def_cfa_offset 24
	.cfi_offset 14, -24
	pushq	%r13
	.cfi_def_cfa_offset 32
	.cfi_offset 13, -32
	pushq	%r12
	.cfi_def_cfa_offset 40
	.cfi_offset 12, -40
	movq	%rdx, %r12
	pushq	%rbp
	.cfi_def_cfa_offset 48
	.cfi_offset 6, -48
	movq	%rdi, %rbp
	pushq	%rbx
	.cfi_def_cfa_offset 56
	.cfi_offset 3, -56
	movq	%rsi, %rbx
	subq	$40, %rsp
	.cfi_def_cfa_offset 96
	movzwl	(%rsi), %edi
	movq	%fs:40, %rax
	movq	%rax, 24(%rsp)
	xorl	%eax, %eax
	call	_ZN8opendnp318MeasurementHandler12ModeFromTypeENS_14GroupVariationE@PLT
	movq	%rbp, %rdi
	movl	%eax, %r14d
	call	_ZN8opendnp318MeasurementHandler15CheckForTxStartEv@PLT
	movq	%rbx, %rdi
	movl	12(%rbx), %r15d
	call	_ZNK8opendnp312HeaderRecord16GetQualifierCodeEv@PLT
	movzwl	(%rbx), %r13d
	movb	%r14b, 15(%rsp)
	movb	%al, 14(%rsp)
	movl	%r13d, %edi
	movw	%r13w, 12(%rsp)
	call	_ZN8opendnp37IsEventENS_14GroupVariationE@PLT
	movl	%r13d, %edi
	movb	%al, 16(%rsp)
	call	_ZN8opendnp38HasFlagsENS_14GroupVariationE@PLT
	movq	64(%rbp), %rdi
	movl	%r15d, 20(%rsp)
	movq	%r12, %rdx
	movb	%al, 17(%rsp)
	leaq	12(%rsp), %rsi
	movq	(%rdi), %rax
	call	*72(%rax)
	movq	24(%rsp), %rax
	xorq	%fs:40, %rax
	jne	.L110
	addq	$40, %rsp
	.cfi_remember_state
	.cfi_def_cfa_offset 56
	xorl	%eax, %eax
	popq	%rbx
	.cfi_def_cfa_offset 48
	popq	%rbp
	.cfi_def_cfa_offset 40
	popq	%r12
	.cfi_def_cfa_offset 32
	popq	%r13
	.cfi_def_cfa_offset 24
	popq	%r14
	.cfi_def_cfa_offset 16
	popq	%r15
	.cfi_def_cfa_offset 8
	ret
.L110:
	.cfi_restore_state
	call	__stack_chk_fail@PLT
	.cfi_endproc
.LFE2384:
	.size	_ZN8opendnp318MeasurementHandler13ProcessHeaderERKNS_11RangeHeaderERKNS_11ICollectionINS_7IndexedINS_18BinaryOutputStatusEEEEE, .-_ZN8opendnp318MeasurementHandler13ProcessHeaderERKNS_11RangeHeaderERKNS_11ICollectionINS_7IndexedINS_18BinaryOutputStatusEEEEE
	.align 2
	.p2align 4
	.globl	_ZN8opendnp318MeasurementHandler13ProcessHeaderERKNS_11RangeHeaderERKNS_11ICollectionINS_7IndexedINS_7CounterEEEEE
	.type	_ZN8opendnp318MeasurementHandler13ProcessHeaderERKNS_11RangeHeaderERKNS_11ICollectionINS_7IndexedINS_7CounterEEEEE, @function
_ZN8opendnp318MeasurementHandler13ProcessHeaderERKNS_11RangeHeaderERKNS_11ICollectionINS_7IndexedINS_7CounterEEEEE:
.LFB2385:
	.cfi_startproc
	endbr64
	pushq	%r15
	.cfi_def_cfa_offset 16
	.cfi_offset 15, -16
	pushq	%r14
	.cfi_def_cfa_offset 24
	.cfi_offset 14, -24
	pushq	%r13
	.cfi_def_cfa_offset 32
	.cfi_offset 13, -32
	pushq	%r12
	.cfi_def_cfa_offset 40
	.cfi_offset 12, -40
	movq	%rdx, %r12
	pushq	%rbp
	.cfi_def_cfa_offset 48
	.cfi_offset 6, -48
	movq	%rdi, %rbp
	pushq	%rbx
	.cfi_def_cfa_offset 56
	.cfi_offset 3, -56
	movq	%rsi, %rbx
	subq	$40, %rsp
	.cfi_def_cfa_offset 96
	movzwl	(%rsi), %edi
	movq	%fs:40, %rax
	movq	%rax, 24(%rsp)
	xorl	%eax, %eax
	call	_ZN8opendnp318MeasurementHandler12ModeFromTypeENS_14GroupVariationE@PLT
	movq	%rbp, %rdi
	movl	%eax, %r14d
	call	_ZN8opendnp318MeasurementHandler15CheckForTxStartEv@PLT
	movq	%rbx, %rdi
	movl	12(%rbx), %r15d
	call	_ZNK8opendnp312HeaderRecord16GetQualifierCodeEv@PLT
	movzwl	(%rbx), %r13d
	movb	%r14b, 15(%rsp)
	movb	%al, 14(%rsp)
	movl	%r13d, %edi
	movw	%r13w, 12(%rsp)
	call	_ZN8opendnp37IsEventENS_14GroupVariationE@PLT
	movl	%r13d, %edi
	movb	%al, 16(%rsp)
	call	_ZN8opendnp38HasFlagsENS_14GroupVariationE@PLT
	movq	64(%rbp), %rdi
	movl	%r15d, 20(%rsp)
	movq	%r12, %rdx
	movb	%al, 17(%rsp)
	leaq	12(%rsp), %rsi
	movq	(%rdi), %rax
	call	*56(%rax)
	movq	24(%rsp), %rax
	xorq	%fs:40, %rax
	jne	.L114
	addq	$40, %rsp
	.cfi_remember_state
	.cfi_def_cfa_offset 56
	xorl	%eax, %eax
	popq	%rbx
	.cfi_def_cfa_offset 48
	popq	%rbp
	.cfi_def_cfa_offset 40
	popq	%r12
	.cfi_def_cfa_offset 32
	popq	%r13
	.cfi_def_cfa_offset 24
	popq	%r14
	.cfi_def_cfa_offset 16
	popq	%r15
	.cfi_def_cfa_offset 8
	ret
.L114:
	.cfi_restore_state
	call	__stack_chk_fail@PLT
	.cfi_endproc
.LFE2385:
	.size	_ZN8opendnp318MeasurementHandler13ProcessHeaderERKNS_11RangeHeaderERKNS_11ICollectionINS_7IndexedINS_7CounterEEEEE, .-_ZN8opendnp318MeasurementHandler13ProcessHeaderERKNS_11RangeHeaderERKNS_11ICollectionINS_7IndexedINS_7CounterEEEEE
	.align 2
	.p2align 4
	.globl	_ZN8opendnp318MeasurementHandler13ProcessHeaderERKNS_11RangeHeaderERKNS_11ICollectionINS_7IndexedINS_13FrozenCounterEEEEE
	.type	_ZN8opendnp318MeasurementHandler13ProcessHeaderERKNS_11RangeHeaderERKNS_11ICollectionINS_7IndexedINS_13FrozenCounterEEEEE, @function
_ZN8opendnp318MeasurementHandler13ProcessHeaderERKNS_11RangeHeaderERKNS_11ICollectionINS_7IndexedINS_13FrozenCounterEEEEE:
.LFB2386:
	.cfi_startproc
	endbr64
	pushq	%r15
	.cfi_def_cfa_offset 16
	.cfi_offset 15, -16
	pushq	%r14
	.cfi_def_cfa_offset 24
	.cfi_offset 14, -24
	pushq	%r13
	.cfi_def_cfa_offset 32
	.cfi_offset 13, -32
	pushq	%r12
	.cfi_def_cfa_offset 40
	.cfi_offset 12, -40
	movq	%rdx, %r12
	pushq	%rbp
	.cfi_def_cfa_offset 48
	.cfi_offset 6, -48
	movq	%rdi, %rbp
	pushq	%rbx
	.cfi_def_cfa_offset 56
	.cfi_offset 3, -56
	movq	%rsi, %rbx
	subq	$40, %rsp
	.cfi_def_cfa_offset 96
	movzwl	(%rsi), %edi
	movq	%fs:40, %rax
	movq	%rax, 24(%rsp)
	xorl	%eax, %eax
	call	_ZN8opendnp318MeasurementHandler12ModeFromTypeENS_14GroupVariationE@PLT
	movq	%rbp, %rdi
	movl	%eax, %r14d
	call	_ZN8opendnp318MeasurementHandler15CheckForTxStartEv@PLT
	movq	%rbx, %rdi
	movl	12(%rbx), %r15d
	call	_ZNK8opendnp312HeaderRecord16GetQualifierCodeEv@PLT
	movzwl	(%rbx), %r13d
	movb	%r14b, 15(%rsp)
	movb	%al, 14(%rsp)
	movl	%r13d, %edi
	movw	%r13w, 12(%rsp)
	call	_ZN8opendnp37IsEventENS_14GroupVariationE@PLT
	movl	%r13d, %edi
	movb	%al, 16(%rsp)
	call	_ZN8opendnp38HasFlagsENS_14GroupVariationE@PLT
	movq	64(%rbp), %rdi
	movl	%r15d, 20(%rsp)
	movq	%r12, %rdx
	movb	%al, 17(%rsp)
	leaq	12(%rsp), %rsi
	movq	(%rdi), %rax
	call	*64(%rax)
	movq	24(%rsp), %rax
	xorq	%fs:40, %rax
	jne	.L118
	addq	$40, %rsp
	.cfi_remember_state
	.cfi_def_cfa_offset 56
	xorl	%eax, %eax
	popq	%rbx
	.cfi_def_cfa_offset 48
	popq	%rbp
	.cfi_def_cfa_offset 40
	popq	%r12
	.cfi_def_cfa_offset 32
	popq	%r13
	.cfi_def_cfa_offset 24
	popq	%r14
	.cfi_def_cfa_offset 16
	popq	%r15
	.cfi_def_cfa_offset 8
	ret
.L118:
	.cfi_restore_state
	call	__stack_chk_fail@PLT
	.cfi_endproc
.LFE2386:
	.size	_ZN8opendnp318MeasurementHandler13ProcessHeaderERKNS_11RangeHeaderERKNS_11ICollectionINS_7IndexedINS_13FrozenCounterEEEEE, .-_ZN8opendnp318MeasurementHandler13ProcessHeaderERKNS_11RangeHeaderERKNS_11ICollectionINS_7IndexedINS_13FrozenCounterEEEEE
	.align 2
	.p2align 4
	.globl	_ZN8opendnp318MeasurementHandler13ProcessHeaderERKNS_11RangeHeaderERKNS_11ICollectionINS_7IndexedINS_6AnalogEEEEE
	.type	_ZN8opendnp318MeasurementHandler13ProcessHeaderERKNS_11RangeHeaderERKNS_11ICollectionINS_7IndexedINS_6AnalogEEEEE, @function
_ZN8opendnp318MeasurementHandler13ProcessHeaderERKNS_11RangeHeaderERKNS_11ICollectionINS_7IndexedINS_6AnalogEEEEE:
.LFB2387:
	.cfi_startproc
	endbr64
	pushq	%r15
	.cfi_def_cfa_offset 16
	.cfi_offset 15, -16
	pushq	%r14
	.cfi_def_cfa_offset 24
	.cfi_offset 14, -24
	pushq	%r13
	.cfi_def_cfa_offset 32
	.cfi_offset 13, -32
	pushq	%r12
	.cfi_def_cfa_offset 40
	.cfi_offset 12, -40
	movq	%rdx, %r12
	pushq	%rbp
	.cfi_def_cfa_offset 48
	.cfi_offset 6, -48
	movq	%rdi, %rbp
	pushq	%rbx
	.cfi_def_cfa_offset 56
	.cfi_offset 3, -56
	movq	%rsi, %rbx
	subq	$40, %rsp
	.cfi_def_cfa_offset 96
	movzwl	(%rsi), %edi
	movq	%fs:40, %rax
	movq	%rax, 24(%rsp)
	xorl	%eax, %eax
	call	_ZN8opendnp318MeasurementHandler12ModeFromTypeENS_14GroupVariationE@PLT
	movq	%rbp, %rdi
	movl	%eax, %r14d
	call	_ZN8opendnp318MeasurementHandler15CheckForTxStartEv@PLT
	movq	%rbx, %rdi
	movl	12(%rbx), %r15d
	call	_ZNK8opendnp312HeaderRecord16GetQualifierCodeEv@PLT
	movzwl	(%rbx), %r13d
	movb	%r14b, 15(%rsp)
	movb	%al, 14(%rsp)
	movl	%r13d, %edi
	movw	%r13w, 12(%rsp)
	call	_ZN8opendnp37IsEventENS_14GroupVariationE@PLT
	movl	%r13d, %edi
	movb	%al, 16(%rsp)
	call	_ZN8opendnp38HasFlagsENS_14GroupVariationE@PLT
	movq	64(%rbp), %rdi
	movl	%r15d, 20(%rsp)
	movq	%r12, %rdx
	movb	%al, 17(%rsp)
	leaq	12(%rsp), %rsi
	movq	(%rdi), %rax
	call	*48(%rax)
	movq	24(%rsp), %rax
	xorq	%fs:40, %rax
	jne	.L122
	addq	$40, %rsp
	.cfi_remember_state
	.cfi_def_cfa_offset 56
	xorl	%eax, %eax
	popq	%rbx
	.cfi_def_cfa_offset 48
	popq	%rbp
	.cfi_def_cfa_offset 40
	popq	%r12
	.cfi_def_cfa_offset 32
	popq	%r13
	.cfi_def_cfa_offset 24
	popq	%r14
	.cfi_def_cfa_offset 16
	popq	%r15
	.cfi_def_cfa_offset 8
	ret
.L122:
	.cfi_restore_state
	call	__stack_chk_fail@PLT
	.cfi_endproc
.LFE2387:
	.size	_ZN8opendnp318MeasurementHandler13ProcessHeaderERKNS_11RangeHeaderERKNS_11ICollectionINS_7IndexedINS_6AnalogEEEEE, .-_ZN8opendnp318MeasurementHandler13ProcessHeaderERKNS_11RangeHeaderERKNS_11ICollectionINS_7IndexedINS_6AnalogEEEEE
	.align 2
	.p2align 4
	.globl	_ZN8opendnp318MeasurementHandler13ProcessHeaderERKNS_11RangeHeaderERKNS_11ICollectionINS_7IndexedINS_18AnalogOutputStatusEEEEE
	.type	_ZN8opendnp318MeasurementHandler13ProcessHeaderERKNS_11RangeHeaderERKNS_11ICollectionINS_7IndexedINS_18AnalogOutputStatusEEEEE, @function
_ZN8opendnp318MeasurementHandler13ProcessHeaderERKNS_11RangeHeaderERKNS_11ICollectionINS_7IndexedINS_18AnalogOutputStatusEEEEE:
.LFB2388:
	.cfi_startproc
	endbr64
	pushq	%r15
	.cfi_def_cfa_offset 16
	.cfi_offset 15, -16
	pushq	%r14
	.cfi_def_cfa_offset 24
	.cfi_offset 14, -24
	pushq	%r13
	.cfi_def_cfa_offset 32
	.cfi_offset 13, -32
	pushq	%r12
	.cfi_def_cfa_offset 40
	.cfi_offset 12, -40
	movq	%rdx, %r12
	pushq	%rbp
	.cfi_def_cfa_offset 48
	.cfi_offset 6, -48
	movq	%rdi, %rbp
	pushq	%rbx
	.cfi_def_cfa_offset 56
	.cfi_offset 3, -56
	movq	%rsi, %rbx
	subq	$40, %rsp
	.cfi_def_cfa_offset 96
	movzwl	(%rsi), %edi
	movq	%fs:40, %rax
	movq	%rax, 24(%rsp)
	xorl	%eax, %eax
	call	_ZN8opendnp318MeasurementHandler12ModeFromTypeENS_14GroupVariationE@PLT
	movq	%rbp, %rdi
	movl	%eax, %r14d
	call	_ZN8opendnp318MeasurementHandler15CheckForTxStartEv@PLT
	movq	%rbx, %rdi
	movl	12(%rbx), %r15d
	call	_ZNK8opendnp312HeaderRecord16GetQualifierCodeEv@PLT
	movzwl	(%rbx), %r13d
	movb	%r14b, 15(%rsp)
	movb	%al, 14(%rsp)
	movl	%r13d, %edi
	movw	%r13w, 12(%rsp)
	call	_ZN8opendnp37IsEventENS_14GroupVariationE@PLT
	movl	%r13d, %edi
	movb	%al, 16(%rsp)
	call	_ZN8opendnp38HasFlagsENS_14GroupVariationE@PLT
	movq	64(%rbp), %rdi
	movl	%r15d, 20(%rsp)
	movq	%r12, %rdx
	movb	%al, 17(%rsp)
	leaq	12(%rsp), %rsi
	movq	(%rdi), %rax
	call	*80(%rax)
	movq	24(%rsp), %rax
	xorq	%fs:40, %rax
	jne	.L126
	addq	$40, %rsp
	.cfi_remember_state
	.cfi_def_cfa_offset 56
	xorl	%eax, %eax
	popq	%rbx
	.cfi_def_cfa_offset 48
	popq	%rbp
	.cfi_def_cfa_offset 40
	popq	%r12
	.cfi_def_cfa_offset 32
	popq	%r13
	.cfi_def_cfa_offset 24
	popq	%r14
	.cfi_def_cfa_offset 16
	popq	%r15
	.cfi_def_cfa_offset 8
	ret
.L126:
	.cfi_restore_state
	call	__stack_chk_fail@PLT
	.cfi_endproc
.LFE2388:
	.size	_ZN8opendnp318MeasurementHandler13ProcessHeaderERKNS_11RangeHeaderERKNS_11ICollectionINS_7IndexedINS_18AnalogOutputStatusEEEEE, .-_ZN8opendnp318MeasurementHandler13ProcessHeaderERKNS_11RangeHeaderERKNS_11ICollectionINS_7IndexedINS_18AnalogOutputStatusEEEEE
	.align 2
	.p2align 4
	.globl	_ZN8opendnp318MeasurementHandler13ProcessHeaderERKNS_11RangeHeaderERKNS_11ICollectionINS_7IndexedINS_11OctetStringEEEEE
	.type	_ZN8opendnp318MeasurementHandler13ProcessHeaderERKNS_11RangeHeaderERKNS_11ICollectionINS_7IndexedINS_11OctetStringEEEEE, @function
_ZN8opendnp318MeasurementHandler13ProcessHeaderERKNS_11RangeHeaderERKNS_11ICollectionINS_7IndexedINS_11OctetStringEEEEE:
.LFB2389:
	.cfi_startproc
	endbr64
	pushq	%r15
	.cfi_def_cfa_offset 16
	.cfi_offset 15, -16
	pushq	%r14
	.cfi_def_cfa_offset 24
	.cfi_offset 14, -24
	pushq	%r13
	.cfi_def_cfa_offset 32
	.cfi_offset 13, -32
	pushq	%r12
	.cfi_def_cfa_offset 40
	.cfi_offset 12, -40
	movq	%rdx, %r12
	pushq	%rbp
	.cfi_def_cfa_offset 48
	.cfi_offset 6, -48
	movq	%rdi, %rbp
	pushq	%rbx
	.cfi_def_cfa_offset 56
	.cfi_offset 3, -56
	movq	%rsi, %rbx
	subq	$40, %rsp
	.cfi_def_cfa_offset 96
	movzwl	(%rsi), %edi
	movq	%fs:40, %rax
	movq	%rax, 24(%rsp)
	xorl	%eax, %eax
	call	_ZN8opendnp318MeasurementHandler12ModeFromTypeENS_14GroupVariationE@PLT
	movq	%rbp, %rdi
	movl	%eax, %r14d
	call	_ZN8opendnp318MeasurementHandler15CheckForTxStartEv@PLT
	movq	%rbx, %rdi
	movl	12(%rbx), %r15d
	call	_ZNK8opendnp312HeaderRecord16GetQualifierCodeEv@PLT
	movzwl	(%rbx), %r13d
	movb	%r14b, 15(%rsp)
	movb	%al, 14(%rsp)
	movl	%r13d, %edi
	movw	%r13w, 12(%rsp)
	call	_ZN8opendnp37IsEventENS_14GroupVariationE@PLT
	movl	%r13d, %edi
	movb	%al, 16(%rsp)
	call	_ZN8opendnp38HasFlagsENS_14GroupVariationE@PLT
	movq	64(%rbp), %rdi
	movl	%r15d, 20(%rsp)
	movq	%r12, %rdx
	movb	%al, 17(%rsp)
	leaq	12(%rsp), %rsi
	movq	(%rdi), %rax
	call	*88(%rax)
	movq	24(%rsp), %rax
	xorq	%fs:40, %rax
	jne	.L130
	addq	$40, %rsp
	.cfi_remember_state
	.cfi_def_cfa_offset 56
	xorl	%eax, %eax
	popq	%rbx
	.cfi_def_cfa_offset 48
	popq	%rbp
	.cfi_def_cfa_offset 40
	popq	%r12
	.cfi_def_cfa_offset 32
	popq	%r13
	.cfi_def_cfa_offset 24
	popq	%r14
	.cfi_def_cfa_offset 16
	popq	%r15
	.cfi_def_cfa_offset 8
	ret
.L130:
	.cfi_restore_state
	call	__stack_chk_fail@PLT
	.cfi_endproc
.LFE2389:
	.size	_ZN8opendnp318MeasurementHandler13ProcessHeaderERKNS_11RangeHeaderERKNS_11ICollectionINS_7IndexedINS_11OctetStringEEEEE, .-_ZN8opendnp318MeasurementHandler13ProcessHeaderERKNS_11RangeHeaderERKNS_11ICollectionINS_7IndexedINS_11OctetStringEEEEE
	.align 2
	.p2align 4
	.globl	_ZN8opendnp318MeasurementHandler13ProcessHeaderERKNS_11RangeHeaderERKNS_11ICollectionINS_7IndexedINS_15TimeAndIntervalEEEEE
	.type	_ZN8opendnp318MeasurementHandler13ProcessHeaderERKNS_11RangeHeaderERKNS_11ICollectionINS_7IndexedINS_15TimeAndIntervalEEEEE, @function
_ZN8opendnp318MeasurementHandler13ProcessHeaderERKNS_11RangeHeaderERKNS_11ICollectionINS_7IndexedINS_15TimeAndIntervalEEEEE:
.LFB2390:
	.cfi_startproc
	endbr64
	pushq	%r15
	.cfi_def_cfa_offset 16
	.cfi_offset 15, -16
	pushq	%r14
	.cfi_def_cfa_offset 24
	.cfi_offset 14, -24
	pushq	%r13
	.cfi_def_cfa_offset 32
	.cfi_offset 13, -32
	pushq	%r12
	.cfi_def_cfa_offset 40
	.cfi_offset 12, -40
	movq	%rdx, %r12
	pushq	%rbp
	.cfi_def_cfa_offset 48
	.cfi_offset 6, -48
	movq	%rdi, %rbp
	pushq	%rbx
	.cfi_def_cfa_offset 56
	.cfi_offset 3, -56
	movq	%rsi, %rbx
	subq	$40, %rsp
	.cfi_def_cfa_offset 96
	movzwl	(%rsi), %edi
	movq	%fs:40, %rax
	movq	%rax, 24(%rsp)
	xorl	%eax, %eax
	call	_ZN8opendnp318MeasurementHandler12ModeFromTypeENS_14GroupVariationE@PLT
	movq	%rbp, %rdi
	movl	%eax, %r14d
	call	_ZN8opendnp318MeasurementHandler15CheckForTxStartEv@PLT
	movq	%rbx, %rdi
	movl	12(%rbx), %r15d
	call	_ZNK8opendnp312HeaderRecord16GetQualifierCodeEv@PLT
	movzwl	(%rbx), %r13d
	movb	%r14b, 15(%rsp)
	movb	%al, 14(%rsp)
	movl	%r13d, %edi
	movw	%r13w, 12(%rsp)
	call	_ZN8opendnp37IsEventENS_14GroupVariationE@PLT
	movl	%r13d, %edi
	movb	%al, 16(%rsp)
	call	_ZN8opendnp38HasFlagsENS_14GroupVariationE@PLT
	movq	64(%rbp), %rdi
	movl	%r15d, 20(%rsp)
	movq	%r12, %rdx
	movb	%al, 17(%rsp)
	leaq	12(%rsp), %rsi
	movq	(%rdi), %rax
	call	*96(%rax)
	movq	24(%rsp), %rax
	xorq	%fs:40, %rax
	jne	.L134
	addq	$40, %rsp
	.cfi_remember_state
	.cfi_def_cfa_offset 56
	xorl	%eax, %eax
	popq	%rbx
	.cfi_def_cfa_offset 48
	popq	%rbp
	.cfi_def_cfa_offset 40
	popq	%r12
	.cfi_def_cfa_offset 32
	popq	%r13
	.cfi_def_cfa_offset 24
	popq	%r14
	.cfi_def_cfa_offset 16
	popq	%r15
	.cfi_def_cfa_offset 8
	ret
.L134:
	.cfi_restore_state
	call	__stack_chk_fail@PLT
	.cfi_endproc
.LFE2390:
	.size	_ZN8opendnp318MeasurementHandler13ProcessHeaderERKNS_11RangeHeaderERKNS_11ICollectionINS_7IndexedINS_15TimeAndIntervalEEEEE, .-_ZN8opendnp318MeasurementHandler13ProcessHeaderERKNS_11RangeHeaderERKNS_11ICollectionINS_7IndexedINS_15TimeAndIntervalEEEEE
	.align 2
	.p2align 4
	.globl	_ZN8opendnp318MeasurementHandler13ProcessHeaderERKNS_12PrefixHeaderERKNS_11ICollectionINS_7IndexedINS_18BinaryCommandEventEEEEE
	.type	_ZN8opendnp318MeasurementHandler13ProcessHeaderERKNS_12PrefixHeaderERKNS_11ICollectionINS_7IndexedINS_18BinaryCommandEventEEEEE, @function
_ZN8opendnp318MeasurementHandler13ProcessHeaderERKNS_12PrefixHeaderERKNS_11ICollectionINS_7IndexedINS_18BinaryCommandEventEEEEE:
.LFB2400:
	.cfi_startproc
	endbr64
	pushq	%r15
	.cfi_def_cfa_offset 16
	.cfi_offset 15, -16
	pushq	%r14
	.cfi_def_cfa_offset 24
	.cfi_offset 14, -24
	pushq	%r13
	.cfi_def_cfa_offset 32
	.cfi_offset 13, -32
	pushq	%r12
	.cfi_def_cfa_offset 40
	.cfi_offset 12, -40
	movq	%rdx, %r12
	pushq	%rbp
	.cfi_def_cfa_offset 48
	.cfi_offset 6, -48
	movq	%rdi, %rbp
	pushq	%rbx
	.cfi_def_cfa_offset 56
	.cfi_offset 3, -56
	movq	%rsi, %rbx
	subq	$40, %rsp
	.cfi_def_cfa_offset 96
	movzwl	(%rsi), %edi
	movq	%fs:40, %rax
	movq	%rax, 24(%rsp)
	xorl	%eax, %eax
	call	_ZN8opendnp318MeasurementHandler12ModeFromTypeENS_14GroupVariationE@PLT
	movq	%rbp, %rdi
	movl	%eax, %r14d
	call	_ZN8opendnp318MeasurementHandler15CheckForTxStartEv@PLT
	movq	%rbx, %rdi
	movl	12(%rbx), %r15d
	call	_ZNK8opendnp312HeaderRecord16GetQualifierCodeEv@PLT
	movzwl	(%rbx), %r13d
	movb	%r14b, 15(%rsp)
	movb	%al, 14(%rsp)
	movl	%r13d, %edi
	movw	%r13w, 12(%rsp)
	call	_ZN8opendnp37IsEventENS_14GroupVariationE@PLT
	movl	%r13d, %edi
	movb	%al, 16(%rsp)
	call	_ZN8opendnp38HasFlagsENS_14GroupVariationE@PLT
	movq	64(%rbp), %rdi
	movl	%r15d, 20(%rsp)
	movq	%r12, %rdx
	movb	%al, 17(%rsp)
	leaq	12(%rsp), %rsi
	movq	(%rdi), %rax
	call	*104(%rax)
	movq	24(%rsp), %rax
	xorq	%fs:40, %rax
	jne	.L138
	addq	$40, %rsp
	.cfi_remember_state
	.cfi_def_cfa_offset 56
	xorl	%eax, %eax
	popq	%rbx
	.cfi_def_cfa_offset 48
	popq	%rbp
	.cfi_def_cfa_offset 40
	popq	%r12
	.cfi_def_cfa_offset 32
	popq	%r13
	.cfi_def_cfa_offset 24
	popq	%r14
	.cfi_def_cfa_offset 16
	popq	%r15
	.cfi_def_cfa_offset 8
	ret
.L138:
	.cfi_restore_state
	call	__stack_chk_fail@PLT
	.cfi_endproc
.LFE2400:
	.size	_ZN8opendnp318MeasurementHandler13ProcessHeaderERKNS_12PrefixHeaderERKNS_11ICollectionINS_7IndexedINS_18BinaryCommandEventEEEEE, .-_ZN8opendnp318MeasurementHandler13ProcessHeaderERKNS_12PrefixHeaderERKNS_11ICollectionINS_7IndexedINS_18BinaryCommandEventEEEEE
	.align 2
	.p2align 4
	.globl	_ZN8opendnp318MeasurementHandler13ProcessHeaderERKNS_12PrefixHeaderERKNS_11ICollectionINS_7IndexedINS_18AnalogCommandEventEEEEE
	.type	_ZN8opendnp318MeasurementHandler13ProcessHeaderERKNS_12PrefixHeaderERKNS_11ICollectionINS_7IndexedINS_18AnalogCommandEventEEEEE, @function
_ZN8opendnp318MeasurementHandler13ProcessHeaderERKNS_12PrefixHeaderERKNS_11ICollectionINS_7IndexedINS_18AnalogCommandEventEEEEE:
.LFB2401:
	.cfi_startproc
	endbr64
	pushq	%r15
	.cfi_def_cfa_offset 16
	.cfi_offset 15, -16
	pushq	%r14
	.cfi_def_cfa_offset 24
	.cfi_offset 14, -24
	pushq	%r13
	.cfi_def_cfa_offset 32
	.cfi_offset 13, -32
	pushq	%r12
	.cfi_def_cfa_offset 40
	.cfi_offset 12, -40
	movq	%rdx, %r12
	pushq	%rbp
	.cfi_def_cfa_offset 48
	.cfi_offset 6, -48
	movq	%rdi, %rbp
	pushq	%rbx
	.cfi_def_cfa_offset 56
	.cfi_offset 3, -56
	movq	%rsi, %rbx
	subq	$40, %rsp
	.cfi_def_cfa_offset 96
	movzwl	(%rsi), %edi
	movq	%fs:40, %rax
	movq	%rax, 24(%rsp)
	xorl	%eax, %eax
	call	_ZN8opendnp318MeasurementHandler12ModeFromTypeENS_14GroupVariationE@PLT
	movq	%rbp, %rdi
	movl	%eax, %r14d
	call	_ZN8opendnp318MeasurementHandler15CheckForTxStartEv@PLT
	movq	%rbx, %rdi
	movl	12(%rbx), %r15d
	call	_ZNK8opendnp312HeaderRecord16GetQualifierCodeEv@PLT
	movzwl	(%rbx), %r13d
	movb	%r14b, 15(%rsp)
	movb	%al, 14(%rsp)
	movl	%r13d, %edi
	movw	%r13w, 12(%rsp)
	call	_ZN8opendnp37IsEventENS_14GroupVariationE@PLT
	movl	%r13d, %edi
	movb	%al, 16(%rsp)
	call	_ZN8opendnp38HasFlagsENS_14GroupVariationE@PLT
	movq	64(%rbp), %rdi
	movl	%r15d, 20(%rsp)
	movq	%r12, %rdx
	movb	%al, 17(%rsp)
	leaq	12(%rsp), %rsi
	movq	(%rdi), %rax
	call	*112(%rax)
	movq	24(%rsp), %rax
	xorq	%fs:40, %rax
	jne	.L142
	addq	$40, %rsp
	.cfi_remember_state
	.cfi_def_cfa_offset 56
	xorl	%eax, %eax
	popq	%rbx
	.cfi_def_cfa_offset 48
	popq	%rbp
	.cfi_def_cfa_offset 40
	popq	%r12
	.cfi_def_cfa_offset 32
	popq	%r13
	.cfi_def_cfa_offset 24
	popq	%r14
	.cfi_def_cfa_offset 16
	popq	%r15
	.cfi_def_cfa_offset 8
	ret
.L142:
	.cfi_restore_state
	call	__stack_chk_fail@PLT
	.cfi_endproc
.LFE2401:
	.size	_ZN8opendnp318MeasurementHandler13ProcessHeaderERKNS_12PrefixHeaderERKNS_11ICollectionINS_7IndexedINS_18AnalogCommandEventEEEEE, .-_ZN8opendnp318MeasurementHandler13ProcessHeaderERKNS_12PrefixHeaderERKNS_11ICollectionINS_7IndexedINS_18AnalogCommandEventEEEEE
	.align 2
	.p2align 4
	.globl	_ZN8opendnp318MeasurementHandler13ProcessHeaderERKNS_11CountHeaderERKNS_11ICollectionINS_11Group50Var1EEE
	.type	_ZN8opendnp318MeasurementHandler13ProcessHeaderERKNS_11CountHeaderERKNS_11ICollectionINS_11Group50Var1EEE, @function
_ZN8opendnp318MeasurementHandler13ProcessHeaderERKNS_11CountHeaderERKNS_11ICollectionINS_11Group50Var1EEE:
.LFB2370:
	.cfi_startproc
	endbr64
	pushq	%r13
	.cfi_def_cfa_offset 16
	.cfi_offset 13, -16
	pushq	%r12
	.cfi_def_cfa_offset 24
	.cfi_offset 12, -24
	movq	%rdx, %r12
	pushq	%rbp
	.cfi_def_cfa_offset 32
	.cfi_offset 6, -32
	movq	%rdi, %rbp
	pushq	%rbx
	.cfi_def_cfa_offset 40
	.cfi_offset 3, -40
	movq	%rsi, %rbx
	subq	$56, %rsp
	.cfi_def_cfa_offset 96
	movq	%fs:40, %rax
	movq	%rax, 40(%rsp)
	xorl	%eax, %eax
	call	_ZN8opendnp318MeasurementHandler15CheckForTxStartEv@PLT
	leaq	16+_ZTVN8opendnp321TransformedCollectionINS_11Group50Var1EN7openpal10UInt48TypeEZNS_18MeasurementHandler13ProcessHeaderERKNS_11CountHeaderERKNS_11ICollectionIS1_EEEUlRKS1_E_EE(%rip), %rax
	movq	%rbx, %rdi
	movl	12(%rbx), %r13d
	movq	%r12, 24(%rsp)
	movq	%rax, 16(%rsp)
	call	_ZNK8opendnp312HeaderRecord16GetQualifierCodeEv@PLT
	movzwl	(%rbx), %r12d
	movb	$0, 7(%rsp)
	movb	%al, 6(%rsp)
	movl	%r12d, %edi
	movw	%r12w, 4(%rsp)
	call	_ZN8opendnp37IsEventENS_14GroupVariationE@PLT
	movl	%r12d, %edi
	movb	%al, 8(%rsp)
	call	_ZN8opendnp38HasFlagsENS_14GroupVariationE@PLT
	movq	64(%rbp), %rdi
	movl	%r13d, 12(%rsp)
	leaq	16(%rsp), %rdx
	movb	%al, 9(%rsp)
	leaq	4(%rsp), %rsi
	movq	(%rdi), %rax
	call	*128(%rax)
	movq	40(%rsp), %rax
	xorq	%fs:40, %rax
	jne	.L146
	addq	$56, %rsp
	.cfi_remember_state
	.cfi_def_cfa_offset 40
	xorl	%eax, %eax
	popq	%rbx
	.cfi_def_cfa_offset 32
	popq	%rbp
	.cfi_def_cfa_offset 24
	popq	%r12
	.cfi_def_cfa_offset 16
	popq	%r13
	.cfi_def_cfa_offset 8
	ret
.L146:
	.cfi_restore_state
	call	__stack_chk_fail@PLT
	.cfi_endproc
.LFE2370:
	.size	_ZN8opendnp318MeasurementHandler13ProcessHeaderERKNS_11CountHeaderERKNS_11ICollectionINS_11Group50Var1EEE, .-_ZN8opendnp318MeasurementHandler13ProcessHeaderERKNS_11CountHeaderERKNS_11ICollectionINS_11Group50Var1EEE
	.align 2
	.p2align 4
	.globl	_ZN8opendnp318MeasurementHandler13ProcessHeaderERKNS_12PrefixHeaderERKNS_11ICollectionINS_7IndexedINS_12Group122Var1EEEEE
	.type	_ZN8opendnp318MeasurementHandler13ProcessHeaderERKNS_12PrefixHeaderERKNS_11ICollectionINS_7IndexedINS_12Group122Var1EEEEE, @function
_ZN8opendnp318MeasurementHandler13ProcessHeaderERKNS_12PrefixHeaderERKNS_11ICollectionINS_7IndexedINS_12Group122Var1EEEEE:
.LFB2402:
	.cfi_startproc
	endbr64
	pushq	%r14
	.cfi_def_cfa_offset 16
	.cfi_offset 14, -16
	pushq	%r13
	.cfi_def_cfa_offset 24
	.cfi_offset 13, -24
	pushq	%r12
	.cfi_def_cfa_offset 32
	.cfi_offset 12, -32
	pushq	%rbp
	.cfi_def_cfa_offset 40
	.cfi_offset 6, -40
	movq	%rdi, %rbp
	pushq	%rbx
	.cfi_def_cfa_offset 48
	.cfi_offset 3, -48
	movq	%rsi, %rbx
	subq	$48, %rsp
	.cfi_def_cfa_offset 96
	movzwl	(%rsi), %edi
	movq	%fs:40, %rax
	movq	%rax, 40(%rsp)
	xorl	%eax, %eax
	movq	_ZTVN8opendnp321TransformedCollectionINS_7IndexedINS_12Group122Var1EEENS1_INS_12SecurityStatEEEZNS_18MeasurementHandler25LoadValuesWithTransformToIS4_S2_EENS_8IINFieldERKNS_12HeaderRecordERKNS_11ICollectionINS1_IT0_EEEEEUlRKS3_E_EE@GOTPCREL(%rip), %rax
	movq	%rdx, 24(%rsp)
	addq	$16, %rax
	movq	%rax, 16(%rsp)
	call	_ZN8opendnp318MeasurementHandler12ModeFromTypeENS_14GroupVariationE@PLT
	movq	%rbp, %rdi
	movl	%eax, %r13d
	call	_ZN8opendnp318MeasurementHandler15CheckForTxStartEv@PLT
	movq	%rbx, %rdi
	movl	12(%rbx), %r14d
	call	_ZNK8opendnp312HeaderRecord16GetQualifierCodeEv@PLT
	movzwl	(%rbx), %r12d
	movb	%r13b, 7(%rsp)
	movb	%al, 6(%rsp)
	movl	%r12d, %edi
	movw	%r12w, 4(%rsp)
	call	_ZN8opendnp37IsEventENS_14GroupVariationE@PLT
	movl	%r12d, %edi
	movb	%al, 8(%rsp)
	call	_ZN8opendnp38HasFlagsENS_14GroupVariationE@PLT
	movq	64(%rbp), %rdi
	movl	%r14d, 12(%rsp)
	leaq	16(%rsp), %rdx
	movb	%al, 9(%rsp)
	leaq	4(%rsp), %rsi
	movq	(%rdi), %rax
	call	*120(%rax)
	movq	40(%rsp), %rax
	xorq	%fs:40, %rax
	jne	.L150
	addq	$48, %rsp
	.cfi_remember_state
	.cfi_def_cfa_offset 48
	xorl	%eax, %eax
	popq	%rbx
	.cfi_def_cfa_offset 40
	popq	%rbp
	.cfi_def_cfa_offset 32
	popq	%r12
	.cfi_def_cfa_offset 24
	popq	%r13
	.cfi_def_cfa_offset 16
	popq	%r14
	.cfi_def_cfa_offset 8
	ret
.L150:
	.cfi_restore_state
	call	__stack_chk_fail@PLT
	.cfi_endproc
.LFE2402:
	.size	_ZN8opendnp318MeasurementHandler13ProcessHeaderERKNS_12PrefixHeaderERKNS_11ICollectionINS_7IndexedINS_12Group122Var1EEEEE, .-_ZN8opendnp318MeasurementHandler13ProcessHeaderERKNS_12PrefixHeaderERKNS_11ICollectionINS_7IndexedINS_12Group122Var1EEEEE
	.align 2
	.p2align 4
	.globl	_ZN8opendnp318MeasurementHandler13ProcessHeaderERKNS_12PrefixHeaderERKNS_11ICollectionINS_7IndexedINS_18BinaryOutputStatusEEEEE
	.type	_ZN8opendnp318MeasurementHandler13ProcessHeaderERKNS_12PrefixHeaderERKNS_11ICollectionINS_7IndexedINS_18BinaryOutputStatusEEEEE, @function
_ZN8opendnp318MeasurementHandler13ProcessHeaderERKNS_12PrefixHeaderERKNS_11ICollectionINS_7IndexedINS_18BinaryOutputStatusEEEEE:
.LFB2393:
	.cfi_startproc
	endbr64
	pushq	%r15
	.cfi_def_cfa_offset 16
	.cfi_offset 15, -16
	pushq	%r14
	.cfi_def_cfa_offset 24
	.cfi_offset 14, -24
	pushq	%r13
	.cfi_def_cfa_offset 32
	.cfi_offset 13, -32
	pushq	%r12
	.cfi_def_cfa_offset 40
	.cfi_offset 12, -40
	movq	%rdx, %r12
	pushq	%rbp
	.cfi_def_cfa_offset 48
	.cfi_offset 6, -48
	movq	%rdi, %rbp
	pushq	%rbx
	.cfi_def_cfa_offset 56
	.cfi_offset 3, -56
	movq	%rsi, %rbx
	subq	$40, %rsp
	.cfi_def_cfa_offset 96
	movzwl	(%rsi), %edi
	movq	%fs:40, %rax
	movq	%rax, 24(%rsp)
	xorl	%eax, %eax
	call	_ZN8opendnp318MeasurementHandler12ModeFromTypeENS_14GroupVariationE@PLT
	movq	%rbp, %rdi
	movl	%eax, %r14d
	call	_ZN8opendnp318MeasurementHandler15CheckForTxStartEv@PLT
	movq	%rbx, %rdi
	movl	12(%rbx), %r15d
	call	_ZNK8opendnp312HeaderRecord16GetQualifierCodeEv@PLT
	movzwl	(%rbx), %r13d
	movb	%r14b, 15(%rsp)
	movb	%al, 14(%rsp)
	movl	%r13d, %edi
	movw	%r13w, 12(%rsp)
	call	_ZN8opendnp37IsEventENS_14GroupVariationE@PLT
	movl	%r13d, %edi
	movb	%al, 16(%rsp)
	call	_ZN8opendnp38HasFlagsENS_14GroupVariationE@PLT
	movq	64(%rbp), %rdi
	movl	%r15d, 20(%rsp)
	movq	%r12, %rdx
	movb	%al, 17(%rsp)
	leaq	12(%rsp), %rsi
	movq	(%rdi), %rax
	call	*72(%rax)
	movq	24(%rsp), %rax
	xorq	%fs:40, %rax
	jne	.L154
	addq	$40, %rsp
	.cfi_remember_state
	.cfi_def_cfa_offset 56
	xorl	%eax, %eax
	popq	%rbx
	.cfi_def_cfa_offset 48
	popq	%rbp
	.cfi_def_cfa_offset 40
	popq	%r12
	.cfi_def_cfa_offset 32
	popq	%r13
	.cfi_def_cfa_offset 24
	popq	%r14
	.cfi_def_cfa_offset 16
	popq	%r15
	.cfi_def_cfa_offset 8
	ret
.L154:
	.cfi_restore_state
	call	__stack_chk_fail@PLT
	.cfi_endproc
.LFE2393:
	.size	_ZN8opendnp318MeasurementHandler13ProcessHeaderERKNS_12PrefixHeaderERKNS_11ICollectionINS_7IndexedINS_18BinaryOutputStatusEEEEE, .-_ZN8opendnp318MeasurementHandler13ProcessHeaderERKNS_12PrefixHeaderERKNS_11ICollectionINS_7IndexedINS_18BinaryOutputStatusEEEEE
	.align 2
	.p2align 4
	.globl	_ZN8opendnp318MeasurementHandler13ProcessHeaderERKNS_12PrefixHeaderERKNS_11ICollectionINS_7IndexedINS_7CounterEEEEE
	.type	_ZN8opendnp318MeasurementHandler13ProcessHeaderERKNS_12PrefixHeaderERKNS_11ICollectionINS_7IndexedINS_7CounterEEEEE, @function
_ZN8opendnp318MeasurementHandler13ProcessHeaderERKNS_12PrefixHeaderERKNS_11ICollectionINS_7IndexedINS_7CounterEEEEE:
.LFB2395:
	.cfi_startproc
	endbr64
	pushq	%r15
	.cfi_def_cfa_offset 16
	.cfi_offset 15, -16
	pushq	%r14
	.cfi_def_cfa_offset 24
	.cfi_offset 14, -24
	pushq	%r13
	.cfi_def_cfa_offset 32
	.cfi_offset 13, -32
	pushq	%r12
	.cfi_def_cfa_offset 40
	.cfi_offset 12, -40
	movq	%rdx, %r12
	pushq	%rbp
	.cfi_def_cfa_offset 48
	.cfi_offset 6, -48
	movq	%rdi, %rbp
	pushq	%rbx
	.cfi_def_cfa_offset 56
	.cfi_offset 3, -56
	movq	%rsi, %rbx
	subq	$40, %rsp
	.cfi_def_cfa_offset 96
	movzwl	(%rsi), %edi
	movq	%fs:40, %rax
	movq	%rax, 24(%rsp)
	xorl	%eax, %eax
	call	_ZN8opendnp318MeasurementHandler12ModeFromTypeENS_14GroupVariationE@PLT
	movq	%rbp, %rdi
	movl	%eax, %r14d
	call	_ZN8opendnp318MeasurementHandler15CheckForTxStartEv@PLT
	movq	%rbx, %rdi
	movl	12(%rbx), %r15d
	call	_ZNK8opendnp312HeaderRecord16GetQualifierCodeEv@PLT
	movzwl	(%rbx), %r13d
	movb	%r14b, 15(%rsp)
	movb	%al, 14(%rsp)
	movl	%r13d, %edi
	movw	%r13w, 12(%rsp)
	call	_ZN8opendnp37IsEventENS_14GroupVariationE@PLT
	movl	%r13d, %edi
	movb	%al, 16(%rsp)
	call	_ZN8opendnp38HasFlagsENS_14GroupVariationE@PLT
	movq	64(%rbp), %rdi
	movl	%r15d, 20(%rsp)
	movq	%r12, %rdx
	movb	%al, 17(%rsp)
	leaq	12(%rsp), %rsi
	movq	(%rdi), %rax
	call	*56(%rax)
	movq	24(%rsp), %rax
	xorq	%fs:40, %rax
	jne	.L158
	addq	$40, %rsp
	.cfi_remember_state
	.cfi_def_cfa_offset 56
	xorl	%eax, %eax
	popq	%rbx
	.cfi_def_cfa_offset 48
	popq	%rbp
	.cfi_def_cfa_offset 40
	popq	%r12
	.cfi_def_cfa_offset 32
	popq	%r13
	.cfi_def_cfa_offset 24
	popq	%r14
	.cfi_def_cfa_offset 16
	popq	%r15
	.cfi_def_cfa_offset 8
	ret
.L158:
	.cfi_restore_state
	call	__stack_chk_fail@PLT
	.cfi_endproc
.LFE2395:
	.size	_ZN8opendnp318MeasurementHandler13ProcessHeaderERKNS_12PrefixHeaderERKNS_11ICollectionINS_7IndexedINS_7CounterEEEEE, .-_ZN8opendnp318MeasurementHandler13ProcessHeaderERKNS_12PrefixHeaderERKNS_11ICollectionINS_7IndexedINS_7CounterEEEEE
	.align 2
	.p2align 4
	.globl	_ZN8opendnp318MeasurementHandler13ProcessHeaderERKNS_12PrefixHeaderERKNS_11ICollectionINS_7IndexedINS_13FrozenCounterEEEEE
	.type	_ZN8opendnp318MeasurementHandler13ProcessHeaderERKNS_12PrefixHeaderERKNS_11ICollectionINS_7IndexedINS_13FrozenCounterEEEEE, @function
_ZN8opendnp318MeasurementHandler13ProcessHeaderERKNS_12PrefixHeaderERKNS_11ICollectionINS_7IndexedINS_13FrozenCounterEEEEE:
.LFB2396:
	.cfi_startproc
	endbr64
	pushq	%r15
	.cfi_def_cfa_offset 16
	.cfi_offset 15, -16
	pushq	%r14
	.cfi_def_cfa_offset 24
	.cfi_offset 14, -24
	pushq	%r13
	.cfi_def_cfa_offset 32
	.cfi_offset 13, -32
	pushq	%r12
	.cfi_def_cfa_offset 40
	.cfi_offset 12, -40
	movq	%rdx, %r12
	pushq	%rbp
	.cfi_def_cfa_offset 48
	.cfi_offset 6, -48
	movq	%rdi, %rbp
	pushq	%rbx
	.cfi_def_cfa_offset 56
	.cfi_offset 3, -56
	movq	%rsi, %rbx
	subq	$40, %rsp
	.cfi_def_cfa_offset 96
	movzwl	(%rsi), %edi
	movq	%fs:40, %rax
	movq	%rax, 24(%rsp)
	xorl	%eax, %eax
	call	_ZN8opendnp318MeasurementHandler12ModeFromTypeENS_14GroupVariationE@PLT
	movq	%rbp, %rdi
	movl	%eax, %r14d
	call	_ZN8opendnp318MeasurementHandler15CheckForTxStartEv@PLT
	movq	%rbx, %rdi
	movl	12(%rbx), %r15d
	call	_ZNK8opendnp312HeaderRecord16GetQualifierCodeEv@PLT
	movzwl	(%rbx), %r13d
	movb	%r14b, 15(%rsp)
	movb	%al, 14(%rsp)
	movl	%r13d, %edi
	movw	%r13w, 12(%rsp)
	call	_ZN8opendnp37IsEventENS_14GroupVariationE@PLT
	movl	%r13d, %edi
	movb	%al, 16(%rsp)
	call	_ZN8opendnp38HasFlagsENS_14GroupVariationE@PLT
	movq	64(%rbp), %rdi
	movl	%r15d, 20(%rsp)
	movq	%r12, %rdx
	movb	%al, 17(%rsp)
	leaq	12(%rsp), %rsi
	movq	(%rdi), %rax
	call	*64(%rax)
	movq	24(%rsp), %rax
	xorq	%fs:40, %rax
	jne	.L162
	addq	$40, %rsp
	.cfi_remember_state
	.cfi_def_cfa_offset 56
	xorl	%eax, %eax
	popq	%rbx
	.cfi_def_cfa_offset 48
	popq	%rbp
	.cfi_def_cfa_offset 40
	popq	%r12
	.cfi_def_cfa_offset 32
	popq	%r13
	.cfi_def_cfa_offset 24
	popq	%r14
	.cfi_def_cfa_offset 16
	popq	%r15
	.cfi_def_cfa_offset 8
	ret
.L162:
	.cfi_restore_state
	call	__stack_chk_fail@PLT
	.cfi_endproc
.LFE2396:
	.size	_ZN8opendnp318MeasurementHandler13ProcessHeaderERKNS_12PrefixHeaderERKNS_11ICollectionINS_7IndexedINS_13FrozenCounterEEEEE, .-_ZN8opendnp318MeasurementHandler13ProcessHeaderERKNS_12PrefixHeaderERKNS_11ICollectionINS_7IndexedINS_13FrozenCounterEEEEE
	.align 2
	.p2align 4
	.globl	_ZN8opendnp318MeasurementHandler13ProcessHeaderERKNS_12PrefixHeaderERKNS_11ICollectionINS_7IndexedINS_6AnalogEEEEE
	.type	_ZN8opendnp318MeasurementHandler13ProcessHeaderERKNS_12PrefixHeaderERKNS_11ICollectionINS_7IndexedINS_6AnalogEEEEE, @function
_ZN8opendnp318MeasurementHandler13ProcessHeaderERKNS_12PrefixHeaderERKNS_11ICollectionINS_7IndexedINS_6AnalogEEEEE:
.LFB2397:
	.cfi_startproc
	endbr64
	pushq	%r15
	.cfi_def_cfa_offset 16
	.cfi_offset 15, -16
	pushq	%r14
	.cfi_def_cfa_offset 24
	.cfi_offset 14, -24
	pushq	%r13
	.cfi_def_cfa_offset 32
	.cfi_offset 13, -32
	pushq	%r12
	.cfi_def_cfa_offset 40
	.cfi_offset 12, -40
	movq	%rdx, %r12
	pushq	%rbp
	.cfi_def_cfa_offset 48
	.cfi_offset 6, -48
	movq	%rdi, %rbp
	pushq	%rbx
	.cfi_def_cfa_offset 56
	.cfi_offset 3, -56
	movq	%rsi, %rbx
	subq	$40, %rsp
	.cfi_def_cfa_offset 96
	movzwl	(%rsi), %edi
	movq	%fs:40, %rax
	movq	%rax, 24(%rsp)
	xorl	%eax, %eax
	call	_ZN8opendnp318MeasurementHandler12ModeFromTypeENS_14GroupVariationE@PLT
	movq	%rbp, %rdi
	movl	%eax, %r14d
	call	_ZN8opendnp318MeasurementHandler15CheckForTxStartEv@PLT
	movq	%rbx, %rdi
	movl	12(%rbx), %r15d
	call	_ZNK8opendnp312HeaderRecord16GetQualifierCodeEv@PLT
	movzwl	(%rbx), %r13d
	movb	%r14b, 15(%rsp)
	movb	%al, 14(%rsp)
	movl	%r13d, %edi
	movw	%r13w, 12(%rsp)
	call	_ZN8opendnp37IsEventENS_14GroupVariationE@PLT
	movl	%r13d, %edi
	movb	%al, 16(%rsp)
	call	_ZN8opendnp38HasFlagsENS_14GroupVariationE@PLT
	movq	64(%rbp), %rdi
	movl	%r15d, 20(%rsp)
	movq	%r12, %rdx
	movb	%al, 17(%rsp)
	leaq	12(%rsp), %rsi
	movq	(%rdi), %rax
	call	*48(%rax)
	movq	24(%rsp), %rax
	xorq	%fs:40, %rax
	jne	.L166
	addq	$40, %rsp
	.cfi_remember_state
	.cfi_def_cfa_offset 56
	xorl	%eax, %eax
	popq	%rbx
	.cfi_def_cfa_offset 48
	popq	%rbp
	.cfi_def_cfa_offset 40
	popq	%r12
	.cfi_def_cfa_offset 32
	popq	%r13
	.cfi_def_cfa_offset 24
	popq	%r14
	.cfi_def_cfa_offset 16
	popq	%r15
	.cfi_def_cfa_offset 8
	ret
.L166:
	.cfi_restore_state
	call	__stack_chk_fail@PLT
	.cfi_endproc
.LFE2397:
	.size	_ZN8opendnp318MeasurementHandler13ProcessHeaderERKNS_12PrefixHeaderERKNS_11ICollectionINS_7IndexedINS_6AnalogEEEEE, .-_ZN8opendnp318MeasurementHandler13ProcessHeaderERKNS_12PrefixHeaderERKNS_11ICollectionINS_7IndexedINS_6AnalogEEEEE
	.align 2
	.p2align 4
	.globl	_ZN8opendnp318MeasurementHandler13ProcessHeaderERKNS_12PrefixHeaderERKNS_11ICollectionINS_7IndexedINS_18AnalogOutputStatusEEEEE
	.type	_ZN8opendnp318MeasurementHandler13ProcessHeaderERKNS_12PrefixHeaderERKNS_11ICollectionINS_7IndexedINS_18AnalogOutputStatusEEEEE, @function
_ZN8opendnp318MeasurementHandler13ProcessHeaderERKNS_12PrefixHeaderERKNS_11ICollectionINS_7IndexedINS_18AnalogOutputStatusEEEEE:
.LFB2398:
	.cfi_startproc
	endbr64
	pushq	%r15
	.cfi_def_cfa_offset 16
	.cfi_offset 15, -16
	pushq	%r14
	.cfi_def_cfa_offset 24
	.cfi_offset 14, -24
	pushq	%r13
	.cfi_def_cfa_offset 32
	.cfi_offset 13, -32
	pushq	%r12
	.cfi_def_cfa_offset 40
	.cfi_offset 12, -40
	movq	%rdx, %r12
	pushq	%rbp
	.cfi_def_cfa_offset 48
	.cfi_offset 6, -48
	movq	%rdi, %rbp
	pushq	%rbx
	.cfi_def_cfa_offset 56
	.cfi_offset 3, -56
	movq	%rsi, %rbx
	subq	$40, %rsp
	.cfi_def_cfa_offset 96
	movzwl	(%rsi), %edi
	movq	%fs:40, %rax
	movq	%rax, 24(%rsp)
	xorl	%eax, %eax
	call	_ZN8opendnp318MeasurementHandler12ModeFromTypeENS_14GroupVariationE@PLT
	movq	%rbp, %rdi
	movl	%eax, %r14d
	call	_ZN8opendnp318MeasurementHandler15CheckForTxStartEv@PLT
	movq	%rbx, %rdi
	movl	12(%rbx), %r15d
	call	_ZNK8opendnp312HeaderRecord16GetQualifierCodeEv@PLT
	movzwl	(%rbx), %r13d
	movb	%r14b, 15(%rsp)
	movb	%al, 14(%rsp)
	movl	%r13d, %edi
	movw	%r13w, 12(%rsp)
	call	_ZN8opendnp37IsEventENS_14GroupVariationE@PLT
	movl	%r13d, %edi
	movb	%al, 16(%rsp)
	call	_ZN8opendnp38HasFlagsENS_14GroupVariationE@PLT
	movq	64(%rbp), %rdi
	movl	%r15d, 20(%rsp)
	movq	%r12, %rdx
	movb	%al, 17(%rsp)
	leaq	12(%rsp), %rsi
	movq	(%rdi), %rax
	call	*80(%rax)
	movq	24(%rsp), %rax
	xorq	%fs:40, %rax
	jne	.L170
	addq	$40, %rsp
	.cfi_remember_state
	.cfi_def_cfa_offset 56
	xorl	%eax, %eax
	popq	%rbx
	.cfi_def_cfa_offset 48
	popq	%rbp
	.cfi_def_cfa_offset 40
	popq	%r12
	.cfi_def_cfa_offset 32
	popq	%r13
	.cfi_def_cfa_offset 24
	popq	%r14
	.cfi_def_cfa_offset 16
	popq	%r15
	.cfi_def_cfa_offset 8
	ret
.L170:
	.cfi_restore_state
	call	__stack_chk_fail@PLT
	.cfi_endproc
.LFE2398:
	.size	_ZN8opendnp318MeasurementHandler13ProcessHeaderERKNS_12PrefixHeaderERKNS_11ICollectionINS_7IndexedINS_18AnalogOutputStatusEEEEE, .-_ZN8opendnp318MeasurementHandler13ProcessHeaderERKNS_12PrefixHeaderERKNS_11ICollectionINS_7IndexedINS_18AnalogOutputStatusEEEEE
	.align 2
	.p2align 4
	.globl	_ZN8opendnp318MeasurementHandler13ProcessHeaderERKNS_12PrefixHeaderERKNS_11ICollectionINS_7IndexedINS_11OctetStringEEEEE
	.type	_ZN8opendnp318MeasurementHandler13ProcessHeaderERKNS_12PrefixHeaderERKNS_11ICollectionINS_7IndexedINS_11OctetStringEEEEE, @function
_ZN8opendnp318MeasurementHandler13ProcessHeaderERKNS_12PrefixHeaderERKNS_11ICollectionINS_7IndexedINS_11OctetStringEEEEE:
.LFB2399:
	.cfi_startproc
	endbr64
	pushq	%r15
	.cfi_def_cfa_offset 16
	.cfi_offset 15, -16
	pushq	%r14
	.cfi_def_cfa_offset 24
	.cfi_offset 14, -24
	pushq	%r13
	.cfi_def_cfa_offset 32
	.cfi_offset 13, -32
	pushq	%r12
	.cfi_def_cfa_offset 40
	.cfi_offset 12, -40
	movq	%rdx, %r12
	pushq	%rbp
	.cfi_def_cfa_offset 48
	.cfi_offset 6, -48
	movq	%rdi, %rbp
	pushq	%rbx
	.cfi_def_cfa_offset 56
	.cfi_offset 3, -56
	movq	%rsi, %rbx
	subq	$40, %rsp
	.cfi_def_cfa_offset 96
	movzwl	(%rsi), %edi
	movq	%fs:40, %rax
	movq	%rax, 24(%rsp)
	xorl	%eax, %eax
	call	_ZN8opendnp318MeasurementHandler12ModeFromTypeENS_14GroupVariationE@PLT
	movq	%rbp, %rdi
	movl	%eax, %r14d
	call	_ZN8opendnp318MeasurementHandler15CheckForTxStartEv@PLT
	movq	%rbx, %rdi
	movl	12(%rbx), %r15d
	call	_ZNK8opendnp312HeaderRecord16GetQualifierCodeEv@PLT
	movzwl	(%rbx), %r13d
	movb	%r14b, 15(%rsp)
	movb	%al, 14(%rsp)
	movl	%r13d, %edi
	movw	%r13w, 12(%rsp)
	call	_ZN8opendnp37IsEventENS_14GroupVariationE@PLT
	movl	%r13d, %edi
	movb	%al, 16(%rsp)
	call	_ZN8opendnp38HasFlagsENS_14GroupVariationE@PLT
	movq	64(%rbp), %rdi
	movl	%r15d, 20(%rsp)
	movq	%r12, %rdx
	movb	%al, 17(%rsp)
	leaq	12(%rsp), %rsi
	movq	(%rdi), %rax
	call	*88(%rax)
	movq	24(%rsp), %rax
	xorq	%fs:40, %rax
	jne	.L174
	addq	$40, %rsp
	.cfi_remember_state
	.cfi_def_cfa_offset 56
	xorl	%eax, %eax
	popq	%rbx
	.cfi_def_cfa_offset 48
	popq	%rbp
	.cfi_def_cfa_offset 40
	popq	%r12
	.cfi_def_cfa_offset 32
	popq	%r13
	.cfi_def_cfa_offset 24
	popq	%r14
	.cfi_def_cfa_offset 16
	popq	%r15
	.cfi_def_cfa_offset 8
	ret
.L174:
	.cfi_restore_state
	call	__stack_chk_fail@PLT
	.cfi_endproc
.LFE2399:
	.size	_ZN8opendnp318MeasurementHandler13ProcessHeaderERKNS_12PrefixHeaderERKNS_11ICollectionINS_7IndexedINS_11OctetStringEEEEE, .-_ZN8opendnp318MeasurementHandler13ProcessHeaderERKNS_12PrefixHeaderERKNS_11ICollectionINS_7IndexedINS_11OctetStringEEEEE
	.align 2
	.p2align 4
	.globl	_ZN8opendnp318MeasurementHandler13ProcessHeaderERKNS_11RangeHeaderERKNS_11ICollectionINS_7IndexedINS_12Group121Var1EEEEE
	.type	_ZN8opendnp318MeasurementHandler13ProcessHeaderERKNS_11RangeHeaderERKNS_11ICollectionINS_7IndexedINS_12Group121Var1EEEEE, @function
_ZN8opendnp318MeasurementHandler13ProcessHeaderERKNS_11RangeHeaderERKNS_11ICollectionINS_7IndexedINS_12Group121Var1EEEEE:
.LFB2391:
	.cfi_startproc
	endbr64
	pushq	%r14
	.cfi_def_cfa_offset 16
	.cfi_offset 14, -16
	pushq	%r13
	.cfi_def_cfa_offset 24
	.cfi_offset 13, -24
	pushq	%r12
	.cfi_def_cfa_offset 32
	.cfi_offset 12, -32
	pushq	%rbp
	.cfi_def_cfa_offset 40
	.cfi_offset 6, -40
	movq	%rdi, %rbp
	pushq	%rbx
	.cfi_def_cfa_offset 48
	.cfi_offset 3, -48
	movq	%rsi, %rbx
	subq	$48, %rsp
	.cfi_def_cfa_offset 96
	movzwl	(%rsi), %edi
	movq	%fs:40, %rax
	movq	%rax, 40(%rsp)
	xorl	%eax, %eax
	movq	_ZTVN8opendnp321TransformedCollectionINS_7IndexedINS_12Group121Var1EEENS1_INS_12SecurityStatEEEZNS_18MeasurementHandler25LoadValuesWithTransformToIS4_S2_EENS_8IINFieldERKNS_12HeaderRecordERKNS_11ICollectionINS1_IT0_EEEEEUlRKS3_E_EE@GOTPCREL(%rip), %rax
	movq	%rdx, 24(%rsp)
	addq	$16, %rax
	movq	%rax, 16(%rsp)
	call	_ZN8opendnp318MeasurementHandler12ModeFromTypeENS_14GroupVariationE@PLT
	movq	%rbp, %rdi
	movl	%eax, %r13d
	call	_ZN8opendnp318MeasurementHandler15CheckForTxStartEv@PLT
	movq	%rbx, %rdi
	movl	12(%rbx), %r14d
	call	_ZNK8opendnp312HeaderRecord16GetQualifierCodeEv@PLT
	movzwl	(%rbx), %r12d
	movb	%r13b, 7(%rsp)
	movb	%al, 6(%rsp)
	movl	%r12d, %edi
	movw	%r12w, 4(%rsp)
	call	_ZN8opendnp37IsEventENS_14GroupVariationE@PLT
	movl	%r12d, %edi
	movb	%al, 8(%rsp)
	call	_ZN8opendnp38HasFlagsENS_14GroupVariationE@PLT
	movq	64(%rbp), %rdi
	movl	%r14d, 12(%rsp)
	leaq	16(%rsp), %rdx
	movb	%al, 9(%rsp)
	leaq	4(%rsp), %rsi
	movq	(%rdi), %rax
	call	*120(%rax)
	movq	40(%rsp), %rax
	xorq	%fs:40, %rax
	jne	.L178
	addq	$48, %rsp
	.cfi_remember_state
	.cfi_def_cfa_offset 48
	xorl	%eax, %eax
	popq	%rbx
	.cfi_def_cfa_offset 40
	popq	%rbp
	.cfi_def_cfa_offset 32
	popq	%r12
	.cfi_def_cfa_offset 24
	popq	%r13
	.cfi_def_cfa_offset 16
	popq	%r14
	.cfi_def_cfa_offset 8
	ret
.L178:
	.cfi_restore_state
	call	__stack_chk_fail@PLT
	.cfi_endproc
.LFE2391:
	.size	_ZN8opendnp318MeasurementHandler13ProcessHeaderERKNS_11RangeHeaderERKNS_11ICollectionINS_7IndexedINS_12Group121Var1EEEEE, .-_ZN8opendnp318MeasurementHandler13ProcessHeaderERKNS_11RangeHeaderERKNS_11ICollectionINS_7IndexedINS_12Group121Var1EEEEE
	.align 2
	.p2align 4
	.globl	_ZN8opendnp318MeasurementHandler13ProcessHeaderERKNS_12PrefixHeaderERKNS_11ICollectionINS_7IndexedINS_12Group122Var2EEEEE
	.type	_ZN8opendnp318MeasurementHandler13ProcessHeaderERKNS_12PrefixHeaderERKNS_11ICollectionINS_7IndexedINS_12Group122Var2EEEEE, @function
_ZN8opendnp318MeasurementHandler13ProcessHeaderERKNS_12PrefixHeaderERKNS_11ICollectionINS_7IndexedINS_12Group122Var2EEEEE:
.LFB2403:
	.cfi_startproc
	endbr64
	pushq	%r14
	.cfi_def_cfa_offset 16
	.cfi_offset 14, -16
	pushq	%r13
	.cfi_def_cfa_offset 24
	.cfi_offset 13, -24
	pushq	%r12
	.cfi_def_cfa_offset 32
	.cfi_offset 12, -32
	pushq	%rbp
	.cfi_def_cfa_offset 40
	.cfi_offset 6, -40
	movq	%rdi, %rbp
	pushq	%rbx
	.cfi_def_cfa_offset 48
	.cfi_offset 3, -48
	movq	%rsi, %rbx
	subq	$48, %rsp
	.cfi_def_cfa_offset 96
	movzwl	(%rsi), %edi
	movq	%fs:40, %rax
	movq	%rax, 40(%rsp)
	xorl	%eax, %eax
	movq	_ZTVN8opendnp321TransformedCollectionINS_7IndexedINS_12Group122Var2EEENS1_INS_12SecurityStatEEEZNS_18MeasurementHandler25LoadValuesWithTransformToIS4_S2_EENS_8IINFieldERKNS_12HeaderRecordERKNS_11ICollectionINS1_IT0_EEEEEUlRKS3_E_EE@GOTPCREL(%rip), %rax
	movq	%rdx, 24(%rsp)
	addq	$16, %rax
	movq	%rax, 16(%rsp)
	call	_ZN8opendnp318MeasurementHandler12ModeFromTypeENS_14GroupVariationE@PLT
	movq	%rbp, %rdi
	movl	%eax, %r13d
	call	_ZN8opendnp318MeasurementHandler15CheckForTxStartEv@PLT
	movq	%rbx, %rdi
	movl	12(%rbx), %r14d
	call	_ZNK8opendnp312HeaderRecord16GetQualifierCodeEv@PLT
	movzwl	(%rbx), %r12d
	movb	%r13b, 7(%rsp)
	movb	%al, 6(%rsp)
	movl	%r12d, %edi
	movw	%r12w, 4(%rsp)
	call	_ZN8opendnp37IsEventENS_14GroupVariationE@PLT
	movl	%r12d, %edi
	movb	%al, 8(%rsp)
	call	_ZN8opendnp38HasFlagsENS_14GroupVariationE@PLT
	movq	64(%rbp), %rdi
	movl	%r14d, 12(%rsp)
	leaq	16(%rsp), %rdx
	movb	%al, 9(%rsp)
	leaq	4(%rsp), %rsi
	movq	(%rdi), %rax
	call	*120(%rax)
	movq	40(%rsp), %rax
	xorq	%fs:40, %rax
	jne	.L182
	addq	$48, %rsp
	.cfi_remember_state
	.cfi_def_cfa_offset 48
	xorl	%eax, %eax
	popq	%rbx
	.cfi_def_cfa_offset 40
	popq	%rbp
	.cfi_def_cfa_offset 32
	popq	%r12
	.cfi_def_cfa_offset 24
	popq	%r13
	.cfi_def_cfa_offset 16
	popq	%r14
	.cfi_def_cfa_offset 8
	ret
.L182:
	.cfi_restore_state
	call	__stack_chk_fail@PLT
	.cfi_endproc
.LFE2403:
	.size	_ZN8opendnp318MeasurementHandler13ProcessHeaderERKNS_12PrefixHeaderERKNS_11ICollectionINS_7IndexedINS_12Group122Var2EEEEE, .-_ZN8opendnp318MeasurementHandler13ProcessHeaderERKNS_12PrefixHeaderERKNS_11ICollectionINS_7IndexedINS_12Group122Var2EEEEE
	.align 2
	.p2align 4
	.globl	_ZN8opendnp318MeasurementHandler13ProcessHeaderERKNS_11RangeHeaderERKNS_11ICollectionINS_7IndexedINS_6BinaryEEEEE
	.type	_ZN8opendnp318MeasurementHandler13ProcessHeaderERKNS_11RangeHeaderERKNS_11ICollectionINS_7IndexedINS_6BinaryEEEEE, @function
_ZN8opendnp318MeasurementHandler13ProcessHeaderERKNS_11RangeHeaderERKNS_11ICollectionINS_7IndexedINS_6BinaryEEEEE:
.LFB2382:
	.cfi_startproc
	endbr64
	pushq	%r15
	.cfi_def_cfa_offset 16
	.cfi_offset 15, -16
	pushq	%r14
	.cfi_def_cfa_offset 24
	.cfi_offset 14, -24
	pushq	%r13
	.cfi_def_cfa_offset 32
	.cfi_offset 13, -32
	pushq	%r12
	.cfi_def_cfa_offset 40
	.cfi_offset 12, -40
	movq	%rdx, %r12
	pushq	%rbp
	.cfi_def_cfa_offset 48
	.cfi_offset 6, -48
	movq	%rdi, %rbp
	pushq	%rbx
	.cfi_def_cfa_offset 56
	.cfi_offset 3, -56
	movq	%rsi, %rbx
	subq	$40, %rsp
	.cfi_def_cfa_offset 96
	movzwl	(%rsi), %edi
	movq	%fs:40, %rax
	movq	%rax, 24(%rsp)
	xorl	%eax, %eax
	call	_ZN8opendnp318MeasurementHandler12ModeFromTypeENS_14GroupVariationE@PLT
	movq	%rbp, %rdi
	movl	%eax, %r14d
	call	_ZN8opendnp318MeasurementHandler15CheckForTxStartEv@PLT
	movq	%rbx, %rdi
	movl	12(%rbx), %r15d
	call	_ZNK8opendnp312HeaderRecord16GetQualifierCodeEv@PLT
	movzwl	(%rbx), %r13d
	movb	%r14b, 15(%rsp)
	movb	%al, 14(%rsp)
	movl	%r13d, %edi
	movw	%r13w, 12(%rsp)
	call	_ZN8opendnp37IsEventENS_14GroupVariationE@PLT
	movl	%r13d, %edi
	movb	%al, 16(%rsp)
	call	_ZN8opendnp38HasFlagsENS_14GroupVariationE@PLT
	movq	64(%rbp), %rdi
	movl	%r15d, 20(%rsp)
	movq	%r12, %rdx
	movb	%al, 17(%rsp)
	leaq	12(%rsp), %rsi
	movq	(%rdi), %rax
	call	*32(%rax)
	movq	24(%rsp), %rax
	xorq	%fs:40, %rax
	jne	.L186
	addq	$40, %rsp
	.cfi_remember_state
	.cfi_def_cfa_offset 56
	xorl	%eax, %eax
	popq	%rbx
	.cfi_def_cfa_offset 48
	popq	%rbp
	.cfi_def_cfa_offset 40
	popq	%r12
	.cfi_def_cfa_offset 32
	popq	%r13
	.cfi_def_cfa_offset 24
	popq	%r14
	.cfi_def_cfa_offset 16
	popq	%r15
	.cfi_def_cfa_offset 8
	ret
.L186:
	.cfi_restore_state
	call	__stack_chk_fail@PLT
	.cfi_endproc
.LFE2382:
	.size	_ZN8opendnp318MeasurementHandler13ProcessHeaderERKNS_11RangeHeaderERKNS_11ICollectionINS_7IndexedINS_6BinaryEEEEE, .-_ZN8opendnp318MeasurementHandler13ProcessHeaderERKNS_11RangeHeaderERKNS_11ICollectionINS_7IndexedINS_6BinaryEEEEE
	.align 2
	.p2align 4
	.globl	_ZN8opendnp318MeasurementHandler13ProcessHeaderERKNS_11RangeHeaderERKNS_11ICollectionINS_7IndexedINS_15DoubleBitBinaryEEEEE
	.type	_ZN8opendnp318MeasurementHandler13ProcessHeaderERKNS_11RangeHeaderERKNS_11ICollectionINS_7IndexedINS_15DoubleBitBinaryEEEEE, @function
_ZN8opendnp318MeasurementHandler13ProcessHeaderERKNS_11RangeHeaderERKNS_11ICollectionINS_7IndexedINS_15DoubleBitBinaryEEEEE:
.LFB2383:
	.cfi_startproc
	endbr64
	pushq	%r15
	.cfi_def_cfa_offset 16
	.cfi_offset 15, -16
	pushq	%r14
	.cfi_def_cfa_offset 24
	.cfi_offset 14, -24
	pushq	%r13
	.cfi_def_cfa_offset 32
	.cfi_offset 13, -32
	pushq	%r12
	.cfi_def_cfa_offset 40
	.cfi_offset 12, -40
	movq	%rdx, %r12
	pushq	%rbp
	.cfi_def_cfa_offset 48
	.cfi_offset 6, -48
	movq	%rdi, %rbp
	pushq	%rbx
	.cfi_def_cfa_offset 56
	.cfi_offset 3, -56
	movq	%rsi, %rbx
	subq	$40, %rsp
	.cfi_def_cfa_offset 96
	movzwl	(%rsi), %edi
	movq	%fs:40, %rax
	movq	%rax, 24(%rsp)
	xorl	%eax, %eax
	call	_ZN8opendnp318MeasurementHandler12ModeFromTypeENS_14GroupVariationE@PLT
	movq	%rbp, %rdi
	movl	%eax, %r14d
	call	_ZN8opendnp318MeasurementHandler15CheckForTxStartEv@PLT
	movq	%rbx, %rdi
	movl	12(%rbx), %r15d
	call	_ZNK8opendnp312HeaderRecord16GetQualifierCodeEv@PLT
	movzwl	(%rbx), %r13d
	movb	%r14b, 15(%rsp)
	movb	%al, 14(%rsp)
	movl	%r13d, %edi
	movw	%r13w, 12(%rsp)
	call	_ZN8opendnp37IsEventENS_14GroupVariationE@PLT
	movl	%r13d, %edi
	movb	%al, 16(%rsp)
	call	_ZN8opendnp38HasFlagsENS_14GroupVariationE@PLT
	movq	64(%rbp), %rdi
	movl	%r15d, 20(%rsp)
	movq	%r12, %rdx
	movb	%al, 17(%rsp)
	leaq	12(%rsp), %rsi
	movq	(%rdi), %rax
	call	*40(%rax)
	movq	24(%rsp), %rax
	xorq	%fs:40, %rax
	jne	.L190
	addq	$40, %rsp
	.cfi_remember_state
	.cfi_def_cfa_offset 56
	xorl	%eax, %eax
	popq	%rbx
	.cfi_def_cfa_offset 48
	popq	%rbp
	.cfi_def_cfa_offset 40
	popq	%r12
	.cfi_def_cfa_offset 32
	popq	%r13
	.cfi_def_cfa_offset 24
	popq	%r14
	.cfi_def_cfa_offset 16
	popq	%r15
	.cfi_def_cfa_offset 8
	ret
.L190:
	.cfi_restore_state
	call	__stack_chk_fail@PLT
	.cfi_endproc
.LFE2383:
	.size	_ZN8opendnp318MeasurementHandler13ProcessHeaderERKNS_11RangeHeaderERKNS_11ICollectionINS_7IndexedINS_15DoubleBitBinaryEEEEE, .-_ZN8opendnp318MeasurementHandler13ProcessHeaderERKNS_11RangeHeaderERKNS_11ICollectionINS_7IndexedINS_15DoubleBitBinaryEEEEE
	.section	.rodata.str1.1,"aMS",@progbits,1
.LC1:
	.string	"No prior CTO objects for %s"
	.section	.rodata.str1.8,"aMS",@progbits,1
	.align 8
.LC2:
	.string	"/home/kimchaer/Desktop/OpenPLC_v3/utils/dnp3_src/cpp/libs/src/opendnp3/master/MeasurementHandler.h(154)"
	.text
	.align 2
	.p2align 4
	.globl	_ZN8opendnp318MeasurementHandler13ProcessHeaderERKNS_12PrefixHeaderERKNS_11ICollectionINS_7IndexedINS_6BinaryEEEEE
	.type	_ZN8opendnp318MeasurementHandler13ProcessHeaderERKNS_12PrefixHeaderERKNS_11ICollectionINS_7IndexedINS_6BinaryEEEEE, @function
_ZN8opendnp318MeasurementHandler13ProcessHeaderERKNS_12PrefixHeaderERKNS_11ICollectionINS_7IndexedINS_6BinaryEEEEE:
.LFB2392:
	.cfi_startproc
	endbr64
	pushq	%r15
	.cfi_def_cfa_offset 16
	.cfi_offset 15, -16
	pushq	%r14
	.cfi_def_cfa_offset 24
	.cfi_offset 14, -24
	movq	%rdx, %r14
	pushq	%r13
	.cfi_def_cfa_offset 32
	.cfi_offset 13, -32
	movq	%rdi, %r13
	pushq	%r12
	.cfi_def_cfa_offset 40
	.cfi_offset 12, -40
	pushq	%rbp
	.cfi_def_cfa_offset 48
	.cfi_offset 6, -48
	pushq	%rbx
	.cfi_def_cfa_offset 56
	.cfi_offset 3, -56
	movq	%rsi, %rbx
	subq	$184, %rsp
	.cfi_def_cfa_offset 240
	movzwl	(%rsi), %edi
	movq	%fs:40, %rax
	movq	%rax, 168(%rsp)
	xorl	%eax, %eax
	cmpw	$515, %di
	je	.L202
	call	_ZN8opendnp318MeasurementHandler12ModeFromTypeENS_14GroupVariationE@PLT
	movq	%r13, %rdi
	movl	%eax, %r12d
	call	_ZN8opendnp318MeasurementHandler15CheckForTxStartEv@PLT
	movq	%rbx, %rdi
	movl	12(%rbx), %r15d
	call	_ZNK8opendnp312HeaderRecord16GetQualifierCodeEv@PLT
	movzwl	(%rbx), %ebp
	movb	%r12b, 19(%rsp)
	movb	%al, 18(%rsp)
	movl	%ebp, %edi
	movw	%bp, 16(%rsp)
	call	_ZN8opendnp37IsEventENS_14GroupVariationE@PLT
	movl	%ebp, %edi
	movb	%al, 20(%rsp)
	call	_ZN8opendnp38HasFlagsENS_14GroupVariationE@PLT
	movq	64(%r13), %rdi
	movl	%r15d, 24(%rsp)
	movq	%r14, %rdx
	movb	%al, 21(%rsp)
	leaq	16(%rsp), %rsi
	movq	(%rdi), %rax
	call	*32(%rax)
	xorl	%eax, %eax
.L196:
	movq	168(%rsp), %rcx
	xorq	%fs:40, %rcx
	jne	.L203
	addq	$184, %rsp
	.cfi_remember_state
	.cfi_def_cfa_offset 56
	popq	%rbx
	.cfi_def_cfa_offset 48
	popq	%rbp
	.cfi_def_cfa_offset 40
	popq	%r12
	.cfi_def_cfa_offset 32
	popq	%r13
	.cfi_def_cfa_offset 24
	popq	%r14
	.cfi_def_cfa_offset 16
	popq	%r15
	.cfi_def_cfa_offset 8
	ret
	.p2align 4,,10
	.p2align 3
.L202:
	.cfi_restore_state
	movzbl	72(%r13), %ebp
	testb	%bpl, %bpl
	jne	.L193
	addq	$24, %r13
	leaq	16(%rsp), %rbp
	movl	$4, 16(%rsp)
	movq	%rbp, %rsi
	movq	%r13, %rdi
	call	_ZNK7openpal6Logger9IsEnabledERKNS_10LogFiltersE@PLT
	testb	%al, %al
	jne	.L204
.L194:
	xorl	%eax, %eax
	movl	$10, %esi
	movq	%rbp, %rdi
	movw	%ax, 16(%rsp)
	call	_ZN8opendnp38IINField6SetBitENS_6IINBitE@PLT
	movzbl	16(%rsp), %ecx
	movzbl	17(%rsp), %edx
	jmp	.L195
	.p2align 4,,10
	.p2align 3
.L193:
	movq	_ZTVN8opendnp321TransformedCollectionINS_7IndexedINS_6BinaryEEES3_ZNS_18MeasurementHandler14ProcessWithCTOIS2_EENS_8IINFieldERKNS_12HeaderRecordERKNS_11ICollectionINS1_IT_EEEEEUlRKS3_E_EE@GOTPCREL(%rip), %rdx
	movq	80(%r13), %rax
	movq	%r13, %rdi
	movq	%r14, 24(%rsp)
	addq	$16, %rdx
	movq	%rax, 32(%rsp)
	movq	%rdx, 16(%rsp)
	call	_ZN8opendnp318MeasurementHandler15CheckForTxStartEv@PLT
	movq	%rbx, %rdi
	movl	12(%rbx), %r14d
	call	_ZNK8opendnp312HeaderRecord16GetQualifierCodeEv@PLT
	movzwl	(%rbx), %r12d
	movb	%bpl, 7(%rsp)
	movb	%al, 6(%rsp)
	movl	%r12d, %edi
	movw	%r12w, 4(%rsp)
	call	_ZN8opendnp37IsEventENS_14GroupVariationE@PLT
	movl	%r12d, %edi
	movb	%al, 8(%rsp)
	call	_ZN8opendnp38HasFlagsENS_14GroupVariationE@PLT
	movq	64(%r13), %rdi
	leaq	16(%rsp), %rdx
	movl	%r14d, 12(%rsp)
	movb	%al, 9(%rsp)
	leaq	4(%rsp), %rsi
	movq	(%rdi), %rax
	call	*32(%rax)
	xorl	%edx, %edx
	xorl	%ecx, %ecx
.L195:
	xorl	%eax, %eax
	movb	%cl, %al
	movb	%dl, %ah
	jmp	.L196
	.p2align 4,,10
	.p2align 3
.L204:
	movzwl	(%rbx), %edi
	leaq	48(%rsp), %r12
	call	_ZN8opendnp322GroupVariationToStringENS_14GroupVariationE@PLT
	movq	%r12, %rdi
	movl	$120, %ecx
	leaq	.LC1(%rip), %r8
	movq	%rax, %r9
	movl	$1, %edx
	movl	$120, %esi
	xorl	%eax, %eax
	call	__snprintf_chk@PLT
	movq	%r12, %rcx
	movq	%rbp, %rsi
	movq	%r13, %rdi
	leaq	.LC2(%rip), %rdx
	movl	$4, 16(%rsp)
	call	_ZN7openpal6Logger3LogERKNS_10LogFiltersEPKcS5_@PLT
	jmp	.L194
.L203:
	call	__stack_chk_fail@PLT
	.cfi_endproc
.LFE2392:
	.size	_ZN8opendnp318MeasurementHandler13ProcessHeaderERKNS_12PrefixHeaderERKNS_11ICollectionINS_7IndexedINS_6BinaryEEEEE, .-_ZN8opendnp318MeasurementHandler13ProcessHeaderERKNS_12PrefixHeaderERKNS_11ICollectionINS_7IndexedINS_6BinaryEEEEE
	.align 2
	.p2align 4
	.globl	_ZN8opendnp318MeasurementHandler13ProcessHeaderERKNS_12PrefixHeaderERKNS_11ICollectionINS_7IndexedINS_15DoubleBitBinaryEEEEE
	.type	_ZN8opendnp318MeasurementHandler13ProcessHeaderERKNS_12PrefixHeaderERKNS_11ICollectionINS_7IndexedINS_15DoubleBitBinaryEEEEE, @function
_ZN8opendnp318MeasurementHandler13ProcessHeaderERKNS_12PrefixHeaderERKNS_11ICollectionINS_7IndexedINS_15DoubleBitBinaryEEEEE:
.LFB2394:
	.cfi_startproc
	endbr64
	pushq	%r15
	.cfi_def_cfa_offset 16
	.cfi_offset 15, -16
	pushq	%r14
	.cfi_def_cfa_offset 24
	.cfi_offset 14, -24
	movq	%rdx, %r14
	pushq	%r13
	.cfi_def_cfa_offset 32
	.cfi_offset 13, -32
	movq	%rdi, %r13
	pushq	%r12
	.cfi_def_cfa_offset 40
	.cfi_offset 12, -40
	pushq	%rbp
	.cfi_def_cfa_offset 48
	.cfi_offset 6, -48
	pushq	%rbx
	.cfi_def_cfa_offset 56
	.cfi_offset 3, -56
	movq	%rsi, %rbx
	subq	$184, %rsp
	.cfi_def_cfa_offset 240
	movzwl	(%rsi), %edi
	movq	%fs:40, %rax
	movq	%rax, 168(%rsp)
	xorl	%eax, %eax
	cmpw	$1027, %di
	je	.L216
	call	_ZN8opendnp318MeasurementHandler12ModeFromTypeENS_14GroupVariationE@PLT
	movq	%r13, %rdi
	movl	%eax, %r12d
	call	_ZN8opendnp318MeasurementHandler15CheckForTxStartEv@PLT
	movq	%rbx, %rdi
	movl	12(%rbx), %r15d
	call	_ZNK8opendnp312HeaderRecord16GetQualifierCodeEv@PLT
	movzwl	(%rbx), %ebp
	movb	%r12b, 19(%rsp)
	movb	%al, 18(%rsp)
	movl	%ebp, %edi
	movw	%bp, 16(%rsp)
	call	_ZN8opendnp37IsEventENS_14GroupVariationE@PLT
	movl	%ebp, %edi
	movb	%al, 20(%rsp)
	call	_ZN8opendnp38HasFlagsENS_14GroupVariationE@PLT
	movq	64(%r13), %rdi
	movl	%r15d, 24(%rsp)
	movq	%r14, %rdx
	movb	%al, 21(%rsp)
	leaq	16(%rsp), %rsi
	movq	(%rdi), %rax
	call	*40(%rax)
	xorl	%eax, %eax
.L210:
	movq	168(%rsp), %rcx
	xorq	%fs:40, %rcx
	jne	.L217
	addq	$184, %rsp
	.cfi_remember_state
	.cfi_def_cfa_offset 56
	popq	%rbx
	.cfi_def_cfa_offset 48
	popq	%rbp
	.cfi_def_cfa_offset 40
	popq	%r12
	.cfi_def_cfa_offset 32
	popq	%r13
	.cfi_def_cfa_offset 24
	popq	%r14
	.cfi_def_cfa_offset 16
	popq	%r15
	.cfi_def_cfa_offset 8
	ret
	.p2align 4,,10
	.p2align 3
.L216:
	.cfi_restore_state
	movzbl	72(%r13), %ebp
	testb	%bpl, %bpl
	jne	.L207
	addq	$24, %r13
	leaq	16(%rsp), %rbp
	movl	$4, 16(%rsp)
	movq	%rbp, %rsi
	movq	%r13, %rdi
	call	_ZNK7openpal6Logger9IsEnabledERKNS_10LogFiltersE@PLT
	testb	%al, %al
	jne	.L218
.L208:
	xorl	%eax, %eax
	movl	$10, %esi
	movq	%rbp, %rdi
	movw	%ax, 16(%rsp)
	call	_ZN8opendnp38IINField6SetBitENS_6IINBitE@PLT
	movzbl	16(%rsp), %ecx
	movzbl	17(%rsp), %edx
	jmp	.L209
	.p2align 4,,10
	.p2align 3
.L207:
	movq	_ZTVN8opendnp321TransformedCollectionINS_7IndexedINS_15DoubleBitBinaryEEES3_ZNS_18MeasurementHandler14ProcessWithCTOIS2_EENS_8IINFieldERKNS_12HeaderRecordERKNS_11ICollectionINS1_IT_EEEEEUlRKS3_E_EE@GOTPCREL(%rip), %rdx
	movq	80(%r13), %rax
	movq	%r13, %rdi
	movq	%r14, 24(%rsp)
	addq	$16, %rdx
	movq	%rax, 32(%rsp)
	movq	%rdx, 16(%rsp)
	call	_ZN8opendnp318MeasurementHandler15CheckForTxStartEv@PLT
	movq	%rbx, %rdi
	movl	12(%rbx), %r14d
	call	_ZNK8opendnp312HeaderRecord16GetQualifierCodeEv@PLT
	movzwl	(%rbx), %r12d
	movb	%bpl, 7(%rsp)
	movb	%al, 6(%rsp)
	movl	%r12d, %edi
	movw	%r12w, 4(%rsp)
	call	_ZN8opendnp37IsEventENS_14GroupVariationE@PLT
	movl	%r12d, %edi
	movb	%al, 8(%rsp)
	call	_ZN8opendnp38HasFlagsENS_14GroupVariationE@PLT
	movq	64(%r13), %rdi
	leaq	16(%rsp), %rdx
	movl	%r14d, 12(%rsp)
	movb	%al, 9(%rsp)
	leaq	4(%rsp), %rsi
	movq	(%rdi), %rax
	call	*40(%rax)
	xorl	%edx, %edx
	xorl	%ecx, %ecx
.L209:
	xorl	%eax, %eax
	movb	%cl, %al
	movb	%dl, %ah
	jmp	.L210
	.p2align 4,,10
	.p2align 3
.L218:
	movzwl	(%rbx), %edi
	leaq	48(%rsp), %r12
	call	_ZN8opendnp322GroupVariationToStringENS_14GroupVariationE@PLT
	movq	%r12, %rdi
	movl	$120, %ecx
	leaq	.LC1(%rip), %r8
	movq	%rax, %r9
	movl	$1, %edx
	movl	$120, %esi
	xorl	%eax, %eax
	call	__snprintf_chk@PLT
	movq	%r12, %rcx
	movq	%rbp, %rsi
	movq	%r13, %rdi
	leaq	.LC2(%rip), %rdx
	movl	$4, 16(%rsp)
	call	_ZN7openpal6Logger3LogERKNS_10LogFiltersEPKcS5_@PLT
	jmp	.L208
.L217:
	call	__stack_chk_fail@PLT
	.cfi_endproc
.LFE2394:
	.size	_ZN8opendnp318MeasurementHandler13ProcessHeaderERKNS_12PrefixHeaderERKNS_11ICollectionINS_7IndexedINS_15DoubleBitBinaryEEEEE, .-_ZN8opendnp318MeasurementHandler13ProcessHeaderERKNS_12PrefixHeaderERKNS_11ICollectionINS_7IndexedINS_15DoubleBitBinaryEEEEE
	.align 2
	.p2align 4
	.globl	_ZN8opendnp318MeasurementHandler7ConvertERKNS_12Group121Var1E
	.type	_ZN8opendnp318MeasurementHandler7ConvertERKNS_12Group121Var1E, @function
_ZN8opendnp318MeasurementHandler7ConvertERKNS_12Group121Var1E:
.LFB2404:
	.cfi_startproc
	endbr64
	pushq	%r12
	.cfi_def_cfa_offset 16
	.cfi_offset 12, -16
	movl	4(%rsi), %ecx
	movq	%rdi, %r12
	movzwl	2(%rsi), %edx
	movzbl	(%rsi), %esi
	call	_ZN8opendnp312SecurityStatC1Ehtj@PLT
	movq	%r12, %rax
	popq	%r12
	.cfi_def_cfa_offset 8
	ret
	.cfi_endproc
.LFE2404:
	.size	_ZN8opendnp318MeasurementHandler7ConvertERKNS_12Group121Var1E, .-_ZN8opendnp318MeasurementHandler7ConvertERKNS_12Group121Var1E
	.section	.text._ZN8opendnp314FunctorVisitorINS_7IndexedINS_12Group121Var1EEEZNKS_21TransformedCollectionIS3_NS1_INS_12SecurityStatEEEZNS_18MeasurementHandler25LoadValuesWithTransformToIS5_S2_EENS_8IINFieldERKNS_12HeaderRecordERKNS_11ICollectionINS1_IT0_EEEEEUlRKS3_E_E7ForeachERNS_8IVisitorIS6_EEEUlSK_E_E7OnValueESK_,"axG",@progbits,_ZN8opendnp314FunctorVisitorINS_7IndexedINS_12Group121Var1EEEZNKS_21TransformedCollectionIS3_NS1_INS_12SecurityStatEEEZNS_18MeasurementHandler25LoadValuesWithTransformToIS5_S2_EENS_8IINFieldERKNS_12HeaderRecordERKNS_11ICollectionINS1_IT0_EEEEEUlRKS3_E_E7ForeachERNS_8IVisitorIS6_EEEUlSK_E_E7OnValueESK_,comdat
	.align 2
	.p2align 4
	.weak	_ZN8opendnp314FunctorVisitorINS_7IndexedINS_12Group121Var1EEEZNKS_21TransformedCollectionIS3_NS1_INS_12SecurityStatEEEZNS_18MeasurementHandler25LoadValuesWithTransformToIS5_S2_EENS_8IINFieldERKNS_12HeaderRecordERKNS_11ICollectionINS1_IT0_EEEEEUlRKS3_E_E7ForeachERNS_8IVisitorIS6_EEEUlSK_E_E7OnValueESK_
	.type	_ZN8opendnp314FunctorVisitorINS_7IndexedINS_12Group121Var1EEEZNKS_21TransformedCollectionIS3_NS1_INS_12SecurityStatEEEZNS_18MeasurementHandler25LoadValuesWithTransformToIS5_S2_EENS_8IINFieldERKNS_12HeaderRecordERKNS_11ICollectionINS1_IT0_EEEEEUlRKS3_E_E7ForeachERNS_8IVisitorIS6_EEEUlSK_E_E7OnValueESK_, @function
_ZN8opendnp314FunctorVisitorINS_7IndexedINS_12Group121Var1EEEZNKS_21TransformedCollectionIS3_NS1_INS_12SecurityStatEEEZNS_18MeasurementHandler25LoadValuesWithTransformToIS5_S2_EENS_8IINFieldERKNS_12HeaderRecordERKNS_11ICollectionINS1_IT0_EEEEEUlRKS3_E_E7ForeachERNS_8IVisitorIS6_EEEUlSK_E_E7OnValueESK_:
.LFB3263:
	.cfi_startproc
	endbr64
	pushq	%r12
	.cfi_def_cfa_offset 16
	.cfi_offset 12, -16
	pushq	%rbp
	.cfi_def_cfa_offset 24
	.cfi_offset 6, -24
	pushq	%rbx
	.cfi_def_cfa_offset 32
	.cfi_offset 3, -32
	subq	$80, %rsp
	.cfi_def_cfa_offset 112
	movq	16(%rdi), %rbp
	movzwl	8(%rsi), %r12d
	movq	%fs:40, %rax
	movq	%rax, 72(%rsp)
	xorl	%eax, %eax
	movq	%rsp, %rdi
	movq	0(%rbp), %rax
	movq	(%rax), %rbx
	call	_ZN8opendnp318MeasurementHandler7ConvertERKNS_12Group121Var1E@PLT
	movq	16(%rsp), %rax
	movdqa	(%rsp), %xmm0
	movq	%rbp, %rdi
	movw	%r12w, 56(%rsp)
	leaq	32(%rsp), %rsi
	movq	%rax, 48(%rsp)
	movaps	%xmm0, 32(%rsp)
	call	*%rbx
	movq	72(%rsp), %rax
	xorq	%fs:40, %rax
	jne	.L224
	addq	$80, %rsp
	.cfi_remember_state
	.cfi_def_cfa_offset 32
	popq	%rbx
	.cfi_def_cfa_offset 24
	popq	%rbp
	.cfi_def_cfa_offset 16
	popq	%r12
	.cfi_def_cfa_offset 8
	ret
.L224:
	.cfi_restore_state
	call	__stack_chk_fail@PLT
	.cfi_endproc
.LFE3263:
	.size	_ZN8opendnp314FunctorVisitorINS_7IndexedINS_12Group121Var1EEEZNKS_21TransformedCollectionIS3_NS1_INS_12SecurityStatEEEZNS_18MeasurementHandler25LoadValuesWithTransformToIS5_S2_EENS_8IINFieldERKNS_12HeaderRecordERKNS_11ICollectionINS1_IT0_EEEEEUlRKS3_E_E7ForeachERNS_8IVisitorIS6_EEEUlSK_E_E7OnValueESK_, .-_ZN8opendnp314FunctorVisitorINS_7IndexedINS_12Group121Var1EEEZNKS_21TransformedCollectionIS3_NS1_INS_12SecurityStatEEEZNS_18MeasurementHandler25LoadValuesWithTransformToIS5_S2_EENS_8IINFieldERKNS_12HeaderRecordERKNS_11ICollectionINS1_IT0_EEEEEUlRKS3_E_E7ForeachERNS_8IVisitorIS6_EEEUlSK_E_E7OnValueESK_
	.text
	.align 2
	.p2align 4
	.globl	_ZN8opendnp318MeasurementHandler7ConvertERKNS_12Group122Var1E
	.type	_ZN8opendnp318MeasurementHandler7ConvertERKNS_12Group122Var1E, @function
_ZN8opendnp318MeasurementHandler7ConvertERKNS_12Group122Var1E:
.LFB2405:
	.cfi_startproc
	endbr64
	pushq	%r12
	.cfi_def_cfa_offset 16
	.cfi_offset 12, -16
	movl	4(%rsi), %ecx
	movq	%rdi, %r12
	movzwl	2(%rsi), %edx
	movzbl	(%rsi), %esi
	call	_ZN8opendnp312SecurityStatC1Ehtj@PLT
	movq	%r12, %rax
	popq	%r12
	.cfi_def_cfa_offset 8
	ret
	.cfi_endproc
.LFE2405:
	.size	_ZN8opendnp318MeasurementHandler7ConvertERKNS_12Group122Var1E, .-_ZN8opendnp318MeasurementHandler7ConvertERKNS_12Group122Var1E
	.section	.text._ZN8opendnp314FunctorVisitorINS_7IndexedINS_12Group122Var1EEEZNKS_21TransformedCollectionIS3_NS1_INS_12SecurityStatEEEZNS_18MeasurementHandler25LoadValuesWithTransformToIS5_S2_EENS_8IINFieldERKNS_12HeaderRecordERKNS_11ICollectionINS1_IT0_EEEEEUlRKS3_E_E7ForeachERNS_8IVisitorIS6_EEEUlSK_E_E7OnValueESK_,"axG",@progbits,_ZN8opendnp314FunctorVisitorINS_7IndexedINS_12Group122Var1EEEZNKS_21TransformedCollectionIS3_NS1_INS_12SecurityStatEEEZNS_18MeasurementHandler25LoadValuesWithTransformToIS5_S2_EENS_8IINFieldERKNS_12HeaderRecordERKNS_11ICollectionINS1_IT0_EEEEEUlRKS3_E_E7ForeachERNS_8IVisitorIS6_EEEUlSK_E_E7OnValueESK_,comdat
	.align 2
	.p2align 4
	.weak	_ZN8opendnp314FunctorVisitorINS_7IndexedINS_12Group122Var1EEEZNKS_21TransformedCollectionIS3_NS1_INS_12SecurityStatEEEZNS_18MeasurementHandler25LoadValuesWithTransformToIS5_S2_EENS_8IINFieldERKNS_12HeaderRecordERKNS_11ICollectionINS1_IT0_EEEEEUlRKS3_E_E7ForeachERNS_8IVisitorIS6_EEEUlSK_E_E7OnValueESK_
	.type	_ZN8opendnp314FunctorVisitorINS_7IndexedINS_12Group122Var1EEEZNKS_21TransformedCollectionIS3_NS1_INS_12SecurityStatEEEZNS_18MeasurementHandler25LoadValuesWithTransformToIS5_S2_EENS_8IINFieldERKNS_12HeaderRecordERKNS_11ICollectionINS1_IT0_EEEEEUlRKS3_E_E7ForeachERNS_8IVisitorIS6_EEEUlSK_E_E7OnValueESK_, @function
_ZN8opendnp314FunctorVisitorINS_7IndexedINS_12Group122Var1EEEZNKS_21TransformedCollectionIS3_NS1_INS_12SecurityStatEEEZNS_18MeasurementHandler25LoadValuesWithTransformToIS5_S2_EENS_8IINFieldERKNS_12HeaderRecordERKNS_11ICollectionINS1_IT0_EEEEEUlRKS3_E_E7ForeachERNS_8IVisitorIS6_EEEUlSK_E_E7OnValueESK_:
.LFB3266:
	.cfi_startproc
	endbr64
	pushq	%r12
	.cfi_def_cfa_offset 16
	.cfi_offset 12, -16
	pushq	%rbp
	.cfi_def_cfa_offset 24
	.cfi_offset 6, -24
	pushq	%rbx
	.cfi_def_cfa_offset 32
	.cfi_offset 3, -32
	subq	$80, %rsp
	.cfi_def_cfa_offset 112
	movq	16(%rdi), %rbp
	movzwl	8(%rsi), %r12d
	movq	%fs:40, %rax
	movq	%rax, 72(%rsp)
	xorl	%eax, %eax
	movq	%rsp, %rdi
	movq	0(%rbp), %rax
	movq	(%rax), %rbx
	call	_ZN8opendnp318MeasurementHandler7ConvertERKNS_12Group122Var1E@PLT
	movq	16(%rsp), %rax
	movdqa	(%rsp), %xmm0
	movq	%rbp, %rdi
	movw	%r12w, 56(%rsp)
	leaq	32(%rsp), %rsi
	movq	%rax, 48(%rsp)
	movaps	%xmm0, 32(%rsp)
	call	*%rbx
	movq	72(%rsp), %rax
	xorq	%fs:40, %rax
	jne	.L230
	addq	$80, %rsp
	.cfi_remember_state
	.cfi_def_cfa_offset 32
	popq	%rbx
	.cfi_def_cfa_offset 24
	popq	%rbp
	.cfi_def_cfa_offset 16
	popq	%r12
	.cfi_def_cfa_offset 8
	ret
.L230:
	.cfi_restore_state
	call	__stack_chk_fail@PLT
	.cfi_endproc
.LFE3266:
	.size	_ZN8opendnp314FunctorVisitorINS_7IndexedINS_12Group122Var1EEEZNKS_21TransformedCollectionIS3_NS1_INS_12SecurityStatEEEZNS_18MeasurementHandler25LoadValuesWithTransformToIS5_S2_EENS_8IINFieldERKNS_12HeaderRecordERKNS_11ICollectionINS1_IT0_EEEEEUlRKS3_E_E7ForeachERNS_8IVisitorIS6_EEEUlSK_E_E7OnValueESK_, .-_ZN8opendnp314FunctorVisitorINS_7IndexedINS_12Group122Var1EEEZNKS_21TransformedCollectionIS3_NS1_INS_12SecurityStatEEEZNS_18MeasurementHandler25LoadValuesWithTransformToIS5_S2_EENS_8IINFieldERKNS_12HeaderRecordERKNS_11ICollectionINS1_IT0_EEEEEUlRKS3_E_E7ForeachERNS_8IVisitorIS6_EEEUlSK_E_E7OnValueESK_
	.text
	.align 2
	.p2align 4
	.globl	_ZN8opendnp318MeasurementHandler7ConvertERKNS_12Group122Var2E
	.type	_ZN8opendnp318MeasurementHandler7ConvertERKNS_12Group122Var2E, @function
_ZN8opendnp318MeasurementHandler7ConvertERKNS_12Group122Var2E:
.LFB2406:
	.cfi_startproc
	endbr64
	pushq	%r12
	.cfi_def_cfa_offset 16
	.cfi_offset 12, -16
	movzbl	(%rsi), %r9d
	movq	%rdi, %r12
	movl	4(%rsi), %ecx
	movzwl	2(%rsi), %edx
	movq	8(%rsi), %r8
	movl	%r9d, %esi
	call	_ZN8opendnp312SecurityStatC1EhtjN7openpal10UInt48TypeE@PLT
	movq	%r12, %rax
	popq	%r12
	.cfi_def_cfa_offset 8
	ret
	.cfi_endproc
.LFE2406:
	.size	_ZN8opendnp318MeasurementHandler7ConvertERKNS_12Group122Var2E, .-_ZN8opendnp318MeasurementHandler7ConvertERKNS_12Group122Var2E
	.section	.text._ZN8opendnp314FunctorVisitorINS_7IndexedINS_12Group122Var2EEEZNKS_21TransformedCollectionIS3_NS1_INS_12SecurityStatEEEZNS_18MeasurementHandler25LoadValuesWithTransformToIS5_S2_EENS_8IINFieldERKNS_12HeaderRecordERKNS_11ICollectionINS1_IT0_EEEEEUlRKS3_E_E7ForeachERNS_8IVisitorIS6_EEEUlSK_E_E7OnValueESK_,"axG",@progbits,_ZN8opendnp314FunctorVisitorINS_7IndexedINS_12Group122Var2EEEZNKS_21TransformedCollectionIS3_NS1_INS_12SecurityStatEEEZNS_18MeasurementHandler25LoadValuesWithTransformToIS5_S2_EENS_8IINFieldERKNS_12HeaderRecordERKNS_11ICollectionINS1_IT0_EEEEEUlRKS3_E_E7ForeachERNS_8IVisitorIS6_EEEUlSK_E_E7OnValueESK_,comdat
	.align 2
	.p2align 4
	.weak	_ZN8opendnp314FunctorVisitorINS_7IndexedINS_12Group122Var2EEEZNKS_21TransformedCollectionIS3_NS1_INS_12SecurityStatEEEZNS_18MeasurementHandler25LoadValuesWithTransformToIS5_S2_EENS_8IINFieldERKNS_12HeaderRecordERKNS_11ICollectionINS1_IT0_EEEEEUlRKS3_E_E7ForeachERNS_8IVisitorIS6_EEEUlSK_E_E7OnValueESK_
	.type	_ZN8opendnp314FunctorVisitorINS_7IndexedINS_12Group122Var2EEEZNKS_21TransformedCollectionIS3_NS1_INS_12SecurityStatEEEZNS_18MeasurementHandler25LoadValuesWithTransformToIS5_S2_EENS_8IINFieldERKNS_12HeaderRecordERKNS_11ICollectionINS1_IT0_EEEEEUlRKS3_E_E7ForeachERNS_8IVisitorIS6_EEEUlSK_E_E7OnValueESK_, @function
_ZN8opendnp314FunctorVisitorINS_7IndexedINS_12Group122Var2EEEZNKS_21TransformedCollectionIS3_NS1_INS_12SecurityStatEEEZNS_18MeasurementHandler25LoadValuesWithTransformToIS5_S2_EENS_8IINFieldERKNS_12HeaderRecordERKNS_11ICollectionINS1_IT0_EEEEEUlRKS3_E_E7ForeachERNS_8IVisitorIS6_EEEUlSK_E_E7OnValueESK_:
.LFB3267:
	.cfi_startproc
	endbr64
	pushq	%r12
	.cfi_def_cfa_offset 16
	.cfi_offset 12, -16
	pushq	%rbp
	.cfi_def_cfa_offset 24
	.cfi_offset 6, -24
	pushq	%rbx
	.cfi_def_cfa_offset 32
	.cfi_offset 3, -32
	subq	$80, %rsp
	.cfi_def_cfa_offset 112
	movq	16(%rdi), %rbp
	movzwl	16(%rsi), %r12d
	movq	%fs:40, %rax
	movq	%rax, 72(%rsp)
	xorl	%eax, %eax
	movq	%rsp, %rdi
	movq	0(%rbp), %rax
	movq	(%rax), %rbx
	call	_ZN8opendnp318MeasurementHandler7ConvertERKNS_12Group122Var2E@PLT
	movq	16(%rsp), %rax
	movdqa	(%rsp), %xmm0
	movq	%rbp, %rdi
	movw	%r12w, 56(%rsp)
	leaq	32(%rsp), %rsi
	movq	%rax, 48(%rsp)
	movaps	%xmm0, 32(%rsp)
	call	*%rbx
	movq	72(%rsp), %rax
	xorq	%fs:40, %rax
	jne	.L236
	addq	$80, %rsp
	.cfi_remember_state
	.cfi_def_cfa_offset 32
	popq	%rbx
	.cfi_def_cfa_offset 24
	popq	%rbp
	.cfi_def_cfa_offset 16
	popq	%r12
	.cfi_def_cfa_offset 8
	ret
.L236:
	.cfi_restore_state
	call	__stack_chk_fail@PLT
	.cfi_endproc
.LFE3267:
	.size	_ZN8opendnp314FunctorVisitorINS_7IndexedINS_12Group122Var2EEEZNKS_21TransformedCollectionIS3_NS1_INS_12SecurityStatEEEZNS_18MeasurementHandler25LoadValuesWithTransformToIS5_S2_EENS_8IINFieldERKNS_12HeaderRecordERKNS_11ICollectionINS1_IT0_EEEEEUlRKS3_E_E7ForeachERNS_8IVisitorIS6_EEEUlSK_E_E7OnValueESK_, .-_ZN8opendnp314FunctorVisitorINS_7IndexedINS_12Group122Var2EEEZNKS_21TransformedCollectionIS3_NS1_INS_12SecurityStatEEEZNS_18MeasurementHandler25LoadValuesWithTransformToIS5_S2_EENS_8IINFieldERKNS_12HeaderRecordERKNS_11ICollectionINS1_IT0_EEEEEUlRKS3_E_E7ForeachERNS_8IVisitorIS6_EEEUlSK_E_E7OnValueESK_
	.weak	_ZTSN8opendnp38IVisitorINS_7IndexedINS_15DoubleBitBinaryEEEEE
	.section	.rodata._ZTSN8opendnp38IVisitorINS_7IndexedINS_15DoubleBitBinaryEEEEE,"aG",@progbits,_ZTSN8opendnp38IVisitorINS_7IndexedINS_15DoubleBitBinaryEEEEE,comdat
	.align 32
	.type	_ZTSN8opendnp38IVisitorINS_7IndexedINS_15DoubleBitBinaryEEEEE, @object
	.size	_ZTSN8opendnp38IVisitorINS_7IndexedINS_15DoubleBitBinaryEEEEE, 58
_ZTSN8opendnp38IVisitorINS_7IndexedINS_15DoubleBitBinaryEEEEE:
	.string	"N8opendnp38IVisitorINS_7IndexedINS_15DoubleBitBinaryEEEEE"
	.weak	_ZTIN8opendnp38IVisitorINS_7IndexedINS_15DoubleBitBinaryEEEEE
	.section	.data.rel.ro._ZTIN8opendnp38IVisitorINS_7IndexedINS_15DoubleBitBinaryEEEEE,"awG",@progbits,_ZTIN8opendnp38IVisitorINS_7IndexedINS_15DoubleBitBinaryEEEEE,comdat
	.align 8
	.type	_ZTIN8opendnp38IVisitorINS_7IndexedINS_15DoubleBitBinaryEEEEE, @object
	.size	_ZTIN8opendnp38IVisitorINS_7IndexedINS_15DoubleBitBinaryEEEEE, 16
_ZTIN8opendnp38IVisitorINS_7IndexedINS_15DoubleBitBinaryEEEEE:
	.quad	_ZTVN10__cxxabiv117__class_type_infoE+16
	.quad	_ZTSN8opendnp38IVisitorINS_7IndexedINS_15DoubleBitBinaryEEEEE
	.weak	_ZTSN8opendnp38IVisitorINS_7IndexedINS_6BinaryEEEEE
	.section	.rodata._ZTSN8opendnp38IVisitorINS_7IndexedINS_6BinaryEEEEE,"aG",@progbits,_ZTSN8opendnp38IVisitorINS_7IndexedINS_6BinaryEEEEE,comdat
	.align 32
	.type	_ZTSN8opendnp38IVisitorINS_7IndexedINS_6BinaryEEEEE, @object
	.size	_ZTSN8opendnp38IVisitorINS_7IndexedINS_6BinaryEEEEE, 48
_ZTSN8opendnp38IVisitorINS_7IndexedINS_6BinaryEEEEE:
	.string	"N8opendnp38IVisitorINS_7IndexedINS_6BinaryEEEEE"
	.weak	_ZTIN8opendnp38IVisitorINS_7IndexedINS_6BinaryEEEEE
	.section	.data.rel.ro._ZTIN8opendnp38IVisitorINS_7IndexedINS_6BinaryEEEEE,"awG",@progbits,_ZTIN8opendnp38IVisitorINS_7IndexedINS_6BinaryEEEEE,comdat
	.align 8
	.type	_ZTIN8opendnp38IVisitorINS_7IndexedINS_6BinaryEEEEE, @object
	.size	_ZTIN8opendnp38IVisitorINS_7IndexedINS_6BinaryEEEEE, 16
_ZTIN8opendnp38IVisitorINS_7IndexedINS_6BinaryEEEEE:
	.quad	_ZTVN10__cxxabiv117__class_type_infoE+16
	.quad	_ZTSN8opendnp38IVisitorINS_7IndexedINS_6BinaryEEEEE
	.weak	_ZTSN8opendnp38IVisitorINS_7IndexedINS_12Group122Var2EEEEE
	.section	.rodata._ZTSN8opendnp38IVisitorINS_7IndexedINS_12Group122Var2EEEEE,"aG",@progbits,_ZTSN8opendnp38IVisitorINS_7IndexedINS_12Group122Var2EEEEE,comdat
	.align 32
	.type	_ZTSN8opendnp38IVisitorINS_7IndexedINS_12Group122Var2EEEEE, @object
	.size	_ZTSN8opendnp38IVisitorINS_7IndexedINS_12Group122Var2EEEEE, 55
_ZTSN8opendnp38IVisitorINS_7IndexedINS_12Group122Var2EEEEE:
	.string	"N8opendnp38IVisitorINS_7IndexedINS_12Group122Var2EEEEE"
	.weak	_ZTIN8opendnp38IVisitorINS_7IndexedINS_12Group122Var2EEEEE
	.section	.data.rel.ro._ZTIN8opendnp38IVisitorINS_7IndexedINS_12Group122Var2EEEEE,"awG",@progbits,_ZTIN8opendnp38IVisitorINS_7IndexedINS_12Group122Var2EEEEE,comdat
	.align 8
	.type	_ZTIN8opendnp38IVisitorINS_7IndexedINS_12Group122Var2EEEEE, @object
	.size	_ZTIN8opendnp38IVisitorINS_7IndexedINS_12Group122Var2EEEEE, 16
_ZTIN8opendnp38IVisitorINS_7IndexedINS_12Group122Var2EEEEE:
	.quad	_ZTVN10__cxxabiv117__class_type_infoE+16
	.quad	_ZTSN8opendnp38IVisitorINS_7IndexedINS_12Group122Var2EEEEE
	.weak	_ZTSN8opendnp314FunctorVisitorINS_7IndexedINS_12Group122Var2EEEZNKS_21TransformedCollectionIS3_NS1_INS_12SecurityStatEEEZNS_18MeasurementHandler25LoadValuesWithTransformToIS5_S2_EENS_8IINFieldERKNS_12HeaderRecordERKNS_11ICollectionINS1_IT0_EEEEEUlRKS3_E_E7ForeachERNS_8IVisitorIS6_EEEUlSK_E_EE
	.section	.rodata._ZTSN8opendnp314FunctorVisitorINS_7IndexedINS_12Group122Var2EEEZNKS_21TransformedCollectionIS3_NS1_INS_12SecurityStatEEEZNS_18MeasurementHandler25LoadValuesWithTransformToIS5_S2_EENS_8IINFieldERKNS_12HeaderRecordERKNS_11ICollectionINS1_IT0_EEEEEUlRKS3_E_E7ForeachERNS_8IVisitorIS6_EEEUlSK_E_EE,"aG",@progbits,_ZTSN8opendnp314FunctorVisitorINS_7IndexedINS_12Group122Var2EEEZNKS_21TransformedCollectionIS3_NS1_INS_12SecurityStatEEEZNS_18MeasurementHandler25LoadValuesWithTransformToIS5_S2_EENS_8IINFieldERKNS_12HeaderRecordERKNS_11ICollectionINS1_IT0_EEEEEUlRKS3_E_E7ForeachERNS_8IVisitorIS6_EEEUlSK_E_EE,comdat
	.align 32
	.type	_ZTSN8opendnp314FunctorVisitorINS_7IndexedINS_12Group122Var2EEEZNKS_21TransformedCollectionIS3_NS1_INS_12SecurityStatEEEZNS_18MeasurementHandler25LoadValuesWithTransformToIS5_S2_EENS_8IINFieldERKNS_12HeaderRecordERKNS_11ICollectionINS1_IT0_EEEEEUlRKS3_E_E7ForeachERNS_8IVisitorIS6_EEEUlSK_E_EE, @object
	.size	_ZTSN8opendnp314FunctorVisitorINS_7IndexedINS_12Group122Var2EEEZNKS_21TransformedCollectionIS3_NS1_INS_12SecurityStatEEEZNS_18MeasurementHandler25LoadValuesWithTransformToIS5_S2_EENS_8IINFieldERKNS_12HeaderRecordERKNS_11ICollectionINS1_IT0_EEEEEUlRKS3_E_E7ForeachERNS_8IVisitorIS6_EEEUlSK_E_EE, 290
_ZTSN8opendnp314FunctorVisitorINS_7IndexedINS_12Group122Var2EEEZNKS_21TransformedCollectionIS3_NS1_INS_12SecurityStatEEEZNS_18MeasurementHandler25LoadValuesWithTransformToIS5_S2_EENS_8IINFieldERKNS_12HeaderRecordERKNS_11ICollectionINS1_IT0_EEEEEUlRKS3_E_E7ForeachERNS_8IVisitorIS6_EEEUlSK_E_EE:
	.ascii	"N8opendnp314FunctorVisitorINS_7In"
	.string	"dexedINS_12Group122Var2EEEZNKS_21TransformedCollectionIS3_NS1_INS_12SecurityStatEEEZNS_18MeasurementHandler25LoadValuesWithTransformToIS5_S2_EENS_8IINFieldERKNS_12HeaderRecordERKNS_11ICollectionINS1_IT0_EEEEEUlRKS3_E_E7ForeachERNS_8IVisitorIS6_EEEUlSK_E_EE"
	.weak	_ZTIN8opendnp314FunctorVisitorINS_7IndexedINS_12Group122Var2EEEZNKS_21TransformedCollectionIS3_NS1_INS_12SecurityStatEEEZNS_18MeasurementHandler25LoadValuesWithTransformToIS5_S2_EENS_8IINFieldERKNS_12HeaderRecordERKNS_11ICollectionINS1_IT0_EEEEEUlRKS3_E_E7ForeachERNS_8IVisitorIS6_EEEUlSK_E_EE
	.section	.data.rel.ro._ZTIN8opendnp314FunctorVisitorINS_7IndexedINS_12Group122Var2EEEZNKS_21TransformedCollectionIS3_NS1_INS_12SecurityStatEEEZNS_18MeasurementHandler25LoadValuesWithTransformToIS5_S2_EENS_8IINFieldERKNS_12HeaderRecordERKNS_11ICollectionINS1_IT0_EEEEEUlRKS3_E_E7ForeachERNS_8IVisitorIS6_EEEUlSK_E_EE,"awG",@progbits,_ZTIN8opendnp314FunctorVisitorINS_7IndexedINS_12Group122Var2EEEZNKS_21TransformedCollectionIS3_NS1_INS_12SecurityStatEEEZNS_18MeasurementHandler25LoadValuesWithTransformToIS5_S2_EENS_8IINFieldERKNS_12HeaderRecordERKNS_11ICollectionINS1_IT0_EEEEEUlRKS3_E_E7ForeachERNS_8IVisitorIS6_EEEUlSK_E_EE,comdat
	.align 8
	.type	_ZTIN8opendnp314FunctorVisitorINS_7IndexedINS_12Group122Var2EEEZNKS_21TransformedCollectionIS3_NS1_INS_12SecurityStatEEEZNS_18MeasurementHandler25LoadValuesWithTransformToIS5_S2_EENS_8IINFieldERKNS_12HeaderRecordERKNS_11ICollectionINS1_IT0_EEEEEUlRKS3_E_E7ForeachERNS_8IVisitorIS6_EEEUlSK_E_EE, @object
	.size	_ZTIN8opendnp314FunctorVisitorINS_7IndexedINS_12Group122Var2EEEZNKS_21TransformedCollectionIS3_NS1_INS_12SecurityStatEEEZNS_18MeasurementHandler25LoadValuesWithTransformToIS5_S2_EENS_8IINFieldERKNS_12HeaderRecordERKNS_11ICollectionINS1_IT0_EEEEEUlRKS3_E_E7ForeachERNS_8IVisitorIS6_EEEUlSK_E_EE, 24
_ZTIN8opendnp314FunctorVisitorINS_7IndexedINS_12Group122Var2EEEZNKS_21TransformedCollectionIS3_NS1_INS_12SecurityStatEEEZNS_18MeasurementHandler25LoadValuesWithTransformToIS5_S2_EENS_8IINFieldERKNS_12HeaderRecordERKNS_11ICollectionINS1_IT0_EEEEEUlRKS3_E_E7ForeachERNS_8IVisitorIS6_EEEUlSK_E_EE:
	.quad	_ZTVN10__cxxabiv120__si_class_type_infoE+16
	.quad	_ZTSN8opendnp314FunctorVisitorINS_7IndexedINS_12Group122Var2EEEZNKS_21TransformedCollectionIS3_NS1_INS_12SecurityStatEEEZNS_18MeasurementHandler25LoadValuesWithTransformToIS5_S2_EENS_8IINFieldERKNS_12HeaderRecordERKNS_11ICollectionINS1_IT0_EEEEEUlRKS3_E_E7ForeachERNS_8IVisitorIS6_EEEUlSK_E_EE
	.quad	_ZTIN8opendnp38IVisitorINS_7IndexedINS_12Group122Var2EEEEE
	.weak	_ZTSN8opendnp38IVisitorINS_7IndexedINS_12Group122Var1EEEEE
	.section	.rodata._ZTSN8opendnp38IVisitorINS_7IndexedINS_12Group122Var1EEEEE,"aG",@progbits,_ZTSN8opendnp38IVisitorINS_7IndexedINS_12Group122Var1EEEEE,comdat
	.align 32
	.type	_ZTSN8opendnp38IVisitorINS_7IndexedINS_12Group122Var1EEEEE, @object
	.size	_ZTSN8opendnp38IVisitorINS_7IndexedINS_12Group122Var1EEEEE, 55
_ZTSN8opendnp38IVisitorINS_7IndexedINS_12Group122Var1EEEEE:
	.string	"N8opendnp38IVisitorINS_7IndexedINS_12Group122Var1EEEEE"
	.weak	_ZTIN8opendnp38IVisitorINS_7IndexedINS_12Group122Var1EEEEE
	.section	.data.rel.ro._ZTIN8opendnp38IVisitorINS_7IndexedINS_12Group122Var1EEEEE,"awG",@progbits,_ZTIN8opendnp38IVisitorINS_7IndexedINS_12Group122Var1EEEEE,comdat
	.align 8
	.type	_ZTIN8opendnp38IVisitorINS_7IndexedINS_12Group122Var1EEEEE, @object
	.size	_ZTIN8opendnp38IVisitorINS_7IndexedINS_12Group122Var1EEEEE, 16
_ZTIN8opendnp38IVisitorINS_7IndexedINS_12Group122Var1EEEEE:
	.quad	_ZTVN10__cxxabiv117__class_type_infoE+16
	.quad	_ZTSN8opendnp38IVisitorINS_7IndexedINS_12Group122Var1EEEEE
	.weak	_ZTSN8opendnp314FunctorVisitorINS_7IndexedINS_12Group122Var1EEEZNKS_21TransformedCollectionIS3_NS1_INS_12SecurityStatEEEZNS_18MeasurementHandler25LoadValuesWithTransformToIS5_S2_EENS_8IINFieldERKNS_12HeaderRecordERKNS_11ICollectionINS1_IT0_EEEEEUlRKS3_E_E7ForeachERNS_8IVisitorIS6_EEEUlSK_E_EE
	.section	.rodata._ZTSN8opendnp314FunctorVisitorINS_7IndexedINS_12Group122Var1EEEZNKS_21TransformedCollectionIS3_NS1_INS_12SecurityStatEEEZNS_18MeasurementHandler25LoadValuesWithTransformToIS5_S2_EENS_8IINFieldERKNS_12HeaderRecordERKNS_11ICollectionINS1_IT0_EEEEEUlRKS3_E_E7ForeachERNS_8IVisitorIS6_EEEUlSK_E_EE,"aG",@progbits,_ZTSN8opendnp314FunctorVisitorINS_7IndexedINS_12Group122Var1EEEZNKS_21TransformedCollectionIS3_NS1_INS_12SecurityStatEEEZNS_18MeasurementHandler25LoadValuesWithTransformToIS5_S2_EENS_8IINFieldERKNS_12HeaderRecordERKNS_11ICollectionINS1_IT0_EEEEEUlRKS3_E_E7ForeachERNS_8IVisitorIS6_EEEUlSK_E_EE,comdat
	.align 32
	.type	_ZTSN8opendnp314FunctorVisitorINS_7IndexedINS_12Group122Var1EEEZNKS_21TransformedCollectionIS3_NS1_INS_12SecurityStatEEEZNS_18MeasurementHandler25LoadValuesWithTransformToIS5_S2_EENS_8IINFieldERKNS_12HeaderRecordERKNS_11ICollectionINS1_IT0_EEEEEUlRKS3_E_E7ForeachERNS_8IVisitorIS6_EEEUlSK_E_EE, @object
	.size	_ZTSN8opendnp314FunctorVisitorINS_7IndexedINS_12Group122Var1EEEZNKS_21TransformedCollectionIS3_NS1_INS_12SecurityStatEEEZNS_18MeasurementHandler25LoadValuesWithTransformToIS5_S2_EENS_8IINFieldERKNS_12HeaderRecordERKNS_11ICollectionINS1_IT0_EEEEEUlRKS3_E_E7ForeachERNS_8IVisitorIS6_EEEUlSK_E_EE, 290
_ZTSN8opendnp314FunctorVisitorINS_7IndexedINS_12Group122Var1EEEZNKS_21TransformedCollectionIS3_NS1_INS_12SecurityStatEEEZNS_18MeasurementHandler25LoadValuesWithTransformToIS5_S2_EENS_8IINFieldERKNS_12HeaderRecordERKNS_11ICollectionINS1_IT0_EEEEEUlRKS3_E_E7ForeachERNS_8IVisitorIS6_EEEUlSK_E_EE:
	.ascii	"N8opendnp314FunctorVisitorINS_7In"
	.string	"dexedINS_12Group122Var1EEEZNKS_21TransformedCollectionIS3_NS1_INS_12SecurityStatEEEZNS_18MeasurementHandler25LoadValuesWithTransformToIS5_S2_EENS_8IINFieldERKNS_12HeaderRecordERKNS_11ICollectionINS1_IT0_EEEEEUlRKS3_E_E7ForeachERNS_8IVisitorIS6_EEEUlSK_E_EE"
	.weak	_ZTIN8opendnp314FunctorVisitorINS_7IndexedINS_12Group122Var1EEEZNKS_21TransformedCollectionIS3_NS1_INS_12SecurityStatEEEZNS_18MeasurementHandler25LoadValuesWithTransformToIS5_S2_EENS_8IINFieldERKNS_12HeaderRecordERKNS_11ICollectionINS1_IT0_EEEEEUlRKS3_E_E7ForeachERNS_8IVisitorIS6_EEEUlSK_E_EE
	.section	.data.rel.ro._ZTIN8opendnp314FunctorVisitorINS_7IndexedINS_12Group122Var1EEEZNKS_21TransformedCollectionIS3_NS1_INS_12SecurityStatEEEZNS_18MeasurementHandler25LoadValuesWithTransformToIS5_S2_EENS_8IINFieldERKNS_12HeaderRecordERKNS_11ICollectionINS1_IT0_EEEEEUlRKS3_E_E7ForeachERNS_8IVisitorIS6_EEEUlSK_E_EE,"awG",@progbits,_ZTIN8opendnp314FunctorVisitorINS_7IndexedINS_12Group122Var1EEEZNKS_21TransformedCollectionIS3_NS1_INS_12SecurityStatEEEZNS_18MeasurementHandler25LoadValuesWithTransformToIS5_S2_EENS_8IINFieldERKNS_12HeaderRecordERKNS_11ICollectionINS1_IT0_EEEEEUlRKS3_E_E7ForeachERNS_8IVisitorIS6_EEEUlSK_E_EE,comdat
	.align 8
	.type	_ZTIN8opendnp314FunctorVisitorINS_7IndexedINS_12Group122Var1EEEZNKS_21TransformedCollectionIS3_NS1_INS_12SecurityStatEEEZNS_18MeasurementHandler25LoadValuesWithTransformToIS5_S2_EENS_8IINFieldERKNS_12HeaderRecordERKNS_11ICollectionINS1_IT0_EEEEEUlRKS3_E_E7ForeachERNS_8IVisitorIS6_EEEUlSK_E_EE, @object
	.size	_ZTIN8opendnp314FunctorVisitorINS_7IndexedINS_12Group122Var1EEEZNKS_21TransformedCollectionIS3_NS1_INS_12SecurityStatEEEZNS_18MeasurementHandler25LoadValuesWithTransformToIS5_S2_EENS_8IINFieldERKNS_12HeaderRecordERKNS_11ICollectionINS1_IT0_EEEEEUlRKS3_E_E7ForeachERNS_8IVisitorIS6_EEEUlSK_E_EE, 24
_ZTIN8opendnp314FunctorVisitorINS_7IndexedINS_12Group122Var1EEEZNKS_21TransformedCollectionIS3_NS1_INS_12SecurityStatEEEZNS_18MeasurementHandler25LoadValuesWithTransformToIS5_S2_EENS_8IINFieldERKNS_12HeaderRecordERKNS_11ICollectionINS1_IT0_EEEEEUlRKS3_E_E7ForeachERNS_8IVisitorIS6_EEEUlSK_E_EE:
	.quad	_ZTVN10__cxxabiv120__si_class_type_infoE+16
	.quad	_ZTSN8opendnp314FunctorVisitorINS_7IndexedINS_12Group122Var1EEEZNKS_21TransformedCollectionIS3_NS1_INS_12SecurityStatEEEZNS_18MeasurementHandler25LoadValuesWithTransformToIS5_S2_EENS_8IINFieldERKNS_12HeaderRecordERKNS_11ICollectionINS1_IT0_EEEEEUlRKS3_E_E7ForeachERNS_8IVisitorIS6_EEEUlSK_E_EE
	.quad	_ZTIN8opendnp38IVisitorINS_7IndexedINS_12Group122Var1EEEEE
	.weak	_ZTSN8opendnp314FunctorVisitorINS_7IndexedINS_15DoubleBitBinaryEEEZNKS_21TransformedCollectionIS3_S3_ZNS_18MeasurementHandler14ProcessWithCTOIS2_EENS_8IINFieldERKNS_12HeaderRecordERKNS_11ICollectionINS1_IT_EEEEEUlRKS3_E_E7ForeachERNS_8IVisitorIS3_EEEUlSI_E_EE
	.section	.rodata._ZTSN8opendnp314FunctorVisitorINS_7IndexedINS_15DoubleBitBinaryEEEZNKS_21TransformedCollectionIS3_S3_ZNS_18MeasurementHandler14ProcessWithCTOIS2_EENS_8IINFieldERKNS_12HeaderRecordERKNS_11ICollectionINS1_IT_EEEEEUlRKS3_E_E7ForeachERNS_8IVisitorIS3_EEEUlSI_E_EE,"aG",@progbits,_ZTSN8opendnp314FunctorVisitorINS_7IndexedINS_15DoubleBitBinaryEEEZNKS_21TransformedCollectionIS3_S3_ZNS_18MeasurementHandler14ProcessWithCTOIS2_EENS_8IINFieldERKNS_12HeaderRecordERKNS_11ICollectionINS1_IT_EEEEEUlRKS3_E_E7ForeachERNS_8IVisitorIS3_EEEUlSI_E_EE,comdat
	.align 32
	.type	_ZTSN8opendnp314FunctorVisitorINS_7IndexedINS_15DoubleBitBinaryEEEZNKS_21TransformedCollectionIS3_S3_ZNS_18MeasurementHandler14ProcessWithCTOIS2_EENS_8IINFieldERKNS_12HeaderRecordERKNS_11ICollectionINS1_IT_EEEEEUlRKS3_E_E7ForeachERNS_8IVisitorIS3_EEEUlSI_E_EE, @object
	.size	_ZTSN8opendnp314FunctorVisitorINS_7IndexedINS_15DoubleBitBinaryEEEZNKS_21TransformedCollectionIS3_S3_ZNS_18MeasurementHandler14ProcessWithCTOIS2_EENS_8IINFieldERKNS_12HeaderRecordERKNS_11ICollectionINS1_IT_EEEEEUlRKS3_E_E7ForeachERNS_8IVisitorIS3_EEEUlSI_E_EE, 256
_ZTSN8opendnp314FunctorVisitorINS_7IndexedINS_15DoubleBitBinaryEEEZNKS_21TransformedCollectionIS3_S3_ZNS_18MeasurementHandler14ProcessWithCTOIS2_EENS_8IINFieldERKNS_12HeaderRecordERKNS_11ICollectionINS1_IT_EEEEEUlRKS3_E_E7ForeachERNS_8IVisitorIS3_EEEUlSI_E_EE:
	.string	"N8opendnp314FunctorVisitorINS_7IndexedINS_15DoubleBitBinaryEEEZNKS_21TransformedCollectionIS3_S3_ZNS_18MeasurementHandler14ProcessWithCTOIS2_EENS_8IINFieldERKNS_12HeaderRecordERKNS_11ICollectionINS1_IT_EEEEEUlRKS3_E_E7ForeachERNS_8IVisitorIS3_EEEUlSI_E_EE"
	.weak	_ZTIN8opendnp314FunctorVisitorINS_7IndexedINS_15DoubleBitBinaryEEEZNKS_21TransformedCollectionIS3_S3_ZNS_18MeasurementHandler14ProcessWithCTOIS2_EENS_8IINFieldERKNS_12HeaderRecordERKNS_11ICollectionINS1_IT_EEEEEUlRKS3_E_E7ForeachERNS_8IVisitorIS3_EEEUlSI_E_EE
	.section	.data.rel.ro._ZTIN8opendnp314FunctorVisitorINS_7IndexedINS_15DoubleBitBinaryEEEZNKS_21TransformedCollectionIS3_S3_ZNS_18MeasurementHandler14ProcessWithCTOIS2_EENS_8IINFieldERKNS_12HeaderRecordERKNS_11ICollectionINS1_IT_EEEEEUlRKS3_E_E7ForeachERNS_8IVisitorIS3_EEEUlSI_E_EE,"awG",@progbits,_ZTIN8opendnp314FunctorVisitorINS_7IndexedINS_15DoubleBitBinaryEEEZNKS_21TransformedCollectionIS3_S3_ZNS_18MeasurementHandler14ProcessWithCTOIS2_EENS_8IINFieldERKNS_12HeaderRecordERKNS_11ICollectionINS1_IT_EEEEEUlRKS3_E_E7ForeachERNS_8IVisitorIS3_EEEUlSI_E_EE,comdat
	.align 8
	.type	_ZTIN8opendnp314FunctorVisitorINS_7IndexedINS_15DoubleBitBinaryEEEZNKS_21TransformedCollectionIS3_S3_ZNS_18MeasurementHandler14ProcessWithCTOIS2_EENS_8IINFieldERKNS_12HeaderRecordERKNS_11ICollectionINS1_IT_EEEEEUlRKS3_E_E7ForeachERNS_8IVisitorIS3_EEEUlSI_E_EE, @object
	.size	_ZTIN8opendnp314FunctorVisitorINS_7IndexedINS_15DoubleBitBinaryEEEZNKS_21TransformedCollectionIS3_S3_ZNS_18MeasurementHandler14ProcessWithCTOIS2_EENS_8IINFieldERKNS_12HeaderRecordERKNS_11ICollectionINS1_IT_EEEEEUlRKS3_E_E7ForeachERNS_8IVisitorIS3_EEEUlSI_E_EE, 24
_ZTIN8opendnp314FunctorVisitorINS_7IndexedINS_15DoubleBitBinaryEEEZNKS_21TransformedCollectionIS3_S3_ZNS_18MeasurementHandler14ProcessWithCTOIS2_EENS_8IINFieldERKNS_12HeaderRecordERKNS_11ICollectionINS1_IT_EEEEEUlRKS3_E_E7ForeachERNS_8IVisitorIS3_EEEUlSI_E_EE:
	.quad	_ZTVN10__cxxabiv120__si_class_type_infoE+16
	.quad	_ZTSN8opendnp314FunctorVisitorINS_7IndexedINS_15DoubleBitBinaryEEEZNKS_21TransformedCollectionIS3_S3_ZNS_18MeasurementHandler14ProcessWithCTOIS2_EENS_8IINFieldERKNS_12HeaderRecordERKNS_11ICollectionINS1_IT_EEEEEUlRKS3_E_E7ForeachERNS_8IVisitorIS3_EEEUlSI_E_EE
	.quad	_ZTIN8opendnp38IVisitorINS_7IndexedINS_15DoubleBitBinaryEEEEE
	.weak	_ZTSN8opendnp314FunctorVisitorINS_7IndexedINS_6BinaryEEEZNKS_21TransformedCollectionIS3_S3_ZNS_18MeasurementHandler14ProcessWithCTOIS2_EENS_8IINFieldERKNS_12HeaderRecordERKNS_11ICollectionINS1_IT_EEEEEUlRKS3_E_E7ForeachERNS_8IVisitorIS3_EEEUlSI_E_EE
	.section	.rodata._ZTSN8opendnp314FunctorVisitorINS_7IndexedINS_6BinaryEEEZNKS_21TransformedCollectionIS3_S3_ZNS_18MeasurementHandler14ProcessWithCTOIS2_EENS_8IINFieldERKNS_12HeaderRecordERKNS_11ICollectionINS1_IT_EEEEEUlRKS3_E_E7ForeachERNS_8IVisitorIS3_EEEUlSI_E_EE,"aG",@progbits,_ZTSN8opendnp314FunctorVisitorINS_7IndexedINS_6BinaryEEEZNKS_21TransformedCollectionIS3_S3_ZNS_18MeasurementHandler14ProcessWithCTOIS2_EENS_8IINFieldERKNS_12HeaderRecordERKNS_11ICollectionINS1_IT_EEEEEUlRKS3_E_E7ForeachERNS_8IVisitorIS3_EEEUlSI_E_EE,comdat
	.align 32
	.type	_ZTSN8opendnp314FunctorVisitorINS_7IndexedINS_6BinaryEEEZNKS_21TransformedCollectionIS3_S3_ZNS_18MeasurementHandler14ProcessWithCTOIS2_EENS_8IINFieldERKNS_12HeaderRecordERKNS_11ICollectionINS1_IT_EEEEEUlRKS3_E_E7ForeachERNS_8IVisitorIS3_EEEUlSI_E_EE, @object
	.size	_ZTSN8opendnp314FunctorVisitorINS_7IndexedINS_6BinaryEEEZNKS_21TransformedCollectionIS3_S3_ZNS_18MeasurementHandler14ProcessWithCTOIS2_EENS_8IINFieldERKNS_12HeaderRecordERKNS_11ICollectionINS1_IT_EEEEEUlRKS3_E_E7ForeachERNS_8IVisitorIS3_EEEUlSI_E_EE, 246
_ZTSN8opendnp314FunctorVisitorINS_7IndexedINS_6BinaryEEEZNKS_21TransformedCollectionIS3_S3_ZNS_18MeasurementHandler14ProcessWithCTOIS2_EENS_8IINFieldERKNS_12HeaderRecordERKNS_11ICollectionINS1_IT_EEEEEUlRKS3_E_E7ForeachERNS_8IVisitorIS3_EEEUlSI_E_EE:
	.string	"N8opendnp314FunctorVisitorINS_7IndexedINS_6BinaryEEEZNKS_21TransformedCollectionIS3_S3_ZNS_18MeasurementHandler14ProcessWithCTOIS2_EENS_8IINFieldERKNS_12HeaderRecordERKNS_11ICollectionINS1_IT_EEEEEUlRKS3_E_E7ForeachERNS_8IVisitorIS3_EEEUlSI_E_EE"
	.weak	_ZTIN8opendnp314FunctorVisitorINS_7IndexedINS_6BinaryEEEZNKS_21TransformedCollectionIS3_S3_ZNS_18MeasurementHandler14ProcessWithCTOIS2_EENS_8IINFieldERKNS_12HeaderRecordERKNS_11ICollectionINS1_IT_EEEEEUlRKS3_E_E7ForeachERNS_8IVisitorIS3_EEEUlSI_E_EE
	.section	.data.rel.ro._ZTIN8opendnp314FunctorVisitorINS_7IndexedINS_6BinaryEEEZNKS_21TransformedCollectionIS3_S3_ZNS_18MeasurementHandler14ProcessWithCTOIS2_EENS_8IINFieldERKNS_12HeaderRecordERKNS_11ICollectionINS1_IT_EEEEEUlRKS3_E_E7ForeachERNS_8IVisitorIS3_EEEUlSI_E_EE,"awG",@progbits,_ZTIN8opendnp314FunctorVisitorINS_7IndexedINS_6BinaryEEEZNKS_21TransformedCollectionIS3_S3_ZNS_18MeasurementHandler14ProcessWithCTOIS2_EENS_8IINFieldERKNS_12HeaderRecordERKNS_11ICollectionINS1_IT_EEEEEUlRKS3_E_E7ForeachERNS_8IVisitorIS3_EEEUlSI_E_EE,comdat
	.align 8
	.type	_ZTIN8opendnp314FunctorVisitorINS_7IndexedINS_6BinaryEEEZNKS_21TransformedCollectionIS3_S3_ZNS_18MeasurementHandler14ProcessWithCTOIS2_EENS_8IINFieldERKNS_12HeaderRecordERKNS_11ICollectionINS1_IT_EEEEEUlRKS3_E_E7ForeachERNS_8IVisitorIS3_EEEUlSI_E_EE, @object
	.size	_ZTIN8opendnp314FunctorVisitorINS_7IndexedINS_6BinaryEEEZNKS_21TransformedCollectionIS3_S3_ZNS_18MeasurementHandler14ProcessWithCTOIS2_EENS_8IINFieldERKNS_12HeaderRecordERKNS_11ICollectionINS1_IT_EEEEEUlRKS3_E_E7ForeachERNS_8IVisitorIS3_EEEUlSI_E_EE, 24
_ZTIN8opendnp314FunctorVisitorINS_7IndexedINS_6BinaryEEEZNKS_21TransformedCollectionIS3_S3_ZNS_18MeasurementHandler14ProcessWithCTOIS2_EENS_8IINFieldERKNS_12HeaderRecordERKNS_11ICollectionINS1_IT_EEEEEUlRKS3_E_E7ForeachERNS_8IVisitorIS3_EEEUlSI_E_EE:
	.quad	_ZTVN10__cxxabiv120__si_class_type_infoE+16
	.quad	_ZTSN8opendnp314FunctorVisitorINS_7IndexedINS_6BinaryEEEZNKS_21TransformedCollectionIS3_S3_ZNS_18MeasurementHandler14ProcessWithCTOIS2_EENS_8IINFieldERKNS_12HeaderRecordERKNS_11ICollectionINS1_IT_EEEEEUlRKS3_E_E7ForeachERNS_8IVisitorIS3_EEEUlSI_E_EE
	.quad	_ZTIN8opendnp38IVisitorINS_7IndexedINS_6BinaryEEEEE
	.weak	_ZTSN8opendnp38IVisitorINS_7IndexedINS_12Group121Var1EEEEE
	.section	.rodata._ZTSN8opendnp38IVisitorINS_7IndexedINS_12Group121Var1EEEEE,"aG",@progbits,_ZTSN8opendnp38IVisitorINS_7IndexedINS_12Group121Var1EEEEE,comdat
	.align 32
	.type	_ZTSN8opendnp38IVisitorINS_7IndexedINS_12Group121Var1EEEEE, @object
	.size	_ZTSN8opendnp38IVisitorINS_7IndexedINS_12Group121Var1EEEEE, 55
_ZTSN8opendnp38IVisitorINS_7IndexedINS_12Group121Var1EEEEE:
	.string	"N8opendnp38IVisitorINS_7IndexedINS_12Group121Var1EEEEE"
	.weak	_ZTIN8opendnp38IVisitorINS_7IndexedINS_12Group121Var1EEEEE
	.section	.data.rel.ro._ZTIN8opendnp38IVisitorINS_7IndexedINS_12Group121Var1EEEEE,"awG",@progbits,_ZTIN8opendnp38IVisitorINS_7IndexedINS_12Group121Var1EEEEE,comdat
	.align 8
	.type	_ZTIN8opendnp38IVisitorINS_7IndexedINS_12Group121Var1EEEEE, @object
	.size	_ZTIN8opendnp38IVisitorINS_7IndexedINS_12Group121Var1EEEEE, 16
_ZTIN8opendnp38IVisitorINS_7IndexedINS_12Group121Var1EEEEE:
	.quad	_ZTVN10__cxxabiv117__class_type_infoE+16
	.quad	_ZTSN8opendnp38IVisitorINS_7IndexedINS_12Group121Var1EEEEE
	.weak	_ZTSN8opendnp314FunctorVisitorINS_7IndexedINS_12Group121Var1EEEZNKS_21TransformedCollectionIS3_NS1_INS_12SecurityStatEEEZNS_18MeasurementHandler25LoadValuesWithTransformToIS5_S2_EENS_8IINFieldERKNS_12HeaderRecordERKNS_11ICollectionINS1_IT0_EEEEEUlRKS3_E_E7ForeachERNS_8IVisitorIS6_EEEUlSK_E_EE
	.section	.rodata._ZTSN8opendnp314FunctorVisitorINS_7IndexedINS_12Group121Var1EEEZNKS_21TransformedCollectionIS3_NS1_INS_12SecurityStatEEEZNS_18MeasurementHandler25LoadValuesWithTransformToIS5_S2_EENS_8IINFieldERKNS_12HeaderRecordERKNS_11ICollectionINS1_IT0_EEEEEUlRKS3_E_E7ForeachERNS_8IVisitorIS6_EEEUlSK_E_EE,"aG",@progbits,_ZTSN8opendnp314FunctorVisitorINS_7IndexedINS_12Group121Var1EEEZNKS_21TransformedCollectionIS3_NS1_INS_12SecurityStatEEEZNS_18MeasurementHandler25LoadValuesWithTransformToIS5_S2_EENS_8IINFieldERKNS_12HeaderRecordERKNS_11ICollectionINS1_IT0_EEEEEUlRKS3_E_E7ForeachERNS_8IVisitorIS6_EEEUlSK_E_EE,comdat
	.align 32
	.type	_ZTSN8opendnp314FunctorVisitorINS_7IndexedINS_12Group121Var1EEEZNKS_21TransformedCollectionIS3_NS1_INS_12SecurityStatEEEZNS_18MeasurementHandler25LoadValuesWithTransformToIS5_S2_EENS_8IINFieldERKNS_12HeaderRecordERKNS_11ICollectionINS1_IT0_EEEEEUlRKS3_E_E7ForeachERNS_8IVisitorIS6_EEEUlSK_E_EE, @object
	.size	_ZTSN8opendnp314FunctorVisitorINS_7IndexedINS_12Group121Var1EEEZNKS_21TransformedCollectionIS3_NS1_INS_12SecurityStatEEEZNS_18MeasurementHandler25LoadValuesWithTransformToIS5_S2_EENS_8IINFieldERKNS_12HeaderRecordERKNS_11ICollectionINS1_IT0_EEEEEUlRKS3_E_E7ForeachERNS_8IVisitorIS6_EEEUlSK_E_EE, 290
_ZTSN8opendnp314FunctorVisitorINS_7IndexedINS_12Group121Var1EEEZNKS_21TransformedCollectionIS3_NS1_INS_12SecurityStatEEEZNS_18MeasurementHandler25LoadValuesWithTransformToIS5_S2_EENS_8IINFieldERKNS_12HeaderRecordERKNS_11ICollectionINS1_IT0_EEEEEUlRKS3_E_E7ForeachERNS_8IVisitorIS6_EEEUlSK_E_EE:
	.ascii	"N8opendnp314FunctorVisitorINS_7In"
	.string	"dexedINS_12Group121Var1EEEZNKS_21TransformedCollectionIS3_NS1_INS_12SecurityStatEEEZNS_18MeasurementHandler25LoadValuesWithTransformToIS5_S2_EENS_8IINFieldERKNS_12HeaderRecordERKNS_11ICollectionINS1_IT0_EEEEEUlRKS3_E_E7ForeachERNS_8IVisitorIS6_EEEUlSK_E_EE"
	.weak	_ZTIN8opendnp314FunctorVisitorINS_7IndexedINS_12Group121Var1EEEZNKS_21TransformedCollectionIS3_NS1_INS_12SecurityStatEEEZNS_18MeasurementHandler25LoadValuesWithTransformToIS5_S2_EENS_8IINFieldERKNS_12HeaderRecordERKNS_11ICollectionINS1_IT0_EEEEEUlRKS3_E_E7ForeachERNS_8IVisitorIS6_EEEUlSK_E_EE
	.section	.data.rel.ro._ZTIN8opendnp314FunctorVisitorINS_7IndexedINS_12Group121Var1EEEZNKS_21TransformedCollectionIS3_NS1_INS_12SecurityStatEEEZNS_18MeasurementHandler25LoadValuesWithTransformToIS5_S2_EENS_8IINFieldERKNS_12HeaderRecordERKNS_11ICollectionINS1_IT0_EEEEEUlRKS3_E_E7ForeachERNS_8IVisitorIS6_EEEUlSK_E_EE,"awG",@progbits,_ZTIN8opendnp314FunctorVisitorINS_7IndexedINS_12Group121Var1EEEZNKS_21TransformedCollectionIS3_NS1_INS_12SecurityStatEEEZNS_18MeasurementHandler25LoadValuesWithTransformToIS5_S2_EENS_8IINFieldERKNS_12HeaderRecordERKNS_11ICollectionINS1_IT0_EEEEEUlRKS3_E_E7ForeachERNS_8IVisitorIS6_EEEUlSK_E_EE,comdat
	.align 8
	.type	_ZTIN8opendnp314FunctorVisitorINS_7IndexedINS_12Group121Var1EEEZNKS_21TransformedCollectionIS3_NS1_INS_12SecurityStatEEEZNS_18MeasurementHandler25LoadValuesWithTransformToIS5_S2_EENS_8IINFieldERKNS_12HeaderRecordERKNS_11ICollectionINS1_IT0_EEEEEUlRKS3_E_E7ForeachERNS_8IVisitorIS6_EEEUlSK_E_EE, @object
	.size	_ZTIN8opendnp314FunctorVisitorINS_7IndexedINS_12Group121Var1EEEZNKS_21TransformedCollectionIS3_NS1_INS_12SecurityStatEEEZNS_18MeasurementHandler25LoadValuesWithTransformToIS5_S2_EENS_8IINFieldERKNS_12HeaderRecordERKNS_11ICollectionINS1_IT0_EEEEEUlRKS3_E_E7ForeachERNS_8IVisitorIS6_EEEUlSK_E_EE, 24
_ZTIN8opendnp314FunctorVisitorINS_7IndexedINS_12Group121Var1EEEZNKS_21TransformedCollectionIS3_NS1_INS_12SecurityStatEEEZNS_18MeasurementHandler25LoadValuesWithTransformToIS5_S2_EENS_8IINFieldERKNS_12HeaderRecordERKNS_11ICollectionINS1_IT0_EEEEEUlRKS3_E_E7ForeachERNS_8IVisitorIS6_EEEUlSK_E_EE:
	.quad	_ZTVN10__cxxabiv120__si_class_type_infoE+16
	.quad	_ZTSN8opendnp314FunctorVisitorINS_7IndexedINS_12Group121Var1EEEZNKS_21TransformedCollectionIS3_NS1_INS_12SecurityStatEEEZNS_18MeasurementHandler25LoadValuesWithTransformToIS5_S2_EENS_8IINFieldERKNS_12HeaderRecordERKNS_11ICollectionINS1_IT0_EEEEEUlRKS3_E_E7ForeachERNS_8IVisitorIS6_EEEUlSK_E_EE
	.quad	_ZTIN8opendnp38IVisitorINS_7IndexedINS_12Group121Var1EEEEE
	.weak	_ZTSN8opendnp38IVisitorINS_11Group50Var1EEE
	.section	.rodata._ZTSN8opendnp38IVisitorINS_11Group50Var1EEE,"aG",@progbits,_ZTSN8opendnp38IVisitorINS_11Group50Var1EEE,comdat
	.align 32
	.type	_ZTSN8opendnp38IVisitorINS_11Group50Var1EEE, @object
	.size	_ZTSN8opendnp38IVisitorINS_11Group50Var1EEE, 40
_ZTSN8opendnp38IVisitorINS_11Group50Var1EEE:
	.string	"N8opendnp38IVisitorINS_11Group50Var1EEE"
	.weak	_ZTIN8opendnp38IVisitorINS_11Group50Var1EEE
	.section	.data.rel.ro._ZTIN8opendnp38IVisitorINS_11Group50Var1EEE,"awG",@progbits,_ZTIN8opendnp38IVisitorINS_11Group50Var1EEE,comdat
	.align 8
	.type	_ZTIN8opendnp38IVisitorINS_11Group50Var1EEE, @object
	.size	_ZTIN8opendnp38IVisitorINS_11Group50Var1EEE, 16
_ZTIN8opendnp38IVisitorINS_11Group50Var1EEE:
	.quad	_ZTVN10__cxxabiv117__class_type_infoE+16
	.quad	_ZTSN8opendnp38IVisitorINS_11Group50Var1EEE
	.section	.data.rel.ro,"aw"
	.align 8
	.type	_ZTIN8opendnp314FunctorVisitorINS_11Group50Var1EZNKS_21TransformedCollectionIS1_N7openpal10UInt48TypeEZNS_18MeasurementHandler13ProcessHeaderERKNS_11CountHeaderERKNS_11ICollectionIS1_EEEUlRKS1_E_E7ForeachERNS_8IVisitorIS4_EEEUlSE_E_EE, @object
	.size	_ZTIN8opendnp314FunctorVisitorINS_11Group50Var1EZNKS_21TransformedCollectionIS1_N7openpal10UInt48TypeEZNS_18MeasurementHandler13ProcessHeaderERKNS_11CountHeaderERKNS_11ICollectionIS1_EEEUlRKS1_E_E7ForeachERNS_8IVisitorIS4_EEEUlSE_E_EE, 24
_ZTIN8opendnp314FunctorVisitorINS_11Group50Var1EZNKS_21TransformedCollectionIS1_N7openpal10UInt48TypeEZNS_18MeasurementHandler13ProcessHeaderERKNS_11CountHeaderERKNS_11ICollectionIS1_EEEUlRKS1_E_E7ForeachERNS_8IVisitorIS4_EEEUlSE_E_EE:
	.quad	_ZTVN10__cxxabiv120__si_class_type_infoE+16
	.quad	_ZTSN8opendnp314FunctorVisitorINS_11Group50Var1EZNKS_21TransformedCollectionIS1_N7openpal10UInt48TypeEZNS_18MeasurementHandler13ProcessHeaderERKNS_11CountHeaderERKNS_11ICollectionIS1_EEEUlRKS1_E_E7ForeachERNS_8IVisitorIS4_EEEUlSE_E_EE
	.quad	_ZTIN8opendnp38IVisitorINS_11Group50Var1EEE
	.section	.rodata
	.align 32
	.type	_ZTSN8opendnp314FunctorVisitorINS_11Group50Var1EZNKS_21TransformedCollectionIS1_N7openpal10UInt48TypeEZNS_18MeasurementHandler13ProcessHeaderERKNS_11CountHeaderERKNS_11ICollectionIS1_EEEUlRKS1_E_E7ForeachERNS_8IVisitorIS4_EEEUlSE_E_EE, @object
	.size	_ZTSN8opendnp314FunctorVisitorINS_11Group50Var1EZNKS_21TransformedCollectionIS1_N7openpal10UInt48TypeEZNS_18MeasurementHandler13ProcessHeaderERKNS_11CountHeaderERKNS_11ICollectionIS1_EEEUlRKS1_E_E7ForeachERNS_8IVisitorIS4_EEEUlSE_E_EE, 232
_ZTSN8opendnp314FunctorVisitorINS_11Group50Var1EZNKS_21TransformedCollectionIS1_N7openpal10UInt48TypeEZNS_18MeasurementHandler13ProcessHeaderERKNS_11CountHeaderERKNS_11ICollectionIS1_EEEUlRKS1_E_E7ForeachERNS_8IVisitorIS4_EEEUlSE_E_EE:
	.string	"*N8opendnp314FunctorVisitorINS_11Group50Var1EZNKS_21TransformedCollectionIS1_N7openpal10UInt48TypeEZNS_18MeasurementHandler13ProcessHeaderERKNS_11CountHeaderERKNS_11ICollectionIS1_EEEUlRKS1_E_E7ForeachERNS_8IVisitorIS4_EEEUlSE_E_EE"
	.weak	_ZTVN8opendnp314FunctorVisitorINS_7IndexedINS_12Group122Var2EEEZNKS_21TransformedCollectionIS3_NS1_INS_12SecurityStatEEEZNS_18MeasurementHandler25LoadValuesWithTransformToIS5_S2_EENS_8IINFieldERKNS_12HeaderRecordERKNS_11ICollectionINS1_IT0_EEEEEUlRKS3_E_E7ForeachERNS_8IVisitorIS6_EEEUlSK_E_EE
	.section	.data.rel.ro._ZTVN8opendnp314FunctorVisitorINS_7IndexedINS_12Group122Var2EEEZNKS_21TransformedCollectionIS3_NS1_INS_12SecurityStatEEEZNS_18MeasurementHandler25LoadValuesWithTransformToIS5_S2_EENS_8IINFieldERKNS_12HeaderRecordERKNS_11ICollectionINS1_IT0_EEEEEUlRKS3_E_E7ForeachERNS_8IVisitorIS6_EEEUlSK_E_EE,"awG",@progbits,_ZTVN8opendnp314FunctorVisitorINS_7IndexedINS_12Group122Var2EEEZNKS_21TransformedCollectionIS3_NS1_INS_12SecurityStatEEEZNS_18MeasurementHandler25LoadValuesWithTransformToIS5_S2_EENS_8IINFieldERKNS_12HeaderRecordERKNS_11ICollectionINS1_IT0_EEEEEUlRKS3_E_E7ForeachERNS_8IVisitorIS6_EEEUlSK_E_EE,comdat
	.align 8
	.type	_ZTVN8opendnp314FunctorVisitorINS_7IndexedINS_12Group122Var2EEEZNKS_21TransformedCollectionIS3_NS1_INS_12SecurityStatEEEZNS_18MeasurementHandler25LoadValuesWithTransformToIS5_S2_EENS_8IINFieldERKNS_12HeaderRecordERKNS_11ICollectionINS1_IT0_EEEEEUlRKS3_E_E7ForeachERNS_8IVisitorIS6_EEEUlSK_E_EE, @object
	.size	_ZTVN8opendnp314FunctorVisitorINS_7IndexedINS_12Group122Var2EEEZNKS_21TransformedCollectionIS3_NS1_INS_12SecurityStatEEEZNS_18MeasurementHandler25LoadValuesWithTransformToIS5_S2_EENS_8IINFieldERKNS_12HeaderRecordERKNS_11ICollectionINS1_IT0_EEEEEUlRKS3_E_E7ForeachERNS_8IVisitorIS6_EEEUlSK_E_EE, 24
_ZTVN8opendnp314FunctorVisitorINS_7IndexedINS_12Group122Var2EEEZNKS_21TransformedCollectionIS3_NS1_INS_12SecurityStatEEEZNS_18MeasurementHandler25LoadValuesWithTransformToIS5_S2_EENS_8IINFieldERKNS_12HeaderRecordERKNS_11ICollectionINS1_IT0_EEEEEUlRKS3_E_E7ForeachERNS_8IVisitorIS6_EEEUlSK_E_EE:
	.quad	0
	.quad	_ZTIN8opendnp314FunctorVisitorINS_7IndexedINS_12Group122Var2EEEZNKS_21TransformedCollectionIS3_NS1_INS_12SecurityStatEEEZNS_18MeasurementHandler25LoadValuesWithTransformToIS5_S2_EENS_8IINFieldERKNS_12HeaderRecordERKNS_11ICollectionINS1_IT0_EEEEEUlRKS3_E_E7ForeachERNS_8IVisitorIS6_EEEUlSK_E_EE
	.quad	_ZN8opendnp314FunctorVisitorINS_7IndexedINS_12Group122Var2EEEZNKS_21TransformedCollectionIS3_NS1_INS_12SecurityStatEEEZNS_18MeasurementHandler25LoadValuesWithTransformToIS5_S2_EENS_8IINFieldERKNS_12HeaderRecordERKNS_11ICollectionINS1_IT0_EEEEEUlRKS3_E_E7ForeachERNS_8IVisitorIS6_EEEUlSK_E_E7OnValueESK_
	.weak	_ZTVN8opendnp314FunctorVisitorINS_7IndexedINS_12Group122Var1EEEZNKS_21TransformedCollectionIS3_NS1_INS_12SecurityStatEEEZNS_18MeasurementHandler25LoadValuesWithTransformToIS5_S2_EENS_8IINFieldERKNS_12HeaderRecordERKNS_11ICollectionINS1_IT0_EEEEEUlRKS3_E_E7ForeachERNS_8IVisitorIS6_EEEUlSK_E_EE
	.section	.data.rel.ro._ZTVN8opendnp314FunctorVisitorINS_7IndexedINS_12Group122Var1EEEZNKS_21TransformedCollectionIS3_NS1_INS_12SecurityStatEEEZNS_18MeasurementHandler25LoadValuesWithTransformToIS5_S2_EENS_8IINFieldERKNS_12HeaderRecordERKNS_11ICollectionINS1_IT0_EEEEEUlRKS3_E_E7ForeachERNS_8IVisitorIS6_EEEUlSK_E_EE,"awG",@progbits,_ZTVN8opendnp314FunctorVisitorINS_7IndexedINS_12Group122Var1EEEZNKS_21TransformedCollectionIS3_NS1_INS_12SecurityStatEEEZNS_18MeasurementHandler25LoadValuesWithTransformToIS5_S2_EENS_8IINFieldERKNS_12HeaderRecordERKNS_11ICollectionINS1_IT0_EEEEEUlRKS3_E_E7ForeachERNS_8IVisitorIS6_EEEUlSK_E_EE,comdat
	.align 8
	.type	_ZTVN8opendnp314FunctorVisitorINS_7IndexedINS_12Group122Var1EEEZNKS_21TransformedCollectionIS3_NS1_INS_12SecurityStatEEEZNS_18MeasurementHandler25LoadValuesWithTransformToIS5_S2_EENS_8IINFieldERKNS_12HeaderRecordERKNS_11ICollectionINS1_IT0_EEEEEUlRKS3_E_E7ForeachERNS_8IVisitorIS6_EEEUlSK_E_EE, @object
	.size	_ZTVN8opendnp314FunctorVisitorINS_7IndexedINS_12Group122Var1EEEZNKS_21TransformedCollectionIS3_NS1_INS_12SecurityStatEEEZNS_18MeasurementHandler25LoadValuesWithTransformToIS5_S2_EENS_8IINFieldERKNS_12HeaderRecordERKNS_11ICollectionINS1_IT0_EEEEEUlRKS3_E_E7ForeachERNS_8IVisitorIS6_EEEUlSK_E_EE, 24
_ZTVN8opendnp314FunctorVisitorINS_7IndexedINS_12Group122Var1EEEZNKS_21TransformedCollectionIS3_NS1_INS_12SecurityStatEEEZNS_18MeasurementHandler25LoadValuesWithTransformToIS5_S2_EENS_8IINFieldERKNS_12HeaderRecordERKNS_11ICollectionINS1_IT0_EEEEEUlRKS3_E_E7ForeachERNS_8IVisitorIS6_EEEUlSK_E_EE:
	.quad	0
	.quad	_ZTIN8opendnp314FunctorVisitorINS_7IndexedINS_12Group122Var1EEEZNKS_21TransformedCollectionIS3_NS1_INS_12SecurityStatEEEZNS_18MeasurementHandler25LoadValuesWithTransformToIS5_S2_EENS_8IINFieldERKNS_12HeaderRecordERKNS_11ICollectionINS1_IT0_EEEEEUlRKS3_E_E7ForeachERNS_8IVisitorIS6_EEEUlSK_E_EE
	.quad	_ZN8opendnp314FunctorVisitorINS_7IndexedINS_12Group122Var1EEEZNKS_21TransformedCollectionIS3_NS1_INS_12SecurityStatEEEZNS_18MeasurementHandler25LoadValuesWithTransformToIS5_S2_EENS_8IINFieldERKNS_12HeaderRecordERKNS_11ICollectionINS1_IT0_EEEEEUlRKS3_E_E7ForeachERNS_8IVisitorIS6_EEEUlSK_E_E7OnValueESK_
	.weak	_ZTVN8opendnp314FunctorVisitorINS_7IndexedINS_15DoubleBitBinaryEEEZNKS_21TransformedCollectionIS3_S3_ZNS_18MeasurementHandler14ProcessWithCTOIS2_EENS_8IINFieldERKNS_12HeaderRecordERKNS_11ICollectionINS1_IT_EEEEEUlRKS3_E_E7ForeachERNS_8IVisitorIS3_EEEUlSI_E_EE
	.section	.data.rel.ro._ZTVN8opendnp314FunctorVisitorINS_7IndexedINS_15DoubleBitBinaryEEEZNKS_21TransformedCollectionIS3_S3_ZNS_18MeasurementHandler14ProcessWithCTOIS2_EENS_8IINFieldERKNS_12HeaderRecordERKNS_11ICollectionINS1_IT_EEEEEUlRKS3_E_E7ForeachERNS_8IVisitorIS3_EEEUlSI_E_EE,"awG",@progbits,_ZTVN8opendnp314FunctorVisitorINS_7IndexedINS_15DoubleBitBinaryEEEZNKS_21TransformedCollectionIS3_S3_ZNS_18MeasurementHandler14ProcessWithCTOIS2_EENS_8IINFieldERKNS_12HeaderRecordERKNS_11ICollectionINS1_IT_EEEEEUlRKS3_E_E7ForeachERNS_8IVisitorIS3_EEEUlSI_E_EE,comdat
	.align 8
	.type	_ZTVN8opendnp314FunctorVisitorINS_7IndexedINS_15DoubleBitBinaryEEEZNKS_21TransformedCollectionIS3_S3_ZNS_18MeasurementHandler14ProcessWithCTOIS2_EENS_8IINFieldERKNS_12HeaderRecordERKNS_11ICollectionINS1_IT_EEEEEUlRKS3_E_E7ForeachERNS_8IVisitorIS3_EEEUlSI_E_EE, @object
	.size	_ZTVN8opendnp314FunctorVisitorINS_7IndexedINS_15DoubleBitBinaryEEEZNKS_21TransformedCollectionIS3_S3_ZNS_18MeasurementHandler14ProcessWithCTOIS2_EENS_8IINFieldERKNS_12HeaderRecordERKNS_11ICollectionINS1_IT_EEEEEUlRKS3_E_E7ForeachERNS_8IVisitorIS3_EEEUlSI_E_EE, 24
_ZTVN8opendnp314FunctorVisitorINS_7IndexedINS_15DoubleBitBinaryEEEZNKS_21TransformedCollectionIS3_S3_ZNS_18MeasurementHandler14ProcessWithCTOIS2_EENS_8IINFieldERKNS_12HeaderRecordERKNS_11ICollectionINS1_IT_EEEEEUlRKS3_E_E7ForeachERNS_8IVisitorIS3_EEEUlSI_E_EE:
	.quad	0
	.quad	_ZTIN8opendnp314FunctorVisitorINS_7IndexedINS_15DoubleBitBinaryEEEZNKS_21TransformedCollectionIS3_S3_ZNS_18MeasurementHandler14ProcessWithCTOIS2_EENS_8IINFieldERKNS_12HeaderRecordERKNS_11ICollectionINS1_IT_EEEEEUlRKS3_E_E7ForeachERNS_8IVisitorIS3_EEEUlSI_E_EE
	.quad	_ZN8opendnp314FunctorVisitorINS_7IndexedINS_15DoubleBitBinaryEEEZNKS_21TransformedCollectionIS3_S3_ZNS_18MeasurementHandler14ProcessWithCTOIS2_EENS_8IINFieldERKNS_12HeaderRecordERKNS_11ICollectionINS1_IT_EEEEEUlRKS3_E_E7ForeachERNS_8IVisitorIS3_EEEUlSI_E_E7OnValueESI_
	.weak	_ZTVN8opendnp314FunctorVisitorINS_7IndexedINS_6BinaryEEEZNKS_21TransformedCollectionIS3_S3_ZNS_18MeasurementHandler14ProcessWithCTOIS2_EENS_8IINFieldERKNS_12HeaderRecordERKNS_11ICollectionINS1_IT_EEEEEUlRKS3_E_E7ForeachERNS_8IVisitorIS3_EEEUlSI_E_EE
	.section	.data.rel.ro._ZTVN8opendnp314FunctorVisitorINS_7IndexedINS_6BinaryEEEZNKS_21TransformedCollectionIS3_S3_ZNS_18MeasurementHandler14ProcessWithCTOIS2_EENS_8IINFieldERKNS_12HeaderRecordERKNS_11ICollectionINS1_IT_EEEEEUlRKS3_E_E7ForeachERNS_8IVisitorIS3_EEEUlSI_E_EE,"awG",@progbits,_ZTVN8opendnp314FunctorVisitorINS_7IndexedINS_6BinaryEEEZNKS_21TransformedCollectionIS3_S3_ZNS_18MeasurementHandler14ProcessWithCTOIS2_EENS_8IINFieldERKNS_12HeaderRecordERKNS_11ICollectionINS1_IT_EEEEEUlRKS3_E_E7ForeachERNS_8IVisitorIS3_EEEUlSI_E_EE,comdat
	.align 8
	.type	_ZTVN8opendnp314FunctorVisitorINS_7IndexedINS_6BinaryEEEZNKS_21TransformedCollectionIS3_S3_ZNS_18MeasurementHandler14ProcessWithCTOIS2_EENS_8IINFieldERKNS_12HeaderRecordERKNS_11ICollectionINS1_IT_EEEEEUlRKS3_E_E7ForeachERNS_8IVisitorIS3_EEEUlSI_E_EE, @object
	.size	_ZTVN8opendnp314FunctorVisitorINS_7IndexedINS_6BinaryEEEZNKS_21TransformedCollectionIS3_S3_ZNS_18MeasurementHandler14ProcessWithCTOIS2_EENS_8IINFieldERKNS_12HeaderRecordERKNS_11ICollectionINS1_IT_EEEEEUlRKS3_E_E7ForeachERNS_8IVisitorIS3_EEEUlSI_E_EE, 24
_ZTVN8opendnp314FunctorVisitorINS_7IndexedINS_6BinaryEEEZNKS_21TransformedCollectionIS3_S3_ZNS_18MeasurementHandler14ProcessWithCTOIS2_EENS_8IINFieldERKNS_12HeaderRecordERKNS_11ICollectionINS1_IT_EEEEEUlRKS3_E_E7ForeachERNS_8IVisitorIS3_EEEUlSI_E_EE:
	.quad	0
	.quad	_ZTIN8opendnp314FunctorVisitorINS_7IndexedINS_6BinaryEEEZNKS_21TransformedCollectionIS3_S3_ZNS_18MeasurementHandler14ProcessWithCTOIS2_EENS_8IINFieldERKNS_12HeaderRecordERKNS_11ICollectionINS1_IT_EEEEEUlRKS3_E_E7ForeachERNS_8IVisitorIS3_EEEUlSI_E_EE
	.quad	_ZN8opendnp314FunctorVisitorINS_7IndexedINS_6BinaryEEEZNKS_21TransformedCollectionIS3_S3_ZNS_18MeasurementHandler14ProcessWithCTOIS2_EENS_8IINFieldERKNS_12HeaderRecordERKNS_11ICollectionINS1_IT_EEEEEUlRKS3_E_E7ForeachERNS_8IVisitorIS3_EEEUlSI_E_E7OnValueESI_
	.weak	_ZTVN8opendnp314FunctorVisitorINS_7IndexedINS_12Group121Var1EEEZNKS_21TransformedCollectionIS3_NS1_INS_12SecurityStatEEEZNS_18MeasurementHandler25LoadValuesWithTransformToIS5_S2_EENS_8IINFieldERKNS_12HeaderRecordERKNS_11ICollectionINS1_IT0_EEEEEUlRKS3_E_E7ForeachERNS_8IVisitorIS6_EEEUlSK_E_EE
	.section	.data.rel.ro._ZTVN8opendnp314FunctorVisitorINS_7IndexedINS_12Group121Var1EEEZNKS_21TransformedCollectionIS3_NS1_INS_12SecurityStatEEEZNS_18MeasurementHandler25LoadValuesWithTransformToIS5_S2_EENS_8IINFieldERKNS_12HeaderRecordERKNS_11ICollectionINS1_IT0_EEEEEUlRKS3_E_E7ForeachERNS_8IVisitorIS6_EEEUlSK_E_EE,"awG",@progbits,_ZTVN8opendnp314FunctorVisitorINS_7IndexedINS_12Group121Var1EEEZNKS_21TransformedCollectionIS3_NS1_INS_12SecurityStatEEEZNS_18MeasurementHandler25LoadValuesWithTransformToIS5_S2_EENS_8IINFieldERKNS_12HeaderRecordERKNS_11ICollectionINS1_IT0_EEEEEUlRKS3_E_E7ForeachERNS_8IVisitorIS6_EEEUlSK_E_EE,comdat
	.align 8
	.type	_ZTVN8opendnp314FunctorVisitorINS_7IndexedINS_12Group121Var1EEEZNKS_21TransformedCollectionIS3_NS1_INS_12SecurityStatEEEZNS_18MeasurementHandler25LoadValuesWithTransformToIS5_S2_EENS_8IINFieldERKNS_12HeaderRecordERKNS_11ICollectionINS1_IT0_EEEEEUlRKS3_E_E7ForeachERNS_8IVisitorIS6_EEEUlSK_E_EE, @object
	.size	_ZTVN8opendnp314FunctorVisitorINS_7IndexedINS_12Group121Var1EEEZNKS_21TransformedCollectionIS3_NS1_INS_12SecurityStatEEEZNS_18MeasurementHandler25LoadValuesWithTransformToIS5_S2_EENS_8IINFieldERKNS_12HeaderRecordERKNS_11ICollectionINS1_IT0_EEEEEUlRKS3_E_E7ForeachERNS_8IVisitorIS6_EEEUlSK_E_EE, 24
_ZTVN8opendnp314FunctorVisitorINS_7IndexedINS_12Group121Var1EEEZNKS_21TransformedCollectionIS3_NS1_INS_12SecurityStatEEEZNS_18MeasurementHandler25LoadValuesWithTransformToIS5_S2_EENS_8IINFieldERKNS_12HeaderRecordERKNS_11ICollectionINS1_IT0_EEEEEUlRKS3_E_E7ForeachERNS_8IVisitorIS6_EEEUlSK_E_EE:
	.quad	0
	.quad	_ZTIN8opendnp314FunctorVisitorINS_7IndexedINS_12Group121Var1EEEZNKS_21TransformedCollectionIS3_NS1_INS_12SecurityStatEEEZNS_18MeasurementHandler25LoadValuesWithTransformToIS5_S2_EENS_8IINFieldERKNS_12HeaderRecordERKNS_11ICollectionINS1_IT0_EEEEEUlRKS3_E_E7ForeachERNS_8IVisitorIS6_EEEUlSK_E_EE
	.quad	_ZN8opendnp314FunctorVisitorINS_7IndexedINS_12Group121Var1EEEZNKS_21TransformedCollectionIS3_NS1_INS_12SecurityStatEEEZNS_18MeasurementHandler25LoadValuesWithTransformToIS5_S2_EENS_8IINFieldERKNS_12HeaderRecordERKNS_11ICollectionINS1_IT0_EEEEEUlRKS3_E_E7ForeachERNS_8IVisitorIS6_EEEUlSK_E_E7OnValueESK_
	.section	.data.rel.ro.local,"aw"
	.align 8
	.type	_ZTVN8opendnp314FunctorVisitorINS_11Group50Var1EZNKS_21TransformedCollectionIS1_N7openpal10UInt48TypeEZNS_18MeasurementHandler13ProcessHeaderERKNS_11CountHeaderERKNS_11ICollectionIS1_EEEUlRKS1_E_E7ForeachERNS_8IVisitorIS4_EEEUlSE_E_EE, @object
	.size	_ZTVN8opendnp314FunctorVisitorINS_11Group50Var1EZNKS_21TransformedCollectionIS1_N7openpal10UInt48TypeEZNS_18MeasurementHandler13ProcessHeaderERKNS_11CountHeaderERKNS_11ICollectionIS1_EEEUlRKS1_E_E7ForeachERNS_8IVisitorIS4_EEEUlSE_E_EE, 24
_ZTVN8opendnp314FunctorVisitorINS_11Group50Var1EZNKS_21TransformedCollectionIS1_N7openpal10UInt48TypeEZNS_18MeasurementHandler13ProcessHeaderERKNS_11CountHeaderERKNS_11ICollectionIS1_EEEUlRKS1_E_E7ForeachERNS_8IVisitorIS4_EEEUlSE_E_EE:
	.quad	0
	.quad	_ZTIN8opendnp314FunctorVisitorINS_11Group50Var1EZNKS_21TransformedCollectionIS1_N7openpal10UInt48TypeEZNS_18MeasurementHandler13ProcessHeaderERKNS_11CountHeaderERKNS_11ICollectionIS1_EEEUlRKS1_E_E7ForeachERNS_8IVisitorIS4_EEEUlSE_E_EE
	.quad	_ZN8opendnp314FunctorVisitorINS_11Group50Var1EZNKS_21TransformedCollectionIS1_N7openpal10UInt48TypeEZNS_18MeasurementHandler13ProcessHeaderERKNS_11CountHeaderERKNS_11ICollectionIS1_EEEUlRKS1_E_E7ForeachERNS_8IVisitorIS4_EEEUlSE_E_E7OnValueESE_
	.weak	_ZTSN8opendnp318MeasurementHandlerE
	.section	.rodata._ZTSN8opendnp318MeasurementHandlerE,"aG",@progbits,_ZTSN8opendnp318MeasurementHandlerE,comdat
	.align 32
	.type	_ZTSN8opendnp318MeasurementHandlerE, @object
	.size	_ZTSN8opendnp318MeasurementHandlerE, 32
_ZTSN8opendnp318MeasurementHandlerE:
	.string	"N8opendnp318MeasurementHandlerE"
	.weak	_ZTIN8opendnp318MeasurementHandlerE
	.section	.data.rel.ro._ZTIN8opendnp318MeasurementHandlerE,"awG",@progbits,_ZTIN8opendnp318MeasurementHandlerE,comdat
	.align 8
	.type	_ZTIN8opendnp318MeasurementHandlerE, @object
	.size	_ZTIN8opendnp318MeasurementHandlerE, 24
_ZTIN8opendnp318MeasurementHandlerE:
	.quad	_ZTVN10__cxxabiv120__si_class_type_infoE+16
	.quad	_ZTSN8opendnp318MeasurementHandlerE
	.quad	_ZTIN8opendnp312IAPDUHandlerE
	.weak	_ZTSN8opendnp311ICollectionIN7openpal10UInt48TypeEEE
	.section	.rodata._ZTSN8opendnp311ICollectionIN7openpal10UInt48TypeEEE,"aG",@progbits,_ZTSN8opendnp311ICollectionIN7openpal10UInt48TypeEEE,comdat
	.align 32
	.type	_ZTSN8opendnp311ICollectionIN7openpal10UInt48TypeEEE, @object
	.size	_ZTSN8opendnp311ICollectionIN7openpal10UInt48TypeEEE, 49
_ZTSN8opendnp311ICollectionIN7openpal10UInt48TypeEEE:
	.string	"N8opendnp311ICollectionIN7openpal10UInt48TypeEEE"
	.weak	_ZTIN8opendnp311ICollectionIN7openpal10UInt48TypeEEE
	.section	.data.rel.ro._ZTIN8opendnp311ICollectionIN7openpal10UInt48TypeEEE,"awG",@progbits,_ZTIN8opendnp311ICollectionIN7openpal10UInt48TypeEEE,comdat
	.align 8
	.type	_ZTIN8opendnp311ICollectionIN7openpal10UInt48TypeEEE, @object
	.size	_ZTIN8opendnp311ICollectionIN7openpal10UInt48TypeEEE, 16
_ZTIN8opendnp311ICollectionIN7openpal10UInt48TypeEEE:
	.quad	_ZTVN10__cxxabiv117__class_type_infoE+16
	.quad	_ZTSN8opendnp311ICollectionIN7openpal10UInt48TypeEEE
	.section	.data.rel.ro
	.align 8
	.type	_ZTIN8opendnp321TransformedCollectionINS_11Group50Var1EN7openpal10UInt48TypeEZNS_18MeasurementHandler13ProcessHeaderERKNS_11CountHeaderERKNS_11ICollectionIS1_EEEUlRKS1_E_EE, @object
	.size	_ZTIN8opendnp321TransformedCollectionINS_11Group50Var1EN7openpal10UInt48TypeEZNS_18MeasurementHandler13ProcessHeaderERKNS_11CountHeaderERKNS_11ICollectionIS1_EEEUlRKS1_E_EE, 24
_ZTIN8opendnp321TransformedCollectionINS_11Group50Var1EN7openpal10UInt48TypeEZNS_18MeasurementHandler13ProcessHeaderERKNS_11CountHeaderERKNS_11ICollectionIS1_EEEUlRKS1_E_EE:
	.quad	_ZTVN10__cxxabiv120__si_class_type_infoE+16
	.quad	_ZTSN8opendnp321TransformedCollectionINS_11Group50Var1EN7openpal10UInt48TypeEZNS_18MeasurementHandler13ProcessHeaderERKNS_11CountHeaderERKNS_11ICollectionIS1_EEEUlRKS1_E_EE
	.quad	_ZTIN8opendnp311ICollectionIN7openpal10UInt48TypeEEE
	.section	.rodata
	.align 32
	.type	_ZTSN8opendnp321TransformedCollectionINS_11Group50Var1EN7openpal10UInt48TypeEZNS_18MeasurementHandler13ProcessHeaderERKNS_11CountHeaderERKNS_11ICollectionIS1_EEEUlRKS1_E_EE, @object
	.size	_ZTSN8opendnp321TransformedCollectionINS_11Group50Var1EN7openpal10UInt48TypeEZNS_18MeasurementHandler13ProcessHeaderERKNS_11CountHeaderERKNS_11ICollectionIS1_EEEUlRKS1_E_EE, 170
_ZTSN8opendnp321TransformedCollectionINS_11Group50Var1EN7openpal10UInt48TypeEZNS_18MeasurementHandler13ProcessHeaderERKNS_11CountHeaderERKNS_11ICollectionIS1_EEEUlRKS1_E_EE:
	.string	"*N8opendnp321TransformedCollectionINS_11Group50Var1EN7openpal10UInt48TypeEZNS_18MeasurementHandler13ProcessHeaderERKNS_11CountHeaderERKNS_11ICollectionIS1_EEEUlRKS1_E_EE"
	.weak	_ZTSN8opendnp311ICollectionINS_7IndexedINS_12SecurityStatEEEEE
	.section	.rodata._ZTSN8opendnp311ICollectionINS_7IndexedINS_12SecurityStatEEEEE,"aG",@progbits,_ZTSN8opendnp311ICollectionINS_7IndexedINS_12SecurityStatEEEEE,comdat
	.align 32
	.type	_ZTSN8opendnp311ICollectionINS_7IndexedINS_12SecurityStatEEEEE, @object
	.size	_ZTSN8opendnp311ICollectionINS_7IndexedINS_12SecurityStatEEEEE, 59
_ZTSN8opendnp311ICollectionINS_7IndexedINS_12SecurityStatEEEEE:
	.string	"N8opendnp311ICollectionINS_7IndexedINS_12SecurityStatEEEEE"
	.weak	_ZTIN8opendnp311ICollectionINS_7IndexedINS_12SecurityStatEEEEE
	.section	.data.rel.ro._ZTIN8opendnp311ICollectionINS_7IndexedINS_12SecurityStatEEEEE,"awG",@progbits,_ZTIN8opendnp311ICollectionINS_7IndexedINS_12SecurityStatEEEEE,comdat
	.align 8
	.type	_ZTIN8opendnp311ICollectionINS_7IndexedINS_12SecurityStatEEEEE, @object
	.size	_ZTIN8opendnp311ICollectionINS_7IndexedINS_12SecurityStatEEEEE, 16
_ZTIN8opendnp311ICollectionINS_7IndexedINS_12SecurityStatEEEEE:
	.quad	_ZTVN10__cxxabiv117__class_type_infoE+16
	.quad	_ZTSN8opendnp311ICollectionINS_7IndexedINS_12SecurityStatEEEEE
	.weak	_ZTSN8opendnp311ICollectionINS_7IndexedINS_15DoubleBitBinaryEEEEE
	.section	.rodata._ZTSN8opendnp311ICollectionINS_7IndexedINS_15DoubleBitBinaryEEEEE,"aG",@progbits,_ZTSN8opendnp311ICollectionINS_7IndexedINS_15DoubleBitBinaryEEEEE,comdat
	.align 32
	.type	_ZTSN8opendnp311ICollectionINS_7IndexedINS_15DoubleBitBinaryEEEEE, @object
	.size	_ZTSN8opendnp311ICollectionINS_7IndexedINS_15DoubleBitBinaryEEEEE, 62
_ZTSN8opendnp311ICollectionINS_7IndexedINS_15DoubleBitBinaryEEEEE:
	.string	"N8opendnp311ICollectionINS_7IndexedINS_15DoubleBitBinaryEEEEE"
	.weak	_ZTIN8opendnp311ICollectionINS_7IndexedINS_15DoubleBitBinaryEEEEE
	.section	.data.rel.ro._ZTIN8opendnp311ICollectionINS_7IndexedINS_15DoubleBitBinaryEEEEE,"awG",@progbits,_ZTIN8opendnp311ICollectionINS_7IndexedINS_15DoubleBitBinaryEEEEE,comdat
	.align 8
	.type	_ZTIN8opendnp311ICollectionINS_7IndexedINS_15DoubleBitBinaryEEEEE, @object
	.size	_ZTIN8opendnp311ICollectionINS_7IndexedINS_15DoubleBitBinaryEEEEE, 16
_ZTIN8opendnp311ICollectionINS_7IndexedINS_15DoubleBitBinaryEEEEE:
	.quad	_ZTVN10__cxxabiv117__class_type_infoE+16
	.quad	_ZTSN8opendnp311ICollectionINS_7IndexedINS_15DoubleBitBinaryEEEEE
	.weak	_ZTSN8opendnp311ICollectionINS_7IndexedINS_6BinaryEEEEE
	.section	.rodata._ZTSN8opendnp311ICollectionINS_7IndexedINS_6BinaryEEEEE,"aG",@progbits,_ZTSN8opendnp311ICollectionINS_7IndexedINS_6BinaryEEEEE,comdat
	.align 32
	.type	_ZTSN8opendnp311ICollectionINS_7IndexedINS_6BinaryEEEEE, @object
	.size	_ZTSN8opendnp311ICollectionINS_7IndexedINS_6BinaryEEEEE, 52
_ZTSN8opendnp311ICollectionINS_7IndexedINS_6BinaryEEEEE:
	.string	"N8opendnp311ICollectionINS_7IndexedINS_6BinaryEEEEE"
	.weak	_ZTIN8opendnp311ICollectionINS_7IndexedINS_6BinaryEEEEE
	.section	.data.rel.ro._ZTIN8opendnp311ICollectionINS_7IndexedINS_6BinaryEEEEE,"awG",@progbits,_ZTIN8opendnp311ICollectionINS_7IndexedINS_6BinaryEEEEE,comdat
	.align 8
	.type	_ZTIN8opendnp311ICollectionINS_7IndexedINS_6BinaryEEEEE, @object
	.size	_ZTIN8opendnp311ICollectionINS_7IndexedINS_6BinaryEEEEE, 16
_ZTIN8opendnp311ICollectionINS_7IndexedINS_6BinaryEEEEE:
	.quad	_ZTVN10__cxxabiv117__class_type_infoE+16
	.quad	_ZTSN8opendnp311ICollectionINS_7IndexedINS_6BinaryEEEEE
	.weak	_ZTSN8opendnp321TransformedCollectionINS_7IndexedINS_12Group121Var1EEENS1_INS_12SecurityStatEEEZNS_18MeasurementHandler25LoadValuesWithTransformToIS4_S2_EENS_8IINFieldERKNS_12HeaderRecordERKNS_11ICollectionINS1_IT0_EEEEEUlRKS3_E_EE
	.section	.rodata._ZTSN8opendnp321TransformedCollectionINS_7IndexedINS_12Group121Var1EEENS1_INS_12SecurityStatEEEZNS_18MeasurementHandler25LoadValuesWithTransformToIS4_S2_EENS_8IINFieldERKNS_12HeaderRecordERKNS_11ICollectionINS1_IT0_EEEEEUlRKS3_E_EE,"aG",@progbits,_ZTSN8opendnp321TransformedCollectionINS_7IndexedINS_12Group121Var1EEENS1_INS_12SecurityStatEEEZNS_18MeasurementHandler25LoadValuesWithTransformToIS4_S2_EENS_8IINFieldERKNS_12HeaderRecordERKNS_11ICollectionINS1_IT0_EEEEEUlRKS3_E_EE,comdat
	.align 32
	.type	_ZTSN8opendnp321TransformedCollectionINS_7IndexedINS_12Group121Var1EEENS1_INS_12SecurityStatEEEZNS_18MeasurementHandler25LoadValuesWithTransformToIS4_S2_EENS_8IINFieldERKNS_12HeaderRecordERKNS_11ICollectionINS1_IT0_EEEEEUlRKS3_E_EE, @object
	.size	_ZTSN8opendnp321TransformedCollectionINS_7IndexedINS_12Group121Var1EEENS1_INS_12SecurityStatEEEZNS_18MeasurementHandler25LoadValuesWithTransformToIS4_S2_EENS_8IINFieldERKNS_12HeaderRecordERKNS_11ICollectionINS1_IT0_EEEEEUlRKS3_E_EE, 228
_ZTSN8opendnp321TransformedCollectionINS_7IndexedINS_12Group121Var1EEENS1_INS_12SecurityStatEEEZNS_18MeasurementHandler25LoadValuesWithTransformToIS4_S2_EENS_8IINFieldERKNS_12HeaderRecordERKNS_11ICollectionINS1_IT0_EEEEEUlRKS3_E_EE:
	.string	"N8opendnp321TransformedCollectionINS_7IndexedINS_12Group121Var1EEENS1_INS_12SecurityStatEEEZNS_18MeasurementHandler25LoadValuesWithTransformToIS4_S2_EENS_8IINFieldERKNS_12HeaderRecordERKNS_11ICollectionINS1_IT0_EEEEEUlRKS3_E_EE"
	.weak	_ZTIN8opendnp321TransformedCollectionINS_7IndexedINS_12Group121Var1EEENS1_INS_12SecurityStatEEEZNS_18MeasurementHandler25LoadValuesWithTransformToIS4_S2_EENS_8IINFieldERKNS_12HeaderRecordERKNS_11ICollectionINS1_IT0_EEEEEUlRKS3_E_EE
	.section	.data.rel.ro._ZTIN8opendnp321TransformedCollectionINS_7IndexedINS_12Group121Var1EEENS1_INS_12SecurityStatEEEZNS_18MeasurementHandler25LoadValuesWithTransformToIS4_S2_EENS_8IINFieldERKNS_12HeaderRecordERKNS_11ICollectionINS1_IT0_EEEEEUlRKS3_E_EE,"awG",@progbits,_ZTIN8opendnp321TransformedCollectionINS_7IndexedINS_12Group121Var1EEENS1_INS_12SecurityStatEEEZNS_18MeasurementHandler25LoadValuesWithTransformToIS4_S2_EENS_8IINFieldERKNS_12HeaderRecordERKNS_11ICollectionINS1_IT0_EEEEEUlRKS3_E_EE,comdat
	.align 8
	.type	_ZTIN8opendnp321TransformedCollectionINS_7IndexedINS_12Group121Var1EEENS1_INS_12SecurityStatEEEZNS_18MeasurementHandler25LoadValuesWithTransformToIS4_S2_EENS_8IINFieldERKNS_12HeaderRecordERKNS_11ICollectionINS1_IT0_EEEEEUlRKS3_E_EE, @object
	.size	_ZTIN8opendnp321TransformedCollectionINS_7IndexedINS_12Group121Var1EEENS1_INS_12SecurityStatEEEZNS_18MeasurementHandler25LoadValuesWithTransformToIS4_S2_EENS_8IINFieldERKNS_12HeaderRecordERKNS_11ICollectionINS1_IT0_EEEEEUlRKS3_E_EE, 24
_ZTIN8opendnp321TransformedCollectionINS_7IndexedINS_12Group121Var1EEENS1_INS_12SecurityStatEEEZNS_18MeasurementHandler25LoadValuesWithTransformToIS4_S2_EENS_8IINFieldERKNS_12HeaderRecordERKNS_11ICollectionINS1_IT0_EEEEEUlRKS3_E_EE:
	.quad	_ZTVN10__cxxabiv120__si_class_type_infoE+16
	.quad	_ZTSN8opendnp321TransformedCollectionINS_7IndexedINS_12Group121Var1EEENS1_INS_12SecurityStatEEEZNS_18MeasurementHandler25LoadValuesWithTransformToIS4_S2_EENS_8IINFieldERKNS_12HeaderRecordERKNS_11ICollectionINS1_IT0_EEEEEUlRKS3_E_EE
	.quad	_ZTIN8opendnp311ICollectionINS_7IndexedINS_12SecurityStatEEEEE
	.weak	_ZTSN8opendnp321TransformedCollectionINS_7IndexedINS_6BinaryEEES3_ZNS_18MeasurementHandler14ProcessWithCTOIS2_EENS_8IINFieldERKNS_12HeaderRecordERKNS_11ICollectionINS1_IT_EEEEEUlRKS3_E_EE
	.section	.rodata._ZTSN8opendnp321TransformedCollectionINS_7IndexedINS_6BinaryEEES3_ZNS_18MeasurementHandler14ProcessWithCTOIS2_EENS_8IINFieldERKNS_12HeaderRecordERKNS_11ICollectionINS1_IT_EEEEEUlRKS3_E_EE,"aG",@progbits,_ZTSN8opendnp321TransformedCollectionINS_7IndexedINS_6BinaryEEES3_ZNS_18MeasurementHandler14ProcessWithCTOIS2_EENS_8IINFieldERKNS_12HeaderRecordERKNS_11ICollectionINS1_IT_EEEEEUlRKS3_E_EE,comdat
	.align 32
	.type	_ZTSN8opendnp321TransformedCollectionINS_7IndexedINS_6BinaryEEES3_ZNS_18MeasurementHandler14ProcessWithCTOIS2_EENS_8IINFieldERKNS_12HeaderRecordERKNS_11ICollectionINS1_IT_EEEEEUlRKS3_E_EE, @object
	.size	_ZTSN8opendnp321TransformedCollectionINS_7IndexedINS_6BinaryEEES3_ZNS_18MeasurementHandler14ProcessWithCTOIS2_EENS_8IINFieldERKNS_12HeaderRecordERKNS_11ICollectionINS1_IT_EEEEEUlRKS3_E_EE, 184
_ZTSN8opendnp321TransformedCollectionINS_7IndexedINS_6BinaryEEES3_ZNS_18MeasurementHandler14ProcessWithCTOIS2_EENS_8IINFieldERKNS_12HeaderRecordERKNS_11ICollectionINS1_IT_EEEEEUlRKS3_E_EE:
	.string	"N8opendnp321TransformedCollectionINS_7IndexedINS_6BinaryEEES3_ZNS_18MeasurementHandler14ProcessWithCTOIS2_EENS_8IINFieldERKNS_12HeaderRecordERKNS_11ICollectionINS1_IT_EEEEEUlRKS3_E_EE"
	.weak	_ZTIN8opendnp321TransformedCollectionINS_7IndexedINS_6BinaryEEES3_ZNS_18MeasurementHandler14ProcessWithCTOIS2_EENS_8IINFieldERKNS_12HeaderRecordERKNS_11ICollectionINS1_IT_EEEEEUlRKS3_E_EE
	.section	.data.rel.ro._ZTIN8opendnp321TransformedCollectionINS_7IndexedINS_6BinaryEEES3_ZNS_18MeasurementHandler14ProcessWithCTOIS2_EENS_8IINFieldERKNS_12HeaderRecordERKNS_11ICollectionINS1_IT_EEEEEUlRKS3_E_EE,"awG",@progbits,_ZTIN8opendnp321TransformedCollectionINS_7IndexedINS_6BinaryEEES3_ZNS_18MeasurementHandler14ProcessWithCTOIS2_EENS_8IINFieldERKNS_12HeaderRecordERKNS_11ICollectionINS1_IT_EEEEEUlRKS3_E_EE,comdat
	.align 8
	.type	_ZTIN8opendnp321TransformedCollectionINS_7IndexedINS_6BinaryEEES3_ZNS_18MeasurementHandler14ProcessWithCTOIS2_EENS_8IINFieldERKNS_12HeaderRecordERKNS_11ICollectionINS1_IT_EEEEEUlRKS3_E_EE, @object
	.size	_ZTIN8opendnp321TransformedCollectionINS_7IndexedINS_6BinaryEEES3_ZNS_18MeasurementHandler14ProcessWithCTOIS2_EENS_8IINFieldERKNS_12HeaderRecordERKNS_11ICollectionINS1_IT_EEEEEUlRKS3_E_EE, 24
_ZTIN8opendnp321TransformedCollectionINS_7IndexedINS_6BinaryEEES3_ZNS_18MeasurementHandler14ProcessWithCTOIS2_EENS_8IINFieldERKNS_12HeaderRecordERKNS_11ICollectionINS1_IT_EEEEEUlRKS3_E_EE:
	.quad	_ZTVN10__cxxabiv120__si_class_type_infoE+16
	.quad	_ZTSN8opendnp321TransformedCollectionINS_7IndexedINS_6BinaryEEES3_ZNS_18MeasurementHandler14ProcessWithCTOIS2_EENS_8IINFieldERKNS_12HeaderRecordERKNS_11ICollectionINS1_IT_EEEEEUlRKS3_E_EE
	.quad	_ZTIN8opendnp311ICollectionINS_7IndexedINS_6BinaryEEEEE
	.weak	_ZTSN8opendnp321TransformedCollectionINS_7IndexedINS_15DoubleBitBinaryEEES3_ZNS_18MeasurementHandler14ProcessWithCTOIS2_EENS_8IINFieldERKNS_12HeaderRecordERKNS_11ICollectionINS1_IT_EEEEEUlRKS3_E_EE
	.section	.rodata._ZTSN8opendnp321TransformedCollectionINS_7IndexedINS_15DoubleBitBinaryEEES3_ZNS_18MeasurementHandler14ProcessWithCTOIS2_EENS_8IINFieldERKNS_12HeaderRecordERKNS_11ICollectionINS1_IT_EEEEEUlRKS3_E_EE,"aG",@progbits,_ZTSN8opendnp321TransformedCollectionINS_7IndexedINS_15DoubleBitBinaryEEES3_ZNS_18MeasurementHandler14ProcessWithCTOIS2_EENS_8IINFieldERKNS_12HeaderRecordERKNS_11ICollectionINS1_IT_EEEEEUlRKS3_E_EE,comdat
	.align 32
	.type	_ZTSN8opendnp321TransformedCollectionINS_7IndexedINS_15DoubleBitBinaryEEES3_ZNS_18MeasurementHandler14ProcessWithCTOIS2_EENS_8IINFieldERKNS_12HeaderRecordERKNS_11ICollectionINS1_IT_EEEEEUlRKS3_E_EE, @object
	.size	_ZTSN8opendnp321TransformedCollectionINS_7IndexedINS_15DoubleBitBinaryEEES3_ZNS_18MeasurementHandler14ProcessWithCTOIS2_EENS_8IINFieldERKNS_12HeaderRecordERKNS_11ICollectionINS1_IT_EEEEEUlRKS3_E_EE, 194
_ZTSN8opendnp321TransformedCollectionINS_7IndexedINS_15DoubleBitBinaryEEES3_ZNS_18MeasurementHandler14ProcessWithCTOIS2_EENS_8IINFieldERKNS_12HeaderRecordERKNS_11ICollectionINS1_IT_EEEEEUlRKS3_E_EE:
	.string	"N8opendnp321TransformedCollectionINS_7IndexedINS_15DoubleBitBinaryEEES3_ZNS_18MeasurementHandler14ProcessWithCTOIS2_EENS_8IINFieldERKNS_12HeaderRecordERKNS_11ICollectionINS1_IT_EEEEEUlRKS3_E_EE"
	.weak	_ZTIN8opendnp321TransformedCollectionINS_7IndexedINS_15DoubleBitBinaryEEES3_ZNS_18MeasurementHandler14ProcessWithCTOIS2_EENS_8IINFieldERKNS_12HeaderRecordERKNS_11ICollectionINS1_IT_EEEEEUlRKS3_E_EE
	.section	.data.rel.ro._ZTIN8opendnp321TransformedCollectionINS_7IndexedINS_15DoubleBitBinaryEEES3_ZNS_18MeasurementHandler14ProcessWithCTOIS2_EENS_8IINFieldERKNS_12HeaderRecordERKNS_11ICollectionINS1_IT_EEEEEUlRKS3_E_EE,"awG",@progbits,_ZTIN8opendnp321TransformedCollectionINS_7IndexedINS_15DoubleBitBinaryEEES3_ZNS_18MeasurementHandler14ProcessWithCTOIS2_EENS_8IINFieldERKNS_12HeaderRecordERKNS_11ICollectionINS1_IT_EEEEEUlRKS3_E_EE,comdat
	.align 8
	.type	_ZTIN8opendnp321TransformedCollectionINS_7IndexedINS_15DoubleBitBinaryEEES3_ZNS_18MeasurementHandler14ProcessWithCTOIS2_EENS_8IINFieldERKNS_12HeaderRecordERKNS_11ICollectionINS1_IT_EEEEEUlRKS3_E_EE, @object
	.size	_ZTIN8opendnp321TransformedCollectionINS_7IndexedINS_15DoubleBitBinaryEEES3_ZNS_18MeasurementHandler14ProcessWithCTOIS2_EENS_8IINFieldERKNS_12HeaderRecordERKNS_11ICollectionINS1_IT_EEEEEUlRKS3_E_EE, 24
_ZTIN8opendnp321TransformedCollectionINS_7IndexedINS_15DoubleBitBinaryEEES3_ZNS_18MeasurementHandler14ProcessWithCTOIS2_EENS_8IINFieldERKNS_12HeaderRecordERKNS_11ICollectionINS1_IT_EEEEEUlRKS3_E_EE:
	.quad	_ZTVN10__cxxabiv120__si_class_type_infoE+16
	.quad	_ZTSN8opendnp321TransformedCollectionINS_7IndexedINS_15DoubleBitBinaryEEES3_ZNS_18MeasurementHandler14ProcessWithCTOIS2_EENS_8IINFieldERKNS_12HeaderRecordERKNS_11ICollectionINS1_IT_EEEEEUlRKS3_E_EE
	.quad	_ZTIN8opendnp311ICollectionINS_7IndexedINS_15DoubleBitBinaryEEEEE
	.weak	_ZTSN8opendnp321TransformedCollectionINS_7IndexedINS_12Group122Var1EEENS1_INS_12SecurityStatEEEZNS_18MeasurementHandler25LoadValuesWithTransformToIS4_S2_EENS_8IINFieldERKNS_12HeaderRecordERKNS_11ICollectionINS1_IT0_EEEEEUlRKS3_E_EE
	.section	.rodata._ZTSN8opendnp321TransformedCollectionINS_7IndexedINS_12Group122Var1EEENS1_INS_12SecurityStatEEEZNS_18MeasurementHandler25LoadValuesWithTransformToIS4_S2_EENS_8IINFieldERKNS_12HeaderRecordERKNS_11ICollectionINS1_IT0_EEEEEUlRKS3_E_EE,"aG",@progbits,_ZTSN8opendnp321TransformedCollectionINS_7IndexedINS_12Group122Var1EEENS1_INS_12SecurityStatEEEZNS_18MeasurementHandler25LoadValuesWithTransformToIS4_S2_EENS_8IINFieldERKNS_12HeaderRecordERKNS_11ICollectionINS1_IT0_EEEEEUlRKS3_E_EE,comdat
	.align 32
	.type	_ZTSN8opendnp321TransformedCollectionINS_7IndexedINS_12Group122Var1EEENS1_INS_12SecurityStatEEEZNS_18MeasurementHandler25LoadValuesWithTransformToIS4_S2_EENS_8IINFieldERKNS_12HeaderRecordERKNS_11ICollectionINS1_IT0_EEEEEUlRKS3_E_EE, @object
	.size	_ZTSN8opendnp321TransformedCollectionINS_7IndexedINS_12Group122Var1EEENS1_INS_12SecurityStatEEEZNS_18MeasurementHandler25LoadValuesWithTransformToIS4_S2_EENS_8IINFieldERKNS_12HeaderRecordERKNS_11ICollectionINS1_IT0_EEEEEUlRKS3_E_EE, 228
_ZTSN8opendnp321TransformedCollectionINS_7IndexedINS_12Group122Var1EEENS1_INS_12SecurityStatEEEZNS_18MeasurementHandler25LoadValuesWithTransformToIS4_S2_EENS_8IINFieldERKNS_12HeaderRecordERKNS_11ICollectionINS1_IT0_EEEEEUlRKS3_E_EE:
	.string	"N8opendnp321TransformedCollectionINS_7IndexedINS_12Group122Var1EEENS1_INS_12SecurityStatEEEZNS_18MeasurementHandler25LoadValuesWithTransformToIS4_S2_EENS_8IINFieldERKNS_12HeaderRecordERKNS_11ICollectionINS1_IT0_EEEEEUlRKS3_E_EE"
	.weak	_ZTIN8opendnp321TransformedCollectionINS_7IndexedINS_12Group122Var1EEENS1_INS_12SecurityStatEEEZNS_18MeasurementHandler25LoadValuesWithTransformToIS4_S2_EENS_8IINFieldERKNS_12HeaderRecordERKNS_11ICollectionINS1_IT0_EEEEEUlRKS3_E_EE
	.section	.data.rel.ro._ZTIN8opendnp321TransformedCollectionINS_7IndexedINS_12Group122Var1EEENS1_INS_12SecurityStatEEEZNS_18MeasurementHandler25LoadValuesWithTransformToIS4_S2_EENS_8IINFieldERKNS_12HeaderRecordERKNS_11ICollectionINS1_IT0_EEEEEUlRKS3_E_EE,"awG",@progbits,_ZTIN8opendnp321TransformedCollectionINS_7IndexedINS_12Group122Var1EEENS1_INS_12SecurityStatEEEZNS_18MeasurementHandler25LoadValuesWithTransformToIS4_S2_EENS_8IINFieldERKNS_12HeaderRecordERKNS_11ICollectionINS1_IT0_EEEEEUlRKS3_E_EE,comdat
	.align 8
	.type	_ZTIN8opendnp321TransformedCollectionINS_7IndexedINS_12Group122Var1EEENS1_INS_12SecurityStatEEEZNS_18MeasurementHandler25LoadValuesWithTransformToIS4_S2_EENS_8IINFieldERKNS_12HeaderRecordERKNS_11ICollectionINS1_IT0_EEEEEUlRKS3_E_EE, @object
	.size	_ZTIN8opendnp321TransformedCollectionINS_7IndexedINS_12Group122Var1EEENS1_INS_12SecurityStatEEEZNS_18MeasurementHandler25LoadValuesWithTransformToIS4_S2_EENS_8IINFieldERKNS_12HeaderRecordERKNS_11ICollectionINS1_IT0_EEEEEUlRKS3_E_EE, 24
_ZTIN8opendnp321TransformedCollectionINS_7IndexedINS_12Group122Var1EEENS1_INS_12SecurityStatEEEZNS_18MeasurementHandler25LoadValuesWithTransformToIS4_S2_EENS_8IINFieldERKNS_12HeaderRecordERKNS_11ICollectionINS1_IT0_EEEEEUlRKS3_E_EE:
	.quad	_ZTVN10__cxxabiv120__si_class_type_infoE+16
	.quad	_ZTSN8opendnp321TransformedCollectionINS_7IndexedINS_12Group122Var1EEENS1_INS_12SecurityStatEEEZNS_18MeasurementHandler25LoadValuesWithTransformToIS4_S2_EENS_8IINFieldERKNS_12HeaderRecordERKNS_11ICollectionINS1_IT0_EEEEEUlRKS3_E_EE
	.quad	_ZTIN8opendnp311ICollectionINS_7IndexedINS_12SecurityStatEEEEE
	.weak	_ZTSN8opendnp321TransformedCollectionINS_7IndexedINS_12Group122Var2EEENS1_INS_12SecurityStatEEEZNS_18MeasurementHandler25LoadValuesWithTransformToIS4_S2_EENS_8IINFieldERKNS_12HeaderRecordERKNS_11ICollectionINS1_IT0_EEEEEUlRKS3_E_EE
	.section	.rodata._ZTSN8opendnp321TransformedCollectionINS_7IndexedINS_12Group122Var2EEENS1_INS_12SecurityStatEEEZNS_18MeasurementHandler25LoadValuesWithTransformToIS4_S2_EENS_8IINFieldERKNS_12HeaderRecordERKNS_11ICollectionINS1_IT0_EEEEEUlRKS3_E_EE,"aG",@progbits,_ZTSN8opendnp321TransformedCollectionINS_7IndexedINS_12Group122Var2EEENS1_INS_12SecurityStatEEEZNS_18MeasurementHandler25LoadValuesWithTransformToIS4_S2_EENS_8IINFieldERKNS_12HeaderRecordERKNS_11ICollectionINS1_IT0_EEEEEUlRKS3_E_EE,comdat
	.align 32
	.type	_ZTSN8opendnp321TransformedCollectionINS_7IndexedINS_12Group122Var2EEENS1_INS_12SecurityStatEEEZNS_18MeasurementHandler25LoadValuesWithTransformToIS4_S2_EENS_8IINFieldERKNS_12HeaderRecordERKNS_11ICollectionINS1_IT0_EEEEEUlRKS3_E_EE, @object
	.size	_ZTSN8opendnp321TransformedCollectionINS_7IndexedINS_12Group122Var2EEENS1_INS_12SecurityStatEEEZNS_18MeasurementHandler25LoadValuesWithTransformToIS4_S2_EENS_8IINFieldERKNS_12HeaderRecordERKNS_11ICollectionINS1_IT0_EEEEEUlRKS3_E_EE, 228
_ZTSN8opendnp321TransformedCollectionINS_7IndexedINS_12Group122Var2EEENS1_INS_12SecurityStatEEEZNS_18MeasurementHandler25LoadValuesWithTransformToIS4_S2_EENS_8IINFieldERKNS_12HeaderRecordERKNS_11ICollectionINS1_IT0_EEEEEUlRKS3_E_EE:
	.string	"N8opendnp321TransformedCollectionINS_7IndexedINS_12Group122Var2EEENS1_INS_12SecurityStatEEEZNS_18MeasurementHandler25LoadValuesWithTransformToIS4_S2_EENS_8IINFieldERKNS_12HeaderRecordERKNS_11ICollectionINS1_IT0_EEEEEUlRKS3_E_EE"
	.weak	_ZTIN8opendnp321TransformedCollectionINS_7IndexedINS_12Group122Var2EEENS1_INS_12SecurityStatEEEZNS_18MeasurementHandler25LoadValuesWithTransformToIS4_S2_EENS_8IINFieldERKNS_12HeaderRecordERKNS_11ICollectionINS1_IT0_EEEEEUlRKS3_E_EE
	.section	.data.rel.ro._ZTIN8opendnp321TransformedCollectionINS_7IndexedINS_12Group122Var2EEENS1_INS_12SecurityStatEEEZNS_18MeasurementHandler25LoadValuesWithTransformToIS4_S2_EENS_8IINFieldERKNS_12HeaderRecordERKNS_11ICollectionINS1_IT0_EEEEEUlRKS3_E_EE,"awG",@progbits,_ZTIN8opendnp321TransformedCollectionINS_7IndexedINS_12Group122Var2EEENS1_INS_12SecurityStatEEEZNS_18MeasurementHandler25LoadValuesWithTransformToIS4_S2_EENS_8IINFieldERKNS_12HeaderRecordERKNS_11ICollectionINS1_IT0_EEEEEUlRKS3_E_EE,comdat
	.align 8
	.type	_ZTIN8opendnp321TransformedCollectionINS_7IndexedINS_12Group122Var2EEENS1_INS_12SecurityStatEEEZNS_18MeasurementHandler25LoadValuesWithTransformToIS4_S2_EENS_8IINFieldERKNS_12HeaderRecordERKNS_11ICollectionINS1_IT0_EEEEEUlRKS3_E_EE, @object
	.size	_ZTIN8opendnp321TransformedCollectionINS_7IndexedINS_12Group122Var2EEENS1_INS_12SecurityStatEEEZNS_18MeasurementHandler25LoadValuesWithTransformToIS4_S2_EENS_8IINFieldERKNS_12HeaderRecordERKNS_11ICollectionINS1_IT0_EEEEEUlRKS3_E_EE, 24
_ZTIN8opendnp321TransformedCollectionINS_7IndexedINS_12Group122Var2EEENS1_INS_12SecurityStatEEEZNS_18MeasurementHandler25LoadValuesWithTransformToIS4_S2_EENS_8IINFieldERKNS_12HeaderRecordERKNS_11ICollectionINS1_IT0_EEEEEUlRKS3_E_EE:
	.quad	_ZTVN10__cxxabiv120__si_class_type_infoE+16
	.quad	_ZTSN8opendnp321TransformedCollectionINS_7IndexedINS_12Group122Var2EEENS1_INS_12SecurityStatEEEZNS_18MeasurementHandler25LoadValuesWithTransformToIS4_S2_EENS_8IINFieldERKNS_12HeaderRecordERKNS_11ICollectionINS1_IT0_EEEEEUlRKS3_E_EE
	.quad	_ZTIN8opendnp311ICollectionINS_7IndexedINS_12SecurityStatEEEEE
	.weak	_ZTSN8opendnp38IVisitorINS_11Group51Var1EEE
	.section	.rodata._ZTSN8opendnp38IVisitorINS_11Group51Var1EEE,"aG",@progbits,_ZTSN8opendnp38IVisitorINS_11Group51Var1EEE,comdat
	.align 32
	.type	_ZTSN8opendnp38IVisitorINS_11Group51Var1EEE, @object
	.size	_ZTSN8opendnp38IVisitorINS_11Group51Var1EEE, 40
_ZTSN8opendnp38IVisitorINS_11Group51Var1EEE:
	.string	"N8opendnp38IVisitorINS_11Group51Var1EEE"
	.weak	_ZTIN8opendnp38IVisitorINS_11Group51Var1EEE
	.section	.data.rel.ro._ZTIN8opendnp38IVisitorINS_11Group51Var1EEE,"awG",@progbits,_ZTIN8opendnp38IVisitorINS_11Group51Var1EEE,comdat
	.align 8
	.type	_ZTIN8opendnp38IVisitorINS_11Group51Var1EEE, @object
	.size	_ZTIN8opendnp38IVisitorINS_11Group51Var1EEE, 16
_ZTIN8opendnp38IVisitorINS_11Group51Var1EEE:
	.quad	_ZTVN10__cxxabiv117__class_type_infoE+16
	.quad	_ZTSN8opendnp38IVisitorINS_11Group51Var1EEE
	.weak	_ZTSN8opendnp314FunctorVisitorINS_11Group51Var1EZNKS_11ICollectionIS1_E13ReadOnlyValueERS1_EUlRKS1_E_EE
	.section	.rodata._ZTSN8opendnp314FunctorVisitorINS_11Group51Var1EZNKS_11ICollectionIS1_E13ReadOnlyValueERS1_EUlRKS1_E_EE,"aG",@progbits,_ZTSN8opendnp314FunctorVisitorINS_11Group51Var1EZNKS_11ICollectionIS1_E13ReadOnlyValueERS1_EUlRKS1_E_EE,comdat
	.align 32
	.type	_ZTSN8opendnp314FunctorVisitorINS_11Group51Var1EZNKS_11ICollectionIS1_E13ReadOnlyValueERS1_EUlRKS1_E_EE, @object
	.size	_ZTSN8opendnp314FunctorVisitorINS_11Group51Var1EZNKS_11ICollectionIS1_E13ReadOnlyValueERS1_EUlRKS1_E_EE, 100
_ZTSN8opendnp314FunctorVisitorINS_11Group51Var1EZNKS_11ICollectionIS1_E13ReadOnlyValueERS1_EUlRKS1_E_EE:
	.string	"N8opendnp314FunctorVisitorINS_11Group51Var1EZNKS_11ICollectionIS1_E13ReadOnlyValueERS1_EUlRKS1_E_EE"
	.weak	_ZTIN8opendnp314FunctorVisitorINS_11Group51Var1EZNKS_11ICollectionIS1_E13ReadOnlyValueERS1_EUlRKS1_E_EE
	.section	.data.rel.ro._ZTIN8opendnp314FunctorVisitorINS_11Group51Var1EZNKS_11ICollectionIS1_E13ReadOnlyValueERS1_EUlRKS1_E_EE,"awG",@progbits,_ZTIN8opendnp314FunctorVisitorINS_11Group51Var1EZNKS_11ICollectionIS1_E13ReadOnlyValueERS1_EUlRKS1_E_EE,comdat
	.align 8
	.type	_ZTIN8opendnp314FunctorVisitorINS_11Group51Var1EZNKS_11ICollectionIS1_E13ReadOnlyValueERS1_EUlRKS1_E_EE, @object
	.size	_ZTIN8opendnp314FunctorVisitorINS_11Group51Var1EZNKS_11ICollectionIS1_E13ReadOnlyValueERS1_EUlRKS1_E_EE, 24
_ZTIN8opendnp314FunctorVisitorINS_11Group51Var1EZNKS_11ICollectionIS1_E13ReadOnlyValueERS1_EUlRKS1_E_EE:
	.quad	_ZTVN10__cxxabiv120__si_class_type_infoE+16
	.quad	_ZTSN8opendnp314FunctorVisitorINS_11Group51Var1EZNKS_11ICollectionIS1_E13ReadOnlyValueERS1_EUlRKS1_E_EE
	.quad	_ZTIN8opendnp38IVisitorINS_11Group51Var1EEE
	.weak	_ZTSN8opendnp38IVisitorINS_11Group51Var2EEE
	.section	.rodata._ZTSN8opendnp38IVisitorINS_11Group51Var2EEE,"aG",@progbits,_ZTSN8opendnp38IVisitorINS_11Group51Var2EEE,comdat
	.align 32
	.type	_ZTSN8opendnp38IVisitorINS_11Group51Var2EEE, @object
	.size	_ZTSN8opendnp38IVisitorINS_11Group51Var2EEE, 40
_ZTSN8opendnp38IVisitorINS_11Group51Var2EEE:
	.string	"N8opendnp38IVisitorINS_11Group51Var2EEE"
	.weak	_ZTIN8opendnp38IVisitorINS_11Group51Var2EEE
	.section	.data.rel.ro._ZTIN8opendnp38IVisitorINS_11Group51Var2EEE,"awG",@progbits,_ZTIN8opendnp38IVisitorINS_11Group51Var2EEE,comdat
	.align 8
	.type	_ZTIN8opendnp38IVisitorINS_11Group51Var2EEE, @object
	.size	_ZTIN8opendnp38IVisitorINS_11Group51Var2EEE, 16
_ZTIN8opendnp38IVisitorINS_11Group51Var2EEE:
	.quad	_ZTVN10__cxxabiv117__class_type_infoE+16
	.quad	_ZTSN8opendnp38IVisitorINS_11Group51Var2EEE
	.weak	_ZTSN8opendnp314FunctorVisitorINS_11Group51Var2EZNKS_11ICollectionIS1_E13ReadOnlyValueERS1_EUlRKS1_E_EE
	.section	.rodata._ZTSN8opendnp314FunctorVisitorINS_11Group51Var2EZNKS_11ICollectionIS1_E13ReadOnlyValueERS1_EUlRKS1_E_EE,"aG",@progbits,_ZTSN8opendnp314FunctorVisitorINS_11Group51Var2EZNKS_11ICollectionIS1_E13ReadOnlyValueERS1_EUlRKS1_E_EE,comdat
	.align 32
	.type	_ZTSN8opendnp314FunctorVisitorINS_11Group51Var2EZNKS_11ICollectionIS1_E13ReadOnlyValueERS1_EUlRKS1_E_EE, @object
	.size	_ZTSN8opendnp314FunctorVisitorINS_11Group51Var2EZNKS_11ICollectionIS1_E13ReadOnlyValueERS1_EUlRKS1_E_EE, 100
_ZTSN8opendnp314FunctorVisitorINS_11Group51Var2EZNKS_11ICollectionIS1_E13ReadOnlyValueERS1_EUlRKS1_E_EE:
	.string	"N8opendnp314FunctorVisitorINS_11Group51Var2EZNKS_11ICollectionIS1_E13ReadOnlyValueERS1_EUlRKS1_E_EE"
	.weak	_ZTIN8opendnp314FunctorVisitorINS_11Group51Var2EZNKS_11ICollectionIS1_E13ReadOnlyValueERS1_EUlRKS1_E_EE
	.section	.data.rel.ro._ZTIN8opendnp314FunctorVisitorINS_11Group51Var2EZNKS_11ICollectionIS1_E13ReadOnlyValueERS1_EUlRKS1_E_EE,"awG",@progbits,_ZTIN8opendnp314FunctorVisitorINS_11Group51Var2EZNKS_11ICollectionIS1_E13ReadOnlyValueERS1_EUlRKS1_E_EE,comdat
	.align 8
	.type	_ZTIN8opendnp314FunctorVisitorINS_11Group51Var2EZNKS_11ICollectionIS1_E13ReadOnlyValueERS1_EUlRKS1_E_EE, @object
	.size	_ZTIN8opendnp314FunctorVisitorINS_11Group51Var2EZNKS_11ICollectionIS1_E13ReadOnlyValueERS1_EUlRKS1_E_EE, 24
_ZTIN8opendnp314FunctorVisitorINS_11Group51Var2EZNKS_11ICollectionIS1_E13ReadOnlyValueERS1_EUlRKS1_E_EE:
	.quad	_ZTVN10__cxxabiv120__si_class_type_infoE+16
	.quad	_ZTSN8opendnp314FunctorVisitorINS_11Group51Var2EZNKS_11ICollectionIS1_E13ReadOnlyValueERS1_EUlRKS1_E_EE
	.quad	_ZTIN8opendnp38IVisitorINS_11Group51Var2EEE
	.section	.data.rel.ro.local
	.align 8
	.type	_ZTVN8opendnp321TransformedCollectionINS_11Group50Var1EN7openpal10UInt48TypeEZNS_18MeasurementHandler13ProcessHeaderERKNS_11CountHeaderERKNS_11ICollectionIS1_EEEUlRKS1_E_EE, @object
	.size	_ZTVN8opendnp321TransformedCollectionINS_11Group50Var1EN7openpal10UInt48TypeEZNS_18MeasurementHandler13ProcessHeaderERKNS_11CountHeaderERKNS_11ICollectionIS1_EEEUlRKS1_E_EE, 32
_ZTVN8opendnp321TransformedCollectionINS_11Group50Var1EN7openpal10UInt48TypeEZNS_18MeasurementHandler13ProcessHeaderERKNS_11CountHeaderERKNS_11ICollectionIS1_EEEUlRKS1_E_EE:
	.quad	0
	.quad	_ZTIN8opendnp321TransformedCollectionINS_11Group50Var1EN7openpal10UInt48TypeEZNS_18MeasurementHandler13ProcessHeaderERKNS_11CountHeaderERKNS_11ICollectionIS1_EEEUlRKS1_E_EE
	.quad	_ZNK8opendnp321TransformedCollectionINS_11Group50Var1EN7openpal10UInt48TypeEZNS_18MeasurementHandler13ProcessHeaderERKNS_11CountHeaderERKNS_11ICollectionIS1_EEEUlRKS1_E_E5CountEv
	.quad	_ZNK8opendnp321TransformedCollectionINS_11Group50Var1EN7openpal10UInt48TypeEZNS_18MeasurementHandler13ProcessHeaderERKNS_11CountHeaderERKNS_11ICollectionIS1_EEEUlRKS1_E_E7ForeachERNS_8IVisitorIS3_EE
	.weak	_ZTVN8opendnp318MeasurementHandlerE
	.section	.data.rel.ro._ZTVN8opendnp318MeasurementHandlerE,"awG",@progbits,_ZTVN8opendnp318MeasurementHandlerE,comdat
	.align 8
	.type	_ZTVN8opendnp318MeasurementHandlerE, @object
	.size	_ZTVN8opendnp318MeasurementHandlerE, 448
_ZTVN8opendnp318MeasurementHandlerE:
	.quad	0
	.quad	_ZTIN8opendnp318MeasurementHandlerE
	.quad	_ZN8opendnp318MeasurementHandler9IsAllowedEjNS_14GroupVariationENS_13QualifierCodeE
	.quad	_ZN8opendnp312IAPDUHandler13ProcessHeaderERKNS_16AllObjectsHeaderE
	.quad	_ZN8opendnp312IAPDUHandler13ProcessHeaderERKNS_11RangeHeaderE
	.quad	_ZN8opendnp312IAPDUHandler13ProcessHeaderERKNS_11CountHeaderE
	.quad	_ZN8opendnp312IAPDUHandler13ProcessHeaderERKNS_16FreeFormatHeaderERKNS_12Group120Var1ERKN7openpal6RSliceE
	.quad	_ZN8opendnp312IAPDUHandler13ProcessHeaderERKNS_16FreeFormatHeaderERKNS_12Group120Var2ERKN7openpal6RSliceE
	.quad	_ZN8opendnp312IAPDUHandler13ProcessHeaderERKNS_16FreeFormatHeaderERKNS_12Group120Var5ERKN7openpal6RSliceE
	.quad	_ZN8opendnp312IAPDUHandler13ProcessHeaderERKNS_16FreeFormatHeaderERKNS_12Group120Var6ERKN7openpal6RSliceE
	.quad	_ZN8opendnp312IAPDUHandler13ProcessHeaderERKNS_16FreeFormatHeaderERKNS_12Group120Var8ERKN7openpal6RSliceE
	.quad	_ZN8opendnp312IAPDUHandler13ProcessHeaderERKNS_16FreeFormatHeaderERKNS_12Group120Var7ERKN7openpal6RSliceE
	.quad	_ZN8opendnp312IAPDUHandler13ProcessHeaderERKNS_16FreeFormatHeaderERKNS_12Group120Var9ERKN7openpal6RSliceE
	.quad	_ZN8opendnp312IAPDUHandler13ProcessHeaderERKNS_16FreeFormatHeaderERKNS_13Group120Var10ERKN7openpal6RSliceE
	.quad	_ZN8opendnp312IAPDUHandler13ProcessHeaderERKNS_16FreeFormatHeaderERKNS_13Group120Var11ERKN7openpal6RSliceE
	.quad	_ZN8opendnp312IAPDUHandler13ProcessHeaderERKNS_16FreeFormatHeaderERKNS_13Group120Var12ERKN7openpal6RSliceE
	.quad	_ZN8opendnp312IAPDUHandler13ProcessHeaderERKNS_16FreeFormatHeaderERKNS_13Group120Var13ERKN7openpal6RSliceE
	.quad	_ZN8opendnp312IAPDUHandler13ProcessHeaderERKNS_16FreeFormatHeaderERKNS_13Group120Var14ERKN7openpal6RSliceE
	.quad	_ZN8opendnp312IAPDUHandler13ProcessHeaderERKNS_16FreeFormatHeaderERKNS_13Group120Var15ERKN7openpal6RSliceE
	.quad	_ZN8opendnp318MeasurementHandler13ProcessHeaderERKNS_11CountHeaderERKNS_11ICollectionINS_11Group50Var1EEE
	.quad	_ZN8opendnp318MeasurementHandler13ProcessHeaderERKNS_11CountHeaderERKNS_11ICollectionINS_11Group51Var1EEE
	.quad	_ZN8opendnp318MeasurementHandler13ProcessHeaderERKNS_11CountHeaderERKNS_11ICollectionINS_11Group51Var2EEE
	.quad	_ZN8opendnp312IAPDUHandler13ProcessHeaderERKNS_11CountHeaderERKNS_11ICollectionINS_11Group52Var1EEE
	.quad	_ZN8opendnp312IAPDUHandler13ProcessHeaderERKNS_11CountHeaderERKNS_11ICollectionINS_11Group52Var2EEE
	.quad	_ZN8opendnp312IAPDUHandler13ProcessHeaderERKNS_11CountHeaderERKNS_11ICollectionINS_12Group120Var3EEE
	.quad	_ZN8opendnp312IAPDUHandler13ProcessHeaderERKNS_11CountHeaderERKNS_11ICollectionINS_12Group120Var4EEE
	.quad	_ZN8opendnp312IAPDUHandler13ProcessHeaderERKNS_11RangeHeaderERKNS_11ICollectionINS_7IndexedINS_8IINValueEEEEE
	.quad	_ZN8opendnp318MeasurementHandler13ProcessHeaderERKNS_11RangeHeaderERKNS_11ICollectionINS_7IndexedINS_6BinaryEEEEE
	.quad	_ZN8opendnp318MeasurementHandler13ProcessHeaderERKNS_11RangeHeaderERKNS_11ICollectionINS_7IndexedINS_15DoubleBitBinaryEEEEE
	.quad	_ZN8opendnp318MeasurementHandler13ProcessHeaderERKNS_11RangeHeaderERKNS_11ICollectionINS_7IndexedINS_18BinaryOutputStatusEEEEE
	.quad	_ZN8opendnp318MeasurementHandler13ProcessHeaderERKNS_11RangeHeaderERKNS_11ICollectionINS_7IndexedINS_7CounterEEEEE
	.quad	_ZN8opendnp318MeasurementHandler13ProcessHeaderERKNS_11RangeHeaderERKNS_11ICollectionINS_7IndexedINS_13FrozenCounterEEEEE
	.quad	_ZN8opendnp318MeasurementHandler13ProcessHeaderERKNS_11RangeHeaderERKNS_11ICollectionINS_7IndexedINS_6AnalogEEEEE
	.quad	_ZN8opendnp318MeasurementHandler13ProcessHeaderERKNS_11RangeHeaderERKNS_11ICollectionINS_7IndexedINS_18AnalogOutputStatusEEEEE
	.quad	_ZN8opendnp318MeasurementHandler13ProcessHeaderERKNS_11RangeHeaderERKNS_11ICollectionINS_7IndexedINS_11OctetStringEEEEE
	.quad	_ZN8opendnp318MeasurementHandler13ProcessHeaderERKNS_11RangeHeaderERKNS_11ICollectionINS_7IndexedINS_15TimeAndIntervalEEEEE
	.quad	_ZN8opendnp318MeasurementHandler13ProcessHeaderERKNS_11RangeHeaderERKNS_11ICollectionINS_7IndexedINS_12Group121Var1EEEEE
	.quad	_ZN8opendnp318MeasurementHandler13ProcessHeaderERKNS_12PrefixHeaderERKNS_11ICollectionINS_7IndexedINS_6BinaryEEEEE
	.quad	_ZN8opendnp318MeasurementHandler13ProcessHeaderERKNS_12PrefixHeaderERKNS_11ICollectionINS_7IndexedINS_18BinaryOutputStatusEEEEE
	.quad	_ZN8opendnp318MeasurementHandler13ProcessHeaderERKNS_12PrefixHeaderERKNS_11ICollectionINS_7IndexedINS_15DoubleBitBinaryEEEEE
	.quad	_ZN8opendnp318MeasurementHandler13ProcessHeaderERKNS_12PrefixHeaderERKNS_11ICollectionINS_7IndexedINS_7CounterEEEEE
	.quad	_ZN8opendnp318MeasurementHandler13ProcessHeaderERKNS_12PrefixHeaderERKNS_11ICollectionINS_7IndexedINS_13FrozenCounterEEEEE
	.quad	_ZN8opendnp318MeasurementHandler13ProcessHeaderERKNS_12PrefixHeaderERKNS_11ICollectionINS_7IndexedINS_6AnalogEEEEE
	.quad	_ZN8opendnp318MeasurementHandler13ProcessHeaderERKNS_12PrefixHeaderERKNS_11ICollectionINS_7IndexedINS_18AnalogOutputStatusEEEEE
	.quad	_ZN8opendnp318MeasurementHandler13ProcessHeaderERKNS_12PrefixHeaderERKNS_11ICollectionINS_7IndexedINS_11OctetStringEEEEE
	.quad	_ZN8opendnp312IAPDUHandler13ProcessHeaderERKNS_12PrefixHeaderERKNS_11ICollectionINS_7IndexedINS_15TimeAndIntervalEEEEE
	.quad	_ZN8opendnp318MeasurementHandler13ProcessHeaderERKNS_12PrefixHeaderERKNS_11ICollectionINS_7IndexedINS_18BinaryCommandEventEEEEE
	.quad	_ZN8opendnp318MeasurementHandler13ProcessHeaderERKNS_12PrefixHeaderERKNS_11ICollectionINS_7IndexedINS_18AnalogCommandEventEEEEE
	.quad	_ZN8opendnp318MeasurementHandler13ProcessHeaderERKNS_12PrefixHeaderERKNS_11ICollectionINS_7IndexedINS_12Group122Var1EEEEE
	.quad	_ZN8opendnp318MeasurementHandler13ProcessHeaderERKNS_12PrefixHeaderERKNS_11ICollectionINS_7IndexedINS_12Group122Var2EEEEE
	.quad	_ZN8opendnp312IAPDUHandler13ProcessHeaderERKNS_12PrefixHeaderERKNS_11ICollectionINS_7IndexedINS_23ControlRelayOutputBlockEEEEE
	.quad	_ZN8opendnp312IAPDUHandler13ProcessHeaderERKNS_12PrefixHeaderERKNS_11ICollectionINS_7IndexedINS_17AnalogOutputInt16EEEEE
	.quad	_ZN8opendnp312IAPDUHandler13ProcessHeaderERKNS_12PrefixHeaderERKNS_11ICollectionINS_7IndexedINS_17AnalogOutputInt32EEEEE
	.quad	_ZN8opendnp312IAPDUHandler13ProcessHeaderERKNS_12PrefixHeaderERKNS_11ICollectionINS_7IndexedINS_19AnalogOutputFloat32EEEEE
	.quad	_ZN8opendnp312IAPDUHandler13ProcessHeaderERKNS_12PrefixHeaderERKNS_11ICollectionINS_7IndexedINS_20AnalogOutputDouble64EEEEE
	.quad	_ZN8opendnp312IAPDUHandler14OnHeaderResultERKNS_12HeaderRecordERKNS_8IINFieldE
	.weak	_ZTVN8opendnp321TransformedCollectionINS_7IndexedINS_12Group121Var1EEENS1_INS_12SecurityStatEEEZNS_18MeasurementHandler25LoadValuesWithTransformToIS4_S2_EENS_8IINFieldERKNS_12HeaderRecordERKNS_11ICollectionINS1_IT0_EEEEEUlRKS3_E_EE
	.section	.data.rel.ro._ZTVN8opendnp321TransformedCollectionINS_7IndexedINS_12Group121Var1EEENS1_INS_12SecurityStatEEEZNS_18MeasurementHandler25LoadValuesWithTransformToIS4_S2_EENS_8IINFieldERKNS_12HeaderRecordERKNS_11ICollectionINS1_IT0_EEEEEUlRKS3_E_EE,"awG",@progbits,_ZTVN8opendnp321TransformedCollectionINS_7IndexedINS_12Group121Var1EEENS1_INS_12SecurityStatEEEZNS_18MeasurementHandler25LoadValuesWithTransformToIS4_S2_EENS_8IINFieldERKNS_12HeaderRecordERKNS_11ICollectionINS1_IT0_EEEEEUlRKS3_E_EE,comdat
	.align 8
	.type	_ZTVN8opendnp321TransformedCollectionINS_7IndexedINS_12Group121Var1EEENS1_INS_12SecurityStatEEEZNS_18MeasurementHandler25LoadValuesWithTransformToIS4_S2_EENS_8IINFieldERKNS_12HeaderRecordERKNS_11ICollectionINS1_IT0_EEEEEUlRKS3_E_EE, @object
	.size	_ZTVN8opendnp321TransformedCollectionINS_7IndexedINS_12Group121Var1EEENS1_INS_12SecurityStatEEEZNS_18MeasurementHandler25LoadValuesWithTransformToIS4_S2_EENS_8IINFieldERKNS_12HeaderRecordERKNS_11ICollectionINS1_IT0_EEEEEUlRKS3_E_EE, 32
_ZTVN8opendnp321TransformedCollectionINS_7IndexedINS_12Group121Var1EEENS1_INS_12SecurityStatEEEZNS_18MeasurementHandler25LoadValuesWithTransformToIS4_S2_EENS_8IINFieldERKNS_12HeaderRecordERKNS_11ICollectionINS1_IT0_EEEEEUlRKS3_E_EE:
	.quad	0
	.quad	_ZTIN8opendnp321TransformedCollectionINS_7IndexedINS_12Group121Var1EEENS1_INS_12SecurityStatEEEZNS_18MeasurementHandler25LoadValuesWithTransformToIS4_S2_EENS_8IINFieldERKNS_12HeaderRecordERKNS_11ICollectionINS1_IT0_EEEEEUlRKS3_E_EE
	.quad	_ZNK8opendnp321TransformedCollectionINS_7IndexedINS_12Group121Var1EEENS1_INS_12SecurityStatEEEZNS_18MeasurementHandler25LoadValuesWithTransformToIS4_S2_EENS_8IINFieldERKNS_12HeaderRecordERKNS_11ICollectionINS1_IT0_EEEEEUlRKS3_E_E5CountEv
	.quad	_ZNK8opendnp321TransformedCollectionINS_7IndexedINS_12Group121Var1EEENS1_INS_12SecurityStatEEEZNS_18MeasurementHandler25LoadValuesWithTransformToIS4_S2_EENS_8IINFieldERKNS_12HeaderRecordERKNS_11ICollectionINS1_IT0_EEEEEUlRKS3_E_E7ForeachERNS_8IVisitorIS5_EE
	.weak	_ZTVN8opendnp321TransformedCollectionINS_7IndexedINS_6BinaryEEES3_ZNS_18MeasurementHandler14ProcessWithCTOIS2_EENS_8IINFieldERKNS_12HeaderRecordERKNS_11ICollectionINS1_IT_EEEEEUlRKS3_E_EE
	.section	.data.rel.ro._ZTVN8opendnp321TransformedCollectionINS_7IndexedINS_6BinaryEEES3_ZNS_18MeasurementHandler14ProcessWithCTOIS2_EENS_8IINFieldERKNS_12HeaderRecordERKNS_11ICollectionINS1_IT_EEEEEUlRKS3_E_EE,"awG",@progbits,_ZTVN8opendnp321TransformedCollectionINS_7IndexedINS_6BinaryEEES3_ZNS_18MeasurementHandler14ProcessWithCTOIS2_EENS_8IINFieldERKNS_12HeaderRecordERKNS_11ICollectionINS1_IT_EEEEEUlRKS3_E_EE,comdat
	.align 8
	.type	_ZTVN8opendnp321TransformedCollectionINS_7IndexedINS_6BinaryEEES3_ZNS_18MeasurementHandler14ProcessWithCTOIS2_EENS_8IINFieldERKNS_12HeaderRecordERKNS_11ICollectionINS1_IT_EEEEEUlRKS3_E_EE, @object
	.size	_ZTVN8opendnp321TransformedCollectionINS_7IndexedINS_6BinaryEEES3_ZNS_18MeasurementHandler14ProcessWithCTOIS2_EENS_8IINFieldERKNS_12HeaderRecordERKNS_11ICollectionINS1_IT_EEEEEUlRKS3_E_EE, 32
_ZTVN8opendnp321TransformedCollectionINS_7IndexedINS_6BinaryEEES3_ZNS_18MeasurementHandler14ProcessWithCTOIS2_EENS_8IINFieldERKNS_12HeaderRecordERKNS_11ICollectionINS1_IT_EEEEEUlRKS3_E_EE:
	.quad	0
	.quad	_ZTIN8opendnp321TransformedCollectionINS_7IndexedINS_6BinaryEEES3_ZNS_18MeasurementHandler14ProcessWithCTOIS2_EENS_8IINFieldERKNS_12HeaderRecordERKNS_11ICollectionINS1_IT_EEEEEUlRKS3_E_EE
	.quad	_ZNK8opendnp321TransformedCollectionINS_7IndexedINS_6BinaryEEES3_ZNS_18MeasurementHandler14ProcessWithCTOIS2_EENS_8IINFieldERKNS_12HeaderRecordERKNS_11ICollectionINS1_IT_EEEEEUlRKS3_E_E5CountEv
	.quad	_ZNK8opendnp321TransformedCollectionINS_7IndexedINS_6BinaryEEES3_ZNS_18MeasurementHandler14ProcessWithCTOIS2_EENS_8IINFieldERKNS_12HeaderRecordERKNS_11ICollectionINS1_IT_EEEEEUlRKS3_E_E7ForeachERNS_8IVisitorIS3_EE
	.weak	_ZTVN8opendnp321TransformedCollectionINS_7IndexedINS_15DoubleBitBinaryEEES3_ZNS_18MeasurementHandler14ProcessWithCTOIS2_EENS_8IINFieldERKNS_12HeaderRecordERKNS_11ICollectionINS1_IT_EEEEEUlRKS3_E_EE
	.section	.data.rel.ro._ZTVN8opendnp321TransformedCollectionINS_7IndexedINS_15DoubleBitBinaryEEES3_ZNS_18MeasurementHandler14ProcessWithCTOIS2_EENS_8IINFieldERKNS_12HeaderRecordERKNS_11ICollectionINS1_IT_EEEEEUlRKS3_E_EE,"awG",@progbits,_ZTVN8opendnp321TransformedCollectionINS_7IndexedINS_15DoubleBitBinaryEEES3_ZNS_18MeasurementHandler14ProcessWithCTOIS2_EENS_8IINFieldERKNS_12HeaderRecordERKNS_11ICollectionINS1_IT_EEEEEUlRKS3_E_EE,comdat
	.align 8
	.type	_ZTVN8opendnp321TransformedCollectionINS_7IndexedINS_15DoubleBitBinaryEEES3_ZNS_18MeasurementHandler14ProcessWithCTOIS2_EENS_8IINFieldERKNS_12HeaderRecordERKNS_11ICollectionINS1_IT_EEEEEUlRKS3_E_EE, @object
	.size	_ZTVN8opendnp321TransformedCollectionINS_7IndexedINS_15DoubleBitBinaryEEES3_ZNS_18MeasurementHandler14ProcessWithCTOIS2_EENS_8IINFieldERKNS_12HeaderRecordERKNS_11ICollectionINS1_IT_EEEEEUlRKS3_E_EE, 32
_ZTVN8opendnp321TransformedCollectionINS_7IndexedINS_15DoubleBitBinaryEEES3_ZNS_18MeasurementHandler14ProcessWithCTOIS2_EENS_8IINFieldERKNS_12HeaderRecordERKNS_11ICollectionINS1_IT_EEEEEUlRKS3_E_EE:
	.quad	0
	.quad	_ZTIN8opendnp321TransformedCollectionINS_7IndexedINS_15DoubleBitBinaryEEES3_ZNS_18MeasurementHandler14ProcessWithCTOIS2_EENS_8IINFieldERKNS_12HeaderRecordERKNS_11ICollectionINS1_IT_EEEEEUlRKS3_E_EE
	.quad	_ZNK8opendnp321TransformedCollectionINS_7IndexedINS_15DoubleBitBinaryEEES3_ZNS_18MeasurementHandler14ProcessWithCTOIS2_EENS_8IINFieldERKNS_12HeaderRecordERKNS_11ICollectionINS1_IT_EEEEEUlRKS3_E_E5CountEv
	.quad	_ZNK8opendnp321TransformedCollectionINS_7IndexedINS_15DoubleBitBinaryEEES3_ZNS_18MeasurementHandler14ProcessWithCTOIS2_EENS_8IINFieldERKNS_12HeaderRecordERKNS_11ICollectionINS1_IT_EEEEEUlRKS3_E_E7ForeachERNS_8IVisitorIS3_EE
	.weak	_ZTVN8opendnp321TransformedCollectionINS_7IndexedINS_12Group122Var1EEENS1_INS_12SecurityStatEEEZNS_18MeasurementHandler25LoadValuesWithTransformToIS4_S2_EENS_8IINFieldERKNS_12HeaderRecordERKNS_11ICollectionINS1_IT0_EEEEEUlRKS3_E_EE
	.section	.data.rel.ro._ZTVN8opendnp321TransformedCollectionINS_7IndexedINS_12Group122Var1EEENS1_INS_12SecurityStatEEEZNS_18MeasurementHandler25LoadValuesWithTransformToIS4_S2_EENS_8IINFieldERKNS_12HeaderRecordERKNS_11ICollectionINS1_IT0_EEEEEUlRKS3_E_EE,"awG",@progbits,_ZTVN8opendnp321TransformedCollectionINS_7IndexedINS_12Group122Var1EEENS1_INS_12SecurityStatEEEZNS_18MeasurementHandler25LoadValuesWithTransformToIS4_S2_EENS_8IINFieldERKNS_12HeaderRecordERKNS_11ICollectionINS1_IT0_EEEEEUlRKS3_E_EE,comdat
	.align 8
	.type	_ZTVN8opendnp321TransformedCollectionINS_7IndexedINS_12Group122Var1EEENS1_INS_12SecurityStatEEEZNS_18MeasurementHandler25LoadValuesWithTransformToIS4_S2_EENS_8IINFieldERKNS_12HeaderRecordERKNS_11ICollectionINS1_IT0_EEEEEUlRKS3_E_EE, @object
	.size	_ZTVN8opendnp321TransformedCollectionINS_7IndexedINS_12Group122Var1EEENS1_INS_12SecurityStatEEEZNS_18MeasurementHandler25LoadValuesWithTransformToIS4_S2_EENS_8IINFieldERKNS_12HeaderRecordERKNS_11ICollectionINS1_IT0_EEEEEUlRKS3_E_EE, 32
_ZTVN8opendnp321TransformedCollectionINS_7IndexedINS_12Group122Var1EEENS1_INS_12SecurityStatEEEZNS_18MeasurementHandler25LoadValuesWithTransformToIS4_S2_EENS_8IINFieldERKNS_12HeaderRecordERKNS_11ICollectionINS1_IT0_EEEEEUlRKS3_E_EE:
	.quad	0
	.quad	_ZTIN8opendnp321TransformedCollectionINS_7IndexedINS_12Group122Var1EEENS1_INS_12SecurityStatEEEZNS_18MeasurementHandler25LoadValuesWithTransformToIS4_S2_EENS_8IINFieldERKNS_12HeaderRecordERKNS_11ICollectionINS1_IT0_EEEEEUlRKS3_E_EE
	.quad	_ZNK8opendnp321TransformedCollectionINS_7IndexedINS_12Group122Var1EEENS1_INS_12SecurityStatEEEZNS_18MeasurementHandler25LoadValuesWithTransformToIS4_S2_EENS_8IINFieldERKNS_12HeaderRecordERKNS_11ICollectionINS1_IT0_EEEEEUlRKS3_E_E5CountEv
	.quad	_ZNK8opendnp321TransformedCollectionINS_7IndexedINS_12Group122Var1EEENS1_INS_12SecurityStatEEEZNS_18MeasurementHandler25LoadValuesWithTransformToIS4_S2_EENS_8IINFieldERKNS_12HeaderRecordERKNS_11ICollectionINS1_IT0_EEEEEUlRKS3_E_E7ForeachERNS_8IVisitorIS5_EE
	.weak	_ZTVN8opendnp321TransformedCollectionINS_7IndexedINS_12Group122Var2EEENS1_INS_12SecurityStatEEEZNS_18MeasurementHandler25LoadValuesWithTransformToIS4_S2_EENS_8IINFieldERKNS_12HeaderRecordERKNS_11ICollectionINS1_IT0_EEEEEUlRKS3_E_EE
	.section	.data.rel.ro._ZTVN8opendnp321TransformedCollectionINS_7IndexedINS_12Group122Var2EEENS1_INS_12SecurityStatEEEZNS_18MeasurementHandler25LoadValuesWithTransformToIS4_S2_EENS_8IINFieldERKNS_12HeaderRecordERKNS_11ICollectionINS1_IT0_EEEEEUlRKS3_E_EE,"awG",@progbits,_ZTVN8opendnp321TransformedCollectionINS_7IndexedINS_12Group122Var2EEENS1_INS_12SecurityStatEEEZNS_18MeasurementHandler25LoadValuesWithTransformToIS4_S2_EENS_8IINFieldERKNS_12HeaderRecordERKNS_11ICollectionINS1_IT0_EEEEEUlRKS3_E_EE,comdat
	.align 8
	.type	_ZTVN8opendnp321TransformedCollectionINS_7IndexedINS_12Group122Var2EEENS1_INS_12SecurityStatEEEZNS_18MeasurementHandler25LoadValuesWithTransformToIS4_S2_EENS_8IINFieldERKNS_12HeaderRecordERKNS_11ICollectionINS1_IT0_EEEEEUlRKS3_E_EE, @object
	.size	_ZTVN8opendnp321TransformedCollectionINS_7IndexedINS_12Group122Var2EEENS1_INS_12SecurityStatEEEZNS_18MeasurementHandler25LoadValuesWithTransformToIS4_S2_EENS_8IINFieldERKNS_12HeaderRecordERKNS_11ICollectionINS1_IT0_EEEEEUlRKS3_E_EE, 32
_ZTVN8opendnp321TransformedCollectionINS_7IndexedINS_12Group122Var2EEENS1_INS_12SecurityStatEEEZNS_18MeasurementHandler25LoadValuesWithTransformToIS4_S2_EENS_8IINFieldERKNS_12HeaderRecordERKNS_11ICollectionINS1_IT0_EEEEEUlRKS3_E_EE:
	.quad	0
	.quad	_ZTIN8opendnp321TransformedCollectionINS_7IndexedINS_12Group122Var2EEENS1_INS_12SecurityStatEEEZNS_18MeasurementHandler25LoadValuesWithTransformToIS4_S2_EENS_8IINFieldERKNS_12HeaderRecordERKNS_11ICollectionINS1_IT0_EEEEEUlRKS3_E_EE
	.quad	_ZNK8opendnp321TransformedCollectionINS_7IndexedINS_12Group122Var2EEENS1_INS_12SecurityStatEEEZNS_18MeasurementHandler25LoadValuesWithTransformToIS4_S2_EENS_8IINFieldERKNS_12HeaderRecordERKNS_11ICollectionINS1_IT0_EEEEEUlRKS3_E_E5CountEv
	.quad	_ZNK8opendnp321TransformedCollectionINS_7IndexedINS_12Group122Var2EEENS1_INS_12SecurityStatEEEZNS_18MeasurementHandler25LoadValuesWithTransformToIS4_S2_EENS_8IINFieldERKNS_12HeaderRecordERKNS_11ICollectionINS1_IT0_EEEEEUlRKS3_E_E7ForeachERNS_8IVisitorIS5_EE
	.weak	_ZTVN8opendnp314FunctorVisitorINS_11Group51Var1EZNKS_11ICollectionIS1_E13ReadOnlyValueERS1_EUlRKS1_E_EE
	.section	.data.rel.ro._ZTVN8opendnp314FunctorVisitorINS_11Group51Var1EZNKS_11ICollectionIS1_E13ReadOnlyValueERS1_EUlRKS1_E_EE,"awG",@progbits,_ZTVN8opendnp314FunctorVisitorINS_11Group51Var1EZNKS_11ICollectionIS1_E13ReadOnlyValueERS1_EUlRKS1_E_EE,comdat
	.align 8
	.type	_ZTVN8opendnp314FunctorVisitorINS_11Group51Var1EZNKS_11ICollectionIS1_E13ReadOnlyValueERS1_EUlRKS1_E_EE, @object
	.size	_ZTVN8opendnp314FunctorVisitorINS_11Group51Var1EZNKS_11ICollectionIS1_E13ReadOnlyValueERS1_EUlRKS1_E_EE, 24
_ZTVN8opendnp314FunctorVisitorINS_11Group51Var1EZNKS_11ICollectionIS1_E13ReadOnlyValueERS1_EUlRKS1_E_EE:
	.quad	0
	.quad	_ZTIN8opendnp314FunctorVisitorINS_11Group51Var1EZNKS_11ICollectionIS1_E13ReadOnlyValueERS1_EUlRKS1_E_EE
	.quad	_ZN8opendnp314FunctorVisitorINS_11Group51Var1EZNKS_11ICollectionIS1_E13ReadOnlyValueERS1_EUlRKS1_E_E7OnValueES6_
	.weak	_ZTVN8opendnp314FunctorVisitorINS_11Group51Var2EZNKS_11ICollectionIS1_E13ReadOnlyValueERS1_EUlRKS1_E_EE
	.section	.data.rel.ro._ZTVN8opendnp314FunctorVisitorINS_11Group51Var2EZNKS_11ICollectionIS1_E13ReadOnlyValueERS1_EUlRKS1_E_EE,"awG",@progbits,_ZTVN8opendnp314FunctorVisitorINS_11Group51Var2EZNKS_11ICollectionIS1_E13ReadOnlyValueERS1_EUlRKS1_E_EE,comdat
	.align 8
	.type	_ZTVN8opendnp314FunctorVisitorINS_11Group51Var2EZNKS_11ICollectionIS1_E13ReadOnlyValueERS1_EUlRKS1_E_EE, @object
	.size	_ZTVN8opendnp314FunctorVisitorINS_11Group51Var2EZNKS_11ICollectionIS1_E13ReadOnlyValueERS1_EUlRKS1_E_EE, 24
_ZTVN8opendnp314FunctorVisitorINS_11Group51Var2EZNKS_11ICollectionIS1_E13ReadOnlyValueERS1_EUlRKS1_E_EE:
	.quad	0
	.quad	_ZTIN8opendnp314FunctorVisitorINS_11Group51Var2EZNKS_11ICollectionIS1_E13ReadOnlyValueERS1_EUlRKS1_E_EE
	.quad	_ZN8opendnp314FunctorVisitorINS_11Group51Var2EZNKS_11ICollectionIS1_E13ReadOnlyValueERS1_EUlRKS1_E_E7OnValueES6_
	.weakref	_ZL28__gthrw___pthread_key_createPjPFvPvE,__pthread_key_create
	.hidden	DW.ref.__gxx_personality_v0
	.weak	DW.ref.__gxx_personality_v0
	.section	.data.rel.local.DW.ref.__gxx_personality_v0,"awG",@progbits,DW.ref.__gxx_personality_v0,comdat
	.align 8
	.type	DW.ref.__gxx_personality_v0, @object
	.size	DW.ref.__gxx_personality_v0, 8
DW.ref.__gxx_personality_v0:
	.quad	__gxx_personality_v0
	.ident	"GCC: (Ubuntu 9.4.0-1ubuntu1~20.04.1) 9.4.0"
	.section	.note.GNU-stack,"",@progbits
	.section	.note.gnu.property,"a"
	.align 8
	.long	 1f - 0f
	.long	 4f - 1f
	.long	 5
0:
	.string	 "GNU"
1:
	.align 8
	.long	 0xc0000002
	.long	 3f - 2f
2:
	.long	 0x3
3:
	.align 8
4:
