	.file	"OutstationContext.cpp"
	.text
	.section	.text._ZN8opendnp322IOutstationApplication19SupportsAssignClassEv,"axG",@progbits,_ZN8opendnp322IOutstationApplication19SupportsAssignClassEv,comdat
	.align 2
	.p2align 4
	.weak	_ZN8opendnp322IOutstationApplication19SupportsAssignClassEv
	.type	_ZN8opendnp322IOutstationApplication19SupportsAssignClassEv, @function
_ZN8opendnp322IOutstationApplication19SupportsAssignClassEv:
.LFB2484:
	.cfi_startproc
	endbr64
	xorl	%eax, %eax
	ret
	.cfi_endproc
.LFE2484:
	.size	_ZN8opendnp322IOutstationApplication19SupportsAssignClassEv, .-_ZN8opendnp322IOutstationApplication19SupportsAssignClassEv
	.section	.text._ZNK8opendnp322IOutstationApplication18ColdRestartSupportEv,"axG",@progbits,_ZNK8opendnp322IOutstationApplication18ColdRestartSupportEv,comdat
	.align 2
	.p2align 4
	.weak	_ZNK8opendnp322IOutstationApplication18ColdRestartSupportEv
	.type	_ZNK8opendnp322IOutstationApplication18ColdRestartSupportEv, @function
_ZNK8opendnp322IOutstationApplication18ColdRestartSupportEv:
.LFB2487:
	.cfi_startproc
	endbr64
	xorl	%eax, %eax
	ret
	.cfi_endproc
.LFE2487:
	.size	_ZNK8opendnp322IOutstationApplication18ColdRestartSupportEv, .-_ZNK8opendnp322IOutstationApplication18ColdRestartSupportEv
	.section	.text._ZNK8opendnp322IOutstationApplication18WarmRestartSupportEv,"axG",@progbits,_ZNK8opendnp322IOutstationApplication18WarmRestartSupportEv,comdat
	.align 2
	.p2align 4
	.weak	_ZNK8opendnp322IOutstationApplication18WarmRestartSupportEv
	.type	_ZNK8opendnp322IOutstationApplication18WarmRestartSupportEv, @function
_ZNK8opendnp322IOutstationApplication18WarmRestartSupportEv:
.LFB2488:
	.cfi_startproc
	endbr64
	xorl	%eax, %eax
	ret
	.cfi_endproc
.LFE2488:
	.size	_ZNK8opendnp322IOutstationApplication18WarmRestartSupportEv, .-_ZNK8opendnp322IOutstationApplication18WarmRestartSupportEv
	.section	.text._ZN8opendnp322IOutstationApplication11ColdRestartEv,"axG",@progbits,_ZN8opendnp322IOutstationApplication11ColdRestartEv,comdat
	.align 2
	.p2align 4
	.weak	_ZN8opendnp322IOutstationApplication11ColdRestartEv
	.type	_ZN8opendnp322IOutstationApplication11ColdRestartEv, @function
_ZN8opendnp322IOutstationApplication11ColdRestartEv:
.LFB2489:
	.cfi_startproc
	endbr64
	movl	$-1, %eax
	ret
	.cfi_endproc
.LFE2489:
	.size	_ZN8opendnp322IOutstationApplication11ColdRestartEv, .-_ZN8opendnp322IOutstationApplication11ColdRestartEv
	.section	.text._ZN8opendnp322IOutstationApplication11WarmRestartEv,"axG",@progbits,_ZN8opendnp322IOutstationApplication11WarmRestartEv,comdat
	.align 2
	.p2align 4
	.weak	_ZN8opendnp322IOutstationApplication11WarmRestartEv
	.type	_ZN8opendnp322IOutstationApplication11WarmRestartEv, @function
_ZN8opendnp322IOutstationApplication11WarmRestartEv:
.LFB2490:
	.cfi_startproc
	endbr64
	movl	$-1, %eax
	ret
	.cfi_endproc
.LFE2490:
	.size	_ZN8opendnp322IOutstationApplication11WarmRestartEv, .-_ZN8opendnp322IOutstationApplication11WarmRestartEv
	.section	.text._ZN8opendnp321ConstantCommandAction6ActionERKNS_23ControlRelayOutputBlockEt,"axG",@progbits,_ZN8opendnp321ConstantCommandAction6ActionERKNS_23ControlRelayOutputBlockEt,comdat
	.align 2
	.p2align 4
	.weak	_ZN8opendnp321ConstantCommandAction6ActionERKNS_23ControlRelayOutputBlockEt
	.type	_ZN8opendnp321ConstantCommandAction6ActionERKNS_23ControlRelayOutputBlockEt, @function
_ZN8opendnp321ConstantCommandAction6ActionERKNS_23ControlRelayOutputBlockEt:
.LFB2830:
	.cfi_startproc
	endbr64
	movzbl	8(%rdi), %eax
	ret
	.cfi_endproc
.LFE2830:
	.size	_ZN8opendnp321ConstantCommandAction6ActionERKNS_23ControlRelayOutputBlockEt, .-_ZN8opendnp321ConstantCommandAction6ActionERKNS_23ControlRelayOutputBlockEt
	.section	.text._ZN8opendnp321ConstantCommandAction6ActionERKNS_17AnalogOutputInt16Et,"axG",@progbits,_ZN8opendnp321ConstantCommandAction6ActionERKNS_17AnalogOutputInt16Et,comdat
	.align 2
	.p2align 4
	.weak	_ZN8opendnp321ConstantCommandAction6ActionERKNS_17AnalogOutputInt16Et
	.type	_ZN8opendnp321ConstantCommandAction6ActionERKNS_17AnalogOutputInt16Et, @function
_ZN8opendnp321ConstantCommandAction6ActionERKNS_17AnalogOutputInt16Et:
.LFB2831:
	.cfi_startproc
	endbr64
	movzbl	8(%rdi), %eax
	ret
	.cfi_endproc
.LFE2831:
	.size	_ZN8opendnp321ConstantCommandAction6ActionERKNS_17AnalogOutputInt16Et, .-_ZN8opendnp321ConstantCommandAction6ActionERKNS_17AnalogOutputInt16Et
	.section	.text._ZN8opendnp321ConstantCommandAction6ActionERKNS_17AnalogOutputInt32Et,"axG",@progbits,_ZN8opendnp321ConstantCommandAction6ActionERKNS_17AnalogOutputInt32Et,comdat
	.align 2
	.p2align 4
	.weak	_ZN8opendnp321ConstantCommandAction6ActionERKNS_17AnalogOutputInt32Et
	.type	_ZN8opendnp321ConstantCommandAction6ActionERKNS_17AnalogOutputInt32Et, @function
_ZN8opendnp321ConstantCommandAction6ActionERKNS_17AnalogOutputInt32Et:
.LFB2832:
	.cfi_startproc
	endbr64
	movzbl	8(%rdi), %eax
	ret
	.cfi_endproc
.LFE2832:
	.size	_ZN8opendnp321ConstantCommandAction6ActionERKNS_17AnalogOutputInt32Et, .-_ZN8opendnp321ConstantCommandAction6ActionERKNS_17AnalogOutputInt32Et
	.section	.text._ZN8opendnp321ConstantCommandAction6ActionERKNS_19AnalogOutputFloat32Et,"axG",@progbits,_ZN8opendnp321ConstantCommandAction6ActionERKNS_19AnalogOutputFloat32Et,comdat
	.align 2
	.p2align 4
	.weak	_ZN8opendnp321ConstantCommandAction6ActionERKNS_19AnalogOutputFloat32Et
	.type	_ZN8opendnp321ConstantCommandAction6ActionERKNS_19AnalogOutputFloat32Et, @function
_ZN8opendnp321ConstantCommandAction6ActionERKNS_19AnalogOutputFloat32Et:
.LFB2833:
	.cfi_startproc
	endbr64
	movzbl	8(%rdi), %eax
	ret
	.cfi_endproc
.LFE2833:
	.size	_ZN8opendnp321ConstantCommandAction6ActionERKNS_19AnalogOutputFloat32Et, .-_ZN8opendnp321ConstantCommandAction6ActionERKNS_19AnalogOutputFloat32Et
	.section	.text._ZN8opendnp321ConstantCommandAction6ActionERKNS_20AnalogOutputDouble64Et,"axG",@progbits,_ZN8opendnp321ConstantCommandAction6ActionERKNS_20AnalogOutputDouble64Et,comdat
	.align 2
	.p2align 4
	.weak	_ZN8opendnp321ConstantCommandAction6ActionERKNS_20AnalogOutputDouble64Et
	.type	_ZN8opendnp321ConstantCommandAction6ActionERKNS_20AnalogOutputDouble64Et, @function
_ZN8opendnp321ConstantCommandAction6ActionERKNS_20AnalogOutputDouble64Et:
.LFB2834:
	.cfi_startproc
	endbr64
	movzbl	8(%rdi), %eax
	ret
	.cfi_endproc
.LFE2834:
	.size	_ZN8opendnp321ConstantCommandAction6ActionERKNS_20AnalogOutputDouble64Et, .-_ZN8opendnp321ConstantCommandAction6ActionERKNS_20AnalogOutputDouble64Et
	.text
	.p2align 4
	.type	_ZNSt14_Function_base13_Base_managerIZN7openpal8TimerRef7RestartIZN8opendnp38OContext19RestartConfirmTimerEvEUlvE_EEvRKNS1_12TimeDurationERKT_EUlvE_E10_M_managerERSt9_Any_dataRKSF_St18_Manager_operation, @function
_ZNSt14_Function_base13_Base_managerIZN7openpal8TimerRef7RestartIZN8opendnp38OContext19RestartConfirmTimerEvEUlvE_EEvRKNS1_12TimeDurationERKT_EUlvE_E10_M_managerERSt9_Any_dataRKSF_St18_Manager_operation:
.LFB3522:
	.cfi_startproc
	endbr64
	cmpl	$2, %edx
	je	.L13
	ja	.L14
	testl	%edx, %edx
	je	.L16
	movq	%rsi, (%rdi)
.L14:
	xorl	%eax, %eax
	ret
	.p2align 4,,10
	.p2align 3
.L13:
	movdqu	(%rsi), %xmm0
	xorl	%eax, %eax
	movups	%xmm0, (%rdi)
	ret
	.p2align 4,,10
	.p2align 3
.L16:
	leaq	_ZTIZN7openpal8TimerRef7RestartIZN8opendnp38OContext19RestartConfirmTimerEvEUlvE_EEvRKNS_12TimeDurationERKT_EUlvE_(%rip), %rax
	movq	%rax, (%rdi)
	xorl	%eax, %eax
	ret
	.cfi_endproc
.LFE3522:
	.size	_ZNSt14_Function_base13_Base_managerIZN7openpal8TimerRef7RestartIZN8opendnp38OContext19RestartConfirmTimerEvEUlvE_EEvRKNS1_12TimeDurationERKT_EUlvE_E10_M_managerERSt9_Any_dataRKSF_St18_Manager_operation, .-_ZNSt14_Function_base13_Base_managerIZN7openpal8TimerRef7RestartIZN8opendnp38OContext19RestartConfirmTimerEvEUlvE_EEvRKNS1_12TimeDurationERKT_EUlvE_E10_M_managerERSt9_Any_dataRKSF_St18_Manager_operation
	.section	.text._ZN8opendnp321ConstantCommandActionD2Ev,"axG",@progbits,_ZN8opendnp321ConstantCommandActionD5Ev,comdat
	.align 2
	.p2align 4
	.weak	_ZN8opendnp321ConstantCommandActionD2Ev
	.type	_ZN8opendnp321ConstantCommandActionD2Ev, @function
_ZN8opendnp321ConstantCommandActionD2Ev:
.LFB3787:
	.cfi_startproc
	endbr64
	ret
	.cfi_endproc
.LFE3787:
	.size	_ZN8opendnp321ConstantCommandActionD2Ev, .-_ZN8opendnp321ConstantCommandActionD2Ev
	.weak	_ZN8opendnp321ConstantCommandActionD1Ev
	.set	_ZN8opendnp321ConstantCommandActionD1Ev,_ZN8opendnp321ConstantCommandActionD2Ev
	.section	.text._ZN8opendnp321ConstantCommandActionD0Ev,"axG",@progbits,_ZN8opendnp321ConstantCommandActionD5Ev,comdat
	.align 2
	.p2align 4
	.weak	_ZN8opendnp321ConstantCommandActionD0Ev
	.type	_ZN8opendnp321ConstantCommandActionD0Ev, @function
_ZN8opendnp321ConstantCommandActionD0Ev:
.LFB3789:
	.cfi_startproc
	endbr64
	movl	$16, %esi
	jmp	_ZdlPvm@PLT
	.cfi_endproc
.LFE3789:
	.size	_ZN8opendnp321ConstantCommandActionD0Ev, .-_ZN8opendnp321ConstantCommandActionD0Ev
	.section	.text._ZN7openpal5ArrayIhjED2Ev,"axG",@progbits,_ZN7openpal5ArrayIhjED5Ev,comdat
	.align 2
	.p2align 4
	.weak	_ZN7openpal5ArrayIhjED2Ev
	.type	_ZN7openpal5ArrayIhjED2Ev, @function
_ZN7openpal5ArrayIhjED2Ev:
.LFB2953:
	.cfi_startproc
	endbr64
	movq	_ZTVN7openpal5ArrayIhjEE@GOTPCREL(%rip), %rax
	addq	$16, %rax
	movq	%rax, (%rdi)
	movq	16(%rdi), %rdi
	testq	%rdi, %rdi
	je	.L19
	jmp	_ZdaPv@PLT
	.p2align 4,,10
	.p2align 3
.L19:
	ret
	.cfi_endproc
.LFE2953:
	.size	_ZN7openpal5ArrayIhjED2Ev, .-_ZN7openpal5ArrayIhjED2Ev
	.weak	_ZN7openpal5ArrayIhjED1Ev
	.set	_ZN7openpal5ArrayIhjED1Ev,_ZN7openpal5ArrayIhjED2Ev
	.section	.text._ZN7openpal5ArrayIhjED0Ev,"axG",@progbits,_ZN7openpal5ArrayIhjED5Ev,comdat
	.align 2
	.p2align 4
	.weak	_ZN7openpal5ArrayIhjED0Ev
	.type	_ZN7openpal5ArrayIhjED0Ev, @function
_ZN7openpal5ArrayIhjED0Ev:
.LFB2955:
	.cfi_startproc
	endbr64
	movq	_ZTVN7openpal5ArrayIhjEE@GOTPCREL(%rip), %rax
	pushq	%rbp
	.cfi_def_cfa_offset 16
	.cfi_offset 6, -16
	movq	%rdi, %rbp
	addq	$16, %rax
	movq	%rax, (%rdi)
	movq	16(%rdi), %rdi
	testq	%rdi, %rdi
	je	.L22
	call	_ZdaPv@PLT
.L22:
	movq	%rbp, %rdi
	movl	$24, %esi
	popq	%rbp
	.cfi_def_cfa_offset 8
	jmp	_ZdlPvm@PLT
	.cfi_endproc
.LFE2955:
	.size	_ZN7openpal5ArrayIhjED0Ev, .-_ZN7openpal5ArrayIhjED0Ev
	.section	.text._ZN7openpal5ArrayIN8opendnp34CellINS1_19TimeAndIntervalSpecEEEtED2Ev,"axG",@progbits,_ZN7openpal5ArrayIN8opendnp34CellINS1_19TimeAndIntervalSpecEEEtED5Ev,comdat
	.align 2
	.p2align 4
	.weak	_ZN7openpal5ArrayIN8opendnp34CellINS1_19TimeAndIntervalSpecEEEtED2Ev
	.type	_ZN7openpal5ArrayIN8opendnp34CellINS1_19TimeAndIntervalSpecEEEtED2Ev, @function
_ZN7openpal5ArrayIN8opendnp34CellINS1_19TimeAndIntervalSpecEEEtED2Ev:
.LFB3878:
	.cfi_startproc
	endbr64
	movq	_ZTVN7openpal5ArrayIN8opendnp34CellINS1_19TimeAndIntervalSpecEEEtEE@GOTPCREL(%rip), %rax
	addq	$16, %rax
	movq	%rax, (%rdi)
	movq	16(%rdi), %rdi
	testq	%rdi, %rdi
	je	.L27
	jmp	_ZdaPv@PLT
	.p2align 4,,10
	.p2align 3
.L27:
	ret
	.cfi_endproc
.LFE3878:
	.size	_ZN7openpal5ArrayIN8opendnp34CellINS1_19TimeAndIntervalSpecEEEtED2Ev, .-_ZN7openpal5ArrayIN8opendnp34CellINS1_19TimeAndIntervalSpecEEEtED2Ev
	.weak	_ZN7openpal5ArrayIN8opendnp34CellINS1_19TimeAndIntervalSpecEEEtED1Ev
	.set	_ZN7openpal5ArrayIN8opendnp34CellINS1_19TimeAndIntervalSpecEEEtED1Ev,_ZN7openpal5ArrayIN8opendnp34CellINS1_19TimeAndIntervalSpecEEEtED2Ev
	.section	.text._ZN7openpal5ArrayIN8opendnp34CellINS1_19TimeAndIntervalSpecEEEtED0Ev,"axG",@progbits,_ZN7openpal5ArrayIN8opendnp34CellINS1_19TimeAndIntervalSpecEEEtED5Ev,comdat
	.align 2
	.p2align 4
	.weak	_ZN7openpal5ArrayIN8opendnp34CellINS1_19TimeAndIntervalSpecEEEtED0Ev
	.type	_ZN7openpal5ArrayIN8opendnp34CellINS1_19TimeAndIntervalSpecEEEtED0Ev, @function
_ZN7openpal5ArrayIN8opendnp34CellINS1_19TimeAndIntervalSpecEEEtED0Ev:
.LFB3880:
	.cfi_startproc
	endbr64
	movq	_ZTVN7openpal5ArrayIN8opendnp34CellINS1_19TimeAndIntervalSpecEEEtEE@GOTPCREL(%rip), %rax
	pushq	%rbp
	.cfi_def_cfa_offset 16
	.cfi_offset 6, -16
	movq	%rdi, %rbp
	addq	$16, %rax
	movq	%rax, (%rdi)
	movq	16(%rdi), %rdi
	testq	%rdi, %rdi
	je	.L30
	call	_ZdaPv@PLT
.L30:
	movq	%rbp, %rdi
	movl	$24, %esi
	popq	%rbp
	.cfi_def_cfa_offset 8
	jmp	_ZdlPvm@PLT
	.cfi_endproc
.LFE3880:
	.size	_ZN7openpal5ArrayIN8opendnp34CellINS1_19TimeAndIntervalSpecEEEtED0Ev, .-_ZN7openpal5ArrayIN8opendnp34CellINS1_19TimeAndIntervalSpecEEEtED0Ev
	.section	.text._ZN7openpal5ArrayIN8opendnp34CellINS1_22AnalogOutputStatusSpecEEEtED2Ev,"axG",@progbits,_ZN7openpal5ArrayIN8opendnp34CellINS1_22AnalogOutputStatusSpecEEEtED5Ev,comdat
	.align 2
	.p2align 4
	.weak	_ZN7openpal5ArrayIN8opendnp34CellINS1_22AnalogOutputStatusSpecEEEtED2Ev
	.type	_ZN7openpal5ArrayIN8opendnp34CellINS1_22AnalogOutputStatusSpecEEEtED2Ev, @function
_ZN7openpal5ArrayIN8opendnp34CellINS1_22AnalogOutputStatusSpecEEEtED2Ev:
.LFB3874:
	.cfi_startproc
	endbr64
	movq	_ZTVN7openpal5ArrayIN8opendnp34CellINS1_22AnalogOutputStatusSpecEEEtEE@GOTPCREL(%rip), %rax
	addq	$16, %rax
	movq	%rax, (%rdi)
	movq	16(%rdi), %rdi
	testq	%rdi, %rdi
	je	.L35
	jmp	_ZdaPv@PLT
	.p2align 4,,10
	.p2align 3
.L35:
	ret
	.cfi_endproc
.LFE3874:
	.size	_ZN7openpal5ArrayIN8opendnp34CellINS1_22AnalogOutputStatusSpecEEEtED2Ev, .-_ZN7openpal5ArrayIN8opendnp34CellINS1_22AnalogOutputStatusSpecEEEtED2Ev
	.weak	_ZN7openpal5ArrayIN8opendnp34CellINS1_22AnalogOutputStatusSpecEEEtED1Ev
	.set	_ZN7openpal5ArrayIN8opendnp34CellINS1_22AnalogOutputStatusSpecEEEtED1Ev,_ZN7openpal5ArrayIN8opendnp34CellINS1_22AnalogOutputStatusSpecEEEtED2Ev
	.section	.text._ZN7openpal5ArrayIN8opendnp34CellINS1_22AnalogOutputStatusSpecEEEtED0Ev,"axG",@progbits,_ZN7openpal5ArrayIN8opendnp34CellINS1_22AnalogOutputStatusSpecEEEtED5Ev,comdat
	.align 2
	.p2align 4
	.weak	_ZN7openpal5ArrayIN8opendnp34CellINS1_22AnalogOutputStatusSpecEEEtED0Ev
	.type	_ZN7openpal5ArrayIN8opendnp34CellINS1_22AnalogOutputStatusSpecEEEtED0Ev, @function
_ZN7openpal5ArrayIN8opendnp34CellINS1_22AnalogOutputStatusSpecEEEtED0Ev:
.LFB3876:
	.cfi_startproc
	endbr64
	movq	_ZTVN7openpal5ArrayIN8opendnp34CellINS1_22AnalogOutputStatusSpecEEEtEE@GOTPCREL(%rip), %rax
	pushq	%rbp
	.cfi_def_cfa_offset 16
	.cfi_offset 6, -16
	movq	%rdi, %rbp
	addq	$16, %rax
	movq	%rax, (%rdi)
	movq	16(%rdi), %rdi
	testq	%rdi, %rdi
	je	.L38
	call	_ZdaPv@PLT
.L38:
	movq	%rbp, %rdi
	movl	$24, %esi
	popq	%rbp
	.cfi_def_cfa_offset 8
	jmp	_ZdlPvm@PLT
	.cfi_endproc
.LFE3876:
	.size	_ZN7openpal5ArrayIN8opendnp34CellINS1_22AnalogOutputStatusSpecEEEtED0Ev, .-_ZN7openpal5ArrayIN8opendnp34CellINS1_22AnalogOutputStatusSpecEEEtED0Ev
	.section	.text._ZN7openpal5ArrayIN8opendnp34CellINS1_22BinaryOutputStatusSpecEEEtED2Ev,"axG",@progbits,_ZN7openpal5ArrayIN8opendnp34CellINS1_22BinaryOutputStatusSpecEEEtED5Ev,comdat
	.align 2
	.p2align 4
	.weak	_ZN7openpal5ArrayIN8opendnp34CellINS1_22BinaryOutputStatusSpecEEEtED2Ev
	.type	_ZN7openpal5ArrayIN8opendnp34CellINS1_22BinaryOutputStatusSpecEEEtED2Ev, @function
_ZN7openpal5ArrayIN8opendnp34CellINS1_22BinaryOutputStatusSpecEEEtED2Ev:
.LFB3870:
	.cfi_startproc
	endbr64
	movq	_ZTVN7openpal5ArrayIN8opendnp34CellINS1_22BinaryOutputStatusSpecEEEtEE@GOTPCREL(%rip), %rax
	addq	$16, %rax
	movq	%rax, (%rdi)
	movq	16(%rdi), %rdi
	testq	%rdi, %rdi
	je	.L43
	jmp	_ZdaPv@PLT
	.p2align 4,,10
	.p2align 3
.L43:
	ret
	.cfi_endproc
.LFE3870:
	.size	_ZN7openpal5ArrayIN8opendnp34CellINS1_22BinaryOutputStatusSpecEEEtED2Ev, .-_ZN7openpal5ArrayIN8opendnp34CellINS1_22BinaryOutputStatusSpecEEEtED2Ev
	.weak	_ZN7openpal5ArrayIN8opendnp34CellINS1_22BinaryOutputStatusSpecEEEtED1Ev
	.set	_ZN7openpal5ArrayIN8opendnp34CellINS1_22BinaryOutputStatusSpecEEEtED1Ev,_ZN7openpal5ArrayIN8opendnp34CellINS1_22BinaryOutputStatusSpecEEEtED2Ev
	.section	.text._ZN7openpal5ArrayIN8opendnp34CellINS1_22BinaryOutputStatusSpecEEEtED0Ev,"axG",@progbits,_ZN7openpal5ArrayIN8opendnp34CellINS1_22BinaryOutputStatusSpecEEEtED5Ev,comdat
	.align 2
	.p2align 4
	.weak	_ZN7openpal5ArrayIN8opendnp34CellINS1_22BinaryOutputStatusSpecEEEtED0Ev
	.type	_ZN7openpal5ArrayIN8opendnp34CellINS1_22BinaryOutputStatusSpecEEEtED0Ev, @function
_ZN7openpal5ArrayIN8opendnp34CellINS1_22BinaryOutputStatusSpecEEEtED0Ev:
.LFB3872:
	.cfi_startproc
	endbr64
	movq	_ZTVN7openpal5ArrayIN8opendnp34CellINS1_22BinaryOutputStatusSpecEEEtEE@GOTPCREL(%rip), %rax
	pushq	%rbp
	.cfi_def_cfa_offset 16
	.cfi_offset 6, -16
	movq	%rdi, %rbp
	addq	$16, %rax
	movq	%rax, (%rdi)
	movq	16(%rdi), %rdi
	testq	%rdi, %rdi
	je	.L46
	call	_ZdaPv@PLT
.L46:
	movq	%rbp, %rdi
	movl	$24, %esi
	popq	%rbp
	.cfi_def_cfa_offset 8
	jmp	_ZdlPvm@PLT
	.cfi_endproc
.LFE3872:
	.size	_ZN7openpal5ArrayIN8opendnp34CellINS1_22BinaryOutputStatusSpecEEEtED0Ev, .-_ZN7openpal5ArrayIN8opendnp34CellINS1_22BinaryOutputStatusSpecEEEtED0Ev
	.section	.text._ZN7openpal5ArrayIN8opendnp34CellINS1_17FrozenCounterSpecEEEtED2Ev,"axG",@progbits,_ZN7openpal5ArrayIN8opendnp34CellINS1_17FrozenCounterSpecEEEtED5Ev,comdat
	.align 2
	.p2align 4
	.weak	_ZN7openpal5ArrayIN8opendnp34CellINS1_17FrozenCounterSpecEEEtED2Ev
	.type	_ZN7openpal5ArrayIN8opendnp34CellINS1_17FrozenCounterSpecEEEtED2Ev, @function
_ZN7openpal5ArrayIN8opendnp34CellINS1_17FrozenCounterSpecEEEtED2Ev:
.LFB3866:
	.cfi_startproc
	endbr64
	movq	_ZTVN7openpal5ArrayIN8opendnp34CellINS1_17FrozenCounterSpecEEEtEE@GOTPCREL(%rip), %rax
	addq	$16, %rax
	movq	%rax, (%rdi)
	movq	16(%rdi), %rdi
	testq	%rdi, %rdi
	je	.L51
	jmp	_ZdaPv@PLT
	.p2align 4,,10
	.p2align 3
.L51:
	ret
	.cfi_endproc
.LFE3866:
	.size	_ZN7openpal5ArrayIN8opendnp34CellINS1_17FrozenCounterSpecEEEtED2Ev, .-_ZN7openpal5ArrayIN8opendnp34CellINS1_17FrozenCounterSpecEEEtED2Ev
	.weak	_ZN7openpal5ArrayIN8opendnp34CellINS1_17FrozenCounterSpecEEEtED1Ev
	.set	_ZN7openpal5ArrayIN8opendnp34CellINS1_17FrozenCounterSpecEEEtED1Ev,_ZN7openpal5ArrayIN8opendnp34CellINS1_17FrozenCounterSpecEEEtED2Ev
	.section	.text._ZN7openpal5ArrayIN8opendnp34CellINS1_17FrozenCounterSpecEEEtED0Ev,"axG",@progbits,_ZN7openpal5ArrayIN8opendnp34CellINS1_17FrozenCounterSpecEEEtED5Ev,comdat
	.align 2
	.p2align 4
	.weak	_ZN7openpal5ArrayIN8opendnp34CellINS1_17FrozenCounterSpecEEEtED0Ev
	.type	_ZN7openpal5ArrayIN8opendnp34CellINS1_17FrozenCounterSpecEEEtED0Ev, @function
_ZN7openpal5ArrayIN8opendnp34CellINS1_17FrozenCounterSpecEEEtED0Ev:
.LFB3868:
	.cfi_startproc
	endbr64
	movq	_ZTVN7openpal5ArrayIN8opendnp34CellINS1_17FrozenCounterSpecEEEtEE@GOTPCREL(%rip), %rax
	pushq	%rbp
	.cfi_def_cfa_offset 16
	.cfi_offset 6, -16
	movq	%rdi, %rbp
	addq	$16, %rax
	movq	%rax, (%rdi)
	movq	16(%rdi), %rdi
	testq	%rdi, %rdi
	je	.L54
	call	_ZdaPv@PLT
.L54:
	movq	%rbp, %rdi
	movl	$24, %esi
	popq	%rbp
	.cfi_def_cfa_offset 8
	jmp	_ZdlPvm@PLT
	.cfi_endproc
.LFE3868:
	.size	_ZN7openpal5ArrayIN8opendnp34CellINS1_17FrozenCounterSpecEEEtED0Ev, .-_ZN7openpal5ArrayIN8opendnp34CellINS1_17FrozenCounterSpecEEEtED0Ev
	.section	.text._ZN7openpal5ArrayIN8opendnp34CellINS1_11CounterSpecEEEtED2Ev,"axG",@progbits,_ZN7openpal5ArrayIN8opendnp34CellINS1_11CounterSpecEEEtED5Ev,comdat
	.align 2
	.p2align 4
	.weak	_ZN7openpal5ArrayIN8opendnp34CellINS1_11CounterSpecEEEtED2Ev
	.type	_ZN7openpal5ArrayIN8opendnp34CellINS1_11CounterSpecEEEtED2Ev, @function
_ZN7openpal5ArrayIN8opendnp34CellINS1_11CounterSpecEEEtED2Ev:
.LFB3862:
	.cfi_startproc
	endbr64
	movq	_ZTVN7openpal5ArrayIN8opendnp34CellINS1_11CounterSpecEEEtEE@GOTPCREL(%rip), %rax
	addq	$16, %rax
	movq	%rax, (%rdi)
	movq	16(%rdi), %rdi
	testq	%rdi, %rdi
	je	.L59
	jmp	_ZdaPv@PLT
	.p2align 4,,10
	.p2align 3
.L59:
	ret
	.cfi_endproc
.LFE3862:
	.size	_ZN7openpal5ArrayIN8opendnp34CellINS1_11CounterSpecEEEtED2Ev, .-_ZN7openpal5ArrayIN8opendnp34CellINS1_11CounterSpecEEEtED2Ev
	.weak	_ZN7openpal5ArrayIN8opendnp34CellINS1_11CounterSpecEEEtED1Ev
	.set	_ZN7openpal5ArrayIN8opendnp34CellINS1_11CounterSpecEEEtED1Ev,_ZN7openpal5ArrayIN8opendnp34CellINS1_11CounterSpecEEEtED2Ev
	.section	.text._ZN7openpal5ArrayIN8opendnp34CellINS1_11CounterSpecEEEtED0Ev,"axG",@progbits,_ZN7openpal5ArrayIN8opendnp34CellINS1_11CounterSpecEEEtED5Ev,comdat
	.align 2
	.p2align 4
	.weak	_ZN7openpal5ArrayIN8opendnp34CellINS1_11CounterSpecEEEtED0Ev
	.type	_ZN7openpal5ArrayIN8opendnp34CellINS1_11CounterSpecEEEtED0Ev, @function
_ZN7openpal5ArrayIN8opendnp34CellINS1_11CounterSpecEEEtED0Ev:
.LFB3864:
	.cfi_startproc
	endbr64
	movq	_ZTVN7openpal5ArrayIN8opendnp34CellINS1_11CounterSpecEEEtEE@GOTPCREL(%rip), %rax
	pushq	%rbp
	.cfi_def_cfa_offset 16
	.cfi_offset 6, -16
	movq	%rdi, %rbp
	addq	$16, %rax
	movq	%rax, (%rdi)
	movq	16(%rdi), %rdi
	testq	%rdi, %rdi
	je	.L62
	call	_ZdaPv@PLT
.L62:
	movq	%rbp, %rdi
	movl	$24, %esi
	popq	%rbp
	.cfi_def_cfa_offset 8
	jmp	_ZdlPvm@PLT
	.cfi_endproc
.LFE3864:
	.size	_ZN7openpal5ArrayIN8opendnp34CellINS1_11CounterSpecEEEtED0Ev, .-_ZN7openpal5ArrayIN8opendnp34CellINS1_11CounterSpecEEEtED0Ev
	.section	.text._ZN7openpal5ArrayIN8opendnp34CellINS1_10AnalogSpecEEEtED2Ev,"axG",@progbits,_ZN7openpal5ArrayIN8opendnp34CellINS1_10AnalogSpecEEEtED5Ev,comdat
	.align 2
	.p2align 4
	.weak	_ZN7openpal5ArrayIN8opendnp34CellINS1_10AnalogSpecEEEtED2Ev
	.type	_ZN7openpal5ArrayIN8opendnp34CellINS1_10AnalogSpecEEEtED2Ev, @function
_ZN7openpal5ArrayIN8opendnp34CellINS1_10AnalogSpecEEEtED2Ev:
.LFB3858:
	.cfi_startproc
	endbr64
	movq	_ZTVN7openpal5ArrayIN8opendnp34CellINS1_10AnalogSpecEEEtEE@GOTPCREL(%rip), %rax
	addq	$16, %rax
	movq	%rax, (%rdi)
	movq	16(%rdi), %rdi
	testq	%rdi, %rdi
	je	.L67
	jmp	_ZdaPv@PLT
	.p2align 4,,10
	.p2align 3
.L67:
	ret
	.cfi_endproc
.LFE3858:
	.size	_ZN7openpal5ArrayIN8opendnp34CellINS1_10AnalogSpecEEEtED2Ev, .-_ZN7openpal5ArrayIN8opendnp34CellINS1_10AnalogSpecEEEtED2Ev
	.weak	_ZN7openpal5ArrayIN8opendnp34CellINS1_10AnalogSpecEEEtED1Ev
	.set	_ZN7openpal5ArrayIN8opendnp34CellINS1_10AnalogSpecEEEtED1Ev,_ZN7openpal5ArrayIN8opendnp34CellINS1_10AnalogSpecEEEtED2Ev
	.section	.text._ZN7openpal5ArrayIN8opendnp34CellINS1_10AnalogSpecEEEtED0Ev,"axG",@progbits,_ZN7openpal5ArrayIN8opendnp34CellINS1_10AnalogSpecEEEtED5Ev,comdat
	.align 2
	.p2align 4
	.weak	_ZN7openpal5ArrayIN8opendnp34CellINS1_10AnalogSpecEEEtED0Ev
	.type	_ZN7openpal5ArrayIN8opendnp34CellINS1_10AnalogSpecEEEtED0Ev, @function
_ZN7openpal5ArrayIN8opendnp34CellINS1_10AnalogSpecEEEtED0Ev:
.LFB3860:
	.cfi_startproc
	endbr64
	movq	_ZTVN7openpal5ArrayIN8opendnp34CellINS1_10AnalogSpecEEEtEE@GOTPCREL(%rip), %rax
	pushq	%rbp
	.cfi_def_cfa_offset 16
	.cfi_offset 6, -16
	movq	%rdi, %rbp
	addq	$16, %rax
	movq	%rax, (%rdi)
	movq	16(%rdi), %rdi
	testq	%rdi, %rdi
	je	.L70
	call	_ZdaPv@PLT
.L70:
	movq	%rbp, %rdi
	movl	$24, %esi
	popq	%rbp
	.cfi_def_cfa_offset 8
	jmp	_ZdlPvm@PLT
	.cfi_endproc
.LFE3860:
	.size	_ZN7openpal5ArrayIN8opendnp34CellINS1_10AnalogSpecEEEtED0Ev, .-_ZN7openpal5ArrayIN8opendnp34CellINS1_10AnalogSpecEEEtED0Ev
	.section	.text._ZN7openpal5ArrayIN8opendnp34CellINS1_19DoubleBitBinarySpecEEEtED2Ev,"axG",@progbits,_ZN7openpal5ArrayIN8opendnp34CellINS1_19DoubleBitBinarySpecEEEtED5Ev,comdat
	.align 2
	.p2align 4
	.weak	_ZN7openpal5ArrayIN8opendnp34CellINS1_19DoubleBitBinarySpecEEEtED2Ev
	.type	_ZN7openpal5ArrayIN8opendnp34CellINS1_19DoubleBitBinarySpecEEEtED2Ev, @function
_ZN7openpal5ArrayIN8opendnp34CellINS1_19DoubleBitBinarySpecEEEtED2Ev:
.LFB3854:
	.cfi_startproc
	endbr64
	movq	_ZTVN7openpal5ArrayIN8opendnp34CellINS1_19DoubleBitBinarySpecEEEtEE@GOTPCREL(%rip), %rax
	addq	$16, %rax
	movq	%rax, (%rdi)
	movq	16(%rdi), %rdi
	testq	%rdi, %rdi
	je	.L75
	jmp	_ZdaPv@PLT
	.p2align 4,,10
	.p2align 3
.L75:
	ret
	.cfi_endproc
.LFE3854:
	.size	_ZN7openpal5ArrayIN8opendnp34CellINS1_19DoubleBitBinarySpecEEEtED2Ev, .-_ZN7openpal5ArrayIN8opendnp34CellINS1_19DoubleBitBinarySpecEEEtED2Ev
	.weak	_ZN7openpal5ArrayIN8opendnp34CellINS1_19DoubleBitBinarySpecEEEtED1Ev
	.set	_ZN7openpal5ArrayIN8opendnp34CellINS1_19DoubleBitBinarySpecEEEtED1Ev,_ZN7openpal5ArrayIN8opendnp34CellINS1_19DoubleBitBinarySpecEEEtED2Ev
	.section	.text._ZN7openpal5ArrayIN8opendnp34CellINS1_19DoubleBitBinarySpecEEEtED0Ev,"axG",@progbits,_ZN7openpal5ArrayIN8opendnp34CellINS1_19DoubleBitBinarySpecEEEtED5Ev,comdat
	.align 2
	.p2align 4
	.weak	_ZN7openpal5ArrayIN8opendnp34CellINS1_19DoubleBitBinarySpecEEEtED0Ev
	.type	_ZN7openpal5ArrayIN8opendnp34CellINS1_19DoubleBitBinarySpecEEEtED0Ev, @function
_ZN7openpal5ArrayIN8opendnp34CellINS1_19DoubleBitBinarySpecEEEtED0Ev:
.LFB3856:
	.cfi_startproc
	endbr64
	movq	_ZTVN7openpal5ArrayIN8opendnp34CellINS1_19DoubleBitBinarySpecEEEtEE@GOTPCREL(%rip), %rax
	pushq	%rbp
	.cfi_def_cfa_offset 16
	.cfi_offset 6, -16
	movq	%rdi, %rbp
	addq	$16, %rax
	movq	%rax, (%rdi)
	movq	16(%rdi), %rdi
	testq	%rdi, %rdi
	je	.L78
	call	_ZdaPv@PLT
.L78:
	movq	%rbp, %rdi
	movl	$24, %esi
	popq	%rbp
	.cfi_def_cfa_offset 8
	jmp	_ZdlPvm@PLT
	.cfi_endproc
.LFE3856:
	.size	_ZN7openpal5ArrayIN8opendnp34CellINS1_19DoubleBitBinarySpecEEEtED0Ev, .-_ZN7openpal5ArrayIN8opendnp34CellINS1_19DoubleBitBinarySpecEEEtED0Ev
	.section	.text._ZN7openpal5ArrayIN8opendnp34CellINS1_10BinarySpecEEEtED2Ev,"axG",@progbits,_ZN7openpal5ArrayIN8opendnp34CellINS1_10BinarySpecEEEtED5Ev,comdat
	.align 2
	.p2align 4
	.weak	_ZN7openpal5ArrayIN8opendnp34CellINS1_10BinarySpecEEEtED2Ev
	.type	_ZN7openpal5ArrayIN8opendnp34CellINS1_10BinarySpecEEEtED2Ev, @function
_ZN7openpal5ArrayIN8opendnp34CellINS1_10BinarySpecEEEtED2Ev:
.LFB3850:
	.cfi_startproc
	endbr64
	movq	_ZTVN7openpal5ArrayIN8opendnp34CellINS1_10BinarySpecEEEtEE@GOTPCREL(%rip), %rax
	addq	$16, %rax
	movq	%rax, (%rdi)
	movq	16(%rdi), %rdi
	testq	%rdi, %rdi
	je	.L83
	jmp	_ZdaPv@PLT
	.p2align 4,,10
	.p2align 3
.L83:
	ret
	.cfi_endproc
.LFE3850:
	.size	_ZN7openpal5ArrayIN8opendnp34CellINS1_10BinarySpecEEEtED2Ev, .-_ZN7openpal5ArrayIN8opendnp34CellINS1_10BinarySpecEEEtED2Ev
	.weak	_ZN7openpal5ArrayIN8opendnp34CellINS1_10BinarySpecEEEtED1Ev
	.set	_ZN7openpal5ArrayIN8opendnp34CellINS1_10BinarySpecEEEtED1Ev,_ZN7openpal5ArrayIN8opendnp34CellINS1_10BinarySpecEEEtED2Ev
	.section	.text._ZN7openpal5ArrayIN8opendnp34CellINS1_10BinarySpecEEEtED0Ev,"axG",@progbits,_ZN7openpal5ArrayIN8opendnp34CellINS1_10BinarySpecEEEtED5Ev,comdat
	.align 2
	.p2align 4
	.weak	_ZN7openpal5ArrayIN8opendnp34CellINS1_10BinarySpecEEEtED0Ev
	.type	_ZN7openpal5ArrayIN8opendnp34CellINS1_10BinarySpecEEEtED0Ev, @function
_ZN7openpal5ArrayIN8opendnp34CellINS1_10BinarySpecEEEtED0Ev:
.LFB3852:
	.cfi_startproc
	endbr64
	movq	_ZTVN7openpal5ArrayIN8opendnp34CellINS1_10BinarySpecEEEtEE@GOTPCREL(%rip), %rax
	pushq	%rbp
	.cfi_def_cfa_offset 16
	.cfi_offset 6, -16
	movq	%rdi, %rbp
	addq	$16, %rax
	movq	%rax, (%rdi)
	movq	16(%rdi), %rdi
	testq	%rdi, %rdi
	je	.L86
	call	_ZdaPv@PLT
.L86:
	movq	%rbp, %rdi
	movl	$24, %esi
	popq	%rbp
	.cfi_def_cfa_offset 8
	jmp	_ZdlPvm@PLT
	.cfi_endproc
.LFE3852:
	.size	_ZN7openpal5ArrayIN8opendnp34CellINS1_10BinarySpecEEEtED0Ev, .-_ZN7openpal5ArrayIN8opendnp34CellINS1_10BinarySpecEEEtED0Ev
	.section	.text._ZN7openpal5ArrayINS_8ListNodeIN8opendnp39SOERecordEEEjED2Ev,"axG",@progbits,_ZN7openpal5ArrayINS_8ListNodeIN8opendnp39SOERecordEEEjED5Ev,comdat
	.align 2
	.p2align 4
	.weak	_ZN7openpal5ArrayINS_8ListNodeIN8opendnp39SOERecordEEEjED2Ev
	.type	_ZN7openpal5ArrayINS_8ListNodeIN8opendnp39SOERecordEEEjED2Ev, @function
_ZN7openpal5ArrayINS_8ListNodeIN8opendnp39SOERecordEEEjED2Ev:
.LFB3846:
	.cfi_startproc
	endbr64
	movq	_ZTVN7openpal5ArrayINS_8ListNodeIN8opendnp39SOERecordEEEjEE@GOTPCREL(%rip), %rax
	addq	$16, %rax
	movq	%rax, (%rdi)
	movq	16(%rdi), %rdi
	testq	%rdi, %rdi
	je	.L91
	jmp	_ZdaPv@PLT
	.p2align 4,,10
	.p2align 3
.L91:
	ret
	.cfi_endproc
.LFE3846:
	.size	_ZN7openpal5ArrayINS_8ListNodeIN8opendnp39SOERecordEEEjED2Ev, .-_ZN7openpal5ArrayINS_8ListNodeIN8opendnp39SOERecordEEEjED2Ev
	.weak	_ZN7openpal5ArrayINS_8ListNodeIN8opendnp39SOERecordEEEjED1Ev
	.set	_ZN7openpal5ArrayINS_8ListNodeIN8opendnp39SOERecordEEEjED1Ev,_ZN7openpal5ArrayINS_8ListNodeIN8opendnp39SOERecordEEEjED2Ev
	.section	.text._ZN7openpal5ArrayINS_8ListNodeIN8opendnp39SOERecordEEEjED0Ev,"axG",@progbits,_ZN7openpal5ArrayINS_8ListNodeIN8opendnp39SOERecordEEEjED5Ev,comdat
	.align 2
	.p2align 4
	.weak	_ZN7openpal5ArrayINS_8ListNodeIN8opendnp39SOERecordEEEjED0Ev
	.type	_ZN7openpal5ArrayINS_8ListNodeIN8opendnp39SOERecordEEEjED0Ev, @function
_ZN7openpal5ArrayINS_8ListNodeIN8opendnp39SOERecordEEEjED0Ev:
.LFB3848:
	.cfi_startproc
	endbr64
	movq	_ZTVN7openpal5ArrayINS_8ListNodeIN8opendnp39SOERecordEEEjEE@GOTPCREL(%rip), %rax
	pushq	%rbp
	.cfi_def_cfa_offset 16
	.cfi_offset 6, -16
	movq	%rdi, %rbp
	addq	$16, %rax
	movq	%rax, (%rdi)
	movq	16(%rdi), %rdi
	testq	%rdi, %rdi
	je	.L94
	call	_ZdaPv@PLT
.L94:
	movq	%rbp, %rdi
	movl	$24, %esi
	popq	%rbp
	.cfi_def_cfa_offset 8
	jmp	_ZdlPvm@PLT
	.cfi_endproc
.LFE3848:
	.size	_ZN7openpal5ArrayINS_8ListNodeIN8opendnp39SOERecordEEEjED0Ev, .-_ZN7openpal5ArrayINS_8ListNodeIN8opendnp39SOERecordEEEjED0Ev
	.section	.text._ZNK8opendnp322IOutstationApplication17GetApplicationIINEv,"axG",@progbits,_ZNK8opendnp322IOutstationApplication17GetApplicationIINEv,comdat
	.align 2
	.p2align 4
	.weak	_ZNK8opendnp322IOutstationApplication17GetApplicationIINEv
	.type	_ZNK8opendnp322IOutstationApplication17GetApplicationIINEv, @function
_ZNK8opendnp322IOutstationApplication17GetApplicationIINEv:
.LFB2486:
	.cfi_startproc
	endbr64
	subq	$24, %rsp
	.cfi_def_cfa_offset 32
	movq	%fs:40, %rax
	movq	%rax, 8(%rsp)
	xorl	%eax, %eax
	leaq	4(%rsp), %rdi
	call	_ZN8opendnp314ApplicationIINC1Ev@PLT
	movl	4(%rsp), %eax
	movq	8(%rsp), %rdx
	xorq	%fs:40, %rdx
	jne	.L102
	addq	$24, %rsp
	.cfi_remember_state
	.cfi_def_cfa_offset 8
	ret
.L102:
	.cfi_restore_state
	call	__stack_chk_fail@PLT
	.cfi_endproc
.LFE2486:
	.size	_ZNK8opendnp322IOutstationApplication17GetApplicationIINEv, .-_ZNK8opendnp322IOutstationApplication17GetApplicationIINEv
	.section	.rodata.str1.1,"aMS",@progbits,1
.LC0:
	.string	"already offline"
	.section	.rodata.str1.8,"aMS",@progbits,1
	.align 8
.LC1:
	.string	"/home/kimchaer/Desktop/OpenPLC_v3/utils/dnp3_src/cpp/libs/src/opendnp3/outstation/OutstationContext.cpp(96)"
	.text
	.align 2
	.p2align 4
	.globl	_ZN8opendnp38OContext16OnLowerLayerDownEv
	.type	_ZN8opendnp38OContext16OnLowerLayerDownEv, @function
_ZN8opendnp38OContext16OnLowerLayerDownEv:
.LFB2911:
	.cfi_startproc
	endbr64
	pushq	%r13
	.cfi_def_cfa_offset 16
	.cfi_offset 13, -16
	pushq	%r12
	.cfi_def_cfa_offset 24
	.cfi_offset 12, -24
	pushq	%rbp
	.cfi_def_cfa_offset 32
	.cfi_offset 6, -32
	movq	%rdi, %rbp
	subq	$16, %rsp
	.cfi_def_cfa_offset 48
	movzbl	720(%rdi), %r12d
	movq	%fs:40, %rax
	movq	%rax, 8(%rsp)
	xorl	%eax, %eax
	testb	%r12b, %r12b
	je	.L111
	movq	_ZN8opendnp39StateIdle8instanceE@GOTPCREL(%rip), %rax
	movb	$0, 888(%rdi)
	leaq	744(%rdi), %rdi
	movq	%rax, 200(%rdi)
	xorl	%eax, %eax
	movw	%ax, -24(%rdi)
	call	_ZN8opendnp314RequestHistory5ResetEv@PLT
	leaq	760(%rbp), %rdi
	call	_ZN8opendnp315DeferredRequest5ResetEv@PLT
	leaq	104(%rbp), %rdi
	call	_ZN8opendnp311EventBuffer8UnselectEv@PLT
	leaq	640(%rbp), %rdi
	call	_ZN8opendnp315ResponseContext5ResetEv@PLT
	leaq	728(%rbp), %rdi
	call	_ZN7openpal8TimerRef6CancelEv@PLT
.L103:
	movq	8(%rsp), %rax
	xorq	%fs:40, %rax
	jne	.L112
	addq	$16, %rsp
	.cfi_remember_state
	.cfi_def_cfa_offset 32
	movl	%r12d, %eax
	popq	%rbp
	.cfi_def_cfa_offset 24
	popq	%r12
	.cfi_def_cfa_offset 16
	popq	%r13
	.cfi_def_cfa_offset 8
	ret
	.p2align 4,,10
	.p2align 3
.L111:
	.cfi_restore_state
	addq	$8, %rbp
	leaq	4(%rsp), %r13
	movl	$2, 4(%rsp)
	movq	%r13, %rsi
	movq	%rbp, %rdi
	call	_ZNK7openpal6Logger9IsEnabledERKNS_10LogFiltersE@PLT
	testb	%al, %al
	je	.L103
	leaq	.LC0(%rip), %rcx
	leaq	.LC1(%rip), %rdx
	movq	%r13, %rsi
	movq	%rbp, %rdi
	movl	$2, 4(%rsp)
	call	_ZN7openpal6Logger3LogERKNS_10LogFiltersEPKcS5_@PLT
	jmp	.L103
.L112:
	call	__stack_chk_fail@PLT
	.cfi_endproc
.LFE2911:
	.size	_ZN8opendnp38OContext16OnLowerLayerDownEv, .-_ZN8opendnp38OContext16OnLowerLayerDownEv
	.section	.text._ZN8opendnp38OContextD0Ev,"axG",@progbits,_ZN8opendnp38OContextD5Ev,comdat
	.align 2
	.p2align 4
	.weak	_ZN8opendnp38OContextD0Ev
	.type	_ZN8opendnp38OContextD0Ev, @function
_ZN8opendnp38OContextD0Ev:
.LFB3785:
	.cfi_startproc
	endbr64
	pushq	%r12
	.cfi_def_cfa_offset 16
	.cfi_offset 12, -16
	pushq	%rbp
	.cfi_def_cfa_offset 24
	.cfi_offset 6, -24
	movq	%rdi, %rbp
	pushq	%rbx
	.cfi_def_cfa_offset 32
	.cfi_offset 3, -32
	subq	$16, %rsp
	.cfi_def_cfa_offset 48
	movq	_ZTVN8opendnp38OContextE@GOTPCREL(%rip), %rax
	movq	_ZTVN7openpal5ArrayIhjEE@GOTPCREL(%rip), %rbx
	addq	$16, %rax
	movq	%rax, (%rdi)
	leaq	16(%rbx), %rax
	movq	%rax, 920(%rdi)
	movq	936(%rdi), %rdi
	testq	%rdi, %rdi
	je	.L114
	call	_ZdaPv@PLT
.L114:
	movq	880(%rbp), %rdi
	leaq	16(%rbx), %rax
	movq	%rax, 864(%rbp)
	testq	%rdi, %rdi
	je	.L115
	call	_ZdaPv@PLT
.L115:
	movq	800(%rbp), %rdi
	leaq	16(%rbx), %rax
	movq	%rax, 784(%rbp)
	testq	%rdi, %rdi
	je	.L116
	call	_ZdaPv@PLT
.L116:
	movq	_ZTVN8opendnp315DatabaseBuffersE@GOTPCREL(%rip), %rbx
	leaq	728(%rbp), %rdi
	leaq	88(%rbx), %rax
	leaq	16(%rbx), %rcx
	movq	%rax, %xmm1
	movq	%rcx, %xmm0
	punpcklqdq	%xmm1, %xmm0
	movaps	%xmm0, (%rsp)
	call	_ZN7openpal8TimerRefD1Ev@PLT
	movq	_ZTVN8opendnp38DatabaseE@GOTPCREL(%rip), %rax
	movdqa	(%rsp), %xmm0
	movq	592(%rbp), %rdi
	addq	$16, %rax
	movups	%xmm0, 384(%rbp)
	movq	%rax, 360(%rbp)
	leaq	120(%rbx), %rax
	movq	%rax, 400(%rbp)
	movq	_ZTVN7openpal5ArrayIN8opendnp34CellINS1_19TimeAndIntervalSpecEEEtEE@GOTPCREL(%rip), %rax
	addq	$16, %rax
	movq	%rax, 576(%rbp)
	testq	%rdi, %rdi
	je	.L117
	call	_ZdaPv@PLT
.L117:
	movq	_ZTVN7openpal5ArrayIN8opendnp34CellINS1_22AnalogOutputStatusSpecEEEtEE@GOTPCREL(%rip), %rax
	movq	568(%rbp), %rdi
	addq	$16, %rax
	movq	%rax, 552(%rbp)
	testq	%rdi, %rdi
	je	.L118
	call	_ZdaPv@PLT
.L118:
	movq	_ZTVN7openpal5ArrayIN8opendnp34CellINS1_22BinaryOutputStatusSpecEEEtEE@GOTPCREL(%rip), %rax
	movq	544(%rbp), %rdi
	addq	$16, %rax
	movq	%rax, 528(%rbp)
	testq	%rdi, %rdi
	je	.L119
	call	_ZdaPv@PLT
.L119:
	movq	_ZTVN7openpal5ArrayIN8opendnp34CellINS1_17FrozenCounterSpecEEEtEE@GOTPCREL(%rip), %rax
	movq	520(%rbp), %rdi
	addq	$16, %rax
	movq	%rax, 504(%rbp)
	testq	%rdi, %rdi
	je	.L120
	call	_ZdaPv@PLT
.L120:
	movq	_ZTVN7openpal5ArrayIN8opendnp34CellINS1_11CounterSpecEEEtEE@GOTPCREL(%rip), %rax
	movq	496(%rbp), %rdi
	addq	$16, %rax
	movq	%rax, 480(%rbp)
	testq	%rdi, %rdi
	je	.L121
	call	_ZdaPv@PLT
.L121:
	movq	_ZTVN7openpal5ArrayIN8opendnp34CellINS1_10AnalogSpecEEEtEE@GOTPCREL(%rip), %rax
	movq	472(%rbp), %rdi
	addq	$16, %rax
	movq	%rax, 456(%rbp)
	testq	%rdi, %rdi
	je	.L122
	call	_ZdaPv@PLT
.L122:
	movq	_ZTVN7openpal5ArrayIN8opendnp34CellINS1_19DoubleBitBinarySpecEEEtEE@GOTPCREL(%rip), %rax
	movq	448(%rbp), %rdi
	addq	$16, %rax
	movq	%rax, 432(%rbp)
	testq	%rdi, %rdi
	je	.L123
	call	_ZdaPv@PLT
.L123:
	movq	_ZTVN7openpal5ArrayIN8opendnp34CellINS1_10BinarySpecEEEtEE@GOTPCREL(%rip), %rax
	movq	424(%rbp), %rdi
	addq	$16, %rax
	movq	%rax, 408(%rbp)
	testq	%rdi, %rdi
	je	.L124
	call	_ZdaPv@PLT
.L124:
	movq	_ZTVN8opendnp311EventBufferE@GOTPCREL(%rip), %rax
	movq	208(%rbp), %rdi
	leaq	160(%rax), %rdx
	leaq	16(%rax), %rsi
	movq	%rdx, %xmm2
	movq	%rsi, %xmm0
	leaq	224(%rax), %rdx
	addq	$192, %rax
	punpcklqdq	%xmm2, %xmm0
	movq	%rdx, %xmm3
	movups	%xmm0, 104(%rbp)
	movq	%rax, %xmm0
	movq	_ZTVN7openpal5ArrayINS_8ListNodeIN8opendnp39SOERecordEEEjEE@GOTPCREL(%rip), %rax
	punpcklqdq	%xmm3, %xmm0
	addq	$16, %rax
	movups	%xmm0, 120(%rbp)
	movq	%rax, 192(%rbp)
	testq	%rdi, %rdi
	je	.L125
	call	_ZdaPv@PLT
.L125:
	movq	96(%rbp), %r12
	testq	%r12, %r12
	je	.L127
	movq	_ZL28__gthrw___pthread_key_createPjPFvPvE@GOTPCREL(%rip), %rbx
	testq	%rbx, %rbx
	je	.L128
	movl	$-1, %eax
	lock xaddl	%eax, 8(%r12)
	cmpl	$1, %eax
	je	.L205
	.p2align 4,,10
	.p2align 3
.L127:
	movq	80(%rbp), %r12
	testq	%r12, %r12
	je	.L134
	movq	_ZL28__gthrw___pthread_key_createPjPFvPvE@GOTPCREL(%rip), %rbx
	testq	%rbx, %rbx
	je	.L135
	movl	$-1, %eax
	lock xaddl	%eax, 8(%r12)
	cmpl	$1, %eax
	je	.L206
	.p2align 4,,10
	.p2align 3
.L134:
	movq	64(%rbp), %r12
	testq	%r12, %r12
	je	.L141
	movq	_ZL28__gthrw___pthread_key_createPjPFvPvE@GOTPCREL(%rip), %rbx
	testq	%rbx, %rbx
	je	.L142
	movl	$-1, %eax
	lock xaddl	%eax, 8(%r12)
	cmpl	$1, %eax
	je	.L207
	.p2align 4,,10
	.p2align 3
.L141:
	movq	48(%rbp), %r12
	testq	%r12, %r12
	je	.L148
	movq	_ZL28__gthrw___pthread_key_createPjPFvPvE@GOTPCREL(%rip), %rbx
	testq	%rbx, %rbx
	je	.L149
	movl	$-1, %eax
	lock xaddl	%eax, 8(%r12)
	cmpl	$1, %eax
	je	.L208
	.p2align 4,,10
	.p2align 3
.L148:
	movq	32(%rbp), %r12
	testq	%r12, %r12
	je	.L155
	movq	_ZL28__gthrw___pthread_key_createPjPFvPvE@GOTPCREL(%rip), %rbx
	testq	%rbx, %rbx
	je	.L156
	movl	$-1, %eax
	lock xaddl	%eax, 8(%r12)
	cmpl	$1, %eax
	je	.L209
	.p2align 4,,10
	.p2align 3
.L155:
	movq	16(%rbp), %r12
	testq	%r12, %r12
	je	.L162
	movq	_ZL28__gthrw___pthread_key_createPjPFvPvE@GOTPCREL(%rip), %rbx
	testq	%rbx, %rbx
	je	.L163
	movl	$-1, %eax
	lock xaddl	%eax, 8(%r12)
	cmpl	$1, %eax
	je	.L210
.L162:
	addq	$16, %rsp
	.cfi_remember_state
	.cfi_def_cfa_offset 32
	movq	%rbp, %rdi
	movl	$952, %esi
	popq	%rbx
	.cfi_def_cfa_offset 24
	popq	%rbp
	.cfi_def_cfa_offset 16
	popq	%r12
	.cfi_def_cfa_offset 8
	jmp	_ZdlPvm@PLT
	.p2align 4,,10
	.p2align 3
.L128:
	.cfi_restore_state
	movl	8(%r12), %eax
	leal	-1(%rax), %edx
	movl	%edx, 8(%r12)
	cmpl	$1, %eax
	jne	.L127
.L205:
	movq	(%r12), %rax
	movq	%r12, %rdi
	call	*16(%rax)
	testq	%rbx, %rbx
	je	.L131
	movl	$-1, %eax
	lock xaddl	%eax, 12(%r12)
.L132:
	cmpl	$1, %eax
	jne	.L127
	movq	(%r12), %rax
	movq	%r12, %rdi
	call	*24(%rax)
	jmp	.L127
	.p2align 4,,10
	.p2align 3
.L163:
	movl	8(%r12), %eax
	leal	-1(%rax), %edx
	movl	%edx, 8(%r12)
	cmpl	$1, %eax
	jne	.L162
.L210:
	movq	(%r12), %rax
	movq	%r12, %rdi
	call	*16(%rax)
	testq	%rbx, %rbx
	je	.L166
	movl	$-1, %eax
	lock xaddl	%eax, 12(%r12)
.L167:
	cmpl	$1, %eax
	jne	.L162
	movq	(%r12), %rax
	movq	%r12, %rdi
	call	*24(%rax)
	jmp	.L162
	.p2align 4,,10
	.p2align 3
.L142:
	movl	8(%r12), %eax
	leal	-1(%rax), %edx
	movl	%edx, 8(%r12)
	cmpl	$1, %eax
	jne	.L141
.L207:
	movq	(%r12), %rax
	movq	%r12, %rdi
	call	*16(%rax)
	testq	%rbx, %rbx
	je	.L145
	movl	$-1, %eax
	lock xaddl	%eax, 12(%r12)
.L146:
	cmpl	$1, %eax
	jne	.L141
	movq	(%r12), %rax
	movq	%r12, %rdi
	call	*24(%rax)
	jmp	.L141
	.p2align 4,,10
	.p2align 3
.L135:
	movl	8(%r12), %eax
	leal	-1(%rax), %edx
	movl	%edx, 8(%r12)
	cmpl	$1, %eax
	jne	.L134
.L206:
	movq	(%r12), %rax
	movq	%r12, %rdi
	call	*16(%rax)
	testq	%rbx, %rbx
	je	.L138
	movl	$-1, %eax
	lock xaddl	%eax, 12(%r12)
.L139:
	cmpl	$1, %eax
	jne	.L134
	movq	(%r12), %rax
	movq	%r12, %rdi
	call	*24(%rax)
	jmp	.L134
	.p2align 4,,10
	.p2align 3
.L156:
	movl	8(%r12), %eax
	leal	-1(%rax), %edx
	movl	%edx, 8(%r12)
	cmpl	$1, %eax
	jne	.L155
.L209:
	movq	(%r12), %rax
	movq	%r12, %rdi
	call	*16(%rax)
	testq	%rbx, %rbx
	je	.L159
	movl	$-1, %eax
	lock xaddl	%eax, 12(%r12)
.L160:
	cmpl	$1, %eax
	jne	.L155
	movq	(%r12), %rax
	movq	%r12, %rdi
	call	*24(%rax)
	jmp	.L155
	.p2align 4,,10
	.p2align 3
.L149:
	movl	8(%r12), %eax
	leal	-1(%rax), %edx
	movl	%edx, 8(%r12)
	cmpl	$1, %eax
	jne	.L148
.L208:
	movq	(%r12), %rax
	movq	%r12, %rdi
	call	*16(%rax)
	testq	%rbx, %rbx
	je	.L152
	movl	$-1, %eax
	lock xaddl	%eax, 12(%r12)
.L153:
	cmpl	$1, %eax
	jne	.L148
	movq	(%r12), %rax
	movq	%r12, %rdi
	call	*24(%rax)
	jmp	.L148
	.p2align 4,,10
	.p2align 3
.L131:
	movl	12(%r12), %eax
	leal	-1(%rax), %edx
	movl	%edx, 12(%r12)
	jmp	.L132
	.p2align 4,,10
	.p2align 3
.L166:
	movl	12(%r12), %eax
	leal	-1(%rax), %edx
	movl	%edx, 12(%r12)
	jmp	.L167
	.p2align 4,,10
	.p2align 3
.L138:
	movl	12(%r12), %eax
	leal	-1(%rax), %edx
	movl	%edx, 12(%r12)
	jmp	.L139
	.p2align 4,,10
	.p2align 3
.L159:
	movl	12(%r12), %eax
	leal	-1(%rax), %edx
	movl	%edx, 12(%r12)
	jmp	.L160
	.p2align 4,,10
	.p2align 3
.L145:
	movl	12(%r12), %eax
	leal	-1(%rax), %edx
	movl	%edx, 12(%r12)
	jmp	.L146
	.p2align 4,,10
	.p2align 3
.L152:
	movl	12(%r12), %eax
	leal	-1(%rax), %edx
	movl	%edx, 12(%r12)
	jmp	.L153
	.cfi_endproc
.LFE3785:
	.size	_ZN8opendnp38OContextD0Ev, .-_ZN8opendnp38OContextD0Ev
	.section	.text._ZN8opendnp38OContextD2Ev,"axG",@progbits,_ZN8opendnp38OContextD5Ev,comdat
	.align 2
	.p2align 4
	.weak	_ZN8opendnp38OContextD2Ev
	.type	_ZN8opendnp38OContextD2Ev, @function
_ZN8opendnp38OContextD2Ev:
.LFB3783:
	.cfi_startproc
	endbr64
	pushq	%r12
	.cfi_def_cfa_offset 16
	.cfi_offset 12, -16
	pushq	%rbp
	.cfi_def_cfa_offset 24
	.cfi_offset 6, -24
	pushq	%rbx
	.cfi_def_cfa_offset 32
	.cfi_offset 3, -32
	movq	%rdi, %rbx
	subq	$16, %rsp
	.cfi_def_cfa_offset 48
	movq	_ZTVN8opendnp38OContextE@GOTPCREL(%rip), %rax
	movq	_ZTVN7openpal5ArrayIhjEE@GOTPCREL(%rip), %rbp
	addq	$16, %rax
	movq	%rax, (%rdi)
	leaq	16(%rbp), %rax
	movq	%rax, 920(%rdi)
	movq	936(%rdi), %rdi
	testq	%rdi, %rdi
	je	.L212
	call	_ZdaPv@PLT
.L212:
	movq	880(%rbx), %rdi
	leaq	16(%rbp), %rax
	movq	%rax, 864(%rbx)
	testq	%rdi, %rdi
	je	.L213
	call	_ZdaPv@PLT
.L213:
	movq	800(%rbx), %rdi
	leaq	16(%rbp), %rax
	movq	%rax, 784(%rbx)
	testq	%rdi, %rdi
	je	.L214
	call	_ZdaPv@PLT
.L214:
	movq	_ZTVN8opendnp315DatabaseBuffersE@GOTPCREL(%rip), %rbp
	leaq	728(%rbx), %rdi
	leaq	88(%rbp), %rax
	leaq	16(%rbp), %rcx
	movq	%rax, %xmm1
	movq	%rcx, %xmm0
	punpcklqdq	%xmm1, %xmm0
	movaps	%xmm0, (%rsp)
	call	_ZN7openpal8TimerRefD1Ev@PLT
	movq	_ZTVN8opendnp38DatabaseE@GOTPCREL(%rip), %rax
	movdqa	(%rsp), %xmm0
	movq	592(%rbx), %rdi
	addq	$16, %rax
	movups	%xmm0, 384(%rbx)
	movq	%rax, 360(%rbx)
	leaq	120(%rbp), %rax
	movq	%rax, 400(%rbx)
	movq	_ZTVN7openpal5ArrayIN8opendnp34CellINS1_19TimeAndIntervalSpecEEEtEE@GOTPCREL(%rip), %rax
	addq	$16, %rax
	movq	%rax, 576(%rbx)
	testq	%rdi, %rdi
	je	.L215
	call	_ZdaPv@PLT
.L215:
	movq	_ZTVN7openpal5ArrayIN8opendnp34CellINS1_22AnalogOutputStatusSpecEEEtEE@GOTPCREL(%rip), %rax
	movq	568(%rbx), %rdi
	addq	$16, %rax
	movq	%rax, 552(%rbx)
	testq	%rdi, %rdi
	je	.L216
	call	_ZdaPv@PLT
.L216:
	movq	_ZTVN7openpal5ArrayIN8opendnp34CellINS1_22BinaryOutputStatusSpecEEEtEE@GOTPCREL(%rip), %rax
	movq	544(%rbx), %rdi
	addq	$16, %rax
	movq	%rax, 528(%rbx)
	testq	%rdi, %rdi
	je	.L217
	call	_ZdaPv@PLT
.L217:
	movq	_ZTVN7openpal5ArrayIN8opendnp34CellINS1_17FrozenCounterSpecEEEtEE@GOTPCREL(%rip), %rax
	movq	520(%rbx), %rdi
	addq	$16, %rax
	movq	%rax, 504(%rbx)
	testq	%rdi, %rdi
	je	.L218
	call	_ZdaPv@PLT
.L218:
	movq	_ZTVN7openpal5ArrayIN8opendnp34CellINS1_11CounterSpecEEEtEE@GOTPCREL(%rip), %rax
	movq	496(%rbx), %rdi
	addq	$16, %rax
	movq	%rax, 480(%rbx)
	testq	%rdi, %rdi
	je	.L219
	call	_ZdaPv@PLT
.L219:
	movq	_ZTVN7openpal5ArrayIN8opendnp34CellINS1_10AnalogSpecEEEtEE@GOTPCREL(%rip), %rax
	movq	472(%rbx), %rdi
	addq	$16, %rax
	movq	%rax, 456(%rbx)
	testq	%rdi, %rdi
	je	.L220
	call	_ZdaPv@PLT
.L220:
	movq	_ZTVN7openpal5ArrayIN8opendnp34CellINS1_19DoubleBitBinarySpecEEEtEE@GOTPCREL(%rip), %rax
	movq	448(%rbx), %rdi
	addq	$16, %rax
	movq	%rax, 432(%rbx)
	testq	%rdi, %rdi
	je	.L221
	call	_ZdaPv@PLT
.L221:
	movq	_ZTVN7openpal5ArrayIN8opendnp34CellINS1_10BinarySpecEEEtEE@GOTPCREL(%rip), %rax
	movq	424(%rbx), %rdi
	addq	$16, %rax
	movq	%rax, 408(%rbx)
	testq	%rdi, %rdi
	je	.L222
	call	_ZdaPv@PLT
.L222:
	movq	_ZTVN8opendnp311EventBufferE@GOTPCREL(%rip), %rax
	movq	208(%rbx), %rdi
	leaq	160(%rax), %rdx
	leaq	16(%rax), %rsi
	movq	%rdx, %xmm2
	movq	%rsi, %xmm0
	leaq	224(%rax), %rdx
	addq	$192, %rax
	punpcklqdq	%xmm2, %xmm0
	movq	%rdx, %xmm3
	movups	%xmm0, 104(%rbx)
	movq	%rax, %xmm0
	movq	_ZTVN7openpal5ArrayINS_8ListNodeIN8opendnp39SOERecordEEEjEE@GOTPCREL(%rip), %rax
	punpcklqdq	%xmm3, %xmm0
	addq	$16, %rax
	movups	%xmm0, 120(%rbx)
	movq	%rax, 192(%rbx)
	testq	%rdi, %rdi
	je	.L223
	call	_ZdaPv@PLT
.L223:
	movq	96(%rbx), %r12
	testq	%r12, %r12
	je	.L225
	movq	_ZL28__gthrw___pthread_key_createPjPFvPvE@GOTPCREL(%rip), %rbp
	testq	%rbp, %rbp
	je	.L226
	movl	$-1, %eax
	lock xaddl	%eax, 8(%r12)
	cmpl	$1, %eax
	je	.L303
	.p2align 4,,10
	.p2align 3
.L225:
	movq	80(%rbx), %r12
	testq	%r12, %r12
	je	.L232
	movq	_ZL28__gthrw___pthread_key_createPjPFvPvE@GOTPCREL(%rip), %rbp
	testq	%rbp, %rbp
	je	.L233
	movl	$-1, %eax
	lock xaddl	%eax, 8(%r12)
	cmpl	$1, %eax
	je	.L304
	.p2align 4,,10
	.p2align 3
.L232:
	movq	64(%rbx), %r12
	testq	%r12, %r12
	je	.L239
	movq	_ZL28__gthrw___pthread_key_createPjPFvPvE@GOTPCREL(%rip), %rbp
	testq	%rbp, %rbp
	je	.L240
	movl	$-1, %eax
	lock xaddl	%eax, 8(%r12)
	cmpl	$1, %eax
	je	.L305
	.p2align 4,,10
	.p2align 3
.L239:
	movq	48(%rbx), %r12
	testq	%r12, %r12
	je	.L246
	movq	_ZL28__gthrw___pthread_key_createPjPFvPvE@GOTPCREL(%rip), %rbp
	testq	%rbp, %rbp
	je	.L247
	movl	$-1, %eax
	lock xaddl	%eax, 8(%r12)
	cmpl	$1, %eax
	je	.L306
	.p2align 4,,10
	.p2align 3
.L246:
	movq	32(%rbx), %r12
	testq	%r12, %r12
	je	.L253
	movq	_ZL28__gthrw___pthread_key_createPjPFvPvE@GOTPCREL(%rip), %rbp
	testq	%rbp, %rbp
	je	.L254
	movl	$-1, %eax
	lock xaddl	%eax, 8(%r12)
	cmpl	$1, %eax
	je	.L307
	.p2align 4,,10
	.p2align 3
.L253:
	movq	16(%rbx), %r12
	testq	%r12, %r12
	je	.L211
	movq	_ZL28__gthrw___pthread_key_createPjPFvPvE@GOTPCREL(%rip), %rbp
	testq	%rbp, %rbp
	je	.L261
	movl	$-1, %eax
	lock xaddl	%eax, 8(%r12)
	cmpl	$1, %eax
	je	.L308
.L211:
	addq	$16, %rsp
	.cfi_remember_state
	.cfi_def_cfa_offset 32
	popq	%rbx
	.cfi_def_cfa_offset 24
	popq	%rbp
	.cfi_def_cfa_offset 16
	popq	%r12
	.cfi_def_cfa_offset 8
	ret
	.p2align 4,,10
	.p2align 3
.L226:
	.cfi_restore_state
	movl	8(%r12), %eax
	leal	-1(%rax), %edx
	movl	%edx, 8(%r12)
	cmpl	$1, %eax
	jne	.L225
.L303:
	movq	(%r12), %rax
	movq	%r12, %rdi
	call	*16(%rax)
	testq	%rbp, %rbp
	je	.L229
	movl	$-1, %eax
	lock xaddl	%eax, 12(%r12)
.L230:
	cmpl	$1, %eax
	jne	.L225
	movq	(%r12), %rax
	movq	%r12, %rdi
	call	*24(%rax)
	jmp	.L225
	.p2align 4,,10
	.p2align 3
.L261:
	movl	8(%r12), %eax
	leal	-1(%rax), %edx
	movl	%edx, 8(%r12)
	cmpl	$1, %eax
	jne	.L211
.L308:
	movq	(%r12), %rax
	movq	%r12, %rdi
	call	*16(%rax)
	testq	%rbp, %rbp
	je	.L264
	movl	$-1, %eax
	lock xaddl	%eax, 12(%r12)
.L265:
	cmpl	$1, %eax
	jne	.L211
	movq	(%r12), %rax
	movq	%r12, %rdi
	movq	24(%rax), %rax
	addq	$16, %rsp
	.cfi_remember_state
	.cfi_def_cfa_offset 32
	popq	%rbx
	.cfi_def_cfa_offset 24
	popq	%rbp
	.cfi_def_cfa_offset 16
	popq	%r12
	.cfi_def_cfa_offset 8
	jmp	*%rax
	.p2align 4,,10
	.p2align 3
.L240:
	.cfi_restore_state
	movl	8(%r12), %eax
	leal	-1(%rax), %edx
	movl	%edx, 8(%r12)
	cmpl	$1, %eax
	jne	.L239
.L305:
	movq	(%r12), %rax
	movq	%r12, %rdi
	call	*16(%rax)
	testq	%rbp, %rbp
	je	.L243
	movl	$-1, %eax
	lock xaddl	%eax, 12(%r12)
.L244:
	cmpl	$1, %eax
	jne	.L239
	movq	(%r12), %rax
	movq	%r12, %rdi
	call	*24(%rax)
	jmp	.L239
	.p2align 4,,10
	.p2align 3
.L233:
	movl	8(%r12), %eax
	leal	-1(%rax), %edx
	movl	%edx, 8(%r12)
	cmpl	$1, %eax
	jne	.L232
.L304:
	movq	(%r12), %rax
	movq	%r12, %rdi
	call	*16(%rax)
	testq	%rbp, %rbp
	je	.L236
	movl	$-1, %eax
	lock xaddl	%eax, 12(%r12)
.L237:
	cmpl	$1, %eax
	jne	.L232
	movq	(%r12), %rax
	movq	%r12, %rdi
	call	*24(%rax)
	jmp	.L232
	.p2align 4,,10
	.p2align 3
.L254:
	movl	8(%r12), %eax
	leal	-1(%rax), %edx
	movl	%edx, 8(%r12)
	cmpl	$1, %eax
	jne	.L253
.L307:
	movq	(%r12), %rax
	movq	%r12, %rdi
	call	*16(%rax)
	testq	%rbp, %rbp
	je	.L257
	movl	$-1, %eax
	lock xaddl	%eax, 12(%r12)
.L258:
	cmpl	$1, %eax
	jne	.L253
	movq	(%r12), %rax
	movq	%r12, %rdi
	call	*24(%rax)
	jmp	.L253
	.p2align 4,,10
	.p2align 3
.L247:
	movl	8(%r12), %eax
	leal	-1(%rax), %edx
	movl	%edx, 8(%r12)
	cmpl	$1, %eax
	jne	.L246
.L306:
	movq	(%r12), %rax
	movq	%r12, %rdi
	call	*16(%rax)
	testq	%rbp, %rbp
	je	.L250
	movl	$-1, %eax
	lock xaddl	%eax, 12(%r12)
.L251:
	cmpl	$1, %eax
	jne	.L246
	movq	(%r12), %rax
	movq	%r12, %rdi
	call	*24(%rax)
	jmp	.L246
	.p2align 4,,10
	.p2align 3
.L229:
	movl	12(%r12), %eax
	leal	-1(%rax), %edx
	movl	%edx, 12(%r12)
	jmp	.L230
	.p2align 4,,10
	.p2align 3
.L264:
	movl	12(%r12), %eax
	leal	-1(%rax), %edx
	movl	%edx, 12(%r12)
	jmp	.L265
	.p2align 4,,10
	.p2align 3
.L236:
	movl	12(%r12), %eax
	leal	-1(%rax), %edx
	movl	%edx, 12(%r12)
	jmp	.L237
	.p2align 4,,10
	.p2align 3
.L257:
	movl	12(%r12), %eax
	leal	-1(%rax), %edx
	movl	%edx, 12(%r12)
	jmp	.L258
	.p2align 4,,10
	.p2align 3
.L243:
	movl	12(%r12), %eax
	leal	-1(%rax), %edx
	movl	%edx, 12(%r12)
	jmp	.L244
	.p2align 4,,10
	.p2align 3
.L250:
	movl	12(%r12), %eax
	leal	-1(%rax), %edx
	movl	%edx, 12(%r12)
	jmp	.L251
	.cfi_endproc
.LFE3783:
	.size	_ZN8opendnp38OContextD2Ev, .-_ZN8opendnp38OContextD2Ev
	.weak	_ZN8opendnp38OContextD1Ev
	.set	_ZN8opendnp38OContextD1Ev,_ZN8opendnp38OContextD2Ev
	.section	.text._ZN7openpal6LoggerD2Ev,"axG",@progbits,_ZN7openpal6LoggerD5Ev,comdat
	.align 2
	.p2align 4
	.weak	_ZN7openpal6LoggerD2Ev
	.type	_ZN7openpal6LoggerD2Ev, @function
_ZN7openpal6LoggerD2Ev:
.LFB2680:
	.cfi_startproc
	endbr64
	pushq	%r12
	.cfi_def_cfa_offset 16
	.cfi_offset 12, -16
	pushq	%rbp
	.cfi_def_cfa_offset 24
	.cfi_offset 6, -24
	pushq	%rbx
	.cfi_def_cfa_offset 32
	.cfi_offset 3, -32
	movq	24(%rdi), %rbp
	movq	%rdi, %rbx
	testq	%rbp, %rbp
	je	.L311
	movq	_ZL28__gthrw___pthread_key_createPjPFvPvE@GOTPCREL(%rip), %r12
	testq	%r12, %r12
	je	.L312
	movl	$-1, %eax
	lock xaddl	%eax, 8(%rbp)
	cmpl	$1, %eax
	je	.L325
	.p2align 4,,10
	.p2align 3
.L311:
	movq	8(%rbx), %rbp
	testq	%rbp, %rbp
	je	.L309
	movq	_ZL28__gthrw___pthread_key_createPjPFvPvE@GOTPCREL(%rip), %r12
	testq	%r12, %r12
	je	.L319
	movl	$-1, %eax
	lock xaddl	%eax, 8(%rbp)
	cmpl	$1, %eax
	je	.L326
.L309:
	popq	%rbx
	.cfi_remember_state
	.cfi_def_cfa_offset 24
	popq	%rbp
	.cfi_def_cfa_offset 16
	popq	%r12
	.cfi_def_cfa_offset 8
	ret
	.p2align 4,,10
	.p2align 3
.L312:
	.cfi_restore_state
	movl	8(%rbp), %eax
	leal	-1(%rax), %edx
	movl	%edx, 8(%rbp)
	cmpl	$1, %eax
	jne	.L311
.L325:
	movq	0(%rbp), %rax
	movq	%rbp, %rdi
	call	*16(%rax)
	testq	%r12, %r12
	je	.L315
	movl	$-1, %eax
	lock xaddl	%eax, 12(%rbp)
.L316:
	cmpl	$1, %eax
	jne	.L311
	movq	0(%rbp), %rax
	movq	%rbp, %rdi
	call	*24(%rax)
	jmp	.L311
	.p2align 4,,10
	.p2align 3
.L319:
	movl	8(%rbp), %eax
	leal	-1(%rax), %edx
	movl	%edx, 8(%rbp)
	cmpl	$1, %eax
	jne	.L309
.L326:
	movq	0(%rbp), %rax
	movq	%rbp, %rdi
	call	*16(%rax)
	testq	%r12, %r12
	je	.L322
	movl	$-1, %eax
	lock xaddl	%eax, 12(%rbp)
.L323:
	cmpl	$1, %eax
	jne	.L309
	movq	0(%rbp), %rax
	popq	%rbx
	.cfi_remember_state
	.cfi_def_cfa_offset 24
	movq	%rbp, %rdi
	popq	%rbp
	.cfi_def_cfa_offset 16
	popq	%r12
	.cfi_def_cfa_offset 8
	movq	24(%rax), %rax
	jmp	*%rax
	.p2align 4,,10
	.p2align 3
.L315:
	.cfi_restore_state
	movl	12(%rbp), %eax
	leal	-1(%rax), %edx
	movl	%edx, 12(%rbp)
	jmp	.L316
	.p2align 4,,10
	.p2align 3
.L322:
	movl	12(%rbp), %eax
	leal	-1(%rax), %edx
	movl	%edx, 12(%rbp)
	jmp	.L323
	.cfi_endproc
.LFE2680:
	.size	_ZN7openpal6LoggerD2Ev, .-_ZN7openpal6LoggerD2Ev
	.weak	_ZN7openpal6LoggerD1Ev
	.set	_ZN7openpal6LoggerD1Ev,_ZN7openpal6LoggerD2Ev
	.text
	.align 2
	.p2align 4
	.globl	_ZN8opendnp38OContext17ProcessNewRequestERKNS_10APDUHeaderERKN7openpal6RSliceE
	.type	_ZN8opendnp38OContext17ProcessNewRequestERKNS_10APDUHeaderERKN7openpal6RSliceE, @function
_ZN8opendnp38OContext17ProcessNewRequestERKNS_10APDUHeaderERKN7openpal6RSliceE:
.LFB2915:
	.cfi_startproc
	endbr64
	movzbl	5(%rsi), %eax
	movq	%rdi, %r8
	movq	%rdx, %rcx
	movb	%al, 832(%rdi)
	movq	944(%rdi), %rdi
	cmpb	$1, (%rsi)
	movq	(%rdi), %rax
	je	.L329
	movq	%rsi, %rdx
	movq	40(%rax), %rax
	movq	%r8, %rsi
	jmp	*%rax
	.p2align 4,,10
	.p2align 3
.L329:
	movq	%rsi, %rdx
	movq	32(%rax), %rax
	movq	%r8, %rsi
	jmp	*%rax
	.cfi_endproc
.LFE2915:
	.size	_ZN8opendnp38OContext17ProcessNewRequestERKNS_10APDUHeaderERKN7openpal6RSliceE, .-_ZN8opendnp38OContext17ProcessNewRequestERKNS_10APDUHeaderERKN7openpal6RSliceE
	.align 2
	.p2align 4
	.globl	_ZN8opendnp38OContext19OnReceiveSolRequestERKNS_10APDUHeaderERKN7openpal6RSliceE
	.type	_ZN8opendnp38OContext19OnReceiveSolRequestERKNS_10APDUHeaderERKN7openpal6RSliceE, @function
_ZN8opendnp38OContext19OnReceiveSolRequestERKNS_10APDUHeaderERKN7openpal6RSliceE:
.LFB2914:
	.cfi_startproc
	endbr64
	pushq	%rbp
	.cfi_def_cfa_offset 16
	.cfi_offset 6, -16
	movq	%rdi, %rbp
	subq	$16, %rsp
	.cfi_def_cfa_offset 32
	cmpb	$0, 744(%rdi)
	je	.L331
	movzbl	832(%rdi), %eax
	cmpb	%al, 5(%rsi)
	je	.L336
.L331:
	addq	$16, %rsp
	.cfi_remember_state
	.cfi_def_cfa_offset 16
	movq	%rbp, %rdi
	popq	%rbp
	.cfi_def_cfa_offset 8
	jmp	_ZN8opendnp38OContext17ProcessNewRequestERKNS_10APDUHeaderERKN7openpal6RSliceE@PLT
	.p2align 4,,10
	.p2align 3
.L336:
	.cfi_restore_state
	leaq	744(%rdi), %rdi
	movq	%rdx, 8(%rsp)
	movq	%rsi, (%rsp)
	call	_ZNK8opendnp314RequestHistory22FullyEqualsLastRequestERKNS_10APDUHeaderERKN7openpal6RSliceE@PLT
	movq	(%rsp), %rsi
	movq	8(%rsp), %rdx
	testb	%al, %al
	je	.L331
	movq	944(%rbp), %rdi
	cmpb	$1, (%rsi)
	movq	(%rdi), %rax
	je	.L337
	movq	48(%rax), %rax
.L335:
	addq	$16, %rsp
	.cfi_remember_state
	.cfi_def_cfa_offset 16
	movq	%rdx, %rcx
	movq	%rsi, %rdx
	movq	%rbp, %rsi
	popq	%rbp
	.cfi_def_cfa_offset 8
	jmp	*%rax
	.p2align 4,,10
	.p2align 3
.L337:
	.cfi_restore_state
	movq	56(%rax), %rax
	jmp	.L335
	.cfi_endproc
.LFE2914:
	.size	_ZN8opendnp38OContext19OnReceiveSolRequestERKNS_10APDUHeaderERKN7openpal6RSliceE, .-_ZN8opendnp38OContext19OnReceiveSolRequestERKNS_10APDUHeaderERKN7openpal6RSliceE
	.section	.rodata.str1.8
	.align 8
.LC2:
	.string	"Ignoring unsol with invalid function code: %s"
	.align 8
.LC3:
	.string	"/home/kimchaer/Desktop/OpenPLC_v3/utils/dnp3_src/cpp/libs/src/opendnp3/outstation/OutstationContext.cpp(222)"
	.text
	.align 2
	.p2align 4
	.globl	_ZN8opendnp38OContext14ProcessRequestERKNS_10APDUHeaderERKN7openpal6RSliceE
	.type	_ZN8opendnp38OContext14ProcessRequestERKNS_10APDUHeaderERKN7openpal6RSliceE, @function
_ZN8opendnp38OContext14ProcessRequestERKNS_10APDUHeaderERKN7openpal6RSliceE:
.LFB2917:
	.cfi_startproc
	endbr64
	pushq	%r13
	.cfi_def_cfa_offset 16
	.cfi_offset 13, -16
	pushq	%r12
	.cfi_def_cfa_offset 24
	.cfi_offset 12, -24
	movq	%rsi, %r12
	pushq	%rbp
	.cfi_def_cfa_offset 32
	.cfi_offset 6, -32
	movq	%rdi, %rbp
	subq	$144, %rsp
	.cfi_def_cfa_offset 176
	movq	%fs:40, %rax
	movq	%rax, 136(%rsp)
	xorl	%eax, %eax
	cmpb	$0, 4(%rsi)
	je	.L339
	addq	$8, %rbp
	leaq	12(%rsp), %r13
	movl	$4, 12(%rsp)
	movq	%r13, %rsi
	movq	%rbp, %rdi
	call	_ZNK7openpal6Logger9IsEnabledERKNS_10LogFiltersE@PLT
	testb	%al, %al
	jne	.L346
.L338:
	movq	136(%rsp), %rax
	xorq	%fs:40, %rax
	jne	.L347
	addq	$144, %rsp
	.cfi_remember_state
	.cfi_def_cfa_offset 32
	popq	%rbp
	.cfi_def_cfa_offset 24
	popq	%r12
	.cfi_def_cfa_offset 16
	popq	%r13
	.cfi_def_cfa_offset 8
	ret
	.p2align 4,,10
	.p2align 3
.L339:
	.cfi_restore_state
	call	_ZN8opendnp38OContext19OnReceiveSolRequestERKNS_10APDUHeaderERKN7openpal6RSliceE@PLT
	movq	%rax, 944(%rbp)
	jmp	.L338
	.p2align 4,,10
	.p2align 3
.L346:
	movzbl	(%r12), %edi
	leaq	16(%rsp), %r12
	call	_ZN8opendnp320FunctionCodeToStringENS_12FunctionCodeE@PLT
	movq	%r12, %rdi
	movl	$120, %ecx
	leaq	.LC2(%rip), %r8
	movq	%rax, %r9
	movl	$1, %edx
	movl	$120, %esi
	xorl	%eax, %eax
	call	__snprintf_chk@PLT
	movq	%r12, %rcx
	movq	%r13, %rsi
	movq	%rbp, %rdi
	leaq	.LC3(%rip), %rdx
	movl	$4, 12(%rsp)
	call	_ZN7openpal6Logger3LogERKNS_10LogFiltersEPKcS5_@PLT
	jmp	.L338
.L347:
	call	__stack_chk_fail@PLT
	.cfi_endproc
.LFE2917:
	.size	_ZN8opendnp38OContext14ProcessRequestERKNS_10APDUHeaderERKN7openpal6RSliceE, .-_ZN8opendnp38OContext14ProcessRequestERKNS_10APDUHeaderERKN7openpal6RSliceE
	.align 2
	.p2align 4
	.globl	_ZN8opendnp38OContext14ProcessConfirmERKNS_10APDUHeaderE
	.type	_ZN8opendnp38OContext14ProcessConfirmERKNS_10APDUHeaderE, @function
_ZN8opendnp38OContext14ProcessConfirmERKNS_10APDUHeaderE:
.LFB2918:
	.cfi_startproc
	endbr64
	pushq	%rbx
	.cfi_def_cfa_offset 16
	.cfi_offset 3, -16
	movq	%rdi, %rbx
	movq	944(%rdi), %rdi
	movq	%rsi, %rdx
	movq	%rbx, %rsi
	movq	(%rdi), %rax
	call	*16(%rax)
	movq	%rax, 944(%rbx)
	popq	%rbx
	.cfi_def_cfa_offset 8
	ret
	.cfi_endproc
.LFE2918:
	.size	_ZN8opendnp38OContext14ProcessConfirmERKNS_10APDUHeaderE, .-_ZN8opendnp38OContext14ProcessConfirmERKNS_10APDUHeaderE
	.section	.text.unlikely,"ax",@progbits
	.align 2
.LCOLDB4:
	.text
.LHOTB4:
	.align 2
	.p2align 4
	.globl	_ZN8opendnp38OContext7BeginTxERKN7openpal6RSliceE
	.type	_ZN8opendnp38OContext7BeginTxERKN7openpal6RSliceE, @function
_ZN8opendnp38OContext7BeginTxERKN7openpal6RSliceE:
.LFB2921:
	.cfi_startproc
	.cfi_personality 0x9b,DW.ref.__gxx_personality_v0
	.cfi_lsda 0x1b,.LLSDA2921
	endbr64
	pushq	%r13
	.cfi_def_cfa_offset 16
	.cfi_offset 13, -16
	pushq	%r12
	.cfi_def_cfa_offset 24
	.cfi_offset 12, -24
	pushq	%rbp
	.cfi_def_cfa_offset 32
	.cfi_offset 6, -32
	movq	%rsi, %rbp
	pushq	%rbx
	.cfi_def_cfa_offset 40
	.cfi_offset 3, -40
	movq	%rdi, %rbx
	subq	$56, %rsp
	.cfi_def_cfa_offset 96
	movdqu	8(%rdi), %xmm0
	movq	%fs:40, %rax
	movq	%rax, 40(%rsp)
	xorl	%eax, %eax
	movq	16(%rdi), %rax
	movaps	%xmm0, (%rsp)
	testq	%rax, %rax
	je	.L351
	cmpq	$0, _ZL28__gthrw___pthread_key_createPjPFvPvE@GOTPCREL(%rip)
	je	.L352
	lock addl	$1, 8(%rax)
.L351:
	movdqu	24(%rbx), %xmm1
	movq	32(%rbx), %rax
	movaps	%xmm1, 16(%rsp)
	testq	%rax, %rax
	je	.L353
	cmpq	$0, _ZL28__gthrw___pthread_key_createPjPFvPvE@GOTPCREL(%rip)
	je	.L354
	lock addl	$1, 8(%rax)
.L353:
	movq	%rsp, %r12
	movq	%rbp, %rsi
	movq	%r12, %rdi
.LEHB0:
	call	_ZN8opendnp37logging21ParseAndLogResponseTxEN7openpal6LoggerERKNS1_6RSliceE@PLT
.LEHE0:
	movq	24(%rsp), %r12
	testq	%r12, %r12
	je	.L356
	movq	_ZL28__gthrw___pthread_key_createPjPFvPvE@GOTPCREL(%rip), %r13
	testq	%r13, %r13
	je	.L357
	movl	$-1, %eax
	lock xaddl	%eax, 8(%r12)
	cmpl	$1, %eax
	je	.L380
	.p2align 4,,10
	.p2align 3
.L356:
	movq	8(%rsp), %r12
	testq	%r12, %r12
	je	.L363
	movq	_ZL28__gthrw___pthread_key_createPjPFvPvE@GOTPCREL(%rip), %r13
	testq	%r13, %r13
	je	.L364
	movl	$-1, %eax
	lock xaddl	%eax, 8(%r12)
	cmpl	$1, %eax
	je	.L381
	.p2align 4,,10
	.p2align 3
.L363:
	movq	56(%rbx), %rdi
	movb	$1, 721(%rbx)
	movq	%rbp, %rsi
	movq	(%rdi), %rax
.LEHB1:
	call	*16(%rax)
.LEHE1:
	movq	40(%rsp), %rax
	xorq	%fs:40, %rax
	jne	.L382
	addq	$56, %rsp
	.cfi_remember_state
	.cfi_def_cfa_offset 40
	popq	%rbx
	.cfi_def_cfa_offset 32
	popq	%rbp
	.cfi_def_cfa_offset 24
	popq	%r12
	.cfi_def_cfa_offset 16
	popq	%r13
	.cfi_def_cfa_offset 8
	ret
	.p2align 4,,10
	.p2align 3
.L352:
	.cfi_restore_state
	addl	$1, 8(%rax)
	jmp	.L351
	.p2align 4,,10
	.p2align 3
.L354:
	addl	$1, 8(%rax)
	jmp	.L353
	.p2align 4,,10
	.p2align 3
.L364:
	movl	8(%r12), %eax
	leal	-1(%rax), %edx
	movl	%edx, 8(%r12)
	cmpl	$1, %eax
	jne	.L363
.L381:
	movq	(%r12), %rax
	movq	%r12, %rdi
	call	*16(%rax)
	testq	%r13, %r13
	je	.L367
	movl	$-1, %eax
	lock xaddl	%eax, 12(%r12)
.L368:
	cmpl	$1, %eax
	jne	.L363
	movq	(%r12), %rax
	movq	%r12, %rdi
	call	*24(%rax)
	jmp	.L363
	.p2align 4,,10
	.p2align 3
.L357:
	movl	8(%r12), %eax
	leal	-1(%rax), %edx
	movl	%edx, 8(%r12)
	cmpl	$1, %eax
	jne	.L356
.L380:
	movq	(%r12), %rax
	movq	%r12, %rdi
	call	*16(%rax)
	testq	%r13, %r13
	je	.L360
	movl	$-1, %eax
	lock xaddl	%eax, 12(%r12)
.L361:
	cmpl	$1, %eax
	jne	.L356
	movq	(%r12), %rax
	movq	%r12, %rdi
	call	*24(%rax)
	jmp	.L356
	.p2align 4,,10
	.p2align 3
.L360:
	movl	12(%r12), %eax
	leal	-1(%rax), %edx
	movl	%edx, 12(%r12)
	jmp	.L361
	.p2align 4,,10
	.p2align 3
.L367:
	movl	12(%r12), %eax
	leal	-1(%rax), %edx
	movl	%edx, 12(%r12)
	jmp	.L368
.L382:
	call	__stack_chk_fail@PLT
.L371:
	endbr64
	movq	%rax, %rbp
	jmp	.L369
	.globl	__gxx_personality_v0
	.section	.gcc_except_table,"a",@progbits
.LLSDA2921:
	.byte	0xff
	.byte	0xff
	.byte	0x1
	.uleb128 .LLSDACSE2921-.LLSDACSB2921
.LLSDACSB2921:
	.uleb128 .LEHB0-.LFB2921
	.uleb128 .LEHE0-.LEHB0
	.uleb128 .L371-.LFB2921
	.uleb128 0
	.uleb128 .LEHB1-.LFB2921
	.uleb128 .LEHE1-.LEHB1
	.uleb128 0
	.uleb128 0
.LLSDACSE2921:
	.text
	.cfi_endproc
	.section	.text.unlikely
	.cfi_startproc
	.cfi_personality 0x9b,DW.ref.__gxx_personality_v0
	.cfi_lsda 0x1b,.LLSDAC2921
	.type	_ZN8opendnp38OContext7BeginTxERKN7openpal6RSliceE.cold, @function
_ZN8opendnp38OContext7BeginTxERKN7openpal6RSliceE.cold:
.LFSB2921:
.L369:
	.cfi_def_cfa_offset 96
	.cfi_offset 3, -40
	.cfi_offset 6, -32
	.cfi_offset 12, -24
	.cfi_offset 13, -16
	movq	%r12, %rdi
	call	_ZN7openpal6LoggerD1Ev@PLT
	movq	%rbp, %rdi
.LEHB2:
	call	_Unwind_Resume@PLT
.LEHE2:
	.cfi_endproc
.LFE2921:
	.section	.gcc_except_table
.LLSDAC2921:
	.byte	0xff
	.byte	0xff
	.byte	0x1
	.uleb128 .LLSDACSEC2921-.LLSDACSBC2921
.LLSDACSBC2921:
	.uleb128 .LEHB2-.LCOLDB4
	.uleb128 .LEHE2-.LEHB2
	.uleb128 0
	.uleb128 0
.LLSDACSEC2921:
	.section	.text.unlikely
	.text
	.size	_ZN8opendnp38OContext7BeginTxERKN7openpal6RSliceE, .-_ZN8opendnp38OContext7BeginTxERKN7openpal6RSliceE
	.section	.text.unlikely
	.size	_ZN8opendnp38OContext7BeginTxERKN7openpal6RSliceE.cold, .-_ZN8opendnp38OContext7BeginTxERKN7openpal6RSliceE.cold
.LCOLDE4:
	.text
.LHOTE4:
	.align 2
	.p2align 4
	.globl	_ZN8opendnp38OContext15BeginResponseTxERKNS_15AppControlFieldERKN7openpal6RSliceE
	.type	_ZN8opendnp38OContext15BeginResponseTxERKNS_15AppControlFieldERKN7openpal6RSliceE, @function
_ZN8opendnp38OContext15BeginResponseTxERKNS_15AppControlFieldERKN7openpal6RSliceE:
.LFB2919:
	.cfi_startproc
	endbr64
	movq	%rsi, %rax
	movl	(%rdx), %ecx
	movq	%rdx, %rsi
	movq	8(%rdx), %rdx
	movl	(%rax), %r8d
	movl	%r8d, 856(%rdi)
	movzbl	4(%rax), %eax
	movl	%ecx, 840(%rdi)
	movb	%al, 860(%rdi)
	movq	%rdx, 848(%rdi)
	jmp	_ZN8opendnp38OContext7BeginTxERKN7openpal6RSliceE@PLT
	.cfi_endproc
.LFE2919:
	.size	_ZN8opendnp38OContext15BeginResponseTxERKNS_15AppControlFieldERKN7openpal6RSliceE, .-_ZN8opendnp38OContext15BeginResponseTxERKNS_15AppControlFieldERKN7openpal6RSliceE
	.align 2
	.p2align 4
	.globl	_ZN8opendnp38OContext12BeginUnsolTxERKNS_15AppControlFieldERKN7openpal6RSliceE
	.type	_ZN8opendnp38OContext12BeginUnsolTxERKNS_15AppControlFieldERKN7openpal6RSliceE, @function
_ZN8opendnp38OContext12BeginUnsolTxERKNS_15AppControlFieldERKN7openpal6RSliceE:
.LFB2920:
	.cfi_startproc
	endbr64
	movq	%rsi, %rax
	movl	(%rdx), %ecx
	movq	%rdx, %rsi
	movq	8(%rdx), %rdx
	movl	(%rax), %r8d
	movl	%r8d, 912(%rdi)
	movzbl	4(%rax), %eax
	movl	%ecx, 896(%rdi)
	movb	%al, 916(%rdi)
	movzbl	889(%rdi), %eax
	movq	%rdx, 904(%rdi)
	movb	%al, 890(%rdi)
	addl	$1, %eax
	andl	$15, %eax
	movb	%al, 889(%rdi)
	jmp	_ZN8opendnp38OContext7BeginTxERKN7openpal6RSliceE@PLT
	.cfi_endproc
.LFE2920:
	.size	_ZN8opendnp38OContext12BeginUnsolTxERKNS_15AppControlFieldERKN7openpal6RSliceE, .-_ZN8opendnp38OContext12BeginUnsolTxERKNS_15AppControlFieldERKN7openpal6RSliceE
	.align 2
	.p2align 4
	.globl	_ZN8opendnp38OContext22ProcessDeferredRequestENS_10APDUHeaderEN7openpal6RSliceE
	.type	_ZN8opendnp38OContext22ProcessDeferredRequestENS_10APDUHeaderEN7openpal6RSliceE, @function
_ZN8opendnp38OContext22ProcessDeferredRequestENS_10APDUHeaderEN7openpal6RSliceE:
.LFB2924:
	.cfi_startproc
	endbr64
	pushq	%rbp
	.cfi_def_cfa_offset 16
	.cfi_offset 6, -16
	movq	%rdi, %rbp
	subq	$32, %rsp
	.cfi_def_cfa_offset 48
	movq	%rsi, 24(%rsp)
	movq	%rdx, (%rsp)
	movq	%rcx, 8(%rsp)
	testb	%sil, %sil
	je	.L393
	cmpb	$1, %sil
	jne	.L388
	movq	944(%rdi), %rdi
	movq	(%rdi), %rax
	call	*(%rax)
	testb	%al, %al
	jne	.L388
	addq	$32, %rsp
	.cfi_remember_state
	.cfi_def_cfa_offset 16
	popq	%rbp
	.cfi_def_cfa_offset 8
	ret
	.p2align 4,,10
	.p2align 3
.L388:
	.cfi_restore_state
	movq	%rsp, %rdx
	leaq	24(%rsp), %rsi
	movq	%rbp, %rdi
	call	_ZN8opendnp38OContext14ProcessRequestERKNS_10APDUHeaderERKN7openpal6RSliceE@PLT
	addq	$32, %rsp
	.cfi_remember_state
	.cfi_def_cfa_offset 16
	movl	$1, %eax
	popq	%rbp
	.cfi_def_cfa_offset 8
	ret
	.p2align 4,,10
	.p2align 3
.L393:
	.cfi_restore_state
	leaq	24(%rsp), %rsi
	call	_ZN8opendnp38OContext14ProcessConfirmERKNS_10APDUHeaderE@PLT
	addq	$32, %rsp
	.cfi_def_cfa_offset 16
	movl	$1, %eax
	popq	%rbp
	.cfi_def_cfa_offset 8
	ret
	.cfi_endproc
.LFE2924:
	.size	_ZN8opendnp38OContext22ProcessDeferredRequestENS_10APDUHeaderEN7openpal6RSliceE, .-_ZN8opendnp38OContext22ProcessDeferredRequestENS_10APDUHeaderEN7openpal6RSliceE
	.section	.text.unlikely
	.align 2
.LCOLDB5:
	.text
.LHOTB5:
	.align 2
	.p2align 4
	.globl	_ZN8opendnp38OContext19RestartConfirmTimerEv
	.type	_ZN8opendnp38OContext19RestartConfirmTimerEv, @function
_ZN8opendnp38OContext19RestartConfirmTimerEv:
.LFB2926:
	.cfi_startproc
	.cfi_personality 0x9b,DW.ref.__gxx_personality_v0
	.cfi_lsda 0x1b,.LLSDA2926
	endbr64
	pushq	%r12
	.cfi_def_cfa_offset 16
	.cfi_offset 12, -16
	leaq	_ZNSt14_Function_base13_Base_managerIZN7openpal8TimerRef7RestartIZN8opendnp38OContext19RestartConfirmTimerEvEUlvE_EEvRKNS1_12TimeDurationERKT_EUlvE_E10_M_managerERSt9_Any_dataRKSF_St18_Manager_operation(%rip), %rcx
	leaq	728(%rdi), %r8
	pushq	%rbp
	.cfi_def_cfa_offset 24
	.cfi_offset 6, -24
	movq	%rcx, %xmm0
	leaq	688(%rdi), %rsi
	subq	$56, %rsp
	.cfi_def_cfa_offset 80
	movq	%fs:40, %rax
	movq	%rax, 40(%rsp)
	xorl	%eax, %eax
	leaq	_ZNSt17_Function_handlerIFvvEZN7openpal8TimerRef7RestartIZN8opendnp38OContext19RestartConfirmTimerEvEUlvE_EEvRKNS1_12TimeDurationERKT_EUlvE_E9_M_invokeERKSt9_Any_data(%rip), %rax
	movq	%rsp, %rbp
	movq	%r8, (%rsp)
	movq	%rax, %xmm1
	movq	%rdi, 8(%rsp)
	movq	%rbp, %rdx
	movq	%r8, %rdi
	punpcklqdq	%xmm1, %xmm0
	movaps	%xmm0, 16(%rsp)
.LEHB3:
	call	_ZN7openpal8TimerRef13RestartActionERKNS_12TimeDurationERKSt8functionIFvvEE@PLT
.LEHE3:
	movq	16(%rsp), %rax
	testq	%rax, %rax
	je	.L394
	movl	$3, %edx
	movq	%rbp, %rsi
	movq	%rbp, %rdi
	call	*%rax
.L394:
	movq	40(%rsp), %rax
	xorq	%fs:40, %rax
	jne	.L407
	addq	$56, %rsp
	.cfi_remember_state
	.cfi_def_cfa_offset 24
	popq	%rbp
	.cfi_def_cfa_offset 16
	popq	%r12
	.cfi_def_cfa_offset 8
	ret
.L407:
	.cfi_restore_state
	call	__stack_chk_fail@PLT
.L399:
	endbr64
	movq	%rax, %r12
	jmp	.L396
	.section	.gcc_except_table
.LLSDA2926:
	.byte	0xff
	.byte	0xff
	.byte	0x1
	.uleb128 .LLSDACSE2926-.LLSDACSB2926
.LLSDACSB2926:
	.uleb128 .LEHB3-.LFB2926
	.uleb128 .LEHE3-.LEHB3
	.uleb128 .L399-.LFB2926
	.uleb128 0
.LLSDACSE2926:
	.text
	.cfi_endproc
	.section	.text.unlikely
	.cfi_startproc
	.cfi_personality 0x9b,DW.ref.__gxx_personality_v0
	.cfi_lsda 0x1b,.LLSDAC2926
	.type	_ZN8opendnp38OContext19RestartConfirmTimerEv.cold, @function
_ZN8opendnp38OContext19RestartConfirmTimerEv.cold:
.LFSB2926:
.L396:
	.cfi_def_cfa_offset 80
	.cfi_offset 6, -24
	.cfi_offset 12, -16
	movq	16(%rsp), %rax
	testq	%rax, %rax
	je	.L397
	movl	$3, %edx
	movq	%rbp, %rsi
	movq	%rbp, %rdi
	call	*%rax
.L397:
	movq	%r12, %rdi
.LEHB4:
	call	_Unwind_Resume@PLT
.LEHE4:
	.cfi_endproc
.LFE2926:
	.section	.gcc_except_table
.LLSDAC2926:
	.byte	0xff
	.byte	0xff
	.byte	0x1
	.uleb128 .LLSDACSEC2926-.LLSDACSBC2926
.LLSDACSBC2926:
	.uleb128 .LEHB4-.LCOLDB5
	.uleb128 .LEHE4-.LEHB4
	.uleb128 0
	.uleb128 0
.LLSDACSEC2926:
	.section	.text.unlikely
	.text
	.size	_ZN8opendnp38OContext19RestartConfirmTimerEv, .-_ZN8opendnp38OContext19RestartConfirmTimerEv
	.section	.text.unlikely
	.size	_ZN8opendnp38OContext19RestartConfirmTimerEv.cold, .-_ZN8opendnp38OContext19RestartConfirmTimerEv.cold
.LCOLDE5:
	.text
.LHOTE5:
	.align 2
	.p2align 4
	.globl	_ZNK8opendnp38OContext11CanTransmitEv
	.type	_ZNK8opendnp38OContext11CanTransmitEv, @function
_ZNK8opendnp38OContext11CanTransmitEv:
.LFB2931:
	.cfi_startproc
	endbr64
	movzbl	720(%rdi), %eax
	testb	%al, %al
	je	.L408
	movzbl	721(%rdi), %eax
	xorl	$1, %eax
.L408:
	ret
	.cfi_endproc
.LFE2931:
	.size	_ZNK8opendnp38OContext11CanTransmitEv, .-_ZNK8opendnp38OContext11CanTransmitEv
	.align 2
	.p2align 4
	.globl	_ZN8opendnp38OContext23CheckForDeferredRequestEv
	.type	_ZN8opendnp38OContext23CheckForDeferredRequestEv, @function
_ZN8opendnp38OContext23CheckForDeferredRequestEv:
.LFB2922:
	.cfi_startproc
	endbr64
	pushq	%rbx
	.cfi_def_cfa_offset 16
	.cfi_offset 3, -16
	movq	%rdi, %rbx
	call	_ZNK8opendnp38OContext11CanTransmitEv@PLT
	testb	%al, %al
	jne	.L421
.L413:
	popq	%rbx
	.cfi_remember_state
	.cfi_def_cfa_offset 8
	ret
	.p2align 4,,10
	.p2align 3
.L421:
	.cfi_restore_state
	leaq	760(%rbx), %rdi
	call	_ZNK8opendnp315DeferredRequest5IsSetEv@PLT
	testb	%al, %al
	je	.L413
	cmpb	$0, 760(%rbx)
	je	.L413
	movzbl	762(%rbx), %esi
	movl	768(%rbx), %edx
	movq	%rbx, %rdi
	movzbl	761(%rbx), %eax
	movq	776(%rbx), %rcx
	salq	$8, %rsi
	orq	%rax, %rsi
	movzbl	763(%rbx), %eax
	salq	$16, %rax
	orq	%rax, %rsi
	movzbl	764(%rbx), %eax
	salq	$24, %rax
	orq	%rsi, %rax
	movzbl	765(%rbx), %esi
	salq	$32, %rsi
	orq	%rsi, %rax
	movzbl	766(%rbx), %esi
	salq	$40, %rsi
	orq	%rax, %rsi
	call	_ZN8opendnp38OContext22ProcessDeferredRequestENS_10APDUHeaderEN7openpal6RSliceE@PLT
	xorl	$1, %eax
	movb	%al, 760(%rbx)
	popq	%rbx
	.cfi_def_cfa_offset 8
	ret
	.cfi_endproc
.LFE2922:
	.size	_ZN8opendnp38OContext23CheckForDeferredRequestEv, .-_ZN8opendnp38OContext23CheckForDeferredRequestEv
	.align 2
	.p2align 4
	.globl	_ZN8opendnp38OContext13GetDynamicIINEv
	.type	_ZN8opendnp38OContext13GetDynamicIINEv, @function
_ZN8opendnp38OContext13GetDynamicIINEv:
.LFB2933:
	.cfi_startproc
	endbr64
	pushq	%r13
	.cfi_def_cfa_offset 16
	.cfi_offset 13, -16
	pushq	%r12
	.cfi_def_cfa_offset 24
	.cfi_offset 12, -24
	leaq	104(%rdi), %r12
	pushq	%rbp
	.cfi_def_cfa_offset 32
	.cfi_offset 6, -32
	movq	%r12, %rdi
	subq	$16, %rsp
	.cfi_def_cfa_offset 48
	movq	%fs:40, %rax
	movq	%rax, 8(%rsp)
	xorl	%eax, %eax
	leaq	5(%rsp), %r13
	leaq	6(%rsp), %rbp
	call	_ZNK8opendnp311EventBuffer19UnwrittenClassFieldEv@PLT
	movq	%r13, %rdi
	movb	%al, 5(%rsp)
	xorl	%eax, %eax
	movw	%ax, 6(%rsp)
	call	_ZNK8opendnp310ClassField9HasClass1Ev@PLT
	movl	$1, %esi
	movq	%rbp, %rdi
	movzbl	%al, %edx
	call	_ZN8opendnp38IINField13SetBitToValueENS_6IINBitEb@PLT
	movq	%r13, %rdi
	call	_ZNK8opendnp310ClassField9HasClass2Ev@PLT
	movl	$2, %esi
	movq	%rbp, %rdi
	movzbl	%al, %edx
	call	_ZN8opendnp38IINField13SetBitToValueENS_6IINBitEb@PLT
	movq	%r13, %rdi
	call	_ZNK8opendnp310ClassField9HasClass3Ev@PLT
	movl	$3, %esi
	movq	%rbp, %rdi
	movzbl	%al, %edx
	call	_ZN8opendnp38IINField13SetBitToValueENS_6IINBitEb@PLT
	movq	%r12, %rdi
	call	_ZN8opendnp311EventBuffer11IsOverflownEv@PLT
	movl	$11, %esi
	movq	%rbp, %rdi
	movzbl	%al, %edx
	call	_ZN8opendnp38IINField13SetBitToValueENS_6IINBitEb@PLT
	movzwl	6(%rsp), %eax
	movq	8(%rsp), %rcx
	xorq	%fs:40, %rcx
	jne	.L425
	addq	$16, %rsp
	.cfi_remember_state
	.cfi_def_cfa_offset 32
	popq	%rbp
	.cfi_def_cfa_offset 24
	popq	%r12
	.cfi_def_cfa_offset 16
	popq	%r13
	.cfi_def_cfa_offset 8
	ret
.L425:
	.cfi_restore_state
	call	__stack_chk_fail@PLT
	.cfi_endproc
.LFE2933:
	.size	_ZN8opendnp38OContext13GetDynamicIINEv, .-_ZN8opendnp38OContext13GetDynamicIINEv
	.align 2
	.p2align 4
	.globl	_ZN8opendnp38OContext14GetResponseIINEv
	.type	_ZN8opendnp38OContext14GetResponseIINEv, @function
_ZN8opendnp38OContext14GetResponseIINEv:
.LFB2932:
	.cfi_startproc
	endbr64
	pushq	%rbp
	.cfi_def_cfa_offset 16
	.cfi_offset 6, -16
	pushq	%rbx
	.cfi_def_cfa_offset 24
	.cfi_offset 3, -24
	movq	%rdi, %rbx
	subq	$24, %rsp
	.cfi_def_cfa_offset 48
	movq	88(%rdi), %rdi
	movq	%fs:40, %rax
	movq	%rax, 8(%rsp)
	xorl	%eax, %eax
	movq	(%rdi), %rax
	movq	80(%rax), %rax
	cmpq	_ZNK8opendnp322IOutstationApplication17GetApplicationIINEv@GOTPCREL(%rip), %rax
	jne	.L427
	leaq	4(%rsp), %rbp
	movq	%rbp, %rdi
	call	_ZN8opendnp314ApplicationIINC1Ev@PLT
.L428:
	movq	%rbp, %rdi
	call	_ZNK8opendnp314ApplicationIIN5ToIINEv@PLT
	movq	%rbx, %rdi
	movl	%eax, %ebp
	call	_ZN8opendnp38OContext13GetDynamicIINEv@PLT
	movl	%ebp, %ecx
	movzbl	%ah, %edx
	movzbl	%ch, %ecx
	orl	%ebp, %eax
	orb	722(%rbx), %al
	orl	%ecx, %edx
	xorl	%ecx, %ecx
	orb	723(%rbx), %dl
	movb	%al, %cl
	movq	8(%rsp), %rax
	xorq	%fs:40, %rax
	movb	%dl, %ch
	jne	.L431
	addq	$24, %rsp
	.cfi_remember_state
	.cfi_def_cfa_offset 24
	movl	%ecx, %eax
	popq	%rbx
	.cfi_def_cfa_offset 16
	popq	%rbp
	.cfi_def_cfa_offset 8
	ret
	.p2align 4,,10
	.p2align 3
.L427:
	.cfi_restore_state
	call	*%rax
	leaq	4(%rsp), %rbp
	movl	%eax, 4(%rsp)
	jmp	.L428
.L431:
	call	__stack_chk_fail@PLT
	.cfi_endproc
.LFE2932:
	.size	_ZN8opendnp38OContext14GetResponseIINEv, .-_ZN8opendnp38OContext14GetResponseIINEv
	.align 2
	.p2align 4
	.globl	_ZN8opendnp38OContext19CheckForUnsolicitedEv
	.type	_ZN8opendnp38OContext19CheckForUnsolicitedEv, @function
_ZN8opendnp38OContext19CheckForUnsolicitedEv:
.LFB2925:
	.cfi_startproc
	endbr64
	pushq	%r15
	.cfi_def_cfa_offset 16
	.cfi_offset 15, -16
	pushq	%r14
	.cfi_def_cfa_offset 24
	.cfi_offset 14, -24
	pushq	%r13
	.cfi_def_cfa_offset 32
	.cfi_offset 13, -32
	pushq	%r12
	.cfi_def_cfa_offset 40
	.cfi_offset 12, -40
	pushq	%rbp
	.cfi_def_cfa_offset 48
	.cfi_offset 6, -48
	movq	%rdi, %rbp
	subq	$112, %rsp
	.cfi_def_cfa_offset 160
	movq	%fs:40, %rax
	movq	%rax, 104(%rsp)
	xorl	%eax, %eax
	call	_ZNK8opendnp38OContext11CanTransmitEv@PLT
	testb	%al, %al
	je	.L432
	movq	944(%rbp), %rdi
	movq	(%rdi), %rax
	call	*(%rax)
	testb	%al, %al
	jne	.L445
.L432:
	movq	104(%rsp), %rax
	xorq	%fs:40, %rax
	jne	.L446
	addq	$112, %rsp
	.cfi_remember_state
	.cfi_def_cfa_offset 48
	popq	%rbp
	.cfi_def_cfa_offset 40
	popq	%r12
	.cfi_def_cfa_offset 32
	popq	%r13
	.cfi_def_cfa_offset 24
	popq	%r14
	.cfi_def_cfa_offset 16
	popq	%r15
	.cfi_def_cfa_offset 8
	ret
	.p2align 4,,10
	.p2align 3
.L445:
	.cfi_restore_state
	cmpb	$0, 712(%rbp)
	je	.L432
	cmpb	$0, 888(%rbp)
	je	.L436
	leaq	104(%rbp), %r13
	leaq	716(%rbp), %r14
	movq	%r13, %rdi
	leaq	64(%rsp), %r12
	call	_ZNK8opendnp311EventBuffer19UnwrittenClassFieldEv@PLT
	movq	%r12, %rsi
	movq	%r14, %rdi
	movb	%al, 64(%rsp)
	call	_ZNK8opendnp310ClassField10IntersectsERKS0_@PLT
	testb	%al, %al
	je	.L432
	leaq	32(%rsp), %r15
	leaq	920(%rbp), %rdi
	call	_ZN7openpal6Buffer9GetWSliceEv@PLT
	movq	%r15, %rsi
	movq	%r12, %rdi
	movq	%rdx, 40(%rsp)
	movl	%eax, 32(%rsp)
	call	_ZN8opendnp312APDUResponseC1ERKN7openpal6WSliceE@PLT
	movq	%r12, %rsi
	movq	%r15, %rdi
	call	_ZN8opendnp311APDUWrapper9GetWriterEv@PLT
	movq	%r13, %rdi
	call	_ZN8opendnp311EventBuffer8UnselectEv@PLT
	movq	%r14, %rsi
	movq	%r13, %rdi
	call	_ZN8opendnp311EventBuffer16SelectAllByClassERKNS_10ClassFieldE@PLT
	movq	%r15, %rsi
	movq	%r13, %rdi
	leaq	16(%rsp), %r13
	call	_ZN8opendnp311EventBuffer4LoadERNS_12HeaderWriterE@PLT
	movq	%rbp, %rdi
	call	_ZN8opendnp38OContext14GetResponseIINEv@PLT
	movzbl	889(%rbp), %esi
	movq	%r13, %rdx
	movq	%r12, %rdi
	movw	%ax, 16(%rsp)
	call	_ZN8opendnp35build15NullUnsolicitedERNS_12APDUResponseEhRKNS_8IINFieldE@PLT
	movq	%rbp, %rdi
	call	_ZN8opendnp38OContext19RestartConfirmTimerEv@PLT
	movq	_ZN8opendnp327StateUnsolicitedConfirmWait8instanceE@GOTPCREL(%rip), %rax
	movq	%r12, %rdi
	movq	%rax, 944(%rbp)
	call	_ZNK8opendnp311APDUWrapper8ToRSliceEv@PLT
	movq	%r12, %rdi
	movq	%rdx, 24(%rsp)
	movl	%eax, 16(%rsp)
	call	_ZNK8opendnp311APDUWrapper10GetControlEv@PLT
	leaq	11(%rsp), %rsi
	movq	%rbp, %rdi
	movzbl	%ah, %edx
	movb	%al, 11(%rsp)
	movb	%dl, 12(%rsp)
	movq	%rax, %rdx
	shrq	$16, %rdx
	movb	%dl, 13(%rsp)
	movq	%rax, %rdx
	shrq	$32, %rax
	shrq	$24, %rdx
	movb	%al, 15(%rsp)
	movb	%dl, 14(%rsp)
	movq	%r13, %rdx
	call	_ZN8opendnp38OContext12BeginUnsolTxERKNS_15AppControlFieldERKN7openpal6RSliceE@PLT
	jmp	.L432
	.p2align 4,,10
	.p2align 3
.L436:
	leaq	64(%rsp), %r12
	leaq	32(%rsp), %r13
	leaq	920(%rbp), %rdi
	call	_ZN7openpal6Buffer9GetWSliceEv@PLT
	movq	%r13, %rsi
	movq	%r12, %rdi
	movq	%rdx, 40(%rsp)
	movl	%eax, 32(%rsp)
	call	_ZN8opendnp312APDUResponseC1ERKN7openpal6WSliceE@PLT
	movq	%rbp, %rdi
	call	_ZN8opendnp38OContext14GetResponseIINEv@PLT
	movzbl	889(%rbp), %esi
	movq	%r13, %rdx
	movq	%r12, %rdi
	movw	%ax, 32(%rsp)
	call	_ZN8opendnp35build15NullUnsolicitedERNS_12APDUResponseEhRKNS_8IINFieldE@PLT
	movq	%rbp, %rdi
	call	_ZN8opendnp38OContext19RestartConfirmTimerEv@PLT
	movq	_ZN8opendnp327StateUnsolicitedConfirmWait8instanceE@GOTPCREL(%rip), %rax
	movq	%r12, %rdi
	movq	%rax, 944(%rbp)
	call	_ZNK8opendnp311APDUWrapper8ToRSliceEv@PLT
	movq	%r12, %rdi
	movq	%rdx, 40(%rsp)
	movl	%eax, 32(%rsp)
	call	_ZNK8opendnp311APDUWrapper10GetControlEv@PLT
	leaq	16(%rsp), %rsi
	movq	%rbp, %rdi
	movzbl	%ah, %edx
	movb	%al, 16(%rsp)
	movb	%dl, 17(%rsp)
	movq	%rax, %rdx
	shrq	$16, %rdx
	movb	%dl, 18(%rsp)
	movq	%rax, %rdx
	shrq	$32, %rax
	shrq	$24, %rdx
	movb	%al, 20(%rsp)
	movb	%dl, 19(%rsp)
	movq	%r13, %rdx
	call	_ZN8opendnp38OContext12BeginUnsolTxERKNS_15AppControlFieldERKN7openpal6RSliceE@PLT
	jmp	.L432
.L446:
	call	__stack_chk_fail@PLT
	.cfi_endproc
.LFE2925:
	.size	_ZN8opendnp38OContext19CheckForUnsolicitedEv, .-_ZN8opendnp38OContext19CheckForUnsolicitedEv
	.align 2
	.p2align 4
	.globl	_ZN8opendnp38OContext25ContinueMultiFragResponseERKN7openpal11SequenceNumIhLh16EEE
	.type	_ZN8opendnp38OContext25ContinueMultiFragResponseERKN7openpal11SequenceNumIhLh16EEE, @function
_ZN8opendnp38OContext25ContinueMultiFragResponseERKN7openpal11SequenceNumIhLh16EEE:
.LFB2930:
	.cfi_startproc
	endbr64
	pushq	%r13
	.cfi_def_cfa_offset 16
	.cfi_offset 13, -16
	pushq	%r12
	.cfi_def_cfa_offset 24
	.cfi_offset 12, -24
	pushq	%rbp
	.cfi_def_cfa_offset 32
	.cfi_offset 6, -32
	movq	%rdi, %rbp
	addq	$864, %rdi
	pushq	%rbx
	.cfi_def_cfa_offset 40
	.cfi_offset 3, -40
	movq	%rsi, %rbx
	subq	$120, %rsp
	.cfi_def_cfa_offset 160
	movq	%fs:40, %rax
	movq	%rax, 104(%rsp)
	xorl	%eax, %eax
	leaq	64(%rsp), %r12
	leaq	32(%rsp), %r13
	call	_ZN7openpal6Buffer9GetWSliceEv@PLT
	movq	%r13, %rsi
	movq	%r12, %rdi
	movq	%rdx, 40(%rsp)
	movl	%eax, 32(%rsp)
	call	_ZN8opendnp312APDUResponseC1ERKN7openpal6WSliceE@PLT
	movq	%r13, %rdi
	movq	%r12, %rsi
	call	_ZN8opendnp311APDUWrapper9GetWriterEv@PLT
	movl	$-127, %esi
	movq	%r12, %rdi
	call	_ZN8opendnp311APDUWrapper11SetFunctionENS_12FunctionCodeE@PLT
	movq	%r13, %rsi
	leaq	640(%rbp), %rdi
	leaq	16(%rsp), %r13
	call	_ZN8opendnp315ResponseContext12LoadResponseERNS_12HeaderWriterE@PLT
	movq	%r12, %rdi
	movzbl	%ah, %edx
	movb	%al, 6(%rsp)
	movb	%dl, 7(%rsp)
	movq	%rax, %rdx
	shrq	$24, %rax
	shrq	$16, %rdx
	movb	%al, 9(%rsp)
	movzbl	(%rbx), %eax
	movb	%dl, 8(%rsp)
	movzwl	8(%rsp), %esi
	movzwl	6(%rsp), %edx
	movb	%al, 833(%rbp)
	salq	$16, %rsi
	orq	%rsi, %rdx
	movzbl	%al, %esi
	salq	$32, %rsi
	orq	%rdx, %rsi
	call	_ZN8opendnp311APDUWrapper10SetControlENS_15AppControlFieldE@PLT
	movq	%rbp, %rdi
	call	_ZN8opendnp38OContext14GetResponseIINEv@PLT
	movq	%r13, %rsi
	movq	%r12, %rdi
	movw	%ax, 16(%rsp)
	call	_ZN8opendnp312APDUResponse6SetIINERKNS_8IINFieldE@PLT
	movq	%r12, %rdi
	call	_ZNK8opendnp311APDUWrapper8ToRSliceEv@PLT
	movq	%r12, %rdi
	movq	%rdx, 24(%rsp)
	movl	%eax, 16(%rsp)
	call	_ZNK8opendnp311APDUWrapper10GetControlEv@PLT
	leaq	11(%rsp), %rsi
	movq	%rbp, %rdi
	movzbl	%ah, %edx
	movb	%al, 11(%rsp)
	movb	%dl, 12(%rsp)
	movq	%rax, %rdx
	shrq	$16, %rdx
	movb	%dl, 13(%rsp)
	movq	%rax, %rdx
	shrq	$32, %rax
	shrq	$24, %rdx
	movb	%al, 15(%rsp)
	movb	%dl, 14(%rsp)
	movq	%r13, %rdx
	call	_ZN8opendnp38OContext15BeginResponseTxERKNS_15AppControlFieldERKN7openpal6RSliceE@PLT
	cmpb	$0, 8(%rsp)
	jne	.L452
	movq	_ZN8opendnp39StateIdle8instanceE@GOTPCREL(%rip), %rax
.L447:
	movq	104(%rsp), %rcx
	xorq	%fs:40, %rcx
	jne	.L453
	addq	$120, %rsp
	.cfi_remember_state
	.cfi_def_cfa_offset 40
	popq	%rbx
	.cfi_def_cfa_offset 32
	popq	%rbp
	.cfi_def_cfa_offset 24
	popq	%r12
	.cfi_def_cfa_offset 16
	popq	%r13
	.cfi_def_cfa_offset 8
	ret
	.p2align 4,,10
	.p2align 3
.L452:
	.cfi_restore_state
	movq	%rbp, %rdi
	call	_ZN8opendnp38OContext19RestartConfirmTimerEv@PLT
	movq	_ZN8opendnp325StateSolicitedConfirmWait8instanceE@GOTPCREL(%rip), %rax
	jmp	.L447
.L453:
	call	__stack_chk_fail@PLT
	.cfi_endproc
.LFE2930:
	.size	_ZN8opendnp38OContext25ContinueMultiFragResponseERKN7openpal11SequenceNumIhLh16EEE, .-_ZN8opendnp38OContext25ContinueMultiFragResponseERKN7openpal11SequenceNumIhLh16EEE
	.align 2
	.p2align 4
	.globl	_ZN8opendnp38OContext17CheckForTaskStartEv
	.type	_ZN8opendnp38OContext17CheckForTaskStartEv, @function
_ZN8opendnp38OContext17CheckForTaskStartEv:
.LFB2935:
	.cfi_startproc
	endbr64
	pushq	%rbp
	.cfi_def_cfa_offset 16
	.cfi_offset 6, -16
	movq	%rdi, %rbp
	call	_ZN8opendnp38OContext23CheckForDeferredRequestEv@PLT
	movq	%rbp, %rdi
	popq	%rbp
	.cfi_def_cfa_offset 8
	jmp	_ZN8opendnp38OContext19CheckForUnsolicitedEv@PLT
	.cfi_endproc
.LFE2935:
	.size	_ZN8opendnp38OContext17CheckForTaskStartEv, .-_ZN8opendnp38OContext17CheckForTaskStartEv
	.section	.rodata.str1.1
.LC6:
	.string	"already online"
	.section	.rodata.str1.8
	.align 8
.LC7:
	.string	"/home/kimchaer/Desktop/OpenPLC_v3/utils/dnp3_src/cpp/libs/src/opendnp3/outstation/OutstationContext.cpp(83)"
	.text
	.align 2
	.p2align 4
	.globl	_ZN8opendnp38OContext14OnLowerLayerUpEv
	.type	_ZN8opendnp38OContext14OnLowerLayerUpEv, @function
_ZN8opendnp38OContext14OnLowerLayerUpEv:
.LFB2910:
	.cfi_startproc
	endbr64
	pushq	%r12
	.cfi_def_cfa_offset 16
	.cfi_offset 12, -16
	pushq	%rbp
	.cfi_def_cfa_offset 24
	.cfi_offset 6, -24
	subq	$24, %rsp
	.cfi_def_cfa_offset 48
	movq	%fs:40, %rax
	movq	%rax, 8(%rsp)
	xorl	%eax, %eax
	cmpb	$0, 720(%rdi)
	jne	.L464
	movb	$1, 720(%rdi)
	call	_ZN8opendnp38OContext17CheckForTaskStartEv@PLT
	movl	$1, %eax
.L456:
	movq	8(%rsp), %rdx
	xorq	%fs:40, %rdx
	jne	.L465
	addq	$24, %rsp
	.cfi_remember_state
	.cfi_def_cfa_offset 24
	popq	%rbp
	.cfi_def_cfa_offset 16
	popq	%r12
	.cfi_def_cfa_offset 8
	ret
	.p2align 4,,10
	.p2align 3
.L464:
	.cfi_restore_state
	leaq	8(%rdi), %rbp
	leaq	4(%rsp), %r12
	movl	$2, 4(%rsp)
	movq	%r12, %rsi
	movq	%rbp, %rdi
	call	_ZNK7openpal6Logger9IsEnabledERKNS_10LogFiltersE@PLT
	testb	%al, %al
	je	.L456
	leaq	.LC6(%rip), %rcx
	leaq	.LC7(%rip), %rdx
	movq	%r12, %rsi
	movq	%rbp, %rdi
	movl	$2, 4(%rsp)
	call	_ZN7openpal6Logger3LogERKNS_10LogFiltersEPKcS5_@PLT
	xorl	%eax, %eax
	jmp	.L456
.L465:
	call	__stack_chk_fail@PLT
	.cfi_endproc
.LFE2910:
	.size	_ZN8opendnp38OContext14OnLowerLayerUpEv, .-_ZN8opendnp38OContext14OnLowerLayerUpEv
	.align 2
	.p2align 4
	.globl	_ZN8opendnp38OContext12OnSendResultEb
	.type	_ZN8opendnp38OContext12OnSendResultEb, @function
_ZN8opendnp38OContext12OnSendResultEb:
.LFB2912:
	.cfi_startproc
	endbr64
	pushq	%r12
	.cfi_def_cfa_offset 16
	.cfi_offset 12, -16
	movzbl	720(%rdi), %r12d
	testb	%r12b, %r12b
	je	.L466
	movzbl	721(%rdi), %r12d
	testb	%r12b, %r12b
	jne	.L475
.L466:
	movl	%r12d, %eax
	popq	%r12
	.cfi_remember_state
	.cfi_def_cfa_offset 8
	ret
	.p2align 4,,10
	.p2align 3
.L475:
	.cfi_restore_state
	movb	$0, 721(%rdi)
	call	_ZN8opendnp38OContext17CheckForTaskStartEv@PLT
	movl	%r12d, %eax
	popq	%r12
	.cfi_def_cfa_offset 8
	ret
	.cfi_endproc
.LFE2912:
	.size	_ZN8opendnp38OContext12OnSendResultEb, .-_ZN8opendnp38OContext12OnSendResultEb
	.p2align 4
	.type	_ZNSt17_Function_handlerIFvvEZN7openpal8TimerRef7RestartIZN8opendnp38OContext19RestartConfirmTimerEvEUlvE_EEvRKNS1_12TimeDurationERKT_EUlvE_E9_M_invokeERKSt9_Any_data, @function
_ZNSt17_Function_handlerIFvvEZN7openpal8TimerRef7RestartIZN8opendnp38OContext19RestartConfirmTimerEvEUlvE_EEvRKNS1_12TimeDurationERKT_EUlvE_E9_M_invokeERKSt9_Any_data:
.LFB3521:
	.cfi_startproc
	endbr64
	pushq	%rbp
	.cfi_def_cfa_offset 16
	.cfi_offset 6, -16
	pushq	%rbx
	.cfi_def_cfa_offset 24
	.cfi_offset 3, -24
	movq	%rdi, %rbx
	subq	$8, %rsp
	.cfi_def_cfa_offset 32
	movq	8(%rdi), %rbp
	movq	(%rdi), %rax
	movq	944(%rbp), %rdi
	movq	$0, 8(%rax)
	movq	%rbp, %rsi
	movq	(%rdi), %rax
	call	*24(%rax)
	movq	8(%rbx), %rdi
	movq	%rax, 944(%rbp)
	addq	$8, %rsp
	.cfi_def_cfa_offset 24
	popq	%rbx
	.cfi_def_cfa_offset 16
	popq	%rbp
	.cfi_def_cfa_offset 8
	jmp	_ZN8opendnp38OContext17CheckForTaskStartEv@PLT
	.cfi_endproc
.LFE3521:
	.size	_ZNSt17_Function_handlerIFvvEZN7openpal8TimerRef7RestartIZN8opendnp38OContext19RestartConfirmTimerEvEUlvE_EEvRKNS1_12TimeDurationERKT_EUlvE_E9_M_invokeERKSt9_Any_data, .-_ZNSt17_Function_handlerIFvvEZN7openpal8TimerRef7RestartIZN8opendnp38OContext19RestartConfirmTimerEvEUlvE_EEvRKNS1_12TimeDurationERKT_EUlvE_E9_M_invokeERKSt9_Any_data
	.align 2
	.p2align 4
	.globl	_ZN8opendnp38OContext13SetRestartIINEv
	.type	_ZN8opendnp38OContext13SetRestartIINEv, @function
_ZN8opendnp38OContext13SetRestartIINEv:
.LFB2936:
	.cfi_startproc
	endbr64
	addq	$722, %rdi
	movl	$7, %esi
	jmp	_ZN8opendnp38IINField6SetBitENS_6IINBitE@PLT
	.cfi_endproc
.LFE2936:
	.size	_ZN8opendnp38OContext13SetRestartIINEv, .-_ZN8opendnp38OContext13SetRestartIINEv
	.align 2
	.p2align 4
	.globl	_ZN8opendnp38OContext16GetUpdateHandlerEv
	.type	_ZN8opendnp38OContext16GetUpdateHandlerEv, @function
_ZN8opendnp38OContext16GetUpdateHandlerEv:
.LFB2937:
	.cfi_startproc
	endbr64
	leaq	360(%rdi), %rax
	ret
	.cfi_endproc
.LFE2937:
	.size	_ZN8opendnp38OContext16GetUpdateHandlerEv, .-_ZN8opendnp38OContext16GetUpdateHandlerEv
	.align 2
	.p2align 4
	.globl	_ZN8opendnp38OContext13GetConfigViewEv
	.type	_ZN8opendnp38OContext13GetConfigViewEv, @function
_ZN8opendnp38OContext13GetConfigViewEv:
.LFB2938:
	.cfi_startproc
	endbr64
	pushq	%r12
	.cfi_def_cfa_offset 16
	.cfi_offset 12, -16
	addq	$408, %rsi
	movq	%rdi, %r12
	subq	$16, %rsp
	.cfi_def_cfa_offset 32
	movq	%fs:40, %rax
	movq	%rax, 8(%rsp)
	xorl	%eax, %eax
	call	_ZNK8opendnp313StaticBuffers7GetViewEv@PLT
	movq	8(%rsp), %rax
	xorq	%fs:40, %rax
	jne	.L483
	addq	$16, %rsp
	.cfi_remember_state
	.cfi_def_cfa_offset 16
	movq	%r12, %rax
	popq	%r12
	.cfi_def_cfa_offset 8
	ret
.L483:
	.cfi_restore_state
	call	__stack_chk_fail@PLT
	.cfi_endproc
.LFE2938:
	.size	_ZN8opendnp38OContext13GetConfigViewEv, .-_ZN8opendnp38OContext13GetConfigViewEv
	.align 2
	.p2align 4
	.globl	_ZN8opendnp38OContext10HandleReadERKN7openpal6RSliceERNS_12HeaderWriterE
	.type	_ZN8opendnp38OContext10HandleReadERKN7openpal6RSliceERNS_12HeaderWriterE, @function
_ZN8opendnp38OContext10HandleReadERKN7openpal6RSliceERNS_12HeaderWriterE:
.LFB2941:
	.cfi_startproc
	endbr64
	pushq	%r15
	.cfi_def_cfa_offset 16
	.cfi_offset 15, -16
	pushq	%r14
	.cfi_def_cfa_offset 24
	.cfi_offset 14, -24
	leaq	640(%rdi), %r14
	pushq	%r13
	.cfi_def_cfa_offset 32
	.cfi_offset 13, -32
	pushq	%r12
	.cfi_def_cfa_offset 40
	.cfi_offset 12, -40
	movq	%rdx, %r12
	pushq	%rbp
	.cfi_def_cfa_offset 48
	.cfi_offset 6, -48
	movq	%rsi, %rbp
	pushq	%rbx
	.cfi_def_cfa_offset 56
	.cfi_offset 3, -56
	movq	%rdi, %rbx
	movq	%r14, %rdi
	leaq	384(%rbx), %r15
	subq	$72, %rsp
	.cfi_def_cfa_offset 128
	movq	%fs:40, %rax
	movq	%rax, 56(%rsp)
	xorl	%eax, %eax
	leaq	16(%rsp), %r13
	call	_ZN8opendnp315ResponseContext5ResetEv@PLT
	leaq	104(%rbx), %rdi
	call	_ZN8opendnp311EventBuffer8UnselectEv@PLT
	movq	%r15, %rdi
	call	_ZN8opendnp315DatabaseBuffers8UnselectEv@PLT
	leaq	112(%rbx), %rdx
	movq	%r15, %rsi
	movq	%r13, %rdi
	call	_ZN8opendnp311ReadHandlerC1ERNS_15IStaticSelectorERNS_14IEventSelectorE@PLT
	leaq	8(%rbx), %rdx
	movq	%r13, %rsi
	movq	%rbp, %rdi
	movabsq	$35184372088832, %rcx
	call	_ZN8opendnp310APDUParser5ParseERKN7openpal6RSliceERNS_12IAPDUHandlerEPNS1_6LoggerENS_14ParserSettingsE@PLT
	testb	%al, %al
	jne	.L485
	movq	%r14, %rdi
	movq	%r12, %rsi
	call	_ZN8opendnp315ResponseContext12LoadResponseERNS_12HeaderWriterE@PLT
	movq	%r13, %rdi
	movzbl	%ah, %edx
	movb	%al, 4(%rsp)
	movb	%dl, 5(%rsp)
	movq	%rax, %rdx
	shrq	$16, %rdx
	movb	%dl, 6(%rsp)
	movq	%rax, %rdx
	shrq	$32, %rax
	shrq	$24, %rdx
	movb	%al, 8(%rsp)
	movb	%dl, 7(%rsp)
	call	_ZNK8opendnp312IAPDUHandler6ErrorsEv@PLT
.L489:
	movw	%ax, 9(%rsp)
	movl	4(%rsp), %eax
	movl	%eax, 11(%rsp)
	movzbl	8(%rsp), %eax
	movb	%al, 15(%rsp)
	movzwl	13(%rsp), %eax
	movzbl	15(%rsp), %edx
	salq	$32, %rax
	movq	%rax, %rcx
	movl	9(%rsp), %eax
	salq	$48, %rdx
	orq	%rcx, %rax
	orq	%rdx, %rax
	movq	56(%rsp), %rcx
	xorq	%fs:40, %rcx
	jne	.L490
	addq	$72, %rsp
	.cfi_remember_state
	.cfi_def_cfa_offset 56
	popq	%rbx
	.cfi_def_cfa_offset 48
	popq	%rbp
	.cfi_def_cfa_offset 40
	popq	%r12
	.cfi_def_cfa_offset 32
	popq	%r13
	.cfi_def_cfa_offset 24
	popq	%r14
	.cfi_def_cfa_offset 16
	popq	%r15
	.cfi_def_cfa_offset 8
	ret
	.p2align 4,,10
	.p2align 3
.L485:
	.cfi_restore_state
	movq	%r14, %rdi
	movl	%eax, %ebp
	call	_ZN8opendnp315ResponseContext5ResetEv@PLT
	leaq	4(%rsp), %rdi
	xorl	%r9d, %r9d
	xorl	%r8d, %r8d
	xorl	%ecx, %ecx
	movl	$1, %edx
	movl	$1, %esi
	call	_ZN8opendnp315AppControlFieldC1Ebbbbh@PLT
	movl	%ebp, %edi
	call	_ZN8opendnp318IINFromParseResultENS_11ParseResultE@PLT
	jmp	.L489
.L490:
	call	__stack_chk_fail@PLT
	.cfi_endproc
.LFE2941:
	.size	_ZN8opendnp38OContext10HandleReadERKN7openpal6RSliceERNS_12HeaderWriterE, .-_ZN8opendnp38OContext10HandleReadERKN7openpal6RSliceERNS_12HeaderWriterE
	.align 2
	.p2align 4
	.globl	_ZN8opendnp38OContext20RespondToReadRequestERKNS_10APDUHeaderERKN7openpal6RSliceE
	.type	_ZN8opendnp38OContext20RespondToReadRequestERKNS_10APDUHeaderERKN7openpal6RSliceE, @function
_ZN8opendnp38OContext20RespondToReadRequestERKNS_10APDUHeaderERKN7openpal6RSliceE:
.LFB2929:
	.cfi_startproc
	endbr64
	pushq	%r14
	.cfi_def_cfa_offset 16
	.cfi_offset 14, -16
	pushq	%r13
	.cfi_def_cfa_offset 24
	.cfi_offset 13, -24
	movq	%rdx, %r13
	pushq	%r12
	.cfi_def_cfa_offset 32
	.cfi_offset 12, -32
	pushq	%rbp
	.cfi_def_cfa_offset 40
	.cfi_offset 6, -40
	movq	%rdi, %rbp
	addq	$744, %rdi
	pushq	%rbx
	.cfi_def_cfa_offset 48
	.cfi_offset 3, -48
	movq	%rsi, %rbx
	subq	$112, %rsp
	.cfi_def_cfa_offset 160
	movq	%fs:40, %rax
	movq	%rax, 104(%rsp)
	xorl	%eax, %eax
	leaq	64(%rsp), %r12
	leaq	32(%rsp), %r14
	call	_ZN8opendnp314RequestHistory26RecordLastProcessedRequestERKNS_10APDUHeaderERKN7openpal6RSliceE@PLT
	leaq	864(%rbp), %rdi
	call	_ZN7openpal6Buffer9GetWSliceEv@PLT
	movq	%r14, %rsi
	movq	%r12, %rdi
	movq	%rdx, 40(%rsp)
	movl	%eax, 32(%rsp)
	call	_ZN8opendnp312APDUResponseC1ERKN7openpal6WSliceE@PLT
	movq	%r12, %rsi
	movq	%r14, %rdi
	call	_ZN8opendnp311APDUWrapper9GetWriterEv@PLT
	movl	$-127, %esi
	movq	%r12, %rdi
	call	_ZN8opendnp311APDUWrapper11SetFunctionENS_12FunctionCodeE@PLT
	movq	%r13, %rsi
	movq	%r14, %rdx
	movq	%rbp, %rdi
	call	_ZN8opendnp38OContext10HandleReadERKN7openpal6RSliceERNS_12HeaderWriterE@PLT
	leaq	16(%rsp), %r13
	movq	%rax, %rsi
	movq	%rax, %rcx
	movzbl	%ah, %edx
	movb	%al, 9(%rsp)
	shrq	$16, %rsi
	shrq	$32, %rcx
	movb	%dl, 10(%rsp)
	movzbl	5(%rbx), %edx
	movzbl	%sil, %edi
	movq	%rax, %rsi
	movb	%cl, 13(%rsp)
	movzbl	%cl, %ecx
	shrq	$16, %rsi
	shrq	$16, %rax
	movb	%dl, 833(%rbp)
	salq	$16, %rcx
	andl	$65280, %esi
	salq	$32, %rdx
	orq	%rdi, %rsi
	movq	%r12, %rdi
	orq	%rsi, %rcx
	movq	%rax, %rsi
	andl	$4278190080, %esi
	orq	%rcx, %rsi
	orq	%rdx, %rsi
	call	_ZN8opendnp311APDUWrapper10SetControlENS_15AppControlFieldE@PLT
	movq	%rbp, %rdi
	call	_ZN8opendnp38OContext14GetResponseIINEv@PLT
	movq	%r13, %rsi
	orw	9(%rsp), %ax
	movq	%r12, %rdi
	movw	%ax, 16(%rsp)
	call	_ZN8opendnp312APDUResponse6SetIINERKNS_8IINFieldE@PLT
	movq	%r12, %rdi
	call	_ZNK8opendnp311APDUWrapper8ToRSliceEv@PLT
	movq	%r12, %rdi
	movq	%rdx, 24(%rsp)
	movl	%eax, 16(%rsp)
	call	_ZNK8opendnp311APDUWrapper10GetControlEv@PLT
	leaq	4(%rsp), %rsi
	movq	%rbp, %rdi
	movzbl	%ah, %edx
	movb	%al, 4(%rsp)
	movb	%dl, 5(%rsp)
	movq	%rax, %rdx
	shrq	$16, %rdx
	movb	%dl, 6(%rsp)
	movq	%rax, %rdx
	shrq	$32, %rax
	shrq	$24, %rdx
	movb	%al, 8(%rsp)
	movb	%dl, 7(%rsp)
	movq	%r13, %rdx
	call	_ZN8opendnp38OContext15BeginResponseTxERKNS_15AppControlFieldERKN7openpal6RSliceE@PLT
	cmpb	$0, 13(%rsp)
	jne	.L496
	movq	_ZN8opendnp39StateIdle8instanceE@GOTPCREL(%rip), %rax
.L491:
	movq	104(%rsp), %rbx
	xorq	%fs:40, %rbx
	jne	.L497
	addq	$112, %rsp
	.cfi_remember_state
	.cfi_def_cfa_offset 48
	popq	%rbx
	.cfi_def_cfa_offset 40
	popq	%rbp
	.cfi_def_cfa_offset 32
	popq	%r12
	.cfi_def_cfa_offset 24
	popq	%r13
	.cfi_def_cfa_offset 16
	popq	%r14
	.cfi_def_cfa_offset 8
	ret
	.p2align 4,,10
	.p2align 3
.L496:
	.cfi_restore_state
	movq	%rbp, %rdi
	call	_ZN8opendnp38OContext19RestartConfirmTimerEv@PLT
	movq	_ZN8opendnp325StateSolicitedConfirmWait8instanceE@GOTPCREL(%rip), %rax
	jmp	.L491
.L497:
	call	__stack_chk_fail@PLT
	.cfi_endproc
.LFE2929:
	.size	_ZN8opendnp38OContext20RespondToReadRequestERKNS_10APDUHeaderERKN7openpal6RSliceE, .-_ZN8opendnp38OContext20RespondToReadRequestERKNS_10APDUHeaderERKN7openpal6RSliceE
	.align 2
	.p2align 4
	.globl	_ZN8opendnp38OContext11HandleWriteERKN7openpal6RSliceE
	.type	_ZN8opendnp38OContext11HandleWriteERKN7openpal6RSliceE, @function
_ZN8opendnp38OContext11HandleWriteERKN7openpal6RSliceE:
.LFB2942:
	.cfi_startproc
	endbr64
	pushq	%r12
	.cfi_def_cfa_offset 16
	.cfi_offset 12, -16
	leaq	722(%rdi), %rdx
	pushq	%rbp
	.cfi_def_cfa_offset 24
	.cfi_offset 6, -24
	movq	%rsi, %rbp
	pushq	%rbx
	.cfi_def_cfa_offset 32
	.cfi_offset 3, -32
	movq	%rdi, %rbx
	subq	$64, %rsp
	.cfi_def_cfa_offset 96
	movq	88(%rdi), %rsi
	movq	%fs:40, %rax
	movq	%rax, 56(%rsp)
	xorl	%eax, %eax
	movq	%rsp, %r12
	movq	%r12, %rdi
	call	_ZN8opendnp312WriteHandlerC1ERNS_22IOutstationApplicationEPNS_8IINFieldE@PLT
	leaq	8(%rbx), %rdx
	movq	%r12, %rsi
	movq	%rbp, %rdi
	movabsq	$35184372088833, %rcx
	call	_ZN8opendnp310APDUParser5ParseERKN7openpal6RSliceERNS_12IAPDUHandlerEPNS1_6LoggerENS_14ParserSettingsE@PLT
	testb	%al, %al
	jne	.L499
	movq	%r12, %rdi
	call	_ZNK8opendnp312IAPDUHandler6ErrorsEv@PLT
.L500:
	movq	56(%rsp), %rcx
	xorq	%fs:40, %rcx
	jne	.L503
	addq	$64, %rsp
	.cfi_remember_state
	.cfi_def_cfa_offset 32
	popq	%rbx
	.cfi_def_cfa_offset 24
	popq	%rbp
	.cfi_def_cfa_offset 16
	popq	%r12
	.cfi_def_cfa_offset 8
	ret
	.p2align 4,,10
	.p2align 3
.L499:
	.cfi_restore_state
	movl	%eax, %edi
	call	_ZN8opendnp318IINFromParseResultENS_11ParseResultE@PLT
	jmp	.L500
.L503:
	call	__stack_chk_fail@PLT
	.cfi_endproc
.LFE2942:
	.size	_ZN8opendnp38OContext11HandleWriteERKN7openpal6RSliceE, .-_ZN8opendnp38OContext11HandleWriteERKN7openpal6RSliceE
	.align 2
	.p2align 4
	.globl	_ZN8opendnp38OContext18HandleDelayMeasureERKN7openpal6RSliceERNS_12HeaderWriterE
	.type	_ZN8opendnp38OContext18HandleDelayMeasureERKN7openpal6RSliceERNS_12HeaderWriterE, @function
_ZN8opendnp38OContext18HandleDelayMeasureERKN7openpal6RSliceERNS_12HeaderWriterE:
.LFB2946:
	.cfi_startproc
	endbr64
	pushq	%rbp
	.cfi_def_cfa_offset 16
	.cfi_offset 6, -16
	pushq	%rbx
	.cfi_def_cfa_offset 24
	.cfi_offset 3, -24
	subq	$24, %rsp
	.cfi_def_cfa_offset 48
	movl	(%rsi), %ecx
	movq	%fs:40, %rax
	movq	%rax, 8(%rsp)
	xorl	%eax, %eax
	testl	%ecx, %ecx
	jne	.L505
	leaq	6(%rsp), %rbp
	movq	%rdx, %rbx
	movq	%rbp, %rdi
	call	_ZN8opendnp311Group52Var2C1Ev@PLT
	xorl	%edx, %edx
	movl	$3, %ecx
	movq	%rbx, %rdi
	movw	%dx, 6(%rsp)
	movl	$564, %esi
	movl	$7, %edx
	call	_ZN8opendnp312HeaderWriter22WriteHeaderWithReserveENS_16GroupVariationIDENS_13QualifierCodeEj@PLT
	testb	%al, %al
	jne	.L513
.L506:
	xorl	%eax, %eax
.L507:
	movq	8(%rsp), %rcx
	xorq	%fs:40, %rcx
	jne	.L514
	addq	$24, %rsp
	.cfi_remember_state
	.cfi_def_cfa_offset 24
	popq	%rbx
	.cfi_def_cfa_offset 16
	popq	%rbp
	.cfi_def_cfa_offset 8
	ret
	.p2align 4,,10
	.p2align 3
.L505:
	.cfi_restore_state
	xorl	%eax, %eax
	leaq	6(%rsp), %rdi
	movl	$10, %esi
	movw	%ax, 6(%rsp)
	call	_ZN8opendnp38IINField6SetBitENS_6IINBitE@PLT
	movzwl	6(%rsp), %eax
	jmp	.L507
	.p2align 4,,10
	.p2align 3
.L513:
	movq	(%rbx), %rdi
	movl	$1, %esi
	movq	8(%rdi), %rax
	movb	$1, (%rax)
	call	_ZN7openpal6WSlice7AdvanceEj@PLT
	movq	(%rbx), %rsi
	movq	%rbp, %rdi
	call	_ZN8opendnp311Group52Var25WriteERKS0_RN7openpal6WSliceE@PLT
	jmp	.L506
.L514:
	call	__stack_chk_fail@PLT
	.cfi_endproc
.LFE2946:
	.size	_ZN8opendnp38OContext18HandleDelayMeasureERKN7openpal6RSliceERNS_12HeaderWriterE, .-_ZN8opendnp38OContext18HandleDelayMeasureERKN7openpal6RSliceERNS_12HeaderWriterE
	.align 2
	.p2align 4
	.globl	_ZN8opendnp38OContext13HandleRestartERKN7openpal6RSliceEbPNS_12HeaderWriterE
	.type	_ZN8opendnp38OContext13HandleRestartERKN7openpal6RSliceEbPNS_12HeaderWriterE, @function
_ZN8opendnp38OContext13HandleRestartERKN7openpal6RSliceEbPNS_12HeaderWriterE:
.LFB2947:
	.cfi_startproc
	endbr64
	pushq	%r12
	.cfi_def_cfa_offset 16
	.cfi_offset 12, -16
	pushq	%rbp
	.cfi_def_cfa_offset 24
	.cfi_offset 6, -24
	pushq	%rbx
	.cfi_def_cfa_offset 32
	.cfi_offset 3, -32
	subq	$16, %rsp
	.cfi_def_cfa_offset 48
	movl	(%rsi), %esi
	movq	%fs:40, %rax
	movq	%rax, 8(%rsp)
	xorl	%eax, %eax
	testl	%esi, %esi
	jne	.L516
	movq	%rdi, %rbx
	movq	88(%rdi), %rdi
	movq	%rcx, %rbp
	movq	(%rdi), %rax
	testb	%dl, %dl
	jne	.L558
	movq	88(%rax), %rax
	cmpq	_ZNK8opendnp322IOutstationApplication18ColdRestartSupportEv@GOTPCREL(%rip), %rax
	jne	.L559
.L518:
	xorl	%edx, %edx
	leaq	6(%rsp), %rdi
	movl	$8, %esi
	movw	%dx, 6(%rsp)
	call	_ZN8opendnp38IINField6SetBitENS_6IINBitE@PLT
	movzbl	6(%rsp), %ecx
	movzbl	7(%rsp), %edx
.L524:
	xorl	%eax, %eax
	movb	%cl, %al
	movb	%dl, %ah
.L536:
	movq	8(%rsp), %rbx
	xorq	%fs:40, %rbx
	jne	.L560
	addq	$16, %rsp
	.cfi_remember_state
	.cfi_def_cfa_offset 32
	popq	%rbx
	.cfi_def_cfa_offset 24
	popq	%rbp
	.cfi_def_cfa_offset 16
	popq	%r12
	.cfi_def_cfa_offset 8
	ret
	.p2align 4,,10
	.p2align 3
.L558:
	.cfi_restore_state
	movq	96(%rax), %rax
	cmpq	_ZNK8opendnp322IOutstationApplication18WarmRestartSupportEv@GOTPCREL(%rip), %rax
	je	.L518
	call	*%rax
	testb	%al, %al
	je	.L518
	cmpb	$2, %al
	jne	.L561
	movq	88(%rbx), %rdi
	movq	(%rdi), %rax
	movq	112(%rax), %rax
	cmpq	_ZN8opendnp322IOutstationApplication11WarmRestartEv@GOTPCREL(%rip), %rax
	jne	.L556
.L527:
	movl	$-1, %ebx
.L526:
	testq	%rbp, %rbp
	je	.L529
	leaq	6(%rsp), %r12
	movq	%r12, %rdi
	call	_ZN8opendnp311Group52Var1C1Ev@PLT
	movl	$3, %ecx
	movl	$7, %edx
	movq	%rbp, %rdi
	movl	$308, %esi
	movw	%bx, 6(%rsp)
	call	_ZN8opendnp312HeaderWriter22WriteHeaderWithReserveENS_16GroupVariationIDENS_13QualifierCodeEj@PLT
	testb	%al, %al
	jne	.L562
	.p2align 4,,10
	.p2align 3
.L529:
	xorl	%edx, %edx
	xorl	%ecx, %ecx
	jmp	.L524
	.p2align 4,,10
	.p2align 3
.L516:
	xorl	%eax, %eax
	leaq	6(%rsp), %rdi
	movl	$10, %esi
	movw	%ax, 6(%rsp)
	call	_ZN8opendnp38IINField6SetBitENS_6IINBitE@PLT
	movzwl	6(%rsp), %eax
	jmp	.L536
.L561:
	movq	88(%rbx), %rdi
	movq	(%rdi), %rax
	movq	112(%rax), %rax
	cmpq	_ZN8opendnp322IOutstationApplication11WarmRestartEv@GOTPCREL(%rip), %rax
	jne	.L557
.L533:
	movl	$-1, %ebx
.L532:
	testq	%rbp, %rbp
	je	.L529
	leaq	6(%rsp), %r12
	movq	%r12, %rdi
	call	_ZN8opendnp311Group52Var2C1Ev@PLT
	movl	$3, %ecx
	movl	$7, %edx
	movq	%rbp, %rdi
	movl	$564, %esi
	movw	%bx, 6(%rsp)
	call	_ZN8opendnp312HeaderWriter22WriteHeaderWithReserveENS_16GroupVariationIDENS_13QualifierCodeEj@PLT
	testb	%al, %al
	je	.L529
	movq	0(%rbp), %rdi
	movl	$1, %esi
	movq	8(%rdi), %rax
	movb	$1, (%rax)
	call	_ZN7openpal6WSlice7AdvanceEj@PLT
	movq	0(%rbp), %rsi
	movq	%r12, %rdi
	call	_ZN8opendnp311Group52Var25WriteERKS0_RN7openpal6WSliceE@PLT
	jmp	.L529
	.p2align 4,,10
	.p2align 3
.L559:
	call	*%rax
	testb	%al, %al
	je	.L518
	cmpb	$2, %al
	je	.L563
	movq	88(%rbx), %rdi
	movq	(%rdi), %rax
	movq	104(%rax), %rax
	cmpq	_ZN8opendnp322IOutstationApplication11ColdRestartEv@GOTPCREL(%rip), %rax
	je	.L533
.L557:
	call	*%rax
	movl	%eax, %ebx
	jmp	.L532
.L563:
	movq	88(%rbx), %rdi
	movq	(%rdi), %rax
	movq	104(%rax), %rax
	cmpq	_ZN8opendnp322IOutstationApplication11ColdRestartEv@GOTPCREL(%rip), %rax
	je	.L527
.L556:
	call	*%rax
	movl	%eax, %ebx
	jmp	.L526
	.p2align 4,,10
	.p2align 3
.L562:
	movq	0(%rbp), %rdi
	movl	$1, %esi
	movq	8(%rdi), %rax
	movb	$1, (%rax)
	call	_ZN7openpal6WSlice7AdvanceEj@PLT
	movq	0(%rbp), %rsi
	movq	%r12, %rdi
	call	_ZN8opendnp311Group52Var15WriteERKS0_RN7openpal6WSliceE@PLT
	jmp	.L529
.L560:
	call	__stack_chk_fail@PLT
	.cfi_endproc
.LFE2947:
	.size	_ZN8opendnp38OContext13HandleRestartERKN7openpal6RSliceEbPNS_12HeaderWriterE, .-_ZN8opendnp38OContext13HandleRestartERKN7openpal6RSliceEbPNS_12HeaderWriterE
	.align 2
	.p2align 4
	.globl	_ZN8opendnp38OContext17HandleAssignClassERKN7openpal6RSliceE
	.type	_ZN8opendnp38OContext17HandleAssignClassERKN7openpal6RSliceE, @function
_ZN8opendnp38OContext17HandleAssignClassERKN7openpal6RSliceE:
.LFB2948:
	.cfi_startproc
	endbr64
	pushq	%r12
	.cfi_def_cfa_offset 16
	.cfi_offset 12, -16
	pushq	%rbp
	.cfi_def_cfa_offset 24
	.cfi_offset 6, -24
	pushq	%rbx
	.cfi_def_cfa_offset 32
	.cfi_offset 3, -32
	movq	%rdi, %rbx
	subq	$64, %rsp
	.cfi_def_cfa_offset 96
	movq	88(%rdi), %rdi
	movq	%fs:40, %rax
	movq	%rax, 56(%rsp)
	xorl	%eax, %eax
	movq	(%rdi), %rax
	movq	64(%rax), %rax
	cmpq	_ZN8opendnp322IOutstationApplication19SupportsAssignClassEv@GOTPCREL(%rip), %rax
	jne	.L574
.L565:
	xorl	%eax, %eax
	movq	%rsp, %rdi
	movl	$8, %esi
	movw	%ax, (%rsp)
	call	_ZN8opendnp38IINField6SetBitENS_6IINBitE@PLT
	movzwl	(%rsp), %eax
.L568:
	movq	56(%rsp), %rcx
	xorq	%fs:40, %rcx
	jne	.L575
	addq	$64, %rsp
	.cfi_remember_state
	.cfi_def_cfa_offset 32
	popq	%rbx
	.cfi_def_cfa_offset 24
	popq	%rbp
	.cfi_def_cfa_offset 16
	popq	%r12
	.cfi_def_cfa_offset 8
	ret
	.p2align 4,,10
	.p2align 3
.L574:
	.cfi_restore_state
	movq	%rsi, %rbp
	call	*%rax
	testb	%al, %al
	je	.L565
	movq	88(%rbx), %rdx
	movq	40(%rbx), %rsi
	movq	%rsp, %r12
	leaq	400(%rbx), %rcx
	movq	%r12, %rdi
	call	_ZN8opendnp318AssignClassHandlerC1ERN7openpal9IExecutorERNS_22IOutstationApplicationERNS_14IClassAssignerE@PLT
	movq	%rbp, %rdi
	leaq	8(%rbx), %rdx
	movq	%r12, %rsi
	movabsq	$35184372088832, %rcx
	call	_ZN8opendnp310APDUParser5ParseERKN7openpal6RSliceERNS_12IAPDUHandlerEPNS1_6LoggerENS_14ParserSettingsE@PLT
	movl	%eax, %edi
	testb	%al, %al
	jne	.L566
	movq	%r12, %rdi
	call	_ZNK8opendnp312IAPDUHandler6ErrorsEv@PLT
	jmp	.L568
	.p2align 4,,10
	.p2align 3
.L566:
	call	_ZN8opendnp318IINFromParseResultENS_11ParseResultE@PLT
	jmp	.L568
.L575:
	call	__stack_chk_fail@PLT
	.cfi_endproc
.LFE2948:
	.size	_ZN8opendnp38OContext17HandleAssignClassERKN7openpal6RSliceE, .-_ZN8opendnp38OContext17HandleAssignClassERKN7openpal6RSliceE
	.align 2
	.p2align 4
	.globl	_ZN8opendnp38OContext24HandleDisableUnsolicitedERKN7openpal6RSliceERNS_12HeaderWriterE
	.type	_ZN8opendnp38OContext24HandleDisableUnsolicitedERKN7openpal6RSliceERNS_12HeaderWriterE, @function
_ZN8opendnp38OContext24HandleDisableUnsolicitedERKN7openpal6RSliceERNS_12HeaderWriterE:
.LFB2949:
	.cfi_startproc
	endbr64
	pushq	%r12
	.cfi_def_cfa_offset 16
	.cfi_offset 12, -16
	pushq	%rbp
	.cfi_def_cfa_offset 24
	.cfi_offset 6, -24
	movq	%rsi, %rbp
	pushq	%rbx
	.cfi_def_cfa_offset 32
	.cfi_offset 3, -32
	movq	%rdi, %rbx
	subq	$48, %rsp
	.cfi_def_cfa_offset 80
	movq	%fs:40, %rax
	movq	%rax, 40(%rsp)
	xorl	%eax, %eax
	leaq	16(%rsp), %r12
	movq	%r12, %rdi
	call	_ZN8opendnp312IAPDUHandlerC2Ev@PLT
	movq	_ZTVN8opendnp324ClassBasedRequestHandlerE@GOTPCREL(%rip), %rax
	leaq	36(%rsp), %rdi
	addq	$16, %rax
	movq	%rax, 16(%rsp)
	call	_ZN8opendnp310ClassFieldC1Ev@PLT
	leaq	8(%rbx), %rdx
	movq	%r12, %rsi
	movq	%rbp, %rdi
	movabsq	$35184372088833, %rcx
	call	_ZN8opendnp310APDUParser5ParseERKN7openpal6RSliceERNS_12IAPDUHandlerEPNS1_6LoggerENS_14ParserSettingsE@PLT
	testb	%al, %al
	jne	.L577
	movzbl	36(%rsp), %eax
	leaq	716(%rbx), %rdi
	leaq	15(%rsp), %rsi
	movb	%al, 15(%rsp)
	call	_ZN8opendnp310ClassField5ClearERKS0_@PLT
	movq	%r12, %rdi
	call	_ZNK8opendnp312IAPDUHandler6ErrorsEv@PLT
.L578:
	movq	40(%rsp), %rcx
	xorq	%fs:40, %rcx
	jne	.L581
	addq	$48, %rsp
	.cfi_remember_state
	.cfi_def_cfa_offset 32
	popq	%rbx
	.cfi_def_cfa_offset 24
	popq	%rbp
	.cfi_def_cfa_offset 16
	popq	%r12
	.cfi_def_cfa_offset 8
	ret
	.p2align 4,,10
	.p2align 3
.L577:
	.cfi_restore_state
	movl	%eax, %edi
	call	_ZN8opendnp318IINFromParseResultENS_11ParseResultE@PLT
	jmp	.L578
.L581:
	call	__stack_chk_fail@PLT
	.cfi_endproc
.LFE2949:
	.size	_ZN8opendnp38OContext24HandleDisableUnsolicitedERKN7openpal6RSliceERNS_12HeaderWriterE, .-_ZN8opendnp38OContext24HandleDisableUnsolicitedERKN7openpal6RSliceERNS_12HeaderWriterE
	.align 2
	.p2align 4
	.globl	_ZN8opendnp38OContext23HandleEnableUnsolicitedERKN7openpal6RSliceERNS_12HeaderWriterE
	.type	_ZN8opendnp38OContext23HandleEnableUnsolicitedERKN7openpal6RSliceERNS_12HeaderWriterE, @function
_ZN8opendnp38OContext23HandleEnableUnsolicitedERKN7openpal6RSliceERNS_12HeaderWriterE:
.LFB2950:
	.cfi_startproc
	endbr64
	pushq	%r12
	.cfi_def_cfa_offset 16
	.cfi_offset 12, -16
	pushq	%rbp
	.cfi_def_cfa_offset 24
	.cfi_offset 6, -24
	movq	%rsi, %rbp
	pushq	%rbx
	.cfi_def_cfa_offset 32
	.cfi_offset 3, -32
	movq	%rdi, %rbx
	subq	$48, %rsp
	.cfi_def_cfa_offset 80
	movq	%fs:40, %rax
	movq	%rax, 40(%rsp)
	xorl	%eax, %eax
	leaq	16(%rsp), %r12
	movq	%r12, %rdi
	call	_ZN8opendnp312IAPDUHandlerC2Ev@PLT
	movq	_ZTVN8opendnp324ClassBasedRequestHandlerE@GOTPCREL(%rip), %rax
	leaq	36(%rsp), %rdi
	addq	$16, %rax
	movq	%rax, 16(%rsp)
	call	_ZN8opendnp310ClassFieldC1Ev@PLT
	leaq	8(%rbx), %rdx
	movq	%r12, %rsi
	movq	%rbp, %rdi
	movabsq	$35184372088833, %rcx
	call	_ZN8opendnp310APDUParser5ParseERKN7openpal6RSliceERNS_12IAPDUHandlerEPNS1_6LoggerENS_14ParserSettingsE@PLT
	testb	%al, %al
	jne	.L583
	movzbl	36(%rsp), %eax
	leaq	716(%rbx), %rdi
	leaq	15(%rsp), %rsi
	movb	%al, 15(%rsp)
	call	_ZN8opendnp310ClassField3SetERKS0_@PLT
	movq	%r12, %rdi
	call	_ZNK8opendnp312IAPDUHandler6ErrorsEv@PLT
.L584:
	movq	40(%rsp), %rcx
	xorq	%fs:40, %rcx
	jne	.L587
	addq	$48, %rsp
	.cfi_remember_state
	.cfi_def_cfa_offset 32
	popq	%rbx
	.cfi_def_cfa_offset 24
	popq	%rbp
	.cfi_def_cfa_offset 16
	popq	%r12
	.cfi_def_cfa_offset 8
	ret
	.p2align 4,,10
	.p2align 3
.L583:
	.cfi_restore_state
	movl	%eax, %edi
	call	_ZN8opendnp318IINFromParseResultENS_11ParseResultE@PLT
	jmp	.L584
.L587:
	call	__stack_chk_fail@PLT
	.cfi_endproc
.LFE2950:
	.size	_ZN8opendnp38OContext23HandleEnableUnsolicitedERKN7openpal6RSliceERNS_12HeaderWriterE, .-_ZN8opendnp38OContext23HandleEnableUnsolicitedERKN7openpal6RSliceERNS_12HeaderWriterE
	.align 2
	.p2align 4
	.globl	_ZN8opendnp38OContext25HandleCommandWithConstantERKN7openpal6RSliceERNS_12HeaderWriterENS_13CommandStatusE
	.type	_ZN8opendnp38OContext25HandleCommandWithConstantERKN7openpal6RSliceERNS_12HeaderWriterENS_13CommandStatusE, @function
_ZN8opendnp38OContext25HandleCommandWithConstantERKN7openpal6RSliceERNS_12HeaderWriterENS_13CommandStatusE:
.LFB2951:
	.cfi_startproc
	endbr64
	pushq	%r12
	.cfi_def_cfa_offset 16
	.cfi_offset 12, -16
	movq	%rdx, %r8
	pushq	%rbp
	.cfi_def_cfa_offset 24
	.cfi_offset 6, -24
	movq	%rsi, %rbp
	pushq	%rbx
	.cfi_def_cfa_offset 32
	.cfi_offset 3, -32
	movq	%rdi, %rbx
	subq	$80, %rsp
	.cfi_def_cfa_offset 112
	movzbl	665(%rdi), %esi
	movq	%fs:40, %rax
	movq	%rax, 72(%rsp)
	xorl	%eax, %eax
	movq	_ZTVN8opendnp321ConstantCommandActionE@GOTPCREL(%rip), %rax
	movb	%cl, 8(%rsp)
	movq	%rsp, %rdx
	leaq	16(%rsp), %r12
	movq	%r8, %rcx
	addq	$16, %rax
	movq	%r12, %rdi
	movq	%rax, (%rsp)
	call	_ZN8opendnp322CommandResponseHandlerC1EhPNS_14ICommandActionEPNS_12HeaderWriterE@PLT
	leaq	8(%rbx), %rdx
	movq	%r12, %rsi
	movq	%rbp, %rdi
	movabsq	$35184372088833, %rcx
	call	_ZN8opendnp310APDUParser5ParseERKN7openpal6RSliceERNS_12IAPDUHandlerEPNS1_6LoggerENS_14ParserSettingsE@PLT
	movl	%eax, %edi
	call	_ZN8opendnp318IINFromParseResultENS_11ParseResultE@PLT
	movq	72(%rsp), %rbx
	xorq	%fs:40, %rbx
	jne	.L591
	addq	$80, %rsp
	.cfi_remember_state
	.cfi_def_cfa_offset 32
	popq	%rbx
	.cfi_def_cfa_offset 24
	popq	%rbp
	.cfi_def_cfa_offset 16
	popq	%r12
	.cfi_def_cfa_offset 8
	ret
.L591:
	.cfi_restore_state
	call	__stack_chk_fail@PLT
	.cfi_endproc
.LFE2951:
	.size	_ZN8opendnp38OContext25HandleCommandWithConstantERKN7openpal6RSliceERNS_12HeaderWriterENS_13CommandStatusE, .-_ZN8opendnp38OContext25HandleCommandWithConstantERKN7openpal6RSliceERNS_12HeaderWriterENS_13CommandStatusE
	.section	.text._ZNSt16_Sp_counted_baseILN9__gnu_cxx12_Lock_policyE2EE10_M_releaseEv,"axG",@progbits,_ZNSt16_Sp_counted_baseILN9__gnu_cxx12_Lock_policyE2EE10_M_releaseEv,comdat
	.align 2
	.p2align 4
	.weak	_ZNSt16_Sp_counted_baseILN9__gnu_cxx12_Lock_policyE2EE10_M_releaseEv
	.type	_ZNSt16_Sp_counted_baseILN9__gnu_cxx12_Lock_policyE2EE10_M_releaseEv, @function
_ZNSt16_Sp_counted_baseILN9__gnu_cxx12_Lock_policyE2EE10_M_releaseEv:
.LFB3404:
	.cfi_startproc
	endbr64
	pushq	%rbp
	.cfi_def_cfa_offset 16
	.cfi_offset 6, -16
	movq	%rdi, %rbp
	pushq	%rbx
	.cfi_def_cfa_offset 24
	.cfi_offset 3, -24
	subq	$8, %rsp
	.cfi_def_cfa_offset 32
	movq	_ZL28__gthrw___pthread_key_createPjPFvPvE@GOTPCREL(%rip), %rbx
	testq	%rbx, %rbx
	je	.L593
	movl	$-1, %eax
	lock xaddl	%eax, 8(%rdi)
	cmpl	$1, %eax
	je	.L601
.L592:
	addq	$8, %rsp
	.cfi_remember_state
	.cfi_def_cfa_offset 24
	popq	%rbx
	.cfi_def_cfa_offset 16
	popq	%rbp
	.cfi_def_cfa_offset 8
	ret
	.p2align 4,,10
	.p2align 3
.L593:
	.cfi_restore_state
	movl	8(%rdi), %eax
	leal	-1(%rax), %edx
	movl	%edx, 8(%rdi)
	cmpl	$1, %eax
	jne	.L592
.L601:
	movq	0(%rbp), %rax
	movq	%rbp, %rdi
	call	*16(%rax)
	testq	%rbx, %rbx
	je	.L597
	movl	$-1, %eax
	lock xaddl	%eax, 12(%rbp)
.L598:
	cmpl	$1, %eax
	jne	.L592
	movq	0(%rbp), %rax
	movq	%rbp, %rdi
	movq	24(%rax), %rax
	addq	$8, %rsp
	.cfi_remember_state
	.cfi_def_cfa_offset 24
	popq	%rbx
	.cfi_def_cfa_offset 16
	popq	%rbp
	.cfi_def_cfa_offset 8
	jmp	*%rax
	.p2align 4,,10
	.p2align 3
.L597:
	.cfi_restore_state
	movl	12(%rbp), %eax
	leal	-1(%rax), %edx
	movl	%edx, 12(%rbp)
	jmp	.L598
	.cfi_endproc
.LFE3404:
	.size	_ZNSt16_Sp_counted_baseILN9__gnu_cxx12_Lock_policyE2EE10_M_releaseEv, .-_ZNSt16_Sp_counted_baseILN9__gnu_cxx12_Lock_policyE2EE10_M_releaseEv
	.section	.text.unlikely
	.align 2
.LCOLDB8:
	.text
.LHOTB8:
	.align 2
	.p2align 4
	.globl	_ZN8opendnp38OContextC2ERKNS_16OutstationConfigERKNS_13DatabaseSizesERKN7openpal6LoggerERKSt10shared_ptrINS7_9IExecutorEERKSB_INS_11ILowerLayerEERKSB_INS_15ICommandHandlerEERKSB_INS_22IOutstationApplicationEE
	.type	_ZN8opendnp38OContextC2ERKNS_16OutstationConfigERKNS_13DatabaseSizesERKN7openpal6LoggerERKSt10shared_ptrINS7_9IExecutorEERKSB_INS_11ILowerLayerEERKSB_INS_15ICommandHandlerEERKSB_INS_22IOutstationApplicationEE, @function
_ZN8opendnp38OContextC2ERKNS_16OutstationConfigERKNS_13DatabaseSizesERKN7openpal6LoggerERKSt10shared_ptrINS7_9IExecutorEERKSB_INS_11ILowerLayerEERKSB_INS_15ICommandHandlerEERKSB_INS_22IOutstationApplicationEE:
.LFB2908:
	.cfi_startproc
	.cfi_personality 0x9b,DW.ref.__gxx_personality_v0
	.cfi_lsda 0x1b,.LLSDA2908
	endbr64
	movq	_ZTVN8opendnp38OContextE@GOTPCREL(%rip), %rax
	pushq	%r14
	.cfi_def_cfa_offset 16
	.cfi_offset 14, -16
	pushq	%r13
	.cfi_def_cfa_offset 24
	.cfi_offset 13, -24
	movq	%rdx, %r13
	addq	$16, %rax
	pushq	%r12
	.cfi_def_cfa_offset 32
	.cfi_offset 12, -32
	movq	%r8, %r12
	pushq	%rbp
	.cfi_def_cfa_offset 40
	.cfi_offset 6, -40
	movq	%rsi, %rbp
	pushq	%rbx
	.cfi_def_cfa_offset 48
	.cfi_offset 3, -48
	movq	%rdi, %rbx
	movq	48(%rsp), %rsi
	movq	%rax, (%rdi)
	movq	(%rcx), %rax
	movq	56(%rsp), %rdx
	movq	%rax, 8(%rdi)
	movq	8(%rcx), %rax
	movq	%rax, 16(%rdi)
	testq	%rax, %rax
	je	.L603
	cmpq	$0, _ZL28__gthrw___pthread_key_createPjPFvPvE@GOTPCREL(%rip)
	je	.L604
	lock addl	$1, 8(%rax)
.L603:
	movq	16(%rcx), %rax
	movq	%rax, 24(%rbx)
	movq	24(%rcx), %rax
	movq	%rax, 32(%rbx)
	testq	%rax, %rax
	je	.L605
	cmpq	$0, _ZL28__gthrw___pthread_key_createPjPFvPvE@GOTPCREL(%rip)
	je	.L606
	lock addl	$1, 8(%rax)
.L605:
	movq	(%r12), %rax
	movq	%rax, 40(%rbx)
	movq	8(%r12), %rax
	movq	%rax, 48(%rbx)
	testq	%rax, %rax
	je	.L607
	cmpq	$0, _ZL28__gthrw___pthread_key_createPjPFvPvE@GOTPCREL(%rip)
	je	.L608
	lock addl	$1, 8(%rax)
.L607:
	movq	(%r9), %rax
	movq	%rax, 56(%rbx)
	movq	8(%r9), %rax
	movq	%rax, 64(%rbx)
	testq	%rax, %rax
	je	.L609
	cmpq	$0, _ZL28__gthrw___pthread_key_createPjPFvPvE@GOTPCREL(%rip)
	je	.L610
	lock addl	$1, 8(%rax)
.L609:
	movq	(%rsi), %rax
	movq	%rax, 72(%rbx)
	movq	8(%rsi), %rax
	movq	%rax, 80(%rbx)
	testq	%rax, %rax
	je	.L611
	cmpq	$0, _ZL28__gthrw___pthread_key_createPjPFvPvE@GOTPCREL(%rip)
	je	.L612
	lock addl	$1, 8(%rax)
.L611:
	movq	(%rdx), %rax
	movq	%rax, 88(%rbx)
	movq	8(%rdx), %rax
	movq	%rax, 96(%rbx)
	testq	%rax, %rax
	je	.L613
	cmpq	$0, _ZL28__gthrw___pthread_key_createPjPFvPvE@GOTPCREL(%rip)
	je	.L614
	lock addl	$1, 8(%rax)
.L613:
	leaq	104(%rbx), %r14
	leaq	56(%rbp), %rsi
	movq	%r14, %rdi
.LEHB5:
	call	_ZN8opendnp311EventBufferC1ERKNS_17EventBufferConfigE@PLT
.LEHE5:
	movzwl	50(%rbp), %r8d
	movzbl	0(%rbp), %ecx
	movq	%r14, %rdx
	movq	%r13, %rsi
	leaq	360(%rbx), %rdi
.LEHB6:
	call	_ZN8opendnp38DatabaseC1ERKNS_13DatabaseSizesERNS_14IEventReceiverENS_9IndexModeENS_18StaticTypeBitFieldE@PLT
.LEHE6:
	leaq	120(%rbx), %rdx
	leaq	392(%rbx), %rsi
	leaq	640(%rbx), %rdi
.LEHB7:
	call	_ZN8opendnp315ResponseContextC1ERNS_15IResponseLoaderES2_@PLT
	movq	48(%rbp), %rax
	movdqu	0(%rbp), %xmm1
	leaq	722(%rbx), %rdi
	movl	$7, %esi
	movdqu	16(%rbp), %xmm2
	movdqu	32(%rbp), %xmm3
	movl	$0, 720(%rbx)
	movq	%rax, 712(%rbx)
	movups	%xmm1, 664(%rbx)
	movups	%xmm2, 680(%rbx)
	movups	%xmm3, 696(%rbx)
	call	_ZN8opendnp38IINField6SetBitENS_6IINBitE@PLT
	leaq	728(%rbx), %r13
	movq	(%r12), %rsi
	movq	%r13, %rdi
	call	_ZN7openpal8TimerRefC1ERNS_9IExecutorE@PLT
.LEHE7:
	leaq	744(%rbx), %rdi
.LEHB8:
	call	_ZN8opendnp314RequestHistoryC1Ev@PLT
	movl	44(%rbp), %esi
	leaq	760(%rbx), %rdi
	call	_ZN8opendnp315DeferredRequestC1Ej@PLT
.LEHE8:
	movb	$0, 808(%rbx)
	leaq	816(%rbx), %rdi
.LEHB9:
	call	_ZN7openpal18MonotonicTimestampC1Ev@PLT
	xorl	%edx, %edx
	xorl	%ecx, %ecx
	movl	40(%rbp), %r12d
	leaq	840(%rbx), %rdi
	movw	%dx, 824(%rbx)
	movl	$0, 828(%rbx)
	movw	%cx, 832(%rbx)
	call	_ZN7openpal6RSliceC1Ev@PLT
	leaq	856(%rbx), %rdi
	call	_ZN8opendnp315AppControlFieldC1Ev@PLT
	leaq	864(%rbx), %rdi
	movl	%r12d, %esi
	call	_ZN7openpal6BufferC1Ej@PLT
.LEHE9:
	xorl	%eax, %eax
	movl	40(%rbp), %ebp
	movb	$0, 890(%rbx)
	leaq	896(%rbx), %rdi
	movw	%ax, 888(%rbx)
.LEHB10:
	call	_ZN7openpal6RSliceC1Ev@PLT
	leaq	912(%rbx), %rdi
	call	_ZN8opendnp315AppControlFieldC1Ev@PLT
	leaq	920(%rbx), %rdi
	movl	%ebp, %esi
	call	_ZN7openpal6BufferC1Ej@PLT
.LEHE10:
	movq	_ZN8opendnp39StateIdle8instanceE@GOTPCREL(%rip), %rax
	movq	%rax, 944(%rbx)
	popq	%rbx
	.cfi_remember_state
	.cfi_def_cfa_offset 40
	popq	%rbp
	.cfi_def_cfa_offset 32
	popq	%r12
	.cfi_def_cfa_offset 24
	popq	%r13
	.cfi_def_cfa_offset 16
	popq	%r14
	.cfi_def_cfa_offset 8
	ret
	.p2align 4,,10
	.p2align 3
.L612:
	.cfi_restore_state
	addl	$1, 8(%rax)
	jmp	.L611
	.p2align 4,,10
	.p2align 3
.L610:
	addl	$1, 8(%rax)
	jmp	.L609
	.p2align 4,,10
	.p2align 3
.L608:
	addl	$1, 8(%rax)
	jmp	.L607
	.p2align 4,,10
	.p2align 3
.L606:
	addl	$1, 8(%rax)
	jmp	.L605
	.p2align 4,,10
	.p2align 3
.L604:
	addl	$1, 8(%rax)
	jmp	.L603
	.p2align 4,,10
	.p2align 3
.L614:
	addl	$1, 8(%rax)
	jmp	.L613
.L640:
	endbr64
	movq	_ZTVN7openpal5ArrayIhjEE@GOTPCREL(%rip), %r12
	movq	%rax, %rbp
	jmp	.L617
.L639:
	endbr64
	movq	%rax, %rbp
	jmp	.L619
.L641:
	endbr64
	movq	%rax, %rbp
	jmp	.L615
.L636:
	endbr64
	movq	%rax, %rbp
	jmp	.L631
.L638:
	endbr64
	movq	%rax, %rbp
	jmp	.L620
.L637:
	endbr64
	movq	%rax, %rbp
	jmp	.L629
	.section	.gcc_except_table
.LLSDA2908:
	.byte	0xff
	.byte	0xff
	.byte	0x1
	.uleb128 .LLSDACSE2908-.LLSDACSB2908
.LLSDACSB2908:
	.uleb128 .LEHB5-.LFB2908
	.uleb128 .LEHE5-.LEHB5
	.uleb128 .L636-.LFB2908
	.uleb128 0
	.uleb128 .LEHB6-.LFB2908
	.uleb128 .LEHE6-.LEHB6
	.uleb128 .L637-.LFB2908
	.uleb128 0
	.uleb128 .LEHB7-.LFB2908
	.uleb128 .LEHE7-.LEHB7
	.uleb128 .L638-.LFB2908
	.uleb128 0
	.uleb128 .LEHB8-.LFB2908
	.uleb128 .LEHE8-.LEHB8
	.uleb128 .L639-.LFB2908
	.uleb128 0
	.uleb128 .LEHB9-.LFB2908
	.uleb128 .LEHE9-.LEHB9
	.uleb128 .L640-.LFB2908
	.uleb128 0
	.uleb128 .LEHB10-.LFB2908
	.uleb128 .LEHE10-.LEHB10
	.uleb128 .L641-.LFB2908
	.uleb128 0
.LLSDACSE2908:
	.text
	.cfi_endproc
	.section	.text.unlikely
	.cfi_startproc
	.cfi_personality 0x9b,DW.ref.__gxx_personality_v0
	.cfi_lsda 0x1b,.LLSDAC2908
	.type	_ZN8opendnp38OContextC2ERKNS_16OutstationConfigERKNS_13DatabaseSizesERKN7openpal6LoggerERKSt10shared_ptrINS7_9IExecutorEERKSB_INS_11ILowerLayerEERKSB_INS_15ICommandHandlerEERKSB_INS_22IOutstationApplicationEE.cold, @function
_ZN8opendnp38OContextC2ERKNS_16OutstationConfigERKNS_13DatabaseSizesERKN7openpal6LoggerERKSt10shared_ptrINS7_9IExecutorEERKSB_INS_11ILowerLayerEERKSB_INS_15ICommandHandlerEERKSB_INS_22IOutstationApplicationEE.cold:
.LFSB2908:
.L615:
	.cfi_def_cfa_offset 48
	.cfi_offset 3, -48
	.cfi_offset 6, -40
	.cfi_offset 12, -32
	.cfi_offset 13, -24
	.cfi_offset 14, -16
	movq	_ZTVN7openpal5ArrayIhjEE@GOTPCREL(%rip), %r12
	movq	880(%rbx), %rdi
	leaq	16(%r12), %rax
	movq	%rax, 864(%rbx)
	testq	%rdi, %rdi
	je	.L617
	call	_ZdaPv@PLT
.L617:
	movq	800(%rbx), %rdi
	leaq	16(%r12), %rax
	movq	%rax, 784(%rbx)
	testq	%rdi, %rdi
	jne	.L707
.L619:
	movq	%r13, %rdi
	call	_ZN7openpal8TimerRefD1Ev@PLT
.L620:
	movq	_ZTVN8opendnp38DatabaseE@GOTPCREL(%rip), %rax
	movq	592(%rbx), %rdi
	addq	$16, %rax
	movq	%rax, 360(%rbx)
	movq	_ZTVN8opendnp315DatabaseBuffersE@GOTPCREL(%rip), %rax
	leaq	88(%rax), %rdx
	leaq	16(%rax), %rcx
	addq	$120, %rax
	movq	%rax, 400(%rbx)
	movq	%rcx, %xmm0
	movq	%rdx, %xmm4
	movq	_ZTVN7openpal5ArrayIN8opendnp34CellINS1_19TimeAndIntervalSpecEEEtEE@GOTPCREL(%rip), %rax
	punpcklqdq	%xmm4, %xmm0
	addq	$16, %rax
	movups	%xmm0, 384(%rbx)
	movq	%rax, 576(%rbx)
	testq	%rdi, %rdi
	je	.L621
	call	_ZdaPv@PLT
.L621:
	movq	_ZTVN7openpal5ArrayIN8opendnp34CellINS1_22AnalogOutputStatusSpecEEEtEE@GOTPCREL(%rip), %rax
	movq	568(%rbx), %rdi
	addq	$16, %rax
	movq	%rax, 552(%rbx)
	testq	%rdi, %rdi
	je	.L622
	call	_ZdaPv@PLT
.L622:
	movq	_ZTVN7openpal5ArrayIN8opendnp34CellINS1_22BinaryOutputStatusSpecEEEtEE@GOTPCREL(%rip), %rax
	movq	544(%rbx), %rdi
	addq	$16, %rax
	movq	%rax, 528(%rbx)
	testq	%rdi, %rdi
	je	.L623
	call	_ZdaPv@PLT
.L623:
	movq	_ZTVN7openpal5ArrayIN8opendnp34CellINS1_17FrozenCounterSpecEEEtEE@GOTPCREL(%rip), %rax
	movq	520(%rbx), %rdi
	addq	$16, %rax
	movq	%rax, 504(%rbx)
	testq	%rdi, %rdi
	je	.L624
	call	_ZdaPv@PLT
.L624:
	movq	_ZTVN7openpal5ArrayIN8opendnp34CellINS1_11CounterSpecEEEtEE@GOTPCREL(%rip), %rax
	movq	496(%rbx), %rdi
	addq	$16, %rax
	movq	%rax, 480(%rbx)
	testq	%rdi, %rdi
	je	.L625
	call	_ZdaPv@PLT
.L625:
	movq	_ZTVN7openpal5ArrayIN8opendnp34CellINS1_10AnalogSpecEEEtEE@GOTPCREL(%rip), %rax
	movq	472(%rbx), %rdi
	addq	$16, %rax
	movq	%rax, 456(%rbx)
	testq	%rdi, %rdi
	je	.L626
	call	_ZdaPv@PLT
.L626:
	movq	_ZTVN7openpal5ArrayIN8opendnp34CellINS1_19DoubleBitBinarySpecEEEtEE@GOTPCREL(%rip), %rax
	movq	448(%rbx), %rdi
	addq	$16, %rax
	movq	%rax, 432(%rbx)
	testq	%rdi, %rdi
	je	.L627
	call	_ZdaPv@PLT
.L627:
	movq	_ZTVN7openpal5ArrayIN8opendnp34CellINS1_10BinarySpecEEEtEE@GOTPCREL(%rip), %rax
	movq	424(%rbx), %rdi
	addq	$16, %rax
	movq	%rax, 408(%rbx)
	testq	%rdi, %rdi
	je	.L629
	call	_ZdaPv@PLT
.L629:
	movq	_ZTVN8opendnp311EventBufferE@GOTPCREL(%rip), %rax
	movq	208(%rbx), %rdi
	leaq	160(%rax), %rdx
	leaq	16(%rax), %rcx
	movq	%rdx, %xmm5
	movq	%rcx, %xmm0
	leaq	224(%rax), %rdx
	addq	$192, %rax
	punpcklqdq	%xmm5, %xmm0
	movq	%rdx, %xmm6
	movups	%xmm0, 104(%rbx)
	movq	%rax, %xmm0
	movq	_ZTVN7openpal5ArrayINS_8ListNodeIN8opendnp39SOERecordEEEjEE@GOTPCREL(%rip), %rax
	punpcklqdq	%xmm6, %xmm0
	addq	$16, %rax
	movups	%xmm0, 120(%rbx)
	movq	%rax, 192(%rbx)
	testq	%rdi, %rdi
	je	.L631
	call	_ZdaPv@PLT
.L631:
	movq	96(%rbx), %rdi
	testq	%rdi, %rdi
	je	.L632
	call	_ZNSt16_Sp_counted_baseILN9__gnu_cxx12_Lock_policyE2EE10_M_releaseEv@PLT
.L632:
	movq	80(%rbx), %rdi
	testq	%rdi, %rdi
	je	.L633
	call	_ZNSt16_Sp_counted_baseILN9__gnu_cxx12_Lock_policyE2EE10_M_releaseEv@PLT
.L633:
	movq	64(%rbx), %rdi
	testq	%rdi, %rdi
	je	.L634
	call	_ZNSt16_Sp_counted_baseILN9__gnu_cxx12_Lock_policyE2EE10_M_releaseEv@PLT
.L634:
	movq	48(%rbx), %rdi
	testq	%rdi, %rdi
	je	.L635
	call	_ZNSt16_Sp_counted_baseILN9__gnu_cxx12_Lock_policyE2EE10_M_releaseEv@PLT
.L635:
	leaq	8(%rbx), %rdi
	call	_ZN7openpal6LoggerD1Ev@PLT
	movq	%rbp, %rdi
.LEHB11:
	call	_Unwind_Resume@PLT
.LEHE11:
.L707:
	call	_ZdaPv@PLT
	jmp	.L619
	.cfi_endproc
.LFE2908:
	.section	.gcc_except_table
.LLSDAC2908:
	.byte	0xff
	.byte	0xff
	.byte	0x1
	.uleb128 .LLSDACSEC2908-.LLSDACSBC2908
.LLSDACSBC2908:
	.uleb128 .LEHB11-.LCOLDB8
	.uleb128 .LEHE11-.LEHB11
	.uleb128 0
	.uleb128 0
.LLSDACSEC2908:
	.section	.text.unlikely
	.text
	.size	_ZN8opendnp38OContextC2ERKNS_16OutstationConfigERKNS_13DatabaseSizesERKN7openpal6LoggerERKSt10shared_ptrINS7_9IExecutorEERKSB_INS_11ILowerLayerEERKSB_INS_15ICommandHandlerEERKSB_INS_22IOutstationApplicationEE, .-_ZN8opendnp38OContextC2ERKNS_16OutstationConfigERKNS_13DatabaseSizesERKN7openpal6LoggerERKSt10shared_ptrINS7_9IExecutorEERKSB_INS_11ILowerLayerEERKSB_INS_15ICommandHandlerEERKSB_INS_22IOutstationApplicationEE
	.section	.text.unlikely
	.size	_ZN8opendnp38OContextC2ERKNS_16OutstationConfigERKNS_13DatabaseSizesERKN7openpal6LoggerERKSt10shared_ptrINS7_9IExecutorEERKSB_INS_11ILowerLayerEERKSB_INS_15ICommandHandlerEERKSB_INS_22IOutstationApplicationEE.cold, .-_ZN8opendnp38OContextC2ERKNS_16OutstationConfigERKNS_13DatabaseSizesERKN7openpal6LoggerERKSt10shared_ptrINS7_9IExecutorEERKSB_INS_11ILowerLayerEERKSB_INS_15ICommandHandlerEERKSB_INS_22IOutstationApplicationEE.cold
.LCOLDE8:
	.text
.LHOTE8:
	.globl	_ZN8opendnp38OContextC1ERKNS_16OutstationConfigERKNS_13DatabaseSizesERKN7openpal6LoggerERKSt10shared_ptrINS7_9IExecutorEERKSB_INS_11ILowerLayerEERKSB_INS_15ICommandHandlerEERKSB_INS_22IOutstationApplicationEE
	.set	_ZN8opendnp38OContextC1ERKNS_16OutstationConfigERKNS_13DatabaseSizesERKN7openpal6LoggerERKSt10shared_ptrINS7_9IExecutorEERKSB_INS_11ILowerLayerEERKSB_INS_15ICommandHandlerEERKSB_INS_22IOutstationApplicationEE,_ZN8opendnp38OContextC2ERKNS_16OutstationConfigERKNS_13DatabaseSizesERKN7openpal6LoggerERKSt10shared_ptrINS7_9IExecutorEERKSB_INS_11ILowerLayerEERKSB_INS_15ICommandHandlerEERKSB_INS_22IOutstationApplicationEE
	.section	.text.startup,"ax",@progbits
	.p2align 4
	.type	_GLOBAL__sub_I_OutstationContext.cpp, @function
_GLOBAL__sub_I_OutstationContext.cpp:
.LFB3892:
	.cfi_startproc
	endbr64
	subq	$8, %rsp
	.cfi_def_cfa_offset 16
	movl	$5000, %edi
	call	_ZN7openpal12TimeDuration12MillisecondsEl@PLT
	movq	_ZGVN7openpal7Bit16LEItE3MaxE@GOTPCREL(%rip), %rax
	cmpb	$0, (%rax)
	je	.L711
.L708:
	addq	$8, %rsp
	.cfi_remember_state
	.cfi_def_cfa_offset 8
	ret
.L711:
	.cfi_restore_state
	movb	$1, (%rax)
	call	_ZN7openpal8MaxValueItEET_v@PLT
	movq	_ZN7openpal7Bit16LEItE3MaxE@GOTPCREL(%rip), %rdx
	movw	%ax, (%rdx)
	jmp	.L708
	.cfi_endproc
.LFE3892:
	.size	_GLOBAL__sub_I_OutstationContext.cpp, .-_GLOBAL__sub_I_OutstationContext.cpp
	.section	.init_array,"aw"
	.align 8
	.quad	_GLOBAL__sub_I_OutstationContext.cpp
	.section	.rodata.str1.8
	.align 8
.LC9:
	.string	"Igonring command request due to oversized payload size of %u"
	.align 8
.LC10:
	.string	"/home/kimchaer/Desktop/OpenPLC_v3/utils/dnp3_src/cpp/libs/src/opendnp3/outstation/OutstationContext.cpp(556)"
	.section	.text.unlikely
	.align 2
.LCOLDB11:
	.text
.LHOTB11:
	.align 2
	.p2align 4
	.globl	_ZN8opendnp38OContext19HandleDirectOperateERKN7openpal6RSliceENS_11OperateTypeEPNS_12HeaderWriterE
	.type	_ZN8opendnp38OContext19HandleDirectOperateERKN7openpal6RSliceENS_11OperateTypeEPNS_12HeaderWriterE, @function
_ZN8opendnp38OContext19HandleDirectOperateERKN7openpal6RSliceENS_11OperateTypeEPNS_12HeaderWriterE:
.LFB2943:
	.cfi_startproc
	.cfi_personality 0x9b,DW.ref.__gxx_personality_v0
	.cfi_lsda 0x1b,.LLSDA2943
	endbr64
	pushq	%r14
	.cfi_def_cfa_offset 16
	.cfi_offset 14, -16
	pushq	%r13
	.cfi_def_cfa_offset 24
	.cfi_offset 13, -24
	movl	%edx, %r13d
	pushq	%r12
	.cfi_def_cfa_offset 32
	.cfi_offset 12, -32
	movq	%rcx, %r12
	pushq	%rbp
	.cfi_def_cfa_offset 40
	.cfi_offset 6, -40
	movq	%rsi, %rbp
	pushq	%rbx
	.cfi_def_cfa_offset 48
	.cfi_offset 3, -48
	movq	%rdi, %rbx
	subq	$224, %rsp
	.cfi_def_cfa_offset 272
	movq	%fs:40, %rax
	movq	%rax, 216(%rsp)
	xorl	%eax, %eax
	testq	%rcx, %rcx
	je	.L713
	movl	(%rsi), %r14d
	movq	%rcx, %rdi
.LEHB12:
	call	_ZNK8opendnp312HeaderWriter9RemainingEv@PLT
	cmpl	%r14d, %eax
	jb	.L730
.L713:
	movq	72(%rbx), %rsi
	movq	%rsp, %r14
	movl	%r13d, %ecx
	xorl	%edx, %edx
	movq	%r14, %rdi
	leaq	32(%rsp), %r13
	call	_ZN8opendnp320CommandActionAdapterC1EPNS_15ICommandHandlerEbNS_11OperateTypeE@PLT
.LEHE12:
	movq	%r12, %rcx
	movq	%r14, %rdx
	movq	%r13, %rdi
	movzbl	665(%rbx), %esi
.LEHB13:
	call	_ZN8opendnp322CommandResponseHandlerC1EhPNS_14ICommandActionEPNS_12HeaderWriterE@PLT
	leaq	8(%rbx), %rdx
	movq	%r13, %rsi
	movq	%rbp, %rdi
	movabsq	$35184372088833, %rcx
	call	_ZN8opendnp310APDUParser5ParseERKN7openpal6RSliceERNS_12IAPDUHandlerEPNS1_6LoggerENS_14ParserSettingsE@PLT
	movl	%eax, %edi
	testb	%al, %al
	je	.L731
	call	_ZN8opendnp318IINFromParseResultENS_11ParseResultE@PLT
.L729:
	movq	%r14, %rdi
	movl	%eax, %r12d
	call	_ZN8opendnp320CommandActionAdapterD1Ev@PLT
.L717:
	movq	216(%rsp), %rax
	xorq	%fs:40, %rax
	jne	.L732
	addq	$224, %rsp
	.cfi_remember_state
	.cfi_def_cfa_offset 48
	movl	%r12d, %eax
	popq	%rbx
	.cfi_def_cfa_offset 40
	popq	%rbp
	.cfi_def_cfa_offset 32
	popq	%r12
	.cfi_def_cfa_offset 24
	popq	%r13
	.cfi_def_cfa_offset 16
	popq	%r14
	.cfi_def_cfa_offset 8
	ret
	.p2align 4,,10
	.p2align 3
.L731:
	.cfi_restore_state
	movq	%r13, %rdi
	call	_ZNK8opendnp312IAPDUHandler6ErrorsEv@PLT
.LEHE13:
	jmp	.L729
	.p2align 4,,10
	.p2align 3
.L730:
	leaq	8(%rbx), %r12
	leaq	32(%rsp), %r13
	movl	$4, 32(%rsp)
	movq	%r13, %rsi
	movq	%r12, %rdi
.LEHB14:
	call	_ZNK7openpal6Logger9IsEnabledERKNS_10LogFiltersE@PLT
	testb	%al, %al
	jne	.L733
.L715:
	xorl	%eax, %eax
	movl	$10, %esi
	movq	%r13, %rdi
	movw	%ax, 32(%rsp)
	call	_ZN8opendnp38IINField6SetBitENS_6IINBitE@PLT
	movzwl	32(%rsp), %r12d
	jmp	.L717
	.p2align 4,,10
	.p2align 3
.L733:
	leaq	96(%rsp), %r14
	movl	0(%rbp), %r9d
	movl	$120, %ecx
	xorl	%eax, %eax
	movq	%r14, %rdi
	movl	$1, %edx
	movl	$120, %esi
	leaq	.LC9(%rip), %r8
	call	__snprintf_chk@PLT
	movq	%r14, %rcx
	movq	%r13, %rsi
	movq	%r12, %rdi
	leaq	.LC10(%rip), %rdx
	movl	$4, 32(%rsp)
	call	_ZN7openpal6Logger3LogERKNS_10LogFiltersEPKcS5_@PLT
.LEHE14:
	jmp	.L715
.L732:
	call	__stack_chk_fail@PLT
.L722:
	endbr64
	movq	%rax, %rbp
	jmp	.L720
	.section	.gcc_except_table
.LLSDA2943:
	.byte	0xff
	.byte	0xff
	.byte	0x1
	.uleb128 .LLSDACSE2943-.LLSDACSB2943
.LLSDACSB2943:
	.uleb128 .LEHB12-.LFB2943
	.uleb128 .LEHE12-.LEHB12
	.uleb128 0
	.uleb128 0
	.uleb128 .LEHB13-.LFB2943
	.uleb128 .LEHE13-.LEHB13
	.uleb128 .L722-.LFB2943
	.uleb128 0
	.uleb128 .LEHB14-.LFB2943
	.uleb128 .LEHE14-.LEHB14
	.uleb128 0
	.uleb128 0
.LLSDACSE2943:
	.text
	.cfi_endproc
	.section	.text.unlikely
	.cfi_startproc
	.cfi_personality 0x9b,DW.ref.__gxx_personality_v0
	.cfi_lsda 0x1b,.LLSDAC2943
	.type	_ZN8opendnp38OContext19HandleDirectOperateERKN7openpal6RSliceENS_11OperateTypeEPNS_12HeaderWriterE.cold, @function
_ZN8opendnp38OContext19HandleDirectOperateERKN7openpal6RSliceENS_11OperateTypeEPNS_12HeaderWriterE.cold:
.LFSB2943:
.L720:
	.cfi_def_cfa_offset 272
	.cfi_offset 3, -48
	.cfi_offset 6, -40
	.cfi_offset 12, -32
	.cfi_offset 13, -24
	.cfi_offset 14, -16
	movq	%r14, %rdi
	call	_ZN8opendnp320CommandActionAdapterD1Ev@PLT
	movq	%rbp, %rdi
.LEHB15:
	call	_Unwind_Resume@PLT
.LEHE15:
	.cfi_endproc
.LFE2943:
	.section	.gcc_except_table
.LLSDAC2943:
	.byte	0xff
	.byte	0xff
	.byte	0x1
	.uleb128 .LLSDACSEC2943-.LLSDACSBC2943
.LLSDACSBC2943:
	.uleb128 .LEHB15-.LCOLDB11
	.uleb128 .LEHE15-.LEHB15
	.uleb128 0
	.uleb128 0
.LLSDACSEC2943:
	.section	.text.unlikely
	.text
	.size	_ZN8opendnp38OContext19HandleDirectOperateERKN7openpal6RSliceENS_11OperateTypeEPNS_12HeaderWriterE, .-_ZN8opendnp38OContext19HandleDirectOperateERKN7openpal6RSliceENS_11OperateTypeEPNS_12HeaderWriterE
	.section	.text.unlikely
	.size	_ZN8opendnp38OContext19HandleDirectOperateERKN7openpal6RSliceENS_11OperateTypeEPNS_12HeaderWriterE.cold, .-_ZN8opendnp38OContext19HandleDirectOperateERKN7openpal6RSliceENS_11OperateTypeEPNS_12HeaderWriterE.cold
.LCOLDE11:
	.text
.LHOTE11:
	.section	.rodata.str1.1
.LC12:
	.string	"Ignoring NR function code: %s"
	.section	.rodata.str1.8
	.align 8
.LC13:
	.string	"/home/kimchaer/Desktop/OpenPLC_v3/utils/dnp3_src/cpp/libs/src/opendnp3/outstation/OutstationContext.cpp(490)"
	.text
	.align 2
	.p2align 4
	.globl	_ZN8opendnp38OContext19ProcessRequestNoAckERKNS_10APDUHeaderERKN7openpal6RSliceE
	.type	_ZN8opendnp38OContext19ProcessRequestNoAckERKNS_10APDUHeaderERKN7openpal6RSliceE, @function
_ZN8opendnp38OContext19ProcessRequestNoAckERKNS_10APDUHeaderERKN7openpal6RSliceE:
.LFB2939:
	.cfi_startproc
	endbr64
	pushq	%r13
	.cfi_def_cfa_offset 16
	.cfi_offset 13, -16
	pushq	%r12
	.cfi_def_cfa_offset 24
	.cfi_offset 12, -24
	pushq	%rbp
	.cfi_def_cfa_offset 32
	.cfi_offset 6, -32
	pushq	%rbx
	.cfi_def_cfa_offset 40
	.cfi_offset 3, -40
	movq	%rsi, %rbx
	subq	$152, %rsp
	.cfi_def_cfa_offset 192
	movq	%fs:40, %rax
	movq	%rax, 136(%rsp)
	xorl	%eax, %eax
	cmpb	$6, (%rsi)
	je	.L742
	leaq	8(%rdi), %rbp
	leaq	12(%rsp), %r12
	movl	$4, 12(%rsp)
	movq	%r12, %rsi
	movq	%rbp, %rdi
	call	_ZNK7openpal6Logger9IsEnabledERKNS_10LogFiltersE@PLT
	testb	%al, %al
	jne	.L743
.L734:
	movq	136(%rsp), %rax
	xorq	%fs:40, %rax
	jne	.L744
	addq	$152, %rsp
	.cfi_remember_state
	.cfi_def_cfa_offset 40
	popq	%rbx
	.cfi_def_cfa_offset 32
	popq	%rbp
	.cfi_def_cfa_offset 24
	popq	%r12
	.cfi_def_cfa_offset 16
	popq	%r13
	.cfi_def_cfa_offset 8
	ret
	.p2align 4,,10
	.p2align 3
.L743:
	.cfi_restore_state
	movzbl	(%rbx), %edi
	leaq	16(%rsp), %r13
	call	_ZN8opendnp320FunctionCodeToStringENS_12FunctionCodeE@PLT
	movq	%r13, %rdi
	movl	$120, %ecx
	leaq	.LC12(%rip), %r8
	movq	%rax, %r9
	movl	$1, %edx
	movl	$120, %esi
	xorl	%eax, %eax
	call	__snprintf_chk@PLT
	movq	%r13, %rcx
	movq	%r12, %rsi
	movq	%rbp, %rdi
	leaq	.LC13(%rip), %rdx
	movl	$4, 12(%rsp)
	call	_ZN7openpal6Logger3LogERKNS_10LogFiltersEPKcS5_@PLT
	jmp	.L734
	.p2align 4,,10
	.p2align 3
.L742:
	movq	%rdx, %rsi
	xorl	%ecx, %ecx
	movl	$2, %edx
	call	_ZN8opendnp38OContext19HandleDirectOperateERKN7openpal6RSliceENS_11OperateTypeEPNS_12HeaderWriterE@PLT
	jmp	.L734
.L744:
	call	__stack_chk_fail@PLT
	.cfi_endproc
.LFE2939:
	.size	_ZN8opendnp38OContext19ProcessRequestNoAckERKNS_10APDUHeaderERKN7openpal6RSliceE, .-_ZN8opendnp38OContext19ProcessRequestNoAckERKNS_10APDUHeaderERKN7openpal6RSliceE
	.align 2
	.p2align 4
	.globl	_ZN8opendnp38OContext11ProcessAPDUERKN7openpal6RSliceERKNS_10APDUHeaderES4_
	.type	_ZN8opendnp38OContext11ProcessAPDUERKN7openpal6RSliceERKNS_10APDUHeaderES4_, @function
_ZN8opendnp38OContext11ProcessAPDUERKN7openpal6RSliceERKNS_10APDUHeaderES4_:
.LFB2916:
	.cfi_startproc
	endbr64
	pushq	%r13
	.cfi_def_cfa_offset 16
	.cfi_offset 13, -16
	movq	%rcx, %r13
	pushq	%r12
	.cfi_def_cfa_offset 24
	.cfi_offset 12, -24
	movq	%rdi, %r12
	pushq	%rbp
	.cfi_def_cfa_offset 32
	.cfi_offset 6, -32
	movzbl	(%rdx), %edi
	movq	%rdx, %rbp
	call	_ZN8opendnp39Functions15IsNoAckFuncCodeENS_12FunctionCodeE@PLT
	testb	%al, %al
	jne	.L750
	cmpb	$0, 721(%r12)
	jne	.L751
	cmpb	$0, 0(%rbp)
	jne	.L748
	movq	%rbp, %rsi
	movq	%r12, %rdi
	popq	%rbp
	.cfi_remember_state
	.cfi_def_cfa_offset 24
	popq	%r12
	.cfi_def_cfa_offset 16
	popq	%r13
	.cfi_def_cfa_offset 8
	jmp	_ZN8opendnp38OContext14ProcessConfirmERKNS_10APDUHeaderE@PLT
	.p2align 4,,10
	.p2align 3
.L751:
	.cfi_restore_state
	movzbl	1(%rbp), %esi
	movzbl	0(%rbp), %eax
	leaq	760(%r12), %rdi
	movl	0(%r13), %edx
	movq	8(%r13), %rcx
	salq	$8, %rsi
	orq	%rax, %rsi
	movzbl	2(%rbp), %eax
	salq	$16, %rax
	orq	%rax, %rsi
	movzbl	3(%rbp), %eax
	salq	$24, %rax
	orq	%rsi, %rax
	movzbl	4(%rbp), %esi
	salq	$32, %rsi
	orq	%rsi, %rax
	movzbl	5(%rbp), %esi
	popq	%rbp
	.cfi_remember_state
	.cfi_def_cfa_offset 24
	popq	%r12
	.cfi_def_cfa_offset 16
	popq	%r13
	.cfi_def_cfa_offset 8
	salq	$40, %rsi
	orq	%rax, %rsi
	jmp	_ZN8opendnp315DeferredRequest3SetENS_10APDUHeaderEN7openpal6RSliceE@PLT
	.p2align 4,,10
	.p2align 3
.L750:
	.cfi_restore_state
	movq	%r13, %rdx
	movq	%rbp, %rsi
	movq	%r12, %rdi
	popq	%rbp
	.cfi_remember_state
	.cfi_def_cfa_offset 24
	popq	%r12
	.cfi_def_cfa_offset 16
	popq	%r13
	.cfi_def_cfa_offset 8
	jmp	_ZN8opendnp38OContext19ProcessRequestNoAckERKNS_10APDUHeaderERKN7openpal6RSliceE@PLT
	.p2align 4,,10
	.p2align 3
.L748:
	.cfi_restore_state
	movq	%r13, %rdx
	movq	%rbp, %rsi
	movq	%r12, %rdi
	popq	%rbp
	.cfi_def_cfa_offset 24
	popq	%r12
	.cfi_def_cfa_offset 16
	popq	%r13
	.cfi_def_cfa_offset 8
	jmp	_ZN8opendnp38OContext14ProcessRequestERKNS_10APDUHeaderERKN7openpal6RSliceE@PLT
	.cfi_endproc
.LFE2916:
	.size	_ZN8opendnp38OContext11ProcessAPDUERKN7openpal6RSliceERKNS_10APDUHeaderES4_, .-_ZN8opendnp38OContext11ProcessAPDUERKN7openpal6RSliceERKNS_10APDUHeaderES4_
	.section	.rodata.str1.8
	.align 8
.LC14:
	.string	"FIR: %i FIN: %i CON: %i UNS: %i SEQ: %i FUNC: %s"
	.align 8
.LC15:
	.string	"/home/kimchaer/Desktop/OpenPLC_v3/utils/dnp3_src/cpp/libs/src/opendnp3/outstation/OutstationContext.cpp(437)"
	.align 8
.LC16:
	.string	"Ignoring fragment. Request must be FIR/FIN/!CON"
	.align 8
.LC17:
	.string	"/home/kimchaer/Desktop/OpenPLC_v3/utils/dnp3_src/cpp/libs/src/opendnp3/outstation/OutstationContext.cpp(449)"
	.text
	.align 2
	.p2align 4
	.globl	_ZN8opendnp38OContext11ParseHeaderERKN7openpal6RSliceE
	.type	_ZN8opendnp38OContext11ParseHeaderERKN7openpal6RSliceE, @function
_ZN8opendnp38OContext11ParseHeaderERKN7openpal6RSliceE:
.LFB2934:
	.cfi_startproc
	endbr64
	pushq	%r15
	.cfi_def_cfa_offset 16
	.cfi_offset 15, -16
	pushq	%r14
	.cfi_def_cfa_offset 24
	.cfi_offset 14, -24
	pushq	%r13
	.cfi_def_cfa_offset 32
	.cfi_offset 13, -32
	movq	%rdi, %r13
	pushq	%r12
	.cfi_def_cfa_offset 40
	.cfi_offset 12, -40
	movq	%rsi, %r12
	pushq	%rbp
	.cfi_def_cfa_offset 48
	.cfi_offset 6, -48
	leaq	8(%rdi), %rbp
	pushq	%rbx
	.cfi_def_cfa_offset 56
	.cfi_offset 3, -56
	movq	%rbp, %rdi
	subq	$168, %rsp
	.cfi_def_cfa_offset 224
	movq	%fs:40, %rax
	movq	%rax, 152(%rsp)
	xorl	%eax, %eax
	leaq	16(%rsp), %r14
	movl	$32768, 16(%rsp)
	movq	%r14, %rsi
	call	_ZNK7openpal6Logger9IsEnabledERKNS_10LogFiltersE@PLT
	testb	%al, %al
	jne	.L771
.L753:
	leaq	11(%rsp), %rdi
	xorl	%r9d, %r9d
	xorl	%r8d, %r8d
	xorl	%ecx, %ecx
	movl	$1, %edx
	movl	$1, %esi
	leaq	10(%rsp), %r15
	movb	$-1, 10(%rsp)
	call	_ZN8opendnp315AppControlFieldC1Ebbbbh@PLT
	movq	%rbp, %rdx
	movq	%r15, %rsi
	movq	%r12, %rdi
	call	_ZN8opendnp316APDUHeaderParser12ParseRequestERKN7openpal6RSliceERNS_10APDUHeaderEPNS1_6LoggerE@PLT
	testb	%al, %al
	jne	.L772
.L752:
	movq	152(%rsp), %rax
	xorq	%fs:40, %rax
	jne	.L773
	addq	$168, %rsp
	.cfi_remember_state
	.cfi_def_cfa_offset 56
	popq	%rbx
	.cfi_def_cfa_offset 48
	popq	%rbp
	.cfi_def_cfa_offset 40
	popq	%r12
	.cfi_def_cfa_offset 32
	popq	%r13
	.cfi_def_cfa_offset 24
	popq	%r14
	.cfi_def_cfa_offset 16
	popq	%r15
	.cfi_def_cfa_offset 8
	ret
	.p2align 4,,10
	.p2align 3
.L772:
	.cfi_restore_state
	movq	%r14, %rsi
	movq	%rbp, %rdi
	movl	$2048, 16(%rsp)
	call	_ZNK7openpal6Logger9IsEnabledERKNS_10LogFiltersE@PLT
	testb	%al, %al
	jne	.L774
.L756:
	cmpb	$0, 11(%rsp)
	je	.L757
	cmpb	$0, 12(%rsp)
	je	.L757
	cmpb	$0, 13(%rsp)
	jne	.L757
	movq	%r12, %rdi
	movl	$2, %esi
	call	_ZNK7openpal6RSlice4SkipEj@PLT
	movq	%r14, %rcx
	movq	%r12, %rsi
	movq	%r13, %rdi
	movq	%rdx, 24(%rsp)
	movq	%r15, %rdx
	movl	%eax, 16(%rsp)
	call	_ZN8opendnp38OContext11ProcessAPDUERKN7openpal6RSliceERKNS_10APDUHeaderES4_@PLT
	jmp	.L752
	.p2align 4,,10
	.p2align 3
.L757:
	movq	%r14, %rsi
	movq	%rbp, %rdi
	movl	$4, 16(%rsp)
	call	_ZNK7openpal6Logger9IsEnabledERKNS_10LogFiltersE@PLT
	testb	%al, %al
	je	.L752
	leaq	.LC16(%rip), %rcx
	leaq	.LC17(%rip), %rdx
	movq	%r14, %rsi
	movq	%rbp, %rdi
	movl	$4, 16(%rsp)
	call	_ZN7openpal6Logger3LogERKNS_10LogFiltersEPKcS5_@PLT
	jmp	.L752
	.p2align 4,,10
	.p2align 3
.L771:
	movl	$18, %r8d
	movq	%r12, %rdx
	movq	%r14, %rsi
	movq	%rbp, %rdi
	movl	$18, %ecx
	movl	$32768, 16(%rsp)
	call	_ZN7openpal6LogHexERNS_6LoggerERKNS_10LogFiltersERKNS_6RSliceEjj@PLT
	jmp	.L753
	.p2align 4,,10
	.p2align 3
.L774:
	movzbl	10(%rsp), %edi
	leaq	32(%rsp), %rbx
	call	_ZN8opendnp320FunctionCodeToStringENS_12FunctionCodeE@PLT
	subq	$8, %rsp
	.cfi_def_cfa_offset 232
	movq	%rbx, %rdi
	leaq	.LC14(%rip), %r8
	pushq	%rax
	.cfi_def_cfa_offset 240
	movzbl	31(%rsp), %eax
	movl	$120, %ecx
	movl	$1, %edx
	movl	$120, %esi
	pushq	%rax
	.cfi_def_cfa_offset 248
	movzbl	38(%rsp), %eax
	pushq	%rax
	.cfi_def_cfa_offset 256
	movzbl	45(%rsp), %eax
	pushq	%rax
	.cfi_def_cfa_offset 264
	movzbl	52(%rsp), %eax
	pushq	%rax
	.cfi_def_cfa_offset 272
	movzbl	59(%rsp), %r9d
	xorl	%eax, %eax
	call	__snprintf_chk@PLT
	movq	%rbx, %rcx
	movq	%r14, %rsi
	movq	%rbp, %rdi
	movl	$2048, 64(%rsp)
	leaq	.LC15(%rip), %rdx
	addq	$48, %rsp
	.cfi_def_cfa_offset 224
	call	_ZN7openpal6Logger3LogERKNS_10LogFiltersEPKcS5_@PLT
	jmp	.L756
.L773:
	call	__stack_chk_fail@PLT
	.cfi_endproc
.LFE2934:
	.size	_ZN8opendnp38OContext11ParseHeaderERKN7openpal6RSliceE, .-_ZN8opendnp38OContext11ParseHeaderERKN7openpal6RSliceE
	.section	.rodata.str1.8
	.align 8
.LC18:
	.string	"ignoring received data while offline"
	.align 8
.LC19:
	.string	"/home/kimchaer/Desktop/OpenPLC_v3/utils/dnp3_src/cpp/libs/src/opendnp3/outstation/OutstationContext.cpp(132)"
	.text
	.align 2
	.p2align 4
	.globl	_ZN8opendnp38OContext9OnReceiveERKN7openpal6RSliceE
	.type	_ZN8opendnp38OContext9OnReceiveERKN7openpal6RSliceE, @function
_ZN8opendnp38OContext9OnReceiveERKN7openpal6RSliceE:
.LFB2913:
	.cfi_startproc
	endbr64
	pushq	%r13
	.cfi_def_cfa_offset 16
	.cfi_offset 13, -16
	pushq	%r12
	.cfi_def_cfa_offset 24
	.cfi_offset 12, -24
	pushq	%rbp
	.cfi_def_cfa_offset 32
	.cfi_offset 6, -32
	movq	%rdi, %rbp
	subq	$16, %rsp
	.cfi_def_cfa_offset 48
	movzbl	720(%rdi), %r12d
	movq	%fs:40, %rax
	movq	%rax, 8(%rsp)
	xorl	%eax, %eax
	testb	%r12b, %r12b
	je	.L783
	call	_ZN8opendnp38OContext11ParseHeaderERKN7openpal6RSliceE@PLT
	movq	%rbp, %rdi
	call	_ZN8opendnp38OContext17CheckForTaskStartEv@PLT
.L775:
	movq	8(%rsp), %rax
	xorq	%fs:40, %rax
	jne	.L784
	addq	$16, %rsp
	.cfi_remember_state
	.cfi_def_cfa_offset 32
	movl	%r12d, %eax
	popq	%rbp
	.cfi_def_cfa_offset 24
	popq	%r12
	.cfi_def_cfa_offset 16
	popq	%r13
	.cfi_def_cfa_offset 8
	ret
	.p2align 4,,10
	.p2align 3
.L783:
	.cfi_restore_state
	addq	$8, %rbp
	leaq	4(%rsp), %r13
	movl	$2, 4(%rsp)
	movq	%r13, %rsi
	movq	%rbp, %rdi
	call	_ZNK7openpal6Logger9IsEnabledERKNS_10LogFiltersE@PLT
	testb	%al, %al
	je	.L775
	leaq	.LC18(%rip), %rcx
	leaq	.LC19(%rip), %rdx
	movq	%r13, %rsi
	movq	%rbp, %rdi
	movl	$2, 4(%rsp)
	call	_ZN7openpal6Logger3LogERKNS_10LogFiltersEPKcS5_@PLT
	jmp	.L775
.L784:
	call	__stack_chk_fail@PLT
	.cfi_endproc
.LFE2913:
	.size	_ZN8opendnp38OContext9OnReceiveERKN7openpal6RSliceE, .-_ZN8opendnp38OContext9OnReceiveERKN7openpal6RSliceE
	.section	.rodata.str1.8
	.align 8
.LC20:
	.string	"Igonring command request due to oversized payload size of %i"
	.align 8
.LC21:
	.string	"/home/kimchaer/Desktop/OpenPLC_v3/utils/dnp3_src/cpp/libs/src/opendnp3/outstation/OutstationContext.cpp(573)"
	.section	.text.unlikely
	.align 2
.LCOLDB22:
	.text
.LHOTB22:
	.align 2
	.p2align 4
	.globl	_ZN8opendnp38OContext12HandleSelectERKN7openpal6RSliceERNS_12HeaderWriterE
	.type	_ZN8opendnp38OContext12HandleSelectERKN7openpal6RSliceERNS_12HeaderWriterE, @function
_ZN8opendnp38OContext12HandleSelectERKN7openpal6RSliceERNS_12HeaderWriterE:
.LFB2944:
	.cfi_startproc
	.cfi_personality 0x9b,DW.ref.__gxx_personality_v0
	.cfi_lsda 0x1b,.LLSDA2944
	endbr64
	pushq	%r14
	.cfi_def_cfa_offset 16
	.cfi_offset 14, -16
	pushq	%r13
	.cfi_def_cfa_offset 24
	.cfi_offset 13, -24
	pushq	%r12
	.cfi_def_cfa_offset 32
	.cfi_offset 12, -32
	movq	%rdx, %r12
	pushq	%rbp
	.cfi_def_cfa_offset 40
	.cfi_offset 6, -40
	movq	%rsi, %rbp
	pushq	%rbx
	.cfi_def_cfa_offset 48
	.cfi_offset 3, -48
	movq	%rdi, %rbx
	movq	%rdx, %rdi
	subq	$224, %rsp
	.cfi_def_cfa_offset 272
	movl	(%rsi), %r13d
	movq	%fs:40, %rax
	movq	%rax, 216(%rsp)
	xorl	%eax, %eax
.LEHB16:
	call	_ZNK8opendnp312HeaderWriter9RemainingEv@PLT
	cmpl	%r13d, %eax
	jnb	.L786
	leaq	8(%rbx), %r12
	leaq	32(%rsp), %r13
	movl	$4, 32(%rsp)
	movq	%r13, %rsi
	movq	%r12, %rdi
	call	_ZNK7openpal6Logger9IsEnabledERKNS_10LogFiltersE@PLT
	testb	%al, %al
	jne	.L801
.L787:
	xorl	%eax, %eax
	movl	$10, %esi
	movq	%r13, %rdi
	movw	%ax, 32(%rsp)
	call	_ZN8opendnp38IINField6SetBitENS_6IINBitE@PLT
	movzwl	32(%rsp), %r12d
.L788:
	movq	216(%rsp), %rax
	xorq	%fs:40, %rax
	jne	.L802
	addq	$224, %rsp
	.cfi_remember_state
	.cfi_def_cfa_offset 48
	movl	%r12d, %eax
	popq	%rbx
	.cfi_def_cfa_offset 40
	popq	%rbp
	.cfi_def_cfa_offset 32
	popq	%r12
	.cfi_def_cfa_offset 24
	popq	%r13
	.cfi_def_cfa_offset 16
	popq	%r14
	.cfi_def_cfa_offset 8
	ret
	.p2align 4,,10
	.p2align 3
.L786:
	.cfi_restore_state
	movq	72(%rbx), %rsi
	movq	%rsp, %r14
	movl	$1, %ecx
	movl	$1, %edx
	movq	%r14, %rdi
	leaq	32(%rsp), %r13
	call	_ZN8opendnp320CommandActionAdapterC1EPNS_15ICommandHandlerEbNS_11OperateTypeE@PLT
.LEHE16:
	movq	%r12, %rcx
	movq	%r14, %rdx
	movq	%r13, %rdi
	movzbl	665(%rbx), %esi
.LEHB17:
	call	_ZN8opendnp322CommandResponseHandlerC1EhPNS_14ICommandActionEPNS_12HeaderWriterE@PLT
	leaq	8(%rbx), %rdx
	movq	%r13, %rsi
	movq	%rbp, %rdi
	movabsq	$35184372088833, %rcx
	call	_ZN8opendnp310APDUParser5ParseERKN7openpal6RSliceERNS_12IAPDUHandlerEPNS1_6LoggerENS_14ParserSettingsE@PLT
	testb	%al, %al
	jne	.L789
	movl	68(%rsp), %eax
	cmpl	%eax, 64(%rsp)
	jne	.L790
	movq	40(%rbx), %rdi
	movq	(%rdi), %rax
	call	*16(%rax)
	movq	%rax, 816(%rbx)
	movzbl	832(%rbx), %eax
	movq	%rbp, %rdi
	addl	$1, %eax
	andl	$15, %eax
	movb	%al, 808(%rbx)
	call	_ZN8opendnp33CRC7CalcCrcERKN7openpal6RSliceE@PLT
	movw	%ax, 824(%rbx)
	movl	0(%rbp), %eax
	movl	%eax, 828(%rbx)
.L790:
	movq	%r13, %rdi
	call	_ZNK8opendnp312IAPDUHandler6ErrorsEv@PLT
.L800:
	movq	%r14, %rdi
	movl	%eax, %r12d
	call	_ZN8opendnp320CommandActionAdapterD1Ev@PLT
	jmp	.L788
	.p2align 4,,10
	.p2align 3
.L789:
	movl	%eax, %edi
	call	_ZN8opendnp318IINFromParseResultENS_11ParseResultE@PLT
.LEHE17:
	jmp	.L800
	.p2align 4,,10
	.p2align 3
.L801:
	leaq	96(%rsp), %r14
	movl	0(%rbp), %r9d
	movl	$120, %ecx
	xorl	%eax, %eax
	movq	%r14, %rdi
	movl	$1, %edx
	movl	$120, %esi
	leaq	.LC20(%rip), %r8
	call	__snprintf_chk@PLT
	movq	%r14, %rcx
	movq	%r13, %rsi
	movq	%r12, %rdi
	leaq	.LC21(%rip), %rdx
	movl	$4, 32(%rsp)
.LEHB18:
	call	_ZN7openpal6Logger3LogERKNS_10LogFiltersEPKcS5_@PLT
.LEHE18:
	jmp	.L787
.L802:
	call	__stack_chk_fail@PLT
.L794:
	endbr64
	movq	%rax, %rbp
	jmp	.L792
	.section	.gcc_except_table
.LLSDA2944:
	.byte	0xff
	.byte	0xff
	.byte	0x1
	.uleb128 .LLSDACSE2944-.LLSDACSB2944
.LLSDACSB2944:
	.uleb128 .LEHB16-.LFB2944
	.uleb128 .LEHE16-.LEHB16
	.uleb128 0
	.uleb128 0
	.uleb128 .LEHB17-.LFB2944
	.uleb128 .LEHE17-.LEHB17
	.uleb128 .L794-.LFB2944
	.uleb128 0
	.uleb128 .LEHB18-.LFB2944
	.uleb128 .LEHE18-.LEHB18
	.uleb128 0
	.uleb128 0
.LLSDACSE2944:
	.text
	.cfi_endproc
	.section	.text.unlikely
	.cfi_startproc
	.cfi_personality 0x9b,DW.ref.__gxx_personality_v0
	.cfi_lsda 0x1b,.LLSDAC2944
	.type	_ZN8opendnp38OContext12HandleSelectERKN7openpal6RSliceERNS_12HeaderWriterE.cold, @function
_ZN8opendnp38OContext12HandleSelectERKN7openpal6RSliceERNS_12HeaderWriterE.cold:
.LFSB2944:
.L792:
	.cfi_def_cfa_offset 272
	.cfi_offset 3, -48
	.cfi_offset 6, -40
	.cfi_offset 12, -32
	.cfi_offset 13, -24
	.cfi_offset 14, -16
	movq	%r14, %rdi
	call	_ZN8opendnp320CommandActionAdapterD1Ev@PLT
	movq	%rbp, %rdi
.LEHB19:
	call	_Unwind_Resume@PLT
.LEHE19:
	.cfi_endproc
.LFE2944:
	.section	.gcc_except_table
.LLSDAC2944:
	.byte	0xff
	.byte	0xff
	.byte	0x1
	.uleb128 .LLSDACSEC2944-.LLSDACSBC2944
.LLSDACSBC2944:
	.uleb128 .LEHB19-.LCOLDB22
	.uleb128 .LEHE19-.LEHB19
	.uleb128 0
	.uleb128 0
.LLSDACSEC2944:
	.section	.text.unlikely
	.text
	.size	_ZN8opendnp38OContext12HandleSelectERKN7openpal6RSliceERNS_12HeaderWriterE, .-_ZN8opendnp38OContext12HandleSelectERKN7openpal6RSliceERNS_12HeaderWriterE
	.section	.text.unlikely
	.size	_ZN8opendnp38OContext12HandleSelectERKN7openpal6RSliceERNS_12HeaderWriterE.cold, .-_ZN8opendnp38OContext12HandleSelectERKN7openpal6RSliceERNS_12HeaderWriterE.cold
.LCOLDE22:
	.text
.LHOTE22:
	.section	.rodata.str1.8
	.align 8
.LC23:
	.string	"/home/kimchaer/Desktop/OpenPLC_v3/utils/dnp3_src/cpp/libs/src/opendnp3/outstation/OutstationContext.cpp(603)"
	.section	.text.unlikely
	.align 2
.LCOLDB24:
	.text
.LHOTB24:
	.align 2
	.p2align 4
	.globl	_ZN8opendnp38OContext13HandleOperateERKN7openpal6RSliceERNS_12HeaderWriterE
	.type	_ZN8opendnp38OContext13HandleOperateERKN7openpal6RSliceERNS_12HeaderWriterE, @function
_ZN8opendnp38OContext13HandleOperateERKN7openpal6RSliceERNS_12HeaderWriterE:
.LFB2945:
	.cfi_startproc
	.cfi_personality 0x9b,DW.ref.__gxx_personality_v0
	.cfi_lsda 0x1b,.LLSDA2945
	endbr64
	pushq	%r15
	.cfi_def_cfa_offset 16
	.cfi_offset 15, -16
	pushq	%r14
	.cfi_def_cfa_offset 24
	.cfi_offset 14, -24
	pushq	%r13
	.cfi_def_cfa_offset 32
	.cfi_offset 13, -32
	movq	%rdx, %r13
	pushq	%r12
	.cfi_def_cfa_offset 40
	.cfi_offset 12, -40
	movq	%rsi, %r12
	pushq	%rbp
	.cfi_def_cfa_offset 48
	.cfi_offset 6, -48
	movq	%rdi, %rbp
	movq	%rdx, %rdi
	subq	$240, %rsp
	.cfi_def_cfa_offset 288
	movl	(%rsi), %r14d
	movq	%fs:40, %rax
	movq	%rax, 232(%rsp)
	xorl	%eax, %eax
.LEHB20:
	call	_ZNK8opendnp312HeaderWriter9RemainingEv@PLT
	cmpl	%r14d, %eax
	jb	.L822
	movq	40(%rbp), %rdi
	movq	(%rdi), %rax
	call	*16(%rax)
	movzbl	808(%rbp), %ecx
	cmpb	%cl, 832(%rbp)
	jne	.L807
	movq	816(%rbp), %rdx
	cmpq	%rax, %rdx
	jg	.L815
	subq	%rdx, %rax
	cmpq	672(%rbp), %rax
	jge	.L815
	movl	(%r12), %eax
	cmpl	%eax, 828(%rbp)
	jne	.L807
	movzwl	824(%rbp), %r14d
	movq	%r12, %rdi
	call	_ZN8opendnp33CRC7CalcCrcERKN7openpal6RSliceE@PLT
	cmpw	%ax, %r14w
	je	.L823
	.p2align 4,,10
	.p2align 3
.L807:
	movl	$2, %ecx
.L808:
	movq	%r13, %rdx
	movq	%r12, %rsi
	movq	%rbp, %rdi
	call	_ZN8opendnp38OContext25HandleCommandWithConstantERKN7openpal6RSliceERNS_12HeaderWriterENS_13CommandStatusE@PLT
.L806:
	movq	232(%rsp), %rcx
	xorq	%fs:40, %rcx
	jne	.L824
	addq	$240, %rsp
	.cfi_remember_state
	.cfi_def_cfa_offset 48
	popq	%rbp
	.cfi_def_cfa_offset 40
	popq	%r12
	.cfi_def_cfa_offset 32
	popq	%r13
	.cfi_def_cfa_offset 24
	popq	%r14
	.cfi_def_cfa_offset 16
	popq	%r15
	.cfi_def_cfa_offset 8
	ret
	.p2align 4,,10
	.p2align 3
.L815:
	.cfi_restore_state
	movl	$1, %ecx
	jmp	.L808
	.p2align 4,,10
	.p2align 3
.L822:
	addq	$8, %rbp
	leaq	48(%rsp), %r15
	movl	$4, 48(%rsp)
	movq	%r15, %rsi
	movq	%rbp, %rdi
	call	_ZNK7openpal6Logger9IsEnabledERKNS_10LogFiltersE@PLT
	testb	%al, %al
	jne	.L825
.L805:
	xorl	%eax, %eax
	movl	$10, %esi
	movq	%r15, %rdi
	movw	%ax, 48(%rsp)
	call	_ZN8opendnp38IINField6SetBitENS_6IINBitE@PLT
	movzwl	48(%rsp), %eax
	jmp	.L806
	.p2align 4,,10
	.p2align 3
.L823:
	movq	72(%rbp), %rsi
	leaq	16(%rsp), %r14
	xorl	%ecx, %ecx
	xorl	%edx, %edx
	movq	%r14, %rdi
	leaq	48(%rsp), %r15
	call	_ZN8opendnp320CommandActionAdapterC1EPNS_15ICommandHandlerEbNS_11OperateTypeE@PLT
.LEHE20:
	movq	%r13, %rcx
	movq	%r14, %rdx
	movq	%r15, %rdi
	movzbl	665(%rbp), %esi
.LEHB21:
	call	_ZN8opendnp322CommandResponseHandlerC1EhPNS_14ICommandActionEPNS_12HeaderWriterE@PLT
	leaq	8(%rbp), %rdx
	movq	%r15, %rsi
	movq	%r12, %rdi
	movabsq	$35184372088833, %rcx
	call	_ZN8opendnp310APDUParser5ParseERKN7openpal6RSliceERNS_12IAPDUHandlerEPNS1_6LoggerENS_14ParserSettingsE@PLT
	movl	%eax, %edi
	testb	%al, %al
	je	.L826
	call	_ZN8opendnp318IINFromParseResultENS_11ParseResultE@PLT
.LEHE21:
.L811:
	movq	%r14, %rdi
	movl	%eax, 12(%rsp)
	call	_ZN8opendnp320CommandActionAdapterD1Ev@PLT
	movl	12(%rsp), %eax
	jmp	.L806
	.p2align 4,,10
	.p2align 3
.L825:
	leaq	112(%rsp), %r13
	movl	(%r12), %r9d
	movl	$120, %ecx
	xorl	%eax, %eax
	movq	%r13, %rdi
	movl	$1, %edx
	movl	$120, %esi
	leaq	.LC20(%rip), %r8
	call	__snprintf_chk@PLT
	movq	%r13, %rcx
	movq	%r15, %rsi
	movq	%rbp, %rdi
	leaq	.LC23(%rip), %rdx
	movl	$4, 48(%rsp)
.LEHB22:
	call	_ZN7openpal6Logger3LogERKNS_10LogFiltersEPKcS5_@PLT
.LEHE22:
	jmp	.L805
	.p2align 4,,10
	.p2align 3
.L826:
	movq	%r15, %rdi
.LEHB23:
	call	_ZNK8opendnp312IAPDUHandler6ErrorsEv@PLT
.LEHE23:
	jmp	.L811
.L824:
	call	__stack_chk_fail@PLT
.L816:
	endbr64
	movq	%rax, %rbp
	jmp	.L812
	.section	.gcc_except_table
.LLSDA2945:
	.byte	0xff
	.byte	0xff
	.byte	0x1
	.uleb128 .LLSDACSE2945-.LLSDACSB2945
.LLSDACSB2945:
	.uleb128 .LEHB20-.LFB2945
	.uleb128 .LEHE20-.LEHB20
	.uleb128 0
	.uleb128 0
	.uleb128 .LEHB21-.LFB2945
	.uleb128 .LEHE21-.LEHB21
	.uleb128 .L816-.LFB2945
	.uleb128 0
	.uleb128 .LEHB22-.LFB2945
	.uleb128 .LEHE22-.LEHB22
	.uleb128 0
	.uleb128 0
	.uleb128 .LEHB23-.LFB2945
	.uleb128 .LEHE23-.LEHB23
	.uleb128 .L816-.LFB2945
	.uleb128 0
.LLSDACSE2945:
	.text
	.cfi_endproc
	.section	.text.unlikely
	.cfi_startproc
	.cfi_personality 0x9b,DW.ref.__gxx_personality_v0
	.cfi_lsda 0x1b,.LLSDAC2945
	.type	_ZN8opendnp38OContext13HandleOperateERKN7openpal6RSliceERNS_12HeaderWriterE.cold, @function
_ZN8opendnp38OContext13HandleOperateERKN7openpal6RSliceERNS_12HeaderWriterE.cold:
.LFSB2945:
.L812:
	.cfi_def_cfa_offset 288
	.cfi_offset 6, -48
	.cfi_offset 12, -40
	.cfi_offset 13, -32
	.cfi_offset 14, -24
	.cfi_offset 15, -16
	movq	%r14, %rdi
	call	_ZN8opendnp320CommandActionAdapterD1Ev@PLT
	movq	%rbp, %rdi
.LEHB24:
	call	_Unwind_Resume@PLT
.LEHE24:
	.cfi_endproc
.LFE2945:
	.section	.gcc_except_table
.LLSDAC2945:
	.byte	0xff
	.byte	0xff
	.byte	0x1
	.uleb128 .LLSDACSEC2945-.LLSDACSBC2945
.LLSDACSBC2945:
	.uleb128 .LEHB24-.LCOLDB24
	.uleb128 .LEHE24-.LEHB24
	.uleb128 0
	.uleb128 0
.LLSDACSEC2945:
	.section	.text.unlikely
	.text
	.size	_ZN8opendnp38OContext13HandleOperateERKN7openpal6RSliceERNS_12HeaderWriterE, .-_ZN8opendnp38OContext13HandleOperateERKN7openpal6RSliceERNS_12HeaderWriterE
	.section	.text.unlikely
	.size	_ZN8opendnp38OContext13HandleOperateERKN7openpal6RSliceERNS_12HeaderWriterE.cold, .-_ZN8opendnp38OContext13HandleOperateERKN7openpal6RSliceERNS_12HeaderWriterE.cold
.LCOLDE24:
	.text
.LHOTE24:
	.align 2
	.p2align 4
	.globl	_ZN8opendnp38OContext21HandleNonReadResponseERKNS_10APDUHeaderERKN7openpal6RSliceERNS_12HeaderWriterE
	.type	_ZN8opendnp38OContext21HandleNonReadResponseERKNS_10APDUHeaderERKN7openpal6RSliceERNS_12HeaderWriterE, @function
_ZN8opendnp38OContext21HandleNonReadResponseERKNS_10APDUHeaderERKN7openpal6RSliceERNS_12HeaderWriterE:
.LFB2940:
	.cfi_startproc
	endbr64
	subq	$24, %rsp
	.cfi_def_cfa_offset 32
	movq	%fs:40, %rax
	movq	%rax, 8(%rsp)
	xorl	%eax, %eax
	cmpb	$23, (%rsi)
	ja	.L828
	movzbl	(%rsi), %eax
	movq	%rdx, %r8
	leaq	.L830(%rip), %rdx
	movslq	(%rdx,%rax,4), %rax
	addq	%rdx, %rax
	notrack jmp	*%rax
	.section	.rodata
	.align 4
	.align 4
.L830:
	.long	.L828-.L830
	.long	.L828-.L830
	.long	.L839-.L830
	.long	.L838-.L830
	.long	.L837-.L830
	.long	.L836-.L830
	.long	.L828-.L830
	.long	.L828-.L830
	.long	.L828-.L830
	.long	.L828-.L830
	.long	.L828-.L830
	.long	.L828-.L830
	.long	.L828-.L830
	.long	.L835-.L830
	.long	.L834-.L830
	.long	.L828-.L830
	.long	.L828-.L830
	.long	.L828-.L830
	.long	.L828-.L830
	.long	.L828-.L830
	.long	.L833-.L830
	.long	.L832-.L830
	.long	.L831-.L830
	.long	.L829-.L830
	.text
	.p2align 4,,10
	.p2align 3
.L828:
	xorl	%eax, %eax
	leaq	4(%rsp), %rdi
	movl	$8, %esi
	movw	%ax, 4(%rsp)
	call	_ZN8opendnp38IINField6SetBitENS_6IINBitE@PLT
	movzwl	4(%rsp), %eax
	movw	%ax, 6(%rsp)
	.p2align 4,,10
	.p2align 3
.L840:
	movq	8(%rsp), %rcx
	xorq	%fs:40, %rcx
	jne	.L845
	addq	$24, %rsp
	.cfi_remember_state
	.cfi_def_cfa_offset 8
	ret
	.p2align 4,,10
	.p2align 3
.L839:
	.cfi_restore_state
	movq	%r8, %rsi
	call	_ZN8opendnp38OContext11HandleWriteERKN7openpal6RSliceE@PLT
	movw	%ax, 6(%rsp)
	jmp	.L840
	.p2align 4,,10
	.p2align 3
.L838:
	movq	%rcx, %rdx
	movq	%r8, %rsi
	call	_ZN8opendnp38OContext12HandleSelectERKN7openpal6RSliceERNS_12HeaderWriterE@PLT
	movw	%ax, 6(%rsp)
	jmp	.L840
	.p2align 4,,10
	.p2align 3
.L837:
	movq	%rcx, %rdx
	movq	%r8, %rsi
	call	_ZN8opendnp38OContext13HandleOperateERKN7openpal6RSliceERNS_12HeaderWriterE@PLT
	movw	%ax, 6(%rsp)
	jmp	.L840
	.p2align 4,,10
	.p2align 3
.L836:
	movl	$1, %edx
	movq	%r8, %rsi
	call	_ZN8opendnp38OContext19HandleDirectOperateERKN7openpal6RSliceENS_11OperateTypeEPNS_12HeaderWriterE@PLT
	movw	%ax, 6(%rsp)
	jmp	.L840
	.p2align 4,,10
	.p2align 3
.L835:
	xorl	%edx, %edx
	movq	%r8, %rsi
	call	_ZN8opendnp38OContext13HandleRestartERKN7openpal6RSliceEbPNS_12HeaderWriterE@PLT
	movw	%ax, 6(%rsp)
	jmp	.L840
	.p2align 4,,10
	.p2align 3
.L834:
	movl	$1, %edx
	movq	%r8, %rsi
	call	_ZN8opendnp38OContext13HandleRestartERKN7openpal6RSliceEbPNS_12HeaderWriterE@PLT
	movw	%ax, 6(%rsp)
	jmp	.L840
	.p2align 4,,10
	.p2align 3
.L833:
	cmpb	$0, 712(%rdi)
	je	.L842
	movq	%rcx, %rdx
	movq	%r8, %rsi
	call	_ZN8opendnp38OContext23HandleEnableUnsolicitedERKN7openpal6RSliceERNS_12HeaderWriterE@PLT
	movw	%ax, 6(%rsp)
	jmp	.L840
	.p2align 4,,10
	.p2align 3
.L832:
	cmpb	$0, 712(%rdi)
	jne	.L846
.L842:
	xorl	%edx, %edx
	leaq	6(%rsp), %rdi
	movl	$8, %esi
	movw	%dx, 6(%rsp)
	call	_ZN8opendnp38IINField6SetBitENS_6IINBitE@PLT
	movzwl	6(%rsp), %eax
	jmp	.L840
	.p2align 4,,10
	.p2align 3
.L831:
	movq	%r8, %rsi
	call	_ZN8opendnp38OContext17HandleAssignClassERKN7openpal6RSliceE@PLT
	movw	%ax, 6(%rsp)
	jmp	.L840
	.p2align 4,,10
	.p2align 3
.L829:
	movq	%rcx, %rdx
	movq	%r8, %rsi
	call	_ZN8opendnp38OContext18HandleDelayMeasureERKN7openpal6RSliceERNS_12HeaderWriterE@PLT
	movw	%ax, 6(%rsp)
	jmp	.L840
	.p2align 4,,10
	.p2align 3
.L846:
	movq	%rcx, %rdx
	movq	%r8, %rsi
	call	_ZN8opendnp38OContext24HandleDisableUnsolicitedERKN7openpal6RSliceERNS_12HeaderWriterE@PLT
	movw	%ax, 6(%rsp)
	jmp	.L840
.L845:
	call	__stack_chk_fail@PLT
	.cfi_endproc
.LFE2940:
	.size	_ZN8opendnp38OContext21HandleNonReadResponseERKNS_10APDUHeaderERKN7openpal6RSliceERNS_12HeaderWriterE, .-_ZN8opendnp38OContext21HandleNonReadResponseERKNS_10APDUHeaderERKN7openpal6RSliceERNS_12HeaderWriterE
	.align 2
	.p2align 4
	.globl	_ZN8opendnp38OContext23RespondToNonReadRequestERKNS_10APDUHeaderERKN7openpal6RSliceE
	.type	_ZN8opendnp38OContext23RespondToNonReadRequestERKNS_10APDUHeaderERKN7openpal6RSliceE, @function
_ZN8opendnp38OContext23RespondToNonReadRequestERKNS_10APDUHeaderERKN7openpal6RSliceE:
.LFB2928:
	.cfi_startproc
	endbr64
	pushq	%r15
	.cfi_def_cfa_offset 16
	.cfi_offset 15, -16
	movq	%rdx, %r15
	pushq	%r14
	.cfi_def_cfa_offset 24
	.cfi_offset 14, -24
	movq	%rsi, %r14
	pushq	%r13
	.cfi_def_cfa_offset 32
	.cfi_offset 13, -32
	pushq	%r12
	.cfi_def_cfa_offset 40
	.cfi_offset 12, -40
	pushq	%rbp
	.cfi_def_cfa_offset 48
	.cfi_offset 6, -48
	movq	%rdi, %rbp
	addq	$744, %rdi
	pushq	%rbx
	.cfi_def_cfa_offset 56
	.cfi_offset 3, -56
	subq	$120, %rsp
	.cfi_def_cfa_offset 176
	movq	%fs:40, %rax
	movq	%rax, 104(%rsp)
	xorl	%eax, %eax
	leaq	64(%rsp), %r12
	leaq	32(%rsp), %rbx
	call	_ZN8opendnp314RequestHistory26RecordLastProcessedRequestERKNS_10APDUHeaderERKN7openpal6RSliceE@PLT
	leaq	864(%rbp), %rdi
	leaq	16(%rsp), %r13
	call	_ZN7openpal6Buffer9GetWSliceEv@PLT
	movq	%rbx, %rsi
	movq	%r12, %rdi
	movq	%rdx, 40(%rsp)
	movl	%eax, 32(%rsp)
	call	_ZN8opendnp312APDUResponseC1ERKN7openpal6WSliceE@PLT
	movq	%rbx, %rdi
	movq	%r12, %rsi
	call	_ZN8opendnp311APDUWrapper9GetWriterEv@PLT
	movl	$-127, %esi
	movq	%r12, %rdi
	call	_ZN8opendnp311APDUWrapper11SetFunctionENS_12FunctionCodeE@PLT
	movzbl	5(%r14), %r9d
	xorl	%r8d, %r8d
	xorl	%ecx, %ecx
	movl	$1, %edx
	movl	$1, %esi
	movq	%r13, %rdi
	call	_ZN8opendnp315AppControlFieldC1Ebbbbh@PLT
	movq	16(%rsp), %rsi
	movq	%r12, %rdi
	call	_ZN8opendnp311APDUWrapper10SetControlENS_15AppControlFieldE@PLT
	movq	%rbx, %rcx
	movq	%r15, %rdx
	movq	%r14, %rsi
	movq	%rbp, %rdi
	call	_ZN8opendnp38OContext21HandleNonReadResponseERKNS_10APDUHeaderERKN7openpal6RSliceERNS_12HeaderWriterE@PLT
	movq	%rbp, %rdi
	movl	%eax, %ebx
	call	_ZN8opendnp38OContext14GetResponseIINEv@PLT
	movq	%r13, %rsi
	movq	%r12, %rdi
	orl	%eax, %ebx
	movw	%bx, 16(%rsp)
	call	_ZN8opendnp312APDUResponse6SetIINERKNS_8IINFieldE@PLT
	movq	%r12, %rdi
	call	_ZNK8opendnp311APDUWrapper8ToRSliceEv@PLT
	movq	%r12, %rdi
	movq	%rdx, 24(%rsp)
	movl	%eax, 16(%rsp)
	call	_ZNK8opendnp311APDUWrapper10GetControlEv@PLT
	leaq	11(%rsp), %rsi
	movq	%rbp, %rdi
	movzbl	%ah, %edx
	movb	%al, 11(%rsp)
	movb	%dl, 12(%rsp)
	movq	%rax, %rdx
	shrq	$16, %rdx
	movb	%dl, 13(%rsp)
	movq	%rax, %rdx
	shrq	$32, %rax
	shrq	$24, %rdx
	movb	%al, 15(%rsp)
	movb	%dl, 14(%rsp)
	movq	%r13, %rdx
	call	_ZN8opendnp38OContext15BeginResponseTxERKNS_15AppControlFieldERKN7openpal6RSliceE@PLT
	movq	104(%rsp), %rax
	xorq	%fs:40, %rax
	jne	.L850
	addq	$120, %rsp
	.cfi_remember_state
	.cfi_def_cfa_offset 56
	popq	%rbx
	.cfi_def_cfa_offset 48
	popq	%rbp
	.cfi_def_cfa_offset 40
	popq	%r12
	.cfi_def_cfa_offset 32
	popq	%r13
	.cfi_def_cfa_offset 24
	popq	%r14
	.cfi_def_cfa_offset 16
	popq	%r15
	.cfi_def_cfa_offset 8
	ret
.L850:
	.cfi_restore_state
	call	__stack_chk_fail@PLT
	.cfi_endproc
.LFE2928:
	.size	_ZN8opendnp38OContext23RespondToNonReadRequestERKNS_10APDUHeaderERKN7openpal6RSliceE, .-_ZN8opendnp38OContext23RespondToNonReadRequestERKNS_10APDUHeaderERKN7openpal6RSliceE
	.weak	_ZTSN7openpal7HasSizeItEE
	.section	.rodata._ZTSN7openpal7HasSizeItEE,"aG",@progbits,_ZTSN7openpal7HasSizeItEE,comdat
	.align 16
	.type	_ZTSN7openpal7HasSizeItEE, @object
	.size	_ZTSN7openpal7HasSizeItEE, 22
_ZTSN7openpal7HasSizeItEE:
	.string	"N7openpal7HasSizeItEE"
	.weak	_ZTIN7openpal7HasSizeItEE
	.section	.data.rel.ro._ZTIN7openpal7HasSizeItEE,"awG",@progbits,_ZTIN7openpal7HasSizeItEE,comdat
	.align 8
	.type	_ZTIN7openpal7HasSizeItEE, @object
	.size	_ZTIN7openpal7HasSizeItEE, 16
_ZTIN7openpal7HasSizeItEE:
	.quad	_ZTVN10__cxxabiv117__class_type_infoE+16
	.quad	_ZTSN7openpal7HasSizeItEE
	.weak	_ZTSN7openpal7HasSizeIjEE
	.section	.rodata._ZTSN7openpal7HasSizeIjEE,"aG",@progbits,_ZTSN7openpal7HasSizeIjEE,comdat
	.align 16
	.type	_ZTSN7openpal7HasSizeIjEE, @object
	.size	_ZTSN7openpal7HasSizeIjEE, 22
_ZTSN7openpal7HasSizeIjEE:
	.string	"N7openpal7HasSizeIjEE"
	.weak	_ZTIN7openpal7HasSizeIjEE
	.section	.data.rel.ro._ZTIN7openpal7HasSizeIjEE,"awG",@progbits,_ZTIN7openpal7HasSizeIjEE,comdat
	.align 8
	.type	_ZTIN7openpal7HasSizeIjEE, @object
	.size	_ZTIN7openpal7HasSizeIjEE, 16
_ZTIN7openpal7HasSizeIjEE:
	.quad	_ZTVN10__cxxabiv117__class_type_infoE+16
	.quad	_ZTSN7openpal7HasSizeIjEE
	.weak	_ZTSN7openpal5ArrayIN8opendnp34CellINS1_10BinarySpecEEEtEE
	.section	.rodata._ZTSN7openpal5ArrayIN8opendnp34CellINS1_10BinarySpecEEEtEE,"aG",@progbits,_ZTSN7openpal5ArrayIN8opendnp34CellINS1_10BinarySpecEEEtEE,comdat
	.align 32
	.type	_ZTSN7openpal5ArrayIN8opendnp34CellINS1_10BinarySpecEEEtEE, @object
	.size	_ZTSN7openpal5ArrayIN8opendnp34CellINS1_10BinarySpecEEEtEE, 55
_ZTSN7openpal5ArrayIN8opendnp34CellINS1_10BinarySpecEEEtEE:
	.string	"N7openpal5ArrayIN8opendnp34CellINS1_10BinarySpecEEEtEE"
	.weak	_ZTSN7openpal5ArrayIN8opendnp34CellINS1_19DoubleBitBinarySpecEEEtEE
	.section	.rodata._ZTSN7openpal5ArrayIN8opendnp34CellINS1_19DoubleBitBinarySpecEEEtEE,"aG",@progbits,_ZTSN7openpal5ArrayIN8opendnp34CellINS1_19DoubleBitBinarySpecEEEtEE,comdat
	.align 32
	.type	_ZTSN7openpal5ArrayIN8opendnp34CellINS1_19DoubleBitBinarySpecEEEtEE, @object
	.size	_ZTSN7openpal5ArrayIN8opendnp34CellINS1_19DoubleBitBinarySpecEEEtEE, 64
_ZTSN7openpal5ArrayIN8opendnp34CellINS1_19DoubleBitBinarySpecEEEtEE:
	.string	"N7openpal5ArrayIN8opendnp34CellINS1_19DoubleBitBinarySpecEEEtEE"
	.weak	_ZTSN7openpal5ArrayIN8opendnp34CellINS1_10AnalogSpecEEEtEE
	.section	.rodata._ZTSN7openpal5ArrayIN8opendnp34CellINS1_10AnalogSpecEEEtEE,"aG",@progbits,_ZTSN7openpal5ArrayIN8opendnp34CellINS1_10AnalogSpecEEEtEE,comdat
	.align 32
	.type	_ZTSN7openpal5ArrayIN8opendnp34CellINS1_10AnalogSpecEEEtEE, @object
	.size	_ZTSN7openpal5ArrayIN8opendnp34CellINS1_10AnalogSpecEEEtEE, 55
_ZTSN7openpal5ArrayIN8opendnp34CellINS1_10AnalogSpecEEEtEE:
	.string	"N7openpal5ArrayIN8opendnp34CellINS1_10AnalogSpecEEEtEE"
	.weak	_ZTSN7openpal5ArrayIN8opendnp34CellINS1_11CounterSpecEEEtEE
	.section	.rodata._ZTSN7openpal5ArrayIN8opendnp34CellINS1_11CounterSpecEEEtEE,"aG",@progbits,_ZTSN7openpal5ArrayIN8opendnp34CellINS1_11CounterSpecEEEtEE,comdat
	.align 32
	.type	_ZTSN7openpal5ArrayIN8opendnp34CellINS1_11CounterSpecEEEtEE, @object
	.size	_ZTSN7openpal5ArrayIN8opendnp34CellINS1_11CounterSpecEEEtEE, 56
_ZTSN7openpal5ArrayIN8opendnp34CellINS1_11CounterSpecEEEtEE:
	.string	"N7openpal5ArrayIN8opendnp34CellINS1_11CounterSpecEEEtEE"
	.weak	_ZTSN7openpal5ArrayIN8opendnp34CellINS1_17FrozenCounterSpecEEEtEE
	.section	.rodata._ZTSN7openpal5ArrayIN8opendnp34CellINS1_17FrozenCounterSpecEEEtEE,"aG",@progbits,_ZTSN7openpal5ArrayIN8opendnp34CellINS1_17FrozenCounterSpecEEEtEE,comdat
	.align 32
	.type	_ZTSN7openpal5ArrayIN8opendnp34CellINS1_17FrozenCounterSpecEEEtEE, @object
	.size	_ZTSN7openpal5ArrayIN8opendnp34CellINS1_17FrozenCounterSpecEEEtEE, 62
_ZTSN7openpal5ArrayIN8opendnp34CellINS1_17FrozenCounterSpecEEEtEE:
	.string	"N7openpal5ArrayIN8opendnp34CellINS1_17FrozenCounterSpecEEEtEE"
	.weak	_ZTSN7openpal5ArrayIN8opendnp34CellINS1_22BinaryOutputStatusSpecEEEtEE
	.section	.rodata._ZTSN7openpal5ArrayIN8opendnp34CellINS1_22BinaryOutputStatusSpecEEEtEE,"aG",@progbits,_ZTSN7openpal5ArrayIN8opendnp34CellINS1_22BinaryOutputStatusSpecEEEtEE,comdat
	.align 32
	.type	_ZTSN7openpal5ArrayIN8opendnp34CellINS1_22BinaryOutputStatusSpecEEEtEE, @object
	.size	_ZTSN7openpal5ArrayIN8opendnp34CellINS1_22BinaryOutputStatusSpecEEEtEE, 67
_ZTSN7openpal5ArrayIN8opendnp34CellINS1_22BinaryOutputStatusSpecEEEtEE:
	.string	"N7openpal5ArrayIN8opendnp34CellINS1_22BinaryOutputStatusSpecEEEtEE"
	.weak	_ZTSN7openpal5ArrayIN8opendnp34CellINS1_22AnalogOutputStatusSpecEEEtEE
	.section	.rodata._ZTSN7openpal5ArrayIN8opendnp34CellINS1_22AnalogOutputStatusSpecEEEtEE,"aG",@progbits,_ZTSN7openpal5ArrayIN8opendnp34CellINS1_22AnalogOutputStatusSpecEEEtEE,comdat
	.align 32
	.type	_ZTSN7openpal5ArrayIN8opendnp34CellINS1_22AnalogOutputStatusSpecEEEtEE, @object
	.size	_ZTSN7openpal5ArrayIN8opendnp34CellINS1_22AnalogOutputStatusSpecEEEtEE, 67
_ZTSN7openpal5ArrayIN8opendnp34CellINS1_22AnalogOutputStatusSpecEEEtEE:
	.string	"N7openpal5ArrayIN8opendnp34CellINS1_22AnalogOutputStatusSpecEEEtEE"
	.weak	_ZTSN7openpal5ArrayIN8opendnp34CellINS1_19TimeAndIntervalSpecEEEtEE
	.section	.rodata._ZTSN7openpal5ArrayIN8opendnp34CellINS1_19TimeAndIntervalSpecEEEtEE,"aG",@progbits,_ZTSN7openpal5ArrayIN8opendnp34CellINS1_19TimeAndIntervalSpecEEEtEE,comdat
	.align 32
	.type	_ZTSN7openpal5ArrayIN8opendnp34CellINS1_19TimeAndIntervalSpecEEEtEE, @object
	.size	_ZTSN7openpal5ArrayIN8opendnp34CellINS1_19TimeAndIntervalSpecEEEtEE, 64
_ZTSN7openpal5ArrayIN8opendnp34CellINS1_19TimeAndIntervalSpecEEEtEE:
	.string	"N7openpal5ArrayIN8opendnp34CellINS1_19TimeAndIntervalSpecEEEtEE"
	.weak	_ZTSN7openpal5ArrayINS_8ListNodeIN8opendnp39SOERecordEEEjEE
	.section	.rodata._ZTSN7openpal5ArrayINS_8ListNodeIN8opendnp39SOERecordEEEjEE,"aG",@progbits,_ZTSN7openpal5ArrayINS_8ListNodeIN8opendnp39SOERecordEEEjEE,comdat
	.align 32
	.type	_ZTSN7openpal5ArrayINS_8ListNodeIN8opendnp39SOERecordEEEjEE, @object
	.size	_ZTSN7openpal5ArrayINS_8ListNodeIN8opendnp39SOERecordEEEjEE, 56
_ZTSN7openpal5ArrayINS_8ListNodeIN8opendnp39SOERecordEEEjEE:
	.string	"N7openpal5ArrayINS_8ListNodeIN8opendnp39SOERecordEEEjEE"
	.weak	_ZGVN7openpal7Bit16LEItE3MaxE
	.section	.bss._ZGVN7openpal7Bit16LEItE3MaxE,"awG",@nobits,_ZGVN7openpal7Bit16LEItE3MaxE,comdat
	.align 8
	.type	_ZGVN7openpal7Bit16LEItE3MaxE, @gnu_unique_object
	.size	_ZGVN7openpal7Bit16LEItE3MaxE, 8
_ZGVN7openpal7Bit16LEItE3MaxE:
	.zero	8
	.weak	_ZN7openpal7Bit16LEItE3MaxE
	.section	.bss._ZN7openpal7Bit16LEItE3MaxE,"awG",@nobits,_ZN7openpal7Bit16LEItE3MaxE,comdat
	.align 2
	.type	_ZN7openpal7Bit16LEItE3MaxE, @gnu_unique_object
	.size	_ZN7openpal7Bit16LEItE3MaxE, 2
_ZN7openpal7Bit16LEItE3MaxE:
	.zero	2
	.weak	_ZTSN8opendnp37IUpDownE
	.section	.rodata._ZTSN8opendnp37IUpDownE,"aG",@progbits,_ZTSN8opendnp37IUpDownE,comdat
	.align 16
	.type	_ZTSN8opendnp37IUpDownE, @object
	.size	_ZTSN8opendnp37IUpDownE, 20
_ZTSN8opendnp37IUpDownE:
	.string	"N8opendnp37IUpDownE"
	.weak	_ZTIN8opendnp37IUpDownE
	.section	.data.rel.ro._ZTIN8opendnp37IUpDownE,"awG",@progbits,_ZTIN8opendnp37IUpDownE,comdat
	.align 8
	.type	_ZTIN8opendnp37IUpDownE, @object
	.size	_ZTIN8opendnp37IUpDownE, 16
_ZTIN8opendnp37IUpDownE:
	.quad	_ZTVN10__cxxabiv117__class_type_infoE+16
	.quad	_ZTSN8opendnp37IUpDownE
	.weak	_ZTSN8opendnp311IUpperLayerE
	.section	.rodata._ZTSN8opendnp311IUpperLayerE,"aG",@progbits,_ZTSN8opendnp311IUpperLayerE,comdat
	.align 16
	.type	_ZTSN8opendnp311IUpperLayerE, @object
	.size	_ZTSN8opendnp311IUpperLayerE, 25
_ZTSN8opendnp311IUpperLayerE:
	.string	"N8opendnp311IUpperLayerE"
	.weak	_ZTIN8opendnp311IUpperLayerE
	.section	.data.rel.ro._ZTIN8opendnp311IUpperLayerE,"awG",@progbits,_ZTIN8opendnp311IUpperLayerE,comdat
	.align 8
	.type	_ZTIN8opendnp311IUpperLayerE, @object
	.size	_ZTIN8opendnp311IUpperLayerE, 24
_ZTIN8opendnp311IUpperLayerE:
	.quad	_ZTVN10__cxxabiv120__si_class_type_infoE+16
	.quad	_ZTSN8opendnp311IUpperLayerE
	.quad	_ZTIN8opendnp37IUpDownE
	.weak	_ZTSN7openpal5ArrayIhjEE
	.section	.rodata._ZTSN7openpal5ArrayIhjEE,"aG",@progbits,_ZTSN7openpal5ArrayIhjEE,comdat
	.align 16
	.type	_ZTSN7openpal5ArrayIhjEE, @object
	.size	_ZTSN7openpal5ArrayIhjEE, 21
_ZTSN7openpal5ArrayIhjEE:
	.string	"N7openpal5ArrayIhjEE"
	.weak	_ZTIN7openpal5ArrayIhjEE
	.section	.data.rel.ro._ZTIN7openpal5ArrayIhjEE,"awG",@progbits,_ZTIN7openpal5ArrayIhjEE,comdat
	.align 8
	.type	_ZTIN7openpal5ArrayIhjEE, @object
	.size	_ZTIN7openpal5ArrayIhjEE, 40
_ZTIN7openpal5ArrayIhjEE:
	.quad	_ZTVN10__cxxabiv121__vmi_class_type_infoE+16
	.quad	_ZTSN7openpal5ArrayIhjEE
	.long	0
	.long	1
	.quad	_ZTIN7openpal7HasSizeIjEE
	.quad	2050
	.weak	_ZTIN7openpal5ArrayIN8opendnp34CellINS1_10BinarySpecEEEtEE
	.section	.data.rel.ro._ZTIN7openpal5ArrayIN8opendnp34CellINS1_10BinarySpecEEEtEE,"awG",@progbits,_ZTIN7openpal5ArrayIN8opendnp34CellINS1_10BinarySpecEEEtEE,comdat
	.align 8
	.type	_ZTIN7openpal5ArrayIN8opendnp34CellINS1_10BinarySpecEEEtEE, @object
	.size	_ZTIN7openpal5ArrayIN8opendnp34CellINS1_10BinarySpecEEEtEE, 40
_ZTIN7openpal5ArrayIN8opendnp34CellINS1_10BinarySpecEEEtEE:
	.quad	_ZTVN10__cxxabiv121__vmi_class_type_infoE+16
	.quad	_ZTSN7openpal5ArrayIN8opendnp34CellINS1_10BinarySpecEEEtEE
	.long	0
	.long	1
	.quad	_ZTIN7openpal7HasSizeItEE
	.quad	2050
	.weak	_ZTIN7openpal5ArrayIN8opendnp34CellINS1_19DoubleBitBinarySpecEEEtEE
	.section	.data.rel.ro._ZTIN7openpal5ArrayIN8opendnp34CellINS1_19DoubleBitBinarySpecEEEtEE,"awG",@progbits,_ZTIN7openpal5ArrayIN8opendnp34CellINS1_19DoubleBitBinarySpecEEEtEE,comdat
	.align 8
	.type	_ZTIN7openpal5ArrayIN8opendnp34CellINS1_19DoubleBitBinarySpecEEEtEE, @object
	.size	_ZTIN7openpal5ArrayIN8opendnp34CellINS1_19DoubleBitBinarySpecEEEtEE, 40
_ZTIN7openpal5ArrayIN8opendnp34CellINS1_19DoubleBitBinarySpecEEEtEE:
	.quad	_ZTVN10__cxxabiv121__vmi_class_type_infoE+16
	.quad	_ZTSN7openpal5ArrayIN8opendnp34CellINS1_19DoubleBitBinarySpecEEEtEE
	.long	0
	.long	1
	.quad	_ZTIN7openpal7HasSizeItEE
	.quad	2050
	.weak	_ZTIN7openpal5ArrayIN8opendnp34CellINS1_10AnalogSpecEEEtEE
	.section	.data.rel.ro._ZTIN7openpal5ArrayIN8opendnp34CellINS1_10AnalogSpecEEEtEE,"awG",@progbits,_ZTIN7openpal5ArrayIN8opendnp34CellINS1_10AnalogSpecEEEtEE,comdat
	.align 8
	.type	_ZTIN7openpal5ArrayIN8opendnp34CellINS1_10AnalogSpecEEEtEE, @object
	.size	_ZTIN7openpal5ArrayIN8opendnp34CellINS1_10AnalogSpecEEEtEE, 40
_ZTIN7openpal5ArrayIN8opendnp34CellINS1_10AnalogSpecEEEtEE:
	.quad	_ZTVN10__cxxabiv121__vmi_class_type_infoE+16
	.quad	_ZTSN7openpal5ArrayIN8opendnp34CellINS1_10AnalogSpecEEEtEE
	.long	0
	.long	1
	.quad	_ZTIN7openpal7HasSizeItEE
	.quad	2050
	.weak	_ZTIN7openpal5ArrayIN8opendnp34CellINS1_11CounterSpecEEEtEE
	.section	.data.rel.ro._ZTIN7openpal5ArrayIN8opendnp34CellINS1_11CounterSpecEEEtEE,"awG",@progbits,_ZTIN7openpal5ArrayIN8opendnp34CellINS1_11CounterSpecEEEtEE,comdat
	.align 8
	.type	_ZTIN7openpal5ArrayIN8opendnp34CellINS1_11CounterSpecEEEtEE, @object
	.size	_ZTIN7openpal5ArrayIN8opendnp34CellINS1_11CounterSpecEEEtEE, 40
_ZTIN7openpal5ArrayIN8opendnp34CellINS1_11CounterSpecEEEtEE:
	.quad	_ZTVN10__cxxabiv121__vmi_class_type_infoE+16
	.quad	_ZTSN7openpal5ArrayIN8opendnp34CellINS1_11CounterSpecEEEtEE
	.long	0
	.long	1
	.quad	_ZTIN7openpal7HasSizeItEE
	.quad	2050
	.weak	_ZTIN7openpal5ArrayIN8opendnp34CellINS1_17FrozenCounterSpecEEEtEE
	.section	.data.rel.ro._ZTIN7openpal5ArrayIN8opendnp34CellINS1_17FrozenCounterSpecEEEtEE,"awG",@progbits,_ZTIN7openpal5ArrayIN8opendnp34CellINS1_17FrozenCounterSpecEEEtEE,comdat
	.align 8
	.type	_ZTIN7openpal5ArrayIN8opendnp34CellINS1_17FrozenCounterSpecEEEtEE, @object
	.size	_ZTIN7openpal5ArrayIN8opendnp34CellINS1_17FrozenCounterSpecEEEtEE, 40
_ZTIN7openpal5ArrayIN8opendnp34CellINS1_17FrozenCounterSpecEEEtEE:
	.quad	_ZTVN10__cxxabiv121__vmi_class_type_infoE+16
	.quad	_ZTSN7openpal5ArrayIN8opendnp34CellINS1_17FrozenCounterSpecEEEtEE
	.long	0
	.long	1
	.quad	_ZTIN7openpal7HasSizeItEE
	.quad	2050
	.weak	_ZTIN7openpal5ArrayIN8opendnp34CellINS1_22BinaryOutputStatusSpecEEEtEE
	.section	.data.rel.ro._ZTIN7openpal5ArrayIN8opendnp34CellINS1_22BinaryOutputStatusSpecEEEtEE,"awG",@progbits,_ZTIN7openpal5ArrayIN8opendnp34CellINS1_22BinaryOutputStatusSpecEEEtEE,comdat
	.align 8
	.type	_ZTIN7openpal5ArrayIN8opendnp34CellINS1_22BinaryOutputStatusSpecEEEtEE, @object
	.size	_ZTIN7openpal5ArrayIN8opendnp34CellINS1_22BinaryOutputStatusSpecEEEtEE, 40
_ZTIN7openpal5ArrayIN8opendnp34CellINS1_22BinaryOutputStatusSpecEEEtEE:
	.quad	_ZTVN10__cxxabiv121__vmi_class_type_infoE+16
	.quad	_ZTSN7openpal5ArrayIN8opendnp34CellINS1_22BinaryOutputStatusSpecEEEtEE
	.long	0
	.long	1
	.quad	_ZTIN7openpal7HasSizeItEE
	.quad	2050
	.weak	_ZTIN7openpal5ArrayIN8opendnp34CellINS1_22AnalogOutputStatusSpecEEEtEE
	.section	.data.rel.ro._ZTIN7openpal5ArrayIN8opendnp34CellINS1_22AnalogOutputStatusSpecEEEtEE,"awG",@progbits,_ZTIN7openpal5ArrayIN8opendnp34CellINS1_22AnalogOutputStatusSpecEEEtEE,comdat
	.align 8
	.type	_ZTIN7openpal5ArrayIN8opendnp34CellINS1_22AnalogOutputStatusSpecEEEtEE, @object
	.size	_ZTIN7openpal5ArrayIN8opendnp34CellINS1_22AnalogOutputStatusSpecEEEtEE, 40
_ZTIN7openpal5ArrayIN8opendnp34CellINS1_22AnalogOutputStatusSpecEEEtEE:
	.quad	_ZTVN10__cxxabiv121__vmi_class_type_infoE+16
	.quad	_ZTSN7openpal5ArrayIN8opendnp34CellINS1_22AnalogOutputStatusSpecEEEtEE
	.long	0
	.long	1
	.quad	_ZTIN7openpal7HasSizeItEE
	.quad	2050
	.weak	_ZTIN7openpal5ArrayIN8opendnp34CellINS1_19TimeAndIntervalSpecEEEtEE
	.section	.data.rel.ro._ZTIN7openpal5ArrayIN8opendnp34CellINS1_19TimeAndIntervalSpecEEEtEE,"awG",@progbits,_ZTIN7openpal5ArrayIN8opendnp34CellINS1_19TimeAndIntervalSpecEEEtEE,comdat
	.align 8
	.type	_ZTIN7openpal5ArrayIN8opendnp34CellINS1_19TimeAndIntervalSpecEEEtEE, @object
	.size	_ZTIN7openpal5ArrayIN8opendnp34CellINS1_19TimeAndIntervalSpecEEEtEE, 40
_ZTIN7openpal5ArrayIN8opendnp34CellINS1_19TimeAndIntervalSpecEEEtEE:
	.quad	_ZTVN10__cxxabiv121__vmi_class_type_infoE+16
	.quad	_ZTSN7openpal5ArrayIN8opendnp34CellINS1_19TimeAndIntervalSpecEEEtEE
	.long	0
	.long	1
	.quad	_ZTIN7openpal7HasSizeItEE
	.quad	2050
	.weak	_ZTIN7openpal5ArrayINS_8ListNodeIN8opendnp39SOERecordEEEjEE
	.section	.data.rel.ro._ZTIN7openpal5ArrayINS_8ListNodeIN8opendnp39SOERecordEEEjEE,"awG",@progbits,_ZTIN7openpal5ArrayINS_8ListNodeIN8opendnp39SOERecordEEEjEE,comdat
	.align 8
	.type	_ZTIN7openpal5ArrayINS_8ListNodeIN8opendnp39SOERecordEEEjEE, @object
	.size	_ZTIN7openpal5ArrayINS_8ListNodeIN8opendnp39SOERecordEEEjEE, 40
_ZTIN7openpal5ArrayINS_8ListNodeIN8opendnp39SOERecordEEEjEE:
	.quad	_ZTVN10__cxxabiv121__vmi_class_type_infoE+16
	.quad	_ZTSN7openpal5ArrayINS_8ListNodeIN8opendnp39SOERecordEEEjEE
	.long	0
	.long	1
	.quad	_ZTIN7openpal7HasSizeIjEE
	.quad	2050
	.weak	_ZTSN8opendnp38OContextE
	.section	.rodata._ZTSN8opendnp38OContextE,"aG",@progbits,_ZTSN8opendnp38OContextE,comdat
	.align 16
	.type	_ZTSN8opendnp38OContextE, @object
	.size	_ZTSN8opendnp38OContextE, 21
_ZTSN8opendnp38OContextE:
	.string	"N8opendnp38OContextE"
	.weak	_ZTIN8opendnp38OContextE
	.section	.data.rel.ro._ZTIN8opendnp38OContextE,"awG",@progbits,_ZTIN8opendnp38OContextE,comdat
	.align 8
	.type	_ZTIN8opendnp38OContextE, @object
	.size	_ZTIN8opendnp38OContextE, 24
_ZTIN8opendnp38OContextE:
	.quad	_ZTVN10__cxxabiv120__si_class_type_infoE+16
	.quad	_ZTSN8opendnp38OContextE
	.quad	_ZTIN8opendnp311IUpperLayerE
	.weak	_ZTSN8opendnp314ICommandActionE
	.section	.rodata._ZTSN8opendnp314ICommandActionE,"aG",@progbits,_ZTSN8opendnp314ICommandActionE,comdat
	.align 16
	.type	_ZTSN8opendnp314ICommandActionE, @object
	.size	_ZTSN8opendnp314ICommandActionE, 28
_ZTSN8opendnp314ICommandActionE:
	.string	"N8opendnp314ICommandActionE"
	.weak	_ZTIN8opendnp314ICommandActionE
	.section	.data.rel.ro._ZTIN8opendnp314ICommandActionE,"awG",@progbits,_ZTIN8opendnp314ICommandActionE,comdat
	.align 8
	.type	_ZTIN8opendnp314ICommandActionE, @object
	.size	_ZTIN8opendnp314ICommandActionE, 16
_ZTIN8opendnp314ICommandActionE:
	.quad	_ZTVN10__cxxabiv117__class_type_infoE+16
	.quad	_ZTSN8opendnp314ICommandActionE
	.weak	_ZTSN8opendnp321ConstantCommandActionE
	.section	.rodata._ZTSN8opendnp321ConstantCommandActionE,"aG",@progbits,_ZTSN8opendnp321ConstantCommandActionE,comdat
	.align 32
	.type	_ZTSN8opendnp321ConstantCommandActionE, @object
	.size	_ZTSN8opendnp321ConstantCommandActionE, 35
_ZTSN8opendnp321ConstantCommandActionE:
	.string	"N8opendnp321ConstantCommandActionE"
	.weak	_ZTIN8opendnp321ConstantCommandActionE
	.section	.data.rel.ro._ZTIN8opendnp321ConstantCommandActionE,"awG",@progbits,_ZTIN8opendnp321ConstantCommandActionE,comdat
	.align 8
	.type	_ZTIN8opendnp321ConstantCommandActionE, @object
	.size	_ZTIN8opendnp321ConstantCommandActionE, 24
_ZTIN8opendnp321ConstantCommandActionE:
	.quad	_ZTVN10__cxxabiv120__si_class_type_infoE+16
	.quad	_ZTSN8opendnp321ConstantCommandActionE
	.quad	_ZTIN8opendnp314ICommandActionE
	.section	.data.rel.ro,"aw"
	.align 8
	.type	_ZTIZN7openpal8TimerRef7RestartIZN8opendnp38OContext19RestartConfirmTimerEvEUlvE_EEvRKNS_12TimeDurationERKT_EUlvE_, @object
	.size	_ZTIZN7openpal8TimerRef7RestartIZN8opendnp38OContext19RestartConfirmTimerEvEUlvE_EEvRKNS_12TimeDurationERKT_EUlvE_, 16
_ZTIZN7openpal8TimerRef7RestartIZN8opendnp38OContext19RestartConfirmTimerEvEUlvE_EEvRKNS_12TimeDurationERKT_EUlvE_:
	.quad	_ZTVN10__cxxabiv117__class_type_infoE+16
	.quad	_ZTSZN7openpal8TimerRef7RestartIZN8opendnp38OContext19RestartConfirmTimerEvEUlvE_EEvRKNS_12TimeDurationERKT_EUlvE_
	.section	.rodata
	.align 32
	.type	_ZTSZN7openpal8TimerRef7RestartIZN8opendnp38OContext19RestartConfirmTimerEvEUlvE_EEvRKNS_12TimeDurationERKT_EUlvE_, @object
	.size	_ZTSZN7openpal8TimerRef7RestartIZN8opendnp38OContext19RestartConfirmTimerEvEUlvE_EEvRKNS_12TimeDurationERKT_EUlvE_, 112
_ZTSZN7openpal8TimerRef7RestartIZN8opendnp38OContext19RestartConfirmTimerEvEUlvE_EEvRKNS_12TimeDurationERKT_EUlvE_:
	.string	"*ZN7openpal8TimerRef7RestartIZN8opendnp38OContext19RestartConfirmTimerEvEUlvE_EEvRKNS_12TimeDurationERKT_EUlvE_"
	.weak	_ZTVN7openpal5ArrayIhjEE
	.section	.data.rel.ro._ZTVN7openpal5ArrayIhjEE,"awG",@progbits,_ZTVN7openpal5ArrayIhjEE,comdat
	.align 8
	.type	_ZTVN7openpal5ArrayIhjEE, @object
	.size	_ZTVN7openpal5ArrayIhjEE, 32
_ZTVN7openpal5ArrayIhjEE:
	.quad	0
	.quad	_ZTIN7openpal5ArrayIhjEE
	.quad	_ZN7openpal5ArrayIhjED1Ev
	.quad	_ZN7openpal5ArrayIhjED0Ev
	.weak	_ZTVN7openpal5ArrayIN8opendnp34CellINS1_10BinarySpecEEEtEE
	.section	.data.rel.ro._ZTVN7openpal5ArrayIN8opendnp34CellINS1_10BinarySpecEEEtEE,"awG",@progbits,_ZTVN7openpal5ArrayIN8opendnp34CellINS1_10BinarySpecEEEtEE,comdat
	.align 8
	.type	_ZTVN7openpal5ArrayIN8opendnp34CellINS1_10BinarySpecEEEtEE, @object
	.size	_ZTVN7openpal5ArrayIN8opendnp34CellINS1_10BinarySpecEEEtEE, 32
_ZTVN7openpal5ArrayIN8opendnp34CellINS1_10BinarySpecEEEtEE:
	.quad	0
	.quad	_ZTIN7openpal5ArrayIN8opendnp34CellINS1_10BinarySpecEEEtEE
	.quad	_ZN7openpal5ArrayIN8opendnp34CellINS1_10BinarySpecEEEtED1Ev
	.quad	_ZN7openpal5ArrayIN8opendnp34CellINS1_10BinarySpecEEEtED0Ev
	.weak	_ZTVN7openpal5ArrayIN8opendnp34CellINS1_19DoubleBitBinarySpecEEEtEE
	.section	.data.rel.ro._ZTVN7openpal5ArrayIN8opendnp34CellINS1_19DoubleBitBinarySpecEEEtEE,"awG",@progbits,_ZTVN7openpal5ArrayIN8opendnp34CellINS1_19DoubleBitBinarySpecEEEtEE,comdat
	.align 8
	.type	_ZTVN7openpal5ArrayIN8opendnp34CellINS1_19DoubleBitBinarySpecEEEtEE, @object
	.size	_ZTVN7openpal5ArrayIN8opendnp34CellINS1_19DoubleBitBinarySpecEEEtEE, 32
_ZTVN7openpal5ArrayIN8opendnp34CellINS1_19DoubleBitBinarySpecEEEtEE:
	.quad	0
	.quad	_ZTIN7openpal5ArrayIN8opendnp34CellINS1_19DoubleBitBinarySpecEEEtEE
	.quad	_ZN7openpal5ArrayIN8opendnp34CellINS1_19DoubleBitBinarySpecEEEtED1Ev
	.quad	_ZN7openpal5ArrayIN8opendnp34CellINS1_19DoubleBitBinarySpecEEEtED0Ev
	.weak	_ZTVN7openpal5ArrayIN8opendnp34CellINS1_10AnalogSpecEEEtEE
	.section	.data.rel.ro._ZTVN7openpal5ArrayIN8opendnp34CellINS1_10AnalogSpecEEEtEE,"awG",@progbits,_ZTVN7openpal5ArrayIN8opendnp34CellINS1_10AnalogSpecEEEtEE,comdat
	.align 8
	.type	_ZTVN7openpal5ArrayIN8opendnp34CellINS1_10AnalogSpecEEEtEE, @object
	.size	_ZTVN7openpal5ArrayIN8opendnp34CellINS1_10AnalogSpecEEEtEE, 32
_ZTVN7openpal5ArrayIN8opendnp34CellINS1_10AnalogSpecEEEtEE:
	.quad	0
	.quad	_ZTIN7openpal5ArrayIN8opendnp34CellINS1_10AnalogSpecEEEtEE
	.quad	_ZN7openpal5ArrayIN8opendnp34CellINS1_10AnalogSpecEEEtED1Ev
	.quad	_ZN7openpal5ArrayIN8opendnp34CellINS1_10AnalogSpecEEEtED0Ev
	.weak	_ZTVN7openpal5ArrayIN8opendnp34CellINS1_11CounterSpecEEEtEE
	.section	.data.rel.ro._ZTVN7openpal5ArrayIN8opendnp34CellINS1_11CounterSpecEEEtEE,"awG",@progbits,_ZTVN7openpal5ArrayIN8opendnp34CellINS1_11CounterSpecEEEtEE,comdat
	.align 8
	.type	_ZTVN7openpal5ArrayIN8opendnp34CellINS1_11CounterSpecEEEtEE, @object
	.size	_ZTVN7openpal5ArrayIN8opendnp34CellINS1_11CounterSpecEEEtEE, 32
_ZTVN7openpal5ArrayIN8opendnp34CellINS1_11CounterSpecEEEtEE:
	.quad	0
	.quad	_ZTIN7openpal5ArrayIN8opendnp34CellINS1_11CounterSpecEEEtEE
	.quad	_ZN7openpal5ArrayIN8opendnp34CellINS1_11CounterSpecEEEtED1Ev
	.quad	_ZN7openpal5ArrayIN8opendnp34CellINS1_11CounterSpecEEEtED0Ev
	.weak	_ZTVN7openpal5ArrayIN8opendnp34CellINS1_17FrozenCounterSpecEEEtEE
	.section	.data.rel.ro._ZTVN7openpal5ArrayIN8opendnp34CellINS1_17FrozenCounterSpecEEEtEE,"awG",@progbits,_ZTVN7openpal5ArrayIN8opendnp34CellINS1_17FrozenCounterSpecEEEtEE,comdat
	.align 8
	.type	_ZTVN7openpal5ArrayIN8opendnp34CellINS1_17FrozenCounterSpecEEEtEE, @object
	.size	_ZTVN7openpal5ArrayIN8opendnp34CellINS1_17FrozenCounterSpecEEEtEE, 32
_ZTVN7openpal5ArrayIN8opendnp34CellINS1_17FrozenCounterSpecEEEtEE:
	.quad	0
	.quad	_ZTIN7openpal5ArrayIN8opendnp34CellINS1_17FrozenCounterSpecEEEtEE
	.quad	_ZN7openpal5ArrayIN8opendnp34CellINS1_17FrozenCounterSpecEEEtED1Ev
	.quad	_ZN7openpal5ArrayIN8opendnp34CellINS1_17FrozenCounterSpecEEEtED0Ev
	.weak	_ZTVN7openpal5ArrayIN8opendnp34CellINS1_22BinaryOutputStatusSpecEEEtEE
	.section	.data.rel.ro._ZTVN7openpal5ArrayIN8opendnp34CellINS1_22BinaryOutputStatusSpecEEEtEE,"awG",@progbits,_ZTVN7openpal5ArrayIN8opendnp34CellINS1_22BinaryOutputStatusSpecEEEtEE,comdat
	.align 8
	.type	_ZTVN7openpal5ArrayIN8opendnp34CellINS1_22BinaryOutputStatusSpecEEEtEE, @object
	.size	_ZTVN7openpal5ArrayIN8opendnp34CellINS1_22BinaryOutputStatusSpecEEEtEE, 32
_ZTVN7openpal5ArrayIN8opendnp34CellINS1_22BinaryOutputStatusSpecEEEtEE:
	.quad	0
	.quad	_ZTIN7openpal5ArrayIN8opendnp34CellINS1_22BinaryOutputStatusSpecEEEtEE
	.quad	_ZN7openpal5ArrayIN8opendnp34CellINS1_22BinaryOutputStatusSpecEEEtED1Ev
	.quad	_ZN7openpal5ArrayIN8opendnp34CellINS1_22BinaryOutputStatusSpecEEEtED0Ev
	.weak	_ZTVN7openpal5ArrayIN8opendnp34CellINS1_22AnalogOutputStatusSpecEEEtEE
	.section	.data.rel.ro._ZTVN7openpal5ArrayIN8opendnp34CellINS1_22AnalogOutputStatusSpecEEEtEE,"awG",@progbits,_ZTVN7openpal5ArrayIN8opendnp34CellINS1_22AnalogOutputStatusSpecEEEtEE,comdat
	.align 8
	.type	_ZTVN7openpal5ArrayIN8opendnp34CellINS1_22AnalogOutputStatusSpecEEEtEE, @object
	.size	_ZTVN7openpal5ArrayIN8opendnp34CellINS1_22AnalogOutputStatusSpecEEEtEE, 32
_ZTVN7openpal5ArrayIN8opendnp34CellINS1_22AnalogOutputStatusSpecEEEtEE:
	.quad	0
	.quad	_ZTIN7openpal5ArrayIN8opendnp34CellINS1_22AnalogOutputStatusSpecEEEtEE
	.quad	_ZN7openpal5ArrayIN8opendnp34CellINS1_22AnalogOutputStatusSpecEEEtED1Ev
	.quad	_ZN7openpal5ArrayIN8opendnp34CellINS1_22AnalogOutputStatusSpecEEEtED0Ev
	.weak	_ZTVN7openpal5ArrayIN8opendnp34CellINS1_19TimeAndIntervalSpecEEEtEE
	.section	.data.rel.ro._ZTVN7openpal5ArrayIN8opendnp34CellINS1_19TimeAndIntervalSpecEEEtEE,"awG",@progbits,_ZTVN7openpal5ArrayIN8opendnp34CellINS1_19TimeAndIntervalSpecEEEtEE,comdat
	.align 8
	.type	_ZTVN7openpal5ArrayIN8opendnp34CellINS1_19TimeAndIntervalSpecEEEtEE, @object
	.size	_ZTVN7openpal5ArrayIN8opendnp34CellINS1_19TimeAndIntervalSpecEEEtEE, 32
_ZTVN7openpal5ArrayIN8opendnp34CellINS1_19TimeAndIntervalSpecEEEtEE:
	.quad	0
	.quad	_ZTIN7openpal5ArrayIN8opendnp34CellINS1_19TimeAndIntervalSpecEEEtEE
	.quad	_ZN7openpal5ArrayIN8opendnp34CellINS1_19TimeAndIntervalSpecEEEtED1Ev
	.quad	_ZN7openpal5ArrayIN8opendnp34CellINS1_19TimeAndIntervalSpecEEEtED0Ev
	.weak	_ZTVN7openpal5ArrayINS_8ListNodeIN8opendnp39SOERecordEEEjEE
	.section	.data.rel.ro._ZTVN7openpal5ArrayINS_8ListNodeIN8opendnp39SOERecordEEEjEE,"awG",@progbits,_ZTVN7openpal5ArrayINS_8ListNodeIN8opendnp39SOERecordEEEjEE,comdat
	.align 8
	.type	_ZTVN7openpal5ArrayINS_8ListNodeIN8opendnp39SOERecordEEEjEE, @object
	.size	_ZTVN7openpal5ArrayINS_8ListNodeIN8opendnp39SOERecordEEEjEE, 32
_ZTVN7openpal5ArrayINS_8ListNodeIN8opendnp39SOERecordEEEjEE:
	.quad	0
	.quad	_ZTIN7openpal5ArrayINS_8ListNodeIN8opendnp39SOERecordEEEjEE
	.quad	_ZN7openpal5ArrayINS_8ListNodeIN8opendnp39SOERecordEEEjED1Ev
	.quad	_ZN7openpal5ArrayINS_8ListNodeIN8opendnp39SOERecordEEEjED0Ev
	.weak	_ZTVN8opendnp321ConstantCommandActionE
	.section	.data.rel.ro._ZTVN8opendnp321ConstantCommandActionE,"awG",@progbits,_ZTVN8opendnp321ConstantCommandActionE,comdat
	.align 8
	.type	_ZTVN8opendnp321ConstantCommandActionE, @object
	.size	_ZTVN8opendnp321ConstantCommandActionE, 72
_ZTVN8opendnp321ConstantCommandActionE:
	.quad	0
	.quad	_ZTIN8opendnp321ConstantCommandActionE
	.quad	_ZN8opendnp321ConstantCommandActionD1Ev
	.quad	_ZN8opendnp321ConstantCommandActionD0Ev
	.quad	_ZN8opendnp321ConstantCommandAction6ActionERKNS_23ControlRelayOutputBlockEt
	.quad	_ZN8opendnp321ConstantCommandAction6ActionERKNS_17AnalogOutputInt16Et
	.quad	_ZN8opendnp321ConstantCommandAction6ActionERKNS_17AnalogOutputInt32Et
	.quad	_ZN8opendnp321ConstantCommandAction6ActionERKNS_19AnalogOutputFloat32Et
	.quad	_ZN8opendnp321ConstantCommandAction6ActionERKNS_20AnalogOutputDouble64Et
	.weak	_ZTVN8opendnp38OContextE
	.section	.data.rel.ro._ZTVN8opendnp38OContextE,"awG",@progbits,_ZTVN8opendnp38OContextE,comdat
	.align 8
	.type	_ZTVN8opendnp38OContextE, @object
	.size	_ZTVN8opendnp38OContextE, 64
_ZTVN8opendnp38OContextE:
	.quad	0
	.quad	_ZTIN8opendnp38OContextE
	.quad	_ZN8opendnp38OContextD1Ev
	.quad	_ZN8opendnp38OContextD0Ev
	.quad	_ZN8opendnp38OContext14OnLowerLayerUpEv
	.quad	_ZN8opendnp38OContext16OnLowerLayerDownEv
	.quad	_ZN8opendnp38OContext9OnReceiveERKN7openpal6RSliceE
	.quad	_ZN8opendnp38OContext12OnSendResultEb
	.weakref	_ZL28__gthrw___pthread_key_createPjPFvPvE,__pthread_key_create
	.hidden	DW.ref.__gxx_personality_v0
	.weak	DW.ref.__gxx_personality_v0
	.section	.data.rel.local.DW.ref.__gxx_personality_v0,"awG",@progbits,DW.ref.__gxx_personality_v0,comdat
	.align 8
	.type	DW.ref.__gxx_personality_v0, @object
	.size	DW.ref.__gxx_personality_v0, 8
DW.ref.__gxx_personality_v0:
	.quad	__gxx_personality_v0
	.ident	"GCC: (Ubuntu 9.4.0-1ubuntu1~20.04.1) 9.4.0"
	.section	.note.GNU-stack,"",@progbits
	.section	.note.gnu.property,"a"
	.align 8
	.long	 1f - 0f
	.long	 4f - 1f
	.long	 5
0:
	.string	 "GNU"
1:
	.align 8
	.long	 0xc0000002
	.long	 3f - 2f
2:
	.long	 0x3
3:
	.align 8
4:
