	.file	"PrintingSOEHandler.cpp"
	.text
	.section	.text._ZNKSt5ctypeIcE8do_widenEc,"axG",@progbits,_ZNKSt5ctypeIcE8do_widenEc,comdat
	.align 2
	.p2align 4
	.weak	_ZNKSt5ctypeIcE8do_widenEc
	.type	_ZNKSt5ctypeIcE8do_widenEc, @function
_ZNKSt5ctypeIcE8do_widenEc:
.LFB1466:
	.cfi_startproc
	endbr64
	movl	%esi, %eax
	ret
	.cfi_endproc
.LFE1466:
	.size	_ZNKSt5ctypeIcE8do_widenEc, .-_ZNKSt5ctypeIcE8do_widenEc
	.section	.text._ZN8asiodnp318PrintingSOEHandler5StartEv,"axG",@progbits,_ZN8asiodnp318PrintingSOEHandler5StartEv,comdat
	.align 2
	.p2align 4
	.weak	_ZN8asiodnp318PrintingSOEHandler5StartEv
	.type	_ZN8asiodnp318PrintingSOEHandler5StartEv, @function
_ZN8asiodnp318PrintingSOEHandler5StartEv:
.LFB2679:
	.cfi_startproc
	endbr64
	ret
	.cfi_endproc
.LFE2679:
	.size	_ZN8asiodnp318PrintingSOEHandler5StartEv, .-_ZN8asiodnp318PrintingSOEHandler5StartEv
	.section	.text._ZN8asiodnp318PrintingSOEHandler3EndEv,"axG",@progbits,_ZN8asiodnp318PrintingSOEHandler3EndEv,comdat
	.align 2
	.p2align 4
	.weak	_ZN8asiodnp318PrintingSOEHandler3EndEv
	.type	_ZN8asiodnp318PrintingSOEHandler3EndEv, @function
_ZN8asiodnp318PrintingSOEHandler3EndEv:
.LFB2680:
	.cfi_startproc
	endbr64
	ret
	.cfi_endproc
.LFE2680:
	.size	_ZN8asiodnp318PrintingSOEHandler3EndEv, .-_ZN8asiodnp318PrintingSOEHandler3EndEv
	.text
	.align 2
	.p2align 4
	.globl	_ZN8asiodnp318PrintingSOEHandler7ProcessERKN8opendnp310HeaderInfoERKNS1_11ICollectionINS1_7IndexedINS1_6BinaryEEEEE
	.type	_ZN8asiodnp318PrintingSOEHandler7ProcessERKN8opendnp310HeaderInfoERKNS1_11ICollectionINS1_7IndexedINS1_6BinaryEEEEE, @function
_ZN8asiodnp318PrintingSOEHandler7ProcessERKN8opendnp310HeaderInfoERKNS1_11ICollectionINS1_7IndexedINS1_6BinaryEEEEE:
.LFB2687:
	.cfi_startproc
	endbr64
	subq	$40, %rsp
	.cfi_def_cfa_offset 48
	movq	%rdx, %rdi
	movq	%fs:40, %rax
	movq	%rax, 24(%rsp)
	xorl	%eax, %eax
	movq	_ZTVN8opendnp314FunctorVisitorINS_7IndexedINS_6BinaryEEEZN8asiodnp318PrintingSOEHandler8PrintAllIS2_EEvRKNS_10HeaderInfoERKNS_11ICollectionINS1_IT_EEEEEUlRKS3_E_EE@GOTPCREL(%rip), %rax
	movq	%rsi, 8(%rsp)
	movq	%rsp, %rsi
	addq	$16, %rax
	movq	%rax, (%rsp)
	movq	(%rdx), %rax
	call	*8(%rax)
	movq	24(%rsp), %rax
	xorq	%fs:40, %rax
	jne	.L8
	addq	$40, %rsp
	.cfi_remember_state
	.cfi_def_cfa_offset 8
	ret
.L8:
	.cfi_restore_state
	call	__stack_chk_fail@PLT
	.cfi_endproc
.LFE2687:
	.size	_ZN8asiodnp318PrintingSOEHandler7ProcessERKN8opendnp310HeaderInfoERKNS1_11ICollectionINS1_7IndexedINS1_6BinaryEEEEE, .-_ZN8asiodnp318PrintingSOEHandler7ProcessERKN8opendnp310HeaderInfoERKNS1_11ICollectionINS1_7IndexedINS1_6BinaryEEEEE
	.align 2
	.p2align 4
	.globl	_ZN8asiodnp318PrintingSOEHandler7ProcessERKN8opendnp310HeaderInfoERKNS1_11ICollectionINS1_7IndexedINS1_15DoubleBitBinaryEEEEE
	.type	_ZN8asiodnp318PrintingSOEHandler7ProcessERKN8opendnp310HeaderInfoERKNS1_11ICollectionINS1_7IndexedINS1_15DoubleBitBinaryEEEEE, @function
_ZN8asiodnp318PrintingSOEHandler7ProcessERKN8opendnp310HeaderInfoERKNS1_11ICollectionINS1_7IndexedINS1_15DoubleBitBinaryEEEEE:
.LFB2688:
	.cfi_startproc
	endbr64
	subq	$40, %rsp
	.cfi_def_cfa_offset 48
	movq	%rdx, %rdi
	movq	%fs:40, %rax
	movq	%rax, 24(%rsp)
	xorl	%eax, %eax
	movq	_ZTVN8opendnp314FunctorVisitorINS_7IndexedINS_15DoubleBitBinaryEEEZN8asiodnp318PrintingSOEHandler8PrintAllIS2_EEvRKNS_10HeaderInfoERKNS_11ICollectionINS1_IT_EEEEEUlRKS3_E_EE@GOTPCREL(%rip), %rax
	movq	%rsi, 8(%rsp)
	movq	%rsp, %rsi
	addq	$16, %rax
	movq	%rax, (%rsp)
	movq	(%rdx), %rax
	call	*8(%rax)
	movq	24(%rsp), %rax
	xorq	%fs:40, %rax
	jne	.L12
	addq	$40, %rsp
	.cfi_remember_state
	.cfi_def_cfa_offset 8
	ret
.L12:
	.cfi_restore_state
	call	__stack_chk_fail@PLT
	.cfi_endproc
.LFE2688:
	.size	_ZN8asiodnp318PrintingSOEHandler7ProcessERKN8opendnp310HeaderInfoERKNS1_11ICollectionINS1_7IndexedINS1_15DoubleBitBinaryEEEEE, .-_ZN8asiodnp318PrintingSOEHandler7ProcessERKN8opendnp310HeaderInfoERKNS1_11ICollectionINS1_7IndexedINS1_15DoubleBitBinaryEEEEE
	.align 2
	.p2align 4
	.globl	_ZN8asiodnp318PrintingSOEHandler7ProcessERKN8opendnp310HeaderInfoERKNS1_11ICollectionINS1_7IndexedINS1_6AnalogEEEEE
	.type	_ZN8asiodnp318PrintingSOEHandler7ProcessERKN8opendnp310HeaderInfoERKNS1_11ICollectionINS1_7IndexedINS1_6AnalogEEEEE, @function
_ZN8asiodnp318PrintingSOEHandler7ProcessERKN8opendnp310HeaderInfoERKNS1_11ICollectionINS1_7IndexedINS1_6AnalogEEEEE:
.LFB2689:
	.cfi_startproc
	endbr64
	subq	$40, %rsp
	.cfi_def_cfa_offset 48
	movq	%rdx, %rdi
	movq	%fs:40, %rax
	movq	%rax, 24(%rsp)
	xorl	%eax, %eax
	movq	_ZTVN8opendnp314FunctorVisitorINS_7IndexedINS_6AnalogEEEZN8asiodnp318PrintingSOEHandler8PrintAllIS2_EEvRKNS_10HeaderInfoERKNS_11ICollectionINS1_IT_EEEEEUlRKS3_E_EE@GOTPCREL(%rip), %rax
	movq	%rsi, 8(%rsp)
	movq	%rsp, %rsi
	addq	$16, %rax
	movq	%rax, (%rsp)
	movq	(%rdx), %rax
	call	*8(%rax)
	movq	24(%rsp), %rax
	xorq	%fs:40, %rax
	jne	.L16
	addq	$40, %rsp
	.cfi_remember_state
	.cfi_def_cfa_offset 8
	ret
.L16:
	.cfi_restore_state
	call	__stack_chk_fail@PLT
	.cfi_endproc
.LFE2689:
	.size	_ZN8asiodnp318PrintingSOEHandler7ProcessERKN8opendnp310HeaderInfoERKNS1_11ICollectionINS1_7IndexedINS1_6AnalogEEEEE, .-_ZN8asiodnp318PrintingSOEHandler7ProcessERKN8opendnp310HeaderInfoERKNS1_11ICollectionINS1_7IndexedINS1_6AnalogEEEEE
	.align 2
	.p2align 4
	.globl	_ZN8asiodnp318PrintingSOEHandler7ProcessERKN8opendnp310HeaderInfoERKNS1_11ICollectionINS1_7IndexedINS1_7CounterEEEEE
	.type	_ZN8asiodnp318PrintingSOEHandler7ProcessERKN8opendnp310HeaderInfoERKNS1_11ICollectionINS1_7IndexedINS1_7CounterEEEEE, @function
_ZN8asiodnp318PrintingSOEHandler7ProcessERKN8opendnp310HeaderInfoERKNS1_11ICollectionINS1_7IndexedINS1_7CounterEEEEE:
.LFB2690:
	.cfi_startproc
	endbr64
	subq	$40, %rsp
	.cfi_def_cfa_offset 48
	movq	%rdx, %rdi
	movq	%fs:40, %rax
	movq	%rax, 24(%rsp)
	xorl	%eax, %eax
	movq	_ZTVN8opendnp314FunctorVisitorINS_7IndexedINS_7CounterEEEZN8asiodnp318PrintingSOEHandler8PrintAllIS2_EEvRKNS_10HeaderInfoERKNS_11ICollectionINS1_IT_EEEEEUlRKS3_E_EE@GOTPCREL(%rip), %rax
	movq	%rsi, 8(%rsp)
	movq	%rsp, %rsi
	addq	$16, %rax
	movq	%rax, (%rsp)
	movq	(%rdx), %rax
	call	*8(%rax)
	movq	24(%rsp), %rax
	xorq	%fs:40, %rax
	jne	.L20
	addq	$40, %rsp
	.cfi_remember_state
	.cfi_def_cfa_offset 8
	ret
.L20:
	.cfi_restore_state
	call	__stack_chk_fail@PLT
	.cfi_endproc
.LFE2690:
	.size	_ZN8asiodnp318PrintingSOEHandler7ProcessERKN8opendnp310HeaderInfoERKNS1_11ICollectionINS1_7IndexedINS1_7CounterEEEEE, .-_ZN8asiodnp318PrintingSOEHandler7ProcessERKN8opendnp310HeaderInfoERKNS1_11ICollectionINS1_7IndexedINS1_7CounterEEEEE
	.align 2
	.p2align 4
	.globl	_ZN8asiodnp318PrintingSOEHandler7ProcessERKN8opendnp310HeaderInfoERKNS1_11ICollectionINS1_7IndexedINS1_13FrozenCounterEEEEE
	.type	_ZN8asiodnp318PrintingSOEHandler7ProcessERKN8opendnp310HeaderInfoERKNS1_11ICollectionINS1_7IndexedINS1_13FrozenCounterEEEEE, @function
_ZN8asiodnp318PrintingSOEHandler7ProcessERKN8opendnp310HeaderInfoERKNS1_11ICollectionINS1_7IndexedINS1_13FrozenCounterEEEEE:
.LFB2691:
	.cfi_startproc
	endbr64
	subq	$40, %rsp
	.cfi_def_cfa_offset 48
	movq	%rdx, %rdi
	movq	%fs:40, %rax
	movq	%rax, 24(%rsp)
	xorl	%eax, %eax
	movq	_ZTVN8opendnp314FunctorVisitorINS_7IndexedINS_13FrozenCounterEEEZN8asiodnp318PrintingSOEHandler8PrintAllIS2_EEvRKNS_10HeaderInfoERKNS_11ICollectionINS1_IT_EEEEEUlRKS3_E_EE@GOTPCREL(%rip), %rax
	movq	%rsi, 8(%rsp)
	movq	%rsp, %rsi
	addq	$16, %rax
	movq	%rax, (%rsp)
	movq	(%rdx), %rax
	call	*8(%rax)
	movq	24(%rsp), %rax
	xorq	%fs:40, %rax
	jne	.L24
	addq	$40, %rsp
	.cfi_remember_state
	.cfi_def_cfa_offset 8
	ret
.L24:
	.cfi_restore_state
	call	__stack_chk_fail@PLT
	.cfi_endproc
.LFE2691:
	.size	_ZN8asiodnp318PrintingSOEHandler7ProcessERKN8opendnp310HeaderInfoERKNS1_11ICollectionINS1_7IndexedINS1_13FrozenCounterEEEEE, .-_ZN8asiodnp318PrintingSOEHandler7ProcessERKN8opendnp310HeaderInfoERKNS1_11ICollectionINS1_7IndexedINS1_13FrozenCounterEEEEE
	.align 2
	.p2align 4
	.globl	_ZN8asiodnp318PrintingSOEHandler7ProcessERKN8opendnp310HeaderInfoERKNS1_11ICollectionINS1_7IndexedINS1_18BinaryOutputStatusEEEEE
	.type	_ZN8asiodnp318PrintingSOEHandler7ProcessERKN8opendnp310HeaderInfoERKNS1_11ICollectionINS1_7IndexedINS1_18BinaryOutputStatusEEEEE, @function
_ZN8asiodnp318PrintingSOEHandler7ProcessERKN8opendnp310HeaderInfoERKNS1_11ICollectionINS1_7IndexedINS1_18BinaryOutputStatusEEEEE:
.LFB2692:
	.cfi_startproc
	endbr64
	subq	$40, %rsp
	.cfi_def_cfa_offset 48
	movq	%rdx, %rdi
	movq	%fs:40, %rax
	movq	%rax, 24(%rsp)
	xorl	%eax, %eax
	movq	_ZTVN8opendnp314FunctorVisitorINS_7IndexedINS_18BinaryOutputStatusEEEZN8asiodnp318PrintingSOEHandler8PrintAllIS2_EEvRKNS_10HeaderInfoERKNS_11ICollectionINS1_IT_EEEEEUlRKS3_E_EE@GOTPCREL(%rip), %rax
	movq	%rsi, 8(%rsp)
	movq	%rsp, %rsi
	addq	$16, %rax
	movq	%rax, (%rsp)
	movq	(%rdx), %rax
	call	*8(%rax)
	movq	24(%rsp), %rax
	xorq	%fs:40, %rax
	jne	.L28
	addq	$40, %rsp
	.cfi_remember_state
	.cfi_def_cfa_offset 8
	ret
.L28:
	.cfi_restore_state
	call	__stack_chk_fail@PLT
	.cfi_endproc
.LFE2692:
	.size	_ZN8asiodnp318PrintingSOEHandler7ProcessERKN8opendnp310HeaderInfoERKNS1_11ICollectionINS1_7IndexedINS1_18BinaryOutputStatusEEEEE, .-_ZN8asiodnp318PrintingSOEHandler7ProcessERKN8opendnp310HeaderInfoERKNS1_11ICollectionINS1_7IndexedINS1_18BinaryOutputStatusEEEEE
	.align 2
	.p2align 4
	.globl	_ZN8asiodnp318PrintingSOEHandler7ProcessERKN8opendnp310HeaderInfoERKNS1_11ICollectionINS1_7IndexedINS1_18AnalogOutputStatusEEEEE
	.type	_ZN8asiodnp318PrintingSOEHandler7ProcessERKN8opendnp310HeaderInfoERKNS1_11ICollectionINS1_7IndexedINS1_18AnalogOutputStatusEEEEE, @function
_ZN8asiodnp318PrintingSOEHandler7ProcessERKN8opendnp310HeaderInfoERKNS1_11ICollectionINS1_7IndexedINS1_18AnalogOutputStatusEEEEE:
.LFB2693:
	.cfi_startproc
	endbr64
	subq	$40, %rsp
	.cfi_def_cfa_offset 48
	movq	%rdx, %rdi
	movq	%fs:40, %rax
	movq	%rax, 24(%rsp)
	xorl	%eax, %eax
	movq	_ZTVN8opendnp314FunctorVisitorINS_7IndexedINS_18AnalogOutputStatusEEEZN8asiodnp318PrintingSOEHandler8PrintAllIS2_EEvRKNS_10HeaderInfoERKNS_11ICollectionINS1_IT_EEEEEUlRKS3_E_EE@GOTPCREL(%rip), %rax
	movq	%rsi, 8(%rsp)
	movq	%rsp, %rsi
	addq	$16, %rax
	movq	%rax, (%rsp)
	movq	(%rdx), %rax
	call	*8(%rax)
	movq	24(%rsp), %rax
	xorq	%fs:40, %rax
	jne	.L32
	addq	$40, %rsp
	.cfi_remember_state
	.cfi_def_cfa_offset 8
	ret
.L32:
	.cfi_restore_state
	call	__stack_chk_fail@PLT
	.cfi_endproc
.LFE2693:
	.size	_ZN8asiodnp318PrintingSOEHandler7ProcessERKN8opendnp310HeaderInfoERKNS1_11ICollectionINS1_7IndexedINS1_18AnalogOutputStatusEEEEE, .-_ZN8asiodnp318PrintingSOEHandler7ProcessERKN8opendnp310HeaderInfoERKNS1_11ICollectionINS1_7IndexedINS1_18AnalogOutputStatusEEEEE
	.align 2
	.p2align 4
	.globl	_ZN8asiodnp318PrintingSOEHandler7ProcessERKN8opendnp310HeaderInfoERKNS1_11ICollectionINS1_7IndexedINS1_11OctetStringEEEEE
	.type	_ZN8asiodnp318PrintingSOEHandler7ProcessERKN8opendnp310HeaderInfoERKNS1_11ICollectionINS1_7IndexedINS1_11OctetStringEEEEE, @function
_ZN8asiodnp318PrintingSOEHandler7ProcessERKN8opendnp310HeaderInfoERKNS1_11ICollectionINS1_7IndexedINS1_11OctetStringEEEEE:
.LFB2694:
	.cfi_startproc
	endbr64
	subq	$40, %rsp
	.cfi_def_cfa_offset 48
	movq	%rdx, %rdi
	movq	%fs:40, %rax
	movq	%rax, 24(%rsp)
	xorl	%eax, %eax
	leaq	16+_ZTVN8opendnp314FunctorVisitorINS_7IndexedINS_11OctetStringEEEZN8asiodnp318PrintingSOEHandler7ProcessERKNS_10HeaderInfoERKNS_11ICollectionIS3_EEEUlRKS3_E_EE(%rip), %rax
	movq	%rsp, %rsi
	movq	%rax, (%rsp)
	movq	(%rdx), %rax
	call	*8(%rax)
	movq	24(%rsp), %rax
	xorq	%fs:40, %rax
	jne	.L36
	addq	$40, %rsp
	.cfi_remember_state
	.cfi_def_cfa_offset 8
	ret
.L36:
	.cfi_restore_state
	call	__stack_chk_fail@PLT
	.cfi_endproc
.LFE2694:
	.size	_ZN8asiodnp318PrintingSOEHandler7ProcessERKN8opendnp310HeaderInfoERKNS1_11ICollectionINS1_7IndexedINS1_11OctetStringEEEEE, .-_ZN8asiodnp318PrintingSOEHandler7ProcessERKN8opendnp310HeaderInfoERKNS1_11ICollectionINS1_7IndexedINS1_11OctetStringEEEEE
	.align 2
	.p2align 4
	.globl	_ZN8asiodnp318PrintingSOEHandler7ProcessERKN8opendnp310HeaderInfoERKNS1_11ICollectionINS1_7IndexedINS1_15TimeAndIntervalEEEEE
	.type	_ZN8asiodnp318PrintingSOEHandler7ProcessERKN8opendnp310HeaderInfoERKNS1_11ICollectionINS1_7IndexedINS1_15TimeAndIntervalEEEEE, @function
_ZN8asiodnp318PrintingSOEHandler7ProcessERKN8opendnp310HeaderInfoERKNS1_11ICollectionINS1_7IndexedINS1_15TimeAndIntervalEEEEE:
.LFB2698:
	.cfi_startproc
	endbr64
	subq	$40, %rsp
	.cfi_def_cfa_offset 48
	movq	%rdx, %rdi
	movq	%fs:40, %rax
	movq	%rax, 24(%rsp)
	xorl	%eax, %eax
	leaq	16+_ZTVN8opendnp314FunctorVisitorINS_7IndexedINS_15TimeAndIntervalEEEZN8asiodnp318PrintingSOEHandler7ProcessERKNS_10HeaderInfoERKNS_11ICollectionIS3_EEEUlRKS3_E_EE(%rip), %rax
	movq	%rsp, %rsi
	movq	%rax, (%rsp)
	movq	(%rdx), %rax
	call	*8(%rax)
	movq	24(%rsp), %rax
	xorq	%fs:40, %rax
	jne	.L40
	addq	$40, %rsp
	.cfi_remember_state
	.cfi_def_cfa_offset 8
	ret
.L40:
	.cfi_restore_state
	call	__stack_chk_fail@PLT
	.cfi_endproc
.LFE2698:
	.size	_ZN8asiodnp318PrintingSOEHandler7ProcessERKN8opendnp310HeaderInfoERKNS1_11ICollectionINS1_7IndexedINS1_15TimeAndIntervalEEEEE, .-_ZN8asiodnp318PrintingSOEHandler7ProcessERKN8opendnp310HeaderInfoERKNS1_11ICollectionINS1_7IndexedINS1_15TimeAndIntervalEEEEE
	.align 2
	.p2align 4
	.globl	_ZN8asiodnp318PrintingSOEHandler7ProcessERKN8opendnp310HeaderInfoERKNS1_11ICollectionINS1_7IndexedINS1_18BinaryCommandEventEEEEE
	.type	_ZN8asiodnp318PrintingSOEHandler7ProcessERKN8opendnp310HeaderInfoERKNS1_11ICollectionINS1_7IndexedINS1_18BinaryCommandEventEEEEE, @function
_ZN8asiodnp318PrintingSOEHandler7ProcessERKN8opendnp310HeaderInfoERKNS1_11ICollectionINS1_7IndexedINS1_18BinaryCommandEventEEEEE:
.LFB2702:
	.cfi_startproc
	endbr64
	subq	$40, %rsp
	.cfi_def_cfa_offset 48
	movq	%rdx, %rdi
	movq	%fs:40, %rax
	movq	%rax, 24(%rsp)
	xorl	%eax, %eax
	leaq	16+_ZTVN8opendnp314FunctorVisitorINS_7IndexedINS_18BinaryCommandEventEEEZN8asiodnp318PrintingSOEHandler7ProcessERKNS_10HeaderInfoERKNS_11ICollectionIS3_EEEUlRKS3_E_EE(%rip), %rax
	movq	%rsp, %rsi
	movq	%rax, (%rsp)
	movq	(%rdx), %rax
	call	*8(%rax)
	movq	24(%rsp), %rax
	xorq	%fs:40, %rax
	jne	.L44
	addq	$40, %rsp
	.cfi_remember_state
	.cfi_def_cfa_offset 8
	ret
.L44:
	.cfi_restore_state
	call	__stack_chk_fail@PLT
	.cfi_endproc
.LFE2702:
	.size	_ZN8asiodnp318PrintingSOEHandler7ProcessERKN8opendnp310HeaderInfoERKNS1_11ICollectionINS1_7IndexedINS1_18BinaryCommandEventEEEEE, .-_ZN8asiodnp318PrintingSOEHandler7ProcessERKN8opendnp310HeaderInfoERKNS1_11ICollectionINS1_7IndexedINS1_18BinaryCommandEventEEEEE
	.align 2
	.p2align 4
	.globl	_ZN8asiodnp318PrintingSOEHandler7ProcessERKN8opendnp310HeaderInfoERKNS1_11ICollectionINS1_7IndexedINS1_18AnalogCommandEventEEEEE
	.type	_ZN8asiodnp318PrintingSOEHandler7ProcessERKN8opendnp310HeaderInfoERKNS1_11ICollectionINS1_7IndexedINS1_18AnalogCommandEventEEEEE, @function
_ZN8asiodnp318PrintingSOEHandler7ProcessERKN8opendnp310HeaderInfoERKNS1_11ICollectionINS1_7IndexedINS1_18AnalogCommandEventEEEEE:
.LFB2706:
	.cfi_startproc
	endbr64
	subq	$40, %rsp
	.cfi_def_cfa_offset 48
	movq	%rdx, %rdi
	movq	%fs:40, %rax
	movq	%rax, 24(%rsp)
	xorl	%eax, %eax
	leaq	16+_ZTVN8opendnp314FunctorVisitorINS_7IndexedINS_18AnalogCommandEventEEEZN8asiodnp318PrintingSOEHandler7ProcessERKNS_10HeaderInfoERKNS_11ICollectionIS3_EEEUlRKS3_E_EE(%rip), %rax
	movq	%rsp, %rsi
	movq	%rax, (%rsp)
	movq	(%rdx), %rax
	call	*8(%rax)
	movq	24(%rsp), %rax
	xorq	%fs:40, %rax
	jne	.L48
	addq	$40, %rsp
	.cfi_remember_state
	.cfi_def_cfa_offset 8
	ret
.L48:
	.cfi_restore_state
	call	__stack_chk_fail@PLT
	.cfi_endproc
.LFE2706:
	.size	_ZN8asiodnp318PrintingSOEHandler7ProcessERKN8opendnp310HeaderInfoERKNS1_11ICollectionINS1_7IndexedINS1_18AnalogCommandEventEEEEE, .-_ZN8asiodnp318PrintingSOEHandler7ProcessERKN8opendnp310HeaderInfoERKNS1_11ICollectionINS1_7IndexedINS1_18AnalogCommandEventEEEEE
	.align 2
	.p2align 4
	.globl	_ZN8asiodnp318PrintingSOEHandler7ProcessERKN8opendnp310HeaderInfoERKNS1_11ICollectionINS1_7IndexedINS1_12SecurityStatEEEEE
	.type	_ZN8asiodnp318PrintingSOEHandler7ProcessERKN8opendnp310HeaderInfoERKNS1_11ICollectionINS1_7IndexedINS1_12SecurityStatEEEEE, @function
_ZN8asiodnp318PrintingSOEHandler7ProcessERKN8opendnp310HeaderInfoERKNS1_11ICollectionINS1_7IndexedINS1_12SecurityStatEEEEE:
.LFB2710:
	.cfi_startproc
	endbr64
	subq	$40, %rsp
	.cfi_def_cfa_offset 48
	movq	%rdx, %rdi
	movq	%fs:40, %rax
	movq	%rax, 24(%rsp)
	xorl	%eax, %eax
	leaq	16+_ZTVN8opendnp314FunctorVisitorINS_7IndexedINS_12SecurityStatEEEZN8asiodnp318PrintingSOEHandler7ProcessERKNS_10HeaderInfoERKNS_11ICollectionIS3_EEEUlRKS3_E_EE(%rip), %rax
	movq	%rsp, %rsi
	movq	%rax, (%rsp)
	movq	(%rdx), %rax
	call	*8(%rax)
	movq	24(%rsp), %rax
	xorq	%fs:40, %rax
	jne	.L52
	addq	$40, %rsp
	.cfi_remember_state
	.cfi_def_cfa_offset 8
	ret
.L52:
	.cfi_restore_state
	call	__stack_chk_fail@PLT
	.cfi_endproc
.LFE2710:
	.size	_ZN8asiodnp318PrintingSOEHandler7ProcessERKN8opendnp310HeaderInfoERKNS1_11ICollectionINS1_7IndexedINS1_12SecurityStatEEEEE, .-_ZN8asiodnp318PrintingSOEHandler7ProcessERKN8opendnp310HeaderInfoERKNS1_11ICollectionINS1_7IndexedINS1_12SecurityStatEEEEE
	.align 2
	.p2align 4
	.globl	_ZN8asiodnp318PrintingSOEHandler7ProcessERKN8opendnp310HeaderInfoERKNS1_11ICollectionIN7openpal10UInt48TypeEEE
	.type	_ZN8asiodnp318PrintingSOEHandler7ProcessERKN8opendnp310HeaderInfoERKNS1_11ICollectionIN7openpal10UInt48TypeEEE, @function
_ZN8asiodnp318PrintingSOEHandler7ProcessERKN8opendnp310HeaderInfoERKNS1_11ICollectionIN7openpal10UInt48TypeEEE:
.LFB2714:
	.cfi_startproc
	endbr64
	subq	$40, %rsp
	.cfi_def_cfa_offset 48
	movq	%rdx, %rdi
	movq	%fs:40, %rax
	movq	%rax, 24(%rsp)
	xorl	%eax, %eax
	leaq	16+_ZTVN8opendnp314FunctorVisitorIN7openpal10UInt48TypeEZN8asiodnp318PrintingSOEHandler7ProcessERKNS_10HeaderInfoERKNS_11ICollectionIS2_EEEUlRKS2_E_EE(%rip), %rax
	movq	%rsp, %rsi
	movq	%rax, (%rsp)
	movq	(%rdx), %rax
	call	*8(%rax)
	movq	24(%rsp), %rax
	xorq	%fs:40, %rax
	jne	.L56
	addq	$40, %rsp
	.cfi_remember_state
	.cfi_def_cfa_offset 8
	ret
.L56:
	.cfi_restore_state
	call	__stack_chk_fail@PLT
	.cfi_endproc
.LFE2714:
	.size	_ZN8asiodnp318PrintingSOEHandler7ProcessERKN8opendnp310HeaderInfoERKNS1_11ICollectionIN7openpal10UInt48TypeEEE, .-_ZN8asiodnp318PrintingSOEHandler7ProcessERKN8opendnp310HeaderInfoERKNS1_11ICollectionIN7openpal10UInt48TypeEEE
	.section	.text._ZN8asiodnp318PrintingSOEHandlerD2Ev,"axG",@progbits,_ZN8asiodnp318PrintingSOEHandlerD5Ev,comdat
	.align 2
	.p2align 4
	.weak	_ZN8asiodnp318PrintingSOEHandlerD2Ev
	.type	_ZN8asiodnp318PrintingSOEHandlerD2Ev, @function
_ZN8asiodnp318PrintingSOEHandlerD2Ev:
.LFB3543:
	.cfi_startproc
	endbr64
	ret
	.cfi_endproc
.LFE3543:
	.size	_ZN8asiodnp318PrintingSOEHandlerD2Ev, .-_ZN8asiodnp318PrintingSOEHandlerD2Ev
	.weak	_ZN8asiodnp318PrintingSOEHandlerD1Ev
	.set	_ZN8asiodnp318PrintingSOEHandlerD1Ev,_ZN8asiodnp318PrintingSOEHandlerD2Ev
	.section	.text._ZN8asiodnp318PrintingSOEHandlerD0Ev,"axG",@progbits,_ZN8asiodnp318PrintingSOEHandlerD5Ev,comdat
	.align 2
	.p2align 4
	.weak	_ZN8asiodnp318PrintingSOEHandlerD0Ev
	.type	_ZN8asiodnp318PrintingSOEHandlerD0Ev, @function
_ZN8asiodnp318PrintingSOEHandlerD0Ev:
.LFB3545:
	.cfi_startproc
	endbr64
	movl	$8, %esi
	jmp	_ZdlPvm@PLT
	.cfi_endproc
.LFE3545:
	.size	_ZN8asiodnp318PrintingSOEHandlerD0Ev, .-_ZN8asiodnp318PrintingSOEHandlerD0Ev
	.section	.rodata._ZN8opendnp314FunctorVisitorINS_7IndexedINS_15DoubleBitBinaryEEEZN8asiodnp318PrintingSOEHandler8PrintAllIS2_EEvRKNS_10HeaderInfoERKNS_11ICollectionINS1_IT_EEEEEUlRKS3_E_E7OnValueESH_.str1.1,"aMS",@progbits,1
.LC0:
	.string	"["
.LC1:
	.string	"] : "
	.section	.rodata._ZN8opendnp314FunctorVisitorINS_7IndexedINS_15DoubleBitBinaryEEEZN8asiodnp318PrintingSOEHandler8PrintAllIS2_EEvRKNS_10HeaderInfoERKNS_11ICollectionINS1_IT_EEEEEUlRKS3_E_E7OnValueESH_.str1.8,"aMS",@progbits,1
	.align 8
.LC2:
	.string	"basic_string::_M_construct null not valid"
	.section	.rodata._ZN8opendnp314FunctorVisitorINS_7IndexedINS_15DoubleBitBinaryEEEZN8asiodnp318PrintingSOEHandler8PrintAllIS2_EEvRKNS_10HeaderInfoERKNS_11ICollectionINS1_IT_EEEEEUlRKS3_E_E7OnValueESH_.str1.1
.LC3:
	.string	" : "
	.section	.text._ZN8opendnp314FunctorVisitorINS_7IndexedINS_15DoubleBitBinaryEEEZN8asiodnp318PrintingSOEHandler8PrintAllIS2_EEvRKNS_10HeaderInfoERKNS_11ICollectionINS1_IT_EEEEEUlRKS3_E_E7OnValueESH_,"axG",@progbits,_ZN8opendnp314FunctorVisitorINS_7IndexedINS_15DoubleBitBinaryEEEZN8asiodnp318PrintingSOEHandler8PrintAllIS2_EEvRKNS_10HeaderInfoERKNS_11ICollectionINS1_IT_EEEEEUlRKS3_E_E7OnValueESH_,comdat
	.align 2
	.p2align 4
	.weak	_ZN8opendnp314FunctorVisitorINS_7IndexedINS_15DoubleBitBinaryEEEZN8asiodnp318PrintingSOEHandler8PrintAllIS2_EEvRKNS_10HeaderInfoERKNS_11ICollectionINS1_IT_EEEEEUlRKS3_E_E7OnValueESH_
	.type	_ZN8opendnp314FunctorVisitorINS_7IndexedINS_15DoubleBitBinaryEEEZN8asiodnp318PrintingSOEHandler8PrintAllIS2_EEvRKNS_10HeaderInfoERKNS_11ICollectionINS1_IT_EEEEEUlRKS3_E_E7OnValueESH_, @function
_ZN8opendnp314FunctorVisitorINS_7IndexedINS_15DoubleBitBinaryEEEZN8asiodnp318PrintingSOEHandler8PrintAllIS2_EEvRKNS_10HeaderInfoERKNS_11ICollectionINS1_IT_EEEEEUlRKS3_E_E7OnValueESH_:
.LFB3575:
	.cfi_startproc
	.cfi_personality 0x9b,DW.ref.__gxx_personality_v0
	.cfi_lsda 0x1b,.LLSDA3575
	endbr64
	pushq	%r15
	.cfi_def_cfa_offset 16
	.cfi_offset 15, -16
	movl	$1, %edx
	pushq	%r14
	.cfi_def_cfa_offset 24
	.cfi_offset 14, -24
	pushq	%r13
	.cfi_def_cfa_offset 32
	.cfi_offset 13, -32
	pushq	%r12
	.cfi_def_cfa_offset 40
	.cfi_offset 12, -40
	pushq	%rbp
	.cfi_def_cfa_offset 48
	.cfi_offset 6, -48
	pushq	%rbx
	.cfi_def_cfa_offset 56
	.cfi_offset 3, -56
	movq	%rsi, %rbx
	subq	$72, %rsp
	.cfi_def_cfa_offset 128
	movq	_ZSt4cout@GOTPCREL(%rip), %r12
	movzwl	24(%rsi), %ebp
	leaq	.LC0(%rip), %rsi
	movq	%fs:40, %rax
	movq	%rax, 56(%rsp)
	xorl	%eax, %eax
	leaq	32(%rsp), %r13
	movq	%r12, %rdi
.LEHB0:
	call	_ZSt16__ostream_insertIcSt11char_traitsIcEERSt13basic_ostreamIT_T0_ES6_PKS3_l@PLT
	movzwl	%bp, %esi
	movq	%r12, %rdi
	call	_ZNSo9_M_insertImEERSoT_@PLT
	movl	$4, %edx
	leaq	.LC1(%rip), %rsi
	movq	%rax, %rdi
	movq	%rax, %rbp
	call	_ZSt16__ostream_insertIcSt11char_traitsIcEERSt13basic_ostreamIT_T0_ES6_PKS3_l@PLT
	movzbl	16(%rbx), %edi
	call	_ZN8opendnp317DoubleBitToStringENS_9DoubleBitE@PLT
.LEHE0:
	movq	%r13, 16(%rsp)
	testq	%rax, %rax
	je	.L76
	movq	%rax, %rdi
	movq	%rax, %r15
	call	strlen@PLT
	movq	%rax, 8(%rsp)
	movq	%rax, %r12
	cmpq	$15, %rax
	ja	.L77
	cmpq	$1, %rax
	jne	.L63
	movzbl	(%r15), %edx
	movb	%dl, 32(%rsp)
	movq	%r13, %rdx
.L64:
	movq	%rax, 24(%rsp)
	movq	%rbp, %rdi
	movb	$0, (%rdx,%rax)
	movq	24(%rsp), %rdx
	movq	16(%rsp), %rsi
.LEHB1:
	call	_ZSt16__ostream_insertIcSt11char_traitsIcEERSt13basic_ostreamIT_T0_ES6_PKS3_l@PLT
	movl	$3, %edx
	leaq	.LC3(%rip), %rsi
	movq	%rax, %rdi
	movq	%rax, %rbp
	call	_ZSt16__ostream_insertIcSt11char_traitsIcEERSt13basic_ostreamIT_T0_ES6_PKS3_l@PLT
	movzbl	(%rbx), %esi
	movq	%rbp, %rdi
	call	_ZNSolsEi@PLT
	movl	$3, %edx
	leaq	.LC3(%rip), %rsi
	movq	%rax, %rdi
	movq	%rax, %rbp
	call	_ZSt16__ostream_insertIcSt11char_traitsIcEERSt13basic_ostreamIT_T0_ES6_PKS3_l@PLT
	movq	8(%rbx), %rsi
	movq	%rbp, %rdi
	call	_ZNSo9_M_insertIlEERSoT_@PLT
	movq	%rax, %r12
	movq	(%rax), %rax
	movq	-24(%rax), %rax
	movq	240(%r12,%rax), %rbp
	testq	%rbp, %rbp
	je	.L78
	cmpb	$0, 56(%rbp)
	je	.L66
	movsbl	67(%rbp), %esi
.L67:
	movq	%r12, %rdi
	call	_ZNSo3putEc@PLT
	movq	%rax, %rdi
	call	_ZNSo5flushEv@PLT
	movq	16(%rsp), %rdi
	cmpq	%r13, %rdi
	je	.L59
	call	_ZdlPv@PLT
.L59:
	movq	56(%rsp), %rax
	xorq	%fs:40, %rax
	jne	.L79
	addq	$72, %rsp
	.cfi_remember_state
	.cfi_def_cfa_offset 56
	popq	%rbx
	.cfi_def_cfa_offset 48
	popq	%rbp
	.cfi_def_cfa_offset 40
	popq	%r12
	.cfi_def_cfa_offset 32
	popq	%r13
	.cfi_def_cfa_offset 24
	popq	%r14
	.cfi_def_cfa_offset 16
	popq	%r15
	.cfi_def_cfa_offset 8
	ret
	.p2align 4,,10
	.p2align 3
.L63:
	.cfi_restore_state
	testq	%rax, %rax
	jne	.L80
	movq	%r13, %rdx
	jmp	.L64
	.p2align 4,,10
	.p2align 3
.L66:
	movq	%rbp, %rdi
	call	_ZNKSt5ctypeIcE13_M_widen_initEv@PLT
	movq	0(%rbp), %rax
	movl	$10, %esi
	movq	48(%rax), %rax
	cmpq	_ZNKSt5ctypeIcE8do_widenEc@GOTPCREL(%rip), %rax
	je	.L67
	movq	%rbp, %rdi
	call	*%rax
.LEHE1:
	movsbl	%al, %esi
	jmp	.L67
	.p2align 4,,10
	.p2align 3
.L77:
	leaq	16(%rsp), %r14
	leaq	8(%rsp), %rsi
	xorl	%edx, %edx
	movq	%r14, %rdi
.LEHB2:
	call	_ZNSt7__cxx1112basic_stringIcSt11char_traitsIcESaIcEE9_M_createERmm@PLT
	movq	%rax, 16(%rsp)
	movq	%rax, %rdi
	movq	8(%rsp), %rax
	movq	%rax, 32(%rsp)
.L62:
	movq	%r12, %rdx
	movq	%r15, %rsi
	call	memcpy@PLT
	movq	8(%rsp), %rax
	movq	16(%rsp), %rdx
	jmp	.L64
	.p2align 4,,10
	.p2align 3
.L76:
	leaq	.LC2(%rip), %rdi
	call	_ZSt19__throw_logic_errorPKc@PLT
.LEHE2:
.L79:
	call	__stack_chk_fail@PLT
.L78:
.LEHB3:
	call	_ZSt16__throw_bad_castv@PLT
.LEHE3:
.L80:
	movq	%r13, %rdi
	jmp	.L62
.L74:
	endbr64
	movq	%rax, %rbp
.L69:
	movq	16(%rsp), %rdi
	cmpq	%r13, %rdi
	je	.L70
	call	_ZdlPv@PLT
.L70:
	movq	%rbp, %rdi
.LEHB4:
	call	_Unwind_Resume@PLT
.LEHE4:
	.cfi_endproc
.LFE3575:
	.globl	__gxx_personality_v0
	.section	.gcc_except_table._ZN8opendnp314FunctorVisitorINS_7IndexedINS_15DoubleBitBinaryEEEZN8asiodnp318PrintingSOEHandler8PrintAllIS2_EEvRKNS_10HeaderInfoERKNS_11ICollectionINS1_IT_EEEEEUlRKS3_E_E7OnValueESH_,"aG",@progbits,_ZN8opendnp314FunctorVisitorINS_7IndexedINS_15DoubleBitBinaryEEEZN8asiodnp318PrintingSOEHandler8PrintAllIS2_EEvRKNS_10HeaderInfoERKNS_11ICollectionINS1_IT_EEEEEUlRKS3_E_E7OnValueESH_,comdat
.LLSDA3575:
	.byte	0xff
	.byte	0xff
	.byte	0x1
	.uleb128 .LLSDACSE3575-.LLSDACSB3575
.LLSDACSB3575:
	.uleb128 .LEHB0-.LFB3575
	.uleb128 .LEHE0-.LEHB0
	.uleb128 0
	.uleb128 0
	.uleb128 .LEHB1-.LFB3575
	.uleb128 .LEHE1-.LEHB1
	.uleb128 .L74-.LFB3575
	.uleb128 0
	.uleb128 .LEHB2-.LFB3575
	.uleb128 .LEHE2-.LEHB2
	.uleb128 0
	.uleb128 0
	.uleb128 .LEHB3-.LFB3575
	.uleb128 .LEHE3-.LEHB3
	.uleb128 .L74-.LFB3575
	.uleb128 0
	.uleb128 .LEHB4-.LFB3575
	.uleb128 .LEHE4-.LEHB4
	.uleb128 0
	.uleb128 0
.LLSDACSE3575:
	.section	.text._ZN8opendnp314FunctorVisitorINS_7IndexedINS_15DoubleBitBinaryEEEZN8asiodnp318PrintingSOEHandler8PrintAllIS2_EEvRKNS_10HeaderInfoERKNS_11ICollectionINS1_IT_EEEEEUlRKS3_E_E7OnValueESH_,"axG",@progbits,_ZN8opendnp314FunctorVisitorINS_7IndexedINS_15DoubleBitBinaryEEEZN8asiodnp318PrintingSOEHandler8PrintAllIS2_EEvRKNS_10HeaderInfoERKNS_11ICollectionINS1_IT_EEEEEUlRKS3_E_E7OnValueESH_,comdat
	.size	_ZN8opendnp314FunctorVisitorINS_7IndexedINS_15DoubleBitBinaryEEEZN8asiodnp318PrintingSOEHandler8PrintAllIS2_EEvRKNS_10HeaderInfoERKNS_11ICollectionINS1_IT_EEEEEUlRKS3_E_E7OnValueESH_, .-_ZN8opendnp314FunctorVisitorINS_7IndexedINS_15DoubleBitBinaryEEEZN8asiodnp318PrintingSOEHandler8PrintAllIS2_EEvRKNS_10HeaderInfoERKNS_11ICollectionINS1_IT_EEEEEUlRKS3_E_E7OnValueESH_
	.section	.rodata.str1.1,"aMS",@progbits,1
.LC4:
	.string	"BinaryCommandEvent: "
	.text
	.align 2
	.p2align 4
	.type	_ZN8opendnp314FunctorVisitorINS_7IndexedINS_18BinaryCommandEventEEEZN8asiodnp318PrintingSOEHandler7ProcessERKNS_10HeaderInfoERKNS_11ICollectionIS3_EEEUlRKS3_E_E7OnValueESE_, @function
_ZN8opendnp314FunctorVisitorINS_7IndexedINS_18BinaryCommandEventEEEZN8asiodnp318PrintingSOEHandler7ProcessERKNS_10HeaderInfoERKNS_11ICollectionIS3_EEEUlRKS3_E_E7OnValueESE_:
.LFB3580:
	.cfi_startproc
	endbr64
	pushq	%r12
	.cfi_def_cfa_offset 16
	.cfi_offset 12, -16
	movl	$20, %edx
	pushq	%rbp
	.cfi_def_cfa_offset 24
	.cfi_offset 6, -24
	movq	_ZSt4cout@GOTPCREL(%rip), %rbp
	pushq	%rbx
	.cfi_def_cfa_offset 32
	.cfi_offset 3, -32
	movq	%rsi, %rbx
	leaq	.LC4(%rip), %rsi
	movq	%rbp, %rdi
	call	_ZSt16__ostream_insertIcSt11char_traitsIcEERSt13basic_ostreamIT_T0_ES6_PKS3_l@PLT
	movl	$1, %edx
	movq	%rbp, %rdi
	leaq	.LC0(%rip), %rsi
	call	_ZSt16__ostream_insertIcSt11char_traitsIcEERSt13basic_ostreamIT_T0_ES6_PKS3_l@PLT
	movzwl	16(%rbx), %esi
	movq	%rbp, %rdi
	call	_ZNSo9_M_insertImEERSoT_@PLT
	movl	$4, %edx
	leaq	.LC1(%rip), %rsi
	movq	%rax, %rdi
	movq	%rax, %rbp
	call	_ZSt16__ostream_insertIcSt11char_traitsIcEERSt13basic_ostreamIT_T0_ES6_PKS3_l@PLT
	movq	8(%rbx), %rsi
	movq	%rbp, %rdi
	call	_ZNSo9_M_insertIlEERSoT_@PLT
	movl	$3, %edx
	leaq	.LC3(%rip), %rsi
	movq	%rax, %rdi
	movq	%rax, %rbp
	call	_ZSt16__ostream_insertIcSt11char_traitsIcEERSt13basic_ostreamIT_T0_ES6_PKS3_l@PLT
	movzbl	(%rbx), %esi
	movq	%rbp, %rdi
	call	_ZNSo9_M_insertIbEERSoT_@PLT
	movl	$3, %edx
	leaq	.LC3(%rip), %rsi
	movq	%rax, %rdi
	movq	%rax, %rbp
	call	_ZSt16__ostream_insertIcSt11char_traitsIcEERSt13basic_ostreamIT_T0_ES6_PKS3_l@PLT
	movzbl	1(%rbx), %edi
	call	_ZN8opendnp321CommandStatusToStringENS_13CommandStatusE@PLT
	testq	%rax, %rax
	je	.L89
	movq	%rax, %rdi
	movq	%rax, %r12
	call	strlen@PLT
	movq	%r12, %rsi
	movq	%rbp, %rdi
	movq	%rax, %rdx
	call	_ZSt16__ostream_insertIcSt11char_traitsIcEERSt13basic_ostreamIT_T0_ES6_PKS3_l@PLT
.L83:
	movq	0(%rbp), %rax
	movq	-24(%rax), %rax
	movq	240(%rbp,%rax), %r12
	testq	%r12, %r12
	je	.L90
	cmpb	$0, 56(%r12)
	je	.L85
	movsbl	67(%r12), %esi
.L86:
	movq	%rbp, %rdi
	call	_ZNSo3putEc@PLT
	popq	%rbx
	.cfi_remember_state
	.cfi_def_cfa_offset 24
	popq	%rbp
	.cfi_def_cfa_offset 16
	movq	%rax, %rdi
	popq	%r12
	.cfi_def_cfa_offset 8
	jmp	_ZNSo5flushEv@PLT
	.p2align 4,,10
	.p2align 3
.L85:
	.cfi_restore_state
	movq	%r12, %rdi
	call	_ZNKSt5ctypeIcE13_M_widen_initEv@PLT
	movq	(%r12), %rax
	movl	$10, %esi
	movq	48(%rax), %rax
	cmpq	_ZNKSt5ctypeIcE8do_widenEc@GOTPCREL(%rip), %rax
	je	.L86
	movq	%r12, %rdi
	call	*%rax
	movsbl	%al, %esi
	jmp	.L86
	.p2align 4,,10
	.p2align 3
.L89:
	movq	0(%rbp), %rax
	movq	-24(%rax), %rdi
	addq	%rbp, %rdi
	movl	32(%rdi), %esi
	orl	$1, %esi
	call	_ZNSt9basic_iosIcSt11char_traitsIcEE5clearESt12_Ios_Iostate@PLT
	jmp	.L83
.L90:
	call	_ZSt16__throw_bad_castv@PLT
	.cfi_endproc
.LFE3580:
	.size	_ZN8opendnp314FunctorVisitorINS_7IndexedINS_18BinaryCommandEventEEEZN8asiodnp318PrintingSOEHandler7ProcessERKNS_10HeaderInfoERKNS_11ICollectionIS3_EEEUlRKS3_E_E7OnValueESE_, .-_ZN8opendnp314FunctorVisitorINS_7IndexedINS_18BinaryCommandEventEEEZN8asiodnp318PrintingSOEHandler7ProcessERKNS_10HeaderInfoERKNS_11ICollectionIS3_EEEUlRKS3_E_E7OnValueESE_
	.section	.rodata.str1.1
.LC5:
	.string	"TimeAndInterval: "
	.text
	.align 2
	.p2align 4
	.type	_ZN8opendnp314FunctorVisitorINS_7IndexedINS_15TimeAndIntervalEEEZN8asiodnp318PrintingSOEHandler7ProcessERKNS_10HeaderInfoERKNS_11ICollectionIS3_EEEUlRKS3_E_E7OnValueESE_, @function
_ZN8opendnp314FunctorVisitorINS_7IndexedINS_15TimeAndIntervalEEEZN8asiodnp318PrintingSOEHandler7ProcessERKNS_10HeaderInfoERKNS_11ICollectionIS3_EEEUlRKS3_E_E7OnValueESE_:
.LFB3581:
	.cfi_startproc
	endbr64
	pushq	%r12
	.cfi_def_cfa_offset 16
	.cfi_offset 12, -16
	movl	$17, %edx
	movq	%rsi, %r12
	leaq	.LC5(%rip), %rsi
	pushq	%rbp
	.cfi_def_cfa_offset 24
	.cfi_offset 6, -24
	subq	$8, %rsp
	.cfi_def_cfa_offset 32
	movq	_ZSt4cout@GOTPCREL(%rip), %rbp
	movq	%rbp, %rdi
	call	_ZSt16__ostream_insertIcSt11char_traitsIcEERSt13basic_ostreamIT_T0_ES6_PKS3_l@PLT
	movl	$1, %edx
	movq	%rbp, %rdi
	leaq	.LC0(%rip), %rsi
	call	_ZSt16__ostream_insertIcSt11char_traitsIcEERSt13basic_ostreamIT_T0_ES6_PKS3_l@PLT
	movzwl	16(%r12), %esi
	movq	%rbp, %rdi
	call	_ZNSo9_M_insertImEERSoT_@PLT
	movl	$4, %edx
	leaq	.LC1(%rip), %rsi
	movq	%rax, %rdi
	movq	%rax, %rbp
	call	_ZSt16__ostream_insertIcSt11char_traitsIcEERSt13basic_ostreamIT_T0_ES6_PKS3_l@PLT
	movq	(%r12), %rsi
	movq	%rbp, %rdi
	call	_ZNSo9_M_insertIlEERSoT_@PLT
	movl	$3, %edx
	leaq	.LC3(%rip), %rsi
	movq	%rax, %rdi
	movq	%rax, %rbp
	call	_ZSt16__ostream_insertIcSt11char_traitsIcEERSt13basic_ostreamIT_T0_ES6_PKS3_l@PLT
	movl	8(%r12), %esi
	movq	%rbp, %rdi
	call	_ZNSo9_M_insertImEERSoT_@PLT
	movl	$3, %edx
	leaq	.LC3(%rip), %rsi
	movq	%rax, %rdi
	movq	%rax, %rbp
	call	_ZSt16__ostream_insertIcSt11char_traitsIcEERSt13basic_ostreamIT_T0_ES6_PKS3_l@PLT
	movq	%r12, %rdi
	call	_ZNK8opendnp315TimeAndInterval12GetUnitsEnumEv@PLT
	movl	%eax, %edi
	call	_ZN8opendnp321IntervalUnitsToStringENS_13IntervalUnitsE@PLT
	testq	%rax, %rax
	je	.L99
	movq	%rax, %rdi
	movq	%rax, %r12
	call	strlen@PLT
	movq	%r12, %rsi
	movq	%rbp, %rdi
	movq	%rax, %rdx
	call	_ZSt16__ostream_insertIcSt11char_traitsIcEERSt13basic_ostreamIT_T0_ES6_PKS3_l@PLT
.L93:
	movq	0(%rbp), %rax
	movq	-24(%rax), %rax
	movq	240(%rbp,%rax), %r12
	testq	%r12, %r12
	je	.L100
	cmpb	$0, 56(%r12)
	je	.L95
	movsbl	67(%r12), %esi
.L96:
	movq	%rbp, %rdi
	call	_ZNSo3putEc@PLT
	addq	$8, %rsp
	.cfi_remember_state
	.cfi_def_cfa_offset 24
	popq	%rbp
	.cfi_def_cfa_offset 16
	movq	%rax, %rdi
	popq	%r12
	.cfi_def_cfa_offset 8
	jmp	_ZNSo5flushEv@PLT
	.p2align 4,,10
	.p2align 3
.L95:
	.cfi_restore_state
	movq	%r12, %rdi
	call	_ZNKSt5ctypeIcE13_M_widen_initEv@PLT
	movq	(%r12), %rax
	movl	$10, %esi
	movq	48(%rax), %rax
	cmpq	_ZNKSt5ctypeIcE8do_widenEc@GOTPCREL(%rip), %rax
	je	.L96
	movq	%r12, %rdi
	call	*%rax
	movsbl	%al, %esi
	jmp	.L96
	.p2align 4,,10
	.p2align 3
.L99:
	movq	0(%rbp), %rax
	movq	-24(%rax), %rdi
	addq	%rbp, %rdi
	movl	32(%rdi), %esi
	orl	$1, %esi
	call	_ZNSt9basic_iosIcSt11char_traitsIcEE5clearESt12_Ios_Iostate@PLT
	jmp	.L93
.L100:
	call	_ZSt16__throw_bad_castv@PLT
	.cfi_endproc
.LFE3581:
	.size	_ZN8opendnp314FunctorVisitorINS_7IndexedINS_15TimeAndIntervalEEEZN8asiodnp318PrintingSOEHandler7ProcessERKNS_10HeaderInfoERKNS_11ICollectionIS3_EEEUlRKS3_E_E7OnValueESE_, .-_ZN8opendnp314FunctorVisitorINS_7IndexedINS_15TimeAndIntervalEEEZN8asiodnp318PrintingSOEHandler7ProcessERKNS_10HeaderInfoERKNS_11ICollectionIS3_EEEUlRKS3_E_E7OnValueESE_
	.section	.rodata.str1.1
.LC6:
	.string	"OctetString "
.LC7:
	.string	" ["
.LC8:
	.string	"] : Size : "
	.text
	.align 2
	.p2align 4
	.type	_ZN8opendnp314FunctorVisitorINS_7IndexedINS_11OctetStringEEEZN8asiodnp318PrintingSOEHandler7ProcessERKNS_10HeaderInfoERKNS_11ICollectionIS3_EEEUlRKS3_E_E7OnValueESE_, @function
_ZN8opendnp314FunctorVisitorINS_7IndexedINS_11OctetStringEEEZN8asiodnp318PrintingSOEHandler7ProcessERKNS_10HeaderInfoERKNS_11ICollectionIS3_EEEUlRKS3_E_E7OnValueESE_:
.LFB3582:
	.cfi_startproc
	endbr64
	pushq	%r12
	.cfi_def_cfa_offset 16
	.cfi_offset 12, -16
	movl	$12, %edx
	movq	%rsi, %r12
	leaq	.LC6(%rip), %rsi
	pushq	%rbp
	.cfi_def_cfa_offset 24
	.cfi_offset 6, -24
	subq	$8, %rsp
	.cfi_def_cfa_offset 32
	movq	_ZSt4cout@GOTPCREL(%rip), %rbp
	movq	%rbp, %rdi
	call	_ZSt16__ostream_insertIcSt11char_traitsIcEERSt13basic_ostreamIT_T0_ES6_PKS3_l@PLT
	movl	$2, %edx
	movq	%rbp, %rdi
	leaq	.LC7(%rip), %rsi
	call	_ZSt16__ostream_insertIcSt11char_traitsIcEERSt13basic_ostreamIT_T0_ES6_PKS3_l@PLT
	movq	%rbp, %rdi
	movzwl	272(%r12), %esi
	call	_ZNSo9_M_insertImEERSoT_@PLT
	movl	$11, %edx
	leaq	.LC8(%rip), %rsi
	movq	%rax, %rdi
	movq	%rax, %rbp
	call	_ZSt16__ostream_insertIcSt11char_traitsIcEERSt13basic_ostreamIT_T0_ES6_PKS3_l@PLT
	movq	%r12, %rdi
	call	_ZNK8opendnp39OctetData8ToRSliceEv@PLT
	movq	%rbp, %rdi
	movl	%eax, %esi
	call	_ZNSo9_M_insertImEERSoT_@PLT
	movq	%rax, %rbp
	movq	(%rax), %rax
	movq	-24(%rax), %rax
	movq	240(%rbp,%rax), %r12
	testq	%r12, %r12
	je	.L107
	cmpb	$0, 56(%r12)
	je	.L103
	movsbl	67(%r12), %esi
.L104:
	movq	%rbp, %rdi
	call	_ZNSo3putEc@PLT
	addq	$8, %rsp
	.cfi_remember_state
	.cfi_def_cfa_offset 24
	popq	%rbp
	.cfi_def_cfa_offset 16
	movq	%rax, %rdi
	popq	%r12
	.cfi_def_cfa_offset 8
	jmp	_ZNSo5flushEv@PLT
	.p2align 4,,10
	.p2align 3
.L103:
	.cfi_restore_state
	movq	%r12, %rdi
	call	_ZNKSt5ctypeIcE13_M_widen_initEv@PLT
	movq	(%r12), %rax
	movl	$10, %esi
	movq	48(%rax), %rax
	cmpq	_ZNKSt5ctypeIcE8do_widenEc@GOTPCREL(%rip), %rax
	je	.L104
	movq	%r12, %rdi
	call	*%rax
	movsbl	%al, %esi
	jmp	.L104
.L107:
	call	_ZSt16__throw_bad_castv@PLT
	.cfi_endproc
.LFE3582:
	.size	_ZN8opendnp314FunctorVisitorINS_7IndexedINS_11OctetStringEEEZN8asiodnp318PrintingSOEHandler7ProcessERKNS_10HeaderInfoERKNS_11ICollectionIS3_EEEUlRKS3_E_E7OnValueESE_, .-_ZN8opendnp314FunctorVisitorINS_7IndexedINS_11OctetStringEEEZN8asiodnp318PrintingSOEHandler7ProcessERKNS_10HeaderInfoERKNS_11ICollectionIS3_EEEUlRKS3_E_E7OnValueESE_
	.section	.rodata.str1.1
.LC9:
	.string	"SecurityStat: "
	.text
	.align 2
	.p2align 4
	.type	_ZN8opendnp314FunctorVisitorINS_7IndexedINS_12SecurityStatEEEZN8asiodnp318PrintingSOEHandler7ProcessERKNS_10HeaderInfoERKNS_11ICollectionIS3_EEEUlRKS3_E_E7OnValueESE_, @function
_ZN8opendnp314FunctorVisitorINS_7IndexedINS_12SecurityStatEEEZN8asiodnp318PrintingSOEHandler7ProcessERKNS_10HeaderInfoERKNS_11ICollectionIS3_EEEUlRKS3_E_E7OnValueESE_:
.LFB3578:
	.cfi_startproc
	endbr64
	pushq	%r12
	.cfi_def_cfa_offset 16
	.cfi_offset 12, -16
	movl	$14, %edx
	pushq	%rbp
	.cfi_def_cfa_offset 24
	.cfi_offset 6, -24
	movq	_ZSt4cout@GOTPCREL(%rip), %rbp
	pushq	%rbx
	.cfi_def_cfa_offset 32
	.cfi_offset 3, -32
	movq	%rsi, %rbx
	leaq	.LC9(%rip), %rsi
	movq	%rbp, %rdi
	call	_ZSt16__ostream_insertIcSt11char_traitsIcEERSt13basic_ostreamIT_T0_ES6_PKS3_l@PLT
	movl	$1, %edx
	movq	%rbp, %rdi
	leaq	.LC0(%rip), %rsi
	call	_ZSt16__ostream_insertIcSt11char_traitsIcEERSt13basic_ostreamIT_T0_ES6_PKS3_l@PLT
	movzwl	24(%rbx), %esi
	movq	%rbp, %rdi
	call	_ZNSo9_M_insertImEERSoT_@PLT
	movl	$4, %edx
	leaq	.LC1(%rip), %rsi
	movq	%rax, %rdi
	movq	%rax, %rbp
	call	_ZSt16__ostream_insertIcSt11char_traitsIcEERSt13basic_ostreamIT_T0_ES6_PKS3_l@PLT
	movq	16(%rbx), %rsi
	movq	%rbp, %rdi
	call	_ZNSo9_M_insertIlEERSoT_@PLT
	movl	$3, %edx
	leaq	.LC3(%rip), %rsi
	movq	%rax, %rdi
	movq	%rax, %rbp
	call	_ZSt16__ostream_insertIcSt11char_traitsIcEERSt13basic_ostreamIT_T0_ES6_PKS3_l@PLT
	movl	8(%rbx), %esi
	movq	%rbp, %rdi
	call	_ZNSo9_M_insertImEERSoT_@PLT
	movl	$3, %edx
	leaq	.LC3(%rip), %rsi
	movq	%rax, %rdi
	movq	%rax, %rbp
	call	_ZSt16__ostream_insertIcSt11char_traitsIcEERSt13basic_ostreamIT_T0_ES6_PKS3_l@PLT
	movzbl	(%rbx), %esi
	movq	%rbp, %rdi
	call	_ZNSolsEi@PLT
	movl	$3, %edx
	leaq	.LC3(%rip), %rsi
	movq	%rax, %rdi
	movq	%rax, %rbp
	call	_ZSt16__ostream_insertIcSt11char_traitsIcEERSt13basic_ostreamIT_T0_ES6_PKS3_l@PLT
	movzwl	4(%rbx), %esi
	movq	%rbp, %rdi
	call	_ZNSo9_M_insertImEERSoT_@PLT
	movq	%rax, %rbp
	movq	(%rax), %rax
	movq	-24(%rax), %rax
	movq	240(%rbp,%rax), %r12
	testq	%r12, %r12
	je	.L114
	cmpb	$0, 56(%r12)
	je	.L110
	movsbl	67(%r12), %esi
.L111:
	movq	%rbp, %rdi
	call	_ZNSo3putEc@PLT
	popq	%rbx
	.cfi_remember_state
	.cfi_def_cfa_offset 24
	popq	%rbp
	.cfi_def_cfa_offset 16
	movq	%rax, %rdi
	popq	%r12
	.cfi_def_cfa_offset 8
	jmp	_ZNSo5flushEv@PLT
	.p2align 4,,10
	.p2align 3
.L110:
	.cfi_restore_state
	movq	%r12, %rdi
	call	_ZNKSt5ctypeIcE13_M_widen_initEv@PLT
	movq	(%r12), %rax
	movl	$10, %esi
	movq	48(%rax), %rax
	cmpq	_ZNKSt5ctypeIcE8do_widenEc@GOTPCREL(%rip), %rax
	je	.L111
	movq	%r12, %rdi
	call	*%rax
	movsbl	%al, %esi
	jmp	.L111
.L114:
	call	_ZSt16__throw_bad_castv@PLT
	.cfi_endproc
.LFE3578:
	.size	_ZN8opendnp314FunctorVisitorINS_7IndexedINS_12SecurityStatEEEZN8asiodnp318PrintingSOEHandler7ProcessERKNS_10HeaderInfoERKNS_11ICollectionIS3_EEEUlRKS3_E_E7OnValueESE_, .-_ZN8opendnp314FunctorVisitorINS_7IndexedINS_12SecurityStatEEEZN8asiodnp318PrintingSOEHandler7ProcessERKNS_10HeaderInfoERKNS_11ICollectionIS3_EEEUlRKS3_E_E7OnValueESE_
	.section	.rodata.str1.1
.LC10:
	.string	"DNPTime: "
	.text
	.align 2
	.p2align 4
	.type	_ZN8opendnp314FunctorVisitorIN7openpal10UInt48TypeEZN8asiodnp318PrintingSOEHandler7ProcessERKNS_10HeaderInfoERKNS_11ICollectionIS2_EEEUlRKS2_E_E7OnValueESD_, @function
_ZN8opendnp314FunctorVisitorIN7openpal10UInt48TypeEZN8asiodnp318PrintingSOEHandler7ProcessERKNS_10HeaderInfoERKNS_11ICollectionIS2_EEEUlRKS2_E_E7OnValueESD_:
.LFB3577:
	.cfi_startproc
	endbr64
	pushq	%r12
	.cfi_def_cfa_offset 16
	.cfi_offset 12, -16
	movl	$9, %edx
	pushq	%rbp
	.cfi_def_cfa_offset 24
	.cfi_offset 6, -24
	movq	%rsi, %rbp
	leaq	.LC10(%rip), %rsi
	subq	$8, %rsp
	.cfi_def_cfa_offset 32
	movq	_ZSt4cout@GOTPCREL(%rip), %r12
	movq	%r12, %rdi
	call	_ZSt16__ostream_insertIcSt11char_traitsIcEERSt13basic_ostreamIT_T0_ES6_PKS3_l@PLT
	movq	0(%rbp), %rsi
	movq	%r12, %rdi
	call	_ZNSo9_M_insertIlEERSoT_@PLT
	movq	%rax, %rbp
	movq	(%rax), %rax
	movq	-24(%rax), %rax
	movq	240(%rbp,%rax), %r12
	testq	%r12, %r12
	je	.L121
	cmpb	$0, 56(%r12)
	je	.L117
	movsbl	67(%r12), %esi
.L118:
	movq	%rbp, %rdi
	call	_ZNSo3putEc@PLT
	addq	$8, %rsp
	.cfi_remember_state
	.cfi_def_cfa_offset 24
	popq	%rbp
	.cfi_def_cfa_offset 16
	movq	%rax, %rdi
	popq	%r12
	.cfi_def_cfa_offset 8
	jmp	_ZNSo5flushEv@PLT
	.p2align 4,,10
	.p2align 3
.L117:
	.cfi_restore_state
	movq	%r12, %rdi
	call	_ZNKSt5ctypeIcE13_M_widen_initEv@PLT
	movq	(%r12), %rax
	movl	$10, %esi
	movq	48(%rax), %rax
	cmpq	_ZNKSt5ctypeIcE8do_widenEc@GOTPCREL(%rip), %rax
	je	.L118
	movq	%r12, %rdi
	call	*%rax
	movsbl	%al, %esi
	jmp	.L118
.L121:
	call	_ZSt16__throw_bad_castv@PLT
	.cfi_endproc
.LFE3577:
	.size	_ZN8opendnp314FunctorVisitorIN7openpal10UInt48TypeEZN8asiodnp318PrintingSOEHandler7ProcessERKNS_10HeaderInfoERKNS_11ICollectionIS2_EEEUlRKS2_E_E7OnValueESD_, .-_ZN8opendnp314FunctorVisitorIN7openpal10UInt48TypeEZN8asiodnp318PrintingSOEHandler7ProcessERKNS_10HeaderInfoERKNS_11ICollectionIS2_EEEUlRKS2_E_E7OnValueESD_
	.section	.rodata.str1.1
.LC11:
	.string	"AnalogCommandEvent: "
	.text
	.align 2
	.p2align 4
	.type	_ZN8opendnp314FunctorVisitorINS_7IndexedINS_18AnalogCommandEventEEEZN8asiodnp318PrintingSOEHandler7ProcessERKNS_10HeaderInfoERKNS_11ICollectionIS3_EEEUlRKS3_E_E7OnValueESE_, @function
_ZN8opendnp314FunctorVisitorINS_7IndexedINS_18AnalogCommandEventEEEZN8asiodnp318PrintingSOEHandler7ProcessERKNS_10HeaderInfoERKNS_11ICollectionIS3_EEEUlRKS3_E_E7OnValueESE_:
.LFB3579:
	.cfi_startproc
	endbr64
	pushq	%r12
	.cfi_def_cfa_offset 16
	.cfi_offset 12, -16
	movl	$20, %edx
	pushq	%rbp
	.cfi_def_cfa_offset 24
	.cfi_offset 6, -24
	movq	_ZSt4cout@GOTPCREL(%rip), %rbp
	pushq	%rbx
	.cfi_def_cfa_offset 32
	.cfi_offset 3, -32
	movq	%rsi, %rbx
	leaq	.LC11(%rip), %rsi
	movq	%rbp, %rdi
	call	_ZSt16__ostream_insertIcSt11char_traitsIcEERSt13basic_ostreamIT_T0_ES6_PKS3_l@PLT
	movl	$1, %edx
	movq	%rbp, %rdi
	leaq	.LC0(%rip), %rsi
	call	_ZSt16__ostream_insertIcSt11char_traitsIcEERSt13basic_ostreamIT_T0_ES6_PKS3_l@PLT
	movzwl	24(%rbx), %esi
	movq	%rbp, %rdi
	call	_ZNSo9_M_insertImEERSoT_@PLT
	movl	$4, %edx
	leaq	.LC1(%rip), %rsi
	movq	%rax, %rdi
	movq	%rax, %rbp
	call	_ZSt16__ostream_insertIcSt11char_traitsIcEERSt13basic_ostreamIT_T0_ES6_PKS3_l@PLT
	movq	16(%rbx), %rsi
	movq	%rbp, %rdi
	call	_ZNSo9_M_insertIlEERSoT_@PLT
	movl	$3, %edx
	leaq	.LC3(%rip), %rsi
	movq	%rax, %rdi
	movq	%rax, %rbp
	call	_ZSt16__ostream_insertIcSt11char_traitsIcEERSt13basic_ostreamIT_T0_ES6_PKS3_l@PLT
	movsd	(%rbx), %xmm0
	movq	%rbp, %rdi
	call	_ZNSo9_M_insertIdEERSoT_@PLT
	movl	$3, %edx
	leaq	.LC3(%rip), %rsi
	movq	%rax, %rdi
	movq	%rax, %rbp
	call	_ZSt16__ostream_insertIcSt11char_traitsIcEERSt13basic_ostreamIT_T0_ES6_PKS3_l@PLT
	movzbl	8(%rbx), %edi
	call	_ZN8opendnp321CommandStatusToStringENS_13CommandStatusE@PLT
	testq	%rax, %rax
	je	.L130
	movq	%rax, %rdi
	movq	%rax, %r12
	call	strlen@PLT
	movq	%r12, %rsi
	movq	%rbp, %rdi
	movq	%rax, %rdx
	call	_ZSt16__ostream_insertIcSt11char_traitsIcEERSt13basic_ostreamIT_T0_ES6_PKS3_l@PLT
.L124:
	movq	0(%rbp), %rax
	movq	-24(%rax), %rax
	movq	240(%rbp,%rax), %r12
	testq	%r12, %r12
	je	.L131
	cmpb	$0, 56(%r12)
	je	.L126
	movsbl	67(%r12), %esi
.L127:
	movq	%rbp, %rdi
	call	_ZNSo3putEc@PLT
	popq	%rbx
	.cfi_remember_state
	.cfi_def_cfa_offset 24
	popq	%rbp
	.cfi_def_cfa_offset 16
	movq	%rax, %rdi
	popq	%r12
	.cfi_def_cfa_offset 8
	jmp	_ZNSo5flushEv@PLT
	.p2align 4,,10
	.p2align 3
.L126:
	.cfi_restore_state
	movq	%r12, %rdi
	call	_ZNKSt5ctypeIcE13_M_widen_initEv@PLT
	movq	(%r12), %rax
	movl	$10, %esi
	movq	48(%rax), %rax
	cmpq	_ZNKSt5ctypeIcE8do_widenEc@GOTPCREL(%rip), %rax
	je	.L127
	movq	%r12, %rdi
	call	*%rax
	movsbl	%al, %esi
	jmp	.L127
	.p2align 4,,10
	.p2align 3
.L130:
	movq	0(%rbp), %rax
	movq	-24(%rax), %rdi
	addq	%rbp, %rdi
	movl	32(%rdi), %esi
	orl	$1, %esi
	call	_ZNSt9basic_iosIcSt11char_traitsIcEE5clearESt12_Ios_Iostate@PLT
	jmp	.L124
.L131:
	call	_ZSt16__throw_bad_castv@PLT
	.cfi_endproc
.LFE3579:
	.size	_ZN8opendnp314FunctorVisitorINS_7IndexedINS_18AnalogCommandEventEEEZN8asiodnp318PrintingSOEHandler7ProcessERKNS_10HeaderInfoERKNS_11ICollectionIS3_EEEUlRKS3_E_E7OnValueESE_, .-_ZN8opendnp314FunctorVisitorINS_7IndexedINS_18AnalogCommandEventEEEZN8asiodnp318PrintingSOEHandler7ProcessERKNS_10HeaderInfoERKNS_11ICollectionIS3_EEEUlRKS3_E_E7OnValueESE_
	.section	.text._ZNSt7__cxx1115basic_stringbufIcSt11char_traitsIcESaIcEED2Ev,"axG",@progbits,_ZNSt7__cxx1115basic_stringbufIcSt11char_traitsIcESaIcEED5Ev,comdat
	.align 2
	.p2align 4
	.weak	_ZNSt7__cxx1115basic_stringbufIcSt11char_traitsIcESaIcEED2Ev
	.type	_ZNSt7__cxx1115basic_stringbufIcSt11char_traitsIcESaIcEED2Ev, @function
_ZNSt7__cxx1115basic_stringbufIcSt11char_traitsIcESaIcEED2Ev:
.LFB2985:
	.cfi_startproc
	endbr64
	movq	_ZTVNSt7__cxx1115basic_stringbufIcSt11char_traitsIcESaIcEEE@GOTPCREL(%rip), %rax
	pushq	%rbx
	.cfi_def_cfa_offset 16
	.cfi_offset 3, -16
	movq	%rdi, %rbx
	addq	$16, %rax
	movq	%rax, (%rdi)
	movq	72(%rdi), %rdi
	leaq	88(%rbx), %rax
	cmpq	%rax, %rdi
	je	.L133
	call	_ZdlPv@PLT
.L133:
	movq	_ZTVSt15basic_streambufIcSt11char_traitsIcEE@GOTPCREL(%rip), %rax
	leaq	56(%rbx), %rdi
	addq	$16, %rax
	movq	%rax, (%rbx)
	popq	%rbx
	.cfi_def_cfa_offset 8
	jmp	_ZNSt6localeD1Ev@PLT
	.cfi_endproc
.LFE2985:
	.size	_ZNSt7__cxx1115basic_stringbufIcSt11char_traitsIcESaIcEED2Ev, .-_ZNSt7__cxx1115basic_stringbufIcSt11char_traitsIcESaIcEED2Ev
	.weak	_ZNSt7__cxx1115basic_stringbufIcSt11char_traitsIcESaIcEED1Ev
	.set	_ZNSt7__cxx1115basic_stringbufIcSt11char_traitsIcESaIcEED1Ev,_ZNSt7__cxx1115basic_stringbufIcSt11char_traitsIcESaIcEED2Ev
	.section	.text._ZNSt7__cxx1115basic_stringbufIcSt11char_traitsIcESaIcEED0Ev,"axG",@progbits,_ZNSt7__cxx1115basic_stringbufIcSt11char_traitsIcESaIcEED5Ev,comdat
	.align 2
	.p2align 4
	.weak	_ZNSt7__cxx1115basic_stringbufIcSt11char_traitsIcESaIcEED0Ev
	.type	_ZNSt7__cxx1115basic_stringbufIcSt11char_traitsIcESaIcEED0Ev, @function
_ZNSt7__cxx1115basic_stringbufIcSt11char_traitsIcESaIcEED0Ev:
.LFB2987:
	.cfi_startproc
	endbr64
	movq	_ZTVNSt7__cxx1115basic_stringbufIcSt11char_traitsIcESaIcEEE@GOTPCREL(%rip), %rax
	pushq	%rbp
	.cfi_def_cfa_offset 16
	.cfi_offset 6, -16
	movq	%rdi, %rbp
	addq	$16, %rax
	movq	%rax, (%rdi)
	movq	72(%rdi), %rdi
	leaq	88(%rbp), %rax
	cmpq	%rax, %rdi
	je	.L136
	call	_ZdlPv@PLT
.L136:
	movq	_ZTVSt15basic_streambufIcSt11char_traitsIcEE@GOTPCREL(%rip), %rax
	leaq	56(%rbp), %rdi
	addq	$16, %rax
	movq	%rax, 0(%rbp)
	call	_ZNSt6localeD1Ev@PLT
	movq	%rbp, %rdi
	movl	$104, %esi
	popq	%rbp
	.cfi_def_cfa_offset 8
	jmp	_ZdlPvm@PLT
	.cfi_endproc
.LFE2987:
	.size	_ZNSt7__cxx1115basic_stringbufIcSt11char_traitsIcESaIcEED0Ev, .-_ZNSt7__cxx1115basic_stringbufIcSt11char_traitsIcESaIcEED0Ev
	.section	.text.unlikely,"ax",@progbits
.LCOLDB12:
	.text
.LHOTB12:
	.p2align 4
	.type	_ZN8asiodnp318PrintingSOEHandler13ValueToStringIN8opendnp36BinaryEEENSt7__cxx1112basic_stringIcSt11char_traitsIcESaIcEEERKT_.isra.0, @function
_ZN8asiodnp318PrintingSOEHandler13ValueToStringIN8opendnp36BinaryEEENSt7__cxx1112basic_stringIcSt11char_traitsIcESaIcEEERKT_.isra.0:
.LFB3643:
	.cfi_startproc
	.cfi_personality 0x9b,DW.ref.__gxx_personality_v0
	.cfi_lsda 0x1b,.LLSDA3643
	pushq	%r15
	.cfi_def_cfa_offset 16
	.cfi_offset 15, -16
	pushq	%r14
	.cfi_def_cfa_offset 24
	.cfi_offset 14, -24
	pushq	%r13
	.cfi_def_cfa_offset 32
	.cfi_offset 13, -32
	pushq	%r12
	.cfi_def_cfa_offset 40
	.cfi_offset 12, -40
	movq	%rdi, %r12
	pushq	%rbp
	.cfi_def_cfa_offset 48
	.cfi_offset 6, -48
	pushq	%rbx
	.cfi_def_cfa_offset 56
	.cfi_offset 3, -56
	subq	$424, %rsp
	.cfi_def_cfa_offset 480
	movq	%rsi, 16(%rsp)
	leaq	144(%rsp), %r13
	leaq	32(%rsp), %rbp
	movq	%r13, %rdi
	movq	%fs:40, %rax
	movq	%rax, 408(%rsp)
	xorl	%eax, %eax
	call	_ZNSt8ios_baseC2Ev@PLT
	movq	_ZTVSt9basic_iosIcSt11char_traitsIcEE@GOTPCREL(%rip), %rax
	pxor	%xmm0, %xmm0
	xorl	%esi, %esi
	movups	%xmm0, 376(%rsp)
	addq	$16, %rax
	movups	%xmm0, 392(%rsp)
	movq	%rax, 144(%rsp)
	xorl	%eax, %eax
	movw	%ax, 368(%rsp)
	movq	_ZTTNSt7__cxx1119basic_ostringstreamIcSt11char_traitsIcESaIcEEE@GOTPCREL(%rip), %rax
	movq	$0, 360(%rsp)
	movq	8(%rax), %rbx
	movq	16(%rax), %rax
	movq	-24(%rbx), %rdi
	movq	%rbx, 32(%rsp)
	movq	%rax, (%rsp)
	addq	%rbp, %rdi
	movq	%rax, (%rdi)
.LEHB5:
	call	_ZNSt9basic_iosIcSt11char_traitsIcEE4initEPSt15basic_streambufIcS1_E@PLT
.LEHE5:
	movq	_ZTVNSt7__cxx1119basic_ostringstreamIcSt11char_traitsIcESaIcEEE@GOTPCREL(%rip), %rax
	leaq	96(%rsp), %r15
	leaq	40(%rsp), %r14
	movq	%r15, %rdi
	leaq	24(%rax), %rdx
	addq	$64, %rax
	movq	%rax, 144(%rsp)
	movq	_ZTVSt15basic_streambufIcSt11char_traitsIcEE@GOTPCREL(%rip), %rax
	movq	%rdx, %xmm0
	movq	%rdx, 8(%rsp)
	addq	$16, %rax
	movq	%rax, %xmm1
	punpcklqdq	%xmm1, %xmm0
	movaps	%xmm0, 32(%rsp)
	pxor	%xmm0, %xmm0
	movaps	%xmm0, 48(%rsp)
	movaps	%xmm0, 64(%rsp)
	movaps	%xmm0, 80(%rsp)
	call	_ZNSt6localeC1Ev@PLT
	movq	_ZTVNSt7__cxx1115basic_stringbufIcSt11char_traitsIcESaIcEEE@GOTPCREL(%rip), %rax
	movq	%r14, %rsi
	movq	%r13, %rdi
	movl	$16, 104(%rsp)
	addq	$16, %rax
	movb	$0, 128(%rsp)
	movq	%rax, 40(%rsp)
	leaq	128(%rsp), %rax
	movq	%rax, 24(%rsp)
	movq	%rax, 112(%rsp)
	movq	$0, 120(%rsp)
.LEHB6:
	call	_ZNSt9basic_iosIcSt11char_traitsIcEE4initEPSt15basic_streambufIcS1_E@PLT
.LEHE6:
	movq	16(%rsp), %rax
	movq	%rbp, %rdi
	movzbl	(%rax), %esi
.LEHB7:
	call	_ZNSo9_M_insertIbEERSoT_@PLT
.LEHE7:
	movq	80(%rsp), %rax
	leaq	16(%r12), %r14
	movq	$0, 8(%r12)
	movq	%r14, (%r12)
	movb	$0, 16(%r12)
	testq	%rax, %rax
	je	.L142
	movq	64(%rsp), %r8
	movq	72(%rsp), %rcx
	cmpq	%r8, %rax
	ja	.L158
	subq	%rcx, %r8
	xorl	%edx, %edx
	xorl	%esi, %esi
	movq	%r12, %rdi
.LEHB8:
	call	_ZNSt7__cxx1112basic_stringIcSt11char_traitsIcESaIcEE10_M_replaceEmmPKcm@PLT
.L144:
	movq	_ZTVNSt7__cxx1119basic_ostringstreamIcSt11char_traitsIcESaIcEEE@GOTPCREL(%rip), %rax
	movq	8(%rsp), %xmm0
	movq	112(%rsp), %rdi
	addq	$64, %rax
	movq	%rax, 144(%rsp)
	movq	_ZTVNSt7__cxx1115basic_stringbufIcSt11char_traitsIcESaIcEEE@GOTPCREL(%rip), %rax
	addq	$16, %rax
	movq	%rax, %xmm2
	punpcklqdq	%xmm2, %xmm0
	movaps	%xmm0, 32(%rsp)
	cmpq	24(%rsp), %rdi
	je	.L146
	call	_ZdlPv@PLT
.L146:
	movq	_ZTVSt15basic_streambufIcSt11char_traitsIcEE@GOTPCREL(%rip), %rax
	movq	%r15, %rdi
	addq	$16, %rax
	movq	%rax, 40(%rsp)
	call	_ZNSt6localeD1Ev@PLT
	movq	-24(%rbx), %rax
	movq	(%rsp), %rcx
	movq	%r13, %rdi
	movq	%rbx, 32(%rsp)
	movq	%rcx, 32(%rsp,%rax)
	movq	_ZTVSt9basic_iosIcSt11char_traitsIcEE@GOTPCREL(%rip), %rax
	addq	$16, %rax
	movq	%rax, 144(%rsp)
	call	_ZNSt8ios_baseD2Ev@PLT
	movq	408(%rsp), %rax
	xorq	%fs:40, %rax
	jne	.L159
	addq	$424, %rsp
	.cfi_remember_state
	.cfi_def_cfa_offset 56
	movq	%r12, %rax
	popq	%rbx
	.cfi_def_cfa_offset 48
	popq	%rbp
	.cfi_def_cfa_offset 40
	popq	%r12
	.cfi_def_cfa_offset 32
	popq	%r13
	.cfi_def_cfa_offset 24
	popq	%r14
	.cfi_def_cfa_offset 16
	popq	%r15
	.cfi_def_cfa_offset 8
	ret
	.p2align 4,,10
	.p2align 3
.L158:
	.cfi_restore_state
	subq	%rcx, %rax
	xorl	%edx, %edx
	xorl	%esi, %esi
	movq	%r12, %rdi
	movq	%rax, %r8
	call	_ZNSt7__cxx1112basic_stringIcSt11char_traitsIcESaIcEE10_M_replaceEmmPKcm@PLT
	jmp	.L144
	.p2align 4,,10
	.p2align 3
.L142:
	leaq	112(%rsp), %rsi
	movq	%r12, %rdi
	call	_ZNSt7__cxx1112basic_stringIcSt11char_traitsIcESaIcEE9_M_assignERKS4_@PLT
.LEHE8:
	jmp	.L144
.L159:
	call	__stack_chk_fail@PLT
.L151:
	endbr64
	movq	%rax, %r12
	jmp	.L149
.L153:
	endbr64
	movq	%rax, %rbp
	jmp	.L140
.L152:
	endbr64
	movq	%rax, %rbp
	jmp	.L141
.L154:
	endbr64
	movq	%rax, %rbx
	jmp	.L147
	.section	.gcc_except_table,"a",@progbits
.LLSDA3643:
	.byte	0xff
	.byte	0xff
	.byte	0x1
	.uleb128 .LLSDACSE3643-.LLSDACSB3643
.LLSDACSB3643:
	.uleb128 .LEHB5-.LFB3643
	.uleb128 .LEHE5-.LEHB5
	.uleb128 .L152-.LFB3643
	.uleb128 0
	.uleb128 .LEHB6-.LFB3643
	.uleb128 .LEHE6-.LEHB6
	.uleb128 .L153-.LFB3643
	.uleb128 0
	.uleb128 .LEHB7-.LFB3643
	.uleb128 .LEHE7-.LEHB7
	.uleb128 .L151-.LFB3643
	.uleb128 0
	.uleb128 .LEHB8-.LFB3643
	.uleb128 .LEHE8-.LEHB8
	.uleb128 .L154-.LFB3643
	.uleb128 0
.LLSDACSE3643:
	.text
	.cfi_endproc
	.section	.text.unlikely
	.cfi_startproc
	.cfi_personality 0x9b,DW.ref.__gxx_personality_v0
	.cfi_lsda 0x1b,.LLSDAC3643
	.type	_ZN8asiodnp318PrintingSOEHandler13ValueToStringIN8opendnp36BinaryEEENSt7__cxx1112basic_stringIcSt11char_traitsIcESaIcEEERKT_.isra.0.cold, @function
_ZN8asiodnp318PrintingSOEHandler13ValueToStringIN8opendnp36BinaryEEENSt7__cxx1112basic_stringIcSt11char_traitsIcESaIcEEERKT_.isra.0.cold:
.LFSB3643:
.L147:
	.cfi_def_cfa_offset 480
	.cfi_offset 3, -56
	.cfi_offset 6, -48
	.cfi_offset 12, -40
	.cfi_offset 13, -32
	.cfi_offset 14, -24
	.cfi_offset 15, -16
	movq	(%r12), %rdi
	cmpq	%rdi, %r14
	je	.L148
	call	_ZdlPv@PLT
.L148:
	movq	%rbx, %r12
.L149:
	movq	%rbp, %rdi
	call	_ZNSt7__cxx1119basic_ostringstreamIcSt11char_traitsIcESaIcEED1Ev@PLT
	movq	%r12, %rdi
.LEHB9:
	call	_Unwind_Resume@PLT
.L140:
	movq	%r14, %rdi
	call	_ZNSt7__cxx1115basic_stringbufIcSt11char_traitsIcESaIcEED1Ev@PLT
	movq	%rbx, 32(%rsp)
	movq	-24(%rbx), %rax
	movq	(%rsp), %rbx
	movq	%rbx, 32(%rsp,%rax)
.L141:
	movq	_ZTVSt9basic_iosIcSt11char_traitsIcEE@GOTPCREL(%rip), %rax
	movq	%r13, %rdi
	addq	$16, %rax
	movq	%rax, 144(%rsp)
	call	_ZNSt8ios_baseD2Ev@PLT
	movq	%rbp, %rdi
	call	_Unwind_Resume@PLT
.LEHE9:
	.cfi_endproc
.LFE3643:
	.section	.gcc_except_table
.LLSDAC3643:
	.byte	0xff
	.byte	0xff
	.byte	0x1
	.uleb128 .LLSDACSEC3643-.LLSDACSBC3643
.LLSDACSBC3643:
	.uleb128 .LEHB9-.LCOLDB12
	.uleb128 .LEHE9-.LEHB9
	.uleb128 0
	.uleb128 0
.LLSDACSEC3643:
	.section	.text.unlikely
	.text
	.size	_ZN8asiodnp318PrintingSOEHandler13ValueToStringIN8opendnp36BinaryEEENSt7__cxx1112basic_stringIcSt11char_traitsIcESaIcEEERKT_.isra.0, .-_ZN8asiodnp318PrintingSOEHandler13ValueToStringIN8opendnp36BinaryEEENSt7__cxx1112basic_stringIcSt11char_traitsIcESaIcEEERKT_.isra.0
	.section	.text.unlikely
	.size	_ZN8asiodnp318PrintingSOEHandler13ValueToStringIN8opendnp36BinaryEEENSt7__cxx1112basic_stringIcSt11char_traitsIcESaIcEEERKT_.isra.0.cold, .-_ZN8asiodnp318PrintingSOEHandler13ValueToStringIN8opendnp36BinaryEEENSt7__cxx1112basic_stringIcSt11char_traitsIcESaIcEEERKT_.isra.0.cold
.LCOLDE12:
	.text
.LHOTE12:
	.set	_ZN8asiodnp318PrintingSOEHandler13ValueToStringIN8opendnp318BinaryOutputStatusEEENSt7__cxx1112basic_stringIcSt11char_traitsIcESaIcEEERKT_.isra.0,_ZN8asiodnp318PrintingSOEHandler13ValueToStringIN8opendnp36BinaryEEENSt7__cxx1112basic_stringIcSt11char_traitsIcESaIcEEERKT_.isra.0
	.section	.text._ZN8opendnp314FunctorVisitorINS_7IndexedINS_18BinaryOutputStatusEEEZN8asiodnp318PrintingSOEHandler8PrintAllIS2_EEvRKNS_10HeaderInfoERKNS_11ICollectionINS1_IT_EEEEEUlRKS3_E_E7OnValueESH_,"axG",@progbits,_ZN8opendnp314FunctorVisitorINS_7IndexedINS_18BinaryOutputStatusEEEZN8asiodnp318PrintingSOEHandler8PrintAllIS2_EEvRKNS_10HeaderInfoERKNS_11ICollectionINS1_IT_EEEEEUlRKS3_E_E7OnValueESH_,comdat
	.align 2
	.p2align 4
	.weak	_ZN8opendnp314FunctorVisitorINS_7IndexedINS_18BinaryOutputStatusEEEZN8asiodnp318PrintingSOEHandler8PrintAllIS2_EEvRKNS_10HeaderInfoERKNS_11ICollectionINS1_IT_EEEEEUlRKS3_E_E7OnValueESH_
	.type	_ZN8opendnp314FunctorVisitorINS_7IndexedINS_18BinaryOutputStatusEEEZN8asiodnp318PrintingSOEHandler8PrintAllIS2_EEvRKNS_10HeaderInfoERKNS_11ICollectionINS1_IT_EEEEEUlRKS3_E_E7OnValueESH_, @function
_ZN8opendnp314FunctorVisitorINS_7IndexedINS_18BinaryOutputStatusEEEZN8asiodnp318PrintingSOEHandler8PrintAllIS2_EEvRKNS_10HeaderInfoERKNS_11ICollectionINS1_IT_EEEEEUlRKS3_E_E7OnValueESH_:
.LFB3571:
	.cfi_startproc
	.cfi_personality 0x9b,DW.ref.__gxx_personality_v0
	.cfi_lsda 0x1b,.LLSDA3571
	endbr64
	pushq	%r12
	.cfi_def_cfa_offset 16
	.cfi_offset 12, -16
	movl	$1, %edx
	pushq	%rbp
	.cfi_def_cfa_offset 24
	.cfi_offset 6, -24
	pushq	%rbx
	.cfi_def_cfa_offset 32
	.cfi_offset 3, -32
	movq	%rsi, %rbx
	subq	$48, %rsp
	.cfi_def_cfa_offset 80
	movq	_ZSt4cout@GOTPCREL(%rip), %r12
	movzwl	24(%rsi), %ebp
	leaq	.LC0(%rip), %rsi
	movq	%fs:40, %rax
	movq	%rax, 40(%rsp)
	xorl	%eax, %eax
	movq	%r12, %rdi
.LEHB10:
	call	_ZSt16__ostream_insertIcSt11char_traitsIcEERSt13basic_ostreamIT_T0_ES6_PKS3_l@PLT
	movzwl	%bp, %esi
	movq	%r12, %rdi
	call	_ZNSo9_M_insertImEERSoT_@PLT
	movl	$4, %edx
	leaq	.LC1(%rip), %rsi
	movq	%rax, %rdi
	movq	%rax, %rbp
	call	_ZSt16__ostream_insertIcSt11char_traitsIcEERSt13basic_ostreamIT_T0_ES6_PKS3_l@PLT
	movq	%rsp, %rdi
	leaq	16(%rbx), %rsi
	call	_ZN8asiodnp318PrintingSOEHandler13ValueToStringIN8opendnp318BinaryOutputStatusEEENSt7__cxx1112basic_stringIcSt11char_traitsIcESaIcEEERKT_.isra.0
.LEHE10:
	movq	8(%rsp), %rdx
	movq	(%rsp), %rsi
	movq	%rbp, %rdi
.LEHB11:
	call	_ZSt16__ostream_insertIcSt11char_traitsIcEERSt13basic_ostreamIT_T0_ES6_PKS3_l@PLT
	movl	$3, %edx
	leaq	.LC3(%rip), %rsi
	movq	%rax, %rdi
	movq	%rax, %rbp
	call	_ZSt16__ostream_insertIcSt11char_traitsIcEERSt13basic_ostreamIT_T0_ES6_PKS3_l@PLT
	movzbl	(%rbx), %esi
	movq	%rbp, %rdi
	call	_ZNSolsEi@PLT
	movl	$3, %edx
	leaq	.LC3(%rip), %rsi
	movq	%rax, %rdi
	movq	%rax, %rbp
	call	_ZSt16__ostream_insertIcSt11char_traitsIcEERSt13basic_ostreamIT_T0_ES6_PKS3_l@PLT
	movq	8(%rbx), %rsi
	movq	%rbp, %rdi
	call	_ZNSo9_M_insertIlEERSoT_@PLT
	movq	%rax, %rbp
	movq	(%rax), %rax
	movq	-24(%rax), %rax
	movq	240(%rbp,%rax), %r12
	testq	%r12, %r12
	je	.L171
	cmpb	$0, 56(%r12)
	je	.L162
	movsbl	67(%r12), %esi
.L163:
	movq	%rbp, %rdi
	call	_ZNSo3putEc@PLT
	movq	%rax, %rdi
	call	_ZNSo5flushEv@PLT
	movq	(%rsp), %rdi
	leaq	16(%rsp), %rax
	cmpq	%rax, %rdi
	je	.L160
	call	_ZdlPv@PLT
.L160:
	movq	40(%rsp), %rax
	xorq	%fs:40, %rax
	jne	.L172
	addq	$48, %rsp
	.cfi_remember_state
	.cfi_def_cfa_offset 32
	popq	%rbx
	.cfi_def_cfa_offset 24
	popq	%rbp
	.cfi_def_cfa_offset 16
	popq	%r12
	.cfi_def_cfa_offset 8
	ret
	.p2align 4,,10
	.p2align 3
.L162:
	.cfi_restore_state
	movq	%r12, %rdi
	call	_ZNKSt5ctypeIcE13_M_widen_initEv@PLT
	movq	(%r12), %rax
	movl	$10, %esi
	movq	48(%rax), %rax
	cmpq	_ZNKSt5ctypeIcE8do_widenEc@GOTPCREL(%rip), %rax
	je	.L163
	movq	%r12, %rdi
	call	*%rax
	movsbl	%al, %esi
	jmp	.L163
.L172:
	call	__stack_chk_fail@PLT
.L171:
	call	_ZSt16__throw_bad_castv@PLT
.LEHE11:
.L169:
	endbr64
	movq	%rax, %rbp
.L165:
	movq	(%rsp), %rdi
	leaq	16(%rsp), %rax
	cmpq	%rax, %rdi
	je	.L166
	call	_ZdlPv@PLT
.L166:
	movq	%rbp, %rdi
.LEHB12:
	call	_Unwind_Resume@PLT
.LEHE12:
	.cfi_endproc
.LFE3571:
	.section	.gcc_except_table
.LLSDA3571:
	.byte	0xff
	.byte	0xff
	.byte	0x1
	.uleb128 .LLSDACSE3571-.LLSDACSB3571
.LLSDACSB3571:
	.uleb128 .LEHB10-.LFB3571
	.uleb128 .LEHE10-.LEHB10
	.uleb128 0
	.uleb128 0
	.uleb128 .LEHB11-.LFB3571
	.uleb128 .LEHE11-.LEHB11
	.uleb128 .L169-.LFB3571
	.uleb128 0
	.uleb128 .LEHB12-.LFB3571
	.uleb128 .LEHE12-.LEHB12
	.uleb128 0
	.uleb128 0
.LLSDACSE3571:
	.section	.text._ZN8opendnp314FunctorVisitorINS_7IndexedINS_18BinaryOutputStatusEEEZN8asiodnp318PrintingSOEHandler8PrintAllIS2_EEvRKNS_10HeaderInfoERKNS_11ICollectionINS1_IT_EEEEEUlRKS3_E_E7OnValueESH_,"axG",@progbits,_ZN8opendnp314FunctorVisitorINS_7IndexedINS_18BinaryOutputStatusEEEZN8asiodnp318PrintingSOEHandler8PrintAllIS2_EEvRKNS_10HeaderInfoERKNS_11ICollectionINS1_IT_EEEEEUlRKS3_E_E7OnValueESH_,comdat
	.size	_ZN8opendnp314FunctorVisitorINS_7IndexedINS_18BinaryOutputStatusEEEZN8asiodnp318PrintingSOEHandler8PrintAllIS2_EEvRKNS_10HeaderInfoERKNS_11ICollectionINS1_IT_EEEEEUlRKS3_E_E7OnValueESH_, .-_ZN8opendnp314FunctorVisitorINS_7IndexedINS_18BinaryOutputStatusEEEZN8asiodnp318PrintingSOEHandler8PrintAllIS2_EEvRKNS_10HeaderInfoERKNS_11ICollectionINS1_IT_EEEEEUlRKS3_E_E7OnValueESH_
	.section	.text._ZN8opendnp314FunctorVisitorINS_7IndexedINS_6BinaryEEEZN8asiodnp318PrintingSOEHandler8PrintAllIS2_EEvRKNS_10HeaderInfoERKNS_11ICollectionINS1_IT_EEEEEUlRKS3_E_E7OnValueESH_,"axG",@progbits,_ZN8opendnp314FunctorVisitorINS_7IndexedINS_6BinaryEEEZN8asiodnp318PrintingSOEHandler8PrintAllIS2_EEvRKNS_10HeaderInfoERKNS_11ICollectionINS1_IT_EEEEEUlRKS3_E_E7OnValueESH_,comdat
	.align 2
	.p2align 4
	.weak	_ZN8opendnp314FunctorVisitorINS_7IndexedINS_6BinaryEEEZN8asiodnp318PrintingSOEHandler8PrintAllIS2_EEvRKNS_10HeaderInfoERKNS_11ICollectionINS1_IT_EEEEEUlRKS3_E_E7OnValueESH_
	.type	_ZN8opendnp314FunctorVisitorINS_7IndexedINS_6BinaryEEEZN8asiodnp318PrintingSOEHandler8PrintAllIS2_EEvRKNS_10HeaderInfoERKNS_11ICollectionINS1_IT_EEEEEUlRKS3_E_E7OnValueESH_, @function
_ZN8opendnp314FunctorVisitorINS_7IndexedINS_6BinaryEEEZN8asiodnp318PrintingSOEHandler8PrintAllIS2_EEvRKNS_10HeaderInfoERKNS_11ICollectionINS1_IT_EEEEEUlRKS3_E_E7OnValueESH_:
.LFB3576:
	.cfi_startproc
	.cfi_personality 0x9b,DW.ref.__gxx_personality_v0
	.cfi_lsda 0x1b,.LLSDA3576
	endbr64
	pushq	%r12
	.cfi_def_cfa_offset 16
	.cfi_offset 12, -16
	movl	$1, %edx
	pushq	%rbp
	.cfi_def_cfa_offset 24
	.cfi_offset 6, -24
	pushq	%rbx
	.cfi_def_cfa_offset 32
	.cfi_offset 3, -32
	movq	%rsi, %rbx
	subq	$48, %rsp
	.cfi_def_cfa_offset 80
	movq	_ZSt4cout@GOTPCREL(%rip), %r12
	movzwl	24(%rsi), %ebp
	leaq	.LC0(%rip), %rsi
	movq	%fs:40, %rax
	movq	%rax, 40(%rsp)
	xorl	%eax, %eax
	movq	%r12, %rdi
.LEHB13:
	call	_ZSt16__ostream_insertIcSt11char_traitsIcEERSt13basic_ostreamIT_T0_ES6_PKS3_l@PLT
	movzwl	%bp, %esi
	movq	%r12, %rdi
	call	_ZNSo9_M_insertImEERSoT_@PLT
	movl	$4, %edx
	leaq	.LC1(%rip), %rsi
	movq	%rax, %rdi
	movq	%rax, %rbp
	call	_ZSt16__ostream_insertIcSt11char_traitsIcEERSt13basic_ostreamIT_T0_ES6_PKS3_l@PLT
	movq	%rsp, %rdi
	leaq	16(%rbx), %rsi
	call	_ZN8asiodnp318PrintingSOEHandler13ValueToStringIN8opendnp36BinaryEEENSt7__cxx1112basic_stringIcSt11char_traitsIcESaIcEEERKT_.isra.0
.LEHE13:
	movq	8(%rsp), %rdx
	movq	(%rsp), %rsi
	movq	%rbp, %rdi
.LEHB14:
	call	_ZSt16__ostream_insertIcSt11char_traitsIcEERSt13basic_ostreamIT_T0_ES6_PKS3_l@PLT
	movl	$3, %edx
	leaq	.LC3(%rip), %rsi
	movq	%rax, %rdi
	movq	%rax, %rbp
	call	_ZSt16__ostream_insertIcSt11char_traitsIcEERSt13basic_ostreamIT_T0_ES6_PKS3_l@PLT
	movzbl	(%rbx), %esi
	movq	%rbp, %rdi
	call	_ZNSolsEi@PLT
	movl	$3, %edx
	leaq	.LC3(%rip), %rsi
	movq	%rax, %rdi
	movq	%rax, %rbp
	call	_ZSt16__ostream_insertIcSt11char_traitsIcEERSt13basic_ostreamIT_T0_ES6_PKS3_l@PLT
	movq	8(%rbx), %rsi
	movq	%rbp, %rdi
	call	_ZNSo9_M_insertIlEERSoT_@PLT
	movq	%rax, %rbp
	movq	(%rax), %rax
	movq	-24(%rax), %rax
	movq	240(%rbp,%rax), %r12
	testq	%r12, %r12
	je	.L184
	cmpb	$0, 56(%r12)
	je	.L175
	movsbl	67(%r12), %esi
.L176:
	movq	%rbp, %rdi
	call	_ZNSo3putEc@PLT
	movq	%rax, %rdi
	call	_ZNSo5flushEv@PLT
	movq	(%rsp), %rdi
	leaq	16(%rsp), %rax
	cmpq	%rax, %rdi
	je	.L173
	call	_ZdlPv@PLT
.L173:
	movq	40(%rsp), %rax
	xorq	%fs:40, %rax
	jne	.L185
	addq	$48, %rsp
	.cfi_remember_state
	.cfi_def_cfa_offset 32
	popq	%rbx
	.cfi_def_cfa_offset 24
	popq	%rbp
	.cfi_def_cfa_offset 16
	popq	%r12
	.cfi_def_cfa_offset 8
	ret
	.p2align 4,,10
	.p2align 3
.L175:
	.cfi_restore_state
	movq	%r12, %rdi
	call	_ZNKSt5ctypeIcE13_M_widen_initEv@PLT
	movq	(%r12), %rax
	movl	$10, %esi
	movq	48(%rax), %rax
	cmpq	_ZNKSt5ctypeIcE8do_widenEc@GOTPCREL(%rip), %rax
	je	.L176
	movq	%r12, %rdi
	call	*%rax
	movsbl	%al, %esi
	jmp	.L176
.L185:
	call	__stack_chk_fail@PLT
.L184:
	call	_ZSt16__throw_bad_castv@PLT
.LEHE14:
.L182:
	endbr64
	movq	%rax, %rbp
.L178:
	movq	(%rsp), %rdi
	leaq	16(%rsp), %rax
	cmpq	%rax, %rdi
	je	.L179
	call	_ZdlPv@PLT
.L179:
	movq	%rbp, %rdi
.LEHB15:
	call	_Unwind_Resume@PLT
.LEHE15:
	.cfi_endproc
.LFE3576:
	.section	.gcc_except_table
.LLSDA3576:
	.byte	0xff
	.byte	0xff
	.byte	0x1
	.uleb128 .LLSDACSE3576-.LLSDACSB3576
.LLSDACSB3576:
	.uleb128 .LEHB13-.LFB3576
	.uleb128 .LEHE13-.LEHB13
	.uleb128 0
	.uleb128 0
	.uleb128 .LEHB14-.LFB3576
	.uleb128 .LEHE14-.LEHB14
	.uleb128 .L182-.LFB3576
	.uleb128 0
	.uleb128 .LEHB15-.LFB3576
	.uleb128 .LEHE15-.LEHB15
	.uleb128 0
	.uleb128 0
.LLSDACSE3576:
	.section	.text._ZN8opendnp314FunctorVisitorINS_7IndexedINS_6BinaryEEEZN8asiodnp318PrintingSOEHandler8PrintAllIS2_EEvRKNS_10HeaderInfoERKNS_11ICollectionINS1_IT_EEEEEUlRKS3_E_E7OnValueESH_,"axG",@progbits,_ZN8opendnp314FunctorVisitorINS_7IndexedINS_6BinaryEEEZN8asiodnp318PrintingSOEHandler8PrintAllIS2_EEvRKNS_10HeaderInfoERKNS_11ICollectionINS1_IT_EEEEEUlRKS3_E_E7OnValueESH_,comdat
	.size	_ZN8opendnp314FunctorVisitorINS_7IndexedINS_6BinaryEEEZN8asiodnp318PrintingSOEHandler8PrintAllIS2_EEvRKNS_10HeaderInfoERKNS_11ICollectionINS1_IT_EEEEEUlRKS3_E_E7OnValueESH_, .-_ZN8opendnp314FunctorVisitorINS_7IndexedINS_6BinaryEEEZN8asiodnp318PrintingSOEHandler8PrintAllIS2_EEvRKNS_10HeaderInfoERKNS_11ICollectionINS1_IT_EEEEEUlRKS3_E_E7OnValueESH_
	.section	.text.unlikely
.LCOLDB13:
	.text
.LHOTB13:
	.p2align 4
	.type	_ZN8asiodnp318PrintingSOEHandler13ValueToStringIN8opendnp36AnalogEEENSt7__cxx1112basic_stringIcSt11char_traitsIcESaIcEEERKT_.isra.0, @function
_ZN8asiodnp318PrintingSOEHandler13ValueToStringIN8opendnp36AnalogEEENSt7__cxx1112basic_stringIcSt11char_traitsIcESaIcEEERKT_.isra.0:
.LFB3645:
	.cfi_startproc
	.cfi_personality 0x9b,DW.ref.__gxx_personality_v0
	.cfi_lsda 0x1b,.LLSDA3645
	pushq	%r15
	.cfi_def_cfa_offset 16
	.cfi_offset 15, -16
	pushq	%r14
	.cfi_def_cfa_offset 24
	.cfi_offset 14, -24
	pushq	%r13
	.cfi_def_cfa_offset 32
	.cfi_offset 13, -32
	pushq	%r12
	.cfi_def_cfa_offset 40
	.cfi_offset 12, -40
	movq	%rdi, %r12
	pushq	%rbp
	.cfi_def_cfa_offset 48
	.cfi_offset 6, -48
	pushq	%rbx
	.cfi_def_cfa_offset 56
	.cfi_offset 3, -56
	subq	$424, %rsp
	.cfi_def_cfa_offset 480
	movq	%rsi, 16(%rsp)
	leaq	144(%rsp), %r13
	leaq	32(%rsp), %rbp
	movq	%r13, %rdi
	movq	%fs:40, %rax
	movq	%rax, 408(%rsp)
	xorl	%eax, %eax
	call	_ZNSt8ios_baseC2Ev@PLT
	movq	_ZTVSt9basic_iosIcSt11char_traitsIcEE@GOTPCREL(%rip), %rax
	pxor	%xmm0, %xmm0
	xorl	%esi, %esi
	movups	%xmm0, 376(%rsp)
	addq	$16, %rax
	movups	%xmm0, 392(%rsp)
	movq	%rax, 144(%rsp)
	xorl	%eax, %eax
	movw	%ax, 368(%rsp)
	movq	_ZTTNSt7__cxx1119basic_ostringstreamIcSt11char_traitsIcESaIcEEE@GOTPCREL(%rip), %rax
	movq	$0, 360(%rsp)
	movq	8(%rax), %rbx
	movq	16(%rax), %rax
	movq	-24(%rbx), %rdi
	movq	%rbx, 32(%rsp)
	movq	%rax, (%rsp)
	addq	%rbp, %rdi
	movq	%rax, (%rdi)
.LEHB16:
	call	_ZNSt9basic_iosIcSt11char_traitsIcEE4initEPSt15basic_streambufIcS1_E@PLT
.LEHE16:
	movq	_ZTVNSt7__cxx1119basic_ostringstreamIcSt11char_traitsIcESaIcEEE@GOTPCREL(%rip), %rax
	leaq	96(%rsp), %r15
	leaq	40(%rsp), %r14
	movq	%r15, %rdi
	leaq	24(%rax), %rdx
	addq	$64, %rax
	movq	%rax, 144(%rsp)
	movq	_ZTVSt15basic_streambufIcSt11char_traitsIcEE@GOTPCREL(%rip), %rax
	movq	%rdx, %xmm0
	movq	%rdx, 8(%rsp)
	addq	$16, %rax
	movq	%rax, %xmm1
	punpcklqdq	%xmm1, %xmm0
	movaps	%xmm0, 32(%rsp)
	pxor	%xmm0, %xmm0
	movaps	%xmm0, 48(%rsp)
	movaps	%xmm0, 64(%rsp)
	movaps	%xmm0, 80(%rsp)
	call	_ZNSt6localeC1Ev@PLT
	movq	_ZTVNSt7__cxx1115basic_stringbufIcSt11char_traitsIcESaIcEEE@GOTPCREL(%rip), %rax
	movq	%r14, %rsi
	movq	%r13, %rdi
	movl	$16, 104(%rsp)
	addq	$16, %rax
	movb	$0, 128(%rsp)
	movq	%rax, 40(%rsp)
	leaq	128(%rsp), %rax
	movq	%rax, 24(%rsp)
	movq	%rax, 112(%rsp)
	movq	$0, 120(%rsp)
.LEHB17:
	call	_ZNSt9basic_iosIcSt11char_traitsIcEE4initEPSt15basic_streambufIcS1_E@PLT
.LEHE17:
	movq	16(%rsp), %rax
	movq	%rbp, %rdi
	movsd	(%rax), %xmm0
.LEHB18:
	call	_ZNSo9_M_insertIdEERSoT_@PLT
.LEHE18:
	movq	80(%rsp), %rax
	leaq	16(%r12), %r14
	movq	$0, 8(%r12)
	movq	%r14, (%r12)
	movb	$0, 16(%r12)
	testq	%rax, %rax
	je	.L190
	movq	64(%rsp), %r8
	movq	72(%rsp), %rcx
	cmpq	%r8, %rax
	ja	.L206
	subq	%rcx, %r8
	xorl	%edx, %edx
	xorl	%esi, %esi
	movq	%r12, %rdi
.LEHB19:
	call	_ZNSt7__cxx1112basic_stringIcSt11char_traitsIcESaIcEE10_M_replaceEmmPKcm@PLT
.L192:
	movq	_ZTVNSt7__cxx1119basic_ostringstreamIcSt11char_traitsIcESaIcEEE@GOTPCREL(%rip), %rax
	movq	8(%rsp), %xmm0
	movq	112(%rsp), %rdi
	addq	$64, %rax
	movq	%rax, 144(%rsp)
	movq	_ZTVNSt7__cxx1115basic_stringbufIcSt11char_traitsIcESaIcEEE@GOTPCREL(%rip), %rax
	addq	$16, %rax
	movq	%rax, %xmm2
	punpcklqdq	%xmm2, %xmm0
	movaps	%xmm0, 32(%rsp)
	cmpq	24(%rsp), %rdi
	je	.L194
	call	_ZdlPv@PLT
.L194:
	movq	_ZTVSt15basic_streambufIcSt11char_traitsIcEE@GOTPCREL(%rip), %rax
	movq	%r15, %rdi
	addq	$16, %rax
	movq	%rax, 40(%rsp)
	call	_ZNSt6localeD1Ev@PLT
	movq	-24(%rbx), %rax
	movq	(%rsp), %rcx
	movq	%r13, %rdi
	movq	%rbx, 32(%rsp)
	movq	%rcx, 32(%rsp,%rax)
	movq	_ZTVSt9basic_iosIcSt11char_traitsIcEE@GOTPCREL(%rip), %rax
	addq	$16, %rax
	movq	%rax, 144(%rsp)
	call	_ZNSt8ios_baseD2Ev@PLT
	movq	408(%rsp), %rax
	xorq	%fs:40, %rax
	jne	.L207
	addq	$424, %rsp
	.cfi_remember_state
	.cfi_def_cfa_offset 56
	movq	%r12, %rax
	popq	%rbx
	.cfi_def_cfa_offset 48
	popq	%rbp
	.cfi_def_cfa_offset 40
	popq	%r12
	.cfi_def_cfa_offset 32
	popq	%r13
	.cfi_def_cfa_offset 24
	popq	%r14
	.cfi_def_cfa_offset 16
	popq	%r15
	.cfi_def_cfa_offset 8
	ret
	.p2align 4,,10
	.p2align 3
.L206:
	.cfi_restore_state
	subq	%rcx, %rax
	xorl	%edx, %edx
	xorl	%esi, %esi
	movq	%r12, %rdi
	movq	%rax, %r8
	call	_ZNSt7__cxx1112basic_stringIcSt11char_traitsIcESaIcEE10_M_replaceEmmPKcm@PLT
	jmp	.L192
	.p2align 4,,10
	.p2align 3
.L190:
	leaq	112(%rsp), %rsi
	movq	%r12, %rdi
	call	_ZNSt7__cxx1112basic_stringIcSt11char_traitsIcESaIcEE9_M_assignERKS4_@PLT
.LEHE19:
	jmp	.L192
.L207:
	call	__stack_chk_fail@PLT
.L199:
	endbr64
	movq	%rax, %r12
	jmp	.L197
.L201:
	endbr64
	movq	%rax, %rbp
	jmp	.L188
.L200:
	endbr64
	movq	%rax, %rbp
	jmp	.L189
.L202:
	endbr64
	movq	%rax, %rbx
	jmp	.L195
	.section	.gcc_except_table
.LLSDA3645:
	.byte	0xff
	.byte	0xff
	.byte	0x1
	.uleb128 .LLSDACSE3645-.LLSDACSB3645
.LLSDACSB3645:
	.uleb128 .LEHB16-.LFB3645
	.uleb128 .LEHE16-.LEHB16
	.uleb128 .L200-.LFB3645
	.uleb128 0
	.uleb128 .LEHB17-.LFB3645
	.uleb128 .LEHE17-.LEHB17
	.uleb128 .L201-.LFB3645
	.uleb128 0
	.uleb128 .LEHB18-.LFB3645
	.uleb128 .LEHE18-.LEHB18
	.uleb128 .L199-.LFB3645
	.uleb128 0
	.uleb128 .LEHB19-.LFB3645
	.uleb128 .LEHE19-.LEHB19
	.uleb128 .L202-.LFB3645
	.uleb128 0
.LLSDACSE3645:
	.text
	.cfi_endproc
	.section	.text.unlikely
	.cfi_startproc
	.cfi_personality 0x9b,DW.ref.__gxx_personality_v0
	.cfi_lsda 0x1b,.LLSDAC3645
	.type	_ZN8asiodnp318PrintingSOEHandler13ValueToStringIN8opendnp36AnalogEEENSt7__cxx1112basic_stringIcSt11char_traitsIcESaIcEEERKT_.isra.0.cold, @function
_ZN8asiodnp318PrintingSOEHandler13ValueToStringIN8opendnp36AnalogEEENSt7__cxx1112basic_stringIcSt11char_traitsIcESaIcEEERKT_.isra.0.cold:
.LFSB3645:
.L195:
	.cfi_def_cfa_offset 480
	.cfi_offset 3, -56
	.cfi_offset 6, -48
	.cfi_offset 12, -40
	.cfi_offset 13, -32
	.cfi_offset 14, -24
	.cfi_offset 15, -16
	movq	(%r12), %rdi
	cmpq	%rdi, %r14
	je	.L196
	call	_ZdlPv@PLT
.L196:
	movq	%rbx, %r12
.L197:
	movq	%rbp, %rdi
	call	_ZNSt7__cxx1119basic_ostringstreamIcSt11char_traitsIcESaIcEED1Ev@PLT
	movq	%r12, %rdi
.LEHB20:
	call	_Unwind_Resume@PLT
.L188:
	movq	%r14, %rdi
	call	_ZNSt7__cxx1115basic_stringbufIcSt11char_traitsIcESaIcEED1Ev@PLT
	movq	%rbx, 32(%rsp)
	movq	-24(%rbx), %rax
	movq	(%rsp), %rbx
	movq	%rbx, 32(%rsp,%rax)
.L189:
	movq	_ZTVSt9basic_iosIcSt11char_traitsIcEE@GOTPCREL(%rip), %rax
	movq	%r13, %rdi
	addq	$16, %rax
	movq	%rax, 144(%rsp)
	call	_ZNSt8ios_baseD2Ev@PLT
	movq	%rbp, %rdi
	call	_Unwind_Resume@PLT
.LEHE20:
	.cfi_endproc
.LFE3645:
	.section	.gcc_except_table
.LLSDAC3645:
	.byte	0xff
	.byte	0xff
	.byte	0x1
	.uleb128 .LLSDACSEC3645-.LLSDACSBC3645
.LLSDACSBC3645:
	.uleb128 .LEHB20-.LCOLDB13
	.uleb128 .LEHE20-.LEHB20
	.uleb128 0
	.uleb128 0
.LLSDACSEC3645:
	.section	.text.unlikely
	.text
	.size	_ZN8asiodnp318PrintingSOEHandler13ValueToStringIN8opendnp36AnalogEEENSt7__cxx1112basic_stringIcSt11char_traitsIcESaIcEEERKT_.isra.0, .-_ZN8asiodnp318PrintingSOEHandler13ValueToStringIN8opendnp36AnalogEEENSt7__cxx1112basic_stringIcSt11char_traitsIcESaIcEEERKT_.isra.0
	.section	.text.unlikely
	.size	_ZN8asiodnp318PrintingSOEHandler13ValueToStringIN8opendnp36AnalogEEENSt7__cxx1112basic_stringIcSt11char_traitsIcESaIcEEERKT_.isra.0.cold, .-_ZN8asiodnp318PrintingSOEHandler13ValueToStringIN8opendnp36AnalogEEENSt7__cxx1112basic_stringIcSt11char_traitsIcESaIcEEERKT_.isra.0.cold
.LCOLDE13:
	.text
.LHOTE13:
	.set	_ZN8asiodnp318PrintingSOEHandler13ValueToStringIN8opendnp318AnalogOutputStatusEEENSt7__cxx1112basic_stringIcSt11char_traitsIcESaIcEEERKT_.isra.0,_ZN8asiodnp318PrintingSOEHandler13ValueToStringIN8opendnp36AnalogEEENSt7__cxx1112basic_stringIcSt11char_traitsIcESaIcEEERKT_.isra.0
	.section	.text._ZN8opendnp314FunctorVisitorINS_7IndexedINS_18AnalogOutputStatusEEEZN8asiodnp318PrintingSOEHandler8PrintAllIS2_EEvRKNS_10HeaderInfoERKNS_11ICollectionINS1_IT_EEEEEUlRKS3_E_E7OnValueESH_,"axG",@progbits,_ZN8opendnp314FunctorVisitorINS_7IndexedINS_18AnalogOutputStatusEEEZN8asiodnp318PrintingSOEHandler8PrintAllIS2_EEvRKNS_10HeaderInfoERKNS_11ICollectionINS1_IT_EEEEEUlRKS3_E_E7OnValueESH_,comdat
	.align 2
	.p2align 4
	.weak	_ZN8opendnp314FunctorVisitorINS_7IndexedINS_18AnalogOutputStatusEEEZN8asiodnp318PrintingSOEHandler8PrintAllIS2_EEvRKNS_10HeaderInfoERKNS_11ICollectionINS1_IT_EEEEEUlRKS3_E_E7OnValueESH_
	.type	_ZN8opendnp314FunctorVisitorINS_7IndexedINS_18AnalogOutputStatusEEEZN8asiodnp318PrintingSOEHandler8PrintAllIS2_EEvRKNS_10HeaderInfoERKNS_11ICollectionINS1_IT_EEEEEUlRKS3_E_E7OnValueESH_, @function
_ZN8opendnp314FunctorVisitorINS_7IndexedINS_18AnalogOutputStatusEEEZN8asiodnp318PrintingSOEHandler8PrintAllIS2_EEvRKNS_10HeaderInfoERKNS_11ICollectionINS1_IT_EEEEEUlRKS3_E_E7OnValueESH_:
.LFB3570:
	.cfi_startproc
	.cfi_personality 0x9b,DW.ref.__gxx_personality_v0
	.cfi_lsda 0x1b,.LLSDA3570
	endbr64
	pushq	%r12
	.cfi_def_cfa_offset 16
	.cfi_offset 12, -16
	movl	$1, %edx
	pushq	%rbp
	.cfi_def_cfa_offset 24
	.cfi_offset 6, -24
	pushq	%rbx
	.cfi_def_cfa_offset 32
	.cfi_offset 3, -32
	movq	%rsi, %rbx
	subq	$48, %rsp
	.cfi_def_cfa_offset 80
	movq	_ZSt4cout@GOTPCREL(%rip), %r12
	movzwl	24(%rsi), %ebp
	leaq	.LC0(%rip), %rsi
	movq	%fs:40, %rax
	movq	%rax, 40(%rsp)
	xorl	%eax, %eax
	movq	%r12, %rdi
.LEHB21:
	call	_ZSt16__ostream_insertIcSt11char_traitsIcEERSt13basic_ostreamIT_T0_ES6_PKS3_l@PLT
	movzwl	%bp, %esi
	movq	%r12, %rdi
	call	_ZNSo9_M_insertImEERSoT_@PLT
	movl	$4, %edx
	leaq	.LC1(%rip), %rsi
	movq	%rax, %rdi
	movq	%rax, %rbp
	call	_ZSt16__ostream_insertIcSt11char_traitsIcEERSt13basic_ostreamIT_T0_ES6_PKS3_l@PLT
	movq	%rsp, %rdi
	leaq	16(%rbx), %rsi
	call	_ZN8asiodnp318PrintingSOEHandler13ValueToStringIN8opendnp318AnalogOutputStatusEEENSt7__cxx1112basic_stringIcSt11char_traitsIcESaIcEEERKT_.isra.0
.LEHE21:
	movq	8(%rsp), %rdx
	movq	(%rsp), %rsi
	movq	%rbp, %rdi
.LEHB22:
	call	_ZSt16__ostream_insertIcSt11char_traitsIcEERSt13basic_ostreamIT_T0_ES6_PKS3_l@PLT
	movl	$3, %edx
	leaq	.LC3(%rip), %rsi
	movq	%rax, %rdi
	movq	%rax, %rbp
	call	_ZSt16__ostream_insertIcSt11char_traitsIcEERSt13basic_ostreamIT_T0_ES6_PKS3_l@PLT
	movzbl	(%rbx), %esi
	movq	%rbp, %rdi
	call	_ZNSolsEi@PLT
	movl	$3, %edx
	leaq	.LC3(%rip), %rsi
	movq	%rax, %rdi
	movq	%rax, %rbp
	call	_ZSt16__ostream_insertIcSt11char_traitsIcEERSt13basic_ostreamIT_T0_ES6_PKS3_l@PLT
	movq	8(%rbx), %rsi
	movq	%rbp, %rdi
	call	_ZNSo9_M_insertIlEERSoT_@PLT
	movq	%rax, %rbp
	movq	(%rax), %rax
	movq	-24(%rax), %rax
	movq	240(%rbp,%rax), %r12
	testq	%r12, %r12
	je	.L219
	cmpb	$0, 56(%r12)
	je	.L210
	movsbl	67(%r12), %esi
.L211:
	movq	%rbp, %rdi
	call	_ZNSo3putEc@PLT
	movq	%rax, %rdi
	call	_ZNSo5flushEv@PLT
	movq	(%rsp), %rdi
	leaq	16(%rsp), %rax
	cmpq	%rax, %rdi
	je	.L208
	call	_ZdlPv@PLT
.L208:
	movq	40(%rsp), %rax
	xorq	%fs:40, %rax
	jne	.L220
	addq	$48, %rsp
	.cfi_remember_state
	.cfi_def_cfa_offset 32
	popq	%rbx
	.cfi_def_cfa_offset 24
	popq	%rbp
	.cfi_def_cfa_offset 16
	popq	%r12
	.cfi_def_cfa_offset 8
	ret
	.p2align 4,,10
	.p2align 3
.L210:
	.cfi_restore_state
	movq	%r12, %rdi
	call	_ZNKSt5ctypeIcE13_M_widen_initEv@PLT
	movq	(%r12), %rax
	movl	$10, %esi
	movq	48(%rax), %rax
	cmpq	_ZNKSt5ctypeIcE8do_widenEc@GOTPCREL(%rip), %rax
	je	.L211
	movq	%r12, %rdi
	call	*%rax
	movsbl	%al, %esi
	jmp	.L211
.L220:
	call	__stack_chk_fail@PLT
.L219:
	call	_ZSt16__throw_bad_castv@PLT
.LEHE22:
.L217:
	endbr64
	movq	%rax, %rbp
.L213:
	movq	(%rsp), %rdi
	leaq	16(%rsp), %rax
	cmpq	%rax, %rdi
	je	.L214
	call	_ZdlPv@PLT
.L214:
	movq	%rbp, %rdi
.LEHB23:
	call	_Unwind_Resume@PLT
.LEHE23:
	.cfi_endproc
.LFE3570:
	.section	.gcc_except_table
.LLSDA3570:
	.byte	0xff
	.byte	0xff
	.byte	0x1
	.uleb128 .LLSDACSE3570-.LLSDACSB3570
.LLSDACSB3570:
	.uleb128 .LEHB21-.LFB3570
	.uleb128 .LEHE21-.LEHB21
	.uleb128 0
	.uleb128 0
	.uleb128 .LEHB22-.LFB3570
	.uleb128 .LEHE22-.LEHB22
	.uleb128 .L217-.LFB3570
	.uleb128 0
	.uleb128 .LEHB23-.LFB3570
	.uleb128 .LEHE23-.LEHB23
	.uleb128 0
	.uleb128 0
.LLSDACSE3570:
	.section	.text._ZN8opendnp314FunctorVisitorINS_7IndexedINS_18AnalogOutputStatusEEEZN8asiodnp318PrintingSOEHandler8PrintAllIS2_EEvRKNS_10HeaderInfoERKNS_11ICollectionINS1_IT_EEEEEUlRKS3_E_E7OnValueESH_,"axG",@progbits,_ZN8opendnp314FunctorVisitorINS_7IndexedINS_18AnalogOutputStatusEEEZN8asiodnp318PrintingSOEHandler8PrintAllIS2_EEvRKNS_10HeaderInfoERKNS_11ICollectionINS1_IT_EEEEEUlRKS3_E_E7OnValueESH_,comdat
	.size	_ZN8opendnp314FunctorVisitorINS_7IndexedINS_18AnalogOutputStatusEEEZN8asiodnp318PrintingSOEHandler8PrintAllIS2_EEvRKNS_10HeaderInfoERKNS_11ICollectionINS1_IT_EEEEEUlRKS3_E_E7OnValueESH_, .-_ZN8opendnp314FunctorVisitorINS_7IndexedINS_18AnalogOutputStatusEEEZN8asiodnp318PrintingSOEHandler8PrintAllIS2_EEvRKNS_10HeaderInfoERKNS_11ICollectionINS1_IT_EEEEEUlRKS3_E_E7OnValueESH_
	.section	.text._ZN8opendnp314FunctorVisitorINS_7IndexedINS_6AnalogEEEZN8asiodnp318PrintingSOEHandler8PrintAllIS2_EEvRKNS_10HeaderInfoERKNS_11ICollectionINS1_IT_EEEEEUlRKS3_E_E7OnValueESH_,"axG",@progbits,_ZN8opendnp314FunctorVisitorINS_7IndexedINS_6AnalogEEEZN8asiodnp318PrintingSOEHandler8PrintAllIS2_EEvRKNS_10HeaderInfoERKNS_11ICollectionINS1_IT_EEEEEUlRKS3_E_E7OnValueESH_,comdat
	.align 2
	.p2align 4
	.weak	_ZN8opendnp314FunctorVisitorINS_7IndexedINS_6AnalogEEEZN8asiodnp318PrintingSOEHandler8PrintAllIS2_EEvRKNS_10HeaderInfoERKNS_11ICollectionINS1_IT_EEEEEUlRKS3_E_E7OnValueESH_
	.type	_ZN8opendnp314FunctorVisitorINS_7IndexedINS_6AnalogEEEZN8asiodnp318PrintingSOEHandler8PrintAllIS2_EEvRKNS_10HeaderInfoERKNS_11ICollectionINS1_IT_EEEEEUlRKS3_E_E7OnValueESH_, @function
_ZN8opendnp314FunctorVisitorINS_7IndexedINS_6AnalogEEEZN8asiodnp318PrintingSOEHandler8PrintAllIS2_EEvRKNS_10HeaderInfoERKNS_11ICollectionINS1_IT_EEEEEUlRKS3_E_E7OnValueESH_:
.LFB3574:
	.cfi_startproc
	.cfi_personality 0x9b,DW.ref.__gxx_personality_v0
	.cfi_lsda 0x1b,.LLSDA3574
	endbr64
	pushq	%r12
	.cfi_def_cfa_offset 16
	.cfi_offset 12, -16
	movl	$1, %edx
	pushq	%rbp
	.cfi_def_cfa_offset 24
	.cfi_offset 6, -24
	pushq	%rbx
	.cfi_def_cfa_offset 32
	.cfi_offset 3, -32
	movq	%rsi, %rbx
	subq	$48, %rsp
	.cfi_def_cfa_offset 80
	movq	_ZSt4cout@GOTPCREL(%rip), %r12
	movzwl	24(%rsi), %ebp
	leaq	.LC0(%rip), %rsi
	movq	%fs:40, %rax
	movq	%rax, 40(%rsp)
	xorl	%eax, %eax
	movq	%r12, %rdi
.LEHB24:
	call	_ZSt16__ostream_insertIcSt11char_traitsIcEERSt13basic_ostreamIT_T0_ES6_PKS3_l@PLT
	movzwl	%bp, %esi
	movq	%r12, %rdi
	call	_ZNSo9_M_insertImEERSoT_@PLT
	movl	$4, %edx
	leaq	.LC1(%rip), %rsi
	movq	%rax, %rdi
	movq	%rax, %rbp
	call	_ZSt16__ostream_insertIcSt11char_traitsIcEERSt13basic_ostreamIT_T0_ES6_PKS3_l@PLT
	movq	%rsp, %rdi
	leaq	16(%rbx), %rsi
	call	_ZN8asiodnp318PrintingSOEHandler13ValueToStringIN8opendnp36AnalogEEENSt7__cxx1112basic_stringIcSt11char_traitsIcESaIcEEERKT_.isra.0
.LEHE24:
	movq	8(%rsp), %rdx
	movq	(%rsp), %rsi
	movq	%rbp, %rdi
.LEHB25:
	call	_ZSt16__ostream_insertIcSt11char_traitsIcEERSt13basic_ostreamIT_T0_ES6_PKS3_l@PLT
	movl	$3, %edx
	leaq	.LC3(%rip), %rsi
	movq	%rax, %rdi
	movq	%rax, %rbp
	call	_ZSt16__ostream_insertIcSt11char_traitsIcEERSt13basic_ostreamIT_T0_ES6_PKS3_l@PLT
	movzbl	(%rbx), %esi
	movq	%rbp, %rdi
	call	_ZNSolsEi@PLT
	movl	$3, %edx
	leaq	.LC3(%rip), %rsi
	movq	%rax, %rdi
	movq	%rax, %rbp
	call	_ZSt16__ostream_insertIcSt11char_traitsIcEERSt13basic_ostreamIT_T0_ES6_PKS3_l@PLT
	movq	8(%rbx), %rsi
	movq	%rbp, %rdi
	call	_ZNSo9_M_insertIlEERSoT_@PLT
	movq	%rax, %rbp
	movq	(%rax), %rax
	movq	-24(%rax), %rax
	movq	240(%rbp,%rax), %r12
	testq	%r12, %r12
	je	.L232
	cmpb	$0, 56(%r12)
	je	.L223
	movsbl	67(%r12), %esi
.L224:
	movq	%rbp, %rdi
	call	_ZNSo3putEc@PLT
	movq	%rax, %rdi
	call	_ZNSo5flushEv@PLT
	movq	(%rsp), %rdi
	leaq	16(%rsp), %rax
	cmpq	%rax, %rdi
	je	.L221
	call	_ZdlPv@PLT
.L221:
	movq	40(%rsp), %rax
	xorq	%fs:40, %rax
	jne	.L233
	addq	$48, %rsp
	.cfi_remember_state
	.cfi_def_cfa_offset 32
	popq	%rbx
	.cfi_def_cfa_offset 24
	popq	%rbp
	.cfi_def_cfa_offset 16
	popq	%r12
	.cfi_def_cfa_offset 8
	ret
	.p2align 4,,10
	.p2align 3
.L223:
	.cfi_restore_state
	movq	%r12, %rdi
	call	_ZNKSt5ctypeIcE13_M_widen_initEv@PLT
	movq	(%r12), %rax
	movl	$10, %esi
	movq	48(%rax), %rax
	cmpq	_ZNKSt5ctypeIcE8do_widenEc@GOTPCREL(%rip), %rax
	je	.L224
	movq	%r12, %rdi
	call	*%rax
	movsbl	%al, %esi
	jmp	.L224
.L233:
	call	__stack_chk_fail@PLT
.L232:
	call	_ZSt16__throw_bad_castv@PLT
.LEHE25:
.L230:
	endbr64
	movq	%rax, %rbp
.L226:
	movq	(%rsp), %rdi
	leaq	16(%rsp), %rax
	cmpq	%rax, %rdi
	je	.L227
	call	_ZdlPv@PLT
.L227:
	movq	%rbp, %rdi
.LEHB26:
	call	_Unwind_Resume@PLT
.LEHE26:
	.cfi_endproc
.LFE3574:
	.section	.gcc_except_table
.LLSDA3574:
	.byte	0xff
	.byte	0xff
	.byte	0x1
	.uleb128 .LLSDACSE3574-.LLSDACSB3574
.LLSDACSB3574:
	.uleb128 .LEHB24-.LFB3574
	.uleb128 .LEHE24-.LEHB24
	.uleb128 0
	.uleb128 0
	.uleb128 .LEHB25-.LFB3574
	.uleb128 .LEHE25-.LEHB25
	.uleb128 .L230-.LFB3574
	.uleb128 0
	.uleb128 .LEHB26-.LFB3574
	.uleb128 .LEHE26-.LEHB26
	.uleb128 0
	.uleb128 0
.LLSDACSE3574:
	.section	.text._ZN8opendnp314FunctorVisitorINS_7IndexedINS_6AnalogEEEZN8asiodnp318PrintingSOEHandler8PrintAllIS2_EEvRKNS_10HeaderInfoERKNS_11ICollectionINS1_IT_EEEEEUlRKS3_E_E7OnValueESH_,"axG",@progbits,_ZN8opendnp314FunctorVisitorINS_7IndexedINS_6AnalogEEEZN8asiodnp318PrintingSOEHandler8PrintAllIS2_EEvRKNS_10HeaderInfoERKNS_11ICollectionINS1_IT_EEEEEUlRKS3_E_E7OnValueESH_,comdat
	.size	_ZN8opendnp314FunctorVisitorINS_7IndexedINS_6AnalogEEEZN8asiodnp318PrintingSOEHandler8PrintAllIS2_EEvRKNS_10HeaderInfoERKNS_11ICollectionINS1_IT_EEEEEUlRKS3_E_E7OnValueESH_, .-_ZN8opendnp314FunctorVisitorINS_7IndexedINS_6AnalogEEEZN8asiodnp318PrintingSOEHandler8PrintAllIS2_EEvRKNS_10HeaderInfoERKNS_11ICollectionINS1_IT_EEEEEUlRKS3_E_E7OnValueESH_
	.section	.text.unlikely
.LCOLDB14:
	.text
.LHOTB14:
	.p2align 4
	.type	_ZN8asiodnp318PrintingSOEHandler13ValueToStringIN8opendnp37CounterEEENSt7__cxx1112basic_stringIcSt11char_traitsIcESaIcEEERKT_.isra.0, @function
_ZN8asiodnp318PrintingSOEHandler13ValueToStringIN8opendnp37CounterEEENSt7__cxx1112basic_stringIcSt11char_traitsIcESaIcEEERKT_.isra.0:
.LFB3647:
	.cfi_startproc
	.cfi_personality 0x9b,DW.ref.__gxx_personality_v0
	.cfi_lsda 0x1b,.LLSDA3647
	pushq	%r15
	.cfi_def_cfa_offset 16
	.cfi_offset 15, -16
	pushq	%r14
	.cfi_def_cfa_offset 24
	.cfi_offset 14, -24
	pushq	%r13
	.cfi_def_cfa_offset 32
	.cfi_offset 13, -32
	pushq	%r12
	.cfi_def_cfa_offset 40
	.cfi_offset 12, -40
	movq	%rdi, %r12
	pushq	%rbp
	.cfi_def_cfa_offset 48
	.cfi_offset 6, -48
	pushq	%rbx
	.cfi_def_cfa_offset 56
	.cfi_offset 3, -56
	subq	$424, %rsp
	.cfi_def_cfa_offset 480
	movq	%rsi, 16(%rsp)
	leaq	144(%rsp), %r13
	leaq	32(%rsp), %rbp
	movq	%r13, %rdi
	movq	%fs:40, %rax
	movq	%rax, 408(%rsp)
	xorl	%eax, %eax
	call	_ZNSt8ios_baseC2Ev@PLT
	movq	_ZTVSt9basic_iosIcSt11char_traitsIcEE@GOTPCREL(%rip), %rax
	pxor	%xmm0, %xmm0
	xorl	%esi, %esi
	movups	%xmm0, 376(%rsp)
	addq	$16, %rax
	movups	%xmm0, 392(%rsp)
	movq	%rax, 144(%rsp)
	xorl	%eax, %eax
	movw	%ax, 368(%rsp)
	movq	_ZTTNSt7__cxx1119basic_ostringstreamIcSt11char_traitsIcESaIcEEE@GOTPCREL(%rip), %rax
	movq	$0, 360(%rsp)
	movq	8(%rax), %rbx
	movq	16(%rax), %rax
	movq	-24(%rbx), %rdi
	movq	%rbx, 32(%rsp)
	movq	%rax, (%rsp)
	addq	%rbp, %rdi
	movq	%rax, (%rdi)
.LEHB27:
	call	_ZNSt9basic_iosIcSt11char_traitsIcEE4initEPSt15basic_streambufIcS1_E@PLT
.LEHE27:
	movq	_ZTVNSt7__cxx1119basic_ostringstreamIcSt11char_traitsIcESaIcEEE@GOTPCREL(%rip), %rax
	leaq	96(%rsp), %r15
	leaq	40(%rsp), %r14
	movq	%r15, %rdi
	leaq	24(%rax), %rdx
	addq	$64, %rax
	movq	%rax, 144(%rsp)
	movq	_ZTVSt15basic_streambufIcSt11char_traitsIcEE@GOTPCREL(%rip), %rax
	movq	%rdx, %xmm0
	movq	%rdx, 8(%rsp)
	addq	$16, %rax
	movq	%rax, %xmm1
	punpcklqdq	%xmm1, %xmm0
	movaps	%xmm0, 32(%rsp)
	pxor	%xmm0, %xmm0
	movaps	%xmm0, 48(%rsp)
	movaps	%xmm0, 64(%rsp)
	movaps	%xmm0, 80(%rsp)
	call	_ZNSt6localeC1Ev@PLT
	movq	_ZTVNSt7__cxx1115basic_stringbufIcSt11char_traitsIcESaIcEEE@GOTPCREL(%rip), %rax
	movq	%r14, %rsi
	movq	%r13, %rdi
	movl	$16, 104(%rsp)
	addq	$16, %rax
	movb	$0, 128(%rsp)
	movq	%rax, 40(%rsp)
	leaq	128(%rsp), %rax
	movq	%rax, 24(%rsp)
	movq	%rax, 112(%rsp)
	movq	$0, 120(%rsp)
.LEHB28:
	call	_ZNSt9basic_iosIcSt11char_traitsIcEE4initEPSt15basic_streambufIcS1_E@PLT
.LEHE28:
	movq	16(%rsp), %rax
	movq	%rbp, %rdi
	movl	(%rax), %esi
.LEHB29:
	call	_ZNSo9_M_insertImEERSoT_@PLT
.LEHE29:
	movq	80(%rsp), %rax
	leaq	16(%r12), %r14
	movq	$0, 8(%r12)
	movq	%r14, (%r12)
	movb	$0, 16(%r12)
	testq	%rax, %rax
	je	.L238
	movq	64(%rsp), %r8
	movq	72(%rsp), %rcx
	cmpq	%r8, %rax
	ja	.L254
	subq	%rcx, %r8
	xorl	%edx, %edx
	xorl	%esi, %esi
	movq	%r12, %rdi
.LEHB30:
	call	_ZNSt7__cxx1112basic_stringIcSt11char_traitsIcESaIcEE10_M_replaceEmmPKcm@PLT
.L240:
	movq	_ZTVNSt7__cxx1119basic_ostringstreamIcSt11char_traitsIcESaIcEEE@GOTPCREL(%rip), %rax
	movq	8(%rsp), %xmm0
	movq	112(%rsp), %rdi
	addq	$64, %rax
	movq	%rax, 144(%rsp)
	movq	_ZTVNSt7__cxx1115basic_stringbufIcSt11char_traitsIcESaIcEEE@GOTPCREL(%rip), %rax
	addq	$16, %rax
	movq	%rax, %xmm2
	punpcklqdq	%xmm2, %xmm0
	movaps	%xmm0, 32(%rsp)
	cmpq	24(%rsp), %rdi
	je	.L242
	call	_ZdlPv@PLT
.L242:
	movq	_ZTVSt15basic_streambufIcSt11char_traitsIcEE@GOTPCREL(%rip), %rax
	movq	%r15, %rdi
	addq	$16, %rax
	movq	%rax, 40(%rsp)
	call	_ZNSt6localeD1Ev@PLT
	movq	-24(%rbx), %rax
	movq	(%rsp), %rcx
	movq	%r13, %rdi
	movq	%rbx, 32(%rsp)
	movq	%rcx, 32(%rsp,%rax)
	movq	_ZTVSt9basic_iosIcSt11char_traitsIcEE@GOTPCREL(%rip), %rax
	addq	$16, %rax
	movq	%rax, 144(%rsp)
	call	_ZNSt8ios_baseD2Ev@PLT
	movq	408(%rsp), %rax
	xorq	%fs:40, %rax
	jne	.L255
	addq	$424, %rsp
	.cfi_remember_state
	.cfi_def_cfa_offset 56
	movq	%r12, %rax
	popq	%rbx
	.cfi_def_cfa_offset 48
	popq	%rbp
	.cfi_def_cfa_offset 40
	popq	%r12
	.cfi_def_cfa_offset 32
	popq	%r13
	.cfi_def_cfa_offset 24
	popq	%r14
	.cfi_def_cfa_offset 16
	popq	%r15
	.cfi_def_cfa_offset 8
	ret
	.p2align 4,,10
	.p2align 3
.L254:
	.cfi_restore_state
	subq	%rcx, %rax
	xorl	%edx, %edx
	xorl	%esi, %esi
	movq	%r12, %rdi
	movq	%rax, %r8
	call	_ZNSt7__cxx1112basic_stringIcSt11char_traitsIcESaIcEE10_M_replaceEmmPKcm@PLT
	jmp	.L240
	.p2align 4,,10
	.p2align 3
.L238:
	leaq	112(%rsp), %rsi
	movq	%r12, %rdi
	call	_ZNSt7__cxx1112basic_stringIcSt11char_traitsIcESaIcEE9_M_assignERKS4_@PLT
.LEHE30:
	jmp	.L240
.L255:
	call	__stack_chk_fail@PLT
.L247:
	endbr64
	movq	%rax, %r12
	jmp	.L245
.L249:
	endbr64
	movq	%rax, %rbp
	jmp	.L236
.L248:
	endbr64
	movq	%rax, %rbp
	jmp	.L237
.L250:
	endbr64
	movq	%rax, %rbx
	jmp	.L243
	.section	.gcc_except_table
.LLSDA3647:
	.byte	0xff
	.byte	0xff
	.byte	0x1
	.uleb128 .LLSDACSE3647-.LLSDACSB3647
.LLSDACSB3647:
	.uleb128 .LEHB27-.LFB3647
	.uleb128 .LEHE27-.LEHB27
	.uleb128 .L248-.LFB3647
	.uleb128 0
	.uleb128 .LEHB28-.LFB3647
	.uleb128 .LEHE28-.LEHB28
	.uleb128 .L249-.LFB3647
	.uleb128 0
	.uleb128 .LEHB29-.LFB3647
	.uleb128 .LEHE29-.LEHB29
	.uleb128 .L247-.LFB3647
	.uleb128 0
	.uleb128 .LEHB30-.LFB3647
	.uleb128 .LEHE30-.LEHB30
	.uleb128 .L250-.LFB3647
	.uleb128 0
.LLSDACSE3647:
	.text
	.cfi_endproc
	.section	.text.unlikely
	.cfi_startproc
	.cfi_personality 0x9b,DW.ref.__gxx_personality_v0
	.cfi_lsda 0x1b,.LLSDAC3647
	.type	_ZN8asiodnp318PrintingSOEHandler13ValueToStringIN8opendnp37CounterEEENSt7__cxx1112basic_stringIcSt11char_traitsIcESaIcEEERKT_.isra.0.cold, @function
_ZN8asiodnp318PrintingSOEHandler13ValueToStringIN8opendnp37CounterEEENSt7__cxx1112basic_stringIcSt11char_traitsIcESaIcEEERKT_.isra.0.cold:
.LFSB3647:
.L243:
	.cfi_def_cfa_offset 480
	.cfi_offset 3, -56
	.cfi_offset 6, -48
	.cfi_offset 12, -40
	.cfi_offset 13, -32
	.cfi_offset 14, -24
	.cfi_offset 15, -16
	movq	(%r12), %rdi
	cmpq	%rdi, %r14
	je	.L244
	call	_ZdlPv@PLT
.L244:
	movq	%rbx, %r12
.L245:
	movq	%rbp, %rdi
	call	_ZNSt7__cxx1119basic_ostringstreamIcSt11char_traitsIcESaIcEED1Ev@PLT
	movq	%r12, %rdi
.LEHB31:
	call	_Unwind_Resume@PLT
.L236:
	movq	%r14, %rdi
	call	_ZNSt7__cxx1115basic_stringbufIcSt11char_traitsIcESaIcEED1Ev@PLT
	movq	%rbx, 32(%rsp)
	movq	-24(%rbx), %rax
	movq	(%rsp), %rbx
	movq	%rbx, 32(%rsp,%rax)
.L237:
	movq	_ZTVSt9basic_iosIcSt11char_traitsIcEE@GOTPCREL(%rip), %rax
	movq	%r13, %rdi
	addq	$16, %rax
	movq	%rax, 144(%rsp)
	call	_ZNSt8ios_baseD2Ev@PLT
	movq	%rbp, %rdi
	call	_Unwind_Resume@PLT
.LEHE31:
	.cfi_endproc
.LFE3647:
	.section	.gcc_except_table
.LLSDAC3647:
	.byte	0xff
	.byte	0xff
	.byte	0x1
	.uleb128 .LLSDACSEC3647-.LLSDACSBC3647
.LLSDACSBC3647:
	.uleb128 .LEHB31-.LCOLDB14
	.uleb128 .LEHE31-.LEHB31
	.uleb128 0
	.uleb128 0
.LLSDACSEC3647:
	.section	.text.unlikely
	.text
	.size	_ZN8asiodnp318PrintingSOEHandler13ValueToStringIN8opendnp37CounterEEENSt7__cxx1112basic_stringIcSt11char_traitsIcESaIcEEERKT_.isra.0, .-_ZN8asiodnp318PrintingSOEHandler13ValueToStringIN8opendnp37CounterEEENSt7__cxx1112basic_stringIcSt11char_traitsIcESaIcEEERKT_.isra.0
	.section	.text.unlikely
	.size	_ZN8asiodnp318PrintingSOEHandler13ValueToStringIN8opendnp37CounterEEENSt7__cxx1112basic_stringIcSt11char_traitsIcESaIcEEERKT_.isra.0.cold, .-_ZN8asiodnp318PrintingSOEHandler13ValueToStringIN8opendnp37CounterEEENSt7__cxx1112basic_stringIcSt11char_traitsIcESaIcEEERKT_.isra.0.cold
.LCOLDE14:
	.text
.LHOTE14:
	.set	_ZN8asiodnp318PrintingSOEHandler13ValueToStringIN8opendnp313FrozenCounterEEENSt7__cxx1112basic_stringIcSt11char_traitsIcESaIcEEERKT_.isra.0,_ZN8asiodnp318PrintingSOEHandler13ValueToStringIN8opendnp37CounterEEENSt7__cxx1112basic_stringIcSt11char_traitsIcESaIcEEERKT_.isra.0
	.section	.text._ZN8opendnp314FunctorVisitorINS_7IndexedINS_13FrozenCounterEEEZN8asiodnp318PrintingSOEHandler8PrintAllIS2_EEvRKNS_10HeaderInfoERKNS_11ICollectionINS1_IT_EEEEEUlRKS3_E_E7OnValueESH_,"axG",@progbits,_ZN8opendnp314FunctorVisitorINS_7IndexedINS_13FrozenCounterEEEZN8asiodnp318PrintingSOEHandler8PrintAllIS2_EEvRKNS_10HeaderInfoERKNS_11ICollectionINS1_IT_EEEEEUlRKS3_E_E7OnValueESH_,comdat
	.align 2
	.p2align 4
	.weak	_ZN8opendnp314FunctorVisitorINS_7IndexedINS_13FrozenCounterEEEZN8asiodnp318PrintingSOEHandler8PrintAllIS2_EEvRKNS_10HeaderInfoERKNS_11ICollectionINS1_IT_EEEEEUlRKS3_E_E7OnValueESH_
	.type	_ZN8opendnp314FunctorVisitorINS_7IndexedINS_13FrozenCounterEEEZN8asiodnp318PrintingSOEHandler8PrintAllIS2_EEvRKNS_10HeaderInfoERKNS_11ICollectionINS1_IT_EEEEEUlRKS3_E_E7OnValueESH_, @function
_ZN8opendnp314FunctorVisitorINS_7IndexedINS_13FrozenCounterEEEZN8asiodnp318PrintingSOEHandler8PrintAllIS2_EEvRKNS_10HeaderInfoERKNS_11ICollectionINS1_IT_EEEEEUlRKS3_E_E7OnValueESH_:
.LFB3572:
	.cfi_startproc
	.cfi_personality 0x9b,DW.ref.__gxx_personality_v0
	.cfi_lsda 0x1b,.LLSDA3572
	endbr64
	pushq	%r12
	.cfi_def_cfa_offset 16
	.cfi_offset 12, -16
	movl	$1, %edx
	pushq	%rbp
	.cfi_def_cfa_offset 24
	.cfi_offset 6, -24
	pushq	%rbx
	.cfi_def_cfa_offset 32
	.cfi_offset 3, -32
	movq	%rsi, %rbx
	subq	$48, %rsp
	.cfi_def_cfa_offset 80
	movq	_ZSt4cout@GOTPCREL(%rip), %r12
	movzwl	24(%rsi), %ebp
	leaq	.LC0(%rip), %rsi
	movq	%fs:40, %rax
	movq	%rax, 40(%rsp)
	xorl	%eax, %eax
	movq	%r12, %rdi
.LEHB32:
	call	_ZSt16__ostream_insertIcSt11char_traitsIcEERSt13basic_ostreamIT_T0_ES6_PKS3_l@PLT
	movzwl	%bp, %esi
	movq	%r12, %rdi
	call	_ZNSo9_M_insertImEERSoT_@PLT
	movl	$4, %edx
	leaq	.LC1(%rip), %rsi
	movq	%rax, %rdi
	movq	%rax, %rbp
	call	_ZSt16__ostream_insertIcSt11char_traitsIcEERSt13basic_ostreamIT_T0_ES6_PKS3_l@PLT
	movq	%rsp, %rdi
	leaq	16(%rbx), %rsi
	call	_ZN8asiodnp318PrintingSOEHandler13ValueToStringIN8opendnp313FrozenCounterEEENSt7__cxx1112basic_stringIcSt11char_traitsIcESaIcEEERKT_.isra.0
.LEHE32:
	movq	8(%rsp), %rdx
	movq	(%rsp), %rsi
	movq	%rbp, %rdi
.LEHB33:
	call	_ZSt16__ostream_insertIcSt11char_traitsIcEERSt13basic_ostreamIT_T0_ES6_PKS3_l@PLT
	movl	$3, %edx
	leaq	.LC3(%rip), %rsi
	movq	%rax, %rdi
	movq	%rax, %rbp
	call	_ZSt16__ostream_insertIcSt11char_traitsIcEERSt13basic_ostreamIT_T0_ES6_PKS3_l@PLT
	movzbl	(%rbx), %esi
	movq	%rbp, %rdi
	call	_ZNSolsEi@PLT
	movl	$3, %edx
	leaq	.LC3(%rip), %rsi
	movq	%rax, %rdi
	movq	%rax, %rbp
	call	_ZSt16__ostream_insertIcSt11char_traitsIcEERSt13basic_ostreamIT_T0_ES6_PKS3_l@PLT
	movq	8(%rbx), %rsi
	movq	%rbp, %rdi
	call	_ZNSo9_M_insertIlEERSoT_@PLT
	movq	%rax, %rbp
	movq	(%rax), %rax
	movq	-24(%rax), %rax
	movq	240(%rbp,%rax), %r12
	testq	%r12, %r12
	je	.L267
	cmpb	$0, 56(%r12)
	je	.L258
	movsbl	67(%r12), %esi
.L259:
	movq	%rbp, %rdi
	call	_ZNSo3putEc@PLT
	movq	%rax, %rdi
	call	_ZNSo5flushEv@PLT
	movq	(%rsp), %rdi
	leaq	16(%rsp), %rax
	cmpq	%rax, %rdi
	je	.L256
	call	_ZdlPv@PLT
.L256:
	movq	40(%rsp), %rax
	xorq	%fs:40, %rax
	jne	.L268
	addq	$48, %rsp
	.cfi_remember_state
	.cfi_def_cfa_offset 32
	popq	%rbx
	.cfi_def_cfa_offset 24
	popq	%rbp
	.cfi_def_cfa_offset 16
	popq	%r12
	.cfi_def_cfa_offset 8
	ret
	.p2align 4,,10
	.p2align 3
.L258:
	.cfi_restore_state
	movq	%r12, %rdi
	call	_ZNKSt5ctypeIcE13_M_widen_initEv@PLT
	movq	(%r12), %rax
	movl	$10, %esi
	movq	48(%rax), %rax
	cmpq	_ZNKSt5ctypeIcE8do_widenEc@GOTPCREL(%rip), %rax
	je	.L259
	movq	%r12, %rdi
	call	*%rax
	movsbl	%al, %esi
	jmp	.L259
.L268:
	call	__stack_chk_fail@PLT
.L267:
	call	_ZSt16__throw_bad_castv@PLT
.LEHE33:
.L265:
	endbr64
	movq	%rax, %rbp
.L261:
	movq	(%rsp), %rdi
	leaq	16(%rsp), %rax
	cmpq	%rax, %rdi
	je	.L262
	call	_ZdlPv@PLT
.L262:
	movq	%rbp, %rdi
.LEHB34:
	call	_Unwind_Resume@PLT
.LEHE34:
	.cfi_endproc
.LFE3572:
	.section	.gcc_except_table
.LLSDA3572:
	.byte	0xff
	.byte	0xff
	.byte	0x1
	.uleb128 .LLSDACSE3572-.LLSDACSB3572
.LLSDACSB3572:
	.uleb128 .LEHB32-.LFB3572
	.uleb128 .LEHE32-.LEHB32
	.uleb128 0
	.uleb128 0
	.uleb128 .LEHB33-.LFB3572
	.uleb128 .LEHE33-.LEHB33
	.uleb128 .L265-.LFB3572
	.uleb128 0
	.uleb128 .LEHB34-.LFB3572
	.uleb128 .LEHE34-.LEHB34
	.uleb128 0
	.uleb128 0
.LLSDACSE3572:
	.section	.text._ZN8opendnp314FunctorVisitorINS_7IndexedINS_13FrozenCounterEEEZN8asiodnp318PrintingSOEHandler8PrintAllIS2_EEvRKNS_10HeaderInfoERKNS_11ICollectionINS1_IT_EEEEEUlRKS3_E_E7OnValueESH_,"axG",@progbits,_ZN8opendnp314FunctorVisitorINS_7IndexedINS_13FrozenCounterEEEZN8asiodnp318PrintingSOEHandler8PrintAllIS2_EEvRKNS_10HeaderInfoERKNS_11ICollectionINS1_IT_EEEEEUlRKS3_E_E7OnValueESH_,comdat
	.size	_ZN8opendnp314FunctorVisitorINS_7IndexedINS_13FrozenCounterEEEZN8asiodnp318PrintingSOEHandler8PrintAllIS2_EEvRKNS_10HeaderInfoERKNS_11ICollectionINS1_IT_EEEEEUlRKS3_E_E7OnValueESH_, .-_ZN8opendnp314FunctorVisitorINS_7IndexedINS_13FrozenCounterEEEZN8asiodnp318PrintingSOEHandler8PrintAllIS2_EEvRKNS_10HeaderInfoERKNS_11ICollectionINS1_IT_EEEEEUlRKS3_E_E7OnValueESH_
	.section	.text._ZN8opendnp314FunctorVisitorINS_7IndexedINS_7CounterEEEZN8asiodnp318PrintingSOEHandler8PrintAllIS2_EEvRKNS_10HeaderInfoERKNS_11ICollectionINS1_IT_EEEEEUlRKS3_E_E7OnValueESH_,"axG",@progbits,_ZN8opendnp314FunctorVisitorINS_7IndexedINS_7CounterEEEZN8asiodnp318PrintingSOEHandler8PrintAllIS2_EEvRKNS_10HeaderInfoERKNS_11ICollectionINS1_IT_EEEEEUlRKS3_E_E7OnValueESH_,comdat
	.align 2
	.p2align 4
	.weak	_ZN8opendnp314FunctorVisitorINS_7IndexedINS_7CounterEEEZN8asiodnp318PrintingSOEHandler8PrintAllIS2_EEvRKNS_10HeaderInfoERKNS_11ICollectionINS1_IT_EEEEEUlRKS3_E_E7OnValueESH_
	.type	_ZN8opendnp314FunctorVisitorINS_7IndexedINS_7CounterEEEZN8asiodnp318PrintingSOEHandler8PrintAllIS2_EEvRKNS_10HeaderInfoERKNS_11ICollectionINS1_IT_EEEEEUlRKS3_E_E7OnValueESH_, @function
_ZN8opendnp314FunctorVisitorINS_7IndexedINS_7CounterEEEZN8asiodnp318PrintingSOEHandler8PrintAllIS2_EEvRKNS_10HeaderInfoERKNS_11ICollectionINS1_IT_EEEEEUlRKS3_E_E7OnValueESH_:
.LFB3573:
	.cfi_startproc
	.cfi_personality 0x9b,DW.ref.__gxx_personality_v0
	.cfi_lsda 0x1b,.LLSDA3573
	endbr64
	pushq	%r12
	.cfi_def_cfa_offset 16
	.cfi_offset 12, -16
	movl	$1, %edx
	pushq	%rbp
	.cfi_def_cfa_offset 24
	.cfi_offset 6, -24
	pushq	%rbx
	.cfi_def_cfa_offset 32
	.cfi_offset 3, -32
	movq	%rsi, %rbx
	subq	$48, %rsp
	.cfi_def_cfa_offset 80
	movq	_ZSt4cout@GOTPCREL(%rip), %r12
	movzwl	24(%rsi), %ebp
	leaq	.LC0(%rip), %rsi
	movq	%fs:40, %rax
	movq	%rax, 40(%rsp)
	xorl	%eax, %eax
	movq	%r12, %rdi
.LEHB35:
	call	_ZSt16__ostream_insertIcSt11char_traitsIcEERSt13basic_ostreamIT_T0_ES6_PKS3_l@PLT
	movzwl	%bp, %esi
	movq	%r12, %rdi
	call	_ZNSo9_M_insertImEERSoT_@PLT
	movl	$4, %edx
	leaq	.LC1(%rip), %rsi
	movq	%rax, %rdi
	movq	%rax, %rbp
	call	_ZSt16__ostream_insertIcSt11char_traitsIcEERSt13basic_ostreamIT_T0_ES6_PKS3_l@PLT
	movq	%rsp, %rdi
	leaq	16(%rbx), %rsi
	call	_ZN8asiodnp318PrintingSOEHandler13ValueToStringIN8opendnp37CounterEEENSt7__cxx1112basic_stringIcSt11char_traitsIcESaIcEEERKT_.isra.0
.LEHE35:
	movq	8(%rsp), %rdx
	movq	(%rsp), %rsi
	movq	%rbp, %rdi
.LEHB36:
	call	_ZSt16__ostream_insertIcSt11char_traitsIcEERSt13basic_ostreamIT_T0_ES6_PKS3_l@PLT
	movl	$3, %edx
	leaq	.LC3(%rip), %rsi
	movq	%rax, %rdi
	movq	%rax, %rbp
	call	_ZSt16__ostream_insertIcSt11char_traitsIcEERSt13basic_ostreamIT_T0_ES6_PKS3_l@PLT
	movzbl	(%rbx), %esi
	movq	%rbp, %rdi
	call	_ZNSolsEi@PLT
	movl	$3, %edx
	leaq	.LC3(%rip), %rsi
	movq	%rax, %rdi
	movq	%rax, %rbp
	call	_ZSt16__ostream_insertIcSt11char_traitsIcEERSt13basic_ostreamIT_T0_ES6_PKS3_l@PLT
	movq	8(%rbx), %rsi
	movq	%rbp, %rdi
	call	_ZNSo9_M_insertIlEERSoT_@PLT
	movq	%rax, %rbp
	movq	(%rax), %rax
	movq	-24(%rax), %rax
	movq	240(%rbp,%rax), %r12
	testq	%r12, %r12
	je	.L280
	cmpb	$0, 56(%r12)
	je	.L271
	movsbl	67(%r12), %esi
.L272:
	movq	%rbp, %rdi
	call	_ZNSo3putEc@PLT
	movq	%rax, %rdi
	call	_ZNSo5flushEv@PLT
	movq	(%rsp), %rdi
	leaq	16(%rsp), %rax
	cmpq	%rax, %rdi
	je	.L269
	call	_ZdlPv@PLT
.L269:
	movq	40(%rsp), %rax
	xorq	%fs:40, %rax
	jne	.L281
	addq	$48, %rsp
	.cfi_remember_state
	.cfi_def_cfa_offset 32
	popq	%rbx
	.cfi_def_cfa_offset 24
	popq	%rbp
	.cfi_def_cfa_offset 16
	popq	%r12
	.cfi_def_cfa_offset 8
	ret
	.p2align 4,,10
	.p2align 3
.L271:
	.cfi_restore_state
	movq	%r12, %rdi
	call	_ZNKSt5ctypeIcE13_M_widen_initEv@PLT
	movq	(%r12), %rax
	movl	$10, %esi
	movq	48(%rax), %rax
	cmpq	_ZNKSt5ctypeIcE8do_widenEc@GOTPCREL(%rip), %rax
	je	.L272
	movq	%r12, %rdi
	call	*%rax
	movsbl	%al, %esi
	jmp	.L272
.L281:
	call	__stack_chk_fail@PLT
.L280:
	call	_ZSt16__throw_bad_castv@PLT
.LEHE36:
.L278:
	endbr64
	movq	%rax, %rbp
.L274:
	movq	(%rsp), %rdi
	leaq	16(%rsp), %rax
	cmpq	%rax, %rdi
	je	.L275
	call	_ZdlPv@PLT
.L275:
	movq	%rbp, %rdi
.LEHB37:
	call	_Unwind_Resume@PLT
.LEHE37:
	.cfi_endproc
.LFE3573:
	.section	.gcc_except_table
.LLSDA3573:
	.byte	0xff
	.byte	0xff
	.byte	0x1
	.uleb128 .LLSDACSE3573-.LLSDACSB3573
.LLSDACSB3573:
	.uleb128 .LEHB35-.LFB3573
	.uleb128 .LEHE35-.LEHB35
	.uleb128 0
	.uleb128 0
	.uleb128 .LEHB36-.LFB3573
	.uleb128 .LEHE36-.LEHB36
	.uleb128 .L278-.LFB3573
	.uleb128 0
	.uleb128 .LEHB37-.LFB3573
	.uleb128 .LEHE37-.LEHB37
	.uleb128 0
	.uleb128 0
.LLSDACSE3573:
	.section	.text._ZN8opendnp314FunctorVisitorINS_7IndexedINS_7CounterEEEZN8asiodnp318PrintingSOEHandler8PrintAllIS2_EEvRKNS_10HeaderInfoERKNS_11ICollectionINS1_IT_EEEEEUlRKS3_E_E7OnValueESH_,"axG",@progbits,_ZN8opendnp314FunctorVisitorINS_7IndexedINS_7CounterEEEZN8asiodnp318PrintingSOEHandler8PrintAllIS2_EEvRKNS_10HeaderInfoERKNS_11ICollectionINS1_IT_EEEEEUlRKS3_E_E7OnValueESH_,comdat
	.size	_ZN8opendnp314FunctorVisitorINS_7IndexedINS_7CounterEEEZN8asiodnp318PrintingSOEHandler8PrintAllIS2_EEvRKNS_10HeaderInfoERKNS_11ICollectionINS1_IT_EEEEEUlRKS3_E_E7OnValueESH_, .-_ZN8opendnp314FunctorVisitorINS_7IndexedINS_7CounterEEEZN8asiodnp318PrintingSOEHandler8PrintAllIS2_EEvRKNS_10HeaderInfoERKNS_11ICollectionINS1_IT_EEEEEUlRKS3_E_E7OnValueESH_
	.section	.text.startup,"ax",@progbits
	.p2align 4
	.type	_GLOBAL__sub_I_PrintingSOEHandler.cpp, @function
_GLOBAL__sub_I_PrintingSOEHandler.cpp:
.LFB3587:
	.cfi_startproc
	endbr64
	subq	$8, %rsp
	.cfi_def_cfa_offset 16
	leaq	_ZStL8__ioinit(%rip), %rdi
	call	_ZNSt8ios_base4InitC1Ev@PLT
	movq	_ZNSt8ios_base4InitD1Ev@GOTPCREL(%rip), %rdi
	addq	$8, %rsp
	.cfi_def_cfa_offset 8
	leaq	__dso_handle(%rip), %rdx
	leaq	_ZStL8__ioinit(%rip), %rsi
	jmp	__cxa_atexit@PLT
	.cfi_endproc
.LFE3587:
	.size	_GLOBAL__sub_I_PrintingSOEHandler.cpp, .-_GLOBAL__sub_I_PrintingSOEHandler.cpp
	.section	.init_array,"aw"
	.align 8
	.quad	_GLOBAL__sub_I_PrintingSOEHandler.cpp
	.weak	_ZTSN8opendnp313ITransactableE
	.section	.rodata._ZTSN8opendnp313ITransactableE,"aG",@progbits,_ZTSN8opendnp313ITransactableE,comdat
	.align 16
	.type	_ZTSN8opendnp313ITransactableE, @object
	.size	_ZTSN8opendnp313ITransactableE, 27
_ZTSN8opendnp313ITransactableE:
	.string	"N8opendnp313ITransactableE"
	.weak	_ZTIN8opendnp313ITransactableE
	.section	.data.rel.ro._ZTIN8opendnp313ITransactableE,"awG",@progbits,_ZTIN8opendnp313ITransactableE,comdat
	.align 8
	.type	_ZTIN8opendnp313ITransactableE, @object
	.size	_ZTIN8opendnp313ITransactableE, 16
_ZTIN8opendnp313ITransactableE:
	.quad	_ZTVN10__cxxabiv117__class_type_infoE+16
	.quad	_ZTSN8opendnp313ITransactableE
	.weak	_ZTSN8opendnp311ISOEHandlerE
	.section	.rodata._ZTSN8opendnp311ISOEHandlerE,"aG",@progbits,_ZTSN8opendnp311ISOEHandlerE,comdat
	.align 16
	.type	_ZTSN8opendnp311ISOEHandlerE, @object
	.size	_ZTSN8opendnp311ISOEHandlerE, 25
_ZTSN8opendnp311ISOEHandlerE:
	.string	"N8opendnp311ISOEHandlerE"
	.weak	_ZTIN8opendnp311ISOEHandlerE
	.section	.data.rel.ro._ZTIN8opendnp311ISOEHandlerE,"awG",@progbits,_ZTIN8opendnp311ISOEHandlerE,comdat
	.align 8
	.type	_ZTIN8opendnp311ISOEHandlerE, @object
	.size	_ZTIN8opendnp311ISOEHandlerE, 24
_ZTIN8opendnp311ISOEHandlerE:
	.quad	_ZTVN10__cxxabiv120__si_class_type_infoE+16
	.quad	_ZTSN8opendnp311ISOEHandlerE
	.quad	_ZTIN8opendnp313ITransactableE
	.weak	_ZTSN8asiodnp318PrintingSOEHandlerE
	.section	.rodata._ZTSN8asiodnp318PrintingSOEHandlerE,"aG",@progbits,_ZTSN8asiodnp318PrintingSOEHandlerE,comdat
	.align 32
	.type	_ZTSN8asiodnp318PrintingSOEHandlerE, @object
	.size	_ZTSN8asiodnp318PrintingSOEHandlerE, 32
_ZTSN8asiodnp318PrintingSOEHandlerE:
	.string	"N8asiodnp318PrintingSOEHandlerE"
	.weak	_ZTIN8asiodnp318PrintingSOEHandlerE
	.section	.data.rel.ro._ZTIN8asiodnp318PrintingSOEHandlerE,"awG",@progbits,_ZTIN8asiodnp318PrintingSOEHandlerE,comdat
	.align 8
	.type	_ZTIN8asiodnp318PrintingSOEHandlerE, @object
	.size	_ZTIN8asiodnp318PrintingSOEHandlerE, 24
_ZTIN8asiodnp318PrintingSOEHandlerE:
	.quad	_ZTVN10__cxxabiv120__si_class_type_infoE+16
	.quad	_ZTSN8asiodnp318PrintingSOEHandlerE
	.quad	_ZTIN8opendnp311ISOEHandlerE
	.weak	_ZTSN8opendnp38IVisitorINS_7IndexedINS_11OctetStringEEEEE
	.section	.rodata._ZTSN8opendnp38IVisitorINS_7IndexedINS_11OctetStringEEEEE,"aG",@progbits,_ZTSN8opendnp38IVisitorINS_7IndexedINS_11OctetStringEEEEE,comdat
	.align 32
	.type	_ZTSN8opendnp38IVisitorINS_7IndexedINS_11OctetStringEEEEE, @object
	.size	_ZTSN8opendnp38IVisitorINS_7IndexedINS_11OctetStringEEEEE, 54
_ZTSN8opendnp38IVisitorINS_7IndexedINS_11OctetStringEEEEE:
	.string	"N8opendnp38IVisitorINS_7IndexedINS_11OctetStringEEEEE"
	.weak	_ZTIN8opendnp38IVisitorINS_7IndexedINS_11OctetStringEEEEE
	.section	.data.rel.ro._ZTIN8opendnp38IVisitorINS_7IndexedINS_11OctetStringEEEEE,"awG",@progbits,_ZTIN8opendnp38IVisitorINS_7IndexedINS_11OctetStringEEEEE,comdat
	.align 8
	.type	_ZTIN8opendnp38IVisitorINS_7IndexedINS_11OctetStringEEEEE, @object
	.size	_ZTIN8opendnp38IVisitorINS_7IndexedINS_11OctetStringEEEEE, 16
_ZTIN8opendnp38IVisitorINS_7IndexedINS_11OctetStringEEEEE:
	.quad	_ZTVN10__cxxabiv117__class_type_infoE+16
	.quad	_ZTSN8opendnp38IVisitorINS_7IndexedINS_11OctetStringEEEEE
	.section	.data.rel.ro,"aw"
	.align 8
	.type	_ZTIN8opendnp314FunctorVisitorINS_7IndexedINS_11OctetStringEEEZN8asiodnp318PrintingSOEHandler7ProcessERKNS_10HeaderInfoERKNS_11ICollectionIS3_EEEUlRKS3_E_EE, @object
	.size	_ZTIN8opendnp314FunctorVisitorINS_7IndexedINS_11OctetStringEEEZN8asiodnp318PrintingSOEHandler7ProcessERKNS_10HeaderInfoERKNS_11ICollectionIS3_EEEUlRKS3_E_EE, 24
_ZTIN8opendnp314FunctorVisitorINS_7IndexedINS_11OctetStringEEEZN8asiodnp318PrintingSOEHandler7ProcessERKNS_10HeaderInfoERKNS_11ICollectionIS3_EEEUlRKS3_E_EE:
	.quad	_ZTVN10__cxxabiv120__si_class_type_infoE+16
	.quad	_ZTSN8opendnp314FunctorVisitorINS_7IndexedINS_11OctetStringEEEZN8asiodnp318PrintingSOEHandler7ProcessERKNS_10HeaderInfoERKNS_11ICollectionIS3_EEEUlRKS3_E_EE
	.quad	_ZTIN8opendnp38IVisitorINS_7IndexedINS_11OctetStringEEEEE
	.section	.rodata
	.align 32
	.type	_ZTSN8opendnp314FunctorVisitorINS_7IndexedINS_11OctetStringEEEZN8asiodnp318PrintingSOEHandler7ProcessERKNS_10HeaderInfoERKNS_11ICollectionIS3_EEEUlRKS3_E_EE, @object
	.size	_ZTSN8opendnp314FunctorVisitorINS_7IndexedINS_11OctetStringEEEZN8asiodnp318PrintingSOEHandler7ProcessERKNS_10HeaderInfoERKNS_11ICollectionIS3_EEEUlRKS3_E_EE, 154
_ZTSN8opendnp314FunctorVisitorINS_7IndexedINS_11OctetStringEEEZN8asiodnp318PrintingSOEHandler7ProcessERKNS_10HeaderInfoERKNS_11ICollectionIS3_EEEUlRKS3_E_EE:
	.string	"*N8opendnp314FunctorVisitorINS_7IndexedINS_11OctetStringEEEZN8asiodnp318PrintingSOEHandler7ProcessERKNS_10HeaderInfoERKNS_11ICollectionIS3_EEEUlRKS3_E_EE"
	.weak	_ZTSN8opendnp38IVisitorINS_7IndexedINS_15TimeAndIntervalEEEEE
	.section	.rodata._ZTSN8opendnp38IVisitorINS_7IndexedINS_15TimeAndIntervalEEEEE,"aG",@progbits,_ZTSN8opendnp38IVisitorINS_7IndexedINS_15TimeAndIntervalEEEEE,comdat
	.align 32
	.type	_ZTSN8opendnp38IVisitorINS_7IndexedINS_15TimeAndIntervalEEEEE, @object
	.size	_ZTSN8opendnp38IVisitorINS_7IndexedINS_15TimeAndIntervalEEEEE, 58
_ZTSN8opendnp38IVisitorINS_7IndexedINS_15TimeAndIntervalEEEEE:
	.string	"N8opendnp38IVisitorINS_7IndexedINS_15TimeAndIntervalEEEEE"
	.weak	_ZTIN8opendnp38IVisitorINS_7IndexedINS_15TimeAndIntervalEEEEE
	.section	.data.rel.ro._ZTIN8opendnp38IVisitorINS_7IndexedINS_15TimeAndIntervalEEEEE,"awG",@progbits,_ZTIN8opendnp38IVisitorINS_7IndexedINS_15TimeAndIntervalEEEEE,comdat
	.align 8
	.type	_ZTIN8opendnp38IVisitorINS_7IndexedINS_15TimeAndIntervalEEEEE, @object
	.size	_ZTIN8opendnp38IVisitorINS_7IndexedINS_15TimeAndIntervalEEEEE, 16
_ZTIN8opendnp38IVisitorINS_7IndexedINS_15TimeAndIntervalEEEEE:
	.quad	_ZTVN10__cxxabiv117__class_type_infoE+16
	.quad	_ZTSN8opendnp38IVisitorINS_7IndexedINS_15TimeAndIntervalEEEEE
	.section	.data.rel.ro
	.align 8
	.type	_ZTIN8opendnp314FunctorVisitorINS_7IndexedINS_15TimeAndIntervalEEEZN8asiodnp318PrintingSOEHandler7ProcessERKNS_10HeaderInfoERKNS_11ICollectionIS3_EEEUlRKS3_E_EE, @object
	.size	_ZTIN8opendnp314FunctorVisitorINS_7IndexedINS_15TimeAndIntervalEEEZN8asiodnp318PrintingSOEHandler7ProcessERKNS_10HeaderInfoERKNS_11ICollectionIS3_EEEUlRKS3_E_EE, 24
_ZTIN8opendnp314FunctorVisitorINS_7IndexedINS_15TimeAndIntervalEEEZN8asiodnp318PrintingSOEHandler7ProcessERKNS_10HeaderInfoERKNS_11ICollectionIS3_EEEUlRKS3_E_EE:
	.quad	_ZTVN10__cxxabiv120__si_class_type_infoE+16
	.quad	_ZTSN8opendnp314FunctorVisitorINS_7IndexedINS_15TimeAndIntervalEEEZN8asiodnp318PrintingSOEHandler7ProcessERKNS_10HeaderInfoERKNS_11ICollectionIS3_EEEUlRKS3_E_EE
	.quad	_ZTIN8opendnp38IVisitorINS_7IndexedINS_15TimeAndIntervalEEEEE
	.section	.rodata
	.align 32
	.type	_ZTSN8opendnp314FunctorVisitorINS_7IndexedINS_15TimeAndIntervalEEEZN8asiodnp318PrintingSOEHandler7ProcessERKNS_10HeaderInfoERKNS_11ICollectionIS3_EEEUlRKS3_E_EE, @object
	.size	_ZTSN8opendnp314FunctorVisitorINS_7IndexedINS_15TimeAndIntervalEEEZN8asiodnp318PrintingSOEHandler7ProcessERKNS_10HeaderInfoERKNS_11ICollectionIS3_EEEUlRKS3_E_EE, 158
_ZTSN8opendnp314FunctorVisitorINS_7IndexedINS_15TimeAndIntervalEEEZN8asiodnp318PrintingSOEHandler7ProcessERKNS_10HeaderInfoERKNS_11ICollectionIS3_EEEUlRKS3_E_EE:
	.string	"*N8opendnp314FunctorVisitorINS_7IndexedINS_15TimeAndIntervalEEEZN8asiodnp318PrintingSOEHandler7ProcessERKNS_10HeaderInfoERKNS_11ICollectionIS3_EEEUlRKS3_E_EE"
	.weak	_ZTSN8opendnp38IVisitorINS_7IndexedINS_18BinaryCommandEventEEEEE
	.section	.rodata._ZTSN8opendnp38IVisitorINS_7IndexedINS_18BinaryCommandEventEEEEE,"aG",@progbits,_ZTSN8opendnp38IVisitorINS_7IndexedINS_18BinaryCommandEventEEEEE,comdat
	.align 32
	.type	_ZTSN8opendnp38IVisitorINS_7IndexedINS_18BinaryCommandEventEEEEE, @object
	.size	_ZTSN8opendnp38IVisitorINS_7IndexedINS_18BinaryCommandEventEEEEE, 61
_ZTSN8opendnp38IVisitorINS_7IndexedINS_18BinaryCommandEventEEEEE:
	.string	"N8opendnp38IVisitorINS_7IndexedINS_18BinaryCommandEventEEEEE"
	.weak	_ZTIN8opendnp38IVisitorINS_7IndexedINS_18BinaryCommandEventEEEEE
	.section	.data.rel.ro._ZTIN8opendnp38IVisitorINS_7IndexedINS_18BinaryCommandEventEEEEE,"awG",@progbits,_ZTIN8opendnp38IVisitorINS_7IndexedINS_18BinaryCommandEventEEEEE,comdat
	.align 8
	.type	_ZTIN8opendnp38IVisitorINS_7IndexedINS_18BinaryCommandEventEEEEE, @object
	.size	_ZTIN8opendnp38IVisitorINS_7IndexedINS_18BinaryCommandEventEEEEE, 16
_ZTIN8opendnp38IVisitorINS_7IndexedINS_18BinaryCommandEventEEEEE:
	.quad	_ZTVN10__cxxabiv117__class_type_infoE+16
	.quad	_ZTSN8opendnp38IVisitorINS_7IndexedINS_18BinaryCommandEventEEEEE
	.section	.data.rel.ro
	.align 8
	.type	_ZTIN8opendnp314FunctorVisitorINS_7IndexedINS_18BinaryCommandEventEEEZN8asiodnp318PrintingSOEHandler7ProcessERKNS_10HeaderInfoERKNS_11ICollectionIS3_EEEUlRKS3_E_EE, @object
	.size	_ZTIN8opendnp314FunctorVisitorINS_7IndexedINS_18BinaryCommandEventEEEZN8asiodnp318PrintingSOEHandler7ProcessERKNS_10HeaderInfoERKNS_11ICollectionIS3_EEEUlRKS3_E_EE, 24
_ZTIN8opendnp314FunctorVisitorINS_7IndexedINS_18BinaryCommandEventEEEZN8asiodnp318PrintingSOEHandler7ProcessERKNS_10HeaderInfoERKNS_11ICollectionIS3_EEEUlRKS3_E_EE:
	.quad	_ZTVN10__cxxabiv120__si_class_type_infoE+16
	.quad	_ZTSN8opendnp314FunctorVisitorINS_7IndexedINS_18BinaryCommandEventEEEZN8asiodnp318PrintingSOEHandler7ProcessERKNS_10HeaderInfoERKNS_11ICollectionIS3_EEEUlRKS3_E_EE
	.quad	_ZTIN8opendnp38IVisitorINS_7IndexedINS_18BinaryCommandEventEEEEE
	.section	.rodata
	.align 32
	.type	_ZTSN8opendnp314FunctorVisitorINS_7IndexedINS_18BinaryCommandEventEEEZN8asiodnp318PrintingSOEHandler7ProcessERKNS_10HeaderInfoERKNS_11ICollectionIS3_EEEUlRKS3_E_EE, @object
	.size	_ZTSN8opendnp314FunctorVisitorINS_7IndexedINS_18BinaryCommandEventEEEZN8asiodnp318PrintingSOEHandler7ProcessERKNS_10HeaderInfoERKNS_11ICollectionIS3_EEEUlRKS3_E_EE, 161
_ZTSN8opendnp314FunctorVisitorINS_7IndexedINS_18BinaryCommandEventEEEZN8asiodnp318PrintingSOEHandler7ProcessERKNS_10HeaderInfoERKNS_11ICollectionIS3_EEEUlRKS3_E_EE:
	.string	"*N8opendnp314FunctorVisitorINS_7IndexedINS_18BinaryCommandEventEEEZN8asiodnp318PrintingSOEHandler7ProcessERKNS_10HeaderInfoERKNS_11ICollectionIS3_EEEUlRKS3_E_EE"
	.weak	_ZTSN8opendnp38IVisitorINS_7IndexedINS_18AnalogCommandEventEEEEE
	.section	.rodata._ZTSN8opendnp38IVisitorINS_7IndexedINS_18AnalogCommandEventEEEEE,"aG",@progbits,_ZTSN8opendnp38IVisitorINS_7IndexedINS_18AnalogCommandEventEEEEE,comdat
	.align 32
	.type	_ZTSN8opendnp38IVisitorINS_7IndexedINS_18AnalogCommandEventEEEEE, @object
	.size	_ZTSN8opendnp38IVisitorINS_7IndexedINS_18AnalogCommandEventEEEEE, 61
_ZTSN8opendnp38IVisitorINS_7IndexedINS_18AnalogCommandEventEEEEE:
	.string	"N8opendnp38IVisitorINS_7IndexedINS_18AnalogCommandEventEEEEE"
	.weak	_ZTIN8opendnp38IVisitorINS_7IndexedINS_18AnalogCommandEventEEEEE
	.section	.data.rel.ro._ZTIN8opendnp38IVisitorINS_7IndexedINS_18AnalogCommandEventEEEEE,"awG",@progbits,_ZTIN8opendnp38IVisitorINS_7IndexedINS_18AnalogCommandEventEEEEE,comdat
	.align 8
	.type	_ZTIN8opendnp38IVisitorINS_7IndexedINS_18AnalogCommandEventEEEEE, @object
	.size	_ZTIN8opendnp38IVisitorINS_7IndexedINS_18AnalogCommandEventEEEEE, 16
_ZTIN8opendnp38IVisitorINS_7IndexedINS_18AnalogCommandEventEEEEE:
	.quad	_ZTVN10__cxxabiv117__class_type_infoE+16
	.quad	_ZTSN8opendnp38IVisitorINS_7IndexedINS_18AnalogCommandEventEEEEE
	.section	.data.rel.ro
	.align 8
	.type	_ZTIN8opendnp314FunctorVisitorINS_7IndexedINS_18AnalogCommandEventEEEZN8asiodnp318PrintingSOEHandler7ProcessERKNS_10HeaderInfoERKNS_11ICollectionIS3_EEEUlRKS3_E_EE, @object
	.size	_ZTIN8opendnp314FunctorVisitorINS_7IndexedINS_18AnalogCommandEventEEEZN8asiodnp318PrintingSOEHandler7ProcessERKNS_10HeaderInfoERKNS_11ICollectionIS3_EEEUlRKS3_E_EE, 24
_ZTIN8opendnp314FunctorVisitorINS_7IndexedINS_18AnalogCommandEventEEEZN8asiodnp318PrintingSOEHandler7ProcessERKNS_10HeaderInfoERKNS_11ICollectionIS3_EEEUlRKS3_E_EE:
	.quad	_ZTVN10__cxxabiv120__si_class_type_infoE+16
	.quad	_ZTSN8opendnp314FunctorVisitorINS_7IndexedINS_18AnalogCommandEventEEEZN8asiodnp318PrintingSOEHandler7ProcessERKNS_10HeaderInfoERKNS_11ICollectionIS3_EEEUlRKS3_E_EE
	.quad	_ZTIN8opendnp38IVisitorINS_7IndexedINS_18AnalogCommandEventEEEEE
	.section	.rodata
	.align 32
	.type	_ZTSN8opendnp314FunctorVisitorINS_7IndexedINS_18AnalogCommandEventEEEZN8asiodnp318PrintingSOEHandler7ProcessERKNS_10HeaderInfoERKNS_11ICollectionIS3_EEEUlRKS3_E_EE, @object
	.size	_ZTSN8opendnp314FunctorVisitorINS_7IndexedINS_18AnalogCommandEventEEEZN8asiodnp318PrintingSOEHandler7ProcessERKNS_10HeaderInfoERKNS_11ICollectionIS3_EEEUlRKS3_E_EE, 161
_ZTSN8opendnp314FunctorVisitorINS_7IndexedINS_18AnalogCommandEventEEEZN8asiodnp318PrintingSOEHandler7ProcessERKNS_10HeaderInfoERKNS_11ICollectionIS3_EEEUlRKS3_E_EE:
	.string	"*N8opendnp314FunctorVisitorINS_7IndexedINS_18AnalogCommandEventEEEZN8asiodnp318PrintingSOEHandler7ProcessERKNS_10HeaderInfoERKNS_11ICollectionIS3_EEEUlRKS3_E_EE"
	.weak	_ZTSN8opendnp38IVisitorINS_7IndexedINS_12SecurityStatEEEEE
	.section	.rodata._ZTSN8opendnp38IVisitorINS_7IndexedINS_12SecurityStatEEEEE,"aG",@progbits,_ZTSN8opendnp38IVisitorINS_7IndexedINS_12SecurityStatEEEEE,comdat
	.align 32
	.type	_ZTSN8opendnp38IVisitorINS_7IndexedINS_12SecurityStatEEEEE, @object
	.size	_ZTSN8opendnp38IVisitorINS_7IndexedINS_12SecurityStatEEEEE, 55
_ZTSN8opendnp38IVisitorINS_7IndexedINS_12SecurityStatEEEEE:
	.string	"N8opendnp38IVisitorINS_7IndexedINS_12SecurityStatEEEEE"
	.weak	_ZTIN8opendnp38IVisitorINS_7IndexedINS_12SecurityStatEEEEE
	.section	.data.rel.ro._ZTIN8opendnp38IVisitorINS_7IndexedINS_12SecurityStatEEEEE,"awG",@progbits,_ZTIN8opendnp38IVisitorINS_7IndexedINS_12SecurityStatEEEEE,comdat
	.align 8
	.type	_ZTIN8opendnp38IVisitorINS_7IndexedINS_12SecurityStatEEEEE, @object
	.size	_ZTIN8opendnp38IVisitorINS_7IndexedINS_12SecurityStatEEEEE, 16
_ZTIN8opendnp38IVisitorINS_7IndexedINS_12SecurityStatEEEEE:
	.quad	_ZTVN10__cxxabiv117__class_type_infoE+16
	.quad	_ZTSN8opendnp38IVisitorINS_7IndexedINS_12SecurityStatEEEEE
	.section	.data.rel.ro
	.align 8
	.type	_ZTIN8opendnp314FunctorVisitorINS_7IndexedINS_12SecurityStatEEEZN8asiodnp318PrintingSOEHandler7ProcessERKNS_10HeaderInfoERKNS_11ICollectionIS3_EEEUlRKS3_E_EE, @object
	.size	_ZTIN8opendnp314FunctorVisitorINS_7IndexedINS_12SecurityStatEEEZN8asiodnp318PrintingSOEHandler7ProcessERKNS_10HeaderInfoERKNS_11ICollectionIS3_EEEUlRKS3_E_EE, 24
_ZTIN8opendnp314FunctorVisitorINS_7IndexedINS_12SecurityStatEEEZN8asiodnp318PrintingSOEHandler7ProcessERKNS_10HeaderInfoERKNS_11ICollectionIS3_EEEUlRKS3_E_EE:
	.quad	_ZTVN10__cxxabiv120__si_class_type_infoE+16
	.quad	_ZTSN8opendnp314FunctorVisitorINS_7IndexedINS_12SecurityStatEEEZN8asiodnp318PrintingSOEHandler7ProcessERKNS_10HeaderInfoERKNS_11ICollectionIS3_EEEUlRKS3_E_EE
	.quad	_ZTIN8opendnp38IVisitorINS_7IndexedINS_12SecurityStatEEEEE
	.section	.rodata
	.align 32
	.type	_ZTSN8opendnp314FunctorVisitorINS_7IndexedINS_12SecurityStatEEEZN8asiodnp318PrintingSOEHandler7ProcessERKNS_10HeaderInfoERKNS_11ICollectionIS3_EEEUlRKS3_E_EE, @object
	.size	_ZTSN8opendnp314FunctorVisitorINS_7IndexedINS_12SecurityStatEEEZN8asiodnp318PrintingSOEHandler7ProcessERKNS_10HeaderInfoERKNS_11ICollectionIS3_EEEUlRKS3_E_EE, 155
_ZTSN8opendnp314FunctorVisitorINS_7IndexedINS_12SecurityStatEEEZN8asiodnp318PrintingSOEHandler7ProcessERKNS_10HeaderInfoERKNS_11ICollectionIS3_EEEUlRKS3_E_EE:
	.string	"*N8opendnp314FunctorVisitorINS_7IndexedINS_12SecurityStatEEEZN8asiodnp318PrintingSOEHandler7ProcessERKNS_10HeaderInfoERKNS_11ICollectionIS3_EEEUlRKS3_E_EE"
	.weak	_ZTSN8opendnp38IVisitorIN7openpal10UInt48TypeEEE
	.section	.rodata._ZTSN8opendnp38IVisitorIN7openpal10UInt48TypeEEE,"aG",@progbits,_ZTSN8opendnp38IVisitorIN7openpal10UInt48TypeEEE,comdat
	.align 32
	.type	_ZTSN8opendnp38IVisitorIN7openpal10UInt48TypeEEE, @object
	.size	_ZTSN8opendnp38IVisitorIN7openpal10UInt48TypeEEE, 45
_ZTSN8opendnp38IVisitorIN7openpal10UInt48TypeEEE:
	.string	"N8opendnp38IVisitorIN7openpal10UInt48TypeEEE"
	.weak	_ZTIN8opendnp38IVisitorIN7openpal10UInt48TypeEEE
	.section	.data.rel.ro._ZTIN8opendnp38IVisitorIN7openpal10UInt48TypeEEE,"awG",@progbits,_ZTIN8opendnp38IVisitorIN7openpal10UInt48TypeEEE,comdat
	.align 8
	.type	_ZTIN8opendnp38IVisitorIN7openpal10UInt48TypeEEE, @object
	.size	_ZTIN8opendnp38IVisitorIN7openpal10UInt48TypeEEE, 16
_ZTIN8opendnp38IVisitorIN7openpal10UInt48TypeEEE:
	.quad	_ZTVN10__cxxabiv117__class_type_infoE+16
	.quad	_ZTSN8opendnp38IVisitorIN7openpal10UInt48TypeEEE
	.section	.data.rel.ro
	.align 8
	.type	_ZTIN8opendnp314FunctorVisitorIN7openpal10UInt48TypeEZN8asiodnp318PrintingSOEHandler7ProcessERKNS_10HeaderInfoERKNS_11ICollectionIS2_EEEUlRKS2_E_EE, @object
	.size	_ZTIN8opendnp314FunctorVisitorIN7openpal10UInt48TypeEZN8asiodnp318PrintingSOEHandler7ProcessERKNS_10HeaderInfoERKNS_11ICollectionIS2_EEEUlRKS2_E_EE, 24
_ZTIN8opendnp314FunctorVisitorIN7openpal10UInt48TypeEZN8asiodnp318PrintingSOEHandler7ProcessERKNS_10HeaderInfoERKNS_11ICollectionIS2_EEEUlRKS2_E_EE:
	.quad	_ZTVN10__cxxabiv120__si_class_type_infoE+16
	.quad	_ZTSN8opendnp314FunctorVisitorIN7openpal10UInt48TypeEZN8asiodnp318PrintingSOEHandler7ProcessERKNS_10HeaderInfoERKNS_11ICollectionIS2_EEEUlRKS2_E_EE
	.quad	_ZTIN8opendnp38IVisitorIN7openpal10UInt48TypeEEE
	.section	.rodata
	.align 32
	.type	_ZTSN8opendnp314FunctorVisitorIN7openpal10UInt48TypeEZN8asiodnp318PrintingSOEHandler7ProcessERKNS_10HeaderInfoERKNS_11ICollectionIS2_EEEUlRKS2_E_EE, @object
	.size	_ZTSN8opendnp314FunctorVisitorIN7openpal10UInt48TypeEZN8asiodnp318PrintingSOEHandler7ProcessERKNS_10HeaderInfoERKNS_11ICollectionIS2_EEEUlRKS2_E_EE, 145
_ZTSN8opendnp314FunctorVisitorIN7openpal10UInt48TypeEZN8asiodnp318PrintingSOEHandler7ProcessERKNS_10HeaderInfoERKNS_11ICollectionIS2_EEEUlRKS2_E_EE:
	.string	"*N8opendnp314FunctorVisitorIN7openpal10UInt48TypeEZN8asiodnp318PrintingSOEHandler7ProcessERKNS_10HeaderInfoERKNS_11ICollectionIS2_EEEUlRKS2_E_EE"
	.weak	_ZTSN8opendnp38IVisitorINS_7IndexedINS_6BinaryEEEEE
	.section	.rodata._ZTSN8opendnp38IVisitorINS_7IndexedINS_6BinaryEEEEE,"aG",@progbits,_ZTSN8opendnp38IVisitorINS_7IndexedINS_6BinaryEEEEE,comdat
	.align 32
	.type	_ZTSN8opendnp38IVisitorINS_7IndexedINS_6BinaryEEEEE, @object
	.size	_ZTSN8opendnp38IVisitorINS_7IndexedINS_6BinaryEEEEE, 48
_ZTSN8opendnp38IVisitorINS_7IndexedINS_6BinaryEEEEE:
	.string	"N8opendnp38IVisitorINS_7IndexedINS_6BinaryEEEEE"
	.weak	_ZTIN8opendnp38IVisitorINS_7IndexedINS_6BinaryEEEEE
	.section	.data.rel.ro._ZTIN8opendnp38IVisitorINS_7IndexedINS_6BinaryEEEEE,"awG",@progbits,_ZTIN8opendnp38IVisitorINS_7IndexedINS_6BinaryEEEEE,comdat
	.align 8
	.type	_ZTIN8opendnp38IVisitorINS_7IndexedINS_6BinaryEEEEE, @object
	.size	_ZTIN8opendnp38IVisitorINS_7IndexedINS_6BinaryEEEEE, 16
_ZTIN8opendnp38IVisitorINS_7IndexedINS_6BinaryEEEEE:
	.quad	_ZTVN10__cxxabiv117__class_type_infoE+16
	.quad	_ZTSN8opendnp38IVisitorINS_7IndexedINS_6BinaryEEEEE
	.weak	_ZTSN8opendnp314FunctorVisitorINS_7IndexedINS_6BinaryEEEZN8asiodnp318PrintingSOEHandler8PrintAllIS2_EEvRKNS_10HeaderInfoERKNS_11ICollectionINS1_IT_EEEEEUlRKS3_E_EE
	.section	.rodata._ZTSN8opendnp314FunctorVisitorINS_7IndexedINS_6BinaryEEEZN8asiodnp318PrintingSOEHandler8PrintAllIS2_EEvRKNS_10HeaderInfoERKNS_11ICollectionINS1_IT_EEEEEUlRKS3_E_EE,"aG",@progbits,_ZTSN8opendnp314FunctorVisitorINS_7IndexedINS_6BinaryEEEZN8asiodnp318PrintingSOEHandler8PrintAllIS2_EEvRKNS_10HeaderInfoERKNS_11ICollectionINS1_IT_EEEEEUlRKS3_E_EE,comdat
	.align 32
	.type	_ZTSN8opendnp314FunctorVisitorINS_7IndexedINS_6BinaryEEEZN8asiodnp318PrintingSOEHandler8PrintAllIS2_EEvRKNS_10HeaderInfoERKNS_11ICollectionINS1_IT_EEEEEUlRKS3_E_EE, @object
	.size	_ZTSN8opendnp314FunctorVisitorINS_7IndexedINS_6BinaryEEEZN8asiodnp318PrintingSOEHandler8PrintAllIS2_EEvRKNS_10HeaderInfoERKNS_11ICollectionINS1_IT_EEEEEUlRKS3_E_EE, 160
_ZTSN8opendnp314FunctorVisitorINS_7IndexedINS_6BinaryEEEZN8asiodnp318PrintingSOEHandler8PrintAllIS2_EEvRKNS_10HeaderInfoERKNS_11ICollectionINS1_IT_EEEEEUlRKS3_E_EE:
	.string	"N8opendnp314FunctorVisitorINS_7IndexedINS_6BinaryEEEZN8asiodnp318PrintingSOEHandler8PrintAllIS2_EEvRKNS_10HeaderInfoERKNS_11ICollectionINS1_IT_EEEEEUlRKS3_E_EE"
	.weak	_ZTIN8opendnp314FunctorVisitorINS_7IndexedINS_6BinaryEEEZN8asiodnp318PrintingSOEHandler8PrintAllIS2_EEvRKNS_10HeaderInfoERKNS_11ICollectionINS1_IT_EEEEEUlRKS3_E_EE
	.section	.data.rel.ro._ZTIN8opendnp314FunctorVisitorINS_7IndexedINS_6BinaryEEEZN8asiodnp318PrintingSOEHandler8PrintAllIS2_EEvRKNS_10HeaderInfoERKNS_11ICollectionINS1_IT_EEEEEUlRKS3_E_EE,"awG",@progbits,_ZTIN8opendnp314FunctorVisitorINS_7IndexedINS_6BinaryEEEZN8asiodnp318PrintingSOEHandler8PrintAllIS2_EEvRKNS_10HeaderInfoERKNS_11ICollectionINS1_IT_EEEEEUlRKS3_E_EE,comdat
	.align 8
	.type	_ZTIN8opendnp314FunctorVisitorINS_7IndexedINS_6BinaryEEEZN8asiodnp318PrintingSOEHandler8PrintAllIS2_EEvRKNS_10HeaderInfoERKNS_11ICollectionINS1_IT_EEEEEUlRKS3_E_EE, @object
	.size	_ZTIN8opendnp314FunctorVisitorINS_7IndexedINS_6BinaryEEEZN8asiodnp318PrintingSOEHandler8PrintAllIS2_EEvRKNS_10HeaderInfoERKNS_11ICollectionINS1_IT_EEEEEUlRKS3_E_EE, 24
_ZTIN8opendnp314FunctorVisitorINS_7IndexedINS_6BinaryEEEZN8asiodnp318PrintingSOEHandler8PrintAllIS2_EEvRKNS_10HeaderInfoERKNS_11ICollectionINS1_IT_EEEEEUlRKS3_E_EE:
	.quad	_ZTVN10__cxxabiv120__si_class_type_infoE+16
	.quad	_ZTSN8opendnp314FunctorVisitorINS_7IndexedINS_6BinaryEEEZN8asiodnp318PrintingSOEHandler8PrintAllIS2_EEvRKNS_10HeaderInfoERKNS_11ICollectionINS1_IT_EEEEEUlRKS3_E_EE
	.quad	_ZTIN8opendnp38IVisitorINS_7IndexedINS_6BinaryEEEEE
	.weak	_ZTSN8opendnp38IVisitorINS_7IndexedINS_15DoubleBitBinaryEEEEE
	.section	.rodata._ZTSN8opendnp38IVisitorINS_7IndexedINS_15DoubleBitBinaryEEEEE,"aG",@progbits,_ZTSN8opendnp38IVisitorINS_7IndexedINS_15DoubleBitBinaryEEEEE,comdat
	.align 32
	.type	_ZTSN8opendnp38IVisitorINS_7IndexedINS_15DoubleBitBinaryEEEEE, @object
	.size	_ZTSN8opendnp38IVisitorINS_7IndexedINS_15DoubleBitBinaryEEEEE, 58
_ZTSN8opendnp38IVisitorINS_7IndexedINS_15DoubleBitBinaryEEEEE:
	.string	"N8opendnp38IVisitorINS_7IndexedINS_15DoubleBitBinaryEEEEE"
	.weak	_ZTIN8opendnp38IVisitorINS_7IndexedINS_15DoubleBitBinaryEEEEE
	.section	.data.rel.ro._ZTIN8opendnp38IVisitorINS_7IndexedINS_15DoubleBitBinaryEEEEE,"awG",@progbits,_ZTIN8opendnp38IVisitorINS_7IndexedINS_15DoubleBitBinaryEEEEE,comdat
	.align 8
	.type	_ZTIN8opendnp38IVisitorINS_7IndexedINS_15DoubleBitBinaryEEEEE, @object
	.size	_ZTIN8opendnp38IVisitorINS_7IndexedINS_15DoubleBitBinaryEEEEE, 16
_ZTIN8opendnp38IVisitorINS_7IndexedINS_15DoubleBitBinaryEEEEE:
	.quad	_ZTVN10__cxxabiv117__class_type_infoE+16
	.quad	_ZTSN8opendnp38IVisitorINS_7IndexedINS_15DoubleBitBinaryEEEEE
	.weak	_ZTSN8opendnp314FunctorVisitorINS_7IndexedINS_15DoubleBitBinaryEEEZN8asiodnp318PrintingSOEHandler8PrintAllIS2_EEvRKNS_10HeaderInfoERKNS_11ICollectionINS1_IT_EEEEEUlRKS3_E_EE
	.section	.rodata._ZTSN8opendnp314FunctorVisitorINS_7IndexedINS_15DoubleBitBinaryEEEZN8asiodnp318PrintingSOEHandler8PrintAllIS2_EEvRKNS_10HeaderInfoERKNS_11ICollectionINS1_IT_EEEEEUlRKS3_E_EE,"aG",@progbits,_ZTSN8opendnp314FunctorVisitorINS_7IndexedINS_15DoubleBitBinaryEEEZN8asiodnp318PrintingSOEHandler8PrintAllIS2_EEvRKNS_10HeaderInfoERKNS_11ICollectionINS1_IT_EEEEEUlRKS3_E_EE,comdat
	.align 32
	.type	_ZTSN8opendnp314FunctorVisitorINS_7IndexedINS_15DoubleBitBinaryEEEZN8asiodnp318PrintingSOEHandler8PrintAllIS2_EEvRKNS_10HeaderInfoERKNS_11ICollectionINS1_IT_EEEEEUlRKS3_E_EE, @object
	.size	_ZTSN8opendnp314FunctorVisitorINS_7IndexedINS_15DoubleBitBinaryEEEZN8asiodnp318PrintingSOEHandler8PrintAllIS2_EEvRKNS_10HeaderInfoERKNS_11ICollectionINS1_IT_EEEEEUlRKS3_E_EE, 170
_ZTSN8opendnp314FunctorVisitorINS_7IndexedINS_15DoubleBitBinaryEEEZN8asiodnp318PrintingSOEHandler8PrintAllIS2_EEvRKNS_10HeaderInfoERKNS_11ICollectionINS1_IT_EEEEEUlRKS3_E_EE:
	.string	"N8opendnp314FunctorVisitorINS_7IndexedINS_15DoubleBitBinaryEEEZN8asiodnp318PrintingSOEHandler8PrintAllIS2_EEvRKNS_10HeaderInfoERKNS_11ICollectionINS1_IT_EEEEEUlRKS3_E_EE"
	.weak	_ZTIN8opendnp314FunctorVisitorINS_7IndexedINS_15DoubleBitBinaryEEEZN8asiodnp318PrintingSOEHandler8PrintAllIS2_EEvRKNS_10HeaderInfoERKNS_11ICollectionINS1_IT_EEEEEUlRKS3_E_EE
	.section	.data.rel.ro._ZTIN8opendnp314FunctorVisitorINS_7IndexedINS_15DoubleBitBinaryEEEZN8asiodnp318PrintingSOEHandler8PrintAllIS2_EEvRKNS_10HeaderInfoERKNS_11ICollectionINS1_IT_EEEEEUlRKS3_E_EE,"awG",@progbits,_ZTIN8opendnp314FunctorVisitorINS_7IndexedINS_15DoubleBitBinaryEEEZN8asiodnp318PrintingSOEHandler8PrintAllIS2_EEvRKNS_10HeaderInfoERKNS_11ICollectionINS1_IT_EEEEEUlRKS3_E_EE,comdat
	.align 8
	.type	_ZTIN8opendnp314FunctorVisitorINS_7IndexedINS_15DoubleBitBinaryEEEZN8asiodnp318PrintingSOEHandler8PrintAllIS2_EEvRKNS_10HeaderInfoERKNS_11ICollectionINS1_IT_EEEEEUlRKS3_E_EE, @object
	.size	_ZTIN8opendnp314FunctorVisitorINS_7IndexedINS_15DoubleBitBinaryEEEZN8asiodnp318PrintingSOEHandler8PrintAllIS2_EEvRKNS_10HeaderInfoERKNS_11ICollectionINS1_IT_EEEEEUlRKS3_E_EE, 24
_ZTIN8opendnp314FunctorVisitorINS_7IndexedINS_15DoubleBitBinaryEEEZN8asiodnp318PrintingSOEHandler8PrintAllIS2_EEvRKNS_10HeaderInfoERKNS_11ICollectionINS1_IT_EEEEEUlRKS3_E_EE:
	.quad	_ZTVN10__cxxabiv120__si_class_type_infoE+16
	.quad	_ZTSN8opendnp314FunctorVisitorINS_7IndexedINS_15DoubleBitBinaryEEEZN8asiodnp318PrintingSOEHandler8PrintAllIS2_EEvRKNS_10HeaderInfoERKNS_11ICollectionINS1_IT_EEEEEUlRKS3_E_EE
	.quad	_ZTIN8opendnp38IVisitorINS_7IndexedINS_15DoubleBitBinaryEEEEE
	.weak	_ZTSN8opendnp38IVisitorINS_7IndexedINS_6AnalogEEEEE
	.section	.rodata._ZTSN8opendnp38IVisitorINS_7IndexedINS_6AnalogEEEEE,"aG",@progbits,_ZTSN8opendnp38IVisitorINS_7IndexedINS_6AnalogEEEEE,comdat
	.align 32
	.type	_ZTSN8opendnp38IVisitorINS_7IndexedINS_6AnalogEEEEE, @object
	.size	_ZTSN8opendnp38IVisitorINS_7IndexedINS_6AnalogEEEEE, 48
_ZTSN8opendnp38IVisitorINS_7IndexedINS_6AnalogEEEEE:
	.string	"N8opendnp38IVisitorINS_7IndexedINS_6AnalogEEEEE"
	.weak	_ZTIN8opendnp38IVisitorINS_7IndexedINS_6AnalogEEEEE
	.section	.data.rel.ro._ZTIN8opendnp38IVisitorINS_7IndexedINS_6AnalogEEEEE,"awG",@progbits,_ZTIN8opendnp38IVisitorINS_7IndexedINS_6AnalogEEEEE,comdat
	.align 8
	.type	_ZTIN8opendnp38IVisitorINS_7IndexedINS_6AnalogEEEEE, @object
	.size	_ZTIN8opendnp38IVisitorINS_7IndexedINS_6AnalogEEEEE, 16
_ZTIN8opendnp38IVisitorINS_7IndexedINS_6AnalogEEEEE:
	.quad	_ZTVN10__cxxabiv117__class_type_infoE+16
	.quad	_ZTSN8opendnp38IVisitorINS_7IndexedINS_6AnalogEEEEE
	.weak	_ZTSN8opendnp314FunctorVisitorINS_7IndexedINS_6AnalogEEEZN8asiodnp318PrintingSOEHandler8PrintAllIS2_EEvRKNS_10HeaderInfoERKNS_11ICollectionINS1_IT_EEEEEUlRKS3_E_EE
	.section	.rodata._ZTSN8opendnp314FunctorVisitorINS_7IndexedINS_6AnalogEEEZN8asiodnp318PrintingSOEHandler8PrintAllIS2_EEvRKNS_10HeaderInfoERKNS_11ICollectionINS1_IT_EEEEEUlRKS3_E_EE,"aG",@progbits,_ZTSN8opendnp314FunctorVisitorINS_7IndexedINS_6AnalogEEEZN8asiodnp318PrintingSOEHandler8PrintAllIS2_EEvRKNS_10HeaderInfoERKNS_11ICollectionINS1_IT_EEEEEUlRKS3_E_EE,comdat
	.align 32
	.type	_ZTSN8opendnp314FunctorVisitorINS_7IndexedINS_6AnalogEEEZN8asiodnp318PrintingSOEHandler8PrintAllIS2_EEvRKNS_10HeaderInfoERKNS_11ICollectionINS1_IT_EEEEEUlRKS3_E_EE, @object
	.size	_ZTSN8opendnp314FunctorVisitorINS_7IndexedINS_6AnalogEEEZN8asiodnp318PrintingSOEHandler8PrintAllIS2_EEvRKNS_10HeaderInfoERKNS_11ICollectionINS1_IT_EEEEEUlRKS3_E_EE, 160
_ZTSN8opendnp314FunctorVisitorINS_7IndexedINS_6AnalogEEEZN8asiodnp318PrintingSOEHandler8PrintAllIS2_EEvRKNS_10HeaderInfoERKNS_11ICollectionINS1_IT_EEEEEUlRKS3_E_EE:
	.string	"N8opendnp314FunctorVisitorINS_7IndexedINS_6AnalogEEEZN8asiodnp318PrintingSOEHandler8PrintAllIS2_EEvRKNS_10HeaderInfoERKNS_11ICollectionINS1_IT_EEEEEUlRKS3_E_EE"
	.weak	_ZTIN8opendnp314FunctorVisitorINS_7IndexedINS_6AnalogEEEZN8asiodnp318PrintingSOEHandler8PrintAllIS2_EEvRKNS_10HeaderInfoERKNS_11ICollectionINS1_IT_EEEEEUlRKS3_E_EE
	.section	.data.rel.ro._ZTIN8opendnp314FunctorVisitorINS_7IndexedINS_6AnalogEEEZN8asiodnp318PrintingSOEHandler8PrintAllIS2_EEvRKNS_10HeaderInfoERKNS_11ICollectionINS1_IT_EEEEEUlRKS3_E_EE,"awG",@progbits,_ZTIN8opendnp314FunctorVisitorINS_7IndexedINS_6AnalogEEEZN8asiodnp318PrintingSOEHandler8PrintAllIS2_EEvRKNS_10HeaderInfoERKNS_11ICollectionINS1_IT_EEEEEUlRKS3_E_EE,comdat
	.align 8
	.type	_ZTIN8opendnp314FunctorVisitorINS_7IndexedINS_6AnalogEEEZN8asiodnp318PrintingSOEHandler8PrintAllIS2_EEvRKNS_10HeaderInfoERKNS_11ICollectionINS1_IT_EEEEEUlRKS3_E_EE, @object
	.size	_ZTIN8opendnp314FunctorVisitorINS_7IndexedINS_6AnalogEEEZN8asiodnp318PrintingSOEHandler8PrintAllIS2_EEvRKNS_10HeaderInfoERKNS_11ICollectionINS1_IT_EEEEEUlRKS3_E_EE, 24
_ZTIN8opendnp314FunctorVisitorINS_7IndexedINS_6AnalogEEEZN8asiodnp318PrintingSOEHandler8PrintAllIS2_EEvRKNS_10HeaderInfoERKNS_11ICollectionINS1_IT_EEEEEUlRKS3_E_EE:
	.quad	_ZTVN10__cxxabiv120__si_class_type_infoE+16
	.quad	_ZTSN8opendnp314FunctorVisitorINS_7IndexedINS_6AnalogEEEZN8asiodnp318PrintingSOEHandler8PrintAllIS2_EEvRKNS_10HeaderInfoERKNS_11ICollectionINS1_IT_EEEEEUlRKS3_E_EE
	.quad	_ZTIN8opendnp38IVisitorINS_7IndexedINS_6AnalogEEEEE
	.weak	_ZTSN8opendnp38IVisitorINS_7IndexedINS_7CounterEEEEE
	.section	.rodata._ZTSN8opendnp38IVisitorINS_7IndexedINS_7CounterEEEEE,"aG",@progbits,_ZTSN8opendnp38IVisitorINS_7IndexedINS_7CounterEEEEE,comdat
	.align 32
	.type	_ZTSN8opendnp38IVisitorINS_7IndexedINS_7CounterEEEEE, @object
	.size	_ZTSN8opendnp38IVisitorINS_7IndexedINS_7CounterEEEEE, 49
_ZTSN8opendnp38IVisitorINS_7IndexedINS_7CounterEEEEE:
	.string	"N8opendnp38IVisitorINS_7IndexedINS_7CounterEEEEE"
	.weak	_ZTIN8opendnp38IVisitorINS_7IndexedINS_7CounterEEEEE
	.section	.data.rel.ro._ZTIN8opendnp38IVisitorINS_7IndexedINS_7CounterEEEEE,"awG",@progbits,_ZTIN8opendnp38IVisitorINS_7IndexedINS_7CounterEEEEE,comdat
	.align 8
	.type	_ZTIN8opendnp38IVisitorINS_7IndexedINS_7CounterEEEEE, @object
	.size	_ZTIN8opendnp38IVisitorINS_7IndexedINS_7CounterEEEEE, 16
_ZTIN8opendnp38IVisitorINS_7IndexedINS_7CounterEEEEE:
	.quad	_ZTVN10__cxxabiv117__class_type_infoE+16
	.quad	_ZTSN8opendnp38IVisitorINS_7IndexedINS_7CounterEEEEE
	.weak	_ZTSN8opendnp314FunctorVisitorINS_7IndexedINS_7CounterEEEZN8asiodnp318PrintingSOEHandler8PrintAllIS2_EEvRKNS_10HeaderInfoERKNS_11ICollectionINS1_IT_EEEEEUlRKS3_E_EE
	.section	.rodata._ZTSN8opendnp314FunctorVisitorINS_7IndexedINS_7CounterEEEZN8asiodnp318PrintingSOEHandler8PrintAllIS2_EEvRKNS_10HeaderInfoERKNS_11ICollectionINS1_IT_EEEEEUlRKS3_E_EE,"aG",@progbits,_ZTSN8opendnp314FunctorVisitorINS_7IndexedINS_7CounterEEEZN8asiodnp318PrintingSOEHandler8PrintAllIS2_EEvRKNS_10HeaderInfoERKNS_11ICollectionINS1_IT_EEEEEUlRKS3_E_EE,comdat
	.align 32
	.type	_ZTSN8opendnp314FunctorVisitorINS_7IndexedINS_7CounterEEEZN8asiodnp318PrintingSOEHandler8PrintAllIS2_EEvRKNS_10HeaderInfoERKNS_11ICollectionINS1_IT_EEEEEUlRKS3_E_EE, @object
	.size	_ZTSN8opendnp314FunctorVisitorINS_7IndexedINS_7CounterEEEZN8asiodnp318PrintingSOEHandler8PrintAllIS2_EEvRKNS_10HeaderInfoERKNS_11ICollectionINS1_IT_EEEEEUlRKS3_E_EE, 161
_ZTSN8opendnp314FunctorVisitorINS_7IndexedINS_7CounterEEEZN8asiodnp318PrintingSOEHandler8PrintAllIS2_EEvRKNS_10HeaderInfoERKNS_11ICollectionINS1_IT_EEEEEUlRKS3_E_EE:
	.string	"N8opendnp314FunctorVisitorINS_7IndexedINS_7CounterEEEZN8asiodnp318PrintingSOEHandler8PrintAllIS2_EEvRKNS_10HeaderInfoERKNS_11ICollectionINS1_IT_EEEEEUlRKS3_E_EE"
	.weak	_ZTIN8opendnp314FunctorVisitorINS_7IndexedINS_7CounterEEEZN8asiodnp318PrintingSOEHandler8PrintAllIS2_EEvRKNS_10HeaderInfoERKNS_11ICollectionINS1_IT_EEEEEUlRKS3_E_EE
	.section	.data.rel.ro._ZTIN8opendnp314FunctorVisitorINS_7IndexedINS_7CounterEEEZN8asiodnp318PrintingSOEHandler8PrintAllIS2_EEvRKNS_10HeaderInfoERKNS_11ICollectionINS1_IT_EEEEEUlRKS3_E_EE,"awG",@progbits,_ZTIN8opendnp314FunctorVisitorINS_7IndexedINS_7CounterEEEZN8asiodnp318PrintingSOEHandler8PrintAllIS2_EEvRKNS_10HeaderInfoERKNS_11ICollectionINS1_IT_EEEEEUlRKS3_E_EE,comdat
	.align 8
	.type	_ZTIN8opendnp314FunctorVisitorINS_7IndexedINS_7CounterEEEZN8asiodnp318PrintingSOEHandler8PrintAllIS2_EEvRKNS_10HeaderInfoERKNS_11ICollectionINS1_IT_EEEEEUlRKS3_E_EE, @object
	.size	_ZTIN8opendnp314FunctorVisitorINS_7IndexedINS_7CounterEEEZN8asiodnp318PrintingSOEHandler8PrintAllIS2_EEvRKNS_10HeaderInfoERKNS_11ICollectionINS1_IT_EEEEEUlRKS3_E_EE, 24
_ZTIN8opendnp314FunctorVisitorINS_7IndexedINS_7CounterEEEZN8asiodnp318PrintingSOEHandler8PrintAllIS2_EEvRKNS_10HeaderInfoERKNS_11ICollectionINS1_IT_EEEEEUlRKS3_E_EE:
	.quad	_ZTVN10__cxxabiv120__si_class_type_infoE+16
	.quad	_ZTSN8opendnp314FunctorVisitorINS_7IndexedINS_7CounterEEEZN8asiodnp318PrintingSOEHandler8PrintAllIS2_EEvRKNS_10HeaderInfoERKNS_11ICollectionINS1_IT_EEEEEUlRKS3_E_EE
	.quad	_ZTIN8opendnp38IVisitorINS_7IndexedINS_7CounterEEEEE
	.weak	_ZTSN8opendnp38IVisitorINS_7IndexedINS_13FrozenCounterEEEEE
	.section	.rodata._ZTSN8opendnp38IVisitorINS_7IndexedINS_13FrozenCounterEEEEE,"aG",@progbits,_ZTSN8opendnp38IVisitorINS_7IndexedINS_13FrozenCounterEEEEE,comdat
	.align 32
	.type	_ZTSN8opendnp38IVisitorINS_7IndexedINS_13FrozenCounterEEEEE, @object
	.size	_ZTSN8opendnp38IVisitorINS_7IndexedINS_13FrozenCounterEEEEE, 56
_ZTSN8opendnp38IVisitorINS_7IndexedINS_13FrozenCounterEEEEE:
	.string	"N8opendnp38IVisitorINS_7IndexedINS_13FrozenCounterEEEEE"
	.weak	_ZTIN8opendnp38IVisitorINS_7IndexedINS_13FrozenCounterEEEEE
	.section	.data.rel.ro._ZTIN8opendnp38IVisitorINS_7IndexedINS_13FrozenCounterEEEEE,"awG",@progbits,_ZTIN8opendnp38IVisitorINS_7IndexedINS_13FrozenCounterEEEEE,comdat
	.align 8
	.type	_ZTIN8opendnp38IVisitorINS_7IndexedINS_13FrozenCounterEEEEE, @object
	.size	_ZTIN8opendnp38IVisitorINS_7IndexedINS_13FrozenCounterEEEEE, 16
_ZTIN8opendnp38IVisitorINS_7IndexedINS_13FrozenCounterEEEEE:
	.quad	_ZTVN10__cxxabiv117__class_type_infoE+16
	.quad	_ZTSN8opendnp38IVisitorINS_7IndexedINS_13FrozenCounterEEEEE
	.weak	_ZTSN8opendnp314FunctorVisitorINS_7IndexedINS_13FrozenCounterEEEZN8asiodnp318PrintingSOEHandler8PrintAllIS2_EEvRKNS_10HeaderInfoERKNS_11ICollectionINS1_IT_EEEEEUlRKS3_E_EE
	.section	.rodata._ZTSN8opendnp314FunctorVisitorINS_7IndexedINS_13FrozenCounterEEEZN8asiodnp318PrintingSOEHandler8PrintAllIS2_EEvRKNS_10HeaderInfoERKNS_11ICollectionINS1_IT_EEEEEUlRKS3_E_EE,"aG",@progbits,_ZTSN8opendnp314FunctorVisitorINS_7IndexedINS_13FrozenCounterEEEZN8asiodnp318PrintingSOEHandler8PrintAllIS2_EEvRKNS_10HeaderInfoERKNS_11ICollectionINS1_IT_EEEEEUlRKS3_E_EE,comdat
	.align 32
	.type	_ZTSN8opendnp314FunctorVisitorINS_7IndexedINS_13FrozenCounterEEEZN8asiodnp318PrintingSOEHandler8PrintAllIS2_EEvRKNS_10HeaderInfoERKNS_11ICollectionINS1_IT_EEEEEUlRKS3_E_EE, @object
	.size	_ZTSN8opendnp314FunctorVisitorINS_7IndexedINS_13FrozenCounterEEEZN8asiodnp318PrintingSOEHandler8PrintAllIS2_EEvRKNS_10HeaderInfoERKNS_11ICollectionINS1_IT_EEEEEUlRKS3_E_EE, 168
_ZTSN8opendnp314FunctorVisitorINS_7IndexedINS_13FrozenCounterEEEZN8asiodnp318PrintingSOEHandler8PrintAllIS2_EEvRKNS_10HeaderInfoERKNS_11ICollectionINS1_IT_EEEEEUlRKS3_E_EE:
	.string	"N8opendnp314FunctorVisitorINS_7IndexedINS_13FrozenCounterEEEZN8asiodnp318PrintingSOEHandler8PrintAllIS2_EEvRKNS_10HeaderInfoERKNS_11ICollectionINS1_IT_EEEEEUlRKS3_E_EE"
	.weak	_ZTIN8opendnp314FunctorVisitorINS_7IndexedINS_13FrozenCounterEEEZN8asiodnp318PrintingSOEHandler8PrintAllIS2_EEvRKNS_10HeaderInfoERKNS_11ICollectionINS1_IT_EEEEEUlRKS3_E_EE
	.section	.data.rel.ro._ZTIN8opendnp314FunctorVisitorINS_7IndexedINS_13FrozenCounterEEEZN8asiodnp318PrintingSOEHandler8PrintAllIS2_EEvRKNS_10HeaderInfoERKNS_11ICollectionINS1_IT_EEEEEUlRKS3_E_EE,"awG",@progbits,_ZTIN8opendnp314FunctorVisitorINS_7IndexedINS_13FrozenCounterEEEZN8asiodnp318PrintingSOEHandler8PrintAllIS2_EEvRKNS_10HeaderInfoERKNS_11ICollectionINS1_IT_EEEEEUlRKS3_E_EE,comdat
	.align 8
	.type	_ZTIN8opendnp314FunctorVisitorINS_7IndexedINS_13FrozenCounterEEEZN8asiodnp318PrintingSOEHandler8PrintAllIS2_EEvRKNS_10HeaderInfoERKNS_11ICollectionINS1_IT_EEEEEUlRKS3_E_EE, @object
	.size	_ZTIN8opendnp314FunctorVisitorINS_7IndexedINS_13FrozenCounterEEEZN8asiodnp318PrintingSOEHandler8PrintAllIS2_EEvRKNS_10HeaderInfoERKNS_11ICollectionINS1_IT_EEEEEUlRKS3_E_EE, 24
_ZTIN8opendnp314FunctorVisitorINS_7IndexedINS_13FrozenCounterEEEZN8asiodnp318PrintingSOEHandler8PrintAllIS2_EEvRKNS_10HeaderInfoERKNS_11ICollectionINS1_IT_EEEEEUlRKS3_E_EE:
	.quad	_ZTVN10__cxxabiv120__si_class_type_infoE+16
	.quad	_ZTSN8opendnp314FunctorVisitorINS_7IndexedINS_13FrozenCounterEEEZN8asiodnp318PrintingSOEHandler8PrintAllIS2_EEvRKNS_10HeaderInfoERKNS_11ICollectionINS1_IT_EEEEEUlRKS3_E_EE
	.quad	_ZTIN8opendnp38IVisitorINS_7IndexedINS_13FrozenCounterEEEEE
	.weak	_ZTSN8opendnp38IVisitorINS_7IndexedINS_18BinaryOutputStatusEEEEE
	.section	.rodata._ZTSN8opendnp38IVisitorINS_7IndexedINS_18BinaryOutputStatusEEEEE,"aG",@progbits,_ZTSN8opendnp38IVisitorINS_7IndexedINS_18BinaryOutputStatusEEEEE,comdat
	.align 32
	.type	_ZTSN8opendnp38IVisitorINS_7IndexedINS_18BinaryOutputStatusEEEEE, @object
	.size	_ZTSN8opendnp38IVisitorINS_7IndexedINS_18BinaryOutputStatusEEEEE, 61
_ZTSN8opendnp38IVisitorINS_7IndexedINS_18BinaryOutputStatusEEEEE:
	.string	"N8opendnp38IVisitorINS_7IndexedINS_18BinaryOutputStatusEEEEE"
	.weak	_ZTIN8opendnp38IVisitorINS_7IndexedINS_18BinaryOutputStatusEEEEE
	.section	.data.rel.ro._ZTIN8opendnp38IVisitorINS_7IndexedINS_18BinaryOutputStatusEEEEE,"awG",@progbits,_ZTIN8opendnp38IVisitorINS_7IndexedINS_18BinaryOutputStatusEEEEE,comdat
	.align 8
	.type	_ZTIN8opendnp38IVisitorINS_7IndexedINS_18BinaryOutputStatusEEEEE, @object
	.size	_ZTIN8opendnp38IVisitorINS_7IndexedINS_18BinaryOutputStatusEEEEE, 16
_ZTIN8opendnp38IVisitorINS_7IndexedINS_18BinaryOutputStatusEEEEE:
	.quad	_ZTVN10__cxxabiv117__class_type_infoE+16
	.quad	_ZTSN8opendnp38IVisitorINS_7IndexedINS_18BinaryOutputStatusEEEEE
	.weak	_ZTSN8opendnp314FunctorVisitorINS_7IndexedINS_18BinaryOutputStatusEEEZN8asiodnp318PrintingSOEHandler8PrintAllIS2_EEvRKNS_10HeaderInfoERKNS_11ICollectionINS1_IT_EEEEEUlRKS3_E_EE
	.section	.rodata._ZTSN8opendnp314FunctorVisitorINS_7IndexedINS_18BinaryOutputStatusEEEZN8asiodnp318PrintingSOEHandler8PrintAllIS2_EEvRKNS_10HeaderInfoERKNS_11ICollectionINS1_IT_EEEEEUlRKS3_E_EE,"aG",@progbits,_ZTSN8opendnp314FunctorVisitorINS_7IndexedINS_18BinaryOutputStatusEEEZN8asiodnp318PrintingSOEHandler8PrintAllIS2_EEvRKNS_10HeaderInfoERKNS_11ICollectionINS1_IT_EEEEEUlRKS3_E_EE,comdat
	.align 32
	.type	_ZTSN8opendnp314FunctorVisitorINS_7IndexedINS_18BinaryOutputStatusEEEZN8asiodnp318PrintingSOEHandler8PrintAllIS2_EEvRKNS_10HeaderInfoERKNS_11ICollectionINS1_IT_EEEEEUlRKS3_E_EE, @object
	.size	_ZTSN8opendnp314FunctorVisitorINS_7IndexedINS_18BinaryOutputStatusEEEZN8asiodnp318PrintingSOEHandler8PrintAllIS2_EEvRKNS_10HeaderInfoERKNS_11ICollectionINS1_IT_EEEEEUlRKS3_E_EE, 173
_ZTSN8opendnp314FunctorVisitorINS_7IndexedINS_18BinaryOutputStatusEEEZN8asiodnp318PrintingSOEHandler8PrintAllIS2_EEvRKNS_10HeaderInfoERKNS_11ICollectionINS1_IT_EEEEEUlRKS3_E_EE:
	.string	"N8opendnp314FunctorVisitorINS_7IndexedINS_18BinaryOutputStatusEEEZN8asiodnp318PrintingSOEHandler8PrintAllIS2_EEvRKNS_10HeaderInfoERKNS_11ICollectionINS1_IT_EEEEEUlRKS3_E_EE"
	.weak	_ZTIN8opendnp314FunctorVisitorINS_7IndexedINS_18BinaryOutputStatusEEEZN8asiodnp318PrintingSOEHandler8PrintAllIS2_EEvRKNS_10HeaderInfoERKNS_11ICollectionINS1_IT_EEEEEUlRKS3_E_EE
	.section	.data.rel.ro._ZTIN8opendnp314FunctorVisitorINS_7IndexedINS_18BinaryOutputStatusEEEZN8asiodnp318PrintingSOEHandler8PrintAllIS2_EEvRKNS_10HeaderInfoERKNS_11ICollectionINS1_IT_EEEEEUlRKS3_E_EE,"awG",@progbits,_ZTIN8opendnp314FunctorVisitorINS_7IndexedINS_18BinaryOutputStatusEEEZN8asiodnp318PrintingSOEHandler8PrintAllIS2_EEvRKNS_10HeaderInfoERKNS_11ICollectionINS1_IT_EEEEEUlRKS3_E_EE,comdat
	.align 8
	.type	_ZTIN8opendnp314FunctorVisitorINS_7IndexedINS_18BinaryOutputStatusEEEZN8asiodnp318PrintingSOEHandler8PrintAllIS2_EEvRKNS_10HeaderInfoERKNS_11ICollectionINS1_IT_EEEEEUlRKS3_E_EE, @object
	.size	_ZTIN8opendnp314FunctorVisitorINS_7IndexedINS_18BinaryOutputStatusEEEZN8asiodnp318PrintingSOEHandler8PrintAllIS2_EEvRKNS_10HeaderInfoERKNS_11ICollectionINS1_IT_EEEEEUlRKS3_E_EE, 24
_ZTIN8opendnp314FunctorVisitorINS_7IndexedINS_18BinaryOutputStatusEEEZN8asiodnp318PrintingSOEHandler8PrintAllIS2_EEvRKNS_10HeaderInfoERKNS_11ICollectionINS1_IT_EEEEEUlRKS3_E_EE:
	.quad	_ZTVN10__cxxabiv120__si_class_type_infoE+16
	.quad	_ZTSN8opendnp314FunctorVisitorINS_7IndexedINS_18BinaryOutputStatusEEEZN8asiodnp318PrintingSOEHandler8PrintAllIS2_EEvRKNS_10HeaderInfoERKNS_11ICollectionINS1_IT_EEEEEUlRKS3_E_EE
	.quad	_ZTIN8opendnp38IVisitorINS_7IndexedINS_18BinaryOutputStatusEEEEE
	.weak	_ZTSN8opendnp38IVisitorINS_7IndexedINS_18AnalogOutputStatusEEEEE
	.section	.rodata._ZTSN8opendnp38IVisitorINS_7IndexedINS_18AnalogOutputStatusEEEEE,"aG",@progbits,_ZTSN8opendnp38IVisitorINS_7IndexedINS_18AnalogOutputStatusEEEEE,comdat
	.align 32
	.type	_ZTSN8opendnp38IVisitorINS_7IndexedINS_18AnalogOutputStatusEEEEE, @object
	.size	_ZTSN8opendnp38IVisitorINS_7IndexedINS_18AnalogOutputStatusEEEEE, 61
_ZTSN8opendnp38IVisitorINS_7IndexedINS_18AnalogOutputStatusEEEEE:
	.string	"N8opendnp38IVisitorINS_7IndexedINS_18AnalogOutputStatusEEEEE"
	.weak	_ZTIN8opendnp38IVisitorINS_7IndexedINS_18AnalogOutputStatusEEEEE
	.section	.data.rel.ro._ZTIN8opendnp38IVisitorINS_7IndexedINS_18AnalogOutputStatusEEEEE,"awG",@progbits,_ZTIN8opendnp38IVisitorINS_7IndexedINS_18AnalogOutputStatusEEEEE,comdat
	.align 8
	.type	_ZTIN8opendnp38IVisitorINS_7IndexedINS_18AnalogOutputStatusEEEEE, @object
	.size	_ZTIN8opendnp38IVisitorINS_7IndexedINS_18AnalogOutputStatusEEEEE, 16
_ZTIN8opendnp38IVisitorINS_7IndexedINS_18AnalogOutputStatusEEEEE:
	.quad	_ZTVN10__cxxabiv117__class_type_infoE+16
	.quad	_ZTSN8opendnp38IVisitorINS_7IndexedINS_18AnalogOutputStatusEEEEE
	.weak	_ZTSN8opendnp314FunctorVisitorINS_7IndexedINS_18AnalogOutputStatusEEEZN8asiodnp318PrintingSOEHandler8PrintAllIS2_EEvRKNS_10HeaderInfoERKNS_11ICollectionINS1_IT_EEEEEUlRKS3_E_EE
	.section	.rodata._ZTSN8opendnp314FunctorVisitorINS_7IndexedINS_18AnalogOutputStatusEEEZN8asiodnp318PrintingSOEHandler8PrintAllIS2_EEvRKNS_10HeaderInfoERKNS_11ICollectionINS1_IT_EEEEEUlRKS3_E_EE,"aG",@progbits,_ZTSN8opendnp314FunctorVisitorINS_7IndexedINS_18AnalogOutputStatusEEEZN8asiodnp318PrintingSOEHandler8PrintAllIS2_EEvRKNS_10HeaderInfoERKNS_11ICollectionINS1_IT_EEEEEUlRKS3_E_EE,comdat
	.align 32
	.type	_ZTSN8opendnp314FunctorVisitorINS_7IndexedINS_18AnalogOutputStatusEEEZN8asiodnp318PrintingSOEHandler8PrintAllIS2_EEvRKNS_10HeaderInfoERKNS_11ICollectionINS1_IT_EEEEEUlRKS3_E_EE, @object
	.size	_ZTSN8opendnp314FunctorVisitorINS_7IndexedINS_18AnalogOutputStatusEEEZN8asiodnp318PrintingSOEHandler8PrintAllIS2_EEvRKNS_10HeaderInfoERKNS_11ICollectionINS1_IT_EEEEEUlRKS3_E_EE, 173
_ZTSN8opendnp314FunctorVisitorINS_7IndexedINS_18AnalogOutputStatusEEEZN8asiodnp318PrintingSOEHandler8PrintAllIS2_EEvRKNS_10HeaderInfoERKNS_11ICollectionINS1_IT_EEEEEUlRKS3_E_EE:
	.string	"N8opendnp314FunctorVisitorINS_7IndexedINS_18AnalogOutputStatusEEEZN8asiodnp318PrintingSOEHandler8PrintAllIS2_EEvRKNS_10HeaderInfoERKNS_11ICollectionINS1_IT_EEEEEUlRKS3_E_EE"
	.weak	_ZTIN8opendnp314FunctorVisitorINS_7IndexedINS_18AnalogOutputStatusEEEZN8asiodnp318PrintingSOEHandler8PrintAllIS2_EEvRKNS_10HeaderInfoERKNS_11ICollectionINS1_IT_EEEEEUlRKS3_E_EE
	.section	.data.rel.ro._ZTIN8opendnp314FunctorVisitorINS_7IndexedINS_18AnalogOutputStatusEEEZN8asiodnp318PrintingSOEHandler8PrintAllIS2_EEvRKNS_10HeaderInfoERKNS_11ICollectionINS1_IT_EEEEEUlRKS3_E_EE,"awG",@progbits,_ZTIN8opendnp314FunctorVisitorINS_7IndexedINS_18AnalogOutputStatusEEEZN8asiodnp318PrintingSOEHandler8PrintAllIS2_EEvRKNS_10HeaderInfoERKNS_11ICollectionINS1_IT_EEEEEUlRKS3_E_EE,comdat
	.align 8
	.type	_ZTIN8opendnp314FunctorVisitorINS_7IndexedINS_18AnalogOutputStatusEEEZN8asiodnp318PrintingSOEHandler8PrintAllIS2_EEvRKNS_10HeaderInfoERKNS_11ICollectionINS1_IT_EEEEEUlRKS3_E_EE, @object
	.size	_ZTIN8opendnp314FunctorVisitorINS_7IndexedINS_18AnalogOutputStatusEEEZN8asiodnp318PrintingSOEHandler8PrintAllIS2_EEvRKNS_10HeaderInfoERKNS_11ICollectionINS1_IT_EEEEEUlRKS3_E_EE, 24
_ZTIN8opendnp314FunctorVisitorINS_7IndexedINS_18AnalogOutputStatusEEEZN8asiodnp318PrintingSOEHandler8PrintAllIS2_EEvRKNS_10HeaderInfoERKNS_11ICollectionINS1_IT_EEEEEUlRKS3_E_EE:
	.quad	_ZTVN10__cxxabiv120__si_class_type_infoE+16
	.quad	_ZTSN8opendnp314FunctorVisitorINS_7IndexedINS_18AnalogOutputStatusEEEZN8asiodnp318PrintingSOEHandler8PrintAllIS2_EEvRKNS_10HeaderInfoERKNS_11ICollectionINS1_IT_EEEEEUlRKS3_E_EE
	.quad	_ZTIN8opendnp38IVisitorINS_7IndexedINS_18AnalogOutputStatusEEEEE
	.weak	_ZTVN8asiodnp318PrintingSOEHandlerE
	.section	.data.rel.ro._ZTVN8asiodnp318PrintingSOEHandlerE,"awG",@progbits,_ZTVN8asiodnp318PrintingSOEHandlerE,comdat
	.align 8
	.type	_ZTVN8asiodnp318PrintingSOEHandlerE, @object
	.size	_ZTVN8asiodnp318PrintingSOEHandlerE, 152
_ZTVN8asiodnp318PrintingSOEHandlerE:
	.quad	0
	.quad	_ZTIN8asiodnp318PrintingSOEHandlerE
	.quad	_ZN8asiodnp318PrintingSOEHandlerD1Ev
	.quad	_ZN8asiodnp318PrintingSOEHandlerD0Ev
	.quad	_ZN8asiodnp318PrintingSOEHandler5StartEv
	.quad	_ZN8asiodnp318PrintingSOEHandler3EndEv
	.quad	_ZN8asiodnp318PrintingSOEHandler7ProcessERKN8opendnp310HeaderInfoERKNS1_11ICollectionINS1_7IndexedINS1_6BinaryEEEEE
	.quad	_ZN8asiodnp318PrintingSOEHandler7ProcessERKN8opendnp310HeaderInfoERKNS1_11ICollectionINS1_7IndexedINS1_15DoubleBitBinaryEEEEE
	.quad	_ZN8asiodnp318PrintingSOEHandler7ProcessERKN8opendnp310HeaderInfoERKNS1_11ICollectionINS1_7IndexedINS1_6AnalogEEEEE
	.quad	_ZN8asiodnp318PrintingSOEHandler7ProcessERKN8opendnp310HeaderInfoERKNS1_11ICollectionINS1_7IndexedINS1_7CounterEEEEE
	.quad	_ZN8asiodnp318PrintingSOEHandler7ProcessERKN8opendnp310HeaderInfoERKNS1_11ICollectionINS1_7IndexedINS1_13FrozenCounterEEEEE
	.quad	_ZN8asiodnp318PrintingSOEHandler7ProcessERKN8opendnp310HeaderInfoERKNS1_11ICollectionINS1_7IndexedINS1_18BinaryOutputStatusEEEEE
	.quad	_ZN8asiodnp318PrintingSOEHandler7ProcessERKN8opendnp310HeaderInfoERKNS1_11ICollectionINS1_7IndexedINS1_18AnalogOutputStatusEEEEE
	.quad	_ZN8asiodnp318PrintingSOEHandler7ProcessERKN8opendnp310HeaderInfoERKNS1_11ICollectionINS1_7IndexedINS1_11OctetStringEEEEE
	.quad	_ZN8asiodnp318PrintingSOEHandler7ProcessERKN8opendnp310HeaderInfoERKNS1_11ICollectionINS1_7IndexedINS1_15TimeAndIntervalEEEEE
	.quad	_ZN8asiodnp318PrintingSOEHandler7ProcessERKN8opendnp310HeaderInfoERKNS1_11ICollectionINS1_7IndexedINS1_18BinaryCommandEventEEEEE
	.quad	_ZN8asiodnp318PrintingSOEHandler7ProcessERKN8opendnp310HeaderInfoERKNS1_11ICollectionINS1_7IndexedINS1_18AnalogCommandEventEEEEE
	.quad	_ZN8asiodnp318PrintingSOEHandler7ProcessERKN8opendnp310HeaderInfoERKNS1_11ICollectionINS1_7IndexedINS1_12SecurityStatEEEEE
	.quad	_ZN8asiodnp318PrintingSOEHandler7ProcessERKN8opendnp310HeaderInfoERKNS1_11ICollectionIN7openpal10UInt48TypeEEE
	.section	.data.rel.ro.local,"aw"
	.align 8
	.type	_ZTVN8opendnp314FunctorVisitorINS_7IndexedINS_11OctetStringEEEZN8asiodnp318PrintingSOEHandler7ProcessERKNS_10HeaderInfoERKNS_11ICollectionIS3_EEEUlRKS3_E_EE, @object
	.size	_ZTVN8opendnp314FunctorVisitorINS_7IndexedINS_11OctetStringEEEZN8asiodnp318PrintingSOEHandler7ProcessERKNS_10HeaderInfoERKNS_11ICollectionIS3_EEEUlRKS3_E_EE, 24
_ZTVN8opendnp314FunctorVisitorINS_7IndexedINS_11OctetStringEEEZN8asiodnp318PrintingSOEHandler7ProcessERKNS_10HeaderInfoERKNS_11ICollectionIS3_EEEUlRKS3_E_EE:
	.quad	0
	.quad	_ZTIN8opendnp314FunctorVisitorINS_7IndexedINS_11OctetStringEEEZN8asiodnp318PrintingSOEHandler7ProcessERKNS_10HeaderInfoERKNS_11ICollectionIS3_EEEUlRKS3_E_EE
	.quad	_ZN8opendnp314FunctorVisitorINS_7IndexedINS_11OctetStringEEEZN8asiodnp318PrintingSOEHandler7ProcessERKNS_10HeaderInfoERKNS_11ICollectionIS3_EEEUlRKS3_E_E7OnValueESE_
	.align 8
	.type	_ZTVN8opendnp314FunctorVisitorINS_7IndexedINS_15TimeAndIntervalEEEZN8asiodnp318PrintingSOEHandler7ProcessERKNS_10HeaderInfoERKNS_11ICollectionIS3_EEEUlRKS3_E_EE, @object
	.size	_ZTVN8opendnp314FunctorVisitorINS_7IndexedINS_15TimeAndIntervalEEEZN8asiodnp318PrintingSOEHandler7ProcessERKNS_10HeaderInfoERKNS_11ICollectionIS3_EEEUlRKS3_E_EE, 24
_ZTVN8opendnp314FunctorVisitorINS_7IndexedINS_15TimeAndIntervalEEEZN8asiodnp318PrintingSOEHandler7ProcessERKNS_10HeaderInfoERKNS_11ICollectionIS3_EEEUlRKS3_E_EE:
	.quad	0
	.quad	_ZTIN8opendnp314FunctorVisitorINS_7IndexedINS_15TimeAndIntervalEEEZN8asiodnp318PrintingSOEHandler7ProcessERKNS_10HeaderInfoERKNS_11ICollectionIS3_EEEUlRKS3_E_EE
	.quad	_ZN8opendnp314FunctorVisitorINS_7IndexedINS_15TimeAndIntervalEEEZN8asiodnp318PrintingSOEHandler7ProcessERKNS_10HeaderInfoERKNS_11ICollectionIS3_EEEUlRKS3_E_E7OnValueESE_
	.align 8
	.type	_ZTVN8opendnp314FunctorVisitorINS_7IndexedINS_18BinaryCommandEventEEEZN8asiodnp318PrintingSOEHandler7ProcessERKNS_10HeaderInfoERKNS_11ICollectionIS3_EEEUlRKS3_E_EE, @object
	.size	_ZTVN8opendnp314FunctorVisitorINS_7IndexedINS_18BinaryCommandEventEEEZN8asiodnp318PrintingSOEHandler7ProcessERKNS_10HeaderInfoERKNS_11ICollectionIS3_EEEUlRKS3_E_EE, 24
_ZTVN8opendnp314FunctorVisitorINS_7IndexedINS_18BinaryCommandEventEEEZN8asiodnp318PrintingSOEHandler7ProcessERKNS_10HeaderInfoERKNS_11ICollectionIS3_EEEUlRKS3_E_EE:
	.quad	0
	.quad	_ZTIN8opendnp314FunctorVisitorINS_7IndexedINS_18BinaryCommandEventEEEZN8asiodnp318PrintingSOEHandler7ProcessERKNS_10HeaderInfoERKNS_11ICollectionIS3_EEEUlRKS3_E_EE
	.quad	_ZN8opendnp314FunctorVisitorINS_7IndexedINS_18BinaryCommandEventEEEZN8asiodnp318PrintingSOEHandler7ProcessERKNS_10HeaderInfoERKNS_11ICollectionIS3_EEEUlRKS3_E_E7OnValueESE_
	.align 8
	.type	_ZTVN8opendnp314FunctorVisitorINS_7IndexedINS_18AnalogCommandEventEEEZN8asiodnp318PrintingSOEHandler7ProcessERKNS_10HeaderInfoERKNS_11ICollectionIS3_EEEUlRKS3_E_EE, @object
	.size	_ZTVN8opendnp314FunctorVisitorINS_7IndexedINS_18AnalogCommandEventEEEZN8asiodnp318PrintingSOEHandler7ProcessERKNS_10HeaderInfoERKNS_11ICollectionIS3_EEEUlRKS3_E_EE, 24
_ZTVN8opendnp314FunctorVisitorINS_7IndexedINS_18AnalogCommandEventEEEZN8asiodnp318PrintingSOEHandler7ProcessERKNS_10HeaderInfoERKNS_11ICollectionIS3_EEEUlRKS3_E_EE:
	.quad	0
	.quad	_ZTIN8opendnp314FunctorVisitorINS_7IndexedINS_18AnalogCommandEventEEEZN8asiodnp318PrintingSOEHandler7ProcessERKNS_10HeaderInfoERKNS_11ICollectionIS3_EEEUlRKS3_E_EE
	.quad	_ZN8opendnp314FunctorVisitorINS_7IndexedINS_18AnalogCommandEventEEEZN8asiodnp318PrintingSOEHandler7ProcessERKNS_10HeaderInfoERKNS_11ICollectionIS3_EEEUlRKS3_E_E7OnValueESE_
	.align 8
	.type	_ZTVN8opendnp314FunctorVisitorINS_7IndexedINS_12SecurityStatEEEZN8asiodnp318PrintingSOEHandler7ProcessERKNS_10HeaderInfoERKNS_11ICollectionIS3_EEEUlRKS3_E_EE, @object
	.size	_ZTVN8opendnp314FunctorVisitorINS_7IndexedINS_12SecurityStatEEEZN8asiodnp318PrintingSOEHandler7ProcessERKNS_10HeaderInfoERKNS_11ICollectionIS3_EEEUlRKS3_E_EE, 24
_ZTVN8opendnp314FunctorVisitorINS_7IndexedINS_12SecurityStatEEEZN8asiodnp318PrintingSOEHandler7ProcessERKNS_10HeaderInfoERKNS_11ICollectionIS3_EEEUlRKS3_E_EE:
	.quad	0
	.quad	_ZTIN8opendnp314FunctorVisitorINS_7IndexedINS_12SecurityStatEEEZN8asiodnp318PrintingSOEHandler7ProcessERKNS_10HeaderInfoERKNS_11ICollectionIS3_EEEUlRKS3_E_EE
	.quad	_ZN8opendnp314FunctorVisitorINS_7IndexedINS_12SecurityStatEEEZN8asiodnp318PrintingSOEHandler7ProcessERKNS_10HeaderInfoERKNS_11ICollectionIS3_EEEUlRKS3_E_E7OnValueESE_
	.align 8
	.type	_ZTVN8opendnp314FunctorVisitorIN7openpal10UInt48TypeEZN8asiodnp318PrintingSOEHandler7ProcessERKNS_10HeaderInfoERKNS_11ICollectionIS2_EEEUlRKS2_E_EE, @object
	.size	_ZTVN8opendnp314FunctorVisitorIN7openpal10UInt48TypeEZN8asiodnp318PrintingSOEHandler7ProcessERKNS_10HeaderInfoERKNS_11ICollectionIS2_EEEUlRKS2_E_EE, 24
_ZTVN8opendnp314FunctorVisitorIN7openpal10UInt48TypeEZN8asiodnp318PrintingSOEHandler7ProcessERKNS_10HeaderInfoERKNS_11ICollectionIS2_EEEUlRKS2_E_EE:
	.quad	0
	.quad	_ZTIN8opendnp314FunctorVisitorIN7openpal10UInt48TypeEZN8asiodnp318PrintingSOEHandler7ProcessERKNS_10HeaderInfoERKNS_11ICollectionIS2_EEEUlRKS2_E_EE
	.quad	_ZN8opendnp314FunctorVisitorIN7openpal10UInt48TypeEZN8asiodnp318PrintingSOEHandler7ProcessERKNS_10HeaderInfoERKNS_11ICollectionIS2_EEEUlRKS2_E_E7OnValueESD_
	.weak	_ZTVN8opendnp314FunctorVisitorINS_7IndexedINS_6BinaryEEEZN8asiodnp318PrintingSOEHandler8PrintAllIS2_EEvRKNS_10HeaderInfoERKNS_11ICollectionINS1_IT_EEEEEUlRKS3_E_EE
	.section	.data.rel.ro._ZTVN8opendnp314FunctorVisitorINS_7IndexedINS_6BinaryEEEZN8asiodnp318PrintingSOEHandler8PrintAllIS2_EEvRKNS_10HeaderInfoERKNS_11ICollectionINS1_IT_EEEEEUlRKS3_E_EE,"awG",@progbits,_ZTVN8opendnp314FunctorVisitorINS_7IndexedINS_6BinaryEEEZN8asiodnp318PrintingSOEHandler8PrintAllIS2_EEvRKNS_10HeaderInfoERKNS_11ICollectionINS1_IT_EEEEEUlRKS3_E_EE,comdat
	.align 8
	.type	_ZTVN8opendnp314FunctorVisitorINS_7IndexedINS_6BinaryEEEZN8asiodnp318PrintingSOEHandler8PrintAllIS2_EEvRKNS_10HeaderInfoERKNS_11ICollectionINS1_IT_EEEEEUlRKS3_E_EE, @object
	.size	_ZTVN8opendnp314FunctorVisitorINS_7IndexedINS_6BinaryEEEZN8asiodnp318PrintingSOEHandler8PrintAllIS2_EEvRKNS_10HeaderInfoERKNS_11ICollectionINS1_IT_EEEEEUlRKS3_E_EE, 24
_ZTVN8opendnp314FunctorVisitorINS_7IndexedINS_6BinaryEEEZN8asiodnp318PrintingSOEHandler8PrintAllIS2_EEvRKNS_10HeaderInfoERKNS_11ICollectionINS1_IT_EEEEEUlRKS3_E_EE:
	.quad	0
	.quad	_ZTIN8opendnp314FunctorVisitorINS_7IndexedINS_6BinaryEEEZN8asiodnp318PrintingSOEHandler8PrintAllIS2_EEvRKNS_10HeaderInfoERKNS_11ICollectionINS1_IT_EEEEEUlRKS3_E_EE
	.quad	_ZN8opendnp314FunctorVisitorINS_7IndexedINS_6BinaryEEEZN8asiodnp318PrintingSOEHandler8PrintAllIS2_EEvRKNS_10HeaderInfoERKNS_11ICollectionINS1_IT_EEEEEUlRKS3_E_E7OnValueESH_
	.weak	_ZTVN8opendnp314FunctorVisitorINS_7IndexedINS_15DoubleBitBinaryEEEZN8asiodnp318PrintingSOEHandler8PrintAllIS2_EEvRKNS_10HeaderInfoERKNS_11ICollectionINS1_IT_EEEEEUlRKS3_E_EE
	.section	.data.rel.ro._ZTVN8opendnp314FunctorVisitorINS_7IndexedINS_15DoubleBitBinaryEEEZN8asiodnp318PrintingSOEHandler8PrintAllIS2_EEvRKNS_10HeaderInfoERKNS_11ICollectionINS1_IT_EEEEEUlRKS3_E_EE,"awG",@progbits,_ZTVN8opendnp314FunctorVisitorINS_7IndexedINS_15DoubleBitBinaryEEEZN8asiodnp318PrintingSOEHandler8PrintAllIS2_EEvRKNS_10HeaderInfoERKNS_11ICollectionINS1_IT_EEEEEUlRKS3_E_EE,comdat
	.align 8
	.type	_ZTVN8opendnp314FunctorVisitorINS_7IndexedINS_15DoubleBitBinaryEEEZN8asiodnp318PrintingSOEHandler8PrintAllIS2_EEvRKNS_10HeaderInfoERKNS_11ICollectionINS1_IT_EEEEEUlRKS3_E_EE, @object
	.size	_ZTVN8opendnp314FunctorVisitorINS_7IndexedINS_15DoubleBitBinaryEEEZN8asiodnp318PrintingSOEHandler8PrintAllIS2_EEvRKNS_10HeaderInfoERKNS_11ICollectionINS1_IT_EEEEEUlRKS3_E_EE, 24
_ZTVN8opendnp314FunctorVisitorINS_7IndexedINS_15DoubleBitBinaryEEEZN8asiodnp318PrintingSOEHandler8PrintAllIS2_EEvRKNS_10HeaderInfoERKNS_11ICollectionINS1_IT_EEEEEUlRKS3_E_EE:
	.quad	0
	.quad	_ZTIN8opendnp314FunctorVisitorINS_7IndexedINS_15DoubleBitBinaryEEEZN8asiodnp318PrintingSOEHandler8PrintAllIS2_EEvRKNS_10HeaderInfoERKNS_11ICollectionINS1_IT_EEEEEUlRKS3_E_EE
	.quad	_ZN8opendnp314FunctorVisitorINS_7IndexedINS_15DoubleBitBinaryEEEZN8asiodnp318PrintingSOEHandler8PrintAllIS2_EEvRKNS_10HeaderInfoERKNS_11ICollectionINS1_IT_EEEEEUlRKS3_E_E7OnValueESH_
	.weak	_ZTVN8opendnp314FunctorVisitorINS_7IndexedINS_6AnalogEEEZN8asiodnp318PrintingSOEHandler8PrintAllIS2_EEvRKNS_10HeaderInfoERKNS_11ICollectionINS1_IT_EEEEEUlRKS3_E_EE
	.section	.data.rel.ro._ZTVN8opendnp314FunctorVisitorINS_7IndexedINS_6AnalogEEEZN8asiodnp318PrintingSOEHandler8PrintAllIS2_EEvRKNS_10HeaderInfoERKNS_11ICollectionINS1_IT_EEEEEUlRKS3_E_EE,"awG",@progbits,_ZTVN8opendnp314FunctorVisitorINS_7IndexedINS_6AnalogEEEZN8asiodnp318PrintingSOEHandler8PrintAllIS2_EEvRKNS_10HeaderInfoERKNS_11ICollectionINS1_IT_EEEEEUlRKS3_E_EE,comdat
	.align 8
	.type	_ZTVN8opendnp314FunctorVisitorINS_7IndexedINS_6AnalogEEEZN8asiodnp318PrintingSOEHandler8PrintAllIS2_EEvRKNS_10HeaderInfoERKNS_11ICollectionINS1_IT_EEEEEUlRKS3_E_EE, @object
	.size	_ZTVN8opendnp314FunctorVisitorINS_7IndexedINS_6AnalogEEEZN8asiodnp318PrintingSOEHandler8PrintAllIS2_EEvRKNS_10HeaderInfoERKNS_11ICollectionINS1_IT_EEEEEUlRKS3_E_EE, 24
_ZTVN8opendnp314FunctorVisitorINS_7IndexedINS_6AnalogEEEZN8asiodnp318PrintingSOEHandler8PrintAllIS2_EEvRKNS_10HeaderInfoERKNS_11ICollectionINS1_IT_EEEEEUlRKS3_E_EE:
	.quad	0
	.quad	_ZTIN8opendnp314FunctorVisitorINS_7IndexedINS_6AnalogEEEZN8asiodnp318PrintingSOEHandler8PrintAllIS2_EEvRKNS_10HeaderInfoERKNS_11ICollectionINS1_IT_EEEEEUlRKS3_E_EE
	.quad	_ZN8opendnp314FunctorVisitorINS_7IndexedINS_6AnalogEEEZN8asiodnp318PrintingSOEHandler8PrintAllIS2_EEvRKNS_10HeaderInfoERKNS_11ICollectionINS1_IT_EEEEEUlRKS3_E_E7OnValueESH_
	.weak	_ZTVN8opendnp314FunctorVisitorINS_7IndexedINS_7CounterEEEZN8asiodnp318PrintingSOEHandler8PrintAllIS2_EEvRKNS_10HeaderInfoERKNS_11ICollectionINS1_IT_EEEEEUlRKS3_E_EE
	.section	.data.rel.ro._ZTVN8opendnp314FunctorVisitorINS_7IndexedINS_7CounterEEEZN8asiodnp318PrintingSOEHandler8PrintAllIS2_EEvRKNS_10HeaderInfoERKNS_11ICollectionINS1_IT_EEEEEUlRKS3_E_EE,"awG",@progbits,_ZTVN8opendnp314FunctorVisitorINS_7IndexedINS_7CounterEEEZN8asiodnp318PrintingSOEHandler8PrintAllIS2_EEvRKNS_10HeaderInfoERKNS_11ICollectionINS1_IT_EEEEEUlRKS3_E_EE,comdat
	.align 8
	.type	_ZTVN8opendnp314FunctorVisitorINS_7IndexedINS_7CounterEEEZN8asiodnp318PrintingSOEHandler8PrintAllIS2_EEvRKNS_10HeaderInfoERKNS_11ICollectionINS1_IT_EEEEEUlRKS3_E_EE, @object
	.size	_ZTVN8opendnp314FunctorVisitorINS_7IndexedINS_7CounterEEEZN8asiodnp318PrintingSOEHandler8PrintAllIS2_EEvRKNS_10HeaderInfoERKNS_11ICollectionINS1_IT_EEEEEUlRKS3_E_EE, 24
_ZTVN8opendnp314FunctorVisitorINS_7IndexedINS_7CounterEEEZN8asiodnp318PrintingSOEHandler8PrintAllIS2_EEvRKNS_10HeaderInfoERKNS_11ICollectionINS1_IT_EEEEEUlRKS3_E_EE:
	.quad	0
	.quad	_ZTIN8opendnp314FunctorVisitorINS_7IndexedINS_7CounterEEEZN8asiodnp318PrintingSOEHandler8PrintAllIS2_EEvRKNS_10HeaderInfoERKNS_11ICollectionINS1_IT_EEEEEUlRKS3_E_EE
	.quad	_ZN8opendnp314FunctorVisitorINS_7IndexedINS_7CounterEEEZN8asiodnp318PrintingSOEHandler8PrintAllIS2_EEvRKNS_10HeaderInfoERKNS_11ICollectionINS1_IT_EEEEEUlRKS3_E_E7OnValueESH_
	.weak	_ZTVN8opendnp314FunctorVisitorINS_7IndexedINS_13FrozenCounterEEEZN8asiodnp318PrintingSOEHandler8PrintAllIS2_EEvRKNS_10HeaderInfoERKNS_11ICollectionINS1_IT_EEEEEUlRKS3_E_EE
	.section	.data.rel.ro._ZTVN8opendnp314FunctorVisitorINS_7IndexedINS_13FrozenCounterEEEZN8asiodnp318PrintingSOEHandler8PrintAllIS2_EEvRKNS_10HeaderInfoERKNS_11ICollectionINS1_IT_EEEEEUlRKS3_E_EE,"awG",@progbits,_ZTVN8opendnp314FunctorVisitorINS_7IndexedINS_13FrozenCounterEEEZN8asiodnp318PrintingSOEHandler8PrintAllIS2_EEvRKNS_10HeaderInfoERKNS_11ICollectionINS1_IT_EEEEEUlRKS3_E_EE,comdat
	.align 8
	.type	_ZTVN8opendnp314FunctorVisitorINS_7IndexedINS_13FrozenCounterEEEZN8asiodnp318PrintingSOEHandler8PrintAllIS2_EEvRKNS_10HeaderInfoERKNS_11ICollectionINS1_IT_EEEEEUlRKS3_E_EE, @object
	.size	_ZTVN8opendnp314FunctorVisitorINS_7IndexedINS_13FrozenCounterEEEZN8asiodnp318PrintingSOEHandler8PrintAllIS2_EEvRKNS_10HeaderInfoERKNS_11ICollectionINS1_IT_EEEEEUlRKS3_E_EE, 24
_ZTVN8opendnp314FunctorVisitorINS_7IndexedINS_13FrozenCounterEEEZN8asiodnp318PrintingSOEHandler8PrintAllIS2_EEvRKNS_10HeaderInfoERKNS_11ICollectionINS1_IT_EEEEEUlRKS3_E_EE:
	.quad	0
	.quad	_ZTIN8opendnp314FunctorVisitorINS_7IndexedINS_13FrozenCounterEEEZN8asiodnp318PrintingSOEHandler8PrintAllIS2_EEvRKNS_10HeaderInfoERKNS_11ICollectionINS1_IT_EEEEEUlRKS3_E_EE
	.quad	_ZN8opendnp314FunctorVisitorINS_7IndexedINS_13FrozenCounterEEEZN8asiodnp318PrintingSOEHandler8PrintAllIS2_EEvRKNS_10HeaderInfoERKNS_11ICollectionINS1_IT_EEEEEUlRKS3_E_E7OnValueESH_
	.weak	_ZTVN8opendnp314FunctorVisitorINS_7IndexedINS_18BinaryOutputStatusEEEZN8asiodnp318PrintingSOEHandler8PrintAllIS2_EEvRKNS_10HeaderInfoERKNS_11ICollectionINS1_IT_EEEEEUlRKS3_E_EE
	.section	.data.rel.ro._ZTVN8opendnp314FunctorVisitorINS_7IndexedINS_18BinaryOutputStatusEEEZN8asiodnp318PrintingSOEHandler8PrintAllIS2_EEvRKNS_10HeaderInfoERKNS_11ICollectionINS1_IT_EEEEEUlRKS3_E_EE,"awG",@progbits,_ZTVN8opendnp314FunctorVisitorINS_7IndexedINS_18BinaryOutputStatusEEEZN8asiodnp318PrintingSOEHandler8PrintAllIS2_EEvRKNS_10HeaderInfoERKNS_11ICollectionINS1_IT_EEEEEUlRKS3_E_EE,comdat
	.align 8
	.type	_ZTVN8opendnp314FunctorVisitorINS_7IndexedINS_18BinaryOutputStatusEEEZN8asiodnp318PrintingSOEHandler8PrintAllIS2_EEvRKNS_10HeaderInfoERKNS_11ICollectionINS1_IT_EEEEEUlRKS3_E_EE, @object
	.size	_ZTVN8opendnp314FunctorVisitorINS_7IndexedINS_18BinaryOutputStatusEEEZN8asiodnp318PrintingSOEHandler8PrintAllIS2_EEvRKNS_10HeaderInfoERKNS_11ICollectionINS1_IT_EEEEEUlRKS3_E_EE, 24
_ZTVN8opendnp314FunctorVisitorINS_7IndexedINS_18BinaryOutputStatusEEEZN8asiodnp318PrintingSOEHandler8PrintAllIS2_EEvRKNS_10HeaderInfoERKNS_11ICollectionINS1_IT_EEEEEUlRKS3_E_EE:
	.quad	0
	.quad	_ZTIN8opendnp314FunctorVisitorINS_7IndexedINS_18BinaryOutputStatusEEEZN8asiodnp318PrintingSOEHandler8PrintAllIS2_EEvRKNS_10HeaderInfoERKNS_11ICollectionINS1_IT_EEEEEUlRKS3_E_EE
	.quad	_ZN8opendnp314FunctorVisitorINS_7IndexedINS_18BinaryOutputStatusEEEZN8asiodnp318PrintingSOEHandler8PrintAllIS2_EEvRKNS_10HeaderInfoERKNS_11ICollectionINS1_IT_EEEEEUlRKS3_E_E7OnValueESH_
	.weak	_ZTVN8opendnp314FunctorVisitorINS_7IndexedINS_18AnalogOutputStatusEEEZN8asiodnp318PrintingSOEHandler8PrintAllIS2_EEvRKNS_10HeaderInfoERKNS_11ICollectionINS1_IT_EEEEEUlRKS3_E_EE
	.section	.data.rel.ro._ZTVN8opendnp314FunctorVisitorINS_7IndexedINS_18AnalogOutputStatusEEEZN8asiodnp318PrintingSOEHandler8PrintAllIS2_EEvRKNS_10HeaderInfoERKNS_11ICollectionINS1_IT_EEEEEUlRKS3_E_EE,"awG",@progbits,_ZTVN8opendnp314FunctorVisitorINS_7IndexedINS_18AnalogOutputStatusEEEZN8asiodnp318PrintingSOEHandler8PrintAllIS2_EEvRKNS_10HeaderInfoERKNS_11ICollectionINS1_IT_EEEEEUlRKS3_E_EE,comdat
	.align 8
	.type	_ZTVN8opendnp314FunctorVisitorINS_7IndexedINS_18AnalogOutputStatusEEEZN8asiodnp318PrintingSOEHandler8PrintAllIS2_EEvRKNS_10HeaderInfoERKNS_11ICollectionINS1_IT_EEEEEUlRKS3_E_EE, @object
	.size	_ZTVN8opendnp314FunctorVisitorINS_7IndexedINS_18AnalogOutputStatusEEEZN8asiodnp318PrintingSOEHandler8PrintAllIS2_EEvRKNS_10HeaderInfoERKNS_11ICollectionINS1_IT_EEEEEUlRKS3_E_EE, 24
_ZTVN8opendnp314FunctorVisitorINS_7IndexedINS_18AnalogOutputStatusEEEZN8asiodnp318PrintingSOEHandler8PrintAllIS2_EEvRKNS_10HeaderInfoERKNS_11ICollectionINS1_IT_EEEEEUlRKS3_E_EE:
	.quad	0
	.quad	_ZTIN8opendnp314FunctorVisitorINS_7IndexedINS_18AnalogOutputStatusEEEZN8asiodnp318PrintingSOEHandler8PrintAllIS2_EEvRKNS_10HeaderInfoERKNS_11ICollectionINS1_IT_EEEEEUlRKS3_E_EE
	.quad	_ZN8opendnp314FunctorVisitorINS_7IndexedINS_18AnalogOutputStatusEEEZN8asiodnp318PrintingSOEHandler8PrintAllIS2_EEvRKNS_10HeaderInfoERKNS_11ICollectionINS1_IT_EEEEEUlRKS3_E_E7OnValueESH_
	.local	_ZStL8__ioinit
	.comm	_ZStL8__ioinit,1,1
	.hidden	DW.ref.__gxx_personality_v0
	.weak	DW.ref.__gxx_personality_v0
	.section	.data.rel.local.DW.ref.__gxx_personality_v0,"awG",@progbits,DW.ref.__gxx_personality_v0,comdat
	.align 8
	.type	DW.ref.__gxx_personality_v0, @object
	.size	DW.ref.__gxx_personality_v0, 8
DW.ref.__gxx_personality_v0:
	.quad	__gxx_personality_v0
	.hidden	__dso_handle
	.ident	"GCC: (Ubuntu 9.4.0-1ubuntu1~20.04.1) 9.4.0"
	.section	.note.GNU-stack,"",@progbits
	.section	.note.gnu.property,"a"
	.align 8
	.long	 1f - 0f
	.long	 4f - 1f
	.long	 5
0:
	.string	 "GNU"
1:
	.align 8
	.long	 0xc0000002
	.long	 3f - 2f
2:
	.long	 0x3
3:
	.align 8
4:
