	.file	"RangeParser.cpp"
	.text
	.section	.text._ZN7openpal12StaticBufferILj255EED2Ev,"axG",@progbits,_ZN7openpal12StaticBufferILj255EED5Ev,comdat
	.align 2
	.p2align 4
	.weak	_ZN7openpal12StaticBufferILj255EED2Ev
	.type	_ZN7openpal12StaticBufferILj255EED2Ev, @function
_ZN7openpal12StaticBufferILj255EED2Ev:
.LFB2694:
	.cfi_startproc
	endbr64
	ret
	.cfi_endproc
.LFE2694:
	.size	_ZN7openpal12StaticBufferILj255EED2Ev, .-_ZN7openpal12StaticBufferILj255EED2Ev
	.weak	_ZN7openpal12StaticBufferILj255EED1Ev
	.set	_ZN7openpal12StaticBufferILj255EED1Ev,_ZN7openpal12StaticBufferILj255EED2Ev
	.section	.text._ZNK8opendnp318BufferedCollectionINS_7IndexedINS_12Group121Var1EEEZNS_11RangeParser17InvokeRangeOfTypeIS2_EEvRKNS_12HeaderRecordERKNS_5RangeERKN7openpal6RSliceERNS_12IAPDUHandlerEEUlRSD_jE_E5CountEv,"axG",@progbits,_ZNK8opendnp318BufferedCollectionINS_7IndexedINS_12Group121Var1EEEZNS_11RangeParser17InvokeRangeOfTypeIS2_EEvRKNS_12HeaderRecordERKNS_5RangeERKN7openpal6RSliceERNS_12IAPDUHandlerEEUlRSD_jE_E5CountEv,comdat
	.align 2
	.p2align 4
	.weak	_ZNK8opendnp318BufferedCollectionINS_7IndexedINS_12Group121Var1EEEZNS_11RangeParser17InvokeRangeOfTypeIS2_EEvRKNS_12HeaderRecordERKNS_5RangeERKN7openpal6RSliceERNS_12IAPDUHandlerEEUlRSD_jE_E5CountEv
	.type	_ZNK8opendnp318BufferedCollectionINS_7IndexedINS_12Group121Var1EEEZNS_11RangeParser17InvokeRangeOfTypeIS2_EEvRKNS_12HeaderRecordERKNS_5RangeERKN7openpal6RSliceERNS_12IAPDUHandlerEEUlRSD_jE_E5CountEv, @function
_ZNK8opendnp318BufferedCollectionINS_7IndexedINS_12Group121Var1EEEZNS_11RangeParser17InvokeRangeOfTypeIS2_EEvRKNS_12HeaderRecordERKNS_5RangeERKN7openpal6RSliceERNS_12IAPDUHandlerEEUlRSD_jE_E5CountEv:
.LFB3534:
	.cfi_startproc
	endbr64
	movq	24(%rdi), %rax
	ret
	.cfi_endproc
.LFE3534:
	.size	_ZNK8opendnp318BufferedCollectionINS_7IndexedINS_12Group121Var1EEEZNS_11RangeParser17InvokeRangeOfTypeIS2_EEvRKNS_12HeaderRecordERKNS_5RangeERKN7openpal6RSliceERNS_12IAPDUHandlerEEUlRSD_jE_E5CountEv, .-_ZNK8opendnp318BufferedCollectionINS_7IndexedINS_12Group121Var1EEEZNS_11RangeParser17InvokeRangeOfTypeIS2_EEvRKNS_12HeaderRecordERKNS_5RangeERKN7openpal6RSliceERNS_12IAPDUHandlerEEUlRSD_jE_E5CountEv
	.section	.text._ZNK8opendnp318BufferedCollectionINS_7IndexedINS_8IINValueEEEZNS_11RangeParser23InvokeRangeBitfieldTypeIS2_EEvRKNS_12HeaderRecordERKNS_5RangeERKN7openpal6RSliceERNS_12IAPDUHandlerEEUlRSD_jE_E5CountEv,"axG",@progbits,_ZNK8opendnp318BufferedCollectionINS_7IndexedINS_8IINValueEEEZNS_11RangeParser23InvokeRangeBitfieldTypeIS2_EEvRKNS_12HeaderRecordERKNS_5RangeERKN7openpal6RSliceERNS_12IAPDUHandlerEEUlRSD_jE_E5CountEv,comdat
	.align 2
	.p2align 4
	.weak	_ZNK8opendnp318BufferedCollectionINS_7IndexedINS_8IINValueEEEZNS_11RangeParser23InvokeRangeBitfieldTypeIS2_EEvRKNS_12HeaderRecordERKNS_5RangeERKN7openpal6RSliceERNS_12IAPDUHandlerEEUlRSD_jE_E5CountEv
	.type	_ZNK8opendnp318BufferedCollectionINS_7IndexedINS_8IINValueEEEZNS_11RangeParser23InvokeRangeBitfieldTypeIS2_EEvRKNS_12HeaderRecordERKNS_5RangeERKN7openpal6RSliceERNS_12IAPDUHandlerEEUlRSD_jE_E5CountEv, @function
_ZNK8opendnp318BufferedCollectionINS_7IndexedINS_8IINValueEEEZNS_11RangeParser23InvokeRangeBitfieldTypeIS2_EEvRKNS_12HeaderRecordERKNS_5RangeERKN7openpal6RSliceERNS_12IAPDUHandlerEEUlRSD_jE_E5CountEv:
.LFB3536:
	.cfi_startproc
	endbr64
	movq	24(%rdi), %rax
	ret
	.cfi_endproc
.LFE3536:
	.size	_ZNK8opendnp318BufferedCollectionINS_7IndexedINS_8IINValueEEEZNS_11RangeParser23InvokeRangeBitfieldTypeIS2_EEvRKNS_12HeaderRecordERKNS_5RangeERKN7openpal6RSliceERNS_12IAPDUHandlerEEUlRSD_jE_E5CountEv, .-_ZNK8opendnp318BufferedCollectionINS_7IndexedINS_8IINValueEEEZNS_11RangeParser23InvokeRangeBitfieldTypeIS2_EEvRKNS_12HeaderRecordERKNS_5RangeERKN7openpal6RSliceERNS_12IAPDUHandlerEEUlRSD_jE_E5CountEv
	.section	.text._ZNK8opendnp318BufferedCollectionINS_7IndexedINS_15TimeAndIntervalEEEZNS_11RangeParser13InvokeRangeOfINS_11Group50Var4EEEvRKNS_12HeaderRecordERKNS_5RangeERKN7openpal6RSliceERNS_12IAPDUHandlerEEUlRSE_jE_E5CountEv,"axG",@progbits,_ZNK8opendnp318BufferedCollectionINS_7IndexedINS_15TimeAndIntervalEEEZNS_11RangeParser13InvokeRangeOfINS_11Group50Var4EEEvRKNS_12HeaderRecordERKNS_5RangeERKN7openpal6RSliceERNS_12IAPDUHandlerEEUlRSE_jE_E5CountEv,comdat
	.align 2
	.p2align 4
	.weak	_ZNK8opendnp318BufferedCollectionINS_7IndexedINS_15TimeAndIntervalEEEZNS_11RangeParser13InvokeRangeOfINS_11Group50Var4EEEvRKNS_12HeaderRecordERKNS_5RangeERKN7openpal6RSliceERNS_12IAPDUHandlerEEUlRSE_jE_E5CountEv
	.type	_ZNK8opendnp318BufferedCollectionINS_7IndexedINS_15TimeAndIntervalEEEZNS_11RangeParser13InvokeRangeOfINS_11Group50Var4EEEvRKNS_12HeaderRecordERKNS_5RangeERKN7openpal6RSliceERNS_12IAPDUHandlerEEUlRSE_jE_E5CountEv, @function
_ZNK8opendnp318BufferedCollectionINS_7IndexedINS_15TimeAndIntervalEEEZNS_11RangeParser13InvokeRangeOfINS_11Group50Var4EEEvRKNS_12HeaderRecordERKNS_5RangeERKN7openpal6RSliceERNS_12IAPDUHandlerEEUlRSE_jE_E5CountEv:
.LFB3538:
	.cfi_startproc
	endbr64
	movq	24(%rdi), %rax
	ret
	.cfi_endproc
.LFE3538:
	.size	_ZNK8opendnp318BufferedCollectionINS_7IndexedINS_15TimeAndIntervalEEEZNS_11RangeParser13InvokeRangeOfINS_11Group50Var4EEEvRKNS_12HeaderRecordERKNS_5RangeERKN7openpal6RSliceERNS_12IAPDUHandlerEEUlRSE_jE_E5CountEv, .-_ZNK8opendnp318BufferedCollectionINS_7IndexedINS_15TimeAndIntervalEEEZNS_11RangeParser13InvokeRangeOfINS_11Group50Var4EEEvRKNS_12HeaderRecordERKNS_5RangeERKN7openpal6RSliceERNS_12IAPDUHandlerEEUlRSE_jE_E5CountEv
	.section	.text._ZNK8opendnp318BufferedCollectionINS_7IndexedINS_18AnalogOutputStatusEEEZNS_11RangeParser13InvokeRangeOfINS_11Group40Var4EEEvRKNS_12HeaderRecordERKNS_5RangeERKN7openpal6RSliceERNS_12IAPDUHandlerEEUlRSE_jE_E5CountEv,"axG",@progbits,_ZNK8opendnp318BufferedCollectionINS_7IndexedINS_18AnalogOutputStatusEEEZNS_11RangeParser13InvokeRangeOfINS_11Group40Var4EEEvRKNS_12HeaderRecordERKNS_5RangeERKN7openpal6RSliceERNS_12IAPDUHandlerEEUlRSE_jE_E5CountEv,comdat
	.align 2
	.p2align 4
	.weak	_ZNK8opendnp318BufferedCollectionINS_7IndexedINS_18AnalogOutputStatusEEEZNS_11RangeParser13InvokeRangeOfINS_11Group40Var4EEEvRKNS_12HeaderRecordERKNS_5RangeERKN7openpal6RSliceERNS_12IAPDUHandlerEEUlRSE_jE_E5CountEv
	.type	_ZNK8opendnp318BufferedCollectionINS_7IndexedINS_18AnalogOutputStatusEEEZNS_11RangeParser13InvokeRangeOfINS_11Group40Var4EEEvRKNS_12HeaderRecordERKNS_5RangeERKN7openpal6RSliceERNS_12IAPDUHandlerEEUlRSE_jE_E5CountEv, @function
_ZNK8opendnp318BufferedCollectionINS_7IndexedINS_18AnalogOutputStatusEEEZNS_11RangeParser13InvokeRangeOfINS_11Group40Var4EEEvRKNS_12HeaderRecordERKNS_5RangeERKN7openpal6RSliceERNS_12IAPDUHandlerEEUlRSE_jE_E5CountEv:
.LFB3540:
	.cfi_startproc
	endbr64
	movq	24(%rdi), %rax
	ret
	.cfi_endproc
.LFE3540:
	.size	_ZNK8opendnp318BufferedCollectionINS_7IndexedINS_18AnalogOutputStatusEEEZNS_11RangeParser13InvokeRangeOfINS_11Group40Var4EEEvRKNS_12HeaderRecordERKNS_5RangeERKN7openpal6RSliceERNS_12IAPDUHandlerEEUlRSE_jE_E5CountEv, .-_ZNK8opendnp318BufferedCollectionINS_7IndexedINS_18AnalogOutputStatusEEEZNS_11RangeParser13InvokeRangeOfINS_11Group40Var4EEEvRKNS_12HeaderRecordERKNS_5RangeERKN7openpal6RSliceERNS_12IAPDUHandlerEEUlRSE_jE_E5CountEv
	.section	.text._ZNK8opendnp318BufferedCollectionINS_7IndexedINS_18AnalogOutputStatusEEEZNS_11RangeParser13InvokeRangeOfINS_11Group40Var3EEEvRKNS_12HeaderRecordERKNS_5RangeERKN7openpal6RSliceERNS_12IAPDUHandlerEEUlRSE_jE_E5CountEv,"axG",@progbits,_ZNK8opendnp318BufferedCollectionINS_7IndexedINS_18AnalogOutputStatusEEEZNS_11RangeParser13InvokeRangeOfINS_11Group40Var3EEEvRKNS_12HeaderRecordERKNS_5RangeERKN7openpal6RSliceERNS_12IAPDUHandlerEEUlRSE_jE_E5CountEv,comdat
	.align 2
	.p2align 4
	.weak	_ZNK8opendnp318BufferedCollectionINS_7IndexedINS_18AnalogOutputStatusEEEZNS_11RangeParser13InvokeRangeOfINS_11Group40Var3EEEvRKNS_12HeaderRecordERKNS_5RangeERKN7openpal6RSliceERNS_12IAPDUHandlerEEUlRSE_jE_E5CountEv
	.type	_ZNK8opendnp318BufferedCollectionINS_7IndexedINS_18AnalogOutputStatusEEEZNS_11RangeParser13InvokeRangeOfINS_11Group40Var3EEEvRKNS_12HeaderRecordERKNS_5RangeERKN7openpal6RSliceERNS_12IAPDUHandlerEEUlRSE_jE_E5CountEv, @function
_ZNK8opendnp318BufferedCollectionINS_7IndexedINS_18AnalogOutputStatusEEEZNS_11RangeParser13InvokeRangeOfINS_11Group40Var3EEEvRKNS_12HeaderRecordERKNS_5RangeERKN7openpal6RSliceERNS_12IAPDUHandlerEEUlRSE_jE_E5CountEv:
.LFB3542:
	.cfi_startproc
	endbr64
	movq	24(%rdi), %rax
	ret
	.cfi_endproc
.LFE3542:
	.size	_ZNK8opendnp318BufferedCollectionINS_7IndexedINS_18AnalogOutputStatusEEEZNS_11RangeParser13InvokeRangeOfINS_11Group40Var3EEEvRKNS_12HeaderRecordERKNS_5RangeERKN7openpal6RSliceERNS_12IAPDUHandlerEEUlRSE_jE_E5CountEv, .-_ZNK8opendnp318BufferedCollectionINS_7IndexedINS_18AnalogOutputStatusEEEZNS_11RangeParser13InvokeRangeOfINS_11Group40Var3EEEvRKNS_12HeaderRecordERKNS_5RangeERKN7openpal6RSliceERNS_12IAPDUHandlerEEUlRSE_jE_E5CountEv
	.section	.text._ZNK8opendnp318BufferedCollectionINS_7IndexedINS_18AnalogOutputStatusEEEZNS_11RangeParser13InvokeRangeOfINS_11Group40Var2EEEvRKNS_12HeaderRecordERKNS_5RangeERKN7openpal6RSliceERNS_12IAPDUHandlerEEUlRSE_jE_E5CountEv,"axG",@progbits,_ZNK8opendnp318BufferedCollectionINS_7IndexedINS_18AnalogOutputStatusEEEZNS_11RangeParser13InvokeRangeOfINS_11Group40Var2EEEvRKNS_12HeaderRecordERKNS_5RangeERKN7openpal6RSliceERNS_12IAPDUHandlerEEUlRSE_jE_E5CountEv,comdat
	.align 2
	.p2align 4
	.weak	_ZNK8opendnp318BufferedCollectionINS_7IndexedINS_18AnalogOutputStatusEEEZNS_11RangeParser13InvokeRangeOfINS_11Group40Var2EEEvRKNS_12HeaderRecordERKNS_5RangeERKN7openpal6RSliceERNS_12IAPDUHandlerEEUlRSE_jE_E5CountEv
	.type	_ZNK8opendnp318BufferedCollectionINS_7IndexedINS_18AnalogOutputStatusEEEZNS_11RangeParser13InvokeRangeOfINS_11Group40Var2EEEvRKNS_12HeaderRecordERKNS_5RangeERKN7openpal6RSliceERNS_12IAPDUHandlerEEUlRSE_jE_E5CountEv, @function
_ZNK8opendnp318BufferedCollectionINS_7IndexedINS_18AnalogOutputStatusEEEZNS_11RangeParser13InvokeRangeOfINS_11Group40Var2EEEvRKNS_12HeaderRecordERKNS_5RangeERKN7openpal6RSliceERNS_12IAPDUHandlerEEUlRSE_jE_E5CountEv:
.LFB3544:
	.cfi_startproc
	endbr64
	movq	24(%rdi), %rax
	ret
	.cfi_endproc
.LFE3544:
	.size	_ZNK8opendnp318BufferedCollectionINS_7IndexedINS_18AnalogOutputStatusEEEZNS_11RangeParser13InvokeRangeOfINS_11Group40Var2EEEvRKNS_12HeaderRecordERKNS_5RangeERKN7openpal6RSliceERNS_12IAPDUHandlerEEUlRSE_jE_E5CountEv, .-_ZNK8opendnp318BufferedCollectionINS_7IndexedINS_18AnalogOutputStatusEEEZNS_11RangeParser13InvokeRangeOfINS_11Group40Var2EEEvRKNS_12HeaderRecordERKNS_5RangeERKN7openpal6RSliceERNS_12IAPDUHandlerEEUlRSE_jE_E5CountEv
	.section	.text._ZNK8opendnp318BufferedCollectionINS_7IndexedINS_18AnalogOutputStatusEEEZNS_11RangeParser13InvokeRangeOfINS_11Group40Var1EEEvRKNS_12HeaderRecordERKNS_5RangeERKN7openpal6RSliceERNS_12IAPDUHandlerEEUlRSE_jE_E5CountEv,"axG",@progbits,_ZNK8opendnp318BufferedCollectionINS_7IndexedINS_18AnalogOutputStatusEEEZNS_11RangeParser13InvokeRangeOfINS_11Group40Var1EEEvRKNS_12HeaderRecordERKNS_5RangeERKN7openpal6RSliceERNS_12IAPDUHandlerEEUlRSE_jE_E5CountEv,comdat
	.align 2
	.p2align 4
	.weak	_ZNK8opendnp318BufferedCollectionINS_7IndexedINS_18AnalogOutputStatusEEEZNS_11RangeParser13InvokeRangeOfINS_11Group40Var1EEEvRKNS_12HeaderRecordERKNS_5RangeERKN7openpal6RSliceERNS_12IAPDUHandlerEEUlRSE_jE_E5CountEv
	.type	_ZNK8opendnp318BufferedCollectionINS_7IndexedINS_18AnalogOutputStatusEEEZNS_11RangeParser13InvokeRangeOfINS_11Group40Var1EEEvRKNS_12HeaderRecordERKNS_5RangeERKN7openpal6RSliceERNS_12IAPDUHandlerEEUlRSE_jE_E5CountEv, @function
_ZNK8opendnp318BufferedCollectionINS_7IndexedINS_18AnalogOutputStatusEEEZNS_11RangeParser13InvokeRangeOfINS_11Group40Var1EEEvRKNS_12HeaderRecordERKNS_5RangeERKN7openpal6RSliceERNS_12IAPDUHandlerEEUlRSE_jE_E5CountEv:
.LFB3546:
	.cfi_startproc
	endbr64
	movq	24(%rdi), %rax
	ret
	.cfi_endproc
.LFE3546:
	.size	_ZNK8opendnp318BufferedCollectionINS_7IndexedINS_18AnalogOutputStatusEEEZNS_11RangeParser13InvokeRangeOfINS_11Group40Var1EEEvRKNS_12HeaderRecordERKNS_5RangeERKN7openpal6RSliceERNS_12IAPDUHandlerEEUlRSE_jE_E5CountEv, .-_ZNK8opendnp318BufferedCollectionINS_7IndexedINS_18AnalogOutputStatusEEEZNS_11RangeParser13InvokeRangeOfINS_11Group40Var1EEEvRKNS_12HeaderRecordERKNS_5RangeERKN7openpal6RSliceERNS_12IAPDUHandlerEEUlRSE_jE_E5CountEv
	.section	.text._ZNK8opendnp318BufferedCollectionINS_7IndexedINS_6AnalogEEEZNS_11RangeParser13InvokeRangeOfINS_11Group30Var6EEEvRKNS_12HeaderRecordERKNS_5RangeERKN7openpal6RSliceERNS_12IAPDUHandlerEEUlRSE_jE_E5CountEv,"axG",@progbits,_ZNK8opendnp318BufferedCollectionINS_7IndexedINS_6AnalogEEEZNS_11RangeParser13InvokeRangeOfINS_11Group30Var6EEEvRKNS_12HeaderRecordERKNS_5RangeERKN7openpal6RSliceERNS_12IAPDUHandlerEEUlRSE_jE_E5CountEv,comdat
	.align 2
	.p2align 4
	.weak	_ZNK8opendnp318BufferedCollectionINS_7IndexedINS_6AnalogEEEZNS_11RangeParser13InvokeRangeOfINS_11Group30Var6EEEvRKNS_12HeaderRecordERKNS_5RangeERKN7openpal6RSliceERNS_12IAPDUHandlerEEUlRSE_jE_E5CountEv
	.type	_ZNK8opendnp318BufferedCollectionINS_7IndexedINS_6AnalogEEEZNS_11RangeParser13InvokeRangeOfINS_11Group30Var6EEEvRKNS_12HeaderRecordERKNS_5RangeERKN7openpal6RSliceERNS_12IAPDUHandlerEEUlRSE_jE_E5CountEv, @function
_ZNK8opendnp318BufferedCollectionINS_7IndexedINS_6AnalogEEEZNS_11RangeParser13InvokeRangeOfINS_11Group30Var6EEEvRKNS_12HeaderRecordERKNS_5RangeERKN7openpal6RSliceERNS_12IAPDUHandlerEEUlRSE_jE_E5CountEv:
.LFB3548:
	.cfi_startproc
	endbr64
	movq	24(%rdi), %rax
	ret
	.cfi_endproc
.LFE3548:
	.size	_ZNK8opendnp318BufferedCollectionINS_7IndexedINS_6AnalogEEEZNS_11RangeParser13InvokeRangeOfINS_11Group30Var6EEEvRKNS_12HeaderRecordERKNS_5RangeERKN7openpal6RSliceERNS_12IAPDUHandlerEEUlRSE_jE_E5CountEv, .-_ZNK8opendnp318BufferedCollectionINS_7IndexedINS_6AnalogEEEZNS_11RangeParser13InvokeRangeOfINS_11Group30Var6EEEvRKNS_12HeaderRecordERKNS_5RangeERKN7openpal6RSliceERNS_12IAPDUHandlerEEUlRSE_jE_E5CountEv
	.section	.text._ZNK8opendnp318BufferedCollectionINS_7IndexedINS_6AnalogEEEZNS_11RangeParser13InvokeRangeOfINS_11Group30Var5EEEvRKNS_12HeaderRecordERKNS_5RangeERKN7openpal6RSliceERNS_12IAPDUHandlerEEUlRSE_jE_E5CountEv,"axG",@progbits,_ZNK8opendnp318BufferedCollectionINS_7IndexedINS_6AnalogEEEZNS_11RangeParser13InvokeRangeOfINS_11Group30Var5EEEvRKNS_12HeaderRecordERKNS_5RangeERKN7openpal6RSliceERNS_12IAPDUHandlerEEUlRSE_jE_E5CountEv,comdat
	.align 2
	.p2align 4
	.weak	_ZNK8opendnp318BufferedCollectionINS_7IndexedINS_6AnalogEEEZNS_11RangeParser13InvokeRangeOfINS_11Group30Var5EEEvRKNS_12HeaderRecordERKNS_5RangeERKN7openpal6RSliceERNS_12IAPDUHandlerEEUlRSE_jE_E5CountEv
	.type	_ZNK8opendnp318BufferedCollectionINS_7IndexedINS_6AnalogEEEZNS_11RangeParser13InvokeRangeOfINS_11Group30Var5EEEvRKNS_12HeaderRecordERKNS_5RangeERKN7openpal6RSliceERNS_12IAPDUHandlerEEUlRSE_jE_E5CountEv, @function
_ZNK8opendnp318BufferedCollectionINS_7IndexedINS_6AnalogEEEZNS_11RangeParser13InvokeRangeOfINS_11Group30Var5EEEvRKNS_12HeaderRecordERKNS_5RangeERKN7openpal6RSliceERNS_12IAPDUHandlerEEUlRSE_jE_E5CountEv:
.LFB3550:
	.cfi_startproc
	endbr64
	movq	24(%rdi), %rax
	ret
	.cfi_endproc
.LFE3550:
	.size	_ZNK8opendnp318BufferedCollectionINS_7IndexedINS_6AnalogEEEZNS_11RangeParser13InvokeRangeOfINS_11Group30Var5EEEvRKNS_12HeaderRecordERKNS_5RangeERKN7openpal6RSliceERNS_12IAPDUHandlerEEUlRSE_jE_E5CountEv, .-_ZNK8opendnp318BufferedCollectionINS_7IndexedINS_6AnalogEEEZNS_11RangeParser13InvokeRangeOfINS_11Group30Var5EEEvRKNS_12HeaderRecordERKNS_5RangeERKN7openpal6RSliceERNS_12IAPDUHandlerEEUlRSE_jE_E5CountEv
	.section	.text._ZNK8opendnp318BufferedCollectionINS_7IndexedINS_6AnalogEEEZNS_11RangeParser13InvokeRangeOfINS_11Group30Var4EEEvRKNS_12HeaderRecordERKNS_5RangeERKN7openpal6RSliceERNS_12IAPDUHandlerEEUlRSE_jE_E5CountEv,"axG",@progbits,_ZNK8opendnp318BufferedCollectionINS_7IndexedINS_6AnalogEEEZNS_11RangeParser13InvokeRangeOfINS_11Group30Var4EEEvRKNS_12HeaderRecordERKNS_5RangeERKN7openpal6RSliceERNS_12IAPDUHandlerEEUlRSE_jE_E5CountEv,comdat
	.align 2
	.p2align 4
	.weak	_ZNK8opendnp318BufferedCollectionINS_7IndexedINS_6AnalogEEEZNS_11RangeParser13InvokeRangeOfINS_11Group30Var4EEEvRKNS_12HeaderRecordERKNS_5RangeERKN7openpal6RSliceERNS_12IAPDUHandlerEEUlRSE_jE_E5CountEv
	.type	_ZNK8opendnp318BufferedCollectionINS_7IndexedINS_6AnalogEEEZNS_11RangeParser13InvokeRangeOfINS_11Group30Var4EEEvRKNS_12HeaderRecordERKNS_5RangeERKN7openpal6RSliceERNS_12IAPDUHandlerEEUlRSE_jE_E5CountEv, @function
_ZNK8opendnp318BufferedCollectionINS_7IndexedINS_6AnalogEEEZNS_11RangeParser13InvokeRangeOfINS_11Group30Var4EEEvRKNS_12HeaderRecordERKNS_5RangeERKN7openpal6RSliceERNS_12IAPDUHandlerEEUlRSE_jE_E5CountEv:
.LFB3552:
	.cfi_startproc
	endbr64
	movq	24(%rdi), %rax
	ret
	.cfi_endproc
.LFE3552:
	.size	_ZNK8opendnp318BufferedCollectionINS_7IndexedINS_6AnalogEEEZNS_11RangeParser13InvokeRangeOfINS_11Group30Var4EEEvRKNS_12HeaderRecordERKNS_5RangeERKN7openpal6RSliceERNS_12IAPDUHandlerEEUlRSE_jE_E5CountEv, .-_ZNK8opendnp318BufferedCollectionINS_7IndexedINS_6AnalogEEEZNS_11RangeParser13InvokeRangeOfINS_11Group30Var4EEEvRKNS_12HeaderRecordERKNS_5RangeERKN7openpal6RSliceERNS_12IAPDUHandlerEEUlRSE_jE_E5CountEv
	.section	.text._ZNK8opendnp318BufferedCollectionINS_7IndexedINS_6AnalogEEEZNS_11RangeParser13InvokeRangeOfINS_11Group30Var3EEEvRKNS_12HeaderRecordERKNS_5RangeERKN7openpal6RSliceERNS_12IAPDUHandlerEEUlRSE_jE_E5CountEv,"axG",@progbits,_ZNK8opendnp318BufferedCollectionINS_7IndexedINS_6AnalogEEEZNS_11RangeParser13InvokeRangeOfINS_11Group30Var3EEEvRKNS_12HeaderRecordERKNS_5RangeERKN7openpal6RSliceERNS_12IAPDUHandlerEEUlRSE_jE_E5CountEv,comdat
	.align 2
	.p2align 4
	.weak	_ZNK8opendnp318BufferedCollectionINS_7IndexedINS_6AnalogEEEZNS_11RangeParser13InvokeRangeOfINS_11Group30Var3EEEvRKNS_12HeaderRecordERKNS_5RangeERKN7openpal6RSliceERNS_12IAPDUHandlerEEUlRSE_jE_E5CountEv
	.type	_ZNK8opendnp318BufferedCollectionINS_7IndexedINS_6AnalogEEEZNS_11RangeParser13InvokeRangeOfINS_11Group30Var3EEEvRKNS_12HeaderRecordERKNS_5RangeERKN7openpal6RSliceERNS_12IAPDUHandlerEEUlRSE_jE_E5CountEv, @function
_ZNK8opendnp318BufferedCollectionINS_7IndexedINS_6AnalogEEEZNS_11RangeParser13InvokeRangeOfINS_11Group30Var3EEEvRKNS_12HeaderRecordERKNS_5RangeERKN7openpal6RSliceERNS_12IAPDUHandlerEEUlRSE_jE_E5CountEv:
.LFB3554:
	.cfi_startproc
	endbr64
	movq	24(%rdi), %rax
	ret
	.cfi_endproc
.LFE3554:
	.size	_ZNK8opendnp318BufferedCollectionINS_7IndexedINS_6AnalogEEEZNS_11RangeParser13InvokeRangeOfINS_11Group30Var3EEEvRKNS_12HeaderRecordERKNS_5RangeERKN7openpal6RSliceERNS_12IAPDUHandlerEEUlRSE_jE_E5CountEv, .-_ZNK8opendnp318BufferedCollectionINS_7IndexedINS_6AnalogEEEZNS_11RangeParser13InvokeRangeOfINS_11Group30Var3EEEvRKNS_12HeaderRecordERKNS_5RangeERKN7openpal6RSliceERNS_12IAPDUHandlerEEUlRSE_jE_E5CountEv
	.section	.text._ZNK8opendnp318BufferedCollectionINS_7IndexedINS_6AnalogEEEZNS_11RangeParser13InvokeRangeOfINS_11Group30Var2EEEvRKNS_12HeaderRecordERKNS_5RangeERKN7openpal6RSliceERNS_12IAPDUHandlerEEUlRSE_jE_E5CountEv,"axG",@progbits,_ZNK8opendnp318BufferedCollectionINS_7IndexedINS_6AnalogEEEZNS_11RangeParser13InvokeRangeOfINS_11Group30Var2EEEvRKNS_12HeaderRecordERKNS_5RangeERKN7openpal6RSliceERNS_12IAPDUHandlerEEUlRSE_jE_E5CountEv,comdat
	.align 2
	.p2align 4
	.weak	_ZNK8opendnp318BufferedCollectionINS_7IndexedINS_6AnalogEEEZNS_11RangeParser13InvokeRangeOfINS_11Group30Var2EEEvRKNS_12HeaderRecordERKNS_5RangeERKN7openpal6RSliceERNS_12IAPDUHandlerEEUlRSE_jE_E5CountEv
	.type	_ZNK8opendnp318BufferedCollectionINS_7IndexedINS_6AnalogEEEZNS_11RangeParser13InvokeRangeOfINS_11Group30Var2EEEvRKNS_12HeaderRecordERKNS_5RangeERKN7openpal6RSliceERNS_12IAPDUHandlerEEUlRSE_jE_E5CountEv, @function
_ZNK8opendnp318BufferedCollectionINS_7IndexedINS_6AnalogEEEZNS_11RangeParser13InvokeRangeOfINS_11Group30Var2EEEvRKNS_12HeaderRecordERKNS_5RangeERKN7openpal6RSliceERNS_12IAPDUHandlerEEUlRSE_jE_E5CountEv:
.LFB3556:
	.cfi_startproc
	endbr64
	movq	24(%rdi), %rax
	ret
	.cfi_endproc
.LFE3556:
	.size	_ZNK8opendnp318BufferedCollectionINS_7IndexedINS_6AnalogEEEZNS_11RangeParser13InvokeRangeOfINS_11Group30Var2EEEvRKNS_12HeaderRecordERKNS_5RangeERKN7openpal6RSliceERNS_12IAPDUHandlerEEUlRSE_jE_E5CountEv, .-_ZNK8opendnp318BufferedCollectionINS_7IndexedINS_6AnalogEEEZNS_11RangeParser13InvokeRangeOfINS_11Group30Var2EEEvRKNS_12HeaderRecordERKNS_5RangeERKN7openpal6RSliceERNS_12IAPDUHandlerEEUlRSE_jE_E5CountEv
	.section	.text._ZNK8opendnp318BufferedCollectionINS_7IndexedINS_6AnalogEEEZNS_11RangeParser13InvokeRangeOfINS_11Group30Var1EEEvRKNS_12HeaderRecordERKNS_5RangeERKN7openpal6RSliceERNS_12IAPDUHandlerEEUlRSE_jE_E5CountEv,"axG",@progbits,_ZNK8opendnp318BufferedCollectionINS_7IndexedINS_6AnalogEEEZNS_11RangeParser13InvokeRangeOfINS_11Group30Var1EEEvRKNS_12HeaderRecordERKNS_5RangeERKN7openpal6RSliceERNS_12IAPDUHandlerEEUlRSE_jE_E5CountEv,comdat
	.align 2
	.p2align 4
	.weak	_ZNK8opendnp318BufferedCollectionINS_7IndexedINS_6AnalogEEEZNS_11RangeParser13InvokeRangeOfINS_11Group30Var1EEEvRKNS_12HeaderRecordERKNS_5RangeERKN7openpal6RSliceERNS_12IAPDUHandlerEEUlRSE_jE_E5CountEv
	.type	_ZNK8opendnp318BufferedCollectionINS_7IndexedINS_6AnalogEEEZNS_11RangeParser13InvokeRangeOfINS_11Group30Var1EEEvRKNS_12HeaderRecordERKNS_5RangeERKN7openpal6RSliceERNS_12IAPDUHandlerEEUlRSE_jE_E5CountEv, @function
_ZNK8opendnp318BufferedCollectionINS_7IndexedINS_6AnalogEEEZNS_11RangeParser13InvokeRangeOfINS_11Group30Var1EEEvRKNS_12HeaderRecordERKNS_5RangeERKN7openpal6RSliceERNS_12IAPDUHandlerEEUlRSE_jE_E5CountEv:
.LFB3558:
	.cfi_startproc
	endbr64
	movq	24(%rdi), %rax
	ret
	.cfi_endproc
.LFE3558:
	.size	_ZNK8opendnp318BufferedCollectionINS_7IndexedINS_6AnalogEEEZNS_11RangeParser13InvokeRangeOfINS_11Group30Var1EEEvRKNS_12HeaderRecordERKNS_5RangeERKN7openpal6RSliceERNS_12IAPDUHandlerEEUlRSE_jE_E5CountEv, .-_ZNK8opendnp318BufferedCollectionINS_7IndexedINS_6AnalogEEEZNS_11RangeParser13InvokeRangeOfINS_11Group30Var1EEEvRKNS_12HeaderRecordERKNS_5RangeERKN7openpal6RSliceERNS_12IAPDUHandlerEEUlRSE_jE_E5CountEv
	.section	.text._ZNK8opendnp318BufferedCollectionINS_7IndexedINS_13FrozenCounterEEEZNS_11RangeParser13InvokeRangeOfINS_12Group21Var10EEEvRKNS_12HeaderRecordERKNS_5RangeERKN7openpal6RSliceERNS_12IAPDUHandlerEEUlRSE_jE_E5CountEv,"axG",@progbits,_ZNK8opendnp318BufferedCollectionINS_7IndexedINS_13FrozenCounterEEEZNS_11RangeParser13InvokeRangeOfINS_12Group21Var10EEEvRKNS_12HeaderRecordERKNS_5RangeERKN7openpal6RSliceERNS_12IAPDUHandlerEEUlRSE_jE_E5CountEv,comdat
	.align 2
	.p2align 4
	.weak	_ZNK8opendnp318BufferedCollectionINS_7IndexedINS_13FrozenCounterEEEZNS_11RangeParser13InvokeRangeOfINS_12Group21Var10EEEvRKNS_12HeaderRecordERKNS_5RangeERKN7openpal6RSliceERNS_12IAPDUHandlerEEUlRSE_jE_E5CountEv
	.type	_ZNK8opendnp318BufferedCollectionINS_7IndexedINS_13FrozenCounterEEEZNS_11RangeParser13InvokeRangeOfINS_12Group21Var10EEEvRKNS_12HeaderRecordERKNS_5RangeERKN7openpal6RSliceERNS_12IAPDUHandlerEEUlRSE_jE_E5CountEv, @function
_ZNK8opendnp318BufferedCollectionINS_7IndexedINS_13FrozenCounterEEEZNS_11RangeParser13InvokeRangeOfINS_12Group21Var10EEEvRKNS_12HeaderRecordERKNS_5RangeERKN7openpal6RSliceERNS_12IAPDUHandlerEEUlRSE_jE_E5CountEv:
.LFB3560:
	.cfi_startproc
	endbr64
	movq	24(%rdi), %rax
	ret
	.cfi_endproc
.LFE3560:
	.size	_ZNK8opendnp318BufferedCollectionINS_7IndexedINS_13FrozenCounterEEEZNS_11RangeParser13InvokeRangeOfINS_12Group21Var10EEEvRKNS_12HeaderRecordERKNS_5RangeERKN7openpal6RSliceERNS_12IAPDUHandlerEEUlRSE_jE_E5CountEv, .-_ZNK8opendnp318BufferedCollectionINS_7IndexedINS_13FrozenCounterEEEZNS_11RangeParser13InvokeRangeOfINS_12Group21Var10EEEvRKNS_12HeaderRecordERKNS_5RangeERKN7openpal6RSliceERNS_12IAPDUHandlerEEUlRSE_jE_E5CountEv
	.section	.text._ZNK8opendnp318BufferedCollectionINS_7IndexedINS_13FrozenCounterEEEZNS_11RangeParser13InvokeRangeOfINS_11Group21Var9EEEvRKNS_12HeaderRecordERKNS_5RangeERKN7openpal6RSliceERNS_12IAPDUHandlerEEUlRSE_jE_E5CountEv,"axG",@progbits,_ZNK8opendnp318BufferedCollectionINS_7IndexedINS_13FrozenCounterEEEZNS_11RangeParser13InvokeRangeOfINS_11Group21Var9EEEvRKNS_12HeaderRecordERKNS_5RangeERKN7openpal6RSliceERNS_12IAPDUHandlerEEUlRSE_jE_E5CountEv,comdat
	.align 2
	.p2align 4
	.weak	_ZNK8opendnp318BufferedCollectionINS_7IndexedINS_13FrozenCounterEEEZNS_11RangeParser13InvokeRangeOfINS_11Group21Var9EEEvRKNS_12HeaderRecordERKNS_5RangeERKN7openpal6RSliceERNS_12IAPDUHandlerEEUlRSE_jE_E5CountEv
	.type	_ZNK8opendnp318BufferedCollectionINS_7IndexedINS_13FrozenCounterEEEZNS_11RangeParser13InvokeRangeOfINS_11Group21Var9EEEvRKNS_12HeaderRecordERKNS_5RangeERKN7openpal6RSliceERNS_12IAPDUHandlerEEUlRSE_jE_E5CountEv, @function
_ZNK8opendnp318BufferedCollectionINS_7IndexedINS_13FrozenCounterEEEZNS_11RangeParser13InvokeRangeOfINS_11Group21Var9EEEvRKNS_12HeaderRecordERKNS_5RangeERKN7openpal6RSliceERNS_12IAPDUHandlerEEUlRSE_jE_E5CountEv:
.LFB3562:
	.cfi_startproc
	endbr64
	movq	24(%rdi), %rax
	ret
	.cfi_endproc
.LFE3562:
	.size	_ZNK8opendnp318BufferedCollectionINS_7IndexedINS_13FrozenCounterEEEZNS_11RangeParser13InvokeRangeOfINS_11Group21Var9EEEvRKNS_12HeaderRecordERKNS_5RangeERKN7openpal6RSliceERNS_12IAPDUHandlerEEUlRSE_jE_E5CountEv, .-_ZNK8opendnp318BufferedCollectionINS_7IndexedINS_13FrozenCounterEEEZNS_11RangeParser13InvokeRangeOfINS_11Group21Var9EEEvRKNS_12HeaderRecordERKNS_5RangeERKN7openpal6RSliceERNS_12IAPDUHandlerEEUlRSE_jE_E5CountEv
	.section	.text._ZNK8opendnp318BufferedCollectionINS_7IndexedINS_13FrozenCounterEEEZNS_11RangeParser13InvokeRangeOfINS_11Group21Var6EEEvRKNS_12HeaderRecordERKNS_5RangeERKN7openpal6RSliceERNS_12IAPDUHandlerEEUlRSE_jE_E5CountEv,"axG",@progbits,_ZNK8opendnp318BufferedCollectionINS_7IndexedINS_13FrozenCounterEEEZNS_11RangeParser13InvokeRangeOfINS_11Group21Var6EEEvRKNS_12HeaderRecordERKNS_5RangeERKN7openpal6RSliceERNS_12IAPDUHandlerEEUlRSE_jE_E5CountEv,comdat
	.align 2
	.p2align 4
	.weak	_ZNK8opendnp318BufferedCollectionINS_7IndexedINS_13FrozenCounterEEEZNS_11RangeParser13InvokeRangeOfINS_11Group21Var6EEEvRKNS_12HeaderRecordERKNS_5RangeERKN7openpal6RSliceERNS_12IAPDUHandlerEEUlRSE_jE_E5CountEv
	.type	_ZNK8opendnp318BufferedCollectionINS_7IndexedINS_13FrozenCounterEEEZNS_11RangeParser13InvokeRangeOfINS_11Group21Var6EEEvRKNS_12HeaderRecordERKNS_5RangeERKN7openpal6RSliceERNS_12IAPDUHandlerEEUlRSE_jE_E5CountEv, @function
_ZNK8opendnp318BufferedCollectionINS_7IndexedINS_13FrozenCounterEEEZNS_11RangeParser13InvokeRangeOfINS_11Group21Var6EEEvRKNS_12HeaderRecordERKNS_5RangeERKN7openpal6RSliceERNS_12IAPDUHandlerEEUlRSE_jE_E5CountEv:
.LFB3564:
	.cfi_startproc
	endbr64
	movq	24(%rdi), %rax
	ret
	.cfi_endproc
.LFE3564:
	.size	_ZNK8opendnp318BufferedCollectionINS_7IndexedINS_13FrozenCounterEEEZNS_11RangeParser13InvokeRangeOfINS_11Group21Var6EEEvRKNS_12HeaderRecordERKNS_5RangeERKN7openpal6RSliceERNS_12IAPDUHandlerEEUlRSE_jE_E5CountEv, .-_ZNK8opendnp318BufferedCollectionINS_7IndexedINS_13FrozenCounterEEEZNS_11RangeParser13InvokeRangeOfINS_11Group21Var6EEEvRKNS_12HeaderRecordERKNS_5RangeERKN7openpal6RSliceERNS_12IAPDUHandlerEEUlRSE_jE_E5CountEv
	.section	.text._ZNK8opendnp318BufferedCollectionINS_7IndexedINS_13FrozenCounterEEEZNS_11RangeParser13InvokeRangeOfINS_11Group21Var5EEEvRKNS_12HeaderRecordERKNS_5RangeERKN7openpal6RSliceERNS_12IAPDUHandlerEEUlRSE_jE_E5CountEv,"axG",@progbits,_ZNK8opendnp318BufferedCollectionINS_7IndexedINS_13FrozenCounterEEEZNS_11RangeParser13InvokeRangeOfINS_11Group21Var5EEEvRKNS_12HeaderRecordERKNS_5RangeERKN7openpal6RSliceERNS_12IAPDUHandlerEEUlRSE_jE_E5CountEv,comdat
	.align 2
	.p2align 4
	.weak	_ZNK8opendnp318BufferedCollectionINS_7IndexedINS_13FrozenCounterEEEZNS_11RangeParser13InvokeRangeOfINS_11Group21Var5EEEvRKNS_12HeaderRecordERKNS_5RangeERKN7openpal6RSliceERNS_12IAPDUHandlerEEUlRSE_jE_E5CountEv
	.type	_ZNK8opendnp318BufferedCollectionINS_7IndexedINS_13FrozenCounterEEEZNS_11RangeParser13InvokeRangeOfINS_11Group21Var5EEEvRKNS_12HeaderRecordERKNS_5RangeERKN7openpal6RSliceERNS_12IAPDUHandlerEEUlRSE_jE_E5CountEv, @function
_ZNK8opendnp318BufferedCollectionINS_7IndexedINS_13FrozenCounterEEEZNS_11RangeParser13InvokeRangeOfINS_11Group21Var5EEEvRKNS_12HeaderRecordERKNS_5RangeERKN7openpal6RSliceERNS_12IAPDUHandlerEEUlRSE_jE_E5CountEv:
.LFB3566:
	.cfi_startproc
	endbr64
	movq	24(%rdi), %rax
	ret
	.cfi_endproc
.LFE3566:
	.size	_ZNK8opendnp318BufferedCollectionINS_7IndexedINS_13FrozenCounterEEEZNS_11RangeParser13InvokeRangeOfINS_11Group21Var5EEEvRKNS_12HeaderRecordERKNS_5RangeERKN7openpal6RSliceERNS_12IAPDUHandlerEEUlRSE_jE_E5CountEv, .-_ZNK8opendnp318BufferedCollectionINS_7IndexedINS_13FrozenCounterEEEZNS_11RangeParser13InvokeRangeOfINS_11Group21Var5EEEvRKNS_12HeaderRecordERKNS_5RangeERKN7openpal6RSliceERNS_12IAPDUHandlerEEUlRSE_jE_E5CountEv
	.section	.text._ZNK8opendnp318BufferedCollectionINS_7IndexedINS_13FrozenCounterEEEZNS_11RangeParser13InvokeRangeOfINS_11Group21Var2EEEvRKNS_12HeaderRecordERKNS_5RangeERKN7openpal6RSliceERNS_12IAPDUHandlerEEUlRSE_jE_E5CountEv,"axG",@progbits,_ZNK8opendnp318BufferedCollectionINS_7IndexedINS_13FrozenCounterEEEZNS_11RangeParser13InvokeRangeOfINS_11Group21Var2EEEvRKNS_12HeaderRecordERKNS_5RangeERKN7openpal6RSliceERNS_12IAPDUHandlerEEUlRSE_jE_E5CountEv,comdat
	.align 2
	.p2align 4
	.weak	_ZNK8opendnp318BufferedCollectionINS_7IndexedINS_13FrozenCounterEEEZNS_11RangeParser13InvokeRangeOfINS_11Group21Var2EEEvRKNS_12HeaderRecordERKNS_5RangeERKN7openpal6RSliceERNS_12IAPDUHandlerEEUlRSE_jE_E5CountEv
	.type	_ZNK8opendnp318BufferedCollectionINS_7IndexedINS_13FrozenCounterEEEZNS_11RangeParser13InvokeRangeOfINS_11Group21Var2EEEvRKNS_12HeaderRecordERKNS_5RangeERKN7openpal6RSliceERNS_12IAPDUHandlerEEUlRSE_jE_E5CountEv, @function
_ZNK8opendnp318BufferedCollectionINS_7IndexedINS_13FrozenCounterEEEZNS_11RangeParser13InvokeRangeOfINS_11Group21Var2EEEvRKNS_12HeaderRecordERKNS_5RangeERKN7openpal6RSliceERNS_12IAPDUHandlerEEUlRSE_jE_E5CountEv:
.LFB3568:
	.cfi_startproc
	endbr64
	movq	24(%rdi), %rax
	ret
	.cfi_endproc
.LFE3568:
	.size	_ZNK8opendnp318BufferedCollectionINS_7IndexedINS_13FrozenCounterEEEZNS_11RangeParser13InvokeRangeOfINS_11Group21Var2EEEvRKNS_12HeaderRecordERKNS_5RangeERKN7openpal6RSliceERNS_12IAPDUHandlerEEUlRSE_jE_E5CountEv, .-_ZNK8opendnp318BufferedCollectionINS_7IndexedINS_13FrozenCounterEEEZNS_11RangeParser13InvokeRangeOfINS_11Group21Var2EEEvRKNS_12HeaderRecordERKNS_5RangeERKN7openpal6RSliceERNS_12IAPDUHandlerEEUlRSE_jE_E5CountEv
	.section	.text._ZNK8opendnp318BufferedCollectionINS_7IndexedINS_13FrozenCounterEEEZNS_11RangeParser13InvokeRangeOfINS_11Group21Var1EEEvRKNS_12HeaderRecordERKNS_5RangeERKN7openpal6RSliceERNS_12IAPDUHandlerEEUlRSE_jE_E5CountEv,"axG",@progbits,_ZNK8opendnp318BufferedCollectionINS_7IndexedINS_13FrozenCounterEEEZNS_11RangeParser13InvokeRangeOfINS_11Group21Var1EEEvRKNS_12HeaderRecordERKNS_5RangeERKN7openpal6RSliceERNS_12IAPDUHandlerEEUlRSE_jE_E5CountEv,comdat
	.align 2
	.p2align 4
	.weak	_ZNK8opendnp318BufferedCollectionINS_7IndexedINS_13FrozenCounterEEEZNS_11RangeParser13InvokeRangeOfINS_11Group21Var1EEEvRKNS_12HeaderRecordERKNS_5RangeERKN7openpal6RSliceERNS_12IAPDUHandlerEEUlRSE_jE_E5CountEv
	.type	_ZNK8opendnp318BufferedCollectionINS_7IndexedINS_13FrozenCounterEEEZNS_11RangeParser13InvokeRangeOfINS_11Group21Var1EEEvRKNS_12HeaderRecordERKNS_5RangeERKN7openpal6RSliceERNS_12IAPDUHandlerEEUlRSE_jE_E5CountEv, @function
_ZNK8opendnp318BufferedCollectionINS_7IndexedINS_13FrozenCounterEEEZNS_11RangeParser13InvokeRangeOfINS_11Group21Var1EEEvRKNS_12HeaderRecordERKNS_5RangeERKN7openpal6RSliceERNS_12IAPDUHandlerEEUlRSE_jE_E5CountEv:
.LFB3570:
	.cfi_startproc
	endbr64
	movq	24(%rdi), %rax
	ret
	.cfi_endproc
.LFE3570:
	.size	_ZNK8opendnp318BufferedCollectionINS_7IndexedINS_13FrozenCounterEEEZNS_11RangeParser13InvokeRangeOfINS_11Group21Var1EEEvRKNS_12HeaderRecordERKNS_5RangeERKN7openpal6RSliceERNS_12IAPDUHandlerEEUlRSE_jE_E5CountEv, .-_ZNK8opendnp318BufferedCollectionINS_7IndexedINS_13FrozenCounterEEEZNS_11RangeParser13InvokeRangeOfINS_11Group21Var1EEEvRKNS_12HeaderRecordERKNS_5RangeERKN7openpal6RSliceERNS_12IAPDUHandlerEEUlRSE_jE_E5CountEv
	.section	.text._ZNK8opendnp318BufferedCollectionINS_7IndexedINS_7CounterEEEZNS_11RangeParser13InvokeRangeOfINS_11Group20Var6EEEvRKNS_12HeaderRecordERKNS_5RangeERKN7openpal6RSliceERNS_12IAPDUHandlerEEUlRSE_jE_E5CountEv,"axG",@progbits,_ZNK8opendnp318BufferedCollectionINS_7IndexedINS_7CounterEEEZNS_11RangeParser13InvokeRangeOfINS_11Group20Var6EEEvRKNS_12HeaderRecordERKNS_5RangeERKN7openpal6RSliceERNS_12IAPDUHandlerEEUlRSE_jE_E5CountEv,comdat
	.align 2
	.p2align 4
	.weak	_ZNK8opendnp318BufferedCollectionINS_7IndexedINS_7CounterEEEZNS_11RangeParser13InvokeRangeOfINS_11Group20Var6EEEvRKNS_12HeaderRecordERKNS_5RangeERKN7openpal6RSliceERNS_12IAPDUHandlerEEUlRSE_jE_E5CountEv
	.type	_ZNK8opendnp318BufferedCollectionINS_7IndexedINS_7CounterEEEZNS_11RangeParser13InvokeRangeOfINS_11Group20Var6EEEvRKNS_12HeaderRecordERKNS_5RangeERKN7openpal6RSliceERNS_12IAPDUHandlerEEUlRSE_jE_E5CountEv, @function
_ZNK8opendnp318BufferedCollectionINS_7IndexedINS_7CounterEEEZNS_11RangeParser13InvokeRangeOfINS_11Group20Var6EEEvRKNS_12HeaderRecordERKNS_5RangeERKN7openpal6RSliceERNS_12IAPDUHandlerEEUlRSE_jE_E5CountEv:
.LFB3572:
	.cfi_startproc
	endbr64
	movq	24(%rdi), %rax
	ret
	.cfi_endproc
.LFE3572:
	.size	_ZNK8opendnp318BufferedCollectionINS_7IndexedINS_7CounterEEEZNS_11RangeParser13InvokeRangeOfINS_11Group20Var6EEEvRKNS_12HeaderRecordERKNS_5RangeERKN7openpal6RSliceERNS_12IAPDUHandlerEEUlRSE_jE_E5CountEv, .-_ZNK8opendnp318BufferedCollectionINS_7IndexedINS_7CounterEEEZNS_11RangeParser13InvokeRangeOfINS_11Group20Var6EEEvRKNS_12HeaderRecordERKNS_5RangeERKN7openpal6RSliceERNS_12IAPDUHandlerEEUlRSE_jE_E5CountEv
	.section	.text._ZNK8opendnp318BufferedCollectionINS_7IndexedINS_7CounterEEEZNS_11RangeParser13InvokeRangeOfINS_11Group20Var5EEEvRKNS_12HeaderRecordERKNS_5RangeERKN7openpal6RSliceERNS_12IAPDUHandlerEEUlRSE_jE_E5CountEv,"axG",@progbits,_ZNK8opendnp318BufferedCollectionINS_7IndexedINS_7CounterEEEZNS_11RangeParser13InvokeRangeOfINS_11Group20Var5EEEvRKNS_12HeaderRecordERKNS_5RangeERKN7openpal6RSliceERNS_12IAPDUHandlerEEUlRSE_jE_E5CountEv,comdat
	.align 2
	.p2align 4
	.weak	_ZNK8opendnp318BufferedCollectionINS_7IndexedINS_7CounterEEEZNS_11RangeParser13InvokeRangeOfINS_11Group20Var5EEEvRKNS_12HeaderRecordERKNS_5RangeERKN7openpal6RSliceERNS_12IAPDUHandlerEEUlRSE_jE_E5CountEv
	.type	_ZNK8opendnp318BufferedCollectionINS_7IndexedINS_7CounterEEEZNS_11RangeParser13InvokeRangeOfINS_11Group20Var5EEEvRKNS_12HeaderRecordERKNS_5RangeERKN7openpal6RSliceERNS_12IAPDUHandlerEEUlRSE_jE_E5CountEv, @function
_ZNK8opendnp318BufferedCollectionINS_7IndexedINS_7CounterEEEZNS_11RangeParser13InvokeRangeOfINS_11Group20Var5EEEvRKNS_12HeaderRecordERKNS_5RangeERKN7openpal6RSliceERNS_12IAPDUHandlerEEUlRSE_jE_E5CountEv:
.LFB3574:
	.cfi_startproc
	endbr64
	movq	24(%rdi), %rax
	ret
	.cfi_endproc
.LFE3574:
	.size	_ZNK8opendnp318BufferedCollectionINS_7IndexedINS_7CounterEEEZNS_11RangeParser13InvokeRangeOfINS_11Group20Var5EEEvRKNS_12HeaderRecordERKNS_5RangeERKN7openpal6RSliceERNS_12IAPDUHandlerEEUlRSE_jE_E5CountEv, .-_ZNK8opendnp318BufferedCollectionINS_7IndexedINS_7CounterEEEZNS_11RangeParser13InvokeRangeOfINS_11Group20Var5EEEvRKNS_12HeaderRecordERKNS_5RangeERKN7openpal6RSliceERNS_12IAPDUHandlerEEUlRSE_jE_E5CountEv
	.section	.text._ZNK8opendnp318BufferedCollectionINS_7IndexedINS_7CounterEEEZNS_11RangeParser13InvokeRangeOfINS_11Group20Var2EEEvRKNS_12HeaderRecordERKNS_5RangeERKN7openpal6RSliceERNS_12IAPDUHandlerEEUlRSE_jE_E5CountEv,"axG",@progbits,_ZNK8opendnp318BufferedCollectionINS_7IndexedINS_7CounterEEEZNS_11RangeParser13InvokeRangeOfINS_11Group20Var2EEEvRKNS_12HeaderRecordERKNS_5RangeERKN7openpal6RSliceERNS_12IAPDUHandlerEEUlRSE_jE_E5CountEv,comdat
	.align 2
	.p2align 4
	.weak	_ZNK8opendnp318BufferedCollectionINS_7IndexedINS_7CounterEEEZNS_11RangeParser13InvokeRangeOfINS_11Group20Var2EEEvRKNS_12HeaderRecordERKNS_5RangeERKN7openpal6RSliceERNS_12IAPDUHandlerEEUlRSE_jE_E5CountEv
	.type	_ZNK8opendnp318BufferedCollectionINS_7IndexedINS_7CounterEEEZNS_11RangeParser13InvokeRangeOfINS_11Group20Var2EEEvRKNS_12HeaderRecordERKNS_5RangeERKN7openpal6RSliceERNS_12IAPDUHandlerEEUlRSE_jE_E5CountEv, @function
_ZNK8opendnp318BufferedCollectionINS_7IndexedINS_7CounterEEEZNS_11RangeParser13InvokeRangeOfINS_11Group20Var2EEEvRKNS_12HeaderRecordERKNS_5RangeERKN7openpal6RSliceERNS_12IAPDUHandlerEEUlRSE_jE_E5CountEv:
.LFB3576:
	.cfi_startproc
	endbr64
	movq	24(%rdi), %rax
	ret
	.cfi_endproc
.LFE3576:
	.size	_ZNK8opendnp318BufferedCollectionINS_7IndexedINS_7CounterEEEZNS_11RangeParser13InvokeRangeOfINS_11Group20Var2EEEvRKNS_12HeaderRecordERKNS_5RangeERKN7openpal6RSliceERNS_12IAPDUHandlerEEUlRSE_jE_E5CountEv, .-_ZNK8opendnp318BufferedCollectionINS_7IndexedINS_7CounterEEEZNS_11RangeParser13InvokeRangeOfINS_11Group20Var2EEEvRKNS_12HeaderRecordERKNS_5RangeERKN7openpal6RSliceERNS_12IAPDUHandlerEEUlRSE_jE_E5CountEv
	.section	.text._ZNK8opendnp318BufferedCollectionINS_7IndexedINS_7CounterEEEZNS_11RangeParser13InvokeRangeOfINS_11Group20Var1EEEvRKNS_12HeaderRecordERKNS_5RangeERKN7openpal6RSliceERNS_12IAPDUHandlerEEUlRSE_jE_E5CountEv,"axG",@progbits,_ZNK8opendnp318BufferedCollectionINS_7IndexedINS_7CounterEEEZNS_11RangeParser13InvokeRangeOfINS_11Group20Var1EEEvRKNS_12HeaderRecordERKNS_5RangeERKN7openpal6RSliceERNS_12IAPDUHandlerEEUlRSE_jE_E5CountEv,comdat
	.align 2
	.p2align 4
	.weak	_ZNK8opendnp318BufferedCollectionINS_7IndexedINS_7CounterEEEZNS_11RangeParser13InvokeRangeOfINS_11Group20Var1EEEvRKNS_12HeaderRecordERKNS_5RangeERKN7openpal6RSliceERNS_12IAPDUHandlerEEUlRSE_jE_E5CountEv
	.type	_ZNK8opendnp318BufferedCollectionINS_7IndexedINS_7CounterEEEZNS_11RangeParser13InvokeRangeOfINS_11Group20Var1EEEvRKNS_12HeaderRecordERKNS_5RangeERKN7openpal6RSliceERNS_12IAPDUHandlerEEUlRSE_jE_E5CountEv, @function
_ZNK8opendnp318BufferedCollectionINS_7IndexedINS_7CounterEEEZNS_11RangeParser13InvokeRangeOfINS_11Group20Var1EEEvRKNS_12HeaderRecordERKNS_5RangeERKN7openpal6RSliceERNS_12IAPDUHandlerEEUlRSE_jE_E5CountEv:
.LFB3578:
	.cfi_startproc
	endbr64
	movq	24(%rdi), %rax
	ret
	.cfi_endproc
.LFE3578:
	.size	_ZNK8opendnp318BufferedCollectionINS_7IndexedINS_7CounterEEEZNS_11RangeParser13InvokeRangeOfINS_11Group20Var1EEEvRKNS_12HeaderRecordERKNS_5RangeERKN7openpal6RSliceERNS_12IAPDUHandlerEEUlRSE_jE_E5CountEv, .-_ZNK8opendnp318BufferedCollectionINS_7IndexedINS_7CounterEEEZNS_11RangeParser13InvokeRangeOfINS_11Group20Var1EEEvRKNS_12HeaderRecordERKNS_5RangeERKN7openpal6RSliceERNS_12IAPDUHandlerEEUlRSE_jE_E5CountEv
	.section	.text._ZNK8opendnp318BufferedCollectionINS_7IndexedINS_18BinaryOutputStatusEEEZNS_11RangeParser13InvokeRangeOfINS_11Group10Var2EEEvRKNS_12HeaderRecordERKNS_5RangeERKN7openpal6RSliceERNS_12IAPDUHandlerEEUlRSE_jE_E5CountEv,"axG",@progbits,_ZNK8opendnp318BufferedCollectionINS_7IndexedINS_18BinaryOutputStatusEEEZNS_11RangeParser13InvokeRangeOfINS_11Group10Var2EEEvRKNS_12HeaderRecordERKNS_5RangeERKN7openpal6RSliceERNS_12IAPDUHandlerEEUlRSE_jE_E5CountEv,comdat
	.align 2
	.p2align 4
	.weak	_ZNK8opendnp318BufferedCollectionINS_7IndexedINS_18BinaryOutputStatusEEEZNS_11RangeParser13InvokeRangeOfINS_11Group10Var2EEEvRKNS_12HeaderRecordERKNS_5RangeERKN7openpal6RSliceERNS_12IAPDUHandlerEEUlRSE_jE_E5CountEv
	.type	_ZNK8opendnp318BufferedCollectionINS_7IndexedINS_18BinaryOutputStatusEEEZNS_11RangeParser13InvokeRangeOfINS_11Group10Var2EEEvRKNS_12HeaderRecordERKNS_5RangeERKN7openpal6RSliceERNS_12IAPDUHandlerEEUlRSE_jE_E5CountEv, @function
_ZNK8opendnp318BufferedCollectionINS_7IndexedINS_18BinaryOutputStatusEEEZNS_11RangeParser13InvokeRangeOfINS_11Group10Var2EEEvRKNS_12HeaderRecordERKNS_5RangeERKN7openpal6RSliceERNS_12IAPDUHandlerEEUlRSE_jE_E5CountEv:
.LFB3580:
	.cfi_startproc
	endbr64
	movq	24(%rdi), %rax
	ret
	.cfi_endproc
.LFE3580:
	.size	_ZNK8opendnp318BufferedCollectionINS_7IndexedINS_18BinaryOutputStatusEEEZNS_11RangeParser13InvokeRangeOfINS_11Group10Var2EEEvRKNS_12HeaderRecordERKNS_5RangeERKN7openpal6RSliceERNS_12IAPDUHandlerEEUlRSE_jE_E5CountEv, .-_ZNK8opendnp318BufferedCollectionINS_7IndexedINS_18BinaryOutputStatusEEEZNS_11RangeParser13InvokeRangeOfINS_11Group10Var2EEEvRKNS_12HeaderRecordERKNS_5RangeERKN7openpal6RSliceERNS_12IAPDUHandlerEEUlRSE_jE_E5CountEv
	.section	.text._ZNK8opendnp318BufferedCollectionINS_7IndexedINS_15DoubleBitBinaryEEEZNS_11RangeParser13InvokeRangeOfINS_10Group3Var2EEEvRKNS_12HeaderRecordERKNS_5RangeERKN7openpal6RSliceERNS_12IAPDUHandlerEEUlRSE_jE_E5CountEv,"axG",@progbits,_ZNK8opendnp318BufferedCollectionINS_7IndexedINS_15DoubleBitBinaryEEEZNS_11RangeParser13InvokeRangeOfINS_10Group3Var2EEEvRKNS_12HeaderRecordERKNS_5RangeERKN7openpal6RSliceERNS_12IAPDUHandlerEEUlRSE_jE_E5CountEv,comdat
	.align 2
	.p2align 4
	.weak	_ZNK8opendnp318BufferedCollectionINS_7IndexedINS_15DoubleBitBinaryEEEZNS_11RangeParser13InvokeRangeOfINS_10Group3Var2EEEvRKNS_12HeaderRecordERKNS_5RangeERKN7openpal6RSliceERNS_12IAPDUHandlerEEUlRSE_jE_E5CountEv
	.type	_ZNK8opendnp318BufferedCollectionINS_7IndexedINS_15DoubleBitBinaryEEEZNS_11RangeParser13InvokeRangeOfINS_10Group3Var2EEEvRKNS_12HeaderRecordERKNS_5RangeERKN7openpal6RSliceERNS_12IAPDUHandlerEEUlRSE_jE_E5CountEv, @function
_ZNK8opendnp318BufferedCollectionINS_7IndexedINS_15DoubleBitBinaryEEEZNS_11RangeParser13InvokeRangeOfINS_10Group3Var2EEEvRKNS_12HeaderRecordERKNS_5RangeERKN7openpal6RSliceERNS_12IAPDUHandlerEEUlRSE_jE_E5CountEv:
.LFB3582:
	.cfi_startproc
	endbr64
	movq	24(%rdi), %rax
	ret
	.cfi_endproc
.LFE3582:
	.size	_ZNK8opendnp318BufferedCollectionINS_7IndexedINS_15DoubleBitBinaryEEEZNS_11RangeParser13InvokeRangeOfINS_10Group3Var2EEEvRKNS_12HeaderRecordERKNS_5RangeERKN7openpal6RSliceERNS_12IAPDUHandlerEEUlRSE_jE_E5CountEv, .-_ZNK8opendnp318BufferedCollectionINS_7IndexedINS_15DoubleBitBinaryEEEZNS_11RangeParser13InvokeRangeOfINS_10Group3Var2EEEvRKNS_12HeaderRecordERKNS_5RangeERKN7openpal6RSliceERNS_12IAPDUHandlerEEUlRSE_jE_E5CountEv
	.section	.text._ZNK8opendnp318BufferedCollectionINS_7IndexedINS_18BinaryOutputStatusEEEZNS_11RangeParser23InvokeRangeBitfieldTypeIS2_EEvRKNS_12HeaderRecordERKNS_5RangeERKN7openpal6RSliceERNS_12IAPDUHandlerEEUlRSD_jE_E5CountEv,"axG",@progbits,_ZNK8opendnp318BufferedCollectionINS_7IndexedINS_18BinaryOutputStatusEEEZNS_11RangeParser23InvokeRangeBitfieldTypeIS2_EEvRKNS_12HeaderRecordERKNS_5RangeERKN7openpal6RSliceERNS_12IAPDUHandlerEEUlRSD_jE_E5CountEv,comdat
	.align 2
	.p2align 4
	.weak	_ZNK8opendnp318BufferedCollectionINS_7IndexedINS_18BinaryOutputStatusEEEZNS_11RangeParser23InvokeRangeBitfieldTypeIS2_EEvRKNS_12HeaderRecordERKNS_5RangeERKN7openpal6RSliceERNS_12IAPDUHandlerEEUlRSD_jE_E5CountEv
	.type	_ZNK8opendnp318BufferedCollectionINS_7IndexedINS_18BinaryOutputStatusEEEZNS_11RangeParser23InvokeRangeBitfieldTypeIS2_EEvRKNS_12HeaderRecordERKNS_5RangeERKN7openpal6RSliceERNS_12IAPDUHandlerEEUlRSD_jE_E5CountEv, @function
_ZNK8opendnp318BufferedCollectionINS_7IndexedINS_18BinaryOutputStatusEEEZNS_11RangeParser23InvokeRangeBitfieldTypeIS2_EEvRKNS_12HeaderRecordERKNS_5RangeERKN7openpal6RSliceERNS_12IAPDUHandlerEEUlRSD_jE_E5CountEv:
.LFB3584:
	.cfi_startproc
	endbr64
	movq	24(%rdi), %rax
	ret
	.cfi_endproc
.LFE3584:
	.size	_ZNK8opendnp318BufferedCollectionINS_7IndexedINS_18BinaryOutputStatusEEEZNS_11RangeParser23InvokeRangeBitfieldTypeIS2_EEvRKNS_12HeaderRecordERKNS_5RangeERKN7openpal6RSliceERNS_12IAPDUHandlerEEUlRSD_jE_E5CountEv, .-_ZNK8opendnp318BufferedCollectionINS_7IndexedINS_18BinaryOutputStatusEEEZNS_11RangeParser23InvokeRangeBitfieldTypeIS2_EEvRKNS_12HeaderRecordERKNS_5RangeERKN7openpal6RSliceERNS_12IAPDUHandlerEEUlRSD_jE_E5CountEv
	.section	.text._ZNK8opendnp318BufferedCollectionINS_7IndexedINS_15DoubleBitBinaryEEEZNS_11RangeParser29InvokeRangeDoubleBitfieldTypeIS2_EEvRKNS_12HeaderRecordERKNS_5RangeERKN7openpal6RSliceERNS_12IAPDUHandlerEEUlRSD_jE_E5CountEv,"axG",@progbits,_ZNK8opendnp318BufferedCollectionINS_7IndexedINS_15DoubleBitBinaryEEEZNS_11RangeParser29InvokeRangeDoubleBitfieldTypeIS2_EEvRKNS_12HeaderRecordERKNS_5RangeERKN7openpal6RSliceERNS_12IAPDUHandlerEEUlRSD_jE_E5CountEv,comdat
	.align 2
	.p2align 4
	.weak	_ZNK8opendnp318BufferedCollectionINS_7IndexedINS_15DoubleBitBinaryEEEZNS_11RangeParser29InvokeRangeDoubleBitfieldTypeIS2_EEvRKNS_12HeaderRecordERKNS_5RangeERKN7openpal6RSliceERNS_12IAPDUHandlerEEUlRSD_jE_E5CountEv
	.type	_ZNK8opendnp318BufferedCollectionINS_7IndexedINS_15DoubleBitBinaryEEEZNS_11RangeParser29InvokeRangeDoubleBitfieldTypeIS2_EEvRKNS_12HeaderRecordERKNS_5RangeERKN7openpal6RSliceERNS_12IAPDUHandlerEEUlRSD_jE_E5CountEv, @function
_ZNK8opendnp318BufferedCollectionINS_7IndexedINS_15DoubleBitBinaryEEEZNS_11RangeParser29InvokeRangeDoubleBitfieldTypeIS2_EEvRKNS_12HeaderRecordERKNS_5RangeERKN7openpal6RSliceERNS_12IAPDUHandlerEEUlRSD_jE_E5CountEv:
.LFB3586:
	.cfi_startproc
	endbr64
	movq	24(%rdi), %rax
	ret
	.cfi_endproc
.LFE3586:
	.size	_ZNK8opendnp318BufferedCollectionINS_7IndexedINS_15DoubleBitBinaryEEEZNS_11RangeParser29InvokeRangeDoubleBitfieldTypeIS2_EEvRKNS_12HeaderRecordERKNS_5RangeERKN7openpal6RSliceERNS_12IAPDUHandlerEEUlRSD_jE_E5CountEv, .-_ZNK8opendnp318BufferedCollectionINS_7IndexedINS_15DoubleBitBinaryEEEZNS_11RangeParser29InvokeRangeDoubleBitfieldTypeIS2_EEvRKNS_12HeaderRecordERKNS_5RangeERKN7openpal6RSliceERNS_12IAPDUHandlerEEUlRSD_jE_E5CountEv
	.section	.text._ZNK8opendnp318BufferedCollectionINS_7IndexedINS_6BinaryEEEZNS_11RangeParser13InvokeRangeOfINS_10Group1Var2EEEvRKNS_12HeaderRecordERKNS_5RangeERKN7openpal6RSliceERNS_12IAPDUHandlerEEUlRSE_jE_E5CountEv,"axG",@progbits,_ZNK8opendnp318BufferedCollectionINS_7IndexedINS_6BinaryEEEZNS_11RangeParser13InvokeRangeOfINS_10Group1Var2EEEvRKNS_12HeaderRecordERKNS_5RangeERKN7openpal6RSliceERNS_12IAPDUHandlerEEUlRSE_jE_E5CountEv,comdat
	.align 2
	.p2align 4
	.weak	_ZNK8opendnp318BufferedCollectionINS_7IndexedINS_6BinaryEEEZNS_11RangeParser13InvokeRangeOfINS_10Group1Var2EEEvRKNS_12HeaderRecordERKNS_5RangeERKN7openpal6RSliceERNS_12IAPDUHandlerEEUlRSE_jE_E5CountEv
	.type	_ZNK8opendnp318BufferedCollectionINS_7IndexedINS_6BinaryEEEZNS_11RangeParser13InvokeRangeOfINS_10Group1Var2EEEvRKNS_12HeaderRecordERKNS_5RangeERKN7openpal6RSliceERNS_12IAPDUHandlerEEUlRSE_jE_E5CountEv, @function
_ZNK8opendnp318BufferedCollectionINS_7IndexedINS_6BinaryEEEZNS_11RangeParser13InvokeRangeOfINS_10Group1Var2EEEvRKNS_12HeaderRecordERKNS_5RangeERKN7openpal6RSliceERNS_12IAPDUHandlerEEUlRSE_jE_E5CountEv:
.LFB3588:
	.cfi_startproc
	endbr64
	movq	24(%rdi), %rax
	ret
	.cfi_endproc
.LFE3588:
	.size	_ZNK8opendnp318BufferedCollectionINS_7IndexedINS_6BinaryEEEZNS_11RangeParser13InvokeRangeOfINS_10Group1Var2EEEvRKNS_12HeaderRecordERKNS_5RangeERKN7openpal6RSliceERNS_12IAPDUHandlerEEUlRSE_jE_E5CountEv, .-_ZNK8opendnp318BufferedCollectionINS_7IndexedINS_6BinaryEEEZNS_11RangeParser13InvokeRangeOfINS_10Group1Var2EEEvRKNS_12HeaderRecordERKNS_5RangeERKN7openpal6RSliceERNS_12IAPDUHandlerEEUlRSE_jE_E5CountEv
	.section	.text._ZNK8opendnp318BufferedCollectionINS_7IndexedINS_6BinaryEEEZNS_11RangeParser23InvokeRangeBitfieldTypeIS2_EEvRKNS_12HeaderRecordERKNS_5RangeERKN7openpal6RSliceERNS_12IAPDUHandlerEEUlRSD_jE_E5CountEv,"axG",@progbits,_ZNK8opendnp318BufferedCollectionINS_7IndexedINS_6BinaryEEEZNS_11RangeParser23InvokeRangeBitfieldTypeIS2_EEvRKNS_12HeaderRecordERKNS_5RangeERKN7openpal6RSliceERNS_12IAPDUHandlerEEUlRSD_jE_E5CountEv,comdat
	.align 2
	.p2align 4
	.weak	_ZNK8opendnp318BufferedCollectionINS_7IndexedINS_6BinaryEEEZNS_11RangeParser23InvokeRangeBitfieldTypeIS2_EEvRKNS_12HeaderRecordERKNS_5RangeERKN7openpal6RSliceERNS_12IAPDUHandlerEEUlRSD_jE_E5CountEv
	.type	_ZNK8opendnp318BufferedCollectionINS_7IndexedINS_6BinaryEEEZNS_11RangeParser23InvokeRangeBitfieldTypeIS2_EEvRKNS_12HeaderRecordERKNS_5RangeERKN7openpal6RSliceERNS_12IAPDUHandlerEEUlRSD_jE_E5CountEv, @function
_ZNK8opendnp318BufferedCollectionINS_7IndexedINS_6BinaryEEEZNS_11RangeParser23InvokeRangeBitfieldTypeIS2_EEvRKNS_12HeaderRecordERKNS_5RangeERKN7openpal6RSliceERNS_12IAPDUHandlerEEUlRSD_jE_E5CountEv:
.LFB3590:
	.cfi_startproc
	endbr64
	movq	24(%rdi), %rax
	ret
	.cfi_endproc
.LFE3590:
	.size	_ZNK8opendnp318BufferedCollectionINS_7IndexedINS_6BinaryEEEZNS_11RangeParser23InvokeRangeBitfieldTypeIS2_EEvRKNS_12HeaderRecordERKNS_5RangeERKN7openpal6RSliceERNS_12IAPDUHandlerEEUlRSD_jE_E5CountEv, .-_ZNK8opendnp318BufferedCollectionINS_7IndexedINS_6BinaryEEEZNS_11RangeParser23InvokeRangeBitfieldTypeIS2_EEvRKNS_12HeaderRecordERKNS_5RangeERKN7openpal6RSliceERNS_12IAPDUHandlerEEUlRSD_jE_E5CountEv
	.text
	.align 2
	.p2align 4
	.type	_ZNK8opendnp318BufferedCollectionINS_7IndexedINS_11OctetStringEEEZNS_11RangeParser21ParseRangeOfOctetDataERN7openpal6RSliceERKNS_12HeaderRecordERKNS_5RangeEPNS5_6LoggerEPNS_12IAPDUHandlerEEUlS7_jE_E5CountEv, @function
_ZNK8opendnp318BufferedCollectionINS_7IndexedINS_11OctetStringEEEZNS_11RangeParser21ParseRangeOfOctetDataERN7openpal6RSliceERKNS_12HeaderRecordERKNS_5RangeEPNS5_6LoggerEPNS_12IAPDUHandlerEEUlS7_jE_E5CountEv:
.LFB3592:
	.cfi_startproc
	endbr64
	movq	24(%rdi), %rax
	ret
	.cfi_endproc
.LFE3592:
	.size	_ZNK8opendnp318BufferedCollectionINS_7IndexedINS_11OctetStringEEEZNS_11RangeParser21ParseRangeOfOctetDataERN7openpal6RSliceERKNS_12HeaderRecordERKNS_5RangeEPNS5_6LoggerEPNS_12IAPDUHandlerEEUlS7_jE_E5CountEv, .-_ZNK8opendnp318BufferedCollectionINS_7IndexedINS_11OctetStringEEEZNS_11RangeParser21ParseRangeOfOctetDataERN7openpal6RSliceERKNS_12HeaderRecordERKNS_5RangeEPNS5_6LoggerEPNS_12IAPDUHandlerEEUlS7_jE_E5CountEv
	.section	.text._ZN8opendnp311RangeParser23InvokeRangeBitfieldTypeINS_6BinaryEEEvRKNS_12HeaderRecordERKNS_5RangeERKN7openpal6RSliceERNS_12IAPDUHandlerE,"axG",@progbits,_ZN8opendnp311RangeParser23InvokeRangeBitfieldTypeINS_6BinaryEEEvRKNS_12HeaderRecordERKNS_5RangeERKN7openpal6RSliceERNS_12IAPDUHandlerE,comdat
	.align 2
	.p2align 4
	.weak	_ZN8opendnp311RangeParser23InvokeRangeBitfieldTypeINS_6BinaryEEEvRKNS_12HeaderRecordERKNS_5RangeERKN7openpal6RSliceERNS_12IAPDUHandlerE
	.type	_ZN8opendnp311RangeParser23InvokeRangeBitfieldTypeINS_6BinaryEEEvRKNS_12HeaderRecordERKNS_5RangeERKN7openpal6RSliceERNS_12IAPDUHandlerE, @function
_ZN8opendnp311RangeParser23InvokeRangeBitfieldTypeINS_6BinaryEEEvRKNS_12HeaderRecordERKNS_5RangeERKN7openpal6RSliceERNS_12IAPDUHandlerE:
.LFB2916:
	.cfi_startproc
	endbr64
	subq	$88, %rsp
	.cfi_def_cfa_offset 96
	movq	%rdi, %r8
	movzwl	(%rsi), %r9d
	movq	%rcx, %rdi
	movq	%fs:40, %rax
	movq	%rax, 72(%rsp)
	xorl	%eax, %eax
	movzwl	2(%rsi), %ecx
	cmpw	%cx, %r9w
	ja	.L34
	movzwl	%cx, %eax
	movzwl	%r9w, %r10d
	addl	$1, %eax
	subl	%r10d, %eax
.L34:
	movl	(%rdx), %r10d
	movq	8(%rdx), %rdx
	movq	%rax, 56(%rsp)
	movq	_ZTVN8opendnp318BufferedCollectionINS_7IndexedINS_6BinaryEEEZNS_11RangeParser23InvokeRangeBitfieldTypeIS2_EEvRKNS_12HeaderRecordERKNS_5RangeERKN7openpal6RSliceERNS_12IAPDUHandlerEEUlRSD_jE_EE@GOTPCREL(%rip), %r11
	movl	(%rsi), %eax
	movq	%rsp, %rsi
	movw	%r9w, 64(%rsp)
	movdqu	(%r8), %xmm0
	movq	%rdx, 48(%rsp)
	leaq	32(%rsp), %rdx
	addq	$16, %r11
	movl	%eax, 16(%rsp)
	movq	%r11, 32(%rsp)
	movl	%r10d, 40(%rsp)
	movw	%cx, 66(%rsp)
	movaps	%xmm0, (%rsp)
	call	_ZN8opendnp312IAPDUHandler8OnHeaderERKNS_11RangeHeaderERKNS_11ICollectionINS_7IndexedINS_6BinaryEEEEE@PLT
	movq	72(%rsp), %rax
	xorq	%fs:40, %rax
	jne	.L38
	addq	$88, %rsp
	.cfi_remember_state
	.cfi_def_cfa_offset 8
	ret
.L38:
	.cfi_restore_state
	call	__stack_chk_fail@PLT
	.cfi_endproc
.LFE2916:
	.size	_ZN8opendnp311RangeParser23InvokeRangeBitfieldTypeINS_6BinaryEEEvRKNS_12HeaderRecordERKNS_5RangeERKN7openpal6RSliceERNS_12IAPDUHandlerE, .-_ZN8opendnp311RangeParser23InvokeRangeBitfieldTypeINS_6BinaryEEEvRKNS_12HeaderRecordERKNS_5RangeERKN7openpal6RSliceERNS_12IAPDUHandlerE
	.section	.text._ZN8opendnp311RangeParser13InvokeRangeOfINS_10Group1Var2EEEvRKNS_12HeaderRecordERKNS_5RangeERKN7openpal6RSliceERNS_12IAPDUHandlerE,"axG",@progbits,_ZN8opendnp311RangeParser13InvokeRangeOfINS_10Group1Var2EEEvRKNS_12HeaderRecordERKNS_5RangeERKN7openpal6RSliceERNS_12IAPDUHandlerE,comdat
	.align 2
	.p2align 4
	.weak	_ZN8opendnp311RangeParser13InvokeRangeOfINS_10Group1Var2EEEvRKNS_12HeaderRecordERKNS_5RangeERKN7openpal6RSliceERNS_12IAPDUHandlerE
	.type	_ZN8opendnp311RangeParser13InvokeRangeOfINS_10Group1Var2EEEvRKNS_12HeaderRecordERKNS_5RangeERKN7openpal6RSliceERNS_12IAPDUHandlerE, @function
_ZN8opendnp311RangeParser13InvokeRangeOfINS_10Group1Var2EEEvRKNS_12HeaderRecordERKNS_5RangeERKN7openpal6RSliceERNS_12IAPDUHandlerE:
.LFB2924:
	.cfi_startproc
	endbr64
	subq	$88, %rsp
	.cfi_def_cfa_offset 96
	movq	%rdi, %r8
	movzwl	(%rsi), %r9d
	movq	%rcx, %rdi
	movq	%fs:40, %rax
	movq	%rax, 72(%rsp)
	xorl	%eax, %eax
	movzwl	2(%rsi), %ecx
	cmpw	%cx, %r9w
	ja	.L40
	movzwl	%cx, %eax
	movzwl	%r9w, %r10d
	addl	$1, %eax
	subl	%r10d, %eax
.L40:
	movl	(%rdx), %r10d
	movq	8(%rdx), %rdx
	movq	%rax, 56(%rsp)
	movq	_ZTVN8opendnp318BufferedCollectionINS_7IndexedINS_6BinaryEEEZNS_11RangeParser13InvokeRangeOfINS_10Group1Var2EEEvRKNS_12HeaderRecordERKNS_5RangeERKN7openpal6RSliceERNS_12IAPDUHandlerEEUlRSE_jE_EE@GOTPCREL(%rip), %r11
	movl	(%rsi), %eax
	movq	%rsp, %rsi
	movw	%r9w, 64(%rsp)
	movdqu	(%r8), %xmm0
	movq	%rdx, 48(%rsp)
	leaq	32(%rsp), %rdx
	addq	$16, %r11
	movl	%eax, 16(%rsp)
	movq	%r11, 32(%rsp)
	movl	%r10d, 40(%rsp)
	movw	%cx, 66(%rsp)
	movaps	%xmm0, (%rsp)
	call	_ZN8opendnp312IAPDUHandler8OnHeaderERKNS_11RangeHeaderERKNS_11ICollectionINS_7IndexedINS_6BinaryEEEEE@PLT
	movq	72(%rsp), %rax
	xorq	%fs:40, %rax
	jne	.L44
	addq	$88, %rsp
	.cfi_remember_state
	.cfi_def_cfa_offset 8
	ret
.L44:
	.cfi_restore_state
	call	__stack_chk_fail@PLT
	.cfi_endproc
.LFE2924:
	.size	_ZN8opendnp311RangeParser13InvokeRangeOfINS_10Group1Var2EEEvRKNS_12HeaderRecordERKNS_5RangeERKN7openpal6RSliceERNS_12IAPDUHandlerE, .-_ZN8opendnp311RangeParser13InvokeRangeOfINS_10Group1Var2EEEvRKNS_12HeaderRecordERKNS_5RangeERKN7openpal6RSliceERNS_12IAPDUHandlerE
	.section	.text._ZNK8opendnp318BufferedCollectionINS_7IndexedINS_8IINValueEEEZNS_11RangeParser23InvokeRangeBitfieldTypeIS2_EEvRKNS_12HeaderRecordERKNS_5RangeERKN7openpal6RSliceERNS_12IAPDUHandlerEEUlRSD_jE_E7ForeachERNS_8IVisitorIS3_EE,"axG",@progbits,_ZNK8opendnp318BufferedCollectionINS_7IndexedINS_8IINValueEEEZNS_11RangeParser23InvokeRangeBitfieldTypeIS2_EEvRKNS_12HeaderRecordERKNS_5RangeERKN7openpal6RSliceERNS_12IAPDUHandlerEEUlRSD_jE_E7ForeachERNS_8IVisitorIS3_EE,comdat
	.align 2
	.p2align 4
	.weak	_ZNK8opendnp318BufferedCollectionINS_7IndexedINS_8IINValueEEEZNS_11RangeParser23InvokeRangeBitfieldTypeIS2_EEvRKNS_12HeaderRecordERKNS_5RangeERKN7openpal6RSliceERNS_12IAPDUHandlerEEUlRSD_jE_E7ForeachERNS_8IVisitorIS3_EE
	.type	_ZNK8opendnp318BufferedCollectionINS_7IndexedINS_8IINValueEEEZNS_11RangeParser23InvokeRangeBitfieldTypeIS2_EEvRKNS_12HeaderRecordERKNS_5RangeERKN7openpal6RSliceERNS_12IAPDUHandlerEEUlRSD_jE_E7ForeachERNS_8IVisitorIS3_EE, @function
_ZNK8opendnp318BufferedCollectionINS_7IndexedINS_8IINValueEEEZNS_11RangeParser23InvokeRangeBitfieldTypeIS2_EEvRKNS_12HeaderRecordERKNS_5RangeERKN7openpal6RSliceERNS_12IAPDUHandlerEEUlRSD_jE_E7ForeachERNS_8IVisitorIS3_EE:
.LFB3537:
	.cfi_startproc
	endbr64
	pushq	%r15
	.cfi_def_cfa_offset 16
	.cfi_offset 15, -16
	pushq	%r14
	.cfi_def_cfa_offset 24
	.cfi_offset 14, -24
	pushq	%r13
	.cfi_def_cfa_offset 32
	.cfi_offset 13, -32
	pushq	%r12
	.cfi_def_cfa_offset 40
	.cfi_offset 12, -40
	pushq	%rbp
	.cfi_def_cfa_offset 48
	.cfi_offset 6, -48
	pushq	%rbx
	.cfi_def_cfa_offset 56
	.cfi_offset 3, -56
	subq	$56, %rsp
	.cfi_def_cfa_offset 112
	movdqu	8(%rdi), %xmm0
	movq	%fs:40, %rax
	movq	%rax, 40(%rsp)
	xorl	%eax, %eax
	cmpq	$0, 24(%rdi)
	movaps	%xmm0, 16(%rsp)
	je	.L45
	movq	%rdi, %rbp
	movq	%rsi, %r12
	leaq	16(%rsp), %r14
	xorl	%ebx, %ebx
	leaq	12(%rsp), %r13
	.p2align 4,,10
	.p2align 3
.L47:
	movq	(%r12), %rax
	movl	%ebx, %esi
	movq	%r14, %rdi
	movq	(%rax), %r15
	call	_ZN8opendnp36GetBitERKN7openpal6RSliceEj@PLT
	movq	%r13, %rsi
	movq	%r12, %rdi
	movl	%eax, %r8d
	movzwl	32(%rbp), %eax
	movb	%r8b, 12(%rsp)
	addl	%ebx, %eax
	movw	%ax, 14(%rsp)
	call	*%r15
	leal	1(%rbx), %eax
	movq	%rax, %rbx
	cmpq	24(%rbp), %rax
	jb	.L47
.L45:
	movq	40(%rsp), %rax
	xorq	%fs:40, %rax
	jne	.L51
	addq	$56, %rsp
	.cfi_remember_state
	.cfi_def_cfa_offset 56
	popq	%rbx
	.cfi_def_cfa_offset 48
	popq	%rbp
	.cfi_def_cfa_offset 40
	popq	%r12
	.cfi_def_cfa_offset 32
	popq	%r13
	.cfi_def_cfa_offset 24
	popq	%r14
	.cfi_def_cfa_offset 16
	popq	%r15
	.cfi_def_cfa_offset 8
	ret
.L51:
	.cfi_restore_state
	call	__stack_chk_fail@PLT
	.cfi_endproc
.LFE3537:
	.size	_ZNK8opendnp318BufferedCollectionINS_7IndexedINS_8IINValueEEEZNS_11RangeParser23InvokeRangeBitfieldTypeIS2_EEvRKNS_12HeaderRecordERKNS_5RangeERKN7openpal6RSliceERNS_12IAPDUHandlerEEUlRSD_jE_E7ForeachERNS_8IVisitorIS3_EE, .-_ZNK8opendnp318BufferedCollectionINS_7IndexedINS_8IINValueEEEZNS_11RangeParser23InvokeRangeBitfieldTypeIS2_EEvRKNS_12HeaderRecordERKNS_5RangeERKN7openpal6RSliceERNS_12IAPDUHandlerEEUlRSD_jE_E7ForeachERNS_8IVisitorIS3_EE
	.section	.text._ZN8opendnp311RangeParser29InvokeRangeDoubleBitfieldTypeINS_15DoubleBitBinaryEEEvRKNS_12HeaderRecordERKNS_5RangeERKN7openpal6RSliceERNS_12IAPDUHandlerE,"axG",@progbits,_ZN8opendnp311RangeParser29InvokeRangeDoubleBitfieldTypeINS_15DoubleBitBinaryEEEvRKNS_12HeaderRecordERKNS_5RangeERKN7openpal6RSliceERNS_12IAPDUHandlerE,comdat
	.align 2
	.p2align 4
	.weak	_ZN8opendnp311RangeParser29InvokeRangeDoubleBitfieldTypeINS_15DoubleBitBinaryEEEvRKNS_12HeaderRecordERKNS_5RangeERKN7openpal6RSliceERNS_12IAPDUHandlerE
	.type	_ZN8opendnp311RangeParser29InvokeRangeDoubleBitfieldTypeINS_15DoubleBitBinaryEEEvRKNS_12HeaderRecordERKNS_5RangeERKN7openpal6RSliceERNS_12IAPDUHandlerE, @function
_ZN8opendnp311RangeParser29InvokeRangeDoubleBitfieldTypeINS_15DoubleBitBinaryEEEvRKNS_12HeaderRecordERKNS_5RangeERKN7openpal6RSliceERNS_12IAPDUHandlerE:
.LFB2929:
	.cfi_startproc
	endbr64
	subq	$88, %rsp
	.cfi_def_cfa_offset 96
	movq	%rdi, %r8
	movzwl	(%rsi), %r9d
	movq	%rcx, %rdi
	movq	%fs:40, %rax
	movq	%rax, 72(%rsp)
	xorl	%eax, %eax
	movzwl	2(%rsi), %ecx
	cmpw	%cx, %r9w
	ja	.L53
	movzwl	%cx, %eax
	movzwl	%r9w, %r10d
	addl	$1, %eax
	subl	%r10d, %eax
.L53:
	movl	(%rdx), %r10d
	movq	8(%rdx), %rdx
	movq	%rax, 56(%rsp)
	movq	_ZTVN8opendnp318BufferedCollectionINS_7IndexedINS_15DoubleBitBinaryEEEZNS_11RangeParser29InvokeRangeDoubleBitfieldTypeIS2_EEvRKNS_12HeaderRecordERKNS_5RangeERKN7openpal6RSliceERNS_12IAPDUHandlerEEUlRSD_jE_EE@GOTPCREL(%rip), %r11
	movl	(%rsi), %eax
	movq	%rsp, %rsi
	movw	%r9w, 64(%rsp)
	movdqu	(%r8), %xmm0
	movq	%rdx, 48(%rsp)
	leaq	32(%rsp), %rdx
	addq	$16, %r11
	movl	%eax, 16(%rsp)
	movq	%r11, 32(%rsp)
	movl	%r10d, 40(%rsp)
	movw	%cx, 66(%rsp)
	movaps	%xmm0, (%rsp)
	call	_ZN8opendnp312IAPDUHandler8OnHeaderERKNS_11RangeHeaderERKNS_11ICollectionINS_7IndexedINS_15DoubleBitBinaryEEEEE@PLT
	movq	72(%rsp), %rax
	xorq	%fs:40, %rax
	jne	.L57
	addq	$88, %rsp
	.cfi_remember_state
	.cfi_def_cfa_offset 8
	ret
.L57:
	.cfi_restore_state
	call	__stack_chk_fail@PLT
	.cfi_endproc
.LFE2929:
	.size	_ZN8opendnp311RangeParser29InvokeRangeDoubleBitfieldTypeINS_15DoubleBitBinaryEEEvRKNS_12HeaderRecordERKNS_5RangeERKN7openpal6RSliceERNS_12IAPDUHandlerE, .-_ZN8opendnp311RangeParser29InvokeRangeDoubleBitfieldTypeINS_15DoubleBitBinaryEEEvRKNS_12HeaderRecordERKNS_5RangeERKN7openpal6RSliceERNS_12IAPDUHandlerE
	.section	.text._ZN8opendnp311RangeParser13InvokeRangeOfINS_10Group3Var2EEEvRKNS_12HeaderRecordERKNS_5RangeERKN7openpal6RSliceERNS_12IAPDUHandlerE,"axG",@progbits,_ZN8opendnp311RangeParser13InvokeRangeOfINS_10Group3Var2EEEvRKNS_12HeaderRecordERKNS_5RangeERKN7openpal6RSliceERNS_12IAPDUHandlerE,comdat
	.align 2
	.p2align 4
	.weak	_ZN8opendnp311RangeParser13InvokeRangeOfINS_10Group3Var2EEEvRKNS_12HeaderRecordERKNS_5RangeERKN7openpal6RSliceERNS_12IAPDUHandlerE
	.type	_ZN8opendnp311RangeParser13InvokeRangeOfINS_10Group3Var2EEEvRKNS_12HeaderRecordERKNS_5RangeERKN7openpal6RSliceERNS_12IAPDUHandlerE, @function
_ZN8opendnp311RangeParser13InvokeRangeOfINS_10Group3Var2EEEvRKNS_12HeaderRecordERKNS_5RangeERKN7openpal6RSliceERNS_12IAPDUHandlerE:
.LFB2945:
	.cfi_startproc
	endbr64
	subq	$88, %rsp
	.cfi_def_cfa_offset 96
	movq	%rdi, %r8
	movzwl	(%rsi), %r9d
	movq	%rcx, %rdi
	movq	%fs:40, %rax
	movq	%rax, 72(%rsp)
	xorl	%eax, %eax
	movzwl	2(%rsi), %ecx
	cmpw	%cx, %r9w
	ja	.L59
	movzwl	%cx, %eax
	movzwl	%r9w, %r10d
	addl	$1, %eax
	subl	%r10d, %eax
.L59:
	movl	(%rdx), %r10d
	movq	8(%rdx), %rdx
	movq	%rax, 56(%rsp)
	movq	_ZTVN8opendnp318BufferedCollectionINS_7IndexedINS_15DoubleBitBinaryEEEZNS_11RangeParser13InvokeRangeOfINS_10Group3Var2EEEvRKNS_12HeaderRecordERKNS_5RangeERKN7openpal6RSliceERNS_12IAPDUHandlerEEUlRSE_jE_EE@GOTPCREL(%rip), %r11
	movl	(%rsi), %eax
	movq	%rsp, %rsi
	movw	%r9w, 64(%rsp)
	movdqu	(%r8), %xmm0
	movq	%rdx, 48(%rsp)
	leaq	32(%rsp), %rdx
	addq	$16, %r11
	movl	%eax, 16(%rsp)
	movq	%r11, 32(%rsp)
	movl	%r10d, 40(%rsp)
	movw	%cx, 66(%rsp)
	movaps	%xmm0, (%rsp)
	call	_ZN8opendnp312IAPDUHandler8OnHeaderERKNS_11RangeHeaderERKNS_11ICollectionINS_7IndexedINS_15DoubleBitBinaryEEEEE@PLT
	movq	72(%rsp), %rax
	xorq	%fs:40, %rax
	jne	.L63
	addq	$88, %rsp
	.cfi_remember_state
	.cfi_def_cfa_offset 8
	ret
.L63:
	.cfi_restore_state
	call	__stack_chk_fail@PLT
	.cfi_endproc
.LFE2945:
	.size	_ZN8opendnp311RangeParser13InvokeRangeOfINS_10Group3Var2EEEvRKNS_12HeaderRecordERKNS_5RangeERKN7openpal6RSliceERNS_12IAPDUHandlerE, .-_ZN8opendnp311RangeParser13InvokeRangeOfINS_10Group3Var2EEEvRKNS_12HeaderRecordERKNS_5RangeERKN7openpal6RSliceERNS_12IAPDUHandlerE
	.section	.text._ZN8opendnp311RangeParser23InvokeRangeBitfieldTypeINS_18BinaryOutputStatusEEEvRKNS_12HeaderRecordERKNS_5RangeERKN7openpal6RSliceERNS_12IAPDUHandlerE,"axG",@progbits,_ZN8opendnp311RangeParser23InvokeRangeBitfieldTypeINS_18BinaryOutputStatusEEEvRKNS_12HeaderRecordERKNS_5RangeERKN7openpal6RSliceERNS_12IAPDUHandlerE,comdat
	.align 2
	.p2align 4
	.weak	_ZN8opendnp311RangeParser23InvokeRangeBitfieldTypeINS_18BinaryOutputStatusEEEvRKNS_12HeaderRecordERKNS_5RangeERKN7openpal6RSliceERNS_12IAPDUHandlerE
	.type	_ZN8opendnp311RangeParser23InvokeRangeBitfieldTypeINS_18BinaryOutputStatusEEEvRKNS_12HeaderRecordERKNS_5RangeERKN7openpal6RSliceERNS_12IAPDUHandlerE, @function
_ZN8opendnp311RangeParser23InvokeRangeBitfieldTypeINS_18BinaryOutputStatusEEEvRKNS_12HeaderRecordERKNS_5RangeERKN7openpal6RSliceERNS_12IAPDUHandlerE:
.LFB2937:
	.cfi_startproc
	endbr64
	subq	$88, %rsp
	.cfi_def_cfa_offset 96
	movq	%rdi, %r8
	movzwl	(%rsi), %r9d
	movq	%rcx, %rdi
	movq	%fs:40, %rax
	movq	%rax, 72(%rsp)
	xorl	%eax, %eax
	movzwl	2(%rsi), %ecx
	cmpw	%cx, %r9w
	ja	.L65
	movzwl	%cx, %eax
	movzwl	%r9w, %r10d
	addl	$1, %eax
	subl	%r10d, %eax
.L65:
	movl	(%rdx), %r10d
	movq	8(%rdx), %rdx
	movq	%rax, 56(%rsp)
	movq	_ZTVN8opendnp318BufferedCollectionINS_7IndexedINS_18BinaryOutputStatusEEEZNS_11RangeParser23InvokeRangeBitfieldTypeIS2_EEvRKNS_12HeaderRecordERKNS_5RangeERKN7openpal6RSliceERNS_12IAPDUHandlerEEUlRSD_jE_EE@GOTPCREL(%rip), %r11
	movl	(%rsi), %eax
	movq	%rsp, %rsi
	movw	%r9w, 64(%rsp)
	movdqu	(%r8), %xmm0
	movq	%rdx, 48(%rsp)
	leaq	32(%rsp), %rdx
	addq	$16, %r11
	movl	%eax, 16(%rsp)
	movq	%r11, 32(%rsp)
	movl	%r10d, 40(%rsp)
	movw	%cx, 66(%rsp)
	movaps	%xmm0, (%rsp)
	call	_ZN8opendnp312IAPDUHandler8OnHeaderERKNS_11RangeHeaderERKNS_11ICollectionINS_7IndexedINS_18BinaryOutputStatusEEEEE@PLT
	movq	72(%rsp), %rax
	xorq	%fs:40, %rax
	jne	.L69
	addq	$88, %rsp
	.cfi_remember_state
	.cfi_def_cfa_offset 8
	ret
.L69:
	.cfi_restore_state
	call	__stack_chk_fail@PLT
	.cfi_endproc
.LFE2937:
	.size	_ZN8opendnp311RangeParser23InvokeRangeBitfieldTypeINS_18BinaryOutputStatusEEEvRKNS_12HeaderRecordERKNS_5RangeERKN7openpal6RSliceERNS_12IAPDUHandlerE, .-_ZN8opendnp311RangeParser23InvokeRangeBitfieldTypeINS_18BinaryOutputStatusEEEvRKNS_12HeaderRecordERKNS_5RangeERKN7openpal6RSliceERNS_12IAPDUHandlerE
	.section	.text._ZN8opendnp311RangeParser13InvokeRangeOfINS_11Group10Var2EEEvRKNS_12HeaderRecordERKNS_5RangeERKN7openpal6RSliceERNS_12IAPDUHandlerE,"axG",@progbits,_ZN8opendnp311RangeParser13InvokeRangeOfINS_11Group10Var2EEEvRKNS_12HeaderRecordERKNS_5RangeERKN7openpal6RSliceERNS_12IAPDUHandlerE,comdat
	.align 2
	.p2align 4
	.weak	_ZN8opendnp311RangeParser13InvokeRangeOfINS_11Group10Var2EEEvRKNS_12HeaderRecordERKNS_5RangeERKN7openpal6RSliceERNS_12IAPDUHandlerE
	.type	_ZN8opendnp311RangeParser13InvokeRangeOfINS_11Group10Var2EEEvRKNS_12HeaderRecordERKNS_5RangeERKN7openpal6RSliceERNS_12IAPDUHandlerE, @function
_ZN8opendnp311RangeParser13InvokeRangeOfINS_11Group10Var2EEEvRKNS_12HeaderRecordERKNS_5RangeERKN7openpal6RSliceERNS_12IAPDUHandlerE:
.LFB2950:
	.cfi_startproc
	endbr64
	subq	$88, %rsp
	.cfi_def_cfa_offset 96
	movq	%rdi, %r8
	movzwl	(%rsi), %r9d
	movq	%rcx, %rdi
	movq	%fs:40, %rax
	movq	%rax, 72(%rsp)
	xorl	%eax, %eax
	movzwl	2(%rsi), %ecx
	cmpw	%cx, %r9w
	ja	.L71
	movzwl	%cx, %eax
	movzwl	%r9w, %r10d
	addl	$1, %eax
	subl	%r10d, %eax
.L71:
	movl	(%rdx), %r10d
	movq	8(%rdx), %rdx
	movq	%rax, 56(%rsp)
	movq	_ZTVN8opendnp318BufferedCollectionINS_7IndexedINS_18BinaryOutputStatusEEEZNS_11RangeParser13InvokeRangeOfINS_11Group10Var2EEEvRKNS_12HeaderRecordERKNS_5RangeERKN7openpal6RSliceERNS_12IAPDUHandlerEEUlRSE_jE_EE@GOTPCREL(%rip), %r11
	movl	(%rsi), %eax
	movq	%rsp, %rsi
	movw	%r9w, 64(%rsp)
	movdqu	(%r8), %xmm0
	movq	%rdx, 48(%rsp)
	leaq	32(%rsp), %rdx
	addq	$16, %r11
	movl	%eax, 16(%rsp)
	movq	%r11, 32(%rsp)
	movl	%r10d, 40(%rsp)
	movw	%cx, 66(%rsp)
	movaps	%xmm0, (%rsp)
	call	_ZN8opendnp312IAPDUHandler8OnHeaderERKNS_11RangeHeaderERKNS_11ICollectionINS_7IndexedINS_18BinaryOutputStatusEEEEE@PLT
	movq	72(%rsp), %rax
	xorq	%fs:40, %rax
	jne	.L75
	addq	$88, %rsp
	.cfi_remember_state
	.cfi_def_cfa_offset 8
	ret
.L75:
	.cfi_restore_state
	call	__stack_chk_fail@PLT
	.cfi_endproc
.LFE2950:
	.size	_ZN8opendnp311RangeParser13InvokeRangeOfINS_11Group10Var2EEEvRKNS_12HeaderRecordERKNS_5RangeERKN7openpal6RSliceERNS_12IAPDUHandlerE, .-_ZN8opendnp311RangeParser13InvokeRangeOfINS_11Group10Var2EEEvRKNS_12HeaderRecordERKNS_5RangeERKN7openpal6RSliceERNS_12IAPDUHandlerE
	.section	.text._ZN8opendnp311RangeParser13InvokeRangeOfINS_11Group20Var1EEEvRKNS_12HeaderRecordERKNS_5RangeERKN7openpal6RSliceERNS_12IAPDUHandlerE,"axG",@progbits,_ZN8opendnp311RangeParser13InvokeRangeOfINS_11Group20Var1EEEvRKNS_12HeaderRecordERKNS_5RangeERKN7openpal6RSliceERNS_12IAPDUHandlerE,comdat
	.align 2
	.p2align 4
	.weak	_ZN8opendnp311RangeParser13InvokeRangeOfINS_11Group20Var1EEEvRKNS_12HeaderRecordERKNS_5RangeERKN7openpal6RSliceERNS_12IAPDUHandlerE
	.type	_ZN8opendnp311RangeParser13InvokeRangeOfINS_11Group20Var1EEEvRKNS_12HeaderRecordERKNS_5RangeERKN7openpal6RSliceERNS_12IAPDUHandlerE, @function
_ZN8opendnp311RangeParser13InvokeRangeOfINS_11Group20Var1EEEvRKNS_12HeaderRecordERKNS_5RangeERKN7openpal6RSliceERNS_12IAPDUHandlerE:
.LFB2955:
	.cfi_startproc
	endbr64
	subq	$88, %rsp
	.cfi_def_cfa_offset 96
	movq	%rdi, %r8
	movzwl	(%rsi), %r9d
	movq	%rcx, %rdi
	movq	%fs:40, %rax
	movq	%rax, 72(%rsp)
	xorl	%eax, %eax
	movzwl	2(%rsi), %ecx
	cmpw	%cx, %r9w
	ja	.L77
	movzwl	%cx, %eax
	movzwl	%r9w, %r10d
	addl	$1, %eax
	subl	%r10d, %eax
.L77:
	movl	(%rdx), %r10d
	movq	8(%rdx), %rdx
	movq	%rax, 56(%rsp)
	movq	_ZTVN8opendnp318BufferedCollectionINS_7IndexedINS_7CounterEEEZNS_11RangeParser13InvokeRangeOfINS_11Group20Var1EEEvRKNS_12HeaderRecordERKNS_5RangeERKN7openpal6RSliceERNS_12IAPDUHandlerEEUlRSE_jE_EE@GOTPCREL(%rip), %r11
	movl	(%rsi), %eax
	movq	%rsp, %rsi
	movw	%r9w, 64(%rsp)
	movdqu	(%r8), %xmm0
	movq	%rdx, 48(%rsp)
	leaq	32(%rsp), %rdx
	addq	$16, %r11
	movl	%eax, 16(%rsp)
	movq	%r11, 32(%rsp)
	movl	%r10d, 40(%rsp)
	movw	%cx, 66(%rsp)
	movaps	%xmm0, (%rsp)
	call	_ZN8opendnp312IAPDUHandler8OnHeaderERKNS_11RangeHeaderERKNS_11ICollectionINS_7IndexedINS_7CounterEEEEE@PLT
	movq	72(%rsp), %rax
	xorq	%fs:40, %rax
	jne	.L81
	addq	$88, %rsp
	.cfi_remember_state
	.cfi_def_cfa_offset 8
	ret
.L81:
	.cfi_restore_state
	call	__stack_chk_fail@PLT
	.cfi_endproc
.LFE2955:
	.size	_ZN8opendnp311RangeParser13InvokeRangeOfINS_11Group20Var1EEEvRKNS_12HeaderRecordERKNS_5RangeERKN7openpal6RSliceERNS_12IAPDUHandlerE, .-_ZN8opendnp311RangeParser13InvokeRangeOfINS_11Group20Var1EEEvRKNS_12HeaderRecordERKNS_5RangeERKN7openpal6RSliceERNS_12IAPDUHandlerE
	.section	.text._ZN8opendnp311RangeParser13InvokeRangeOfINS_11Group20Var2EEEvRKNS_12HeaderRecordERKNS_5RangeERKN7openpal6RSliceERNS_12IAPDUHandlerE,"axG",@progbits,_ZN8opendnp311RangeParser13InvokeRangeOfINS_11Group20Var2EEEvRKNS_12HeaderRecordERKNS_5RangeERKN7openpal6RSliceERNS_12IAPDUHandlerE,comdat
	.align 2
	.p2align 4
	.weak	_ZN8opendnp311RangeParser13InvokeRangeOfINS_11Group20Var2EEEvRKNS_12HeaderRecordERKNS_5RangeERKN7openpal6RSliceERNS_12IAPDUHandlerE
	.type	_ZN8opendnp311RangeParser13InvokeRangeOfINS_11Group20Var2EEEvRKNS_12HeaderRecordERKNS_5RangeERKN7openpal6RSliceERNS_12IAPDUHandlerE, @function
_ZN8opendnp311RangeParser13InvokeRangeOfINS_11Group20Var2EEEvRKNS_12HeaderRecordERKNS_5RangeERKN7openpal6RSliceERNS_12IAPDUHandlerE:
.LFB2963:
	.cfi_startproc
	endbr64
	subq	$88, %rsp
	.cfi_def_cfa_offset 96
	movq	%rdi, %r8
	movzwl	(%rsi), %r9d
	movq	%rcx, %rdi
	movq	%fs:40, %rax
	movq	%rax, 72(%rsp)
	xorl	%eax, %eax
	movzwl	2(%rsi), %ecx
	cmpw	%cx, %r9w
	ja	.L83
	movzwl	%cx, %eax
	movzwl	%r9w, %r10d
	addl	$1, %eax
	subl	%r10d, %eax
.L83:
	movl	(%rdx), %r10d
	movq	8(%rdx), %rdx
	movq	%rax, 56(%rsp)
	movq	_ZTVN8opendnp318BufferedCollectionINS_7IndexedINS_7CounterEEEZNS_11RangeParser13InvokeRangeOfINS_11Group20Var2EEEvRKNS_12HeaderRecordERKNS_5RangeERKN7openpal6RSliceERNS_12IAPDUHandlerEEUlRSE_jE_EE@GOTPCREL(%rip), %r11
	movl	(%rsi), %eax
	movq	%rsp, %rsi
	movw	%r9w, 64(%rsp)
	movdqu	(%r8), %xmm0
	movq	%rdx, 48(%rsp)
	leaq	32(%rsp), %rdx
	addq	$16, %r11
	movl	%eax, 16(%rsp)
	movq	%r11, 32(%rsp)
	movl	%r10d, 40(%rsp)
	movw	%cx, 66(%rsp)
	movaps	%xmm0, (%rsp)
	call	_ZN8opendnp312IAPDUHandler8OnHeaderERKNS_11RangeHeaderERKNS_11ICollectionINS_7IndexedINS_7CounterEEEEE@PLT
	movq	72(%rsp), %rax
	xorq	%fs:40, %rax
	jne	.L87
	addq	$88, %rsp
	.cfi_remember_state
	.cfi_def_cfa_offset 8
	ret
.L87:
	.cfi_restore_state
	call	__stack_chk_fail@PLT
	.cfi_endproc
.LFE2963:
	.size	_ZN8opendnp311RangeParser13InvokeRangeOfINS_11Group20Var2EEEvRKNS_12HeaderRecordERKNS_5RangeERKN7openpal6RSliceERNS_12IAPDUHandlerE, .-_ZN8opendnp311RangeParser13InvokeRangeOfINS_11Group20Var2EEEvRKNS_12HeaderRecordERKNS_5RangeERKN7openpal6RSliceERNS_12IAPDUHandlerE
	.section	.text._ZN8opendnp311RangeParser13InvokeRangeOfINS_11Group20Var5EEEvRKNS_12HeaderRecordERKNS_5RangeERKN7openpal6RSliceERNS_12IAPDUHandlerE,"axG",@progbits,_ZN8opendnp311RangeParser13InvokeRangeOfINS_11Group20Var5EEEvRKNS_12HeaderRecordERKNS_5RangeERKN7openpal6RSliceERNS_12IAPDUHandlerE,comdat
	.align 2
	.p2align 4
	.weak	_ZN8opendnp311RangeParser13InvokeRangeOfINS_11Group20Var5EEEvRKNS_12HeaderRecordERKNS_5RangeERKN7openpal6RSliceERNS_12IAPDUHandlerE
	.type	_ZN8opendnp311RangeParser13InvokeRangeOfINS_11Group20Var5EEEvRKNS_12HeaderRecordERKNS_5RangeERKN7openpal6RSliceERNS_12IAPDUHandlerE, @function
_ZN8opendnp311RangeParser13InvokeRangeOfINS_11Group20Var5EEEvRKNS_12HeaderRecordERKNS_5RangeERKN7openpal6RSliceERNS_12IAPDUHandlerE:
.LFB2968:
	.cfi_startproc
	endbr64
	subq	$88, %rsp
	.cfi_def_cfa_offset 96
	movq	%rdi, %r8
	movzwl	(%rsi), %r9d
	movq	%rcx, %rdi
	movq	%fs:40, %rax
	movq	%rax, 72(%rsp)
	xorl	%eax, %eax
	movzwl	2(%rsi), %ecx
	cmpw	%cx, %r9w
	ja	.L89
	movzwl	%cx, %eax
	movzwl	%r9w, %r10d
	addl	$1, %eax
	subl	%r10d, %eax
.L89:
	movl	(%rdx), %r10d
	movq	8(%rdx), %rdx
	movq	%rax, 56(%rsp)
	movq	_ZTVN8opendnp318BufferedCollectionINS_7IndexedINS_7CounterEEEZNS_11RangeParser13InvokeRangeOfINS_11Group20Var5EEEvRKNS_12HeaderRecordERKNS_5RangeERKN7openpal6RSliceERNS_12IAPDUHandlerEEUlRSE_jE_EE@GOTPCREL(%rip), %r11
	movl	(%rsi), %eax
	movq	%rsp, %rsi
	movw	%r9w, 64(%rsp)
	movdqu	(%r8), %xmm0
	movq	%rdx, 48(%rsp)
	leaq	32(%rsp), %rdx
	addq	$16, %r11
	movl	%eax, 16(%rsp)
	movq	%r11, 32(%rsp)
	movl	%r10d, 40(%rsp)
	movw	%cx, 66(%rsp)
	movaps	%xmm0, (%rsp)
	call	_ZN8opendnp312IAPDUHandler8OnHeaderERKNS_11RangeHeaderERKNS_11ICollectionINS_7IndexedINS_7CounterEEEEE@PLT
	movq	72(%rsp), %rax
	xorq	%fs:40, %rax
	jne	.L93
	addq	$88, %rsp
	.cfi_remember_state
	.cfi_def_cfa_offset 8
	ret
.L93:
	.cfi_restore_state
	call	__stack_chk_fail@PLT
	.cfi_endproc
.LFE2968:
	.size	_ZN8opendnp311RangeParser13InvokeRangeOfINS_11Group20Var5EEEvRKNS_12HeaderRecordERKNS_5RangeERKN7openpal6RSliceERNS_12IAPDUHandlerE, .-_ZN8opendnp311RangeParser13InvokeRangeOfINS_11Group20Var5EEEvRKNS_12HeaderRecordERKNS_5RangeERKN7openpal6RSliceERNS_12IAPDUHandlerE
	.section	.text._ZN8opendnp311RangeParser13InvokeRangeOfINS_11Group20Var6EEEvRKNS_12HeaderRecordERKNS_5RangeERKN7openpal6RSliceERNS_12IAPDUHandlerE,"axG",@progbits,_ZN8opendnp311RangeParser13InvokeRangeOfINS_11Group20Var6EEEvRKNS_12HeaderRecordERKNS_5RangeERKN7openpal6RSliceERNS_12IAPDUHandlerE,comdat
	.align 2
	.p2align 4
	.weak	_ZN8opendnp311RangeParser13InvokeRangeOfINS_11Group20Var6EEEvRKNS_12HeaderRecordERKNS_5RangeERKN7openpal6RSliceERNS_12IAPDUHandlerE
	.type	_ZN8opendnp311RangeParser13InvokeRangeOfINS_11Group20Var6EEEvRKNS_12HeaderRecordERKNS_5RangeERKN7openpal6RSliceERNS_12IAPDUHandlerE, @function
_ZN8opendnp311RangeParser13InvokeRangeOfINS_11Group20Var6EEEvRKNS_12HeaderRecordERKNS_5RangeERKN7openpal6RSliceERNS_12IAPDUHandlerE:
.LFB2973:
	.cfi_startproc
	endbr64
	subq	$88, %rsp
	.cfi_def_cfa_offset 96
	movq	%rdi, %r8
	movzwl	(%rsi), %r9d
	movq	%rcx, %rdi
	movq	%fs:40, %rax
	movq	%rax, 72(%rsp)
	xorl	%eax, %eax
	movzwl	2(%rsi), %ecx
	cmpw	%cx, %r9w
	ja	.L95
	movzwl	%cx, %eax
	movzwl	%r9w, %r10d
	addl	$1, %eax
	subl	%r10d, %eax
.L95:
	movl	(%rdx), %r10d
	movq	8(%rdx), %rdx
	movq	%rax, 56(%rsp)
	movq	_ZTVN8opendnp318BufferedCollectionINS_7IndexedINS_7CounterEEEZNS_11RangeParser13InvokeRangeOfINS_11Group20Var6EEEvRKNS_12HeaderRecordERKNS_5RangeERKN7openpal6RSliceERNS_12IAPDUHandlerEEUlRSE_jE_EE@GOTPCREL(%rip), %r11
	movl	(%rsi), %eax
	movq	%rsp, %rsi
	movw	%r9w, 64(%rsp)
	movdqu	(%r8), %xmm0
	movq	%rdx, 48(%rsp)
	leaq	32(%rsp), %rdx
	addq	$16, %r11
	movl	%eax, 16(%rsp)
	movq	%r11, 32(%rsp)
	movl	%r10d, 40(%rsp)
	movw	%cx, 66(%rsp)
	movaps	%xmm0, (%rsp)
	call	_ZN8opendnp312IAPDUHandler8OnHeaderERKNS_11RangeHeaderERKNS_11ICollectionINS_7IndexedINS_7CounterEEEEE@PLT
	movq	72(%rsp), %rax
	xorq	%fs:40, %rax
	jne	.L99
	addq	$88, %rsp
	.cfi_remember_state
	.cfi_def_cfa_offset 8
	ret
.L99:
	.cfi_restore_state
	call	__stack_chk_fail@PLT
	.cfi_endproc
.LFE2973:
	.size	_ZN8opendnp311RangeParser13InvokeRangeOfINS_11Group20Var6EEEvRKNS_12HeaderRecordERKNS_5RangeERKN7openpal6RSliceERNS_12IAPDUHandlerE, .-_ZN8opendnp311RangeParser13InvokeRangeOfINS_11Group20Var6EEEvRKNS_12HeaderRecordERKNS_5RangeERKN7openpal6RSliceERNS_12IAPDUHandlerE
	.section	.text._ZN8opendnp311RangeParser13InvokeRangeOfINS_11Group21Var1EEEvRKNS_12HeaderRecordERKNS_5RangeERKN7openpal6RSliceERNS_12IAPDUHandlerE,"axG",@progbits,_ZN8opendnp311RangeParser13InvokeRangeOfINS_11Group21Var1EEEvRKNS_12HeaderRecordERKNS_5RangeERKN7openpal6RSliceERNS_12IAPDUHandlerE,comdat
	.align 2
	.p2align 4
	.weak	_ZN8opendnp311RangeParser13InvokeRangeOfINS_11Group21Var1EEEvRKNS_12HeaderRecordERKNS_5RangeERKN7openpal6RSliceERNS_12IAPDUHandlerE
	.type	_ZN8opendnp311RangeParser13InvokeRangeOfINS_11Group21Var1EEEvRKNS_12HeaderRecordERKNS_5RangeERKN7openpal6RSliceERNS_12IAPDUHandlerE, @function
_ZN8opendnp311RangeParser13InvokeRangeOfINS_11Group21Var1EEEvRKNS_12HeaderRecordERKNS_5RangeERKN7openpal6RSliceERNS_12IAPDUHandlerE:
.LFB2978:
	.cfi_startproc
	endbr64
	subq	$88, %rsp
	.cfi_def_cfa_offset 96
	movq	%rdi, %r8
	movzwl	(%rsi), %r9d
	movq	%rcx, %rdi
	movq	%fs:40, %rax
	movq	%rax, 72(%rsp)
	xorl	%eax, %eax
	movzwl	2(%rsi), %ecx
	cmpw	%cx, %r9w
	ja	.L101
	movzwl	%cx, %eax
	movzwl	%r9w, %r10d
	addl	$1, %eax
	subl	%r10d, %eax
.L101:
	movl	(%rdx), %r10d
	movq	8(%rdx), %rdx
	movq	%rax, 56(%rsp)
	movq	_ZTVN8opendnp318BufferedCollectionINS_7IndexedINS_13FrozenCounterEEEZNS_11RangeParser13InvokeRangeOfINS_11Group21Var1EEEvRKNS_12HeaderRecordERKNS_5RangeERKN7openpal6RSliceERNS_12IAPDUHandlerEEUlRSE_jE_EE@GOTPCREL(%rip), %r11
	movl	(%rsi), %eax
	movq	%rsp, %rsi
	movw	%r9w, 64(%rsp)
	movdqu	(%r8), %xmm0
	movq	%rdx, 48(%rsp)
	leaq	32(%rsp), %rdx
	addq	$16, %r11
	movl	%eax, 16(%rsp)
	movq	%r11, 32(%rsp)
	movl	%r10d, 40(%rsp)
	movw	%cx, 66(%rsp)
	movaps	%xmm0, (%rsp)
	call	_ZN8opendnp312IAPDUHandler8OnHeaderERKNS_11RangeHeaderERKNS_11ICollectionINS_7IndexedINS_13FrozenCounterEEEEE@PLT
	movq	72(%rsp), %rax
	xorq	%fs:40, %rax
	jne	.L105
	addq	$88, %rsp
	.cfi_remember_state
	.cfi_def_cfa_offset 8
	ret
.L105:
	.cfi_restore_state
	call	__stack_chk_fail@PLT
	.cfi_endproc
.LFE2978:
	.size	_ZN8opendnp311RangeParser13InvokeRangeOfINS_11Group21Var1EEEvRKNS_12HeaderRecordERKNS_5RangeERKN7openpal6RSliceERNS_12IAPDUHandlerE, .-_ZN8opendnp311RangeParser13InvokeRangeOfINS_11Group21Var1EEEvRKNS_12HeaderRecordERKNS_5RangeERKN7openpal6RSliceERNS_12IAPDUHandlerE
	.section	.text._ZN8opendnp311RangeParser13InvokeRangeOfINS_11Group21Var2EEEvRKNS_12HeaderRecordERKNS_5RangeERKN7openpal6RSliceERNS_12IAPDUHandlerE,"axG",@progbits,_ZN8opendnp311RangeParser13InvokeRangeOfINS_11Group21Var2EEEvRKNS_12HeaderRecordERKNS_5RangeERKN7openpal6RSliceERNS_12IAPDUHandlerE,comdat
	.align 2
	.p2align 4
	.weak	_ZN8opendnp311RangeParser13InvokeRangeOfINS_11Group21Var2EEEvRKNS_12HeaderRecordERKNS_5RangeERKN7openpal6RSliceERNS_12IAPDUHandlerE
	.type	_ZN8opendnp311RangeParser13InvokeRangeOfINS_11Group21Var2EEEvRKNS_12HeaderRecordERKNS_5RangeERKN7openpal6RSliceERNS_12IAPDUHandlerE, @function
_ZN8opendnp311RangeParser13InvokeRangeOfINS_11Group21Var2EEEvRKNS_12HeaderRecordERKNS_5RangeERKN7openpal6RSliceERNS_12IAPDUHandlerE:
.LFB2986:
	.cfi_startproc
	endbr64
	subq	$88, %rsp
	.cfi_def_cfa_offset 96
	movq	%rdi, %r8
	movzwl	(%rsi), %r9d
	movq	%rcx, %rdi
	movq	%fs:40, %rax
	movq	%rax, 72(%rsp)
	xorl	%eax, %eax
	movzwl	2(%rsi), %ecx
	cmpw	%cx, %r9w
	ja	.L107
	movzwl	%cx, %eax
	movzwl	%r9w, %r10d
	addl	$1, %eax
	subl	%r10d, %eax
.L107:
	movl	(%rdx), %r10d
	movq	8(%rdx), %rdx
	movq	%rax, 56(%rsp)
	movq	_ZTVN8opendnp318BufferedCollectionINS_7IndexedINS_13FrozenCounterEEEZNS_11RangeParser13InvokeRangeOfINS_11Group21Var2EEEvRKNS_12HeaderRecordERKNS_5RangeERKN7openpal6RSliceERNS_12IAPDUHandlerEEUlRSE_jE_EE@GOTPCREL(%rip), %r11
	movl	(%rsi), %eax
	movq	%rsp, %rsi
	movw	%r9w, 64(%rsp)
	movdqu	(%r8), %xmm0
	movq	%rdx, 48(%rsp)
	leaq	32(%rsp), %rdx
	addq	$16, %r11
	movl	%eax, 16(%rsp)
	movq	%r11, 32(%rsp)
	movl	%r10d, 40(%rsp)
	movw	%cx, 66(%rsp)
	movaps	%xmm0, (%rsp)
	call	_ZN8opendnp312IAPDUHandler8OnHeaderERKNS_11RangeHeaderERKNS_11ICollectionINS_7IndexedINS_13FrozenCounterEEEEE@PLT
	movq	72(%rsp), %rax
	xorq	%fs:40, %rax
	jne	.L111
	addq	$88, %rsp
	.cfi_remember_state
	.cfi_def_cfa_offset 8
	ret
.L111:
	.cfi_restore_state
	call	__stack_chk_fail@PLT
	.cfi_endproc
.LFE2986:
	.size	_ZN8opendnp311RangeParser13InvokeRangeOfINS_11Group21Var2EEEvRKNS_12HeaderRecordERKNS_5RangeERKN7openpal6RSliceERNS_12IAPDUHandlerE, .-_ZN8opendnp311RangeParser13InvokeRangeOfINS_11Group21Var2EEEvRKNS_12HeaderRecordERKNS_5RangeERKN7openpal6RSliceERNS_12IAPDUHandlerE
	.section	.text._ZN8opendnp311RangeParser13InvokeRangeOfINS_11Group21Var5EEEvRKNS_12HeaderRecordERKNS_5RangeERKN7openpal6RSliceERNS_12IAPDUHandlerE,"axG",@progbits,_ZN8opendnp311RangeParser13InvokeRangeOfINS_11Group21Var5EEEvRKNS_12HeaderRecordERKNS_5RangeERKN7openpal6RSliceERNS_12IAPDUHandlerE,comdat
	.align 2
	.p2align 4
	.weak	_ZN8opendnp311RangeParser13InvokeRangeOfINS_11Group21Var5EEEvRKNS_12HeaderRecordERKNS_5RangeERKN7openpal6RSliceERNS_12IAPDUHandlerE
	.type	_ZN8opendnp311RangeParser13InvokeRangeOfINS_11Group21Var5EEEvRKNS_12HeaderRecordERKNS_5RangeERKN7openpal6RSliceERNS_12IAPDUHandlerE, @function
_ZN8opendnp311RangeParser13InvokeRangeOfINS_11Group21Var5EEEvRKNS_12HeaderRecordERKNS_5RangeERKN7openpal6RSliceERNS_12IAPDUHandlerE:
.LFB2991:
	.cfi_startproc
	endbr64
	subq	$88, %rsp
	.cfi_def_cfa_offset 96
	movq	%rdi, %r8
	movzwl	(%rsi), %r9d
	movq	%rcx, %rdi
	movq	%fs:40, %rax
	movq	%rax, 72(%rsp)
	xorl	%eax, %eax
	movzwl	2(%rsi), %ecx
	cmpw	%cx, %r9w
	ja	.L113
	movzwl	%cx, %eax
	movzwl	%r9w, %r10d
	addl	$1, %eax
	subl	%r10d, %eax
.L113:
	movl	(%rdx), %r10d
	movq	8(%rdx), %rdx
	movq	%rax, 56(%rsp)
	movq	_ZTVN8opendnp318BufferedCollectionINS_7IndexedINS_13FrozenCounterEEEZNS_11RangeParser13InvokeRangeOfINS_11Group21Var5EEEvRKNS_12HeaderRecordERKNS_5RangeERKN7openpal6RSliceERNS_12IAPDUHandlerEEUlRSE_jE_EE@GOTPCREL(%rip), %r11
	movl	(%rsi), %eax
	movq	%rsp, %rsi
	movw	%r9w, 64(%rsp)
	movdqu	(%r8), %xmm0
	movq	%rdx, 48(%rsp)
	leaq	32(%rsp), %rdx
	addq	$16, %r11
	movl	%eax, 16(%rsp)
	movq	%r11, 32(%rsp)
	movl	%r10d, 40(%rsp)
	movw	%cx, 66(%rsp)
	movaps	%xmm0, (%rsp)
	call	_ZN8opendnp312IAPDUHandler8OnHeaderERKNS_11RangeHeaderERKNS_11ICollectionINS_7IndexedINS_13FrozenCounterEEEEE@PLT
	movq	72(%rsp), %rax
	xorq	%fs:40, %rax
	jne	.L117
	addq	$88, %rsp
	.cfi_remember_state
	.cfi_def_cfa_offset 8
	ret
.L117:
	.cfi_restore_state
	call	__stack_chk_fail@PLT
	.cfi_endproc
.LFE2991:
	.size	_ZN8opendnp311RangeParser13InvokeRangeOfINS_11Group21Var5EEEvRKNS_12HeaderRecordERKNS_5RangeERKN7openpal6RSliceERNS_12IAPDUHandlerE, .-_ZN8opendnp311RangeParser13InvokeRangeOfINS_11Group21Var5EEEvRKNS_12HeaderRecordERKNS_5RangeERKN7openpal6RSliceERNS_12IAPDUHandlerE
	.section	.text._ZN8opendnp311RangeParser13InvokeRangeOfINS_11Group21Var6EEEvRKNS_12HeaderRecordERKNS_5RangeERKN7openpal6RSliceERNS_12IAPDUHandlerE,"axG",@progbits,_ZN8opendnp311RangeParser13InvokeRangeOfINS_11Group21Var6EEEvRKNS_12HeaderRecordERKNS_5RangeERKN7openpal6RSliceERNS_12IAPDUHandlerE,comdat
	.align 2
	.p2align 4
	.weak	_ZN8opendnp311RangeParser13InvokeRangeOfINS_11Group21Var6EEEvRKNS_12HeaderRecordERKNS_5RangeERKN7openpal6RSliceERNS_12IAPDUHandlerE
	.type	_ZN8opendnp311RangeParser13InvokeRangeOfINS_11Group21Var6EEEvRKNS_12HeaderRecordERKNS_5RangeERKN7openpal6RSliceERNS_12IAPDUHandlerE, @function
_ZN8opendnp311RangeParser13InvokeRangeOfINS_11Group21Var6EEEvRKNS_12HeaderRecordERKNS_5RangeERKN7openpal6RSliceERNS_12IAPDUHandlerE:
.LFB2996:
	.cfi_startproc
	endbr64
	subq	$88, %rsp
	.cfi_def_cfa_offset 96
	movq	%rdi, %r8
	movzwl	(%rsi), %r9d
	movq	%rcx, %rdi
	movq	%fs:40, %rax
	movq	%rax, 72(%rsp)
	xorl	%eax, %eax
	movzwl	2(%rsi), %ecx
	cmpw	%cx, %r9w
	ja	.L119
	movzwl	%cx, %eax
	movzwl	%r9w, %r10d
	addl	$1, %eax
	subl	%r10d, %eax
.L119:
	movl	(%rdx), %r10d
	movq	8(%rdx), %rdx
	movq	%rax, 56(%rsp)
	movq	_ZTVN8opendnp318BufferedCollectionINS_7IndexedINS_13FrozenCounterEEEZNS_11RangeParser13InvokeRangeOfINS_11Group21Var6EEEvRKNS_12HeaderRecordERKNS_5RangeERKN7openpal6RSliceERNS_12IAPDUHandlerEEUlRSE_jE_EE@GOTPCREL(%rip), %r11
	movl	(%rsi), %eax
	movq	%rsp, %rsi
	movw	%r9w, 64(%rsp)
	movdqu	(%r8), %xmm0
	movq	%rdx, 48(%rsp)
	leaq	32(%rsp), %rdx
	addq	$16, %r11
	movl	%eax, 16(%rsp)
	movq	%r11, 32(%rsp)
	movl	%r10d, 40(%rsp)
	movw	%cx, 66(%rsp)
	movaps	%xmm0, (%rsp)
	call	_ZN8opendnp312IAPDUHandler8OnHeaderERKNS_11RangeHeaderERKNS_11ICollectionINS_7IndexedINS_13FrozenCounterEEEEE@PLT
	movq	72(%rsp), %rax
	xorq	%fs:40, %rax
	jne	.L123
	addq	$88, %rsp
	.cfi_remember_state
	.cfi_def_cfa_offset 8
	ret
.L123:
	.cfi_restore_state
	call	__stack_chk_fail@PLT
	.cfi_endproc
.LFE2996:
	.size	_ZN8opendnp311RangeParser13InvokeRangeOfINS_11Group21Var6EEEvRKNS_12HeaderRecordERKNS_5RangeERKN7openpal6RSliceERNS_12IAPDUHandlerE, .-_ZN8opendnp311RangeParser13InvokeRangeOfINS_11Group21Var6EEEvRKNS_12HeaderRecordERKNS_5RangeERKN7openpal6RSliceERNS_12IAPDUHandlerE
	.section	.text._ZN8opendnp311RangeParser13InvokeRangeOfINS_11Group21Var9EEEvRKNS_12HeaderRecordERKNS_5RangeERKN7openpal6RSliceERNS_12IAPDUHandlerE,"axG",@progbits,_ZN8opendnp311RangeParser13InvokeRangeOfINS_11Group21Var9EEEvRKNS_12HeaderRecordERKNS_5RangeERKN7openpal6RSliceERNS_12IAPDUHandlerE,comdat
	.align 2
	.p2align 4
	.weak	_ZN8opendnp311RangeParser13InvokeRangeOfINS_11Group21Var9EEEvRKNS_12HeaderRecordERKNS_5RangeERKN7openpal6RSliceERNS_12IAPDUHandlerE
	.type	_ZN8opendnp311RangeParser13InvokeRangeOfINS_11Group21Var9EEEvRKNS_12HeaderRecordERKNS_5RangeERKN7openpal6RSliceERNS_12IAPDUHandlerE, @function
_ZN8opendnp311RangeParser13InvokeRangeOfINS_11Group21Var9EEEvRKNS_12HeaderRecordERKNS_5RangeERKN7openpal6RSliceERNS_12IAPDUHandlerE:
.LFB3001:
	.cfi_startproc
	endbr64
	subq	$88, %rsp
	.cfi_def_cfa_offset 96
	movq	%rdi, %r8
	movzwl	(%rsi), %r9d
	movq	%rcx, %rdi
	movq	%fs:40, %rax
	movq	%rax, 72(%rsp)
	xorl	%eax, %eax
	movzwl	2(%rsi), %ecx
	cmpw	%cx, %r9w
	ja	.L125
	movzwl	%cx, %eax
	movzwl	%r9w, %r10d
	addl	$1, %eax
	subl	%r10d, %eax
.L125:
	movl	(%rdx), %r10d
	movq	8(%rdx), %rdx
	movq	%rax, 56(%rsp)
	movq	_ZTVN8opendnp318BufferedCollectionINS_7IndexedINS_13FrozenCounterEEEZNS_11RangeParser13InvokeRangeOfINS_11Group21Var9EEEvRKNS_12HeaderRecordERKNS_5RangeERKN7openpal6RSliceERNS_12IAPDUHandlerEEUlRSE_jE_EE@GOTPCREL(%rip), %r11
	movl	(%rsi), %eax
	movq	%rsp, %rsi
	movw	%r9w, 64(%rsp)
	movdqu	(%r8), %xmm0
	movq	%rdx, 48(%rsp)
	leaq	32(%rsp), %rdx
	addq	$16, %r11
	movl	%eax, 16(%rsp)
	movq	%r11, 32(%rsp)
	movl	%r10d, 40(%rsp)
	movw	%cx, 66(%rsp)
	movaps	%xmm0, (%rsp)
	call	_ZN8opendnp312IAPDUHandler8OnHeaderERKNS_11RangeHeaderERKNS_11ICollectionINS_7IndexedINS_13FrozenCounterEEEEE@PLT
	movq	72(%rsp), %rax
	xorq	%fs:40, %rax
	jne	.L129
	addq	$88, %rsp
	.cfi_remember_state
	.cfi_def_cfa_offset 8
	ret
.L129:
	.cfi_restore_state
	call	__stack_chk_fail@PLT
	.cfi_endproc
.LFE3001:
	.size	_ZN8opendnp311RangeParser13InvokeRangeOfINS_11Group21Var9EEEvRKNS_12HeaderRecordERKNS_5RangeERKN7openpal6RSliceERNS_12IAPDUHandlerE, .-_ZN8opendnp311RangeParser13InvokeRangeOfINS_11Group21Var9EEEvRKNS_12HeaderRecordERKNS_5RangeERKN7openpal6RSliceERNS_12IAPDUHandlerE
	.section	.text._ZN8opendnp311RangeParser13InvokeRangeOfINS_12Group21Var10EEEvRKNS_12HeaderRecordERKNS_5RangeERKN7openpal6RSliceERNS_12IAPDUHandlerE,"axG",@progbits,_ZN8opendnp311RangeParser13InvokeRangeOfINS_12Group21Var10EEEvRKNS_12HeaderRecordERKNS_5RangeERKN7openpal6RSliceERNS_12IAPDUHandlerE,comdat
	.align 2
	.p2align 4
	.weak	_ZN8opendnp311RangeParser13InvokeRangeOfINS_12Group21Var10EEEvRKNS_12HeaderRecordERKNS_5RangeERKN7openpal6RSliceERNS_12IAPDUHandlerE
	.type	_ZN8opendnp311RangeParser13InvokeRangeOfINS_12Group21Var10EEEvRKNS_12HeaderRecordERKNS_5RangeERKN7openpal6RSliceERNS_12IAPDUHandlerE, @function
_ZN8opendnp311RangeParser13InvokeRangeOfINS_12Group21Var10EEEvRKNS_12HeaderRecordERKNS_5RangeERKN7openpal6RSliceERNS_12IAPDUHandlerE:
.LFB3006:
	.cfi_startproc
	endbr64
	subq	$88, %rsp
	.cfi_def_cfa_offset 96
	movq	%rdi, %r8
	movzwl	(%rsi), %r9d
	movq	%rcx, %rdi
	movq	%fs:40, %rax
	movq	%rax, 72(%rsp)
	xorl	%eax, %eax
	movzwl	2(%rsi), %ecx
	cmpw	%cx, %r9w
	ja	.L131
	movzwl	%cx, %eax
	movzwl	%r9w, %r10d
	addl	$1, %eax
	subl	%r10d, %eax
.L131:
	movl	(%rdx), %r10d
	movq	8(%rdx), %rdx
	movq	%rax, 56(%rsp)
	movq	_ZTVN8opendnp318BufferedCollectionINS_7IndexedINS_13FrozenCounterEEEZNS_11RangeParser13InvokeRangeOfINS_12Group21Var10EEEvRKNS_12HeaderRecordERKNS_5RangeERKN7openpal6RSliceERNS_12IAPDUHandlerEEUlRSE_jE_EE@GOTPCREL(%rip), %r11
	movl	(%rsi), %eax
	movq	%rsp, %rsi
	movw	%r9w, 64(%rsp)
	movdqu	(%r8), %xmm0
	movq	%rdx, 48(%rsp)
	leaq	32(%rsp), %rdx
	addq	$16, %r11
	movl	%eax, 16(%rsp)
	movq	%r11, 32(%rsp)
	movl	%r10d, 40(%rsp)
	movw	%cx, 66(%rsp)
	movaps	%xmm0, (%rsp)
	call	_ZN8opendnp312IAPDUHandler8OnHeaderERKNS_11RangeHeaderERKNS_11ICollectionINS_7IndexedINS_13FrozenCounterEEEEE@PLT
	movq	72(%rsp), %rax
	xorq	%fs:40, %rax
	jne	.L135
	addq	$88, %rsp
	.cfi_remember_state
	.cfi_def_cfa_offset 8
	ret
.L135:
	.cfi_restore_state
	call	__stack_chk_fail@PLT
	.cfi_endproc
.LFE3006:
	.size	_ZN8opendnp311RangeParser13InvokeRangeOfINS_12Group21Var10EEEvRKNS_12HeaderRecordERKNS_5RangeERKN7openpal6RSliceERNS_12IAPDUHandlerE, .-_ZN8opendnp311RangeParser13InvokeRangeOfINS_12Group21Var10EEEvRKNS_12HeaderRecordERKNS_5RangeERKN7openpal6RSliceERNS_12IAPDUHandlerE
	.section	.text._ZN8opendnp311RangeParser13InvokeRangeOfINS_11Group30Var1EEEvRKNS_12HeaderRecordERKNS_5RangeERKN7openpal6RSliceERNS_12IAPDUHandlerE,"axG",@progbits,_ZN8opendnp311RangeParser13InvokeRangeOfINS_11Group30Var1EEEvRKNS_12HeaderRecordERKNS_5RangeERKN7openpal6RSliceERNS_12IAPDUHandlerE,comdat
	.align 2
	.p2align 4
	.weak	_ZN8opendnp311RangeParser13InvokeRangeOfINS_11Group30Var1EEEvRKNS_12HeaderRecordERKNS_5RangeERKN7openpal6RSliceERNS_12IAPDUHandlerE
	.type	_ZN8opendnp311RangeParser13InvokeRangeOfINS_11Group30Var1EEEvRKNS_12HeaderRecordERKNS_5RangeERKN7openpal6RSliceERNS_12IAPDUHandlerE, @function
_ZN8opendnp311RangeParser13InvokeRangeOfINS_11Group30Var1EEEvRKNS_12HeaderRecordERKNS_5RangeERKN7openpal6RSliceERNS_12IAPDUHandlerE:
.LFB3011:
	.cfi_startproc
	endbr64
	subq	$88, %rsp
	.cfi_def_cfa_offset 96
	movq	%rdi, %r8
	movzwl	(%rsi), %r9d
	movq	%rcx, %rdi
	movq	%fs:40, %rax
	movq	%rax, 72(%rsp)
	xorl	%eax, %eax
	movzwl	2(%rsi), %ecx
	cmpw	%cx, %r9w
	ja	.L137
	movzwl	%cx, %eax
	movzwl	%r9w, %r10d
	addl	$1, %eax
	subl	%r10d, %eax
.L137:
	movl	(%rdx), %r10d
	movq	8(%rdx), %rdx
	movq	%rax, 56(%rsp)
	movq	_ZTVN8opendnp318BufferedCollectionINS_7IndexedINS_6AnalogEEEZNS_11RangeParser13InvokeRangeOfINS_11Group30Var1EEEvRKNS_12HeaderRecordERKNS_5RangeERKN7openpal6RSliceERNS_12IAPDUHandlerEEUlRSE_jE_EE@GOTPCREL(%rip), %r11
	movl	(%rsi), %eax
	movq	%rsp, %rsi
	movw	%r9w, 64(%rsp)
	movdqu	(%r8), %xmm0
	movq	%rdx, 48(%rsp)
	leaq	32(%rsp), %rdx
	addq	$16, %r11
	movl	%eax, 16(%rsp)
	movq	%r11, 32(%rsp)
	movl	%r10d, 40(%rsp)
	movw	%cx, 66(%rsp)
	movaps	%xmm0, (%rsp)
	call	_ZN8opendnp312IAPDUHandler8OnHeaderERKNS_11RangeHeaderERKNS_11ICollectionINS_7IndexedINS_6AnalogEEEEE@PLT
	movq	72(%rsp), %rax
	xorq	%fs:40, %rax
	jne	.L141
	addq	$88, %rsp
	.cfi_remember_state
	.cfi_def_cfa_offset 8
	ret
.L141:
	.cfi_restore_state
	call	__stack_chk_fail@PLT
	.cfi_endproc
.LFE3011:
	.size	_ZN8opendnp311RangeParser13InvokeRangeOfINS_11Group30Var1EEEvRKNS_12HeaderRecordERKNS_5RangeERKN7openpal6RSliceERNS_12IAPDUHandlerE, .-_ZN8opendnp311RangeParser13InvokeRangeOfINS_11Group30Var1EEEvRKNS_12HeaderRecordERKNS_5RangeERKN7openpal6RSliceERNS_12IAPDUHandlerE
	.section	.text._ZN8opendnp311RangeParser13InvokeRangeOfINS_11Group30Var2EEEvRKNS_12HeaderRecordERKNS_5RangeERKN7openpal6RSliceERNS_12IAPDUHandlerE,"axG",@progbits,_ZN8opendnp311RangeParser13InvokeRangeOfINS_11Group30Var2EEEvRKNS_12HeaderRecordERKNS_5RangeERKN7openpal6RSliceERNS_12IAPDUHandlerE,comdat
	.align 2
	.p2align 4
	.weak	_ZN8opendnp311RangeParser13InvokeRangeOfINS_11Group30Var2EEEvRKNS_12HeaderRecordERKNS_5RangeERKN7openpal6RSliceERNS_12IAPDUHandlerE
	.type	_ZN8opendnp311RangeParser13InvokeRangeOfINS_11Group30Var2EEEvRKNS_12HeaderRecordERKNS_5RangeERKN7openpal6RSliceERNS_12IAPDUHandlerE, @function
_ZN8opendnp311RangeParser13InvokeRangeOfINS_11Group30Var2EEEvRKNS_12HeaderRecordERKNS_5RangeERKN7openpal6RSliceERNS_12IAPDUHandlerE:
.LFB3019:
	.cfi_startproc
	endbr64
	subq	$88, %rsp
	.cfi_def_cfa_offset 96
	movq	%rdi, %r8
	movzwl	(%rsi), %r9d
	movq	%rcx, %rdi
	movq	%fs:40, %rax
	movq	%rax, 72(%rsp)
	xorl	%eax, %eax
	movzwl	2(%rsi), %ecx
	cmpw	%cx, %r9w
	ja	.L143
	movzwl	%cx, %eax
	movzwl	%r9w, %r10d
	addl	$1, %eax
	subl	%r10d, %eax
.L143:
	movl	(%rdx), %r10d
	movq	8(%rdx), %rdx
	movq	%rax, 56(%rsp)
	movq	_ZTVN8opendnp318BufferedCollectionINS_7IndexedINS_6AnalogEEEZNS_11RangeParser13InvokeRangeOfINS_11Group30Var2EEEvRKNS_12HeaderRecordERKNS_5RangeERKN7openpal6RSliceERNS_12IAPDUHandlerEEUlRSE_jE_EE@GOTPCREL(%rip), %r11
	movl	(%rsi), %eax
	movq	%rsp, %rsi
	movw	%r9w, 64(%rsp)
	movdqu	(%r8), %xmm0
	movq	%rdx, 48(%rsp)
	leaq	32(%rsp), %rdx
	addq	$16, %r11
	movl	%eax, 16(%rsp)
	movq	%r11, 32(%rsp)
	movl	%r10d, 40(%rsp)
	movw	%cx, 66(%rsp)
	movaps	%xmm0, (%rsp)
	call	_ZN8opendnp312IAPDUHandler8OnHeaderERKNS_11RangeHeaderERKNS_11ICollectionINS_7IndexedINS_6AnalogEEEEE@PLT
	movq	72(%rsp), %rax
	xorq	%fs:40, %rax
	jne	.L147
	addq	$88, %rsp
	.cfi_remember_state
	.cfi_def_cfa_offset 8
	ret
.L147:
	.cfi_restore_state
	call	__stack_chk_fail@PLT
	.cfi_endproc
.LFE3019:
	.size	_ZN8opendnp311RangeParser13InvokeRangeOfINS_11Group30Var2EEEvRKNS_12HeaderRecordERKNS_5RangeERKN7openpal6RSliceERNS_12IAPDUHandlerE, .-_ZN8opendnp311RangeParser13InvokeRangeOfINS_11Group30Var2EEEvRKNS_12HeaderRecordERKNS_5RangeERKN7openpal6RSliceERNS_12IAPDUHandlerE
	.section	.text._ZN8opendnp311RangeParser13InvokeRangeOfINS_11Group30Var3EEEvRKNS_12HeaderRecordERKNS_5RangeERKN7openpal6RSliceERNS_12IAPDUHandlerE,"axG",@progbits,_ZN8opendnp311RangeParser13InvokeRangeOfINS_11Group30Var3EEEvRKNS_12HeaderRecordERKNS_5RangeERKN7openpal6RSliceERNS_12IAPDUHandlerE,comdat
	.align 2
	.p2align 4
	.weak	_ZN8opendnp311RangeParser13InvokeRangeOfINS_11Group30Var3EEEvRKNS_12HeaderRecordERKNS_5RangeERKN7openpal6RSliceERNS_12IAPDUHandlerE
	.type	_ZN8opendnp311RangeParser13InvokeRangeOfINS_11Group30Var3EEEvRKNS_12HeaderRecordERKNS_5RangeERKN7openpal6RSliceERNS_12IAPDUHandlerE, @function
_ZN8opendnp311RangeParser13InvokeRangeOfINS_11Group30Var3EEEvRKNS_12HeaderRecordERKNS_5RangeERKN7openpal6RSliceERNS_12IAPDUHandlerE:
.LFB3024:
	.cfi_startproc
	endbr64
	subq	$88, %rsp
	.cfi_def_cfa_offset 96
	movq	%rdi, %r8
	movzwl	(%rsi), %r9d
	movq	%rcx, %rdi
	movq	%fs:40, %rax
	movq	%rax, 72(%rsp)
	xorl	%eax, %eax
	movzwl	2(%rsi), %ecx
	cmpw	%cx, %r9w
	ja	.L149
	movzwl	%cx, %eax
	movzwl	%r9w, %r10d
	addl	$1, %eax
	subl	%r10d, %eax
.L149:
	movl	(%rdx), %r10d
	movq	8(%rdx), %rdx
	movq	%rax, 56(%rsp)
	movq	_ZTVN8opendnp318BufferedCollectionINS_7IndexedINS_6AnalogEEEZNS_11RangeParser13InvokeRangeOfINS_11Group30Var3EEEvRKNS_12HeaderRecordERKNS_5RangeERKN7openpal6RSliceERNS_12IAPDUHandlerEEUlRSE_jE_EE@GOTPCREL(%rip), %r11
	movl	(%rsi), %eax
	movq	%rsp, %rsi
	movw	%r9w, 64(%rsp)
	movdqu	(%r8), %xmm0
	movq	%rdx, 48(%rsp)
	leaq	32(%rsp), %rdx
	addq	$16, %r11
	movl	%eax, 16(%rsp)
	movq	%r11, 32(%rsp)
	movl	%r10d, 40(%rsp)
	movw	%cx, 66(%rsp)
	movaps	%xmm0, (%rsp)
	call	_ZN8opendnp312IAPDUHandler8OnHeaderERKNS_11RangeHeaderERKNS_11ICollectionINS_7IndexedINS_6AnalogEEEEE@PLT
	movq	72(%rsp), %rax
	xorq	%fs:40, %rax
	jne	.L153
	addq	$88, %rsp
	.cfi_remember_state
	.cfi_def_cfa_offset 8
	ret
.L153:
	.cfi_restore_state
	call	__stack_chk_fail@PLT
	.cfi_endproc
.LFE3024:
	.size	_ZN8opendnp311RangeParser13InvokeRangeOfINS_11Group30Var3EEEvRKNS_12HeaderRecordERKNS_5RangeERKN7openpal6RSliceERNS_12IAPDUHandlerE, .-_ZN8opendnp311RangeParser13InvokeRangeOfINS_11Group30Var3EEEvRKNS_12HeaderRecordERKNS_5RangeERKN7openpal6RSliceERNS_12IAPDUHandlerE
	.section	.text._ZN8opendnp311RangeParser13InvokeRangeOfINS_11Group30Var4EEEvRKNS_12HeaderRecordERKNS_5RangeERKN7openpal6RSliceERNS_12IAPDUHandlerE,"axG",@progbits,_ZN8opendnp311RangeParser13InvokeRangeOfINS_11Group30Var4EEEvRKNS_12HeaderRecordERKNS_5RangeERKN7openpal6RSliceERNS_12IAPDUHandlerE,comdat
	.align 2
	.p2align 4
	.weak	_ZN8opendnp311RangeParser13InvokeRangeOfINS_11Group30Var4EEEvRKNS_12HeaderRecordERKNS_5RangeERKN7openpal6RSliceERNS_12IAPDUHandlerE
	.type	_ZN8opendnp311RangeParser13InvokeRangeOfINS_11Group30Var4EEEvRKNS_12HeaderRecordERKNS_5RangeERKN7openpal6RSliceERNS_12IAPDUHandlerE, @function
_ZN8opendnp311RangeParser13InvokeRangeOfINS_11Group30Var4EEEvRKNS_12HeaderRecordERKNS_5RangeERKN7openpal6RSliceERNS_12IAPDUHandlerE:
.LFB3029:
	.cfi_startproc
	endbr64
	subq	$88, %rsp
	.cfi_def_cfa_offset 96
	movq	%rdi, %r8
	movzwl	(%rsi), %r9d
	movq	%rcx, %rdi
	movq	%fs:40, %rax
	movq	%rax, 72(%rsp)
	xorl	%eax, %eax
	movzwl	2(%rsi), %ecx
	cmpw	%cx, %r9w
	ja	.L155
	movzwl	%cx, %eax
	movzwl	%r9w, %r10d
	addl	$1, %eax
	subl	%r10d, %eax
.L155:
	movl	(%rdx), %r10d
	movq	8(%rdx), %rdx
	movq	%rax, 56(%rsp)
	movq	_ZTVN8opendnp318BufferedCollectionINS_7IndexedINS_6AnalogEEEZNS_11RangeParser13InvokeRangeOfINS_11Group30Var4EEEvRKNS_12HeaderRecordERKNS_5RangeERKN7openpal6RSliceERNS_12IAPDUHandlerEEUlRSE_jE_EE@GOTPCREL(%rip), %r11
	movl	(%rsi), %eax
	movq	%rsp, %rsi
	movw	%r9w, 64(%rsp)
	movdqu	(%r8), %xmm0
	movq	%rdx, 48(%rsp)
	leaq	32(%rsp), %rdx
	addq	$16, %r11
	movl	%eax, 16(%rsp)
	movq	%r11, 32(%rsp)
	movl	%r10d, 40(%rsp)
	movw	%cx, 66(%rsp)
	movaps	%xmm0, (%rsp)
	call	_ZN8opendnp312IAPDUHandler8OnHeaderERKNS_11RangeHeaderERKNS_11ICollectionINS_7IndexedINS_6AnalogEEEEE@PLT
	movq	72(%rsp), %rax
	xorq	%fs:40, %rax
	jne	.L159
	addq	$88, %rsp
	.cfi_remember_state
	.cfi_def_cfa_offset 8
	ret
.L159:
	.cfi_restore_state
	call	__stack_chk_fail@PLT
	.cfi_endproc
.LFE3029:
	.size	_ZN8opendnp311RangeParser13InvokeRangeOfINS_11Group30Var4EEEvRKNS_12HeaderRecordERKNS_5RangeERKN7openpal6RSliceERNS_12IAPDUHandlerE, .-_ZN8opendnp311RangeParser13InvokeRangeOfINS_11Group30Var4EEEvRKNS_12HeaderRecordERKNS_5RangeERKN7openpal6RSliceERNS_12IAPDUHandlerE
	.section	.text._ZN8opendnp311RangeParser13InvokeRangeOfINS_11Group30Var5EEEvRKNS_12HeaderRecordERKNS_5RangeERKN7openpal6RSliceERNS_12IAPDUHandlerE,"axG",@progbits,_ZN8opendnp311RangeParser13InvokeRangeOfINS_11Group30Var5EEEvRKNS_12HeaderRecordERKNS_5RangeERKN7openpal6RSliceERNS_12IAPDUHandlerE,comdat
	.align 2
	.p2align 4
	.weak	_ZN8opendnp311RangeParser13InvokeRangeOfINS_11Group30Var5EEEvRKNS_12HeaderRecordERKNS_5RangeERKN7openpal6RSliceERNS_12IAPDUHandlerE
	.type	_ZN8opendnp311RangeParser13InvokeRangeOfINS_11Group30Var5EEEvRKNS_12HeaderRecordERKNS_5RangeERKN7openpal6RSliceERNS_12IAPDUHandlerE, @function
_ZN8opendnp311RangeParser13InvokeRangeOfINS_11Group30Var5EEEvRKNS_12HeaderRecordERKNS_5RangeERKN7openpal6RSliceERNS_12IAPDUHandlerE:
.LFB3034:
	.cfi_startproc
	endbr64
	subq	$88, %rsp
	.cfi_def_cfa_offset 96
	movq	%rdi, %r8
	movzwl	(%rsi), %r9d
	movq	%rcx, %rdi
	movq	%fs:40, %rax
	movq	%rax, 72(%rsp)
	xorl	%eax, %eax
	movzwl	2(%rsi), %ecx
	cmpw	%cx, %r9w
	ja	.L161
	movzwl	%cx, %eax
	movzwl	%r9w, %r10d
	addl	$1, %eax
	subl	%r10d, %eax
.L161:
	movl	(%rdx), %r10d
	movq	8(%rdx), %rdx
	movq	%rax, 56(%rsp)
	movq	_ZTVN8opendnp318BufferedCollectionINS_7IndexedINS_6AnalogEEEZNS_11RangeParser13InvokeRangeOfINS_11Group30Var5EEEvRKNS_12HeaderRecordERKNS_5RangeERKN7openpal6RSliceERNS_12IAPDUHandlerEEUlRSE_jE_EE@GOTPCREL(%rip), %r11
	movl	(%rsi), %eax
	movq	%rsp, %rsi
	movw	%r9w, 64(%rsp)
	movdqu	(%r8), %xmm0
	movq	%rdx, 48(%rsp)
	leaq	32(%rsp), %rdx
	addq	$16, %r11
	movl	%eax, 16(%rsp)
	movq	%r11, 32(%rsp)
	movl	%r10d, 40(%rsp)
	movw	%cx, 66(%rsp)
	movaps	%xmm0, (%rsp)
	call	_ZN8opendnp312IAPDUHandler8OnHeaderERKNS_11RangeHeaderERKNS_11ICollectionINS_7IndexedINS_6AnalogEEEEE@PLT
	movq	72(%rsp), %rax
	xorq	%fs:40, %rax
	jne	.L165
	addq	$88, %rsp
	.cfi_remember_state
	.cfi_def_cfa_offset 8
	ret
.L165:
	.cfi_restore_state
	call	__stack_chk_fail@PLT
	.cfi_endproc
.LFE3034:
	.size	_ZN8opendnp311RangeParser13InvokeRangeOfINS_11Group30Var5EEEvRKNS_12HeaderRecordERKNS_5RangeERKN7openpal6RSliceERNS_12IAPDUHandlerE, .-_ZN8opendnp311RangeParser13InvokeRangeOfINS_11Group30Var5EEEvRKNS_12HeaderRecordERKNS_5RangeERKN7openpal6RSliceERNS_12IAPDUHandlerE
	.section	.text._ZN8opendnp311RangeParser13InvokeRangeOfINS_11Group30Var6EEEvRKNS_12HeaderRecordERKNS_5RangeERKN7openpal6RSliceERNS_12IAPDUHandlerE,"axG",@progbits,_ZN8opendnp311RangeParser13InvokeRangeOfINS_11Group30Var6EEEvRKNS_12HeaderRecordERKNS_5RangeERKN7openpal6RSliceERNS_12IAPDUHandlerE,comdat
	.align 2
	.p2align 4
	.weak	_ZN8opendnp311RangeParser13InvokeRangeOfINS_11Group30Var6EEEvRKNS_12HeaderRecordERKNS_5RangeERKN7openpal6RSliceERNS_12IAPDUHandlerE
	.type	_ZN8opendnp311RangeParser13InvokeRangeOfINS_11Group30Var6EEEvRKNS_12HeaderRecordERKNS_5RangeERKN7openpal6RSliceERNS_12IAPDUHandlerE, @function
_ZN8opendnp311RangeParser13InvokeRangeOfINS_11Group30Var6EEEvRKNS_12HeaderRecordERKNS_5RangeERKN7openpal6RSliceERNS_12IAPDUHandlerE:
.LFB3039:
	.cfi_startproc
	endbr64
	subq	$88, %rsp
	.cfi_def_cfa_offset 96
	movq	%rdi, %r8
	movzwl	(%rsi), %r9d
	movq	%rcx, %rdi
	movq	%fs:40, %rax
	movq	%rax, 72(%rsp)
	xorl	%eax, %eax
	movzwl	2(%rsi), %ecx
	cmpw	%cx, %r9w
	ja	.L167
	movzwl	%cx, %eax
	movzwl	%r9w, %r10d
	addl	$1, %eax
	subl	%r10d, %eax
.L167:
	movl	(%rdx), %r10d
	movq	8(%rdx), %rdx
	movq	%rax, 56(%rsp)
	movq	_ZTVN8opendnp318BufferedCollectionINS_7IndexedINS_6AnalogEEEZNS_11RangeParser13InvokeRangeOfINS_11Group30Var6EEEvRKNS_12HeaderRecordERKNS_5RangeERKN7openpal6RSliceERNS_12IAPDUHandlerEEUlRSE_jE_EE@GOTPCREL(%rip), %r11
	movl	(%rsi), %eax
	movq	%rsp, %rsi
	movw	%r9w, 64(%rsp)
	movdqu	(%r8), %xmm0
	movq	%rdx, 48(%rsp)
	leaq	32(%rsp), %rdx
	addq	$16, %r11
	movl	%eax, 16(%rsp)
	movq	%r11, 32(%rsp)
	movl	%r10d, 40(%rsp)
	movw	%cx, 66(%rsp)
	movaps	%xmm0, (%rsp)
	call	_ZN8opendnp312IAPDUHandler8OnHeaderERKNS_11RangeHeaderERKNS_11ICollectionINS_7IndexedINS_6AnalogEEEEE@PLT
	movq	72(%rsp), %rax
	xorq	%fs:40, %rax
	jne	.L171
	addq	$88, %rsp
	.cfi_remember_state
	.cfi_def_cfa_offset 8
	ret
.L171:
	.cfi_restore_state
	call	__stack_chk_fail@PLT
	.cfi_endproc
.LFE3039:
	.size	_ZN8opendnp311RangeParser13InvokeRangeOfINS_11Group30Var6EEEvRKNS_12HeaderRecordERKNS_5RangeERKN7openpal6RSliceERNS_12IAPDUHandlerE, .-_ZN8opendnp311RangeParser13InvokeRangeOfINS_11Group30Var6EEEvRKNS_12HeaderRecordERKNS_5RangeERKN7openpal6RSliceERNS_12IAPDUHandlerE
	.section	.text._ZN8opendnp311RangeParser13InvokeRangeOfINS_11Group40Var1EEEvRKNS_12HeaderRecordERKNS_5RangeERKN7openpal6RSliceERNS_12IAPDUHandlerE,"axG",@progbits,_ZN8opendnp311RangeParser13InvokeRangeOfINS_11Group40Var1EEEvRKNS_12HeaderRecordERKNS_5RangeERKN7openpal6RSliceERNS_12IAPDUHandlerE,comdat
	.align 2
	.p2align 4
	.weak	_ZN8opendnp311RangeParser13InvokeRangeOfINS_11Group40Var1EEEvRKNS_12HeaderRecordERKNS_5RangeERKN7openpal6RSliceERNS_12IAPDUHandlerE
	.type	_ZN8opendnp311RangeParser13InvokeRangeOfINS_11Group40Var1EEEvRKNS_12HeaderRecordERKNS_5RangeERKN7openpal6RSliceERNS_12IAPDUHandlerE, @function
_ZN8opendnp311RangeParser13InvokeRangeOfINS_11Group40Var1EEEvRKNS_12HeaderRecordERKNS_5RangeERKN7openpal6RSliceERNS_12IAPDUHandlerE:
.LFB3044:
	.cfi_startproc
	endbr64
	subq	$88, %rsp
	.cfi_def_cfa_offset 96
	movq	%rdi, %r8
	movzwl	(%rsi), %r9d
	movq	%rcx, %rdi
	movq	%fs:40, %rax
	movq	%rax, 72(%rsp)
	xorl	%eax, %eax
	movzwl	2(%rsi), %ecx
	cmpw	%cx, %r9w
	ja	.L173
	movzwl	%cx, %eax
	movzwl	%r9w, %r10d
	addl	$1, %eax
	subl	%r10d, %eax
.L173:
	movl	(%rdx), %r10d
	movq	8(%rdx), %rdx
	movq	%rax, 56(%rsp)
	movq	_ZTVN8opendnp318BufferedCollectionINS_7IndexedINS_18AnalogOutputStatusEEEZNS_11RangeParser13InvokeRangeOfINS_11Group40Var1EEEvRKNS_12HeaderRecordERKNS_5RangeERKN7openpal6RSliceERNS_12IAPDUHandlerEEUlRSE_jE_EE@GOTPCREL(%rip), %r11
	movl	(%rsi), %eax
	movq	%rsp, %rsi
	movw	%r9w, 64(%rsp)
	movdqu	(%r8), %xmm0
	movq	%rdx, 48(%rsp)
	leaq	32(%rsp), %rdx
	addq	$16, %r11
	movl	%eax, 16(%rsp)
	movq	%r11, 32(%rsp)
	movl	%r10d, 40(%rsp)
	movw	%cx, 66(%rsp)
	movaps	%xmm0, (%rsp)
	call	_ZN8opendnp312IAPDUHandler8OnHeaderERKNS_11RangeHeaderERKNS_11ICollectionINS_7IndexedINS_18AnalogOutputStatusEEEEE@PLT
	movq	72(%rsp), %rax
	xorq	%fs:40, %rax
	jne	.L177
	addq	$88, %rsp
	.cfi_remember_state
	.cfi_def_cfa_offset 8
	ret
.L177:
	.cfi_restore_state
	call	__stack_chk_fail@PLT
	.cfi_endproc
.LFE3044:
	.size	_ZN8opendnp311RangeParser13InvokeRangeOfINS_11Group40Var1EEEvRKNS_12HeaderRecordERKNS_5RangeERKN7openpal6RSliceERNS_12IAPDUHandlerE, .-_ZN8opendnp311RangeParser13InvokeRangeOfINS_11Group40Var1EEEvRKNS_12HeaderRecordERKNS_5RangeERKN7openpal6RSliceERNS_12IAPDUHandlerE
	.section	.text._ZN8opendnp311RangeParser13InvokeRangeOfINS_11Group40Var2EEEvRKNS_12HeaderRecordERKNS_5RangeERKN7openpal6RSliceERNS_12IAPDUHandlerE,"axG",@progbits,_ZN8opendnp311RangeParser13InvokeRangeOfINS_11Group40Var2EEEvRKNS_12HeaderRecordERKNS_5RangeERKN7openpal6RSliceERNS_12IAPDUHandlerE,comdat
	.align 2
	.p2align 4
	.weak	_ZN8opendnp311RangeParser13InvokeRangeOfINS_11Group40Var2EEEvRKNS_12HeaderRecordERKNS_5RangeERKN7openpal6RSliceERNS_12IAPDUHandlerE
	.type	_ZN8opendnp311RangeParser13InvokeRangeOfINS_11Group40Var2EEEvRKNS_12HeaderRecordERKNS_5RangeERKN7openpal6RSliceERNS_12IAPDUHandlerE, @function
_ZN8opendnp311RangeParser13InvokeRangeOfINS_11Group40Var2EEEvRKNS_12HeaderRecordERKNS_5RangeERKN7openpal6RSliceERNS_12IAPDUHandlerE:
.LFB3052:
	.cfi_startproc
	endbr64
	subq	$88, %rsp
	.cfi_def_cfa_offset 96
	movq	%rdi, %r8
	movzwl	(%rsi), %r9d
	movq	%rcx, %rdi
	movq	%fs:40, %rax
	movq	%rax, 72(%rsp)
	xorl	%eax, %eax
	movzwl	2(%rsi), %ecx
	cmpw	%cx, %r9w
	ja	.L179
	movzwl	%cx, %eax
	movzwl	%r9w, %r10d
	addl	$1, %eax
	subl	%r10d, %eax
.L179:
	movl	(%rdx), %r10d
	movq	8(%rdx), %rdx
	movq	%rax, 56(%rsp)
	movq	_ZTVN8opendnp318BufferedCollectionINS_7IndexedINS_18AnalogOutputStatusEEEZNS_11RangeParser13InvokeRangeOfINS_11Group40Var2EEEvRKNS_12HeaderRecordERKNS_5RangeERKN7openpal6RSliceERNS_12IAPDUHandlerEEUlRSE_jE_EE@GOTPCREL(%rip), %r11
	movl	(%rsi), %eax
	movq	%rsp, %rsi
	movw	%r9w, 64(%rsp)
	movdqu	(%r8), %xmm0
	movq	%rdx, 48(%rsp)
	leaq	32(%rsp), %rdx
	addq	$16, %r11
	movl	%eax, 16(%rsp)
	movq	%r11, 32(%rsp)
	movl	%r10d, 40(%rsp)
	movw	%cx, 66(%rsp)
	movaps	%xmm0, (%rsp)
	call	_ZN8opendnp312IAPDUHandler8OnHeaderERKNS_11RangeHeaderERKNS_11ICollectionINS_7IndexedINS_18AnalogOutputStatusEEEEE@PLT
	movq	72(%rsp), %rax
	xorq	%fs:40, %rax
	jne	.L183
	addq	$88, %rsp
	.cfi_remember_state
	.cfi_def_cfa_offset 8
	ret
.L183:
	.cfi_restore_state
	call	__stack_chk_fail@PLT
	.cfi_endproc
.LFE3052:
	.size	_ZN8opendnp311RangeParser13InvokeRangeOfINS_11Group40Var2EEEvRKNS_12HeaderRecordERKNS_5RangeERKN7openpal6RSliceERNS_12IAPDUHandlerE, .-_ZN8opendnp311RangeParser13InvokeRangeOfINS_11Group40Var2EEEvRKNS_12HeaderRecordERKNS_5RangeERKN7openpal6RSliceERNS_12IAPDUHandlerE
	.section	.text._ZN8opendnp311RangeParser13InvokeRangeOfINS_11Group40Var3EEEvRKNS_12HeaderRecordERKNS_5RangeERKN7openpal6RSliceERNS_12IAPDUHandlerE,"axG",@progbits,_ZN8opendnp311RangeParser13InvokeRangeOfINS_11Group40Var3EEEvRKNS_12HeaderRecordERKNS_5RangeERKN7openpal6RSliceERNS_12IAPDUHandlerE,comdat
	.align 2
	.p2align 4
	.weak	_ZN8opendnp311RangeParser13InvokeRangeOfINS_11Group40Var3EEEvRKNS_12HeaderRecordERKNS_5RangeERKN7openpal6RSliceERNS_12IAPDUHandlerE
	.type	_ZN8opendnp311RangeParser13InvokeRangeOfINS_11Group40Var3EEEvRKNS_12HeaderRecordERKNS_5RangeERKN7openpal6RSliceERNS_12IAPDUHandlerE, @function
_ZN8opendnp311RangeParser13InvokeRangeOfINS_11Group40Var3EEEvRKNS_12HeaderRecordERKNS_5RangeERKN7openpal6RSliceERNS_12IAPDUHandlerE:
.LFB3057:
	.cfi_startproc
	endbr64
	subq	$88, %rsp
	.cfi_def_cfa_offset 96
	movq	%rdi, %r8
	movzwl	(%rsi), %r9d
	movq	%rcx, %rdi
	movq	%fs:40, %rax
	movq	%rax, 72(%rsp)
	xorl	%eax, %eax
	movzwl	2(%rsi), %ecx
	cmpw	%cx, %r9w
	ja	.L185
	movzwl	%cx, %eax
	movzwl	%r9w, %r10d
	addl	$1, %eax
	subl	%r10d, %eax
.L185:
	movl	(%rdx), %r10d
	movq	8(%rdx), %rdx
	movq	%rax, 56(%rsp)
	movq	_ZTVN8opendnp318BufferedCollectionINS_7IndexedINS_18AnalogOutputStatusEEEZNS_11RangeParser13InvokeRangeOfINS_11Group40Var3EEEvRKNS_12HeaderRecordERKNS_5RangeERKN7openpal6RSliceERNS_12IAPDUHandlerEEUlRSE_jE_EE@GOTPCREL(%rip), %r11
	movl	(%rsi), %eax
	movq	%rsp, %rsi
	movw	%r9w, 64(%rsp)
	movdqu	(%r8), %xmm0
	movq	%rdx, 48(%rsp)
	leaq	32(%rsp), %rdx
	addq	$16, %r11
	movl	%eax, 16(%rsp)
	movq	%r11, 32(%rsp)
	movl	%r10d, 40(%rsp)
	movw	%cx, 66(%rsp)
	movaps	%xmm0, (%rsp)
	call	_ZN8opendnp312IAPDUHandler8OnHeaderERKNS_11RangeHeaderERKNS_11ICollectionINS_7IndexedINS_18AnalogOutputStatusEEEEE@PLT
	movq	72(%rsp), %rax
	xorq	%fs:40, %rax
	jne	.L189
	addq	$88, %rsp
	.cfi_remember_state
	.cfi_def_cfa_offset 8
	ret
.L189:
	.cfi_restore_state
	call	__stack_chk_fail@PLT
	.cfi_endproc
.LFE3057:
	.size	_ZN8opendnp311RangeParser13InvokeRangeOfINS_11Group40Var3EEEvRKNS_12HeaderRecordERKNS_5RangeERKN7openpal6RSliceERNS_12IAPDUHandlerE, .-_ZN8opendnp311RangeParser13InvokeRangeOfINS_11Group40Var3EEEvRKNS_12HeaderRecordERKNS_5RangeERKN7openpal6RSliceERNS_12IAPDUHandlerE
	.section	.text._ZN8opendnp311RangeParser13InvokeRangeOfINS_11Group40Var4EEEvRKNS_12HeaderRecordERKNS_5RangeERKN7openpal6RSliceERNS_12IAPDUHandlerE,"axG",@progbits,_ZN8opendnp311RangeParser13InvokeRangeOfINS_11Group40Var4EEEvRKNS_12HeaderRecordERKNS_5RangeERKN7openpal6RSliceERNS_12IAPDUHandlerE,comdat
	.align 2
	.p2align 4
	.weak	_ZN8opendnp311RangeParser13InvokeRangeOfINS_11Group40Var4EEEvRKNS_12HeaderRecordERKNS_5RangeERKN7openpal6RSliceERNS_12IAPDUHandlerE
	.type	_ZN8opendnp311RangeParser13InvokeRangeOfINS_11Group40Var4EEEvRKNS_12HeaderRecordERKNS_5RangeERKN7openpal6RSliceERNS_12IAPDUHandlerE, @function
_ZN8opendnp311RangeParser13InvokeRangeOfINS_11Group40Var4EEEvRKNS_12HeaderRecordERKNS_5RangeERKN7openpal6RSliceERNS_12IAPDUHandlerE:
.LFB3062:
	.cfi_startproc
	endbr64
	subq	$88, %rsp
	.cfi_def_cfa_offset 96
	movq	%rdi, %r8
	movzwl	(%rsi), %r9d
	movq	%rcx, %rdi
	movq	%fs:40, %rax
	movq	%rax, 72(%rsp)
	xorl	%eax, %eax
	movzwl	2(%rsi), %ecx
	cmpw	%cx, %r9w
	ja	.L191
	movzwl	%cx, %eax
	movzwl	%r9w, %r10d
	addl	$1, %eax
	subl	%r10d, %eax
.L191:
	movl	(%rdx), %r10d
	movq	8(%rdx), %rdx
	movq	%rax, 56(%rsp)
	movq	_ZTVN8opendnp318BufferedCollectionINS_7IndexedINS_18AnalogOutputStatusEEEZNS_11RangeParser13InvokeRangeOfINS_11Group40Var4EEEvRKNS_12HeaderRecordERKNS_5RangeERKN7openpal6RSliceERNS_12IAPDUHandlerEEUlRSE_jE_EE@GOTPCREL(%rip), %r11
	movl	(%rsi), %eax
	movq	%rsp, %rsi
	movw	%r9w, 64(%rsp)
	movdqu	(%r8), %xmm0
	movq	%rdx, 48(%rsp)
	leaq	32(%rsp), %rdx
	addq	$16, %r11
	movl	%eax, 16(%rsp)
	movq	%r11, 32(%rsp)
	movl	%r10d, 40(%rsp)
	movw	%cx, 66(%rsp)
	movaps	%xmm0, (%rsp)
	call	_ZN8opendnp312IAPDUHandler8OnHeaderERKNS_11RangeHeaderERKNS_11ICollectionINS_7IndexedINS_18AnalogOutputStatusEEEEE@PLT
	movq	72(%rsp), %rax
	xorq	%fs:40, %rax
	jne	.L195
	addq	$88, %rsp
	.cfi_remember_state
	.cfi_def_cfa_offset 8
	ret
.L195:
	.cfi_restore_state
	call	__stack_chk_fail@PLT
	.cfi_endproc
.LFE3062:
	.size	_ZN8opendnp311RangeParser13InvokeRangeOfINS_11Group40Var4EEEvRKNS_12HeaderRecordERKNS_5RangeERKN7openpal6RSliceERNS_12IAPDUHandlerE, .-_ZN8opendnp311RangeParser13InvokeRangeOfINS_11Group40Var4EEEvRKNS_12HeaderRecordERKNS_5RangeERKN7openpal6RSliceERNS_12IAPDUHandlerE
	.section	.text._ZN8opendnp311RangeParser13InvokeRangeOfINS_11Group50Var4EEEvRKNS_12HeaderRecordERKNS_5RangeERKN7openpal6RSliceERNS_12IAPDUHandlerE,"axG",@progbits,_ZN8opendnp311RangeParser13InvokeRangeOfINS_11Group50Var4EEEvRKNS_12HeaderRecordERKNS_5RangeERKN7openpal6RSliceERNS_12IAPDUHandlerE,comdat
	.align 2
	.p2align 4
	.weak	_ZN8opendnp311RangeParser13InvokeRangeOfINS_11Group50Var4EEEvRKNS_12HeaderRecordERKNS_5RangeERKN7openpal6RSliceERNS_12IAPDUHandlerE
	.type	_ZN8opendnp311RangeParser13InvokeRangeOfINS_11Group50Var4EEEvRKNS_12HeaderRecordERKNS_5RangeERKN7openpal6RSliceERNS_12IAPDUHandlerE, @function
_ZN8opendnp311RangeParser13InvokeRangeOfINS_11Group50Var4EEEvRKNS_12HeaderRecordERKNS_5RangeERKN7openpal6RSliceERNS_12IAPDUHandlerE:
.LFB3067:
	.cfi_startproc
	endbr64
	subq	$88, %rsp
	.cfi_def_cfa_offset 96
	movq	%rdi, %r8
	movzwl	(%rsi), %r9d
	movq	%rcx, %rdi
	movq	%fs:40, %rax
	movq	%rax, 72(%rsp)
	xorl	%eax, %eax
	movzwl	2(%rsi), %ecx
	cmpw	%cx, %r9w
	ja	.L197
	movzwl	%cx, %eax
	movzwl	%r9w, %r10d
	addl	$1, %eax
	subl	%r10d, %eax
.L197:
	movl	(%rdx), %r10d
	movq	8(%rdx), %rdx
	movq	%rax, 56(%rsp)
	movq	_ZTVN8opendnp318BufferedCollectionINS_7IndexedINS_15TimeAndIntervalEEEZNS_11RangeParser13InvokeRangeOfINS_11Group50Var4EEEvRKNS_12HeaderRecordERKNS_5RangeERKN7openpal6RSliceERNS_12IAPDUHandlerEEUlRSE_jE_EE@GOTPCREL(%rip), %r11
	movl	(%rsi), %eax
	movq	%rsp, %rsi
	movw	%r9w, 64(%rsp)
	movdqu	(%r8), %xmm0
	movq	%rdx, 48(%rsp)
	leaq	32(%rsp), %rdx
	addq	$16, %r11
	movl	%eax, 16(%rsp)
	movq	%r11, 32(%rsp)
	movl	%r10d, 40(%rsp)
	movw	%cx, 66(%rsp)
	movaps	%xmm0, (%rsp)
	call	_ZN8opendnp312IAPDUHandler8OnHeaderERKNS_11RangeHeaderERKNS_11ICollectionINS_7IndexedINS_15TimeAndIntervalEEEEE@PLT
	movq	72(%rsp), %rax
	xorq	%fs:40, %rax
	jne	.L201
	addq	$88, %rsp
	.cfi_remember_state
	.cfi_def_cfa_offset 8
	ret
.L201:
	.cfi_restore_state
	call	__stack_chk_fail@PLT
	.cfi_endproc
.LFE3067:
	.size	_ZN8opendnp311RangeParser13InvokeRangeOfINS_11Group50Var4EEEvRKNS_12HeaderRecordERKNS_5RangeERKN7openpal6RSliceERNS_12IAPDUHandlerE, .-_ZN8opendnp311RangeParser13InvokeRangeOfINS_11Group50Var4EEEvRKNS_12HeaderRecordERKNS_5RangeERKN7openpal6RSliceERNS_12IAPDUHandlerE
	.section	.text._ZNK8opendnp318BufferedCollectionINS_7IndexedINS_15TimeAndIntervalEEEZNS_11RangeParser13InvokeRangeOfINS_11Group50Var4EEEvRKNS_12HeaderRecordERKNS_5RangeERKN7openpal6RSliceERNS_12IAPDUHandlerEEUlRSE_jE_E7ForeachERNS_8IVisitorIS3_EE,"axG",@progbits,_ZNK8opendnp318BufferedCollectionINS_7IndexedINS_15TimeAndIntervalEEEZNS_11RangeParser13InvokeRangeOfINS_11Group50Var4EEEvRKNS_12HeaderRecordERKNS_5RangeERKN7openpal6RSliceERNS_12IAPDUHandlerEEUlRSE_jE_E7ForeachERNS_8IVisitorIS3_EE,comdat
	.align 2
	.p2align 4
	.weak	_ZNK8opendnp318BufferedCollectionINS_7IndexedINS_15TimeAndIntervalEEEZNS_11RangeParser13InvokeRangeOfINS_11Group50Var4EEEvRKNS_12HeaderRecordERKNS_5RangeERKN7openpal6RSliceERNS_12IAPDUHandlerEEUlRSE_jE_E7ForeachERNS_8IVisitorIS3_EE
	.type	_ZNK8opendnp318BufferedCollectionINS_7IndexedINS_15TimeAndIntervalEEEZNS_11RangeParser13InvokeRangeOfINS_11Group50Var4EEEvRKNS_12HeaderRecordERKNS_5RangeERKN7openpal6RSliceERNS_12IAPDUHandlerEEUlRSE_jE_E7ForeachERNS_8IVisitorIS3_EE, @function
_ZNK8opendnp318BufferedCollectionINS_7IndexedINS_15TimeAndIntervalEEEZNS_11RangeParser13InvokeRangeOfINS_11Group50Var4EEEvRKNS_12HeaderRecordERKNS_5RangeERKN7openpal6RSliceERNS_12IAPDUHandlerEEUlRSE_jE_E7ForeachERNS_8IVisitorIS3_EE:
.LFB3539:
	.cfi_startproc
	endbr64
	pushq	%r15
	.cfi_def_cfa_offset 16
	.cfi_offset 15, -16
	pushq	%r14
	.cfi_def_cfa_offset 24
	.cfi_offset 14, -24
	pushq	%r13
	.cfi_def_cfa_offset 32
	.cfi_offset 13, -32
	pushq	%r12
	.cfi_def_cfa_offset 40
	.cfi_offset 12, -40
	pushq	%rbp
	.cfi_def_cfa_offset 48
	.cfi_offset 6, -48
	pushq	%rbx
	.cfi_def_cfa_offset 56
	.cfi_offset 3, -56
	subq	$88, %rsp
	.cfi_def_cfa_offset 144
	movdqu	8(%rdi), %xmm1
	movq	%fs:40, %rax
	movq	%rax, 72(%rsp)
	xorl	%eax, %eax
	cmpq	$0, 24(%rdi)
	movaps	%xmm1, 16(%rsp)
	je	.L202
	leaq	48(%rsp), %rax
	movq	%rdi, %rbp
	movq	%rsi, %r12
	xorl	%ebx, %ebx
	movq	%rax, 8(%rsp)
	leaq	32(%rsp), %r13
	leaq	16(%rsp), %r15
	.p2align 4,,10
	.p2align 3
.L204:
	movq	(%r12), %rax
	movq	%r13, %rdi
	movq	(%rax), %r14
	call	_ZN8opendnp315TimeAndIntervalC1Ev@PLT
	movq	%r13, %rsi
	movq	%r15, %rdi
	call	_ZN8opendnp311Group50Var410ReadTargetERN7openpal6RSliceERNS_15TimeAndIntervalE@PLT
	movzwl	32(%rbp), %eax
	movq	8(%rsp), %rsi
	movq	%r12, %rdi
	movdqa	32(%rsp), %xmm0
	addl	%ebx, %eax
	movw	%ax, 64(%rsp)
	movaps	%xmm0, 48(%rsp)
	call	*%r14
	leal	1(%rbx), %eax
	movq	%rax, %rbx
	cmpq	24(%rbp), %rax
	jb	.L204
.L202:
	movq	72(%rsp), %rax
	xorq	%fs:40, %rax
	jne	.L208
	addq	$88, %rsp
	.cfi_remember_state
	.cfi_def_cfa_offset 56
	popq	%rbx
	.cfi_def_cfa_offset 48
	popq	%rbp
	.cfi_def_cfa_offset 40
	popq	%r12
	.cfi_def_cfa_offset 32
	popq	%r13
	.cfi_def_cfa_offset 24
	popq	%r14
	.cfi_def_cfa_offset 16
	popq	%r15
	.cfi_def_cfa_offset 8
	ret
.L208:
	.cfi_restore_state
	call	__stack_chk_fail@PLT
	.cfi_endproc
.LFE3539:
	.size	_ZNK8opendnp318BufferedCollectionINS_7IndexedINS_15TimeAndIntervalEEEZNS_11RangeParser13InvokeRangeOfINS_11Group50Var4EEEvRKNS_12HeaderRecordERKNS_5RangeERKN7openpal6RSliceERNS_12IAPDUHandlerEEUlRSE_jE_E7ForeachERNS_8IVisitorIS3_EE, .-_ZNK8opendnp318BufferedCollectionINS_7IndexedINS_15TimeAndIntervalEEEZNS_11RangeParser13InvokeRangeOfINS_11Group50Var4EEEvRKNS_12HeaderRecordERKNS_5RangeERKN7openpal6RSliceERNS_12IAPDUHandlerEEUlRSE_jE_E7ForeachERNS_8IVisitorIS3_EE
	.section	.text._ZN8opendnp311RangeParser23InvokeRangeBitfieldTypeINS_8IINValueEEEvRKNS_12HeaderRecordERKNS_5RangeERKN7openpal6RSliceERNS_12IAPDUHandlerE,"axG",@progbits,_ZN8opendnp311RangeParser23InvokeRangeBitfieldTypeINS_8IINValueEEEvRKNS_12HeaderRecordERKNS_5RangeERKN7openpal6RSliceERNS_12IAPDUHandlerE,comdat
	.align 2
	.p2align 4
	.weak	_ZN8opendnp311RangeParser23InvokeRangeBitfieldTypeINS_8IINValueEEEvRKNS_12HeaderRecordERKNS_5RangeERKN7openpal6RSliceERNS_12IAPDUHandlerE
	.type	_ZN8opendnp311RangeParser23InvokeRangeBitfieldTypeINS_8IINValueEEEvRKNS_12HeaderRecordERKNS_5RangeERKN7openpal6RSliceERNS_12IAPDUHandlerE, @function
_ZN8opendnp311RangeParser23InvokeRangeBitfieldTypeINS_8IINValueEEEvRKNS_12HeaderRecordERKNS_5RangeERKN7openpal6RSliceERNS_12IAPDUHandlerE:
.LFB3075:
	.cfi_startproc
	endbr64
	subq	$88, %rsp
	.cfi_def_cfa_offset 96
	movq	%rdi, %r8
	movzwl	(%rsi), %r9d
	movq	%rcx, %rdi
	movq	%fs:40, %rax
	movq	%rax, 72(%rsp)
	xorl	%eax, %eax
	movzwl	2(%rsi), %ecx
	cmpw	%cx, %r9w
	ja	.L210
	movzwl	%cx, %eax
	movzwl	%r9w, %r10d
	addl	$1, %eax
	subl	%r10d, %eax
.L210:
	movl	(%rdx), %r10d
	movq	8(%rdx), %rdx
	movq	%rax, 56(%rsp)
	movq	_ZTVN8opendnp318BufferedCollectionINS_7IndexedINS_8IINValueEEEZNS_11RangeParser23InvokeRangeBitfieldTypeIS2_EEvRKNS_12HeaderRecordERKNS_5RangeERKN7openpal6RSliceERNS_12IAPDUHandlerEEUlRSD_jE_EE@GOTPCREL(%rip), %r11
	movl	(%rsi), %eax
	movq	%rsp, %rsi
	movw	%r9w, 64(%rsp)
	movdqu	(%r8), %xmm0
	movq	%rdx, 48(%rsp)
	leaq	32(%rsp), %rdx
	addq	$16, %r11
	movl	%eax, 16(%rsp)
	movq	%r11, 32(%rsp)
	movl	%r10d, 40(%rsp)
	movw	%cx, 66(%rsp)
	movaps	%xmm0, (%rsp)
	call	_ZN8opendnp312IAPDUHandler8OnHeaderERKNS_11RangeHeaderERKNS_11ICollectionINS_7IndexedINS_8IINValueEEEEE@PLT
	movq	72(%rsp), %rax
	xorq	%fs:40, %rax
	jne	.L214
	addq	$88, %rsp
	.cfi_remember_state
	.cfi_def_cfa_offset 8
	ret
.L214:
	.cfi_restore_state
	call	__stack_chk_fail@PLT
	.cfi_endproc
.LFE3075:
	.size	_ZN8opendnp311RangeParser23InvokeRangeBitfieldTypeINS_8IINValueEEEvRKNS_12HeaderRecordERKNS_5RangeERKN7openpal6RSliceERNS_12IAPDUHandlerE, .-_ZN8opendnp311RangeParser23InvokeRangeBitfieldTypeINS_8IINValueEEEvRKNS_12HeaderRecordERKNS_5RangeERKN7openpal6RSliceERNS_12IAPDUHandlerE
	.section	.text._ZN8opendnp311RangeParser17InvokeRangeOfTypeINS_12Group121Var1EEEvRKNS_12HeaderRecordERKNS_5RangeERKN7openpal6RSliceERNS_12IAPDUHandlerE,"axG",@progbits,_ZN8opendnp311RangeParser17InvokeRangeOfTypeINS_12Group121Var1EEEvRKNS_12HeaderRecordERKNS_5RangeERKN7openpal6RSliceERNS_12IAPDUHandlerE,comdat
	.align 2
	.p2align 4
	.weak	_ZN8opendnp311RangeParser17InvokeRangeOfTypeINS_12Group121Var1EEEvRKNS_12HeaderRecordERKNS_5RangeERKN7openpal6RSliceERNS_12IAPDUHandlerE
	.type	_ZN8opendnp311RangeParser17InvokeRangeOfTypeINS_12Group121Var1EEEvRKNS_12HeaderRecordERKNS_5RangeERKN7openpal6RSliceERNS_12IAPDUHandlerE, @function
_ZN8opendnp311RangeParser17InvokeRangeOfTypeINS_12Group121Var1EEEvRKNS_12HeaderRecordERKNS_5RangeERKN7openpal6RSliceERNS_12IAPDUHandlerE:
.LFB3083:
	.cfi_startproc
	endbr64
	subq	$88, %rsp
	.cfi_def_cfa_offset 96
	movq	%rdi, %r8
	movzwl	(%rsi), %r9d
	movq	%rcx, %rdi
	movq	%fs:40, %rax
	movq	%rax, 72(%rsp)
	xorl	%eax, %eax
	movzwl	2(%rsi), %ecx
	cmpw	%cx, %r9w
	ja	.L216
	movzwl	%cx, %eax
	movzwl	%r9w, %r10d
	addl	$1, %eax
	subl	%r10d, %eax
.L216:
	movl	(%rdx), %r10d
	movq	8(%rdx), %rdx
	movq	%rax, 56(%rsp)
	movq	_ZTVN8opendnp318BufferedCollectionINS_7IndexedINS_12Group121Var1EEEZNS_11RangeParser17InvokeRangeOfTypeIS2_EEvRKNS_12HeaderRecordERKNS_5RangeERKN7openpal6RSliceERNS_12IAPDUHandlerEEUlRSD_jE_EE@GOTPCREL(%rip), %r11
	movl	(%rsi), %eax
	movq	%rsp, %rsi
	movw	%r9w, 64(%rsp)
	movdqu	(%r8), %xmm0
	movq	%rdx, 48(%rsp)
	leaq	32(%rsp), %rdx
	addq	$16, %r11
	movl	%eax, 16(%rsp)
	movq	%r11, 32(%rsp)
	movl	%r10d, 40(%rsp)
	movw	%cx, 66(%rsp)
	movaps	%xmm0, (%rsp)
	call	_ZN8opendnp312IAPDUHandler8OnHeaderERKNS_11RangeHeaderERKNS_11ICollectionINS_7IndexedINS_12Group121Var1EEEEE@PLT
	movq	72(%rsp), %rax
	xorq	%fs:40, %rax
	jne	.L220
	addq	$88, %rsp
	.cfi_remember_state
	.cfi_def_cfa_offset 8
	ret
.L220:
	.cfi_restore_state
	call	__stack_chk_fail@PLT
	.cfi_endproc
.LFE3083:
	.size	_ZN8opendnp311RangeParser17InvokeRangeOfTypeINS_12Group121Var1EEEvRKNS_12HeaderRecordERKNS_5RangeERKN7openpal6RSliceERNS_12IAPDUHandlerE, .-_ZN8opendnp311RangeParser17InvokeRangeOfTypeINS_12Group121Var1EEEvRKNS_12HeaderRecordERKNS_5RangeERKN7openpal6RSliceERNS_12IAPDUHandlerE
	.section	.text._ZN7openpal12StaticBufferILj255EED0Ev,"axG",@progbits,_ZN7openpal12StaticBufferILj255EED5Ev,comdat
	.align 2
	.p2align 4
	.weak	_ZN7openpal12StaticBufferILj255EED0Ev
	.type	_ZN7openpal12StaticBufferILj255EED0Ev, @function
_ZN7openpal12StaticBufferILj255EED0Ev:
.LFB2696:
	.cfi_startproc
	endbr64
	movl	$264, %esi
	jmp	_ZdlPvm@PLT
	.cfi_endproc
.LFE2696:
	.size	_ZN7openpal12StaticBufferILj255EED0Ev, .-_ZN7openpal12StaticBufferILj255EED0Ev
	.text
	.align 2
	.p2align 4
	.type	_ZNK8opendnp318BufferedCollectionINS_7IndexedINS_11OctetStringEEEZNS_11RangeParser21ParseRangeOfOctetDataERN7openpal6RSliceERKNS_12HeaderRecordERKNS_5RangeEPNS5_6LoggerEPNS_12IAPDUHandlerEEUlS7_jE_E7ForeachERNS_8IVisitorIS3_EE, @function
_ZNK8opendnp318BufferedCollectionINS_7IndexedINS_11OctetStringEEEZNS_11RangeParser21ParseRangeOfOctetDataERN7openpal6RSliceERKNS_12HeaderRecordERKNS_5RangeEPNS5_6LoggerEPNS_12IAPDUHandlerEEUlS7_jE_E7ForeachERNS_8IVisitorIS3_EE:
.LFB3593:
	.cfi_startproc
	endbr64
	pushq	%r15
	.cfi_def_cfa_offset 16
	.cfi_offset 15, -16
	pushq	%r14
	.cfi_def_cfa_offset 24
	.cfi_offset 14, -24
	pushq	%r13
	.cfi_def_cfa_offset 32
	.cfi_offset 13, -32
	pushq	%r12
	.cfi_def_cfa_offset 40
	.cfi_offset 12, -40
	pushq	%rbp
	.cfi_def_cfa_offset 48
	.cfi_offset 6, -48
	pushq	%rbx
	.cfi_def_cfa_offset 56
	.cfi_offset 3, -56
	subq	$648, %rsp
	.cfi_def_cfa_offset 704
	movdqu	8(%rdi), %xmm0
	movq	%fs:40, %rax
	movq	%rax, 632(%rsp)
	xorl	%eax, %eax
	cmpq	$0, 24(%rdi)
	movaps	%xmm0, 48(%rsp)
	je	.L222
	leaq	80(%rsp), %rax
	movq	%rdi, %rbx
	movq	%rsi, %r12
	xorl	%ebp, %ebp
	movq	%rax, 24(%rsp)
	leaq	48(%rsp), %r13
	leaq	64(%rsp), %r15
	leaq	360(%rsp), %rax
	movq	%rax, 32(%rsp)
	leaq	88(%rsp), %rax
	movq	%rax, 40(%rsp)
	leaq	352(%rsp), %rax
	movq	%rax, 16(%rsp)
	movq	_ZTVN7openpal12StaticBufferILj255EEE@GOTPCREL(%rip), %rax
	addq	$16, %rax
	movq	%rax, 8(%rsp)
	.p2align 4,,10
	.p2align 3
.L224:
	movq	(%r12), %rax
	movzbl	45(%rbx), %esi
	movq	%r13, %rdi
	movq	(%rax), %r14
	call	_ZNK7openpal6RSlice4TakeEj@PLT
	movq	24(%rsp), %rdi
	movq	%r15, %rsi
	movl	%eax, 64(%rsp)
	movq	%rdx, 72(%rsp)
	call	_ZN8opendnp39OctetDataC2ERKN7openpal6RSliceE@PLT
	movzbl	45(%rbx), %esi
	movq	%r13, %rdi
	call	_ZN7openpal6RSlice7AdvanceEj@PLT
	movq	8(%rsp), %rcx
	movq	32(%rsp), %rdi
	movq	40(%rsp), %rsi
	movzwl	32(%rbx), %eax
	movq	%rcx, 352(%rsp)
	movl	$31, %ecx
	rep movsq
	addl	%ebp, %eax
	movl	(%rsi), %edx
	movl	%edx, (%rdi)
	movzwl	4(%rsi), %edx
	movw	%dx, 4(%rdi)
	movzbl	6(%rsi), %edx
	movq	16(%rsp), %rsi
	movb	%dl, 6(%rdi)
	movzbl	344(%rsp), %edx
	movq	%r12, %rdi
	movw	%ax, 624(%rsp)
	movb	%dl, 616(%rsp)
	call	*%r14
	leal	1(%rbp), %eax
	movq	%rax, %rbp
	cmpq	24(%rbx), %rax
	jb	.L224
.L222:
	movq	632(%rsp), %rax
	xorq	%fs:40, %rax
	jne	.L228
	addq	$648, %rsp
	.cfi_remember_state
	.cfi_def_cfa_offset 56
	popq	%rbx
	.cfi_def_cfa_offset 48
	popq	%rbp
	.cfi_def_cfa_offset 40
	popq	%r12
	.cfi_def_cfa_offset 32
	popq	%r13
	.cfi_def_cfa_offset 24
	popq	%r14
	.cfi_def_cfa_offset 16
	popq	%r15
	.cfi_def_cfa_offset 8
	ret
.L228:
	.cfi_restore_state
	call	__stack_chk_fail@PLT
	.cfi_endproc
.LFE3593:
	.size	_ZNK8opendnp318BufferedCollectionINS_7IndexedINS_11OctetStringEEEZNS_11RangeParser21ParseRangeOfOctetDataERN7openpal6RSliceERKNS_12HeaderRecordERKNS_5RangeEPNS5_6LoggerEPNS_12IAPDUHandlerEEUlS7_jE_E7ForeachERNS_8IVisitorIS3_EE, .-_ZNK8opendnp318BufferedCollectionINS_7IndexedINS_11OctetStringEEEZNS_11RangeParser21ParseRangeOfOctetDataERN7openpal6RSliceERKNS_12HeaderRecordERKNS_5RangeEPNS5_6LoggerEPNS_12IAPDUHandlerEEUlS7_jE_E7ForeachERNS_8IVisitorIS3_EE
	.section	.text._ZNK8opendnp318BufferedCollectionINS_7IndexedINS_6BinaryEEEZNS_11RangeParser23InvokeRangeBitfieldTypeIS2_EEvRKNS_12HeaderRecordERKNS_5RangeERKN7openpal6RSliceERNS_12IAPDUHandlerEEUlRSD_jE_E7ForeachERNS_8IVisitorIS3_EE,"axG",@progbits,_ZNK8opendnp318BufferedCollectionINS_7IndexedINS_6BinaryEEEZNS_11RangeParser23InvokeRangeBitfieldTypeIS2_EEvRKNS_12HeaderRecordERKNS_5RangeERKN7openpal6RSliceERNS_12IAPDUHandlerEEUlRSD_jE_E7ForeachERNS_8IVisitorIS3_EE,comdat
	.align 2
	.p2align 4
	.weak	_ZNK8opendnp318BufferedCollectionINS_7IndexedINS_6BinaryEEEZNS_11RangeParser23InvokeRangeBitfieldTypeIS2_EEvRKNS_12HeaderRecordERKNS_5RangeERKN7openpal6RSliceERNS_12IAPDUHandlerEEUlRSD_jE_E7ForeachERNS_8IVisitorIS3_EE
	.type	_ZNK8opendnp318BufferedCollectionINS_7IndexedINS_6BinaryEEEZNS_11RangeParser23InvokeRangeBitfieldTypeIS2_EEvRKNS_12HeaderRecordERKNS_5RangeERKN7openpal6RSliceERNS_12IAPDUHandlerEEUlRSD_jE_E7ForeachERNS_8IVisitorIS3_EE, @function
_ZNK8opendnp318BufferedCollectionINS_7IndexedINS_6BinaryEEEZNS_11RangeParser23InvokeRangeBitfieldTypeIS2_EEvRKNS_12HeaderRecordERKNS_5RangeERKN7openpal6RSliceERNS_12IAPDUHandlerEEUlRSD_jE_E7ForeachERNS_8IVisitorIS3_EE:
.LFB3591:
	.cfi_startproc
	endbr64
	pushq	%r15
	.cfi_def_cfa_offset 16
	.cfi_offset 15, -16
	pushq	%r14
	.cfi_def_cfa_offset 24
	.cfi_offset 14, -24
	pushq	%r13
	.cfi_def_cfa_offset 32
	.cfi_offset 13, -32
	pushq	%r12
	.cfi_def_cfa_offset 40
	.cfi_offset 12, -40
	pushq	%rbp
	.cfi_def_cfa_offset 48
	.cfi_offset 6, -48
	pushq	%rbx
	.cfi_def_cfa_offset 56
	.cfi_offset 3, -56
	subq	$120, %rsp
	.cfi_def_cfa_offset 176
	movdqu	8(%rdi), %xmm1
	movq	%fs:40, %rax
	movq	%rax, 104(%rsp)
	xorl	%eax, %eax
	cmpq	$0, 24(%rdi)
	movaps	%xmm1, 16(%rsp)
	je	.L229
	leaq	64(%rsp), %rax
	movq	%rdi, %rbp
	movq	%rsi, %r12
	xorl	%ebx, %ebx
	movq	%rax, 8(%rsp)
	leaq	16(%rsp), %r15
	leaq	32(%rsp), %r14
	.p2align 4,,10
	.p2align 3
.L231:
	movq	(%r12), %rax
	movl	%ebx, %esi
	movq	%r15, %rdi
	movq	(%rax), %r13
	call	_ZN8opendnp36GetBitERKN7openpal6RSliceEj@PLT
	movq	%r14, %rdi
	movzbl	%al, %esi
	call	_ZN8opendnp36BinaryC1Eb@PLT
	movzwl	32(%rbp), %eax
	movdqa	32(%rsp), %xmm0
	movq	%r12, %rdi
	movq	48(%rsp), %rcx
	movq	8(%rsp), %rsi
	addl	%ebx, %eax
	movaps	%xmm0, 64(%rsp)
	movw	%ax, 88(%rsp)
	movq	%rcx, 80(%rsp)
	call	*%r13
	leal	1(%rbx), %eax
	movq	%rax, %rbx
	cmpq	24(%rbp), %rax
	jb	.L231
.L229:
	movq	104(%rsp), %rax
	xorq	%fs:40, %rax
	jne	.L235
	addq	$120, %rsp
	.cfi_remember_state
	.cfi_def_cfa_offset 56
	popq	%rbx
	.cfi_def_cfa_offset 48
	popq	%rbp
	.cfi_def_cfa_offset 40
	popq	%r12
	.cfi_def_cfa_offset 32
	popq	%r13
	.cfi_def_cfa_offset 24
	popq	%r14
	.cfi_def_cfa_offset 16
	popq	%r15
	.cfi_def_cfa_offset 8
	ret
.L235:
	.cfi_restore_state
	call	__stack_chk_fail@PLT
	.cfi_endproc
.LFE3591:
	.size	_ZNK8opendnp318BufferedCollectionINS_7IndexedINS_6BinaryEEEZNS_11RangeParser23InvokeRangeBitfieldTypeIS2_EEvRKNS_12HeaderRecordERKNS_5RangeERKN7openpal6RSliceERNS_12IAPDUHandlerEEUlRSD_jE_E7ForeachERNS_8IVisitorIS3_EE, .-_ZNK8opendnp318BufferedCollectionINS_7IndexedINS_6BinaryEEEZNS_11RangeParser23InvokeRangeBitfieldTypeIS2_EEvRKNS_12HeaderRecordERKNS_5RangeERKN7openpal6RSliceERNS_12IAPDUHandlerEEUlRSD_jE_E7ForeachERNS_8IVisitorIS3_EE
	.section	.text._ZNK8opendnp318BufferedCollectionINS_7IndexedINS_6BinaryEEEZNS_11RangeParser13InvokeRangeOfINS_10Group1Var2EEEvRKNS_12HeaderRecordERKNS_5RangeERKN7openpal6RSliceERNS_12IAPDUHandlerEEUlRSE_jE_E7ForeachERNS_8IVisitorIS3_EE,"axG",@progbits,_ZNK8opendnp318BufferedCollectionINS_7IndexedINS_6BinaryEEEZNS_11RangeParser13InvokeRangeOfINS_10Group1Var2EEEvRKNS_12HeaderRecordERKNS_5RangeERKN7openpal6RSliceERNS_12IAPDUHandlerEEUlRSE_jE_E7ForeachERNS_8IVisitorIS3_EE,comdat
	.align 2
	.p2align 4
	.weak	_ZNK8opendnp318BufferedCollectionINS_7IndexedINS_6BinaryEEEZNS_11RangeParser13InvokeRangeOfINS_10Group1Var2EEEvRKNS_12HeaderRecordERKNS_5RangeERKN7openpal6RSliceERNS_12IAPDUHandlerEEUlRSE_jE_E7ForeachERNS_8IVisitorIS3_EE
	.type	_ZNK8opendnp318BufferedCollectionINS_7IndexedINS_6BinaryEEEZNS_11RangeParser13InvokeRangeOfINS_10Group1Var2EEEvRKNS_12HeaderRecordERKNS_5RangeERKN7openpal6RSliceERNS_12IAPDUHandlerEEUlRSE_jE_E7ForeachERNS_8IVisitorIS3_EE, @function
_ZNK8opendnp318BufferedCollectionINS_7IndexedINS_6BinaryEEEZNS_11RangeParser13InvokeRangeOfINS_10Group1Var2EEEvRKNS_12HeaderRecordERKNS_5RangeERKN7openpal6RSliceERNS_12IAPDUHandlerEEUlRSE_jE_E7ForeachERNS_8IVisitorIS3_EE:
.LFB3589:
	.cfi_startproc
	endbr64
	pushq	%r15
	.cfi_def_cfa_offset 16
	.cfi_offset 15, -16
	pushq	%r14
	.cfi_def_cfa_offset 24
	.cfi_offset 14, -24
	pushq	%r13
	.cfi_def_cfa_offset 32
	.cfi_offset 13, -32
	pushq	%r12
	.cfi_def_cfa_offset 40
	.cfi_offset 12, -40
	pushq	%rbp
	.cfi_def_cfa_offset 48
	.cfi_offset 6, -48
	pushq	%rbx
	.cfi_def_cfa_offset 56
	.cfi_offset 3, -56
	subq	$120, %rsp
	.cfi_def_cfa_offset 176
	movdqu	8(%rdi), %xmm1
	movq	%fs:40, %rax
	movq	%rax, 104(%rsp)
	xorl	%eax, %eax
	cmpq	$0, 24(%rdi)
	movaps	%xmm1, 16(%rsp)
	je	.L236
	leaq	64(%rsp), %rax
	movq	%rdi, %rbp
	movq	%rsi, %r12
	xorl	%ebx, %ebx
	movq	%rax, 8(%rsp)
	leaq	32(%rsp), %r13
	leaq	16(%rsp), %r15
	.p2align 4,,10
	.p2align 3
.L238:
	movq	(%r12), %rax
	movq	%r13, %rdi
	movq	(%rax), %r14
	call	_ZN8opendnp36BinaryC1Ev@PLT
	movq	%r13, %rsi
	movq	%r15, %rdi
	call	_ZN8opendnp310Group1Var210ReadTargetERN7openpal6RSliceERNS_6BinaryE@PLT
	movzwl	32(%rbp), %eax
	movdqa	32(%rsp), %xmm0
	movq	%r12, %rdi
	movq	48(%rsp), %rcx
	movq	8(%rsp), %rsi
	addl	%ebx, %eax
	movaps	%xmm0, 64(%rsp)
	movw	%ax, 88(%rsp)
	movq	%rcx, 80(%rsp)
	call	*%r14
	leal	1(%rbx), %eax
	movq	%rax, %rbx
	cmpq	24(%rbp), %rax
	jb	.L238
.L236:
	movq	104(%rsp), %rax
	xorq	%fs:40, %rax
	jne	.L242
	addq	$120, %rsp
	.cfi_remember_state
	.cfi_def_cfa_offset 56
	popq	%rbx
	.cfi_def_cfa_offset 48
	popq	%rbp
	.cfi_def_cfa_offset 40
	popq	%r12
	.cfi_def_cfa_offset 32
	popq	%r13
	.cfi_def_cfa_offset 24
	popq	%r14
	.cfi_def_cfa_offset 16
	popq	%r15
	.cfi_def_cfa_offset 8
	ret
.L242:
	.cfi_restore_state
	call	__stack_chk_fail@PLT
	.cfi_endproc
.LFE3589:
	.size	_ZNK8opendnp318BufferedCollectionINS_7IndexedINS_6BinaryEEEZNS_11RangeParser13InvokeRangeOfINS_10Group1Var2EEEvRKNS_12HeaderRecordERKNS_5RangeERKN7openpal6RSliceERNS_12IAPDUHandlerEEUlRSE_jE_E7ForeachERNS_8IVisitorIS3_EE, .-_ZNK8opendnp318BufferedCollectionINS_7IndexedINS_6BinaryEEEZNS_11RangeParser13InvokeRangeOfINS_10Group1Var2EEEvRKNS_12HeaderRecordERKNS_5RangeERKN7openpal6RSliceERNS_12IAPDUHandlerEEUlRSE_jE_E7ForeachERNS_8IVisitorIS3_EE
	.section	.text._ZNK8opendnp318BufferedCollectionINS_7IndexedINS_15DoubleBitBinaryEEEZNS_11RangeParser29InvokeRangeDoubleBitfieldTypeIS2_EEvRKNS_12HeaderRecordERKNS_5RangeERKN7openpal6RSliceERNS_12IAPDUHandlerEEUlRSD_jE_E7ForeachERNS_8IVisitorIS3_EE,"axG",@progbits,_ZNK8opendnp318BufferedCollectionINS_7IndexedINS_15DoubleBitBinaryEEEZNS_11RangeParser29InvokeRangeDoubleBitfieldTypeIS2_EEvRKNS_12HeaderRecordERKNS_5RangeERKN7openpal6RSliceERNS_12IAPDUHandlerEEUlRSD_jE_E7ForeachERNS_8IVisitorIS3_EE,comdat
	.align 2
	.p2align 4
	.weak	_ZNK8opendnp318BufferedCollectionINS_7IndexedINS_15DoubleBitBinaryEEEZNS_11RangeParser29InvokeRangeDoubleBitfieldTypeIS2_EEvRKNS_12HeaderRecordERKNS_5RangeERKN7openpal6RSliceERNS_12IAPDUHandlerEEUlRSD_jE_E7ForeachERNS_8IVisitorIS3_EE
	.type	_ZNK8opendnp318BufferedCollectionINS_7IndexedINS_15DoubleBitBinaryEEEZNS_11RangeParser29InvokeRangeDoubleBitfieldTypeIS2_EEvRKNS_12HeaderRecordERKNS_5RangeERKN7openpal6RSliceERNS_12IAPDUHandlerEEUlRSD_jE_E7ForeachERNS_8IVisitorIS3_EE, @function
_ZNK8opendnp318BufferedCollectionINS_7IndexedINS_15DoubleBitBinaryEEEZNS_11RangeParser29InvokeRangeDoubleBitfieldTypeIS2_EEvRKNS_12HeaderRecordERKNS_5RangeERKN7openpal6RSliceERNS_12IAPDUHandlerEEUlRSD_jE_E7ForeachERNS_8IVisitorIS3_EE:
.LFB3587:
	.cfi_startproc
	endbr64
	pushq	%r15
	.cfi_def_cfa_offset 16
	.cfi_offset 15, -16
	pushq	%r14
	.cfi_def_cfa_offset 24
	.cfi_offset 14, -24
	pushq	%r13
	.cfi_def_cfa_offset 32
	.cfi_offset 13, -32
	pushq	%r12
	.cfi_def_cfa_offset 40
	.cfi_offset 12, -40
	pushq	%rbp
	.cfi_def_cfa_offset 48
	.cfi_offset 6, -48
	pushq	%rbx
	.cfi_def_cfa_offset 56
	.cfi_offset 3, -56
	subq	$120, %rsp
	.cfi_def_cfa_offset 176
	movdqu	8(%rdi), %xmm1
	movq	%fs:40, %rax
	movq	%rax, 104(%rsp)
	xorl	%eax, %eax
	cmpq	$0, 24(%rdi)
	movaps	%xmm1, 16(%rsp)
	je	.L243
	leaq	64(%rsp), %rax
	movq	%rdi, %rbp
	movq	%rsi, %r12
	xorl	%ebx, %ebx
	movq	%rax, 8(%rsp)
	leaq	16(%rsp), %r15
	leaq	32(%rsp), %r14
	.p2align 4,,10
	.p2align 3
.L245:
	movq	(%r12), %rax
	movl	%ebx, %esi
	movq	%r15, %rdi
	movq	(%rax), %r13
	call	_ZN8opendnp312GetDoubleBitERKN7openpal6RSliceEj@PLT
	movq	%r14, %rdi
	movl	%eax, %esi
	call	_ZN8opendnp315DoubleBitBinaryC1ENS_9DoubleBitE@PLT
	movzwl	32(%rbp), %eax
	movdqa	32(%rsp), %xmm0
	movq	%r12, %rdi
	movq	48(%rsp), %rcx
	movq	8(%rsp), %rsi
	addl	%ebx, %eax
	movaps	%xmm0, 64(%rsp)
	movw	%ax, 88(%rsp)
	movq	%rcx, 80(%rsp)
	call	*%r13
	leal	1(%rbx), %eax
	movq	%rax, %rbx
	cmpq	24(%rbp), %rax
	jb	.L245
.L243:
	movq	104(%rsp), %rax
	xorq	%fs:40, %rax
	jne	.L249
	addq	$120, %rsp
	.cfi_remember_state
	.cfi_def_cfa_offset 56
	popq	%rbx
	.cfi_def_cfa_offset 48
	popq	%rbp
	.cfi_def_cfa_offset 40
	popq	%r12
	.cfi_def_cfa_offset 32
	popq	%r13
	.cfi_def_cfa_offset 24
	popq	%r14
	.cfi_def_cfa_offset 16
	popq	%r15
	.cfi_def_cfa_offset 8
	ret
.L249:
	.cfi_restore_state
	call	__stack_chk_fail@PLT
	.cfi_endproc
.LFE3587:
	.size	_ZNK8opendnp318BufferedCollectionINS_7IndexedINS_15DoubleBitBinaryEEEZNS_11RangeParser29InvokeRangeDoubleBitfieldTypeIS2_EEvRKNS_12HeaderRecordERKNS_5RangeERKN7openpal6RSliceERNS_12IAPDUHandlerEEUlRSD_jE_E7ForeachERNS_8IVisitorIS3_EE, .-_ZNK8opendnp318BufferedCollectionINS_7IndexedINS_15DoubleBitBinaryEEEZNS_11RangeParser29InvokeRangeDoubleBitfieldTypeIS2_EEvRKNS_12HeaderRecordERKNS_5RangeERKN7openpal6RSliceERNS_12IAPDUHandlerEEUlRSD_jE_E7ForeachERNS_8IVisitorIS3_EE
	.section	.text._ZNK8opendnp318BufferedCollectionINS_7IndexedINS_15DoubleBitBinaryEEEZNS_11RangeParser13InvokeRangeOfINS_10Group3Var2EEEvRKNS_12HeaderRecordERKNS_5RangeERKN7openpal6RSliceERNS_12IAPDUHandlerEEUlRSE_jE_E7ForeachERNS_8IVisitorIS3_EE,"axG",@progbits,_ZNK8opendnp318BufferedCollectionINS_7IndexedINS_15DoubleBitBinaryEEEZNS_11RangeParser13InvokeRangeOfINS_10Group3Var2EEEvRKNS_12HeaderRecordERKNS_5RangeERKN7openpal6RSliceERNS_12IAPDUHandlerEEUlRSE_jE_E7ForeachERNS_8IVisitorIS3_EE,comdat
	.align 2
	.p2align 4
	.weak	_ZNK8opendnp318BufferedCollectionINS_7IndexedINS_15DoubleBitBinaryEEEZNS_11RangeParser13InvokeRangeOfINS_10Group3Var2EEEvRKNS_12HeaderRecordERKNS_5RangeERKN7openpal6RSliceERNS_12IAPDUHandlerEEUlRSE_jE_E7ForeachERNS_8IVisitorIS3_EE
	.type	_ZNK8opendnp318BufferedCollectionINS_7IndexedINS_15DoubleBitBinaryEEEZNS_11RangeParser13InvokeRangeOfINS_10Group3Var2EEEvRKNS_12HeaderRecordERKNS_5RangeERKN7openpal6RSliceERNS_12IAPDUHandlerEEUlRSE_jE_E7ForeachERNS_8IVisitorIS3_EE, @function
_ZNK8opendnp318BufferedCollectionINS_7IndexedINS_15DoubleBitBinaryEEEZNS_11RangeParser13InvokeRangeOfINS_10Group3Var2EEEvRKNS_12HeaderRecordERKNS_5RangeERKN7openpal6RSliceERNS_12IAPDUHandlerEEUlRSE_jE_E7ForeachERNS_8IVisitorIS3_EE:
.LFB3583:
	.cfi_startproc
	endbr64
	pushq	%r15
	.cfi_def_cfa_offset 16
	.cfi_offset 15, -16
	pushq	%r14
	.cfi_def_cfa_offset 24
	.cfi_offset 14, -24
	pushq	%r13
	.cfi_def_cfa_offset 32
	.cfi_offset 13, -32
	pushq	%r12
	.cfi_def_cfa_offset 40
	.cfi_offset 12, -40
	pushq	%rbp
	.cfi_def_cfa_offset 48
	.cfi_offset 6, -48
	pushq	%rbx
	.cfi_def_cfa_offset 56
	.cfi_offset 3, -56
	subq	$120, %rsp
	.cfi_def_cfa_offset 176
	movdqu	8(%rdi), %xmm1
	movq	%fs:40, %rax
	movq	%rax, 104(%rsp)
	xorl	%eax, %eax
	cmpq	$0, 24(%rdi)
	movaps	%xmm1, 16(%rsp)
	je	.L250
	leaq	64(%rsp), %rax
	movq	%rdi, %rbp
	movq	%rsi, %r12
	xorl	%ebx, %ebx
	movq	%rax, 8(%rsp)
	leaq	32(%rsp), %r13
	leaq	16(%rsp), %r15
	.p2align 4,,10
	.p2align 3
.L252:
	movq	(%r12), %rax
	movq	%r13, %rdi
	movq	(%rax), %r14
	call	_ZN8opendnp315DoubleBitBinaryC1Ev@PLT
	movq	%r13, %rsi
	movq	%r15, %rdi
	call	_ZN8opendnp310Group3Var210ReadTargetERN7openpal6RSliceERNS_15DoubleBitBinaryE@PLT
	movzwl	32(%rbp), %eax
	movdqa	32(%rsp), %xmm0
	movq	%r12, %rdi
	movq	48(%rsp), %rcx
	movq	8(%rsp), %rsi
	addl	%ebx, %eax
	movaps	%xmm0, 64(%rsp)
	movw	%ax, 88(%rsp)
	movq	%rcx, 80(%rsp)
	call	*%r14
	leal	1(%rbx), %eax
	movq	%rax, %rbx
	cmpq	24(%rbp), %rax
	jb	.L252
.L250:
	movq	104(%rsp), %rax
	xorq	%fs:40, %rax
	jne	.L256
	addq	$120, %rsp
	.cfi_remember_state
	.cfi_def_cfa_offset 56
	popq	%rbx
	.cfi_def_cfa_offset 48
	popq	%rbp
	.cfi_def_cfa_offset 40
	popq	%r12
	.cfi_def_cfa_offset 32
	popq	%r13
	.cfi_def_cfa_offset 24
	popq	%r14
	.cfi_def_cfa_offset 16
	popq	%r15
	.cfi_def_cfa_offset 8
	ret
.L256:
	.cfi_restore_state
	call	__stack_chk_fail@PLT
	.cfi_endproc
.LFE3583:
	.size	_ZNK8opendnp318BufferedCollectionINS_7IndexedINS_15DoubleBitBinaryEEEZNS_11RangeParser13InvokeRangeOfINS_10Group3Var2EEEvRKNS_12HeaderRecordERKNS_5RangeERKN7openpal6RSliceERNS_12IAPDUHandlerEEUlRSE_jE_E7ForeachERNS_8IVisitorIS3_EE, .-_ZNK8opendnp318BufferedCollectionINS_7IndexedINS_15DoubleBitBinaryEEEZNS_11RangeParser13InvokeRangeOfINS_10Group3Var2EEEvRKNS_12HeaderRecordERKNS_5RangeERKN7openpal6RSliceERNS_12IAPDUHandlerEEUlRSE_jE_E7ForeachERNS_8IVisitorIS3_EE
	.section	.text._ZNK8opendnp318BufferedCollectionINS_7IndexedINS_18BinaryOutputStatusEEEZNS_11RangeParser23InvokeRangeBitfieldTypeIS2_EEvRKNS_12HeaderRecordERKNS_5RangeERKN7openpal6RSliceERNS_12IAPDUHandlerEEUlRSD_jE_E7ForeachERNS_8IVisitorIS3_EE,"axG",@progbits,_ZNK8opendnp318BufferedCollectionINS_7IndexedINS_18BinaryOutputStatusEEEZNS_11RangeParser23InvokeRangeBitfieldTypeIS2_EEvRKNS_12HeaderRecordERKNS_5RangeERKN7openpal6RSliceERNS_12IAPDUHandlerEEUlRSD_jE_E7ForeachERNS_8IVisitorIS3_EE,comdat
	.align 2
	.p2align 4
	.weak	_ZNK8opendnp318BufferedCollectionINS_7IndexedINS_18BinaryOutputStatusEEEZNS_11RangeParser23InvokeRangeBitfieldTypeIS2_EEvRKNS_12HeaderRecordERKNS_5RangeERKN7openpal6RSliceERNS_12IAPDUHandlerEEUlRSD_jE_E7ForeachERNS_8IVisitorIS3_EE
	.type	_ZNK8opendnp318BufferedCollectionINS_7IndexedINS_18BinaryOutputStatusEEEZNS_11RangeParser23InvokeRangeBitfieldTypeIS2_EEvRKNS_12HeaderRecordERKNS_5RangeERKN7openpal6RSliceERNS_12IAPDUHandlerEEUlRSD_jE_E7ForeachERNS_8IVisitorIS3_EE, @function
_ZNK8opendnp318BufferedCollectionINS_7IndexedINS_18BinaryOutputStatusEEEZNS_11RangeParser23InvokeRangeBitfieldTypeIS2_EEvRKNS_12HeaderRecordERKNS_5RangeERKN7openpal6RSliceERNS_12IAPDUHandlerEEUlRSD_jE_E7ForeachERNS_8IVisitorIS3_EE:
.LFB3585:
	.cfi_startproc
	endbr64
	pushq	%r15
	.cfi_def_cfa_offset 16
	.cfi_offset 15, -16
	pushq	%r14
	.cfi_def_cfa_offset 24
	.cfi_offset 14, -24
	pushq	%r13
	.cfi_def_cfa_offset 32
	.cfi_offset 13, -32
	pushq	%r12
	.cfi_def_cfa_offset 40
	.cfi_offset 12, -40
	pushq	%rbp
	.cfi_def_cfa_offset 48
	.cfi_offset 6, -48
	pushq	%rbx
	.cfi_def_cfa_offset 56
	.cfi_offset 3, -56
	subq	$120, %rsp
	.cfi_def_cfa_offset 176
	movdqu	8(%rdi), %xmm1
	movq	%fs:40, %rax
	movq	%rax, 104(%rsp)
	xorl	%eax, %eax
	cmpq	$0, 24(%rdi)
	movaps	%xmm1, 16(%rsp)
	je	.L257
	leaq	64(%rsp), %rax
	movq	%rdi, %rbp
	movq	%rsi, %r12
	xorl	%ebx, %ebx
	movq	%rax, 8(%rsp)
	leaq	16(%rsp), %r15
	leaq	32(%rsp), %r14
	.p2align 4,,10
	.p2align 3
.L259:
	movq	(%r12), %rax
	movl	%ebx, %esi
	movq	%r15, %rdi
	movq	(%rax), %r13
	call	_ZN8opendnp36GetBitERKN7openpal6RSliceEj@PLT
	movq	%r14, %rdi
	movzbl	%al, %esi
	call	_ZN8opendnp318BinaryOutputStatusC1Eb@PLT
	movzwl	32(%rbp), %eax
	movdqa	32(%rsp), %xmm0
	movq	%r12, %rdi
	movq	48(%rsp), %rcx
	movq	8(%rsp), %rsi
	addl	%ebx, %eax
	movaps	%xmm0, 64(%rsp)
	movw	%ax, 88(%rsp)
	movq	%rcx, 80(%rsp)
	call	*%r13
	leal	1(%rbx), %eax
	movq	%rax, %rbx
	cmpq	24(%rbp), %rax
	jb	.L259
.L257:
	movq	104(%rsp), %rax
	xorq	%fs:40, %rax
	jne	.L263
	addq	$120, %rsp
	.cfi_remember_state
	.cfi_def_cfa_offset 56
	popq	%rbx
	.cfi_def_cfa_offset 48
	popq	%rbp
	.cfi_def_cfa_offset 40
	popq	%r12
	.cfi_def_cfa_offset 32
	popq	%r13
	.cfi_def_cfa_offset 24
	popq	%r14
	.cfi_def_cfa_offset 16
	popq	%r15
	.cfi_def_cfa_offset 8
	ret
.L263:
	.cfi_restore_state
	call	__stack_chk_fail@PLT
	.cfi_endproc
.LFE3585:
	.size	_ZNK8opendnp318BufferedCollectionINS_7IndexedINS_18BinaryOutputStatusEEEZNS_11RangeParser23InvokeRangeBitfieldTypeIS2_EEvRKNS_12HeaderRecordERKNS_5RangeERKN7openpal6RSliceERNS_12IAPDUHandlerEEUlRSD_jE_E7ForeachERNS_8IVisitorIS3_EE, .-_ZNK8opendnp318BufferedCollectionINS_7IndexedINS_18BinaryOutputStatusEEEZNS_11RangeParser23InvokeRangeBitfieldTypeIS2_EEvRKNS_12HeaderRecordERKNS_5RangeERKN7openpal6RSliceERNS_12IAPDUHandlerEEUlRSD_jE_E7ForeachERNS_8IVisitorIS3_EE
	.section	.text._ZNK8opendnp318BufferedCollectionINS_7IndexedINS_18BinaryOutputStatusEEEZNS_11RangeParser13InvokeRangeOfINS_11Group10Var2EEEvRKNS_12HeaderRecordERKNS_5RangeERKN7openpal6RSliceERNS_12IAPDUHandlerEEUlRSE_jE_E7ForeachERNS_8IVisitorIS3_EE,"axG",@progbits,_ZNK8opendnp318BufferedCollectionINS_7IndexedINS_18BinaryOutputStatusEEEZNS_11RangeParser13InvokeRangeOfINS_11Group10Var2EEEvRKNS_12HeaderRecordERKNS_5RangeERKN7openpal6RSliceERNS_12IAPDUHandlerEEUlRSE_jE_E7ForeachERNS_8IVisitorIS3_EE,comdat
	.align 2
	.p2align 4
	.weak	_ZNK8opendnp318BufferedCollectionINS_7IndexedINS_18BinaryOutputStatusEEEZNS_11RangeParser13InvokeRangeOfINS_11Group10Var2EEEvRKNS_12HeaderRecordERKNS_5RangeERKN7openpal6RSliceERNS_12IAPDUHandlerEEUlRSE_jE_E7ForeachERNS_8IVisitorIS3_EE
	.type	_ZNK8opendnp318BufferedCollectionINS_7IndexedINS_18BinaryOutputStatusEEEZNS_11RangeParser13InvokeRangeOfINS_11Group10Var2EEEvRKNS_12HeaderRecordERKNS_5RangeERKN7openpal6RSliceERNS_12IAPDUHandlerEEUlRSE_jE_E7ForeachERNS_8IVisitorIS3_EE, @function
_ZNK8opendnp318BufferedCollectionINS_7IndexedINS_18BinaryOutputStatusEEEZNS_11RangeParser13InvokeRangeOfINS_11Group10Var2EEEvRKNS_12HeaderRecordERKNS_5RangeERKN7openpal6RSliceERNS_12IAPDUHandlerEEUlRSE_jE_E7ForeachERNS_8IVisitorIS3_EE:
.LFB3581:
	.cfi_startproc
	endbr64
	pushq	%r15
	.cfi_def_cfa_offset 16
	.cfi_offset 15, -16
	pushq	%r14
	.cfi_def_cfa_offset 24
	.cfi_offset 14, -24
	pushq	%r13
	.cfi_def_cfa_offset 32
	.cfi_offset 13, -32
	pushq	%r12
	.cfi_def_cfa_offset 40
	.cfi_offset 12, -40
	pushq	%rbp
	.cfi_def_cfa_offset 48
	.cfi_offset 6, -48
	pushq	%rbx
	.cfi_def_cfa_offset 56
	.cfi_offset 3, -56
	subq	$120, %rsp
	.cfi_def_cfa_offset 176
	movdqu	8(%rdi), %xmm1
	movq	%fs:40, %rax
	movq	%rax, 104(%rsp)
	xorl	%eax, %eax
	cmpq	$0, 24(%rdi)
	movaps	%xmm1, 16(%rsp)
	je	.L264
	leaq	64(%rsp), %rax
	movq	%rdi, %rbp
	movq	%rsi, %r12
	xorl	%ebx, %ebx
	movq	%rax, 8(%rsp)
	leaq	32(%rsp), %r13
	leaq	16(%rsp), %r15
	.p2align 4,,10
	.p2align 3
.L266:
	movq	(%r12), %rax
	movq	%r13, %rdi
	movq	(%rax), %r14
	call	_ZN8opendnp318BinaryOutputStatusC1Ev@PLT
	movq	%r13, %rsi
	movq	%r15, %rdi
	call	_ZN8opendnp311Group10Var210ReadTargetERN7openpal6RSliceERNS_18BinaryOutputStatusE@PLT
	movzwl	32(%rbp), %eax
	movdqa	32(%rsp), %xmm0
	movq	%r12, %rdi
	movq	48(%rsp), %rcx
	movq	8(%rsp), %rsi
	addl	%ebx, %eax
	movaps	%xmm0, 64(%rsp)
	movw	%ax, 88(%rsp)
	movq	%rcx, 80(%rsp)
	call	*%r14
	leal	1(%rbx), %eax
	movq	%rax, %rbx
	cmpq	24(%rbp), %rax
	jb	.L266
.L264:
	movq	104(%rsp), %rax
	xorq	%fs:40, %rax
	jne	.L270
	addq	$120, %rsp
	.cfi_remember_state
	.cfi_def_cfa_offset 56
	popq	%rbx
	.cfi_def_cfa_offset 48
	popq	%rbp
	.cfi_def_cfa_offset 40
	popq	%r12
	.cfi_def_cfa_offset 32
	popq	%r13
	.cfi_def_cfa_offset 24
	popq	%r14
	.cfi_def_cfa_offset 16
	popq	%r15
	.cfi_def_cfa_offset 8
	ret
.L270:
	.cfi_restore_state
	call	__stack_chk_fail@PLT
	.cfi_endproc
.LFE3581:
	.size	_ZNK8opendnp318BufferedCollectionINS_7IndexedINS_18BinaryOutputStatusEEEZNS_11RangeParser13InvokeRangeOfINS_11Group10Var2EEEvRKNS_12HeaderRecordERKNS_5RangeERKN7openpal6RSliceERNS_12IAPDUHandlerEEUlRSE_jE_E7ForeachERNS_8IVisitorIS3_EE, .-_ZNK8opendnp318BufferedCollectionINS_7IndexedINS_18BinaryOutputStatusEEEZNS_11RangeParser13InvokeRangeOfINS_11Group10Var2EEEvRKNS_12HeaderRecordERKNS_5RangeERKN7openpal6RSliceERNS_12IAPDUHandlerEEUlRSE_jE_E7ForeachERNS_8IVisitorIS3_EE
	.section	.text._ZNK8opendnp318BufferedCollectionINS_7IndexedINS_7CounterEEEZNS_11RangeParser13InvokeRangeOfINS_11Group20Var1EEEvRKNS_12HeaderRecordERKNS_5RangeERKN7openpal6RSliceERNS_12IAPDUHandlerEEUlRSE_jE_E7ForeachERNS_8IVisitorIS3_EE,"axG",@progbits,_ZNK8opendnp318BufferedCollectionINS_7IndexedINS_7CounterEEEZNS_11RangeParser13InvokeRangeOfINS_11Group20Var1EEEvRKNS_12HeaderRecordERKNS_5RangeERKN7openpal6RSliceERNS_12IAPDUHandlerEEUlRSE_jE_E7ForeachERNS_8IVisitorIS3_EE,comdat
	.align 2
	.p2align 4
	.weak	_ZNK8opendnp318BufferedCollectionINS_7IndexedINS_7CounterEEEZNS_11RangeParser13InvokeRangeOfINS_11Group20Var1EEEvRKNS_12HeaderRecordERKNS_5RangeERKN7openpal6RSliceERNS_12IAPDUHandlerEEUlRSE_jE_E7ForeachERNS_8IVisitorIS3_EE
	.type	_ZNK8opendnp318BufferedCollectionINS_7IndexedINS_7CounterEEEZNS_11RangeParser13InvokeRangeOfINS_11Group20Var1EEEvRKNS_12HeaderRecordERKNS_5RangeERKN7openpal6RSliceERNS_12IAPDUHandlerEEUlRSE_jE_E7ForeachERNS_8IVisitorIS3_EE, @function
_ZNK8opendnp318BufferedCollectionINS_7IndexedINS_7CounterEEEZNS_11RangeParser13InvokeRangeOfINS_11Group20Var1EEEvRKNS_12HeaderRecordERKNS_5RangeERKN7openpal6RSliceERNS_12IAPDUHandlerEEUlRSE_jE_E7ForeachERNS_8IVisitorIS3_EE:
.LFB3579:
	.cfi_startproc
	endbr64
	pushq	%r15
	.cfi_def_cfa_offset 16
	.cfi_offset 15, -16
	pushq	%r14
	.cfi_def_cfa_offset 24
	.cfi_offset 14, -24
	pushq	%r13
	.cfi_def_cfa_offset 32
	.cfi_offset 13, -32
	pushq	%r12
	.cfi_def_cfa_offset 40
	.cfi_offset 12, -40
	pushq	%rbp
	.cfi_def_cfa_offset 48
	.cfi_offset 6, -48
	pushq	%rbx
	.cfi_def_cfa_offset 56
	.cfi_offset 3, -56
	subq	$120, %rsp
	.cfi_def_cfa_offset 176
	movdqu	8(%rdi), %xmm1
	movq	%fs:40, %rax
	movq	%rax, 104(%rsp)
	xorl	%eax, %eax
	cmpq	$0, 24(%rdi)
	movaps	%xmm1, 16(%rsp)
	je	.L271
	leaq	64(%rsp), %rax
	movq	%rdi, %rbp
	movq	%rsi, %r12
	xorl	%ebx, %ebx
	movq	%rax, 8(%rsp)
	leaq	32(%rsp), %r13
	leaq	16(%rsp), %r15
	.p2align 4,,10
	.p2align 3
.L273:
	movq	(%r12), %rax
	movq	%r13, %rdi
	movq	(%rax), %r14
	call	_ZN8opendnp37CounterC1Ev@PLT
	movq	%r13, %rsi
	movq	%r15, %rdi
	call	_ZN8opendnp311Group20Var110ReadTargetERN7openpal6RSliceERNS_7CounterE@PLT
	movzwl	32(%rbp), %eax
	movdqa	32(%rsp), %xmm0
	movq	%r12, %rdi
	movq	48(%rsp), %rcx
	movq	8(%rsp), %rsi
	addl	%ebx, %eax
	movaps	%xmm0, 64(%rsp)
	movw	%ax, 88(%rsp)
	movq	%rcx, 80(%rsp)
	call	*%r14
	leal	1(%rbx), %eax
	movq	%rax, %rbx
	cmpq	24(%rbp), %rax
	jb	.L273
.L271:
	movq	104(%rsp), %rax
	xorq	%fs:40, %rax
	jne	.L277
	addq	$120, %rsp
	.cfi_remember_state
	.cfi_def_cfa_offset 56
	popq	%rbx
	.cfi_def_cfa_offset 48
	popq	%rbp
	.cfi_def_cfa_offset 40
	popq	%r12
	.cfi_def_cfa_offset 32
	popq	%r13
	.cfi_def_cfa_offset 24
	popq	%r14
	.cfi_def_cfa_offset 16
	popq	%r15
	.cfi_def_cfa_offset 8
	ret
.L277:
	.cfi_restore_state
	call	__stack_chk_fail@PLT
	.cfi_endproc
.LFE3579:
	.size	_ZNK8opendnp318BufferedCollectionINS_7IndexedINS_7CounterEEEZNS_11RangeParser13InvokeRangeOfINS_11Group20Var1EEEvRKNS_12HeaderRecordERKNS_5RangeERKN7openpal6RSliceERNS_12IAPDUHandlerEEUlRSE_jE_E7ForeachERNS_8IVisitorIS3_EE, .-_ZNK8opendnp318BufferedCollectionINS_7IndexedINS_7CounterEEEZNS_11RangeParser13InvokeRangeOfINS_11Group20Var1EEEvRKNS_12HeaderRecordERKNS_5RangeERKN7openpal6RSliceERNS_12IAPDUHandlerEEUlRSE_jE_E7ForeachERNS_8IVisitorIS3_EE
	.section	.text._ZNK8opendnp318BufferedCollectionINS_7IndexedINS_7CounterEEEZNS_11RangeParser13InvokeRangeOfINS_11Group20Var2EEEvRKNS_12HeaderRecordERKNS_5RangeERKN7openpal6RSliceERNS_12IAPDUHandlerEEUlRSE_jE_E7ForeachERNS_8IVisitorIS3_EE,"axG",@progbits,_ZNK8opendnp318BufferedCollectionINS_7IndexedINS_7CounterEEEZNS_11RangeParser13InvokeRangeOfINS_11Group20Var2EEEvRKNS_12HeaderRecordERKNS_5RangeERKN7openpal6RSliceERNS_12IAPDUHandlerEEUlRSE_jE_E7ForeachERNS_8IVisitorIS3_EE,comdat
	.align 2
	.p2align 4
	.weak	_ZNK8opendnp318BufferedCollectionINS_7IndexedINS_7CounterEEEZNS_11RangeParser13InvokeRangeOfINS_11Group20Var2EEEvRKNS_12HeaderRecordERKNS_5RangeERKN7openpal6RSliceERNS_12IAPDUHandlerEEUlRSE_jE_E7ForeachERNS_8IVisitorIS3_EE
	.type	_ZNK8opendnp318BufferedCollectionINS_7IndexedINS_7CounterEEEZNS_11RangeParser13InvokeRangeOfINS_11Group20Var2EEEvRKNS_12HeaderRecordERKNS_5RangeERKN7openpal6RSliceERNS_12IAPDUHandlerEEUlRSE_jE_E7ForeachERNS_8IVisitorIS3_EE, @function
_ZNK8opendnp318BufferedCollectionINS_7IndexedINS_7CounterEEEZNS_11RangeParser13InvokeRangeOfINS_11Group20Var2EEEvRKNS_12HeaderRecordERKNS_5RangeERKN7openpal6RSliceERNS_12IAPDUHandlerEEUlRSE_jE_E7ForeachERNS_8IVisitorIS3_EE:
.LFB3577:
	.cfi_startproc
	endbr64
	pushq	%r15
	.cfi_def_cfa_offset 16
	.cfi_offset 15, -16
	pushq	%r14
	.cfi_def_cfa_offset 24
	.cfi_offset 14, -24
	pushq	%r13
	.cfi_def_cfa_offset 32
	.cfi_offset 13, -32
	pushq	%r12
	.cfi_def_cfa_offset 40
	.cfi_offset 12, -40
	pushq	%rbp
	.cfi_def_cfa_offset 48
	.cfi_offset 6, -48
	pushq	%rbx
	.cfi_def_cfa_offset 56
	.cfi_offset 3, -56
	subq	$120, %rsp
	.cfi_def_cfa_offset 176
	movdqu	8(%rdi), %xmm1
	movq	%fs:40, %rax
	movq	%rax, 104(%rsp)
	xorl	%eax, %eax
	cmpq	$0, 24(%rdi)
	movaps	%xmm1, 16(%rsp)
	je	.L278
	leaq	64(%rsp), %rax
	movq	%rdi, %rbp
	movq	%rsi, %r12
	xorl	%ebx, %ebx
	movq	%rax, 8(%rsp)
	leaq	32(%rsp), %r13
	leaq	16(%rsp), %r15
	.p2align 4,,10
	.p2align 3
.L280:
	movq	(%r12), %rax
	movq	%r13, %rdi
	movq	(%rax), %r14
	call	_ZN8opendnp37CounterC1Ev@PLT
	movq	%r13, %rsi
	movq	%r15, %rdi
	call	_ZN8opendnp311Group20Var210ReadTargetERN7openpal6RSliceERNS_7CounterE@PLT
	movzwl	32(%rbp), %eax
	movdqa	32(%rsp), %xmm0
	movq	%r12, %rdi
	movq	48(%rsp), %rcx
	movq	8(%rsp), %rsi
	addl	%ebx, %eax
	movaps	%xmm0, 64(%rsp)
	movw	%ax, 88(%rsp)
	movq	%rcx, 80(%rsp)
	call	*%r14
	leal	1(%rbx), %eax
	movq	%rax, %rbx
	cmpq	24(%rbp), %rax
	jb	.L280
.L278:
	movq	104(%rsp), %rax
	xorq	%fs:40, %rax
	jne	.L284
	addq	$120, %rsp
	.cfi_remember_state
	.cfi_def_cfa_offset 56
	popq	%rbx
	.cfi_def_cfa_offset 48
	popq	%rbp
	.cfi_def_cfa_offset 40
	popq	%r12
	.cfi_def_cfa_offset 32
	popq	%r13
	.cfi_def_cfa_offset 24
	popq	%r14
	.cfi_def_cfa_offset 16
	popq	%r15
	.cfi_def_cfa_offset 8
	ret
.L284:
	.cfi_restore_state
	call	__stack_chk_fail@PLT
	.cfi_endproc
.LFE3577:
	.size	_ZNK8opendnp318BufferedCollectionINS_7IndexedINS_7CounterEEEZNS_11RangeParser13InvokeRangeOfINS_11Group20Var2EEEvRKNS_12HeaderRecordERKNS_5RangeERKN7openpal6RSliceERNS_12IAPDUHandlerEEUlRSE_jE_E7ForeachERNS_8IVisitorIS3_EE, .-_ZNK8opendnp318BufferedCollectionINS_7IndexedINS_7CounterEEEZNS_11RangeParser13InvokeRangeOfINS_11Group20Var2EEEvRKNS_12HeaderRecordERKNS_5RangeERKN7openpal6RSliceERNS_12IAPDUHandlerEEUlRSE_jE_E7ForeachERNS_8IVisitorIS3_EE
	.section	.text._ZNK8opendnp318BufferedCollectionINS_7IndexedINS_7CounterEEEZNS_11RangeParser13InvokeRangeOfINS_11Group20Var5EEEvRKNS_12HeaderRecordERKNS_5RangeERKN7openpal6RSliceERNS_12IAPDUHandlerEEUlRSE_jE_E7ForeachERNS_8IVisitorIS3_EE,"axG",@progbits,_ZNK8opendnp318BufferedCollectionINS_7IndexedINS_7CounterEEEZNS_11RangeParser13InvokeRangeOfINS_11Group20Var5EEEvRKNS_12HeaderRecordERKNS_5RangeERKN7openpal6RSliceERNS_12IAPDUHandlerEEUlRSE_jE_E7ForeachERNS_8IVisitorIS3_EE,comdat
	.align 2
	.p2align 4
	.weak	_ZNK8opendnp318BufferedCollectionINS_7IndexedINS_7CounterEEEZNS_11RangeParser13InvokeRangeOfINS_11Group20Var5EEEvRKNS_12HeaderRecordERKNS_5RangeERKN7openpal6RSliceERNS_12IAPDUHandlerEEUlRSE_jE_E7ForeachERNS_8IVisitorIS3_EE
	.type	_ZNK8opendnp318BufferedCollectionINS_7IndexedINS_7CounterEEEZNS_11RangeParser13InvokeRangeOfINS_11Group20Var5EEEvRKNS_12HeaderRecordERKNS_5RangeERKN7openpal6RSliceERNS_12IAPDUHandlerEEUlRSE_jE_E7ForeachERNS_8IVisitorIS3_EE, @function
_ZNK8opendnp318BufferedCollectionINS_7IndexedINS_7CounterEEEZNS_11RangeParser13InvokeRangeOfINS_11Group20Var5EEEvRKNS_12HeaderRecordERKNS_5RangeERKN7openpal6RSliceERNS_12IAPDUHandlerEEUlRSE_jE_E7ForeachERNS_8IVisitorIS3_EE:
.LFB3575:
	.cfi_startproc
	endbr64
	pushq	%r15
	.cfi_def_cfa_offset 16
	.cfi_offset 15, -16
	pushq	%r14
	.cfi_def_cfa_offset 24
	.cfi_offset 14, -24
	pushq	%r13
	.cfi_def_cfa_offset 32
	.cfi_offset 13, -32
	pushq	%r12
	.cfi_def_cfa_offset 40
	.cfi_offset 12, -40
	pushq	%rbp
	.cfi_def_cfa_offset 48
	.cfi_offset 6, -48
	pushq	%rbx
	.cfi_def_cfa_offset 56
	.cfi_offset 3, -56
	subq	$120, %rsp
	.cfi_def_cfa_offset 176
	movdqu	8(%rdi), %xmm1
	movq	%fs:40, %rax
	movq	%rax, 104(%rsp)
	xorl	%eax, %eax
	cmpq	$0, 24(%rdi)
	movaps	%xmm1, 16(%rsp)
	je	.L285
	leaq	64(%rsp), %rax
	movq	%rdi, %rbp
	movq	%rsi, %r12
	xorl	%ebx, %ebx
	movq	%rax, 8(%rsp)
	leaq	32(%rsp), %r13
	leaq	16(%rsp), %r15
	.p2align 4,,10
	.p2align 3
.L287:
	movq	(%r12), %rax
	movq	%r13, %rdi
	movq	(%rax), %r14
	call	_ZN8opendnp37CounterC1Ev@PLT
	movq	%r13, %rsi
	movq	%r15, %rdi
	call	_ZN8opendnp311Group20Var510ReadTargetERN7openpal6RSliceERNS_7CounterE@PLT
	movzwl	32(%rbp), %eax
	movdqa	32(%rsp), %xmm0
	movq	%r12, %rdi
	movq	48(%rsp), %rcx
	movq	8(%rsp), %rsi
	addl	%ebx, %eax
	movaps	%xmm0, 64(%rsp)
	movw	%ax, 88(%rsp)
	movq	%rcx, 80(%rsp)
	call	*%r14
	leal	1(%rbx), %eax
	movq	%rax, %rbx
	cmpq	24(%rbp), %rax
	jb	.L287
.L285:
	movq	104(%rsp), %rax
	xorq	%fs:40, %rax
	jne	.L291
	addq	$120, %rsp
	.cfi_remember_state
	.cfi_def_cfa_offset 56
	popq	%rbx
	.cfi_def_cfa_offset 48
	popq	%rbp
	.cfi_def_cfa_offset 40
	popq	%r12
	.cfi_def_cfa_offset 32
	popq	%r13
	.cfi_def_cfa_offset 24
	popq	%r14
	.cfi_def_cfa_offset 16
	popq	%r15
	.cfi_def_cfa_offset 8
	ret
.L291:
	.cfi_restore_state
	call	__stack_chk_fail@PLT
	.cfi_endproc
.LFE3575:
	.size	_ZNK8opendnp318BufferedCollectionINS_7IndexedINS_7CounterEEEZNS_11RangeParser13InvokeRangeOfINS_11Group20Var5EEEvRKNS_12HeaderRecordERKNS_5RangeERKN7openpal6RSliceERNS_12IAPDUHandlerEEUlRSE_jE_E7ForeachERNS_8IVisitorIS3_EE, .-_ZNK8opendnp318BufferedCollectionINS_7IndexedINS_7CounterEEEZNS_11RangeParser13InvokeRangeOfINS_11Group20Var5EEEvRKNS_12HeaderRecordERKNS_5RangeERKN7openpal6RSliceERNS_12IAPDUHandlerEEUlRSE_jE_E7ForeachERNS_8IVisitorIS3_EE
	.section	.text._ZNK8opendnp318BufferedCollectionINS_7IndexedINS_7CounterEEEZNS_11RangeParser13InvokeRangeOfINS_11Group20Var6EEEvRKNS_12HeaderRecordERKNS_5RangeERKN7openpal6RSliceERNS_12IAPDUHandlerEEUlRSE_jE_E7ForeachERNS_8IVisitorIS3_EE,"axG",@progbits,_ZNK8opendnp318BufferedCollectionINS_7IndexedINS_7CounterEEEZNS_11RangeParser13InvokeRangeOfINS_11Group20Var6EEEvRKNS_12HeaderRecordERKNS_5RangeERKN7openpal6RSliceERNS_12IAPDUHandlerEEUlRSE_jE_E7ForeachERNS_8IVisitorIS3_EE,comdat
	.align 2
	.p2align 4
	.weak	_ZNK8opendnp318BufferedCollectionINS_7IndexedINS_7CounterEEEZNS_11RangeParser13InvokeRangeOfINS_11Group20Var6EEEvRKNS_12HeaderRecordERKNS_5RangeERKN7openpal6RSliceERNS_12IAPDUHandlerEEUlRSE_jE_E7ForeachERNS_8IVisitorIS3_EE
	.type	_ZNK8opendnp318BufferedCollectionINS_7IndexedINS_7CounterEEEZNS_11RangeParser13InvokeRangeOfINS_11Group20Var6EEEvRKNS_12HeaderRecordERKNS_5RangeERKN7openpal6RSliceERNS_12IAPDUHandlerEEUlRSE_jE_E7ForeachERNS_8IVisitorIS3_EE, @function
_ZNK8opendnp318BufferedCollectionINS_7IndexedINS_7CounterEEEZNS_11RangeParser13InvokeRangeOfINS_11Group20Var6EEEvRKNS_12HeaderRecordERKNS_5RangeERKN7openpal6RSliceERNS_12IAPDUHandlerEEUlRSE_jE_E7ForeachERNS_8IVisitorIS3_EE:
.LFB3573:
	.cfi_startproc
	endbr64
	pushq	%r15
	.cfi_def_cfa_offset 16
	.cfi_offset 15, -16
	pushq	%r14
	.cfi_def_cfa_offset 24
	.cfi_offset 14, -24
	pushq	%r13
	.cfi_def_cfa_offset 32
	.cfi_offset 13, -32
	pushq	%r12
	.cfi_def_cfa_offset 40
	.cfi_offset 12, -40
	pushq	%rbp
	.cfi_def_cfa_offset 48
	.cfi_offset 6, -48
	pushq	%rbx
	.cfi_def_cfa_offset 56
	.cfi_offset 3, -56
	subq	$120, %rsp
	.cfi_def_cfa_offset 176
	movdqu	8(%rdi), %xmm1
	movq	%fs:40, %rax
	movq	%rax, 104(%rsp)
	xorl	%eax, %eax
	cmpq	$0, 24(%rdi)
	movaps	%xmm1, 16(%rsp)
	je	.L292
	leaq	64(%rsp), %rax
	movq	%rdi, %rbp
	movq	%rsi, %r12
	xorl	%ebx, %ebx
	movq	%rax, 8(%rsp)
	leaq	32(%rsp), %r13
	leaq	16(%rsp), %r15
	.p2align 4,,10
	.p2align 3
.L294:
	movq	(%r12), %rax
	movq	%r13, %rdi
	movq	(%rax), %r14
	call	_ZN8opendnp37CounterC1Ev@PLT
	movq	%r13, %rsi
	movq	%r15, %rdi
	call	_ZN8opendnp311Group20Var610ReadTargetERN7openpal6RSliceERNS_7CounterE@PLT
	movzwl	32(%rbp), %eax
	movdqa	32(%rsp), %xmm0
	movq	%r12, %rdi
	movq	48(%rsp), %rcx
	movq	8(%rsp), %rsi
	addl	%ebx, %eax
	movaps	%xmm0, 64(%rsp)
	movw	%ax, 88(%rsp)
	movq	%rcx, 80(%rsp)
	call	*%r14
	leal	1(%rbx), %eax
	movq	%rax, %rbx
	cmpq	24(%rbp), %rax
	jb	.L294
.L292:
	movq	104(%rsp), %rax
	xorq	%fs:40, %rax
	jne	.L298
	addq	$120, %rsp
	.cfi_remember_state
	.cfi_def_cfa_offset 56
	popq	%rbx
	.cfi_def_cfa_offset 48
	popq	%rbp
	.cfi_def_cfa_offset 40
	popq	%r12
	.cfi_def_cfa_offset 32
	popq	%r13
	.cfi_def_cfa_offset 24
	popq	%r14
	.cfi_def_cfa_offset 16
	popq	%r15
	.cfi_def_cfa_offset 8
	ret
.L298:
	.cfi_restore_state
	call	__stack_chk_fail@PLT
	.cfi_endproc
.LFE3573:
	.size	_ZNK8opendnp318BufferedCollectionINS_7IndexedINS_7CounterEEEZNS_11RangeParser13InvokeRangeOfINS_11Group20Var6EEEvRKNS_12HeaderRecordERKNS_5RangeERKN7openpal6RSliceERNS_12IAPDUHandlerEEUlRSE_jE_E7ForeachERNS_8IVisitorIS3_EE, .-_ZNK8opendnp318BufferedCollectionINS_7IndexedINS_7CounterEEEZNS_11RangeParser13InvokeRangeOfINS_11Group20Var6EEEvRKNS_12HeaderRecordERKNS_5RangeERKN7openpal6RSliceERNS_12IAPDUHandlerEEUlRSE_jE_E7ForeachERNS_8IVisitorIS3_EE
	.section	.text._ZNK8opendnp318BufferedCollectionINS_7IndexedINS_13FrozenCounterEEEZNS_11RangeParser13InvokeRangeOfINS_11Group21Var1EEEvRKNS_12HeaderRecordERKNS_5RangeERKN7openpal6RSliceERNS_12IAPDUHandlerEEUlRSE_jE_E7ForeachERNS_8IVisitorIS3_EE,"axG",@progbits,_ZNK8opendnp318BufferedCollectionINS_7IndexedINS_13FrozenCounterEEEZNS_11RangeParser13InvokeRangeOfINS_11Group21Var1EEEvRKNS_12HeaderRecordERKNS_5RangeERKN7openpal6RSliceERNS_12IAPDUHandlerEEUlRSE_jE_E7ForeachERNS_8IVisitorIS3_EE,comdat
	.align 2
	.p2align 4
	.weak	_ZNK8opendnp318BufferedCollectionINS_7IndexedINS_13FrozenCounterEEEZNS_11RangeParser13InvokeRangeOfINS_11Group21Var1EEEvRKNS_12HeaderRecordERKNS_5RangeERKN7openpal6RSliceERNS_12IAPDUHandlerEEUlRSE_jE_E7ForeachERNS_8IVisitorIS3_EE
	.type	_ZNK8opendnp318BufferedCollectionINS_7IndexedINS_13FrozenCounterEEEZNS_11RangeParser13InvokeRangeOfINS_11Group21Var1EEEvRKNS_12HeaderRecordERKNS_5RangeERKN7openpal6RSliceERNS_12IAPDUHandlerEEUlRSE_jE_E7ForeachERNS_8IVisitorIS3_EE, @function
_ZNK8opendnp318BufferedCollectionINS_7IndexedINS_13FrozenCounterEEEZNS_11RangeParser13InvokeRangeOfINS_11Group21Var1EEEvRKNS_12HeaderRecordERKNS_5RangeERKN7openpal6RSliceERNS_12IAPDUHandlerEEUlRSE_jE_E7ForeachERNS_8IVisitorIS3_EE:
.LFB3571:
	.cfi_startproc
	endbr64
	pushq	%r15
	.cfi_def_cfa_offset 16
	.cfi_offset 15, -16
	pushq	%r14
	.cfi_def_cfa_offset 24
	.cfi_offset 14, -24
	pushq	%r13
	.cfi_def_cfa_offset 32
	.cfi_offset 13, -32
	pushq	%r12
	.cfi_def_cfa_offset 40
	.cfi_offset 12, -40
	pushq	%rbp
	.cfi_def_cfa_offset 48
	.cfi_offset 6, -48
	pushq	%rbx
	.cfi_def_cfa_offset 56
	.cfi_offset 3, -56
	subq	$120, %rsp
	.cfi_def_cfa_offset 176
	movdqu	8(%rdi), %xmm1
	movq	%fs:40, %rax
	movq	%rax, 104(%rsp)
	xorl	%eax, %eax
	cmpq	$0, 24(%rdi)
	movaps	%xmm1, 16(%rsp)
	je	.L299
	leaq	64(%rsp), %rax
	movq	%rdi, %rbp
	movq	%rsi, %r12
	xorl	%ebx, %ebx
	movq	%rax, 8(%rsp)
	leaq	32(%rsp), %r13
	leaq	16(%rsp), %r15
	.p2align 4,,10
	.p2align 3
.L301:
	movq	(%r12), %rax
	movq	%r13, %rdi
	movq	(%rax), %r14
	call	_ZN8opendnp313FrozenCounterC1Ev@PLT
	movq	%r13, %rsi
	movq	%r15, %rdi
	call	_ZN8opendnp311Group21Var110ReadTargetERN7openpal6RSliceERNS_13FrozenCounterE@PLT
	movzwl	32(%rbp), %eax
	movdqa	32(%rsp), %xmm0
	movq	%r12, %rdi
	movq	48(%rsp), %rcx
	movq	8(%rsp), %rsi
	addl	%ebx, %eax
	movaps	%xmm0, 64(%rsp)
	movw	%ax, 88(%rsp)
	movq	%rcx, 80(%rsp)
	call	*%r14
	leal	1(%rbx), %eax
	movq	%rax, %rbx
	cmpq	24(%rbp), %rax
	jb	.L301
.L299:
	movq	104(%rsp), %rax
	xorq	%fs:40, %rax
	jne	.L305
	addq	$120, %rsp
	.cfi_remember_state
	.cfi_def_cfa_offset 56
	popq	%rbx
	.cfi_def_cfa_offset 48
	popq	%rbp
	.cfi_def_cfa_offset 40
	popq	%r12
	.cfi_def_cfa_offset 32
	popq	%r13
	.cfi_def_cfa_offset 24
	popq	%r14
	.cfi_def_cfa_offset 16
	popq	%r15
	.cfi_def_cfa_offset 8
	ret
.L305:
	.cfi_restore_state
	call	__stack_chk_fail@PLT
	.cfi_endproc
.LFE3571:
	.size	_ZNK8opendnp318BufferedCollectionINS_7IndexedINS_13FrozenCounterEEEZNS_11RangeParser13InvokeRangeOfINS_11Group21Var1EEEvRKNS_12HeaderRecordERKNS_5RangeERKN7openpal6RSliceERNS_12IAPDUHandlerEEUlRSE_jE_E7ForeachERNS_8IVisitorIS3_EE, .-_ZNK8opendnp318BufferedCollectionINS_7IndexedINS_13FrozenCounterEEEZNS_11RangeParser13InvokeRangeOfINS_11Group21Var1EEEvRKNS_12HeaderRecordERKNS_5RangeERKN7openpal6RSliceERNS_12IAPDUHandlerEEUlRSE_jE_E7ForeachERNS_8IVisitorIS3_EE
	.section	.text._ZNK8opendnp318BufferedCollectionINS_7IndexedINS_13FrozenCounterEEEZNS_11RangeParser13InvokeRangeOfINS_11Group21Var2EEEvRKNS_12HeaderRecordERKNS_5RangeERKN7openpal6RSliceERNS_12IAPDUHandlerEEUlRSE_jE_E7ForeachERNS_8IVisitorIS3_EE,"axG",@progbits,_ZNK8opendnp318BufferedCollectionINS_7IndexedINS_13FrozenCounterEEEZNS_11RangeParser13InvokeRangeOfINS_11Group21Var2EEEvRKNS_12HeaderRecordERKNS_5RangeERKN7openpal6RSliceERNS_12IAPDUHandlerEEUlRSE_jE_E7ForeachERNS_8IVisitorIS3_EE,comdat
	.align 2
	.p2align 4
	.weak	_ZNK8opendnp318BufferedCollectionINS_7IndexedINS_13FrozenCounterEEEZNS_11RangeParser13InvokeRangeOfINS_11Group21Var2EEEvRKNS_12HeaderRecordERKNS_5RangeERKN7openpal6RSliceERNS_12IAPDUHandlerEEUlRSE_jE_E7ForeachERNS_8IVisitorIS3_EE
	.type	_ZNK8opendnp318BufferedCollectionINS_7IndexedINS_13FrozenCounterEEEZNS_11RangeParser13InvokeRangeOfINS_11Group21Var2EEEvRKNS_12HeaderRecordERKNS_5RangeERKN7openpal6RSliceERNS_12IAPDUHandlerEEUlRSE_jE_E7ForeachERNS_8IVisitorIS3_EE, @function
_ZNK8opendnp318BufferedCollectionINS_7IndexedINS_13FrozenCounterEEEZNS_11RangeParser13InvokeRangeOfINS_11Group21Var2EEEvRKNS_12HeaderRecordERKNS_5RangeERKN7openpal6RSliceERNS_12IAPDUHandlerEEUlRSE_jE_E7ForeachERNS_8IVisitorIS3_EE:
.LFB3569:
	.cfi_startproc
	endbr64
	pushq	%r15
	.cfi_def_cfa_offset 16
	.cfi_offset 15, -16
	pushq	%r14
	.cfi_def_cfa_offset 24
	.cfi_offset 14, -24
	pushq	%r13
	.cfi_def_cfa_offset 32
	.cfi_offset 13, -32
	pushq	%r12
	.cfi_def_cfa_offset 40
	.cfi_offset 12, -40
	pushq	%rbp
	.cfi_def_cfa_offset 48
	.cfi_offset 6, -48
	pushq	%rbx
	.cfi_def_cfa_offset 56
	.cfi_offset 3, -56
	subq	$120, %rsp
	.cfi_def_cfa_offset 176
	movdqu	8(%rdi), %xmm1
	movq	%fs:40, %rax
	movq	%rax, 104(%rsp)
	xorl	%eax, %eax
	cmpq	$0, 24(%rdi)
	movaps	%xmm1, 16(%rsp)
	je	.L306
	leaq	64(%rsp), %rax
	movq	%rdi, %rbp
	movq	%rsi, %r12
	xorl	%ebx, %ebx
	movq	%rax, 8(%rsp)
	leaq	32(%rsp), %r13
	leaq	16(%rsp), %r15
	.p2align 4,,10
	.p2align 3
.L308:
	movq	(%r12), %rax
	movq	%r13, %rdi
	movq	(%rax), %r14
	call	_ZN8opendnp313FrozenCounterC1Ev@PLT
	movq	%r13, %rsi
	movq	%r15, %rdi
	call	_ZN8opendnp311Group21Var210ReadTargetERN7openpal6RSliceERNS_13FrozenCounterE@PLT
	movzwl	32(%rbp), %eax
	movdqa	32(%rsp), %xmm0
	movq	%r12, %rdi
	movq	48(%rsp), %rcx
	movq	8(%rsp), %rsi
	addl	%ebx, %eax
	movaps	%xmm0, 64(%rsp)
	movw	%ax, 88(%rsp)
	movq	%rcx, 80(%rsp)
	call	*%r14
	leal	1(%rbx), %eax
	movq	%rax, %rbx
	cmpq	24(%rbp), %rax
	jb	.L308
.L306:
	movq	104(%rsp), %rax
	xorq	%fs:40, %rax
	jne	.L312
	addq	$120, %rsp
	.cfi_remember_state
	.cfi_def_cfa_offset 56
	popq	%rbx
	.cfi_def_cfa_offset 48
	popq	%rbp
	.cfi_def_cfa_offset 40
	popq	%r12
	.cfi_def_cfa_offset 32
	popq	%r13
	.cfi_def_cfa_offset 24
	popq	%r14
	.cfi_def_cfa_offset 16
	popq	%r15
	.cfi_def_cfa_offset 8
	ret
.L312:
	.cfi_restore_state
	call	__stack_chk_fail@PLT
	.cfi_endproc
.LFE3569:
	.size	_ZNK8opendnp318BufferedCollectionINS_7IndexedINS_13FrozenCounterEEEZNS_11RangeParser13InvokeRangeOfINS_11Group21Var2EEEvRKNS_12HeaderRecordERKNS_5RangeERKN7openpal6RSliceERNS_12IAPDUHandlerEEUlRSE_jE_E7ForeachERNS_8IVisitorIS3_EE, .-_ZNK8opendnp318BufferedCollectionINS_7IndexedINS_13FrozenCounterEEEZNS_11RangeParser13InvokeRangeOfINS_11Group21Var2EEEvRKNS_12HeaderRecordERKNS_5RangeERKN7openpal6RSliceERNS_12IAPDUHandlerEEUlRSE_jE_E7ForeachERNS_8IVisitorIS3_EE
	.section	.text._ZNK8opendnp318BufferedCollectionINS_7IndexedINS_13FrozenCounterEEEZNS_11RangeParser13InvokeRangeOfINS_11Group21Var5EEEvRKNS_12HeaderRecordERKNS_5RangeERKN7openpal6RSliceERNS_12IAPDUHandlerEEUlRSE_jE_E7ForeachERNS_8IVisitorIS3_EE,"axG",@progbits,_ZNK8opendnp318BufferedCollectionINS_7IndexedINS_13FrozenCounterEEEZNS_11RangeParser13InvokeRangeOfINS_11Group21Var5EEEvRKNS_12HeaderRecordERKNS_5RangeERKN7openpal6RSliceERNS_12IAPDUHandlerEEUlRSE_jE_E7ForeachERNS_8IVisitorIS3_EE,comdat
	.align 2
	.p2align 4
	.weak	_ZNK8opendnp318BufferedCollectionINS_7IndexedINS_13FrozenCounterEEEZNS_11RangeParser13InvokeRangeOfINS_11Group21Var5EEEvRKNS_12HeaderRecordERKNS_5RangeERKN7openpal6RSliceERNS_12IAPDUHandlerEEUlRSE_jE_E7ForeachERNS_8IVisitorIS3_EE
	.type	_ZNK8opendnp318BufferedCollectionINS_7IndexedINS_13FrozenCounterEEEZNS_11RangeParser13InvokeRangeOfINS_11Group21Var5EEEvRKNS_12HeaderRecordERKNS_5RangeERKN7openpal6RSliceERNS_12IAPDUHandlerEEUlRSE_jE_E7ForeachERNS_8IVisitorIS3_EE, @function
_ZNK8opendnp318BufferedCollectionINS_7IndexedINS_13FrozenCounterEEEZNS_11RangeParser13InvokeRangeOfINS_11Group21Var5EEEvRKNS_12HeaderRecordERKNS_5RangeERKN7openpal6RSliceERNS_12IAPDUHandlerEEUlRSE_jE_E7ForeachERNS_8IVisitorIS3_EE:
.LFB3567:
	.cfi_startproc
	endbr64
	pushq	%r15
	.cfi_def_cfa_offset 16
	.cfi_offset 15, -16
	pushq	%r14
	.cfi_def_cfa_offset 24
	.cfi_offset 14, -24
	pushq	%r13
	.cfi_def_cfa_offset 32
	.cfi_offset 13, -32
	pushq	%r12
	.cfi_def_cfa_offset 40
	.cfi_offset 12, -40
	pushq	%rbp
	.cfi_def_cfa_offset 48
	.cfi_offset 6, -48
	pushq	%rbx
	.cfi_def_cfa_offset 56
	.cfi_offset 3, -56
	subq	$120, %rsp
	.cfi_def_cfa_offset 176
	movdqu	8(%rdi), %xmm1
	movq	%fs:40, %rax
	movq	%rax, 104(%rsp)
	xorl	%eax, %eax
	cmpq	$0, 24(%rdi)
	movaps	%xmm1, 16(%rsp)
	je	.L313
	leaq	64(%rsp), %rax
	movq	%rdi, %rbp
	movq	%rsi, %r12
	xorl	%ebx, %ebx
	movq	%rax, 8(%rsp)
	leaq	32(%rsp), %r13
	leaq	16(%rsp), %r15
	.p2align 4,,10
	.p2align 3
.L315:
	movq	(%r12), %rax
	movq	%r13, %rdi
	movq	(%rax), %r14
	call	_ZN8opendnp313FrozenCounterC1Ev@PLT
	movq	%r13, %rsi
	movq	%r15, %rdi
	call	_ZN8opendnp311Group21Var510ReadTargetERN7openpal6RSliceERNS_13FrozenCounterE@PLT
	movzwl	32(%rbp), %eax
	movdqa	32(%rsp), %xmm0
	movq	%r12, %rdi
	movq	48(%rsp), %rcx
	movq	8(%rsp), %rsi
	addl	%ebx, %eax
	movaps	%xmm0, 64(%rsp)
	movw	%ax, 88(%rsp)
	movq	%rcx, 80(%rsp)
	call	*%r14
	leal	1(%rbx), %eax
	movq	%rax, %rbx
	cmpq	24(%rbp), %rax
	jb	.L315
.L313:
	movq	104(%rsp), %rax
	xorq	%fs:40, %rax
	jne	.L319
	addq	$120, %rsp
	.cfi_remember_state
	.cfi_def_cfa_offset 56
	popq	%rbx
	.cfi_def_cfa_offset 48
	popq	%rbp
	.cfi_def_cfa_offset 40
	popq	%r12
	.cfi_def_cfa_offset 32
	popq	%r13
	.cfi_def_cfa_offset 24
	popq	%r14
	.cfi_def_cfa_offset 16
	popq	%r15
	.cfi_def_cfa_offset 8
	ret
.L319:
	.cfi_restore_state
	call	__stack_chk_fail@PLT
	.cfi_endproc
.LFE3567:
	.size	_ZNK8opendnp318BufferedCollectionINS_7IndexedINS_13FrozenCounterEEEZNS_11RangeParser13InvokeRangeOfINS_11Group21Var5EEEvRKNS_12HeaderRecordERKNS_5RangeERKN7openpal6RSliceERNS_12IAPDUHandlerEEUlRSE_jE_E7ForeachERNS_8IVisitorIS3_EE, .-_ZNK8opendnp318BufferedCollectionINS_7IndexedINS_13FrozenCounterEEEZNS_11RangeParser13InvokeRangeOfINS_11Group21Var5EEEvRKNS_12HeaderRecordERKNS_5RangeERKN7openpal6RSliceERNS_12IAPDUHandlerEEUlRSE_jE_E7ForeachERNS_8IVisitorIS3_EE
	.section	.text._ZNK8opendnp318BufferedCollectionINS_7IndexedINS_13FrozenCounterEEEZNS_11RangeParser13InvokeRangeOfINS_11Group21Var6EEEvRKNS_12HeaderRecordERKNS_5RangeERKN7openpal6RSliceERNS_12IAPDUHandlerEEUlRSE_jE_E7ForeachERNS_8IVisitorIS3_EE,"axG",@progbits,_ZNK8opendnp318BufferedCollectionINS_7IndexedINS_13FrozenCounterEEEZNS_11RangeParser13InvokeRangeOfINS_11Group21Var6EEEvRKNS_12HeaderRecordERKNS_5RangeERKN7openpal6RSliceERNS_12IAPDUHandlerEEUlRSE_jE_E7ForeachERNS_8IVisitorIS3_EE,comdat
	.align 2
	.p2align 4
	.weak	_ZNK8opendnp318BufferedCollectionINS_7IndexedINS_13FrozenCounterEEEZNS_11RangeParser13InvokeRangeOfINS_11Group21Var6EEEvRKNS_12HeaderRecordERKNS_5RangeERKN7openpal6RSliceERNS_12IAPDUHandlerEEUlRSE_jE_E7ForeachERNS_8IVisitorIS3_EE
	.type	_ZNK8opendnp318BufferedCollectionINS_7IndexedINS_13FrozenCounterEEEZNS_11RangeParser13InvokeRangeOfINS_11Group21Var6EEEvRKNS_12HeaderRecordERKNS_5RangeERKN7openpal6RSliceERNS_12IAPDUHandlerEEUlRSE_jE_E7ForeachERNS_8IVisitorIS3_EE, @function
_ZNK8opendnp318BufferedCollectionINS_7IndexedINS_13FrozenCounterEEEZNS_11RangeParser13InvokeRangeOfINS_11Group21Var6EEEvRKNS_12HeaderRecordERKNS_5RangeERKN7openpal6RSliceERNS_12IAPDUHandlerEEUlRSE_jE_E7ForeachERNS_8IVisitorIS3_EE:
.LFB3565:
	.cfi_startproc
	endbr64
	pushq	%r15
	.cfi_def_cfa_offset 16
	.cfi_offset 15, -16
	pushq	%r14
	.cfi_def_cfa_offset 24
	.cfi_offset 14, -24
	pushq	%r13
	.cfi_def_cfa_offset 32
	.cfi_offset 13, -32
	pushq	%r12
	.cfi_def_cfa_offset 40
	.cfi_offset 12, -40
	pushq	%rbp
	.cfi_def_cfa_offset 48
	.cfi_offset 6, -48
	pushq	%rbx
	.cfi_def_cfa_offset 56
	.cfi_offset 3, -56
	subq	$120, %rsp
	.cfi_def_cfa_offset 176
	movdqu	8(%rdi), %xmm1
	movq	%fs:40, %rax
	movq	%rax, 104(%rsp)
	xorl	%eax, %eax
	cmpq	$0, 24(%rdi)
	movaps	%xmm1, 16(%rsp)
	je	.L320
	leaq	64(%rsp), %rax
	movq	%rdi, %rbp
	movq	%rsi, %r12
	xorl	%ebx, %ebx
	movq	%rax, 8(%rsp)
	leaq	32(%rsp), %r13
	leaq	16(%rsp), %r15
	.p2align 4,,10
	.p2align 3
.L322:
	movq	(%r12), %rax
	movq	%r13, %rdi
	movq	(%rax), %r14
	call	_ZN8opendnp313FrozenCounterC1Ev@PLT
	movq	%r13, %rsi
	movq	%r15, %rdi
	call	_ZN8opendnp311Group21Var610ReadTargetERN7openpal6RSliceERNS_13FrozenCounterE@PLT
	movzwl	32(%rbp), %eax
	movdqa	32(%rsp), %xmm0
	movq	%r12, %rdi
	movq	48(%rsp), %rcx
	movq	8(%rsp), %rsi
	addl	%ebx, %eax
	movaps	%xmm0, 64(%rsp)
	movw	%ax, 88(%rsp)
	movq	%rcx, 80(%rsp)
	call	*%r14
	leal	1(%rbx), %eax
	movq	%rax, %rbx
	cmpq	24(%rbp), %rax
	jb	.L322
.L320:
	movq	104(%rsp), %rax
	xorq	%fs:40, %rax
	jne	.L326
	addq	$120, %rsp
	.cfi_remember_state
	.cfi_def_cfa_offset 56
	popq	%rbx
	.cfi_def_cfa_offset 48
	popq	%rbp
	.cfi_def_cfa_offset 40
	popq	%r12
	.cfi_def_cfa_offset 32
	popq	%r13
	.cfi_def_cfa_offset 24
	popq	%r14
	.cfi_def_cfa_offset 16
	popq	%r15
	.cfi_def_cfa_offset 8
	ret
.L326:
	.cfi_restore_state
	call	__stack_chk_fail@PLT
	.cfi_endproc
.LFE3565:
	.size	_ZNK8opendnp318BufferedCollectionINS_7IndexedINS_13FrozenCounterEEEZNS_11RangeParser13InvokeRangeOfINS_11Group21Var6EEEvRKNS_12HeaderRecordERKNS_5RangeERKN7openpal6RSliceERNS_12IAPDUHandlerEEUlRSE_jE_E7ForeachERNS_8IVisitorIS3_EE, .-_ZNK8opendnp318BufferedCollectionINS_7IndexedINS_13FrozenCounterEEEZNS_11RangeParser13InvokeRangeOfINS_11Group21Var6EEEvRKNS_12HeaderRecordERKNS_5RangeERKN7openpal6RSliceERNS_12IAPDUHandlerEEUlRSE_jE_E7ForeachERNS_8IVisitorIS3_EE
	.section	.text._ZNK8opendnp318BufferedCollectionINS_7IndexedINS_13FrozenCounterEEEZNS_11RangeParser13InvokeRangeOfINS_11Group21Var9EEEvRKNS_12HeaderRecordERKNS_5RangeERKN7openpal6RSliceERNS_12IAPDUHandlerEEUlRSE_jE_E7ForeachERNS_8IVisitorIS3_EE,"axG",@progbits,_ZNK8opendnp318BufferedCollectionINS_7IndexedINS_13FrozenCounterEEEZNS_11RangeParser13InvokeRangeOfINS_11Group21Var9EEEvRKNS_12HeaderRecordERKNS_5RangeERKN7openpal6RSliceERNS_12IAPDUHandlerEEUlRSE_jE_E7ForeachERNS_8IVisitorIS3_EE,comdat
	.align 2
	.p2align 4
	.weak	_ZNK8opendnp318BufferedCollectionINS_7IndexedINS_13FrozenCounterEEEZNS_11RangeParser13InvokeRangeOfINS_11Group21Var9EEEvRKNS_12HeaderRecordERKNS_5RangeERKN7openpal6RSliceERNS_12IAPDUHandlerEEUlRSE_jE_E7ForeachERNS_8IVisitorIS3_EE
	.type	_ZNK8opendnp318BufferedCollectionINS_7IndexedINS_13FrozenCounterEEEZNS_11RangeParser13InvokeRangeOfINS_11Group21Var9EEEvRKNS_12HeaderRecordERKNS_5RangeERKN7openpal6RSliceERNS_12IAPDUHandlerEEUlRSE_jE_E7ForeachERNS_8IVisitorIS3_EE, @function
_ZNK8opendnp318BufferedCollectionINS_7IndexedINS_13FrozenCounterEEEZNS_11RangeParser13InvokeRangeOfINS_11Group21Var9EEEvRKNS_12HeaderRecordERKNS_5RangeERKN7openpal6RSliceERNS_12IAPDUHandlerEEUlRSE_jE_E7ForeachERNS_8IVisitorIS3_EE:
.LFB3563:
	.cfi_startproc
	endbr64
	pushq	%r15
	.cfi_def_cfa_offset 16
	.cfi_offset 15, -16
	pushq	%r14
	.cfi_def_cfa_offset 24
	.cfi_offset 14, -24
	pushq	%r13
	.cfi_def_cfa_offset 32
	.cfi_offset 13, -32
	pushq	%r12
	.cfi_def_cfa_offset 40
	.cfi_offset 12, -40
	pushq	%rbp
	.cfi_def_cfa_offset 48
	.cfi_offset 6, -48
	pushq	%rbx
	.cfi_def_cfa_offset 56
	.cfi_offset 3, -56
	subq	$120, %rsp
	.cfi_def_cfa_offset 176
	movdqu	8(%rdi), %xmm1
	movq	%fs:40, %rax
	movq	%rax, 104(%rsp)
	xorl	%eax, %eax
	cmpq	$0, 24(%rdi)
	movaps	%xmm1, 16(%rsp)
	je	.L327
	leaq	64(%rsp), %rax
	movq	%rdi, %rbp
	movq	%rsi, %r12
	xorl	%ebx, %ebx
	movq	%rax, 8(%rsp)
	leaq	32(%rsp), %r13
	leaq	16(%rsp), %r15
	.p2align 4,,10
	.p2align 3
.L329:
	movq	(%r12), %rax
	movq	%r13, %rdi
	movq	(%rax), %r14
	call	_ZN8opendnp313FrozenCounterC1Ev@PLT
	movq	%r13, %rsi
	movq	%r15, %rdi
	call	_ZN8opendnp311Group21Var910ReadTargetERN7openpal6RSliceERNS_13FrozenCounterE@PLT
	movzwl	32(%rbp), %eax
	movdqa	32(%rsp), %xmm0
	movq	%r12, %rdi
	movq	48(%rsp), %rcx
	movq	8(%rsp), %rsi
	addl	%ebx, %eax
	movaps	%xmm0, 64(%rsp)
	movw	%ax, 88(%rsp)
	movq	%rcx, 80(%rsp)
	call	*%r14
	leal	1(%rbx), %eax
	movq	%rax, %rbx
	cmpq	24(%rbp), %rax
	jb	.L329
.L327:
	movq	104(%rsp), %rax
	xorq	%fs:40, %rax
	jne	.L333
	addq	$120, %rsp
	.cfi_remember_state
	.cfi_def_cfa_offset 56
	popq	%rbx
	.cfi_def_cfa_offset 48
	popq	%rbp
	.cfi_def_cfa_offset 40
	popq	%r12
	.cfi_def_cfa_offset 32
	popq	%r13
	.cfi_def_cfa_offset 24
	popq	%r14
	.cfi_def_cfa_offset 16
	popq	%r15
	.cfi_def_cfa_offset 8
	ret
.L333:
	.cfi_restore_state
	call	__stack_chk_fail@PLT
	.cfi_endproc
.LFE3563:
	.size	_ZNK8opendnp318BufferedCollectionINS_7IndexedINS_13FrozenCounterEEEZNS_11RangeParser13InvokeRangeOfINS_11Group21Var9EEEvRKNS_12HeaderRecordERKNS_5RangeERKN7openpal6RSliceERNS_12IAPDUHandlerEEUlRSE_jE_E7ForeachERNS_8IVisitorIS3_EE, .-_ZNK8opendnp318BufferedCollectionINS_7IndexedINS_13FrozenCounterEEEZNS_11RangeParser13InvokeRangeOfINS_11Group21Var9EEEvRKNS_12HeaderRecordERKNS_5RangeERKN7openpal6RSliceERNS_12IAPDUHandlerEEUlRSE_jE_E7ForeachERNS_8IVisitorIS3_EE
	.section	.text._ZNK8opendnp318BufferedCollectionINS_7IndexedINS_13FrozenCounterEEEZNS_11RangeParser13InvokeRangeOfINS_12Group21Var10EEEvRKNS_12HeaderRecordERKNS_5RangeERKN7openpal6RSliceERNS_12IAPDUHandlerEEUlRSE_jE_E7ForeachERNS_8IVisitorIS3_EE,"axG",@progbits,_ZNK8opendnp318BufferedCollectionINS_7IndexedINS_13FrozenCounterEEEZNS_11RangeParser13InvokeRangeOfINS_12Group21Var10EEEvRKNS_12HeaderRecordERKNS_5RangeERKN7openpal6RSliceERNS_12IAPDUHandlerEEUlRSE_jE_E7ForeachERNS_8IVisitorIS3_EE,comdat
	.align 2
	.p2align 4
	.weak	_ZNK8opendnp318BufferedCollectionINS_7IndexedINS_13FrozenCounterEEEZNS_11RangeParser13InvokeRangeOfINS_12Group21Var10EEEvRKNS_12HeaderRecordERKNS_5RangeERKN7openpal6RSliceERNS_12IAPDUHandlerEEUlRSE_jE_E7ForeachERNS_8IVisitorIS3_EE
	.type	_ZNK8opendnp318BufferedCollectionINS_7IndexedINS_13FrozenCounterEEEZNS_11RangeParser13InvokeRangeOfINS_12Group21Var10EEEvRKNS_12HeaderRecordERKNS_5RangeERKN7openpal6RSliceERNS_12IAPDUHandlerEEUlRSE_jE_E7ForeachERNS_8IVisitorIS3_EE, @function
_ZNK8opendnp318BufferedCollectionINS_7IndexedINS_13FrozenCounterEEEZNS_11RangeParser13InvokeRangeOfINS_12Group21Var10EEEvRKNS_12HeaderRecordERKNS_5RangeERKN7openpal6RSliceERNS_12IAPDUHandlerEEUlRSE_jE_E7ForeachERNS_8IVisitorIS3_EE:
.LFB3561:
	.cfi_startproc
	endbr64
	pushq	%r15
	.cfi_def_cfa_offset 16
	.cfi_offset 15, -16
	pushq	%r14
	.cfi_def_cfa_offset 24
	.cfi_offset 14, -24
	pushq	%r13
	.cfi_def_cfa_offset 32
	.cfi_offset 13, -32
	pushq	%r12
	.cfi_def_cfa_offset 40
	.cfi_offset 12, -40
	pushq	%rbp
	.cfi_def_cfa_offset 48
	.cfi_offset 6, -48
	pushq	%rbx
	.cfi_def_cfa_offset 56
	.cfi_offset 3, -56
	subq	$120, %rsp
	.cfi_def_cfa_offset 176
	movdqu	8(%rdi), %xmm1
	movq	%fs:40, %rax
	movq	%rax, 104(%rsp)
	xorl	%eax, %eax
	cmpq	$0, 24(%rdi)
	movaps	%xmm1, 16(%rsp)
	je	.L334
	leaq	64(%rsp), %rax
	movq	%rdi, %rbp
	movq	%rsi, %r12
	xorl	%ebx, %ebx
	movq	%rax, 8(%rsp)
	leaq	32(%rsp), %r13
	leaq	16(%rsp), %r15
	.p2align 4,,10
	.p2align 3
.L336:
	movq	(%r12), %rax
	movq	%r13, %rdi
	movq	(%rax), %r14
	call	_ZN8opendnp313FrozenCounterC1Ev@PLT
	movq	%r13, %rsi
	movq	%r15, %rdi
	call	_ZN8opendnp312Group21Var1010ReadTargetERN7openpal6RSliceERNS_13FrozenCounterE@PLT
	movzwl	32(%rbp), %eax
	movdqa	32(%rsp), %xmm0
	movq	%r12, %rdi
	movq	48(%rsp), %rcx
	movq	8(%rsp), %rsi
	addl	%ebx, %eax
	movaps	%xmm0, 64(%rsp)
	movw	%ax, 88(%rsp)
	movq	%rcx, 80(%rsp)
	call	*%r14
	leal	1(%rbx), %eax
	movq	%rax, %rbx
	cmpq	24(%rbp), %rax
	jb	.L336
.L334:
	movq	104(%rsp), %rax
	xorq	%fs:40, %rax
	jne	.L340
	addq	$120, %rsp
	.cfi_remember_state
	.cfi_def_cfa_offset 56
	popq	%rbx
	.cfi_def_cfa_offset 48
	popq	%rbp
	.cfi_def_cfa_offset 40
	popq	%r12
	.cfi_def_cfa_offset 32
	popq	%r13
	.cfi_def_cfa_offset 24
	popq	%r14
	.cfi_def_cfa_offset 16
	popq	%r15
	.cfi_def_cfa_offset 8
	ret
.L340:
	.cfi_restore_state
	call	__stack_chk_fail@PLT
	.cfi_endproc
.LFE3561:
	.size	_ZNK8opendnp318BufferedCollectionINS_7IndexedINS_13FrozenCounterEEEZNS_11RangeParser13InvokeRangeOfINS_12Group21Var10EEEvRKNS_12HeaderRecordERKNS_5RangeERKN7openpal6RSliceERNS_12IAPDUHandlerEEUlRSE_jE_E7ForeachERNS_8IVisitorIS3_EE, .-_ZNK8opendnp318BufferedCollectionINS_7IndexedINS_13FrozenCounterEEEZNS_11RangeParser13InvokeRangeOfINS_12Group21Var10EEEvRKNS_12HeaderRecordERKNS_5RangeERKN7openpal6RSliceERNS_12IAPDUHandlerEEUlRSE_jE_E7ForeachERNS_8IVisitorIS3_EE
	.section	.text._ZNK8opendnp318BufferedCollectionINS_7IndexedINS_6AnalogEEEZNS_11RangeParser13InvokeRangeOfINS_11Group30Var1EEEvRKNS_12HeaderRecordERKNS_5RangeERKN7openpal6RSliceERNS_12IAPDUHandlerEEUlRSE_jE_E7ForeachERNS_8IVisitorIS3_EE,"axG",@progbits,_ZNK8opendnp318BufferedCollectionINS_7IndexedINS_6AnalogEEEZNS_11RangeParser13InvokeRangeOfINS_11Group30Var1EEEvRKNS_12HeaderRecordERKNS_5RangeERKN7openpal6RSliceERNS_12IAPDUHandlerEEUlRSE_jE_E7ForeachERNS_8IVisitorIS3_EE,comdat
	.align 2
	.p2align 4
	.weak	_ZNK8opendnp318BufferedCollectionINS_7IndexedINS_6AnalogEEEZNS_11RangeParser13InvokeRangeOfINS_11Group30Var1EEEvRKNS_12HeaderRecordERKNS_5RangeERKN7openpal6RSliceERNS_12IAPDUHandlerEEUlRSE_jE_E7ForeachERNS_8IVisitorIS3_EE
	.type	_ZNK8opendnp318BufferedCollectionINS_7IndexedINS_6AnalogEEEZNS_11RangeParser13InvokeRangeOfINS_11Group30Var1EEEvRKNS_12HeaderRecordERKNS_5RangeERKN7openpal6RSliceERNS_12IAPDUHandlerEEUlRSE_jE_E7ForeachERNS_8IVisitorIS3_EE, @function
_ZNK8opendnp318BufferedCollectionINS_7IndexedINS_6AnalogEEEZNS_11RangeParser13InvokeRangeOfINS_11Group30Var1EEEvRKNS_12HeaderRecordERKNS_5RangeERKN7openpal6RSliceERNS_12IAPDUHandlerEEUlRSE_jE_E7ForeachERNS_8IVisitorIS3_EE:
.LFB3559:
	.cfi_startproc
	endbr64
	pushq	%r15
	.cfi_def_cfa_offset 16
	.cfi_offset 15, -16
	pushq	%r14
	.cfi_def_cfa_offset 24
	.cfi_offset 14, -24
	pushq	%r13
	.cfi_def_cfa_offset 32
	.cfi_offset 13, -32
	pushq	%r12
	.cfi_def_cfa_offset 40
	.cfi_offset 12, -40
	pushq	%rbp
	.cfi_def_cfa_offset 48
	.cfi_offset 6, -48
	pushq	%rbx
	.cfi_def_cfa_offset 56
	.cfi_offset 3, -56
	subq	$120, %rsp
	.cfi_def_cfa_offset 176
	movdqu	8(%rdi), %xmm1
	movq	%fs:40, %rax
	movq	%rax, 104(%rsp)
	xorl	%eax, %eax
	cmpq	$0, 24(%rdi)
	movaps	%xmm1, 16(%rsp)
	je	.L341
	leaq	64(%rsp), %rax
	movq	%rdi, %rbp
	movq	%rsi, %r12
	xorl	%ebx, %ebx
	movq	%rax, 8(%rsp)
	leaq	32(%rsp), %r13
	leaq	16(%rsp), %r15
	.p2align 4,,10
	.p2align 3
.L343:
	movq	(%r12), %rax
	movq	%r13, %rdi
	movq	(%rax), %r14
	call	_ZN8opendnp36AnalogC1Ev@PLT
	movq	%r13, %rsi
	movq	%r15, %rdi
	call	_ZN8opendnp311Group30Var110ReadTargetERN7openpal6RSliceERNS_6AnalogE@PLT
	movzwl	32(%rbp), %eax
	movdqa	32(%rsp), %xmm0
	movq	%r12, %rdi
	movq	48(%rsp), %rcx
	movq	8(%rsp), %rsi
	addl	%ebx, %eax
	movaps	%xmm0, 64(%rsp)
	movw	%ax, 88(%rsp)
	movq	%rcx, 80(%rsp)
	call	*%r14
	leal	1(%rbx), %eax
	movq	%rax, %rbx
	cmpq	24(%rbp), %rax
	jb	.L343
.L341:
	movq	104(%rsp), %rax
	xorq	%fs:40, %rax
	jne	.L347
	addq	$120, %rsp
	.cfi_remember_state
	.cfi_def_cfa_offset 56
	popq	%rbx
	.cfi_def_cfa_offset 48
	popq	%rbp
	.cfi_def_cfa_offset 40
	popq	%r12
	.cfi_def_cfa_offset 32
	popq	%r13
	.cfi_def_cfa_offset 24
	popq	%r14
	.cfi_def_cfa_offset 16
	popq	%r15
	.cfi_def_cfa_offset 8
	ret
.L347:
	.cfi_restore_state
	call	__stack_chk_fail@PLT
	.cfi_endproc
.LFE3559:
	.size	_ZNK8opendnp318BufferedCollectionINS_7IndexedINS_6AnalogEEEZNS_11RangeParser13InvokeRangeOfINS_11Group30Var1EEEvRKNS_12HeaderRecordERKNS_5RangeERKN7openpal6RSliceERNS_12IAPDUHandlerEEUlRSE_jE_E7ForeachERNS_8IVisitorIS3_EE, .-_ZNK8opendnp318BufferedCollectionINS_7IndexedINS_6AnalogEEEZNS_11RangeParser13InvokeRangeOfINS_11Group30Var1EEEvRKNS_12HeaderRecordERKNS_5RangeERKN7openpal6RSliceERNS_12IAPDUHandlerEEUlRSE_jE_E7ForeachERNS_8IVisitorIS3_EE
	.section	.text._ZNK8opendnp318BufferedCollectionINS_7IndexedINS_6AnalogEEEZNS_11RangeParser13InvokeRangeOfINS_11Group30Var2EEEvRKNS_12HeaderRecordERKNS_5RangeERKN7openpal6RSliceERNS_12IAPDUHandlerEEUlRSE_jE_E7ForeachERNS_8IVisitorIS3_EE,"axG",@progbits,_ZNK8opendnp318BufferedCollectionINS_7IndexedINS_6AnalogEEEZNS_11RangeParser13InvokeRangeOfINS_11Group30Var2EEEvRKNS_12HeaderRecordERKNS_5RangeERKN7openpal6RSliceERNS_12IAPDUHandlerEEUlRSE_jE_E7ForeachERNS_8IVisitorIS3_EE,comdat
	.align 2
	.p2align 4
	.weak	_ZNK8opendnp318BufferedCollectionINS_7IndexedINS_6AnalogEEEZNS_11RangeParser13InvokeRangeOfINS_11Group30Var2EEEvRKNS_12HeaderRecordERKNS_5RangeERKN7openpal6RSliceERNS_12IAPDUHandlerEEUlRSE_jE_E7ForeachERNS_8IVisitorIS3_EE
	.type	_ZNK8opendnp318BufferedCollectionINS_7IndexedINS_6AnalogEEEZNS_11RangeParser13InvokeRangeOfINS_11Group30Var2EEEvRKNS_12HeaderRecordERKNS_5RangeERKN7openpal6RSliceERNS_12IAPDUHandlerEEUlRSE_jE_E7ForeachERNS_8IVisitorIS3_EE, @function
_ZNK8opendnp318BufferedCollectionINS_7IndexedINS_6AnalogEEEZNS_11RangeParser13InvokeRangeOfINS_11Group30Var2EEEvRKNS_12HeaderRecordERKNS_5RangeERKN7openpal6RSliceERNS_12IAPDUHandlerEEUlRSE_jE_E7ForeachERNS_8IVisitorIS3_EE:
.LFB3557:
	.cfi_startproc
	endbr64
	pushq	%r15
	.cfi_def_cfa_offset 16
	.cfi_offset 15, -16
	pushq	%r14
	.cfi_def_cfa_offset 24
	.cfi_offset 14, -24
	pushq	%r13
	.cfi_def_cfa_offset 32
	.cfi_offset 13, -32
	pushq	%r12
	.cfi_def_cfa_offset 40
	.cfi_offset 12, -40
	pushq	%rbp
	.cfi_def_cfa_offset 48
	.cfi_offset 6, -48
	pushq	%rbx
	.cfi_def_cfa_offset 56
	.cfi_offset 3, -56
	subq	$120, %rsp
	.cfi_def_cfa_offset 176
	movdqu	8(%rdi), %xmm1
	movq	%fs:40, %rax
	movq	%rax, 104(%rsp)
	xorl	%eax, %eax
	cmpq	$0, 24(%rdi)
	movaps	%xmm1, 16(%rsp)
	je	.L348
	leaq	64(%rsp), %rax
	movq	%rdi, %rbp
	movq	%rsi, %r12
	xorl	%ebx, %ebx
	movq	%rax, 8(%rsp)
	leaq	32(%rsp), %r13
	leaq	16(%rsp), %r15
	.p2align 4,,10
	.p2align 3
.L350:
	movq	(%r12), %rax
	movq	%r13, %rdi
	movq	(%rax), %r14
	call	_ZN8opendnp36AnalogC1Ev@PLT
	movq	%r13, %rsi
	movq	%r15, %rdi
	call	_ZN8opendnp311Group30Var210ReadTargetERN7openpal6RSliceERNS_6AnalogE@PLT
	movzwl	32(%rbp), %eax
	movdqa	32(%rsp), %xmm0
	movq	%r12, %rdi
	movq	48(%rsp), %rcx
	movq	8(%rsp), %rsi
	addl	%ebx, %eax
	movaps	%xmm0, 64(%rsp)
	movw	%ax, 88(%rsp)
	movq	%rcx, 80(%rsp)
	call	*%r14
	leal	1(%rbx), %eax
	movq	%rax, %rbx
	cmpq	24(%rbp), %rax
	jb	.L350
.L348:
	movq	104(%rsp), %rax
	xorq	%fs:40, %rax
	jne	.L354
	addq	$120, %rsp
	.cfi_remember_state
	.cfi_def_cfa_offset 56
	popq	%rbx
	.cfi_def_cfa_offset 48
	popq	%rbp
	.cfi_def_cfa_offset 40
	popq	%r12
	.cfi_def_cfa_offset 32
	popq	%r13
	.cfi_def_cfa_offset 24
	popq	%r14
	.cfi_def_cfa_offset 16
	popq	%r15
	.cfi_def_cfa_offset 8
	ret
.L354:
	.cfi_restore_state
	call	__stack_chk_fail@PLT
	.cfi_endproc
.LFE3557:
	.size	_ZNK8opendnp318BufferedCollectionINS_7IndexedINS_6AnalogEEEZNS_11RangeParser13InvokeRangeOfINS_11Group30Var2EEEvRKNS_12HeaderRecordERKNS_5RangeERKN7openpal6RSliceERNS_12IAPDUHandlerEEUlRSE_jE_E7ForeachERNS_8IVisitorIS3_EE, .-_ZNK8opendnp318BufferedCollectionINS_7IndexedINS_6AnalogEEEZNS_11RangeParser13InvokeRangeOfINS_11Group30Var2EEEvRKNS_12HeaderRecordERKNS_5RangeERKN7openpal6RSliceERNS_12IAPDUHandlerEEUlRSE_jE_E7ForeachERNS_8IVisitorIS3_EE
	.section	.text._ZNK8opendnp318BufferedCollectionINS_7IndexedINS_6AnalogEEEZNS_11RangeParser13InvokeRangeOfINS_11Group30Var3EEEvRKNS_12HeaderRecordERKNS_5RangeERKN7openpal6RSliceERNS_12IAPDUHandlerEEUlRSE_jE_E7ForeachERNS_8IVisitorIS3_EE,"axG",@progbits,_ZNK8opendnp318BufferedCollectionINS_7IndexedINS_6AnalogEEEZNS_11RangeParser13InvokeRangeOfINS_11Group30Var3EEEvRKNS_12HeaderRecordERKNS_5RangeERKN7openpal6RSliceERNS_12IAPDUHandlerEEUlRSE_jE_E7ForeachERNS_8IVisitorIS3_EE,comdat
	.align 2
	.p2align 4
	.weak	_ZNK8opendnp318BufferedCollectionINS_7IndexedINS_6AnalogEEEZNS_11RangeParser13InvokeRangeOfINS_11Group30Var3EEEvRKNS_12HeaderRecordERKNS_5RangeERKN7openpal6RSliceERNS_12IAPDUHandlerEEUlRSE_jE_E7ForeachERNS_8IVisitorIS3_EE
	.type	_ZNK8opendnp318BufferedCollectionINS_7IndexedINS_6AnalogEEEZNS_11RangeParser13InvokeRangeOfINS_11Group30Var3EEEvRKNS_12HeaderRecordERKNS_5RangeERKN7openpal6RSliceERNS_12IAPDUHandlerEEUlRSE_jE_E7ForeachERNS_8IVisitorIS3_EE, @function
_ZNK8opendnp318BufferedCollectionINS_7IndexedINS_6AnalogEEEZNS_11RangeParser13InvokeRangeOfINS_11Group30Var3EEEvRKNS_12HeaderRecordERKNS_5RangeERKN7openpal6RSliceERNS_12IAPDUHandlerEEUlRSE_jE_E7ForeachERNS_8IVisitorIS3_EE:
.LFB3555:
	.cfi_startproc
	endbr64
	pushq	%r15
	.cfi_def_cfa_offset 16
	.cfi_offset 15, -16
	pushq	%r14
	.cfi_def_cfa_offset 24
	.cfi_offset 14, -24
	pushq	%r13
	.cfi_def_cfa_offset 32
	.cfi_offset 13, -32
	pushq	%r12
	.cfi_def_cfa_offset 40
	.cfi_offset 12, -40
	pushq	%rbp
	.cfi_def_cfa_offset 48
	.cfi_offset 6, -48
	pushq	%rbx
	.cfi_def_cfa_offset 56
	.cfi_offset 3, -56
	subq	$120, %rsp
	.cfi_def_cfa_offset 176
	movdqu	8(%rdi), %xmm1
	movq	%fs:40, %rax
	movq	%rax, 104(%rsp)
	xorl	%eax, %eax
	cmpq	$0, 24(%rdi)
	movaps	%xmm1, 16(%rsp)
	je	.L355
	leaq	64(%rsp), %rax
	movq	%rdi, %rbp
	movq	%rsi, %r12
	xorl	%ebx, %ebx
	movq	%rax, 8(%rsp)
	leaq	32(%rsp), %r13
	leaq	16(%rsp), %r15
	.p2align 4,,10
	.p2align 3
.L357:
	movq	(%r12), %rax
	movq	%r13, %rdi
	movq	(%rax), %r14
	call	_ZN8opendnp36AnalogC1Ev@PLT
	movq	%r13, %rsi
	movq	%r15, %rdi
	call	_ZN8opendnp311Group30Var310ReadTargetERN7openpal6RSliceERNS_6AnalogE@PLT
	movzwl	32(%rbp), %eax
	movdqa	32(%rsp), %xmm0
	movq	%r12, %rdi
	movq	48(%rsp), %rcx
	movq	8(%rsp), %rsi
	addl	%ebx, %eax
	movaps	%xmm0, 64(%rsp)
	movw	%ax, 88(%rsp)
	movq	%rcx, 80(%rsp)
	call	*%r14
	leal	1(%rbx), %eax
	movq	%rax, %rbx
	cmpq	24(%rbp), %rax
	jb	.L357
.L355:
	movq	104(%rsp), %rax
	xorq	%fs:40, %rax
	jne	.L361
	addq	$120, %rsp
	.cfi_remember_state
	.cfi_def_cfa_offset 56
	popq	%rbx
	.cfi_def_cfa_offset 48
	popq	%rbp
	.cfi_def_cfa_offset 40
	popq	%r12
	.cfi_def_cfa_offset 32
	popq	%r13
	.cfi_def_cfa_offset 24
	popq	%r14
	.cfi_def_cfa_offset 16
	popq	%r15
	.cfi_def_cfa_offset 8
	ret
.L361:
	.cfi_restore_state
	call	__stack_chk_fail@PLT
	.cfi_endproc
.LFE3555:
	.size	_ZNK8opendnp318BufferedCollectionINS_7IndexedINS_6AnalogEEEZNS_11RangeParser13InvokeRangeOfINS_11Group30Var3EEEvRKNS_12HeaderRecordERKNS_5RangeERKN7openpal6RSliceERNS_12IAPDUHandlerEEUlRSE_jE_E7ForeachERNS_8IVisitorIS3_EE, .-_ZNK8opendnp318BufferedCollectionINS_7IndexedINS_6AnalogEEEZNS_11RangeParser13InvokeRangeOfINS_11Group30Var3EEEvRKNS_12HeaderRecordERKNS_5RangeERKN7openpal6RSliceERNS_12IAPDUHandlerEEUlRSE_jE_E7ForeachERNS_8IVisitorIS3_EE
	.section	.text._ZNK8opendnp318BufferedCollectionINS_7IndexedINS_6AnalogEEEZNS_11RangeParser13InvokeRangeOfINS_11Group30Var4EEEvRKNS_12HeaderRecordERKNS_5RangeERKN7openpal6RSliceERNS_12IAPDUHandlerEEUlRSE_jE_E7ForeachERNS_8IVisitorIS3_EE,"axG",@progbits,_ZNK8opendnp318BufferedCollectionINS_7IndexedINS_6AnalogEEEZNS_11RangeParser13InvokeRangeOfINS_11Group30Var4EEEvRKNS_12HeaderRecordERKNS_5RangeERKN7openpal6RSliceERNS_12IAPDUHandlerEEUlRSE_jE_E7ForeachERNS_8IVisitorIS3_EE,comdat
	.align 2
	.p2align 4
	.weak	_ZNK8opendnp318BufferedCollectionINS_7IndexedINS_6AnalogEEEZNS_11RangeParser13InvokeRangeOfINS_11Group30Var4EEEvRKNS_12HeaderRecordERKNS_5RangeERKN7openpal6RSliceERNS_12IAPDUHandlerEEUlRSE_jE_E7ForeachERNS_8IVisitorIS3_EE
	.type	_ZNK8opendnp318BufferedCollectionINS_7IndexedINS_6AnalogEEEZNS_11RangeParser13InvokeRangeOfINS_11Group30Var4EEEvRKNS_12HeaderRecordERKNS_5RangeERKN7openpal6RSliceERNS_12IAPDUHandlerEEUlRSE_jE_E7ForeachERNS_8IVisitorIS3_EE, @function
_ZNK8opendnp318BufferedCollectionINS_7IndexedINS_6AnalogEEEZNS_11RangeParser13InvokeRangeOfINS_11Group30Var4EEEvRKNS_12HeaderRecordERKNS_5RangeERKN7openpal6RSliceERNS_12IAPDUHandlerEEUlRSE_jE_E7ForeachERNS_8IVisitorIS3_EE:
.LFB3553:
	.cfi_startproc
	endbr64
	pushq	%r15
	.cfi_def_cfa_offset 16
	.cfi_offset 15, -16
	pushq	%r14
	.cfi_def_cfa_offset 24
	.cfi_offset 14, -24
	pushq	%r13
	.cfi_def_cfa_offset 32
	.cfi_offset 13, -32
	pushq	%r12
	.cfi_def_cfa_offset 40
	.cfi_offset 12, -40
	pushq	%rbp
	.cfi_def_cfa_offset 48
	.cfi_offset 6, -48
	pushq	%rbx
	.cfi_def_cfa_offset 56
	.cfi_offset 3, -56
	subq	$120, %rsp
	.cfi_def_cfa_offset 176
	movdqu	8(%rdi), %xmm1
	movq	%fs:40, %rax
	movq	%rax, 104(%rsp)
	xorl	%eax, %eax
	cmpq	$0, 24(%rdi)
	movaps	%xmm1, 16(%rsp)
	je	.L362
	leaq	64(%rsp), %rax
	movq	%rdi, %rbp
	movq	%rsi, %r12
	xorl	%ebx, %ebx
	movq	%rax, 8(%rsp)
	leaq	32(%rsp), %r13
	leaq	16(%rsp), %r15
	.p2align 4,,10
	.p2align 3
.L364:
	movq	(%r12), %rax
	movq	%r13, %rdi
	movq	(%rax), %r14
	call	_ZN8opendnp36AnalogC1Ev@PLT
	movq	%r13, %rsi
	movq	%r15, %rdi
	call	_ZN8opendnp311Group30Var410ReadTargetERN7openpal6RSliceERNS_6AnalogE@PLT
	movzwl	32(%rbp), %eax
	movdqa	32(%rsp), %xmm0
	movq	%r12, %rdi
	movq	48(%rsp), %rcx
	movq	8(%rsp), %rsi
	addl	%ebx, %eax
	movaps	%xmm0, 64(%rsp)
	movw	%ax, 88(%rsp)
	movq	%rcx, 80(%rsp)
	call	*%r14
	leal	1(%rbx), %eax
	movq	%rax, %rbx
	cmpq	24(%rbp), %rax
	jb	.L364
.L362:
	movq	104(%rsp), %rax
	xorq	%fs:40, %rax
	jne	.L368
	addq	$120, %rsp
	.cfi_remember_state
	.cfi_def_cfa_offset 56
	popq	%rbx
	.cfi_def_cfa_offset 48
	popq	%rbp
	.cfi_def_cfa_offset 40
	popq	%r12
	.cfi_def_cfa_offset 32
	popq	%r13
	.cfi_def_cfa_offset 24
	popq	%r14
	.cfi_def_cfa_offset 16
	popq	%r15
	.cfi_def_cfa_offset 8
	ret
.L368:
	.cfi_restore_state
	call	__stack_chk_fail@PLT
	.cfi_endproc
.LFE3553:
	.size	_ZNK8opendnp318BufferedCollectionINS_7IndexedINS_6AnalogEEEZNS_11RangeParser13InvokeRangeOfINS_11Group30Var4EEEvRKNS_12HeaderRecordERKNS_5RangeERKN7openpal6RSliceERNS_12IAPDUHandlerEEUlRSE_jE_E7ForeachERNS_8IVisitorIS3_EE, .-_ZNK8opendnp318BufferedCollectionINS_7IndexedINS_6AnalogEEEZNS_11RangeParser13InvokeRangeOfINS_11Group30Var4EEEvRKNS_12HeaderRecordERKNS_5RangeERKN7openpal6RSliceERNS_12IAPDUHandlerEEUlRSE_jE_E7ForeachERNS_8IVisitorIS3_EE
	.section	.text._ZNK8opendnp318BufferedCollectionINS_7IndexedINS_6AnalogEEEZNS_11RangeParser13InvokeRangeOfINS_11Group30Var5EEEvRKNS_12HeaderRecordERKNS_5RangeERKN7openpal6RSliceERNS_12IAPDUHandlerEEUlRSE_jE_E7ForeachERNS_8IVisitorIS3_EE,"axG",@progbits,_ZNK8opendnp318BufferedCollectionINS_7IndexedINS_6AnalogEEEZNS_11RangeParser13InvokeRangeOfINS_11Group30Var5EEEvRKNS_12HeaderRecordERKNS_5RangeERKN7openpal6RSliceERNS_12IAPDUHandlerEEUlRSE_jE_E7ForeachERNS_8IVisitorIS3_EE,comdat
	.align 2
	.p2align 4
	.weak	_ZNK8opendnp318BufferedCollectionINS_7IndexedINS_6AnalogEEEZNS_11RangeParser13InvokeRangeOfINS_11Group30Var5EEEvRKNS_12HeaderRecordERKNS_5RangeERKN7openpal6RSliceERNS_12IAPDUHandlerEEUlRSE_jE_E7ForeachERNS_8IVisitorIS3_EE
	.type	_ZNK8opendnp318BufferedCollectionINS_7IndexedINS_6AnalogEEEZNS_11RangeParser13InvokeRangeOfINS_11Group30Var5EEEvRKNS_12HeaderRecordERKNS_5RangeERKN7openpal6RSliceERNS_12IAPDUHandlerEEUlRSE_jE_E7ForeachERNS_8IVisitorIS3_EE, @function
_ZNK8opendnp318BufferedCollectionINS_7IndexedINS_6AnalogEEEZNS_11RangeParser13InvokeRangeOfINS_11Group30Var5EEEvRKNS_12HeaderRecordERKNS_5RangeERKN7openpal6RSliceERNS_12IAPDUHandlerEEUlRSE_jE_E7ForeachERNS_8IVisitorIS3_EE:
.LFB3551:
	.cfi_startproc
	endbr64
	pushq	%r15
	.cfi_def_cfa_offset 16
	.cfi_offset 15, -16
	pushq	%r14
	.cfi_def_cfa_offset 24
	.cfi_offset 14, -24
	pushq	%r13
	.cfi_def_cfa_offset 32
	.cfi_offset 13, -32
	pushq	%r12
	.cfi_def_cfa_offset 40
	.cfi_offset 12, -40
	pushq	%rbp
	.cfi_def_cfa_offset 48
	.cfi_offset 6, -48
	pushq	%rbx
	.cfi_def_cfa_offset 56
	.cfi_offset 3, -56
	subq	$120, %rsp
	.cfi_def_cfa_offset 176
	movdqu	8(%rdi), %xmm1
	movq	%fs:40, %rax
	movq	%rax, 104(%rsp)
	xorl	%eax, %eax
	cmpq	$0, 24(%rdi)
	movaps	%xmm1, 16(%rsp)
	je	.L369
	leaq	64(%rsp), %rax
	movq	%rdi, %rbp
	movq	%rsi, %r12
	xorl	%ebx, %ebx
	movq	%rax, 8(%rsp)
	leaq	32(%rsp), %r13
	leaq	16(%rsp), %r15
	.p2align 4,,10
	.p2align 3
.L371:
	movq	(%r12), %rax
	movq	%r13, %rdi
	movq	(%rax), %r14
	call	_ZN8opendnp36AnalogC1Ev@PLT
	movq	%r13, %rsi
	movq	%r15, %rdi
	call	_ZN8opendnp311Group30Var510ReadTargetERN7openpal6RSliceERNS_6AnalogE@PLT
	movzwl	32(%rbp), %eax
	movdqa	32(%rsp), %xmm0
	movq	%r12, %rdi
	movq	48(%rsp), %rcx
	movq	8(%rsp), %rsi
	addl	%ebx, %eax
	movaps	%xmm0, 64(%rsp)
	movw	%ax, 88(%rsp)
	movq	%rcx, 80(%rsp)
	call	*%r14
	leal	1(%rbx), %eax
	movq	%rax, %rbx
	cmpq	24(%rbp), %rax
	jb	.L371
.L369:
	movq	104(%rsp), %rax
	xorq	%fs:40, %rax
	jne	.L375
	addq	$120, %rsp
	.cfi_remember_state
	.cfi_def_cfa_offset 56
	popq	%rbx
	.cfi_def_cfa_offset 48
	popq	%rbp
	.cfi_def_cfa_offset 40
	popq	%r12
	.cfi_def_cfa_offset 32
	popq	%r13
	.cfi_def_cfa_offset 24
	popq	%r14
	.cfi_def_cfa_offset 16
	popq	%r15
	.cfi_def_cfa_offset 8
	ret
.L375:
	.cfi_restore_state
	call	__stack_chk_fail@PLT
	.cfi_endproc
.LFE3551:
	.size	_ZNK8opendnp318BufferedCollectionINS_7IndexedINS_6AnalogEEEZNS_11RangeParser13InvokeRangeOfINS_11Group30Var5EEEvRKNS_12HeaderRecordERKNS_5RangeERKN7openpal6RSliceERNS_12IAPDUHandlerEEUlRSE_jE_E7ForeachERNS_8IVisitorIS3_EE, .-_ZNK8opendnp318BufferedCollectionINS_7IndexedINS_6AnalogEEEZNS_11RangeParser13InvokeRangeOfINS_11Group30Var5EEEvRKNS_12HeaderRecordERKNS_5RangeERKN7openpal6RSliceERNS_12IAPDUHandlerEEUlRSE_jE_E7ForeachERNS_8IVisitorIS3_EE
	.section	.text._ZNK8opendnp318BufferedCollectionINS_7IndexedINS_6AnalogEEEZNS_11RangeParser13InvokeRangeOfINS_11Group30Var6EEEvRKNS_12HeaderRecordERKNS_5RangeERKN7openpal6RSliceERNS_12IAPDUHandlerEEUlRSE_jE_E7ForeachERNS_8IVisitorIS3_EE,"axG",@progbits,_ZNK8opendnp318BufferedCollectionINS_7IndexedINS_6AnalogEEEZNS_11RangeParser13InvokeRangeOfINS_11Group30Var6EEEvRKNS_12HeaderRecordERKNS_5RangeERKN7openpal6RSliceERNS_12IAPDUHandlerEEUlRSE_jE_E7ForeachERNS_8IVisitorIS3_EE,comdat
	.align 2
	.p2align 4
	.weak	_ZNK8opendnp318BufferedCollectionINS_7IndexedINS_6AnalogEEEZNS_11RangeParser13InvokeRangeOfINS_11Group30Var6EEEvRKNS_12HeaderRecordERKNS_5RangeERKN7openpal6RSliceERNS_12IAPDUHandlerEEUlRSE_jE_E7ForeachERNS_8IVisitorIS3_EE
	.type	_ZNK8opendnp318BufferedCollectionINS_7IndexedINS_6AnalogEEEZNS_11RangeParser13InvokeRangeOfINS_11Group30Var6EEEvRKNS_12HeaderRecordERKNS_5RangeERKN7openpal6RSliceERNS_12IAPDUHandlerEEUlRSE_jE_E7ForeachERNS_8IVisitorIS3_EE, @function
_ZNK8opendnp318BufferedCollectionINS_7IndexedINS_6AnalogEEEZNS_11RangeParser13InvokeRangeOfINS_11Group30Var6EEEvRKNS_12HeaderRecordERKNS_5RangeERKN7openpal6RSliceERNS_12IAPDUHandlerEEUlRSE_jE_E7ForeachERNS_8IVisitorIS3_EE:
.LFB3549:
	.cfi_startproc
	endbr64
	pushq	%r15
	.cfi_def_cfa_offset 16
	.cfi_offset 15, -16
	pushq	%r14
	.cfi_def_cfa_offset 24
	.cfi_offset 14, -24
	pushq	%r13
	.cfi_def_cfa_offset 32
	.cfi_offset 13, -32
	pushq	%r12
	.cfi_def_cfa_offset 40
	.cfi_offset 12, -40
	pushq	%rbp
	.cfi_def_cfa_offset 48
	.cfi_offset 6, -48
	pushq	%rbx
	.cfi_def_cfa_offset 56
	.cfi_offset 3, -56
	subq	$120, %rsp
	.cfi_def_cfa_offset 176
	movdqu	8(%rdi), %xmm1
	movq	%fs:40, %rax
	movq	%rax, 104(%rsp)
	xorl	%eax, %eax
	cmpq	$0, 24(%rdi)
	movaps	%xmm1, 16(%rsp)
	je	.L376
	leaq	64(%rsp), %rax
	movq	%rdi, %rbp
	movq	%rsi, %r12
	xorl	%ebx, %ebx
	movq	%rax, 8(%rsp)
	leaq	32(%rsp), %r13
	leaq	16(%rsp), %r15
	.p2align 4,,10
	.p2align 3
.L378:
	movq	(%r12), %rax
	movq	%r13, %rdi
	movq	(%rax), %r14
	call	_ZN8opendnp36AnalogC1Ev@PLT
	movq	%r13, %rsi
	movq	%r15, %rdi
	call	_ZN8opendnp311Group30Var610ReadTargetERN7openpal6RSliceERNS_6AnalogE@PLT
	movzwl	32(%rbp), %eax
	movdqa	32(%rsp), %xmm0
	movq	%r12, %rdi
	movq	48(%rsp), %rcx
	movq	8(%rsp), %rsi
	addl	%ebx, %eax
	movaps	%xmm0, 64(%rsp)
	movw	%ax, 88(%rsp)
	movq	%rcx, 80(%rsp)
	call	*%r14
	leal	1(%rbx), %eax
	movq	%rax, %rbx
	cmpq	24(%rbp), %rax
	jb	.L378
.L376:
	movq	104(%rsp), %rax
	xorq	%fs:40, %rax
	jne	.L382
	addq	$120, %rsp
	.cfi_remember_state
	.cfi_def_cfa_offset 56
	popq	%rbx
	.cfi_def_cfa_offset 48
	popq	%rbp
	.cfi_def_cfa_offset 40
	popq	%r12
	.cfi_def_cfa_offset 32
	popq	%r13
	.cfi_def_cfa_offset 24
	popq	%r14
	.cfi_def_cfa_offset 16
	popq	%r15
	.cfi_def_cfa_offset 8
	ret
.L382:
	.cfi_restore_state
	call	__stack_chk_fail@PLT
	.cfi_endproc
.LFE3549:
	.size	_ZNK8opendnp318BufferedCollectionINS_7IndexedINS_6AnalogEEEZNS_11RangeParser13InvokeRangeOfINS_11Group30Var6EEEvRKNS_12HeaderRecordERKNS_5RangeERKN7openpal6RSliceERNS_12IAPDUHandlerEEUlRSE_jE_E7ForeachERNS_8IVisitorIS3_EE, .-_ZNK8opendnp318BufferedCollectionINS_7IndexedINS_6AnalogEEEZNS_11RangeParser13InvokeRangeOfINS_11Group30Var6EEEvRKNS_12HeaderRecordERKNS_5RangeERKN7openpal6RSliceERNS_12IAPDUHandlerEEUlRSE_jE_E7ForeachERNS_8IVisitorIS3_EE
	.section	.text._ZNK8opendnp318BufferedCollectionINS_7IndexedINS_18AnalogOutputStatusEEEZNS_11RangeParser13InvokeRangeOfINS_11Group40Var1EEEvRKNS_12HeaderRecordERKNS_5RangeERKN7openpal6RSliceERNS_12IAPDUHandlerEEUlRSE_jE_E7ForeachERNS_8IVisitorIS3_EE,"axG",@progbits,_ZNK8opendnp318BufferedCollectionINS_7IndexedINS_18AnalogOutputStatusEEEZNS_11RangeParser13InvokeRangeOfINS_11Group40Var1EEEvRKNS_12HeaderRecordERKNS_5RangeERKN7openpal6RSliceERNS_12IAPDUHandlerEEUlRSE_jE_E7ForeachERNS_8IVisitorIS3_EE,comdat
	.align 2
	.p2align 4
	.weak	_ZNK8opendnp318BufferedCollectionINS_7IndexedINS_18AnalogOutputStatusEEEZNS_11RangeParser13InvokeRangeOfINS_11Group40Var1EEEvRKNS_12HeaderRecordERKNS_5RangeERKN7openpal6RSliceERNS_12IAPDUHandlerEEUlRSE_jE_E7ForeachERNS_8IVisitorIS3_EE
	.type	_ZNK8opendnp318BufferedCollectionINS_7IndexedINS_18AnalogOutputStatusEEEZNS_11RangeParser13InvokeRangeOfINS_11Group40Var1EEEvRKNS_12HeaderRecordERKNS_5RangeERKN7openpal6RSliceERNS_12IAPDUHandlerEEUlRSE_jE_E7ForeachERNS_8IVisitorIS3_EE, @function
_ZNK8opendnp318BufferedCollectionINS_7IndexedINS_18AnalogOutputStatusEEEZNS_11RangeParser13InvokeRangeOfINS_11Group40Var1EEEvRKNS_12HeaderRecordERKNS_5RangeERKN7openpal6RSliceERNS_12IAPDUHandlerEEUlRSE_jE_E7ForeachERNS_8IVisitorIS3_EE:
.LFB3547:
	.cfi_startproc
	endbr64
	pushq	%r15
	.cfi_def_cfa_offset 16
	.cfi_offset 15, -16
	pushq	%r14
	.cfi_def_cfa_offset 24
	.cfi_offset 14, -24
	pushq	%r13
	.cfi_def_cfa_offset 32
	.cfi_offset 13, -32
	pushq	%r12
	.cfi_def_cfa_offset 40
	.cfi_offset 12, -40
	pushq	%rbp
	.cfi_def_cfa_offset 48
	.cfi_offset 6, -48
	pushq	%rbx
	.cfi_def_cfa_offset 56
	.cfi_offset 3, -56
	subq	$120, %rsp
	.cfi_def_cfa_offset 176
	movdqu	8(%rdi), %xmm1
	movq	%fs:40, %rax
	movq	%rax, 104(%rsp)
	xorl	%eax, %eax
	cmpq	$0, 24(%rdi)
	movaps	%xmm1, 16(%rsp)
	je	.L383
	leaq	64(%rsp), %rax
	movq	%rdi, %rbp
	movq	%rsi, %r12
	xorl	%ebx, %ebx
	movq	%rax, 8(%rsp)
	leaq	32(%rsp), %r13
	leaq	16(%rsp), %r15
	.p2align 4,,10
	.p2align 3
.L385:
	movq	(%r12), %rax
	movq	%r13, %rdi
	movq	(%rax), %r14
	call	_ZN8opendnp318AnalogOutputStatusC1Ev@PLT
	movq	%r13, %rsi
	movq	%r15, %rdi
	call	_ZN8opendnp311Group40Var110ReadTargetERN7openpal6RSliceERNS_18AnalogOutputStatusE@PLT
	movzwl	32(%rbp), %eax
	movdqa	32(%rsp), %xmm0
	movq	%r12, %rdi
	movq	48(%rsp), %rcx
	movq	8(%rsp), %rsi
	addl	%ebx, %eax
	movaps	%xmm0, 64(%rsp)
	movw	%ax, 88(%rsp)
	movq	%rcx, 80(%rsp)
	call	*%r14
	leal	1(%rbx), %eax
	movq	%rax, %rbx
	cmpq	24(%rbp), %rax
	jb	.L385
.L383:
	movq	104(%rsp), %rax
	xorq	%fs:40, %rax
	jne	.L389
	addq	$120, %rsp
	.cfi_remember_state
	.cfi_def_cfa_offset 56
	popq	%rbx
	.cfi_def_cfa_offset 48
	popq	%rbp
	.cfi_def_cfa_offset 40
	popq	%r12
	.cfi_def_cfa_offset 32
	popq	%r13
	.cfi_def_cfa_offset 24
	popq	%r14
	.cfi_def_cfa_offset 16
	popq	%r15
	.cfi_def_cfa_offset 8
	ret
.L389:
	.cfi_restore_state
	call	__stack_chk_fail@PLT
	.cfi_endproc
.LFE3547:
	.size	_ZNK8opendnp318BufferedCollectionINS_7IndexedINS_18AnalogOutputStatusEEEZNS_11RangeParser13InvokeRangeOfINS_11Group40Var1EEEvRKNS_12HeaderRecordERKNS_5RangeERKN7openpal6RSliceERNS_12IAPDUHandlerEEUlRSE_jE_E7ForeachERNS_8IVisitorIS3_EE, .-_ZNK8opendnp318BufferedCollectionINS_7IndexedINS_18AnalogOutputStatusEEEZNS_11RangeParser13InvokeRangeOfINS_11Group40Var1EEEvRKNS_12HeaderRecordERKNS_5RangeERKN7openpal6RSliceERNS_12IAPDUHandlerEEUlRSE_jE_E7ForeachERNS_8IVisitorIS3_EE
	.section	.text._ZNK8opendnp318BufferedCollectionINS_7IndexedINS_18AnalogOutputStatusEEEZNS_11RangeParser13InvokeRangeOfINS_11Group40Var2EEEvRKNS_12HeaderRecordERKNS_5RangeERKN7openpal6RSliceERNS_12IAPDUHandlerEEUlRSE_jE_E7ForeachERNS_8IVisitorIS3_EE,"axG",@progbits,_ZNK8opendnp318BufferedCollectionINS_7IndexedINS_18AnalogOutputStatusEEEZNS_11RangeParser13InvokeRangeOfINS_11Group40Var2EEEvRKNS_12HeaderRecordERKNS_5RangeERKN7openpal6RSliceERNS_12IAPDUHandlerEEUlRSE_jE_E7ForeachERNS_8IVisitorIS3_EE,comdat
	.align 2
	.p2align 4
	.weak	_ZNK8opendnp318BufferedCollectionINS_7IndexedINS_18AnalogOutputStatusEEEZNS_11RangeParser13InvokeRangeOfINS_11Group40Var2EEEvRKNS_12HeaderRecordERKNS_5RangeERKN7openpal6RSliceERNS_12IAPDUHandlerEEUlRSE_jE_E7ForeachERNS_8IVisitorIS3_EE
	.type	_ZNK8opendnp318BufferedCollectionINS_7IndexedINS_18AnalogOutputStatusEEEZNS_11RangeParser13InvokeRangeOfINS_11Group40Var2EEEvRKNS_12HeaderRecordERKNS_5RangeERKN7openpal6RSliceERNS_12IAPDUHandlerEEUlRSE_jE_E7ForeachERNS_8IVisitorIS3_EE, @function
_ZNK8opendnp318BufferedCollectionINS_7IndexedINS_18AnalogOutputStatusEEEZNS_11RangeParser13InvokeRangeOfINS_11Group40Var2EEEvRKNS_12HeaderRecordERKNS_5RangeERKN7openpal6RSliceERNS_12IAPDUHandlerEEUlRSE_jE_E7ForeachERNS_8IVisitorIS3_EE:
.LFB3545:
	.cfi_startproc
	endbr64
	pushq	%r15
	.cfi_def_cfa_offset 16
	.cfi_offset 15, -16
	pushq	%r14
	.cfi_def_cfa_offset 24
	.cfi_offset 14, -24
	pushq	%r13
	.cfi_def_cfa_offset 32
	.cfi_offset 13, -32
	pushq	%r12
	.cfi_def_cfa_offset 40
	.cfi_offset 12, -40
	pushq	%rbp
	.cfi_def_cfa_offset 48
	.cfi_offset 6, -48
	pushq	%rbx
	.cfi_def_cfa_offset 56
	.cfi_offset 3, -56
	subq	$120, %rsp
	.cfi_def_cfa_offset 176
	movdqu	8(%rdi), %xmm1
	movq	%fs:40, %rax
	movq	%rax, 104(%rsp)
	xorl	%eax, %eax
	cmpq	$0, 24(%rdi)
	movaps	%xmm1, 16(%rsp)
	je	.L390
	leaq	64(%rsp), %rax
	movq	%rdi, %rbp
	movq	%rsi, %r12
	xorl	%ebx, %ebx
	movq	%rax, 8(%rsp)
	leaq	32(%rsp), %r13
	leaq	16(%rsp), %r15
	.p2align 4,,10
	.p2align 3
.L392:
	movq	(%r12), %rax
	movq	%r13, %rdi
	movq	(%rax), %r14
	call	_ZN8opendnp318AnalogOutputStatusC1Ev@PLT
	movq	%r13, %rsi
	movq	%r15, %rdi
	call	_ZN8opendnp311Group40Var210ReadTargetERN7openpal6RSliceERNS_18AnalogOutputStatusE@PLT
	movzwl	32(%rbp), %eax
	movdqa	32(%rsp), %xmm0
	movq	%r12, %rdi
	movq	48(%rsp), %rcx
	movq	8(%rsp), %rsi
	addl	%ebx, %eax
	movaps	%xmm0, 64(%rsp)
	movw	%ax, 88(%rsp)
	movq	%rcx, 80(%rsp)
	call	*%r14
	leal	1(%rbx), %eax
	movq	%rax, %rbx
	cmpq	24(%rbp), %rax
	jb	.L392
.L390:
	movq	104(%rsp), %rax
	xorq	%fs:40, %rax
	jne	.L396
	addq	$120, %rsp
	.cfi_remember_state
	.cfi_def_cfa_offset 56
	popq	%rbx
	.cfi_def_cfa_offset 48
	popq	%rbp
	.cfi_def_cfa_offset 40
	popq	%r12
	.cfi_def_cfa_offset 32
	popq	%r13
	.cfi_def_cfa_offset 24
	popq	%r14
	.cfi_def_cfa_offset 16
	popq	%r15
	.cfi_def_cfa_offset 8
	ret
.L396:
	.cfi_restore_state
	call	__stack_chk_fail@PLT
	.cfi_endproc
.LFE3545:
	.size	_ZNK8opendnp318BufferedCollectionINS_7IndexedINS_18AnalogOutputStatusEEEZNS_11RangeParser13InvokeRangeOfINS_11Group40Var2EEEvRKNS_12HeaderRecordERKNS_5RangeERKN7openpal6RSliceERNS_12IAPDUHandlerEEUlRSE_jE_E7ForeachERNS_8IVisitorIS3_EE, .-_ZNK8opendnp318BufferedCollectionINS_7IndexedINS_18AnalogOutputStatusEEEZNS_11RangeParser13InvokeRangeOfINS_11Group40Var2EEEvRKNS_12HeaderRecordERKNS_5RangeERKN7openpal6RSliceERNS_12IAPDUHandlerEEUlRSE_jE_E7ForeachERNS_8IVisitorIS3_EE
	.section	.text._ZNK8opendnp318BufferedCollectionINS_7IndexedINS_18AnalogOutputStatusEEEZNS_11RangeParser13InvokeRangeOfINS_11Group40Var3EEEvRKNS_12HeaderRecordERKNS_5RangeERKN7openpal6RSliceERNS_12IAPDUHandlerEEUlRSE_jE_E7ForeachERNS_8IVisitorIS3_EE,"axG",@progbits,_ZNK8opendnp318BufferedCollectionINS_7IndexedINS_18AnalogOutputStatusEEEZNS_11RangeParser13InvokeRangeOfINS_11Group40Var3EEEvRKNS_12HeaderRecordERKNS_5RangeERKN7openpal6RSliceERNS_12IAPDUHandlerEEUlRSE_jE_E7ForeachERNS_8IVisitorIS3_EE,comdat
	.align 2
	.p2align 4
	.weak	_ZNK8opendnp318BufferedCollectionINS_7IndexedINS_18AnalogOutputStatusEEEZNS_11RangeParser13InvokeRangeOfINS_11Group40Var3EEEvRKNS_12HeaderRecordERKNS_5RangeERKN7openpal6RSliceERNS_12IAPDUHandlerEEUlRSE_jE_E7ForeachERNS_8IVisitorIS3_EE
	.type	_ZNK8opendnp318BufferedCollectionINS_7IndexedINS_18AnalogOutputStatusEEEZNS_11RangeParser13InvokeRangeOfINS_11Group40Var3EEEvRKNS_12HeaderRecordERKNS_5RangeERKN7openpal6RSliceERNS_12IAPDUHandlerEEUlRSE_jE_E7ForeachERNS_8IVisitorIS3_EE, @function
_ZNK8opendnp318BufferedCollectionINS_7IndexedINS_18AnalogOutputStatusEEEZNS_11RangeParser13InvokeRangeOfINS_11Group40Var3EEEvRKNS_12HeaderRecordERKNS_5RangeERKN7openpal6RSliceERNS_12IAPDUHandlerEEUlRSE_jE_E7ForeachERNS_8IVisitorIS3_EE:
.LFB3543:
	.cfi_startproc
	endbr64
	pushq	%r15
	.cfi_def_cfa_offset 16
	.cfi_offset 15, -16
	pushq	%r14
	.cfi_def_cfa_offset 24
	.cfi_offset 14, -24
	pushq	%r13
	.cfi_def_cfa_offset 32
	.cfi_offset 13, -32
	pushq	%r12
	.cfi_def_cfa_offset 40
	.cfi_offset 12, -40
	pushq	%rbp
	.cfi_def_cfa_offset 48
	.cfi_offset 6, -48
	pushq	%rbx
	.cfi_def_cfa_offset 56
	.cfi_offset 3, -56
	subq	$120, %rsp
	.cfi_def_cfa_offset 176
	movdqu	8(%rdi), %xmm1
	movq	%fs:40, %rax
	movq	%rax, 104(%rsp)
	xorl	%eax, %eax
	cmpq	$0, 24(%rdi)
	movaps	%xmm1, 16(%rsp)
	je	.L397
	leaq	64(%rsp), %rax
	movq	%rdi, %rbp
	movq	%rsi, %r12
	xorl	%ebx, %ebx
	movq	%rax, 8(%rsp)
	leaq	32(%rsp), %r13
	leaq	16(%rsp), %r15
	.p2align 4,,10
	.p2align 3
.L399:
	movq	(%r12), %rax
	movq	%r13, %rdi
	movq	(%rax), %r14
	call	_ZN8opendnp318AnalogOutputStatusC1Ev@PLT
	movq	%r13, %rsi
	movq	%r15, %rdi
	call	_ZN8opendnp311Group40Var310ReadTargetERN7openpal6RSliceERNS_18AnalogOutputStatusE@PLT
	movzwl	32(%rbp), %eax
	movdqa	32(%rsp), %xmm0
	movq	%r12, %rdi
	movq	48(%rsp), %rcx
	movq	8(%rsp), %rsi
	addl	%ebx, %eax
	movaps	%xmm0, 64(%rsp)
	movw	%ax, 88(%rsp)
	movq	%rcx, 80(%rsp)
	call	*%r14
	leal	1(%rbx), %eax
	movq	%rax, %rbx
	cmpq	24(%rbp), %rax
	jb	.L399
.L397:
	movq	104(%rsp), %rax
	xorq	%fs:40, %rax
	jne	.L403
	addq	$120, %rsp
	.cfi_remember_state
	.cfi_def_cfa_offset 56
	popq	%rbx
	.cfi_def_cfa_offset 48
	popq	%rbp
	.cfi_def_cfa_offset 40
	popq	%r12
	.cfi_def_cfa_offset 32
	popq	%r13
	.cfi_def_cfa_offset 24
	popq	%r14
	.cfi_def_cfa_offset 16
	popq	%r15
	.cfi_def_cfa_offset 8
	ret
.L403:
	.cfi_restore_state
	call	__stack_chk_fail@PLT
	.cfi_endproc
.LFE3543:
	.size	_ZNK8opendnp318BufferedCollectionINS_7IndexedINS_18AnalogOutputStatusEEEZNS_11RangeParser13InvokeRangeOfINS_11Group40Var3EEEvRKNS_12HeaderRecordERKNS_5RangeERKN7openpal6RSliceERNS_12IAPDUHandlerEEUlRSE_jE_E7ForeachERNS_8IVisitorIS3_EE, .-_ZNK8opendnp318BufferedCollectionINS_7IndexedINS_18AnalogOutputStatusEEEZNS_11RangeParser13InvokeRangeOfINS_11Group40Var3EEEvRKNS_12HeaderRecordERKNS_5RangeERKN7openpal6RSliceERNS_12IAPDUHandlerEEUlRSE_jE_E7ForeachERNS_8IVisitorIS3_EE
	.section	.text._ZNK8opendnp318BufferedCollectionINS_7IndexedINS_18AnalogOutputStatusEEEZNS_11RangeParser13InvokeRangeOfINS_11Group40Var4EEEvRKNS_12HeaderRecordERKNS_5RangeERKN7openpal6RSliceERNS_12IAPDUHandlerEEUlRSE_jE_E7ForeachERNS_8IVisitorIS3_EE,"axG",@progbits,_ZNK8opendnp318BufferedCollectionINS_7IndexedINS_18AnalogOutputStatusEEEZNS_11RangeParser13InvokeRangeOfINS_11Group40Var4EEEvRKNS_12HeaderRecordERKNS_5RangeERKN7openpal6RSliceERNS_12IAPDUHandlerEEUlRSE_jE_E7ForeachERNS_8IVisitorIS3_EE,comdat
	.align 2
	.p2align 4
	.weak	_ZNK8opendnp318BufferedCollectionINS_7IndexedINS_18AnalogOutputStatusEEEZNS_11RangeParser13InvokeRangeOfINS_11Group40Var4EEEvRKNS_12HeaderRecordERKNS_5RangeERKN7openpal6RSliceERNS_12IAPDUHandlerEEUlRSE_jE_E7ForeachERNS_8IVisitorIS3_EE
	.type	_ZNK8opendnp318BufferedCollectionINS_7IndexedINS_18AnalogOutputStatusEEEZNS_11RangeParser13InvokeRangeOfINS_11Group40Var4EEEvRKNS_12HeaderRecordERKNS_5RangeERKN7openpal6RSliceERNS_12IAPDUHandlerEEUlRSE_jE_E7ForeachERNS_8IVisitorIS3_EE, @function
_ZNK8opendnp318BufferedCollectionINS_7IndexedINS_18AnalogOutputStatusEEEZNS_11RangeParser13InvokeRangeOfINS_11Group40Var4EEEvRKNS_12HeaderRecordERKNS_5RangeERKN7openpal6RSliceERNS_12IAPDUHandlerEEUlRSE_jE_E7ForeachERNS_8IVisitorIS3_EE:
.LFB3541:
	.cfi_startproc
	endbr64
	pushq	%r15
	.cfi_def_cfa_offset 16
	.cfi_offset 15, -16
	pushq	%r14
	.cfi_def_cfa_offset 24
	.cfi_offset 14, -24
	pushq	%r13
	.cfi_def_cfa_offset 32
	.cfi_offset 13, -32
	pushq	%r12
	.cfi_def_cfa_offset 40
	.cfi_offset 12, -40
	pushq	%rbp
	.cfi_def_cfa_offset 48
	.cfi_offset 6, -48
	pushq	%rbx
	.cfi_def_cfa_offset 56
	.cfi_offset 3, -56
	subq	$120, %rsp
	.cfi_def_cfa_offset 176
	movdqu	8(%rdi), %xmm1
	movq	%fs:40, %rax
	movq	%rax, 104(%rsp)
	xorl	%eax, %eax
	cmpq	$0, 24(%rdi)
	movaps	%xmm1, 16(%rsp)
	je	.L404
	leaq	64(%rsp), %rax
	movq	%rdi, %rbp
	movq	%rsi, %r12
	xorl	%ebx, %ebx
	movq	%rax, 8(%rsp)
	leaq	32(%rsp), %r13
	leaq	16(%rsp), %r15
	.p2align 4,,10
	.p2align 3
.L406:
	movq	(%r12), %rax
	movq	%r13, %rdi
	movq	(%rax), %r14
	call	_ZN8opendnp318AnalogOutputStatusC1Ev@PLT
	movq	%r13, %rsi
	movq	%r15, %rdi
	call	_ZN8opendnp311Group40Var410ReadTargetERN7openpal6RSliceERNS_18AnalogOutputStatusE@PLT
	movzwl	32(%rbp), %eax
	movdqa	32(%rsp), %xmm0
	movq	%r12, %rdi
	movq	48(%rsp), %rcx
	movq	8(%rsp), %rsi
	addl	%ebx, %eax
	movaps	%xmm0, 64(%rsp)
	movw	%ax, 88(%rsp)
	movq	%rcx, 80(%rsp)
	call	*%r14
	leal	1(%rbx), %eax
	movq	%rax, %rbx
	cmpq	24(%rbp), %rax
	jb	.L406
.L404:
	movq	104(%rsp), %rax
	xorq	%fs:40, %rax
	jne	.L410
	addq	$120, %rsp
	.cfi_remember_state
	.cfi_def_cfa_offset 56
	popq	%rbx
	.cfi_def_cfa_offset 48
	popq	%rbp
	.cfi_def_cfa_offset 40
	popq	%r12
	.cfi_def_cfa_offset 32
	popq	%r13
	.cfi_def_cfa_offset 24
	popq	%r14
	.cfi_def_cfa_offset 16
	popq	%r15
	.cfi_def_cfa_offset 8
	ret
.L410:
	.cfi_restore_state
	call	__stack_chk_fail@PLT
	.cfi_endproc
.LFE3541:
	.size	_ZNK8opendnp318BufferedCollectionINS_7IndexedINS_18AnalogOutputStatusEEEZNS_11RangeParser13InvokeRangeOfINS_11Group40Var4EEEvRKNS_12HeaderRecordERKNS_5RangeERKN7openpal6RSliceERNS_12IAPDUHandlerEEUlRSE_jE_E7ForeachERNS_8IVisitorIS3_EE, .-_ZNK8opendnp318BufferedCollectionINS_7IndexedINS_18AnalogOutputStatusEEEZNS_11RangeParser13InvokeRangeOfINS_11Group40Var4EEEvRKNS_12HeaderRecordERKNS_5RangeERKN7openpal6RSliceERNS_12IAPDUHandlerEEUlRSE_jE_E7ForeachERNS_8IVisitorIS3_EE
	.section	.text._ZNK8opendnp318BufferedCollectionINS_7IndexedINS_12Group121Var1EEEZNS_11RangeParser17InvokeRangeOfTypeIS2_EEvRKNS_12HeaderRecordERKNS_5RangeERKN7openpal6RSliceERNS_12IAPDUHandlerEEUlRSD_jE_E7ForeachERNS_8IVisitorIS3_EE,"axG",@progbits,_ZNK8opendnp318BufferedCollectionINS_7IndexedINS_12Group121Var1EEEZNS_11RangeParser17InvokeRangeOfTypeIS2_EEvRKNS_12HeaderRecordERKNS_5RangeERKN7openpal6RSliceERNS_12IAPDUHandlerEEUlRSD_jE_E7ForeachERNS_8IVisitorIS3_EE,comdat
	.align 2
	.p2align 4
	.weak	_ZNK8opendnp318BufferedCollectionINS_7IndexedINS_12Group121Var1EEEZNS_11RangeParser17InvokeRangeOfTypeIS2_EEvRKNS_12HeaderRecordERKNS_5RangeERKN7openpal6RSliceERNS_12IAPDUHandlerEEUlRSD_jE_E7ForeachERNS_8IVisitorIS3_EE
	.type	_ZNK8opendnp318BufferedCollectionINS_7IndexedINS_12Group121Var1EEEZNS_11RangeParser17InvokeRangeOfTypeIS2_EEvRKNS_12HeaderRecordERKNS_5RangeERKN7openpal6RSliceERNS_12IAPDUHandlerEEUlRSD_jE_E7ForeachERNS_8IVisitorIS3_EE, @function
_ZNK8opendnp318BufferedCollectionINS_7IndexedINS_12Group121Var1EEEZNS_11RangeParser17InvokeRangeOfTypeIS2_EEvRKNS_12HeaderRecordERKNS_5RangeERKN7openpal6RSliceERNS_12IAPDUHandlerEEUlRSD_jE_E7ForeachERNS_8IVisitorIS3_EE:
.LFB3535:
	.cfi_startproc
	endbr64
	pushq	%r15
	.cfi_def_cfa_offset 16
	.cfi_offset 15, -16
	pushq	%r14
	.cfi_def_cfa_offset 24
	.cfi_offset 14, -24
	pushq	%r13
	.cfi_def_cfa_offset 32
	.cfi_offset 13, -32
	pushq	%r12
	.cfi_def_cfa_offset 40
	.cfi_offset 12, -40
	pushq	%rbp
	.cfi_def_cfa_offset 48
	.cfi_offset 6, -48
	pushq	%rbx
	.cfi_def_cfa_offset 56
	.cfi_offset 3, -56
	subq	$56, %rsp
	.cfi_def_cfa_offset 112
	movdqu	8(%rdi), %xmm0
	movq	%fs:40, %rax
	movq	%rax, 40(%rsp)
	xorl	%eax, %eax
	cmpq	$0, 24(%rdi)
	movaps	%xmm0, 16(%rsp)
	je	.L411
	movq	%rdi, %r12
	movq	%rsi, %r13
	leaq	4(%rsp), %rbp
	xorl	%ebx, %ebx
	leaq	16(%rsp), %r14
	.p2align 4,,10
	.p2align 3
.L413:
	movq	0(%r13), %rax
	movq	%rbp, %rdi
	movq	(%rax), %r15
	call	_ZN8opendnp312Group121Var1C1Ev@PLT
	movq	%rbp, %rsi
	movq	%r14, %rdi
	call	_ZN8opendnp312Group121Var14ReadERN7openpal6RSliceERS0_@PLT
	movzwl	32(%r12), %eax
	movq	%rbp, %rsi
	movq	%r13, %rdi
	addl	%ebx, %eax
	movw	%ax, 12(%rsp)
	call	*%r15
	leal	1(%rbx), %eax
	movq	%rax, %rbx
	cmpq	24(%r12), %rax
	jb	.L413
.L411:
	movq	40(%rsp), %rax
	xorq	%fs:40, %rax
	jne	.L417
	addq	$56, %rsp
	.cfi_remember_state
	.cfi_def_cfa_offset 56
	popq	%rbx
	.cfi_def_cfa_offset 48
	popq	%rbp
	.cfi_def_cfa_offset 40
	popq	%r12
	.cfi_def_cfa_offset 32
	popq	%r13
	.cfi_def_cfa_offset 24
	popq	%r14
	.cfi_def_cfa_offset 16
	popq	%r15
	.cfi_def_cfa_offset 8
	ret
.L417:
	.cfi_restore_state
	call	__stack_chk_fail@PLT
	.cfi_endproc
.LFE3535:
	.size	_ZNK8opendnp318BufferedCollectionINS_7IndexedINS_12Group121Var1EEEZNS_11RangeParser17InvokeRangeOfTypeIS2_EEvRKNS_12HeaderRecordERKNS_5RangeERKN7openpal6RSliceERNS_12IAPDUHandlerEEUlRSD_jE_E7ForeachERNS_8IVisitorIS3_EE, .-_ZNK8opendnp318BufferedCollectionINS_7IndexedINS_12Group121Var1EEEZNS_11RangeParser17InvokeRangeOfTypeIS2_EEvRKNS_12HeaderRecordERKNS_5RangeERKN7openpal6RSliceERNS_12IAPDUHandlerEEUlRSD_jE_E7ForeachERNS_8IVisitorIS3_EE
	.text
	.align 2
	.p2align 4
	.globl	_ZN8opendnp311RangeParserC2ERKNS_5RangeEjPFvRKNS_12HeaderRecordES3_RKN7openpal6RSliceERNS_12IAPDUHandlerEE
	.type	_ZN8opendnp311RangeParserC2ERKNS_5RangeEjPFvRKNS_12HeaderRecordES3_RKN7openpal6RSliceERNS_12IAPDUHandlerEE, @function
_ZN8opendnp311RangeParserC2ERKNS_5RangeEjPFvRKNS_12HeaderRecordES3_RKN7openpal6RSliceERNS_12IAPDUHandlerEE:
.LFB2395:
	.cfi_startproc
	endbr64
	movl	(%rsi), %eax
	movl	%edx, 4(%rdi)
	movq	%rcx, 8(%rdi)
	movl	%eax, (%rdi)
	ret
	.cfi_endproc
.LFE2395:
	.size	_ZN8opendnp311RangeParserC2ERKNS_5RangeEjPFvRKNS_12HeaderRecordES3_RKN7openpal6RSliceERNS_12IAPDUHandlerEE, .-_ZN8opendnp311RangeParserC2ERKNS_5RangeEjPFvRKNS_12HeaderRecordES3_RKN7openpal6RSliceERNS_12IAPDUHandlerEE
	.globl	_ZN8opendnp311RangeParserC1ERKNS_5RangeEjPFvRKNS_12HeaderRecordES3_RKN7openpal6RSliceERNS_12IAPDUHandlerEE
	.set	_ZN8opendnp311RangeParserC1ERKNS_5RangeEjPFvRKNS_12HeaderRecordES3_RKN7openpal6RSliceERNS_12IAPDUHandlerEE,_ZN8opendnp311RangeParserC2ERKNS_5RangeEjPFvRKNS_12HeaderRecordES3_RKN7openpal6RSliceERNS_12IAPDUHandlerEE
	.section	.rodata.str1.8,"aMS",@progbits,1
	.align 8
.LC0:
	.string	"Not enough data for specified objects"
	.align 8
.LC1:
	.string	"/home/kimchaer/Desktop/OpenPLC_v3/utils/dnp3_src/cpp/libs/src/opendnp3/app/parsing/RangeParser.cpp(83)"
	.text
	.align 2
	.p2align 4
	.globl	_ZNK8opendnp311RangeParser7ProcessERKNS_12HeaderRecordERN7openpal6RSliceEPNS_12IAPDUHandlerEPNS4_6LoggerE
	.type	_ZNK8opendnp311RangeParser7ProcessERKNS_12HeaderRecordERN7openpal6RSliceEPNS_12IAPDUHandlerEPNS4_6LoggerE, @function
_ZNK8opendnp311RangeParser7ProcessERKNS_12HeaderRecordERN7openpal6RSliceEPNS_12IAPDUHandlerEPNS4_6LoggerE:
.LFB2398:
	.cfi_startproc
	endbr64
	pushq	%r12
	.cfi_def_cfa_offset 16
	.cfi_offset 12, -16
	pushq	%rbp
	.cfi_def_cfa_offset 24
	.cfi_offset 6, -24
	pushq	%rbx
	.cfi_def_cfa_offset 32
	.cfi_offset 3, -32
	movq	%rdi, %rbx
	movq	%rsi, %rdi
	subq	$16, %rsp
	.cfi_def_cfa_offset 48
	movl	4(%rbx), %esi
	movq	%fs:40, %rax
	movq	%rax, 8(%rsp)
	xorl	%eax, %eax
	cmpl	(%rdx), %esi
	ja	.L435
	movq	%rdx, %rbp
	testq	%rcx, %rcx
	je	.L423
	movq	%rbx, %rsi
	call	*8(%rbx)
	movl	4(%rbx), %esi
.L423:
	movq	%rbp, %rdi
	call	_ZN7openpal6RSlice7AdvanceEj@PLT
	xorl	%eax, %eax
.L419:
	movq	8(%rsp), %rbx
	xorq	%fs:40, %rbx
	jne	.L436
	addq	$16, %rsp
	.cfi_remember_state
	.cfi_def_cfa_offset 32
	popq	%rbx
	.cfi_def_cfa_offset 24
	popq	%rbp
	.cfi_def_cfa_offset 16
	popq	%r12
	.cfi_def_cfa_offset 8
	ret
	.p2align 4,,10
	.p2align 3
.L435:
	.cfi_restore_state
	movq	%r8, %r12
	testq	%r8, %r8
	je	.L421
	leaq	4(%rsp), %rbp
	movq	%r8, %rdi
	movl	$4, 4(%rsp)
	movq	%rbp, %rsi
	call	_ZNK7openpal6Logger9IsEnabledERKNS_10LogFiltersE@PLT
	testb	%al, %al
	je	.L421
	leaq	.LC0(%rip), %rcx
	leaq	.LC1(%rip), %rdx
	movq	%rbp, %rsi
	movq	%r12, %rdi
	movl	$4, 4(%rsp)
	call	_ZN7openpal6Logger3LogERKNS_10LogFiltersEPKcS5_@PLT
	movl	$4, %eax
	jmp	.L419
	.p2align 4,,10
	.p2align 3
.L421:
	movl	$4, %eax
	jmp	.L419
.L436:
	call	__stack_chk_fail@PLT
	.cfi_endproc
.LFE2398:
	.size	_ZNK8opendnp311RangeParser7ProcessERKNS_12HeaderRecordERN7openpal6RSliceEPNS_12IAPDUHandlerEPNS4_6LoggerE, .-_ZNK8opendnp311RangeParser7ProcessERKNS_12HeaderRecordERN7openpal6RSliceEPNS_12IAPDUHandlerEPNS4_6LoggerE
	.section	.rodata.str1.8
	.align 8
.LC2:
	.string	"Not enough data for specified octet objects"
	.align 8
.LC3:
	.string	"/home/kimchaer/Desktop/OpenPLC_v3/utils/dnp3_src/cpp/libs/src/opendnp3/app/parsing/RangeParser.cpp(171)"
	.align 8
.LC4:
	.string	"Octet string variation 0 may only be used in requests"
	.align 8
.LC5:
	.string	"/home/kimchaer/Desktop/OpenPLC_v3/utils/dnp3_src/cpp/libs/src/opendnp3/app/parsing/RangeParser.cpp(196)"
	.text
	.align 2
	.p2align 4
	.globl	_ZN8opendnp311RangeParser21ParseRangeOfOctetDataERN7openpal6RSliceERKNS_12HeaderRecordERKNS_5RangeEPNS1_6LoggerEPNS_12IAPDUHandlerE
	.type	_ZN8opendnp311RangeParser21ParseRangeOfOctetDataERN7openpal6RSliceERKNS_12HeaderRecordERKNS_5RangeEPNS1_6LoggerEPNS_12IAPDUHandlerE, @function
_ZN8opendnp311RangeParser21ParseRangeOfOctetDataERN7openpal6RSliceERKNS_12HeaderRecordERKNS_5RangeEPNS1_6LoggerEPNS_12IAPDUHandlerE:
.LFB2400:
	.cfi_startproc
	endbr64
	pushq	%r13
	.cfi_def_cfa_offset 16
	.cfi_offset 13, -16
	movq	%rcx, %r13
	pushq	%r12
	.cfi_def_cfa_offset 24
	.cfi_offset 12, -24
	pushq	%rbp
	.cfi_def_cfa_offset 32
	.cfi_offset 6, -32
	pushq	%rbx
	.cfi_def_cfa_offset 40
	.cfi_offset 3, -40
	subq	$104, %rsp
	.cfi_def_cfa_offset 144
	movq	%fs:40, %rax
	movq	%rax, 88(%rsp)
	xorl	%eax, %eax
	movzbl	9(%rsi), %eax
	testb	%al, %al
	je	.L438
	movq	%rdi, %r12
	movzwl	(%rdx), %r9d
	movzwl	2(%rdx), %edi
	movl	(%r12), %r10d
	cmpw	%di, %r9w
	jbe	.L461
	xorl	%ecx, %ecx
	xorl	%ebp, %ebp
.L439:
	testq	%r8, %r8
	je	.L442
	leaq	16+_ZTVN8opendnp318BufferedCollectionINS_7IndexedINS_11OctetStringEEEZNS_11RangeParser21ParseRangeOfOctetDataERN7openpal6RSliceERKNS_12HeaderRecordERKNS_5RangeEPNS5_6LoggerEPNS_12IAPDUHandlerEEUlS7_jE_EE(%rip), %rbx
	movl	12(%rsi), %eax
	movzbl	10(%rsi), %r11d
	movw	%di, 66(%rsp)
	movq	%rbx, 32(%rsp)
	movq	8(%r12), %rbx
	movq	%r8, %rdi
	movzwl	8(%rsi), %r13d
	movdqu	(%rsi), %xmm0
	movl	%eax, 80(%rsp)
	movq	%rbx, 48(%rsp)
	movl	%ecx, %ebx
	movl	(%rdx), %eax
	leaq	32(%rsp), %rdx
	movq	%rbx, 56(%rsp)
	movzwl	(%rsi), %ebx
	movl	%r10d, 40(%rsp)
	movw	%bx, 68(%rsp)
	movl	4(%rsi), %ebx
	movq	%rsp, %rsi
	movw	%r9w, 64(%rsp)
	movl	%ebx, 72(%rsp)
	movw	%r13w, 76(%rsp)
	movb	%r11b, 78(%rsp)
	movl	%eax, 16(%rsp)
	movaps	%xmm0, (%rsp)
	call	_ZN8opendnp312IAPDUHandler8OnHeaderERKNS_11RangeHeaderERKNS_11ICollectionINS_7IndexedINS_11OctetStringEEEEE@PLT
.L442:
	movl	%ebp, %esi
	movq	%r12, %rdi
	call	_ZN7openpal6RSlice7AdvanceEj@PLT
	xorl	%eax, %eax
.L437:
	movq	88(%rsp), %rcx
	xorq	%fs:40, %rcx
	jne	.L462
	addq	$104, %rsp
	.cfi_remember_state
	.cfi_def_cfa_offset 40
	popq	%rbx
	.cfi_def_cfa_offset 32
	popq	%rbp
	.cfi_def_cfa_offset 24
	popq	%r12
	.cfi_def_cfa_offset 16
	popq	%r13
	.cfi_def_cfa_offset 8
	ret
	.p2align 4,,10
	.p2align 3
.L461:
	.cfi_restore_state
	movzwl	%di, %ecx
	movzwl	%r9w, %r11d
	movzbl	%al, %ebp
	addl	$1, %ecx
	subl	%r11d, %ecx
	imull	%ecx, %ebp
	cmpl	%r10d, %ebp
	jbe	.L439
	testq	%r13, %r13
	je	.L440
	leaq	32(%rsp), %rbp
	movq	%r13, %rdi
	movl	$4, 32(%rsp)
	movq	%rbp, %rsi
	call	_ZNK7openpal6Logger9IsEnabledERKNS_10LogFiltersE@PLT
	testb	%al, %al
	jne	.L463
.L440:
	movl	$4, %eax
	jmp	.L437
	.p2align 4,,10
	.p2align 3
.L438:
	testq	%rcx, %rcx
	je	.L460
	leaq	32(%rsp), %rbp
	movq	%rcx, %rdi
	movl	$4, 32(%rsp)
	movq	%rbp, %rsi
	call	_ZNK7openpal6Logger9IsEnabledERKNS_10LogFiltersE@PLT
	testb	%al, %al
	jne	.L464
.L460:
	movl	$9, %eax
	jmp	.L437
	.p2align 4,,10
	.p2align 3
.L463:
	leaq	.LC2(%rip), %rcx
	leaq	.LC3(%rip), %rdx
	movq	%rbp, %rsi
	movq	%r13, %rdi
	movl	$4, 32(%rsp)
	call	_ZN7openpal6Logger3LogERKNS_10LogFiltersEPKcS5_@PLT
	movl	$4, %eax
	jmp	.L437
	.p2align 4,,10
	.p2align 3
.L464:
	leaq	.LC4(%rip), %rcx
	leaq	.LC5(%rip), %rdx
	movq	%rbp, %rsi
	movq	%r13, %rdi
	movl	$4, 32(%rsp)
	call	_ZN7openpal6Logger3LogERKNS_10LogFiltersEPKcS5_@PLT
	jmp	.L460
.L462:
	call	__stack_chk_fail@PLT
	.cfi_endproc
.LFE2400:
	.size	_ZN8opendnp311RangeParser21ParseRangeOfOctetDataERN7openpal6RSliceERKNS_12HeaderRecordERKNS_5RangeEPNS1_6LoggerEPNS_12IAPDUHandlerE, .-_ZN8opendnp311RangeParser21ParseRangeOfOctetDataERN7openpal6RSliceERKNS_12HeaderRecordERKNS_5RangeEPNS1_6LoggerEPNS_12IAPDUHandlerE
	.section	.rodata.str1.8
	.align 8
.LC6:
	.string	"Unsupported qualifier/object - %s - %i / %i"
	.align 8
.LC7:
	.string	"/home/kimchaer/Desktop/OpenPLC_v3/utils/dnp3_src/cpp/libs/src/opendnp3/app/parsing/RangeParser.cpp(154)"
	.text
	.align 2
	.p2align 4
	.globl	_ZN8opendnp311RangeParser19ParseRangeOfObjectsERN7openpal6RSliceERKNS_12HeaderRecordERKNS_5RangeEPNS1_6LoggerEPNS_12IAPDUHandlerE
	.type	_ZN8opendnp311RangeParser19ParseRangeOfObjectsERN7openpal6RSliceERKNS_12HeaderRecordERKNS_5RangeEPNS1_6LoggerEPNS_12IAPDUHandlerE, @function
_ZN8opendnp311RangeParser19ParseRangeOfObjectsERN7openpal6RSliceERKNS_12HeaderRecordERKNS_5RangeEPNS1_6LoggerEPNS_12IAPDUHandlerE:
.LFB2399:
	.cfi_startproc
	endbr64
	pushq	%r15
	.cfi_def_cfa_offset 16
	.cfi_offset 15, -16
	pushq	%r14
	.cfi_def_cfa_offset 24
	.cfi_offset 14, -24
	movq	%r8, %r14
	pushq	%r13
	.cfi_def_cfa_offset 32
	.cfi_offset 13, -32
	movq	%rdi, %r13
	pushq	%r12
	.cfi_def_cfa_offset 40
	.cfi_offset 12, -40
	movq	%rcx, %r12
	pushq	%rbp
	.cfi_def_cfa_offset 48
	.cfi_offset 6, -48
	movq	%rsi, %rbp
	movq	%rdx, %rsi
	pushq	%rbx
	.cfi_def_cfa_offset 56
	.cfi_offset 3, -56
	subq	$168, %rsp
	.cfi_def_cfa_offset 224
	movq	%fs:40, %rax
	movq	%rax, 152(%rsp)
	xorl	%eax, %eax
	movzwl	0(%rbp), %eax
	cmpw	$5386, %ax
	ja	.L466
	cmpw	$5376, %ax
	ja	.L467
	cmpw	$2562, %ax
	je	.L468
	jbe	.L577
	cmpw	$5125, %ax
	je	.L491
	jbe	.L578
	cmpw	$5126, %ax
	jne	.L474
	movzwl	(%rdx), %edx
	movzwl	2(%rsi), %eax
	xorl	%r8d, %r8d
	cmpw	%ax, %dx
	ja	.L518
	subl	%edx, %eax
	leal	2(%rax,%rax), %r8d
.L518:
	movq	_ZN8opendnp311RangeParser13InvokeRangeOfINS_11Group20Var6EEEvRKNS_12HeaderRecordERKNS_5RangeERKN7openpal6RSliceERNS_12IAPDUHandlerE@GOTPCREL(%rip), %rcx
	leaq	16(%rsp), %r15
	movl	%r8d, %edx
	jmp	.L576
	.p2align 4,,10
	.p2align 3
.L467:
	subw	$5377, %ax
	cmpw	$9, %ax
	ja	.L474
	leaq	.L483(%rip), %rdx
	movzwl	%ax, %eax
	movslq	(%rdx,%rax,4), %rax
	addq	%rdx, %rax
	notrack jmp	*%rax
	.section	.rodata
	.align 4
	.align 4
.L483:
	.long	.L488-.L483
	.long	.L487-.L483
	.long	.L474-.L483
	.long	.L474-.L483
	.long	.L486-.L483
	.long	.L485-.L483
	.long	.L474-.L483
	.long	.L474-.L483
	.long	.L484-.L483
	.long	.L482-.L483
	.text
	.p2align 4,,10
	.p2align 3
.L466:
	cmpw	$10242, %ax
	je	.L496
	jbe	.L579
	cmpw	$20481, %ax
	je	.L501
	jbe	.L580
	cmpw	$28160, %ax
	je	.L506
	cmpw	$30977, %ax
	jne	.L474
	movzwl	(%rdx), %ecx
	movzwl	2(%rdx), %eax
	xorl	%edx, %edx
	cmpw	%ax, %cx
	ja	.L537
	addl	$1, %eax
	subl	%ecx, %eax
	leal	0(,%rax,8), %edx
	subl	%eax, %edx
.L537:
	movq	_ZN8opendnp311RangeParser17InvokeRangeOfTypeINS_12Group121Var1EEEvRKNS_12HeaderRecordERKNS_5RangeERKN7openpal6RSliceERNS_12IAPDUHandlerE@GOTPCREL(%rip), %rcx
	leaq	16(%rsp), %r15
	jmp	.L576
	.p2align 4,,10
	.p2align 3
.L578:
	cmpw	$5121, %ax
	je	.L493
	cmpw	$5122, %ax
	jne	.L474
	movzwl	(%rdx), %edx
	movzwl	2(%rsi), %eax
	xorl	%r8d, %r8d
	cmpw	%ax, %dx
	ja	.L516
	addl	$1, %eax
	subl	%edx, %eax
	leal	(%rax,%rax,2), %r8d
.L516:
	movq	_ZN8opendnp311RangeParser13InvokeRangeOfINS_11Group20Var2EEEvRKNS_12HeaderRecordERKNS_5RangeERKN7openpal6RSliceERNS_12IAPDUHandlerE@GOTPCREL(%rip), %rcx
	leaq	16(%rsp), %r15
	movl	%r8d, %edx
	jmp	.L576
	.p2align 4,,10
	.p2align 3
.L577:
	cmpw	$769, %ax
	je	.L470
	jbe	.L581
	cmpw	$770, %ax
	je	.L489
	cmpw	$2561, %ax
	jne	.L474
	movzwl	(%rdx), %eax
	movzwl	2(%rdx), %edx
	xorl	%edi, %edi
	cmpw	%dx, %ax
	ja	.L512
	movzwl	%dx, %edi
	addl	$1, %edi
	subl	%eax, %edi
.L512:
	movq	%rsi, 8(%rsp)
	leaq	16(%rsp), %r15
	call	_ZN8opendnp314NumBytesInBitsEj@PLT
	movq	_ZN8opendnp311RangeParser23InvokeRangeBitfieldTypeINS_18BinaryOutputStatusEEEvRKNS_12HeaderRecordERKNS_5RangeERKN7openpal6RSliceERNS_12IAPDUHandlerE@GOTPCREL(%rip), %rcx
	movq	8(%rsp), %rsi
	movl	%eax, %edx
	jmp	.L576
	.p2align 4,,10
	.p2align 3
.L580:
	cmpw	$10244, %ax
	je	.L503
	cmpw	$12804, %ax
	jne	.L582
	movzwl	(%rdx), %edx
	movzwl	2(%rsi), %eax
	xorl	%r8d, %r8d
	cmpw	%ax, %dx
	ja	.L535
	addl	$1, %eax
	subl	%edx, %eax
	leal	(%rax,%rax,4), %edx
	leal	(%rax,%rdx,2), %r8d
.L535:
	movq	_ZN8opendnp311RangeParser13InvokeRangeOfINS_11Group50Var4EEEvRKNS_12HeaderRecordERKNS_5RangeERKN7openpal6RSliceERNS_12IAPDUHandlerE@GOTPCREL(%rip), %rcx
	leaq	16(%rsp), %r15
	movl	%r8d, %edx
	jmp	.L576
	.p2align 4,,10
	.p2align 3
.L579:
	cmpw	$7686, %ax
	ja	.L498
	cmpw	$7680, %ax
	jbe	.L474
	subw	$7682, %ax
	cmpw	$4, %ax
	ja	.L475
	leaq	.L477(%rip), %rdx
	movzwl	%ax, %eax
	movslq	(%rdx,%rax,4), %rax
	addq	%rdx, %rax
	movzwl	(%rsi), %edx
	notrack jmp	*%rax
	.section	.rodata
	.align 4
	.align 4
.L477:
	.long	.L481-.L477
	.long	.L480-.L477
	.long	.L479-.L477
	.long	.L478-.L477
	.long	.L476-.L477
	.text
.L581:
	cmpw	$257, %ax
	je	.L472
	cmpw	$258, %ax
	jne	.L474
	movzwl	(%rdx), %eax
	movzwl	2(%rdx), %ecx
	xorl	%edx, %edx
	cmpw	%cx, %ax
	ja	.L510
	movzwl	%cx, %edx
	addl	$1, %edx
	subl	%eax, %edx
.L510:
	movq	_ZN8opendnp311RangeParser13InvokeRangeOfINS_10Group1Var2EEEvRKNS_12HeaderRecordERKNS_5RangeERKN7openpal6RSliceERNS_12IAPDUHandlerE@GOTPCREL(%rip), %rcx
	leaq	16(%rsp), %r15
	jmp	.L576
	.p2align 4,,10
	.p2align 3
.L582:
	cmpw	$10243, %ax
	jne	.L474
	movzwl	(%rdx), %edx
	movzwl	2(%rsi), %eax
	xorl	%r8d, %r8d
	cmpw	%ax, %dx
	ja	.L533
	addl	$1, %eax
	subl	%edx, %eax
	leal	(%rax,%rax,4), %r8d
.L533:
	movq	_ZN8opendnp311RangeParser13InvokeRangeOfINS_11Group40Var3EEEvRKNS_12HeaderRecordERKNS_5RangeERKN7openpal6RSliceERNS_12IAPDUHandlerE@GOTPCREL(%rip), %rcx
	leaq	16(%rsp), %r15
	movl	%r8d, %edx
	jmp	.L576
	.p2align 4,,10
	.p2align 3
.L498:
	cmpw	$10241, %ax
	jne	.L474
	movzwl	(%rdx), %edx
	movzwl	2(%rsi), %eax
	xorl	%r8d, %r8d
	cmpw	%ax, %dx
	ja	.L531
	addl	$1, %eax
	subl	%edx, %eax
	leal	(%rax,%rax,4), %r8d
.L531:
	movq	_ZN8opendnp311RangeParser13InvokeRangeOfINS_11Group40Var1EEEvRKNS_12HeaderRecordERKNS_5RangeERKN7openpal6RSliceERNS_12IAPDUHandlerE@GOTPCREL(%rip), %rcx
	leaq	16(%rsp), %r15
	movl	%r8d, %edx
	jmp	.L576
.L479:
	movzwl	2(%rsi), %eax
	xorl	%r8d, %r8d
	cmpw	%ax, %dx
	ja	.L528
	subl	%edx, %eax
	leal	2(%rax,%rax), %r8d
.L528:
	movq	_ZN8opendnp311RangeParser13InvokeRangeOfINS_11Group30Var4EEEvRKNS_12HeaderRecordERKNS_5RangeERKN7openpal6RSliceERNS_12IAPDUHandlerE@GOTPCREL(%rip), %rcx
	leaq	16(%rsp), %r15
	movl	%r8d, %edx
	.p2align 4,,10
	.p2align 3
.L576:
	movq	%r15, %rdi
	call	_ZN8opendnp311RangeParserC1ERKNS_5RangeEjPFvRKNS_12HeaderRecordES3_RKN7openpal6RSliceERNS_12IAPDUHandlerEE@PLT
	movq	%r12, %r8
	movq	%r14, %rcx
	movq	%r13, %rdx
	movq	%rbp, %rsi
	movq	%r15, %rdi
	call	_ZNK8opendnp311RangeParser7ProcessERKNS_12HeaderRecordERN7openpal6RSliceEPNS_12IAPDUHandlerEPNS4_6LoggerE@PLT
.L465:
	movq	152(%rsp), %rbx
	xorq	%fs:40, %rbx
	jne	.L583
	addq	$168, %rsp
	.cfi_remember_state
	.cfi_def_cfa_offset 56
	popq	%rbx
	.cfi_def_cfa_offset 48
	popq	%rbp
	.cfi_def_cfa_offset 40
	popq	%r12
	.cfi_def_cfa_offset 32
	popq	%r13
	.cfi_def_cfa_offset 24
	popq	%r14
	.cfi_def_cfa_offset 16
	popq	%r15
	.cfi_def_cfa_offset 8
	ret
.L480:
	.cfi_restore_state
	movzwl	2(%rsi), %eax
	xorl	%r8d, %r8d
	cmpw	%ax, %dx
	ja	.L527
	subl	%edx, %eax
	leal	4(,%rax,4), %r8d
.L527:
	movq	_ZN8opendnp311RangeParser13InvokeRangeOfINS_11Group30Var3EEEvRKNS_12HeaderRecordERKNS_5RangeERKN7openpal6RSliceERNS_12IAPDUHandlerE@GOTPCREL(%rip), %rcx
	leaq	16(%rsp), %r15
	movl	%r8d, %edx
	jmp	.L576
.L476:
	movzwl	2(%rsi), %eax
	xorl	%r8d, %r8d
	cmpw	%ax, %dx
	ja	.L530
	addl	$1, %eax
	subl	%edx, %eax
	leal	(%rax,%rax,8), %r8d
.L530:
	movq	_ZN8opendnp311RangeParser13InvokeRangeOfINS_11Group30Var6EEEvRKNS_12HeaderRecordERKNS_5RangeERKN7openpal6RSliceERNS_12IAPDUHandlerE@GOTPCREL(%rip), %rcx
	leaq	16(%rsp), %r15
	movl	%r8d, %edx
	jmp	.L576
.L482:
	movzwl	(%rsi), %edx
	movzwl	2(%rsi), %eax
	xorl	%r8d, %r8d
	cmpw	%ax, %dx
	ja	.L524
	subl	%edx, %eax
	leal	2(%rax,%rax), %r8d
.L524:
	movq	_ZN8opendnp311RangeParser13InvokeRangeOfINS_12Group21Var10EEEvRKNS_12HeaderRecordERKNS_5RangeERKN7openpal6RSliceERNS_12IAPDUHandlerE@GOTPCREL(%rip), %rcx
	leaq	16(%rsp), %r15
	movl	%r8d, %edx
	jmp	.L576
.L484:
	movzwl	(%rsi), %edx
	movzwl	2(%rsi), %eax
	xorl	%r8d, %r8d
	cmpw	%ax, %dx
	ja	.L523
	subl	%edx, %eax
	leal	4(,%rax,4), %r8d
.L523:
	movq	_ZN8opendnp311RangeParser13InvokeRangeOfINS_11Group21Var9EEEvRKNS_12HeaderRecordERKNS_5RangeERKN7openpal6RSliceERNS_12IAPDUHandlerE@GOTPCREL(%rip), %rcx
	leaq	16(%rsp), %r15
	movl	%r8d, %edx
	jmp	.L576
.L485:
	movzwl	(%rsi), %edx
	movzwl	2(%rsi), %eax
	xorl	%r8d, %r8d
	cmpw	%ax, %dx
	ja	.L522
	addl	$1, %eax
	subl	%edx, %eax
	leal	(%rax,%rax,8), %r8d
.L522:
	movq	_ZN8opendnp311RangeParser13InvokeRangeOfINS_11Group21Var6EEEvRKNS_12HeaderRecordERKNS_5RangeERKN7openpal6RSliceERNS_12IAPDUHandlerE@GOTPCREL(%rip), %rcx
	leaq	16(%rsp), %r15
	movl	%r8d, %edx
	jmp	.L576
.L486:
	movzwl	(%rsi), %edx
	movzwl	2(%rsi), %eax
	xorl	%r8d, %r8d
	cmpw	%ax, %dx
	ja	.L521
	addl	$1, %eax
	subl	%edx, %eax
	leal	(%rax,%rax,4), %edx
	leal	(%rax,%rdx,2), %r8d
.L521:
	movq	_ZN8opendnp311RangeParser13InvokeRangeOfINS_11Group21Var5EEEvRKNS_12HeaderRecordERKNS_5RangeERKN7openpal6RSliceERNS_12IAPDUHandlerE@GOTPCREL(%rip), %rcx
	leaq	16(%rsp), %r15
	movl	%r8d, %edx
	jmp	.L576
.L487:
	movzwl	(%rsi), %edx
	movzwl	2(%rsi), %eax
	xorl	%r8d, %r8d
	cmpw	%ax, %dx
	ja	.L520
	addl	$1, %eax
	subl	%edx, %eax
	leal	(%rax,%rax,2), %r8d
.L520:
	movq	_ZN8opendnp311RangeParser13InvokeRangeOfINS_11Group21Var2EEEvRKNS_12HeaderRecordERKNS_5RangeERKN7openpal6RSliceERNS_12IAPDUHandlerE@GOTPCREL(%rip), %rcx
	leaq	16(%rsp), %r15
	movl	%r8d, %edx
	jmp	.L576
.L488:
	movzwl	(%rsi), %edx
	movzwl	2(%rsi), %eax
	xorl	%r8d, %r8d
	cmpw	%ax, %dx
	ja	.L519
	addl	$1, %eax
	subl	%edx, %eax
	leal	(%rax,%rax,4), %r8d
.L519:
	movq	_ZN8opendnp311RangeParser13InvokeRangeOfINS_11Group21Var1EEEvRKNS_12HeaderRecordERKNS_5RangeERKN7openpal6RSliceERNS_12IAPDUHandlerE@GOTPCREL(%rip), %rcx
	leaq	16(%rsp), %r15
	movl	%r8d, %edx
	jmp	.L576
.L474:
	testq	%r12, %r12
	je	.L538
	leaq	16(%rsp), %r13
	movq	%r12, %rdi
	movl	$4, 16(%rsp)
	movq	%r13, %rsi
	call	_ZNK7openpal6Logger9IsEnabledERKNS_10LogFiltersE@PLT
	testb	%al, %al
	jne	.L584
.L538:
	movl	$8, %eax
	jmp	.L465
.L481:
	movzwl	2(%rsi), %eax
	xorl	%r8d, %r8d
	cmpw	%ax, %dx
	ja	.L526
	addl	$1, %eax
	subl	%edx, %eax
	leal	(%rax,%rax,2), %r8d
.L526:
	movq	_ZN8opendnp311RangeParser13InvokeRangeOfINS_11Group30Var2EEEvRKNS_12HeaderRecordERKNS_5RangeERKN7openpal6RSliceERNS_12IAPDUHandlerE@GOTPCREL(%rip), %rcx
	leaq	16(%rsp), %r15
	movl	%r8d, %edx
	jmp	.L576
.L478:
	movzwl	2(%rsi), %eax
	xorl	%r8d, %r8d
	cmpw	%ax, %dx
	ja	.L529
	addl	$1, %eax
	subl	%edx, %eax
	leal	(%rax,%rax,4), %r8d
.L529:
	movq	_ZN8opendnp311RangeParser13InvokeRangeOfINS_11Group30Var5EEEvRKNS_12HeaderRecordERKNS_5RangeERKN7openpal6RSliceERNS_12IAPDUHandlerE@GOTPCREL(%rip), %rcx
	leaq	16(%rsp), %r15
	movl	%r8d, %edx
	jmp	.L576
.L475:
	movzwl	(%rsi), %edx
	movzwl	2(%rsi), %eax
	xorl	%r8d, %r8d
	cmpw	%ax, %dx
	ja	.L525
	addl	$1, %eax
	subl	%edx, %eax
	leal	(%rax,%rax,4), %r8d
.L525:
	movq	_ZN8opendnp311RangeParser13InvokeRangeOfINS_11Group30Var1EEEvRKNS_12HeaderRecordERKNS_5RangeERKN7openpal6RSliceERNS_12IAPDUHandlerE@GOTPCREL(%rip), %rcx
	leaq	16(%rsp), %r15
	movl	%r8d, %edx
	jmp	.L576
	.p2align 4,,10
	.p2align 3
.L472:
	movzwl	(%rdx), %eax
	movzwl	2(%rdx), %edx
	xorl	%edi, %edi
	cmpw	%dx, %ax
	ja	.L508
	movzwl	%dx, %edi
	addl	$1, %edi
	subl	%eax, %edi
.L508:
	movq	%rsi, 8(%rsp)
	leaq	16(%rsp), %r15
	call	_ZN8opendnp314NumBytesInBitsEj@PLT
	movq	_ZN8opendnp311RangeParser23InvokeRangeBitfieldTypeINS_6BinaryEEEvRKNS_12HeaderRecordERKNS_5RangeERKN7openpal6RSliceERNS_12IAPDUHandlerE@GOTPCREL(%rip), %rcx
	movq	8(%rsp), %rsi
	movl	%eax, %edx
	jmp	.L576
	.p2align 4,,10
	.p2align 3
.L506:
	movq	%rbp, %rsi
	call	_ZN8opendnp311RangeParser21ParseRangeOfOctetDataERN7openpal6RSliceERKNS_12HeaderRecordERKNS_5RangeEPNS1_6LoggerEPNS_12IAPDUHandlerE@PLT
	jmp	.L465
	.p2align 4,,10
	.p2align 3
.L493:
	movzwl	(%rdx), %edx
	movzwl	2(%rsi), %eax
	xorl	%r8d, %r8d
	cmpw	%ax, %dx
	ja	.L515
	addl	$1, %eax
	subl	%edx, %eax
	leal	(%rax,%rax,4), %r8d
.L515:
	movq	_ZN8opendnp311RangeParser13InvokeRangeOfINS_11Group20Var1EEEvRKNS_12HeaderRecordERKNS_5RangeERKN7openpal6RSliceERNS_12IAPDUHandlerE@GOTPCREL(%rip), %rcx
	leaq	16(%rsp), %r15
	movl	%r8d, %edx
	jmp	.L576
	.p2align 4,,10
	.p2align 3
.L503:
	movzwl	(%rdx), %edx
	movzwl	2(%rsi), %eax
	xorl	%r8d, %r8d
	cmpw	%ax, %dx
	ja	.L534
	addl	$1, %eax
	subl	%edx, %eax
	leal	(%rax,%rax,8), %r8d
.L534:
	movq	_ZN8opendnp311RangeParser13InvokeRangeOfINS_11Group40Var4EEEvRKNS_12HeaderRecordERKNS_5RangeERKN7openpal6RSliceERNS_12IAPDUHandlerE@GOTPCREL(%rip), %rcx
	leaq	16(%rsp), %r15
	movl	%r8d, %edx
	jmp	.L576
	.p2align 4,,10
	.p2align 3
.L468:
	movzwl	(%rdx), %eax
	movzwl	2(%rdx), %ecx
	xorl	%edx, %edx
	cmpw	%cx, %ax
	ja	.L514
	movzwl	%cx, %edx
	addl	$1, %edx
	subl	%eax, %edx
.L514:
	movq	_ZN8opendnp311RangeParser13InvokeRangeOfINS_11Group10Var2EEEvRKNS_12HeaderRecordERKNS_5RangeERKN7openpal6RSliceERNS_12IAPDUHandlerE@GOTPCREL(%rip), %rcx
	leaq	16(%rsp), %r15
	jmp	.L576
	.p2align 4,,10
	.p2align 3
.L491:
	movzwl	(%rdx), %edx
	movzwl	2(%rsi), %eax
	xorl	%r8d, %r8d
	cmpw	%ax, %dx
	ja	.L517
	subl	%edx, %eax
	leal	4(,%rax,4), %r8d
.L517:
	movq	_ZN8opendnp311RangeParser13InvokeRangeOfINS_11Group20Var5EEEvRKNS_12HeaderRecordERKNS_5RangeERKN7openpal6RSliceERNS_12IAPDUHandlerE@GOTPCREL(%rip), %rcx
	leaq	16(%rsp), %r15
	movl	%r8d, %edx
	jmp	.L576
	.p2align 4,,10
	.p2align 3
.L489:
	movzwl	(%rdx), %eax
	movzwl	2(%rdx), %ecx
	xorl	%edx, %edx
	cmpw	%cx, %ax
	ja	.L513
	movzwl	%cx, %edx
	addl	$1, %edx
	subl	%eax, %edx
.L513:
	movq	_ZN8opendnp311RangeParser13InvokeRangeOfINS_10Group3Var2EEEvRKNS_12HeaderRecordERKNS_5RangeERKN7openpal6RSliceERNS_12IAPDUHandlerE@GOTPCREL(%rip), %rcx
	leaq	16(%rsp), %r15
	jmp	.L576
	.p2align 4,,10
	.p2align 3
.L470:
	movzwl	(%rdx), %eax
	movzwl	2(%rdx), %edx
	xorl	%edi, %edi
	cmpw	%dx, %ax
	ja	.L511
	movzwl	%dx, %edi
	addl	$1, %edi
	subl	%eax, %edi
.L511:
	movq	%rsi, 8(%rsp)
	leaq	16(%rsp), %r15
	call	_ZN8opendnp320NumBytesInDoubleBitsEj@PLT
	movq	_ZN8opendnp311RangeParser29InvokeRangeDoubleBitfieldTypeINS_15DoubleBitBinaryEEEvRKNS_12HeaderRecordERKNS_5RangeERKN7openpal6RSliceERNS_12IAPDUHandlerE@GOTPCREL(%rip), %rcx
	movq	8(%rsp), %rsi
	movl	%eax, %edx
	jmp	.L576
	.p2align 4,,10
	.p2align 3
.L501:
	movzwl	(%rdx), %eax
	movzwl	2(%rdx), %edx
	xorl	%edi, %edi
	cmpw	%dx, %ax
	ja	.L536
	movzwl	%dx, %edi
	addl	$1, %edi
	subl	%eax, %edi
.L536:
	movq	%rsi, 8(%rsp)
	leaq	16(%rsp), %r15
	call	_ZN8opendnp314NumBytesInBitsEj@PLT
	movq	_ZN8opendnp311RangeParser23InvokeRangeBitfieldTypeINS_8IINValueEEEvRKNS_12HeaderRecordERKNS_5RangeERKN7openpal6RSliceERNS_12IAPDUHandlerE@GOTPCREL(%rip), %rcx
	movq	8(%rsp), %rsi
	movl	%eax, %edx
	jmp	.L576
	.p2align 4,,10
	.p2align 3
.L496:
	movzwl	(%rdx), %edx
	movzwl	2(%rsi), %eax
	xorl	%r8d, %r8d
	cmpw	%ax, %dx
	ja	.L532
	addl	$1, %eax
	subl	%edx, %eax
	leal	(%rax,%rax,2), %r8d
.L532:
	movq	_ZN8opendnp311RangeParser13InvokeRangeOfINS_11Group40Var2EEEvRKNS_12HeaderRecordERKNS_5RangeERKN7openpal6RSliceERNS_12IAPDUHandlerE@GOTPCREL(%rip), %rcx
	leaq	16(%rsp), %r15
	movl	%r8d, %edx
	jmp	.L576
.L584:
	movq	%rbp, %rdi
	movzbl	9(%rbp), %ebx
	movzbl	8(%rbp), %r15d
	leaq	32(%rsp), %r14
	call	_ZNK8opendnp312HeaderRecord16GetQualifierCodeEv@PLT
	movl	%eax, %edi
	call	_ZN8opendnp321QualifierCodeToStringENS_13QualifierCodeE@PLT
	pushq	%rbx
	.cfi_def_cfa_offset 232
	leaq	.LC6(%rip), %r8
	movq	%r14, %rdi
	pushq	%r15
	.cfi_def_cfa_offset 240
	movq	%rax, %r9
	movl	$120, %ecx
	movl	$1, %edx
	movl	$120, %esi
	xorl	%eax, %eax
	call	__snprintf_chk@PLT
	movq	%r14, %rcx
	movq	%r13, %rsi
	movq	%r12, %rdi
	movl	$4, 32(%rsp)
	popq	%rax
	.cfi_def_cfa_offset 232
	popq	%rdx
	.cfi_def_cfa_offset 224
	leaq	.LC7(%rip), %rdx
	call	_ZN7openpal6Logger3LogERKNS_10LogFiltersEPKcS5_@PLT
	movl	$8, %eax
	jmp	.L465
.L583:
	call	__stack_chk_fail@PLT
	.cfi_endproc
.LFE2399:
	.size	_ZN8opendnp311RangeParser19ParseRangeOfObjectsERN7openpal6RSliceERKNS_12HeaderRecordERKNS_5RangeEPNS1_6LoggerEPNS_12IAPDUHandlerE, .-_ZN8opendnp311RangeParser19ParseRangeOfObjectsERN7openpal6RSliceERKNS_12HeaderRecordERKNS_5RangeEPNS1_6LoggerEPNS_12IAPDUHandlerE
	.section	.rodata.str1.1,"aMS",@progbits,1
.LC8:
	.string	"%03u,%03u %s, %s [%u, %u]"
	.section	.rodata.str1.8
	.align 8
.LC9:
	.string	"/home/kimchaer/Desktop/OpenPLC_v3/utils/dnp3_src/cpp/libs/src/opendnp3/app/parsing/RangeParser.cpp(56)"
	.text
	.align 2
	.p2align 4
	.globl	_ZN8opendnp311RangeParser11ParseHeaderERN7openpal6RSliceERKNS_9NumParserERKNS_14ParserSettingsERKNS_12HeaderRecordEPNS1_6LoggerEPNS_12IAPDUHandlerE
	.type	_ZN8opendnp311RangeParser11ParseHeaderERN7openpal6RSliceERKNS_9NumParserERKNS_14ParserSettingsERKNS_12HeaderRecordEPNS1_6LoggerEPNS_12IAPDUHandlerE, @function
_ZN8opendnp311RangeParser11ParseHeaderERN7openpal6RSliceERKNS_9NumParserERKNS_14ParserSettingsERKNS_12HeaderRecordEPNS1_6LoggerEPNS_12IAPDUHandlerE:
.LFB2397:
	.cfi_startproc
	endbr64
	pushq	%r15
	.cfi_def_cfa_offset 16
	.cfi_offset 15, -16
	movq	%rdi, %r15
	movq	%rsi, %rdi
	pushq	%r14
	.cfi_def_cfa_offset 24
	.cfi_offset 14, -24
	movq	%r15, %rsi
	pushq	%r13
	.cfi_def_cfa_offset 32
	.cfi_offset 13, -32
	movq	%r8, %r13
	pushq	%r12
	.cfi_def_cfa_offset 40
	.cfi_offset 12, -40
	pushq	%rbp
	.cfi_def_cfa_offset 48
	.cfi_offset 6, -48
	movq	%rcx, %rbp
	movq	%r8, %rcx
	pushq	%rbx
	.cfi_def_cfa_offset 56
	.cfi_offset 3, -56
	movq	%rdx, %rbx
	subq	$216, %rsp
	.cfi_def_cfa_offset 272
	movq	%r9, (%rsp)
	leaq	44(%rsp), %r14
	movq	%r14, %rdx
	movq	%fs:40, %rax
	movq	%rax, 200(%rsp)
	xorl	%eax, %eax
	movl	$1, 44(%rsp)
	call	_ZNK8opendnp39NumParser10ParseRangeERN7openpal6RSliceERNS_5RangeEPNS1_6LoggerE@PLT
	movl	%eax, %r12d
	testb	%al, %al
	jne	.L585
	testq	%r13, %r13
	je	.L588
	leaq	48(%rsp), %r11
	movl	4(%rbx), %eax
	movq	%r13, %rdi
	movq	%r11, %rsi
	movq	%r11, 8(%rsp)
	movl	%eax, 48(%rsp)
	call	_ZNK7openpal6Logger9IsEnabledERKNS_10LogFiltersE@PLT
	movq	8(%rsp), %r11
	testb	%al, %al
	jne	.L601
.L588:
	cmpb	$0, (%rbx)
	jne	.L602
.L589:
	movq	(%rsp), %rdi
	testq	%rdi, %rdi
	je	.L585
	movdqu	0(%rbp), %xmm0
	movl	44(%rsp), %eax
	leaq	48(%rsp), %rsi
	movl	%eax, 64(%rsp)
	movaps	%xmm0, 48(%rsp)
	call	_ZN8opendnp312IAPDUHandler8OnHeaderERKNS_11RangeHeaderE@PLT
	.p2align 4,,10
	.p2align 3
.L585:
	movq	200(%rsp), %rax
	xorq	%fs:40, %rax
	jne	.L603
	addq	$216, %rsp
	.cfi_remember_state
	.cfi_def_cfa_offset 56
	movl	%r12d, %eax
	popq	%rbx
	.cfi_def_cfa_offset 48
	popq	%rbp
	.cfi_def_cfa_offset 40
	popq	%r12
	.cfi_def_cfa_offset 32
	popq	%r13
	.cfi_def_cfa_offset 24
	popq	%r14
	.cfi_def_cfa_offset 16
	popq	%r15
	.cfi_def_cfa_offset 8
	ret
	.p2align 4,,10
	.p2align 3
.L602:
	.cfi_restore_state
	movq	(%rsp), %r8
	movq	%r13, %rcx
	movq	%r14, %rdx
	movq	%rbp, %rsi
	movq	%r15, %rdi
	call	_ZN8opendnp311RangeParser19ParseRangeOfObjectsERN7openpal6RSliceERKNS_12HeaderRecordERKNS_5RangeEPNS1_6LoggerEPNS_12IAPDUHandlerE@PLT
	movl	%eax, %r12d
	jmp	.L585
	.p2align 4,,10
	.p2align 3
.L601:
	movzwl	46(%rsp), %esi
	movzwl	44(%rsp), %ecx
	movq	%rbp, %rdi
	movq	%r11, 24(%rsp)
	movl	%esi, 20(%rsp)
	movl	%ecx, 16(%rsp)
	call	_ZNK8opendnp312HeaderRecord16GetQualifierCodeEv@PLT
	movl	%eax, %edi
	call	_ZN8opendnp321QualifierCodeToStringENS_13QualifierCodeE@PLT
	movzwl	0(%rbp), %edi
	movq	%rax, 8(%rsp)
	call	_ZN8opendnp322GroupVariationToStringENS_14GroupVariationE@PLT
	leaq	80(%rsp), %r10
	subq	$8, %rsp
	.cfi_def_cfa_offset 280
	movzbl	8(%rbp), %r9d
	movl	28(%rsp), %esi
	movq	%r10, %rdi
	leaq	.LC8(%rip), %r8
	pushq	%rsi
	.cfi_def_cfa_offset 288
	movl	32(%rsp), %ecx
	movl	$120, %esi
	pushq	%rcx
	.cfi_def_cfa_offset 296
	movq	32(%rsp), %rdx
	movl	$120, %ecx
	pushq	%rdx
	.cfi_def_cfa_offset 304
	movl	$1, %edx
	pushq	%rax
	.cfi_def_cfa_offset 312
	movzbl	9(%rbp), %eax
	pushq	%rax
	.cfi_def_cfa_offset 320
	xorl	%eax, %eax
	movq	%r10, 56(%rsp)
	call	__snprintf_chk@PLT
	movl	4(%rbx), %eax
	leaq	.LC9(%rip), %rdx
	movq	%r13, %rdi
	movl	%eax, 96(%rsp)
	movq	56(%rsp), %r10
	addq	$48, %rsp
	.cfi_def_cfa_offset 272
	movq	24(%rsp), %r11
	movq	%r10, %rcx
	movq	%r11, %rsi
	call	_ZN7openpal6Logger3LogERKNS_10LogFiltersEPKcS5_@PLT
	cmpb	$0, (%rbx)
	je	.L589
	jmp	.L602
.L603:
	call	__stack_chk_fail@PLT
	.cfi_endproc
.LFE2397:
	.size	_ZN8opendnp311RangeParser11ParseHeaderERN7openpal6RSliceERKNS_9NumParserERKNS_14ParserSettingsERKNS_12HeaderRecordEPNS1_6LoggerEPNS_12IAPDUHandlerE, .-_ZN8opendnp311RangeParser11ParseHeaderERN7openpal6RSliceERKNS_9NumParserERKNS_14ParserSettingsERKNS_12HeaderRecordEPNS1_6LoggerEPNS_12IAPDUHandlerE
	.weak	_ZTSN7openpal12StaticBufferILj255EEE
	.section	.rodata._ZTSN7openpal12StaticBufferILj255EEE,"aG",@progbits,_ZTSN7openpal12StaticBufferILj255EEE,comdat
	.align 32
	.type	_ZTSN7openpal12StaticBufferILj255EEE, @object
	.size	_ZTSN7openpal12StaticBufferILj255EEE, 33
_ZTSN7openpal12StaticBufferILj255EEE:
	.string	"N7openpal12StaticBufferILj255EEE"
	.weak	_ZTIN7openpal12StaticBufferILj255EEE
	.section	.data.rel.ro._ZTIN7openpal12StaticBufferILj255EEE,"awG",@progbits,_ZTIN7openpal12StaticBufferILj255EEE,comdat
	.align 8
	.type	_ZTIN7openpal12StaticBufferILj255EEE, @object
	.size	_ZTIN7openpal12StaticBufferILj255EEE, 16
_ZTIN7openpal12StaticBufferILj255EEE:
	.quad	_ZTVN10__cxxabiv117__class_type_infoE+16
	.quad	_ZTSN7openpal12StaticBufferILj255EEE
	.weak	_ZTSN8opendnp311ICollectionINS_7IndexedINS_11OctetStringEEEEE
	.section	.rodata._ZTSN8opendnp311ICollectionINS_7IndexedINS_11OctetStringEEEEE,"aG",@progbits,_ZTSN8opendnp311ICollectionINS_7IndexedINS_11OctetStringEEEEE,comdat
	.align 32
	.type	_ZTSN8opendnp311ICollectionINS_7IndexedINS_11OctetStringEEEEE, @object
	.size	_ZTSN8opendnp311ICollectionINS_7IndexedINS_11OctetStringEEEEE, 58
_ZTSN8opendnp311ICollectionINS_7IndexedINS_11OctetStringEEEEE:
	.string	"N8opendnp311ICollectionINS_7IndexedINS_11OctetStringEEEEE"
	.weak	_ZTIN8opendnp311ICollectionINS_7IndexedINS_11OctetStringEEEEE
	.section	.data.rel.ro._ZTIN8opendnp311ICollectionINS_7IndexedINS_11OctetStringEEEEE,"awG",@progbits,_ZTIN8opendnp311ICollectionINS_7IndexedINS_11OctetStringEEEEE,comdat
	.align 8
	.type	_ZTIN8opendnp311ICollectionINS_7IndexedINS_11OctetStringEEEEE, @object
	.size	_ZTIN8opendnp311ICollectionINS_7IndexedINS_11OctetStringEEEEE, 16
_ZTIN8opendnp311ICollectionINS_7IndexedINS_11OctetStringEEEEE:
	.quad	_ZTVN10__cxxabiv117__class_type_infoE+16
	.quad	_ZTSN8opendnp311ICollectionINS_7IndexedINS_11OctetStringEEEEE
	.section	.data.rel.ro,"aw"
	.align 8
	.type	_ZTIN8opendnp318BufferedCollectionINS_7IndexedINS_11OctetStringEEEZNS_11RangeParser21ParseRangeOfOctetDataERN7openpal6RSliceERKNS_12HeaderRecordERKNS_5RangeEPNS5_6LoggerEPNS_12IAPDUHandlerEEUlS7_jE_EE, @object
	.size	_ZTIN8opendnp318BufferedCollectionINS_7IndexedINS_11OctetStringEEEZNS_11RangeParser21ParseRangeOfOctetDataERN7openpal6RSliceERKNS_12HeaderRecordERKNS_5RangeEPNS5_6LoggerEPNS_12IAPDUHandlerEEUlS7_jE_EE, 24
_ZTIN8opendnp318BufferedCollectionINS_7IndexedINS_11OctetStringEEEZNS_11RangeParser21ParseRangeOfOctetDataERN7openpal6RSliceERKNS_12HeaderRecordERKNS_5RangeEPNS5_6LoggerEPNS_12IAPDUHandlerEEUlS7_jE_EE:
	.quad	_ZTVN10__cxxabiv120__si_class_type_infoE+16
	.quad	_ZTSN8opendnp318BufferedCollectionINS_7IndexedINS_11OctetStringEEEZNS_11RangeParser21ParseRangeOfOctetDataERN7openpal6RSliceERKNS_12HeaderRecordERKNS_5RangeEPNS5_6LoggerEPNS_12IAPDUHandlerEEUlS7_jE_EE
	.quad	_ZTIN8opendnp311ICollectionINS_7IndexedINS_11OctetStringEEEEE
	.section	.rodata
	.align 32
	.type	_ZTSN8opendnp318BufferedCollectionINS_7IndexedINS_11OctetStringEEEZNS_11RangeParser21ParseRangeOfOctetDataERN7openpal6RSliceERKNS_12HeaderRecordERKNS_5RangeEPNS5_6LoggerEPNS_12IAPDUHandlerEEUlS7_jE_EE, @object
	.size	_ZTSN8opendnp318BufferedCollectionINS_7IndexedINS_11OctetStringEEEZNS_11RangeParser21ParseRangeOfOctetDataERN7openpal6RSliceERKNS_12HeaderRecordERKNS_5RangeEPNS5_6LoggerEPNS_12IAPDUHandlerEEUlS7_jE_EE, 198
_ZTSN8opendnp318BufferedCollectionINS_7IndexedINS_11OctetStringEEEZNS_11RangeParser21ParseRangeOfOctetDataERN7openpal6RSliceERKNS_12HeaderRecordERKNS_5RangeEPNS5_6LoggerEPNS_12IAPDUHandlerEEUlS7_jE_EE:
	.string	"*N8opendnp318BufferedCollectionINS_7IndexedINS_11OctetStringEEEZNS_11RangeParser21ParseRangeOfOctetDataERN7openpal6RSliceERKNS_12HeaderRecordERKNS_5RangeEPNS5_6LoggerEPNS_12IAPDUHandlerEEUlS7_jE_EE"
	.weak	_ZTSN8opendnp311ICollectionINS_7IndexedINS_12Group121Var1EEEEE
	.section	.rodata._ZTSN8opendnp311ICollectionINS_7IndexedINS_12Group121Var1EEEEE,"aG",@progbits,_ZTSN8opendnp311ICollectionINS_7IndexedINS_12Group121Var1EEEEE,comdat
	.align 32
	.type	_ZTSN8opendnp311ICollectionINS_7IndexedINS_12Group121Var1EEEEE, @object
	.size	_ZTSN8opendnp311ICollectionINS_7IndexedINS_12Group121Var1EEEEE, 59
_ZTSN8opendnp311ICollectionINS_7IndexedINS_12Group121Var1EEEEE:
	.string	"N8opendnp311ICollectionINS_7IndexedINS_12Group121Var1EEEEE"
	.weak	_ZTIN8opendnp311ICollectionINS_7IndexedINS_12Group121Var1EEEEE
	.section	.data.rel.ro._ZTIN8opendnp311ICollectionINS_7IndexedINS_12Group121Var1EEEEE,"awG",@progbits,_ZTIN8opendnp311ICollectionINS_7IndexedINS_12Group121Var1EEEEE,comdat
	.align 8
	.type	_ZTIN8opendnp311ICollectionINS_7IndexedINS_12Group121Var1EEEEE, @object
	.size	_ZTIN8opendnp311ICollectionINS_7IndexedINS_12Group121Var1EEEEE, 16
_ZTIN8opendnp311ICollectionINS_7IndexedINS_12Group121Var1EEEEE:
	.quad	_ZTVN10__cxxabiv117__class_type_infoE+16
	.quad	_ZTSN8opendnp311ICollectionINS_7IndexedINS_12Group121Var1EEEEE
	.weak	_ZTSN8opendnp311ICollectionINS_7IndexedINS_15TimeAndIntervalEEEEE
	.section	.rodata._ZTSN8opendnp311ICollectionINS_7IndexedINS_15TimeAndIntervalEEEEE,"aG",@progbits,_ZTSN8opendnp311ICollectionINS_7IndexedINS_15TimeAndIntervalEEEEE,comdat
	.align 32
	.type	_ZTSN8opendnp311ICollectionINS_7IndexedINS_15TimeAndIntervalEEEEE, @object
	.size	_ZTSN8opendnp311ICollectionINS_7IndexedINS_15TimeAndIntervalEEEEE, 62
_ZTSN8opendnp311ICollectionINS_7IndexedINS_15TimeAndIntervalEEEEE:
	.string	"N8opendnp311ICollectionINS_7IndexedINS_15TimeAndIntervalEEEEE"
	.weak	_ZTIN8opendnp311ICollectionINS_7IndexedINS_15TimeAndIntervalEEEEE
	.section	.data.rel.ro._ZTIN8opendnp311ICollectionINS_7IndexedINS_15TimeAndIntervalEEEEE,"awG",@progbits,_ZTIN8opendnp311ICollectionINS_7IndexedINS_15TimeAndIntervalEEEEE,comdat
	.align 8
	.type	_ZTIN8opendnp311ICollectionINS_7IndexedINS_15TimeAndIntervalEEEEE, @object
	.size	_ZTIN8opendnp311ICollectionINS_7IndexedINS_15TimeAndIntervalEEEEE, 16
_ZTIN8opendnp311ICollectionINS_7IndexedINS_15TimeAndIntervalEEEEE:
	.quad	_ZTVN10__cxxabiv117__class_type_infoE+16
	.quad	_ZTSN8opendnp311ICollectionINS_7IndexedINS_15TimeAndIntervalEEEEE
	.weak	_ZTSN8opendnp311ICollectionINS_7IndexedINS_18AnalogOutputStatusEEEEE
	.section	.rodata._ZTSN8opendnp311ICollectionINS_7IndexedINS_18AnalogOutputStatusEEEEE,"aG",@progbits,_ZTSN8opendnp311ICollectionINS_7IndexedINS_18AnalogOutputStatusEEEEE,comdat
	.align 32
	.type	_ZTSN8opendnp311ICollectionINS_7IndexedINS_18AnalogOutputStatusEEEEE, @object
	.size	_ZTSN8opendnp311ICollectionINS_7IndexedINS_18AnalogOutputStatusEEEEE, 65
_ZTSN8opendnp311ICollectionINS_7IndexedINS_18AnalogOutputStatusEEEEE:
	.string	"N8opendnp311ICollectionINS_7IndexedINS_18AnalogOutputStatusEEEEE"
	.weak	_ZTIN8opendnp311ICollectionINS_7IndexedINS_18AnalogOutputStatusEEEEE
	.section	.data.rel.ro._ZTIN8opendnp311ICollectionINS_7IndexedINS_18AnalogOutputStatusEEEEE,"awG",@progbits,_ZTIN8opendnp311ICollectionINS_7IndexedINS_18AnalogOutputStatusEEEEE,comdat
	.align 8
	.type	_ZTIN8opendnp311ICollectionINS_7IndexedINS_18AnalogOutputStatusEEEEE, @object
	.size	_ZTIN8opendnp311ICollectionINS_7IndexedINS_18AnalogOutputStatusEEEEE, 16
_ZTIN8opendnp311ICollectionINS_7IndexedINS_18AnalogOutputStatusEEEEE:
	.quad	_ZTVN10__cxxabiv117__class_type_infoE+16
	.quad	_ZTSN8opendnp311ICollectionINS_7IndexedINS_18AnalogOutputStatusEEEEE
	.weak	_ZTSN8opendnp311ICollectionINS_7IndexedINS_6AnalogEEEEE
	.section	.rodata._ZTSN8opendnp311ICollectionINS_7IndexedINS_6AnalogEEEEE,"aG",@progbits,_ZTSN8opendnp311ICollectionINS_7IndexedINS_6AnalogEEEEE,comdat
	.align 32
	.type	_ZTSN8opendnp311ICollectionINS_7IndexedINS_6AnalogEEEEE, @object
	.size	_ZTSN8opendnp311ICollectionINS_7IndexedINS_6AnalogEEEEE, 52
_ZTSN8opendnp311ICollectionINS_7IndexedINS_6AnalogEEEEE:
	.string	"N8opendnp311ICollectionINS_7IndexedINS_6AnalogEEEEE"
	.weak	_ZTIN8opendnp311ICollectionINS_7IndexedINS_6AnalogEEEEE
	.section	.data.rel.ro._ZTIN8opendnp311ICollectionINS_7IndexedINS_6AnalogEEEEE,"awG",@progbits,_ZTIN8opendnp311ICollectionINS_7IndexedINS_6AnalogEEEEE,comdat
	.align 8
	.type	_ZTIN8opendnp311ICollectionINS_7IndexedINS_6AnalogEEEEE, @object
	.size	_ZTIN8opendnp311ICollectionINS_7IndexedINS_6AnalogEEEEE, 16
_ZTIN8opendnp311ICollectionINS_7IndexedINS_6AnalogEEEEE:
	.quad	_ZTVN10__cxxabiv117__class_type_infoE+16
	.quad	_ZTSN8opendnp311ICollectionINS_7IndexedINS_6AnalogEEEEE
	.weak	_ZTSN8opendnp311ICollectionINS_7IndexedINS_13FrozenCounterEEEEE
	.section	.rodata._ZTSN8opendnp311ICollectionINS_7IndexedINS_13FrozenCounterEEEEE,"aG",@progbits,_ZTSN8opendnp311ICollectionINS_7IndexedINS_13FrozenCounterEEEEE,comdat
	.align 32
	.type	_ZTSN8opendnp311ICollectionINS_7IndexedINS_13FrozenCounterEEEEE, @object
	.size	_ZTSN8opendnp311ICollectionINS_7IndexedINS_13FrozenCounterEEEEE, 60
_ZTSN8opendnp311ICollectionINS_7IndexedINS_13FrozenCounterEEEEE:
	.string	"N8opendnp311ICollectionINS_7IndexedINS_13FrozenCounterEEEEE"
	.weak	_ZTIN8opendnp311ICollectionINS_7IndexedINS_13FrozenCounterEEEEE
	.section	.data.rel.ro._ZTIN8opendnp311ICollectionINS_7IndexedINS_13FrozenCounterEEEEE,"awG",@progbits,_ZTIN8opendnp311ICollectionINS_7IndexedINS_13FrozenCounterEEEEE,comdat
	.align 8
	.type	_ZTIN8opendnp311ICollectionINS_7IndexedINS_13FrozenCounterEEEEE, @object
	.size	_ZTIN8opendnp311ICollectionINS_7IndexedINS_13FrozenCounterEEEEE, 16
_ZTIN8opendnp311ICollectionINS_7IndexedINS_13FrozenCounterEEEEE:
	.quad	_ZTVN10__cxxabiv117__class_type_infoE+16
	.quad	_ZTSN8opendnp311ICollectionINS_7IndexedINS_13FrozenCounterEEEEE
	.weak	_ZTSN8opendnp311ICollectionINS_7IndexedINS_7CounterEEEEE
	.section	.rodata._ZTSN8opendnp311ICollectionINS_7IndexedINS_7CounterEEEEE,"aG",@progbits,_ZTSN8opendnp311ICollectionINS_7IndexedINS_7CounterEEEEE,comdat
	.align 32
	.type	_ZTSN8opendnp311ICollectionINS_7IndexedINS_7CounterEEEEE, @object
	.size	_ZTSN8opendnp311ICollectionINS_7IndexedINS_7CounterEEEEE, 53
_ZTSN8opendnp311ICollectionINS_7IndexedINS_7CounterEEEEE:
	.string	"N8opendnp311ICollectionINS_7IndexedINS_7CounterEEEEE"
	.weak	_ZTIN8opendnp311ICollectionINS_7IndexedINS_7CounterEEEEE
	.section	.data.rel.ro._ZTIN8opendnp311ICollectionINS_7IndexedINS_7CounterEEEEE,"awG",@progbits,_ZTIN8opendnp311ICollectionINS_7IndexedINS_7CounterEEEEE,comdat
	.align 8
	.type	_ZTIN8opendnp311ICollectionINS_7IndexedINS_7CounterEEEEE, @object
	.size	_ZTIN8opendnp311ICollectionINS_7IndexedINS_7CounterEEEEE, 16
_ZTIN8opendnp311ICollectionINS_7IndexedINS_7CounterEEEEE:
	.quad	_ZTVN10__cxxabiv117__class_type_infoE+16
	.quad	_ZTSN8opendnp311ICollectionINS_7IndexedINS_7CounterEEEEE
	.weak	_ZTSN8opendnp311ICollectionINS_7IndexedINS_18BinaryOutputStatusEEEEE
	.section	.rodata._ZTSN8opendnp311ICollectionINS_7IndexedINS_18BinaryOutputStatusEEEEE,"aG",@progbits,_ZTSN8opendnp311ICollectionINS_7IndexedINS_18BinaryOutputStatusEEEEE,comdat
	.align 32
	.type	_ZTSN8opendnp311ICollectionINS_7IndexedINS_18BinaryOutputStatusEEEEE, @object
	.size	_ZTSN8opendnp311ICollectionINS_7IndexedINS_18BinaryOutputStatusEEEEE, 65
_ZTSN8opendnp311ICollectionINS_7IndexedINS_18BinaryOutputStatusEEEEE:
	.string	"N8opendnp311ICollectionINS_7IndexedINS_18BinaryOutputStatusEEEEE"
	.weak	_ZTIN8opendnp311ICollectionINS_7IndexedINS_18BinaryOutputStatusEEEEE
