	.file	"RestartOperationTask.cpp"
	.text
	.section	.text._ZNK8opendnp311IMasterTask10IsAuthTaskEv,"axG",@progbits,_ZNK8opendnp311IMasterTask10IsAuthTaskEv,comdat
	.align 2
	.p2align 4
	.weak	_ZNK8opendnp311IMasterTask10IsAuthTaskEv
	.type	_ZNK8opendnp311IMasterTask10IsAuthTaskEv, @function
_ZNK8opendnp311IMasterTask10IsAuthTaskEv:
.LFB2400:
	.cfi_startproc
	endbr64
	xorl	%eax, %eax
	ret
	.cfi_endproc
.LFE2400:
	.size	_ZNK8opendnp311IMasterTask10IsAuthTaskEv, .-_ZNK8opendnp311IMasterTask10IsAuthTaskEv
	.section	.text._ZN8opendnp311IMasterTask10InitializeEv,"axG",@progbits,_ZN8opendnp311IMasterTask10InitializeEv,comdat
	.align 2
	.p2align 4
	.weak	_ZN8opendnp311IMasterTask10InitializeEv
	.type	_ZN8opendnp311IMasterTask10InitializeEv, @function
_ZN8opendnp311IMasterTask10InitializeEv:
.LFB2401:
	.cfi_startproc
	endbr64
	ret
	.cfi_endproc
.LFE2401:
	.size	_ZN8opendnp311IMasterTask10InitializeEv, .-_ZN8opendnp311IMasterTask10InitializeEv
	.section	.text._ZNK8opendnp321SimpleRequestTaskBase11IsRecurringEv,"axG",@progbits,_ZNK8opendnp321SimpleRequestTaskBase11IsRecurringEv,comdat
	.align 2
	.p2align 4
	.weak	_ZNK8opendnp321SimpleRequestTaskBase11IsRecurringEv
	.type	_ZNK8opendnp321SimpleRequestTaskBase11IsRecurringEv, @function
_ZNK8opendnp321SimpleRequestTaskBase11IsRecurringEv:
.LFB2402:
	.cfi_startproc
	endbr64
	xorl	%eax, %eax
	ret
	.cfi_endproc
.LFE2402:
	.size	_ZNK8opendnp321SimpleRequestTaskBase11IsRecurringEv, .-_ZNK8opendnp321SimpleRequestTaskBase11IsRecurringEv
	.section	.text._ZNK8opendnp321SimpleRequestTaskBase8PriorityEv,"axG",@progbits,_ZNK8opendnp321SimpleRequestTaskBase8PriorityEv,comdat
	.align 2
	.p2align 4
	.weak	_ZNK8opendnp321SimpleRequestTaskBase8PriorityEv
	.type	_ZNK8opendnp321SimpleRequestTaskBase8PriorityEv, @function
_ZNK8opendnp321SimpleRequestTaskBase8PriorityEv:
.LFB2403:
	.cfi_startproc
	endbr64
	movl	92(%rdi), %eax
	ret
	.cfi_endproc
.LFE2403:
	.size	_ZNK8opendnp321SimpleRequestTaskBase8PriorityEv, .-_ZNK8opendnp321SimpleRequestTaskBase8PriorityEv
	.section	.text._ZNK8opendnp321SimpleRequestTaskBase19BlocksLowerPriorityEv,"axG",@progbits,_ZNK8opendnp321SimpleRequestTaskBase19BlocksLowerPriorityEv,comdat
	.align 2
	.p2align 4
	.weak	_ZNK8opendnp321SimpleRequestTaskBase19BlocksLowerPriorityEv
	.type	_ZNK8opendnp321SimpleRequestTaskBase19BlocksLowerPriorityEv, @function
_ZNK8opendnp321SimpleRequestTaskBase19BlocksLowerPriorityEv:
.LFB2404:
	.cfi_startproc
	endbr64
	xorl	%eax, %eax
	ret
	.cfi_endproc
.LFE2404:
	.size	_ZNK8opendnp321SimpleRequestTaskBase19BlocksLowerPriorityEv, .-_ZNK8opendnp321SimpleRequestTaskBase19BlocksLowerPriorityEv
	.section	.text._ZNK8opendnp321SimpleRequestTaskBase9IsEnabledEv,"axG",@progbits,_ZNK8opendnp321SimpleRequestTaskBase9IsEnabledEv,comdat
	.align 2
	.p2align 4
	.weak	_ZNK8opendnp321SimpleRequestTaskBase9IsEnabledEv
	.type	_ZNK8opendnp321SimpleRequestTaskBase9IsEnabledEv, @function
_ZNK8opendnp321SimpleRequestTaskBase9IsEnabledEv:
.LFB2405:
	.cfi_startproc
	endbr64
	movl	$1, %eax
	ret
	.cfi_endproc
.LFE2405:
	.size	_ZNK8opendnp321SimpleRequestTaskBase9IsEnabledEv, .-_ZNK8opendnp321SimpleRequestTaskBase9IsEnabledEv
	.section	.text._ZNK8opendnp321SimpleRequestTaskBase11GetTaskTypeEv,"axG",@progbits,_ZNK8opendnp321SimpleRequestTaskBase11GetTaskTypeEv,comdat
	.align 2
	.p2align 4
	.weak	_ZNK8opendnp321SimpleRequestTaskBase11GetTaskTypeEv
	.type	_ZNK8opendnp321SimpleRequestTaskBase11GetTaskTypeEv, @function
_ZNK8opendnp321SimpleRequestTaskBase11GetTaskTypeEv:
.LFB2406:
	.cfi_startproc
	endbr64
	movl	$7, %eax
	ret
	.cfi_endproc
.LFE2406:
	.size	_ZNK8opendnp321SimpleRequestTaskBase11GetTaskTypeEv, .-_ZNK8opendnp321SimpleRequestTaskBase11GetTaskTypeEv
	.section	.text._ZN8opendnp312IAPDUHandler14OnHeaderResultERKNS_12HeaderRecordERKNS_8IINFieldE,"axG",@progbits,_ZN8opendnp312IAPDUHandler14OnHeaderResultERKNS_12HeaderRecordERKNS_8IINFieldE,comdat
	.align 2
	.p2align 4
	.weak	_ZN8opendnp312IAPDUHandler14OnHeaderResultERKNS_12HeaderRecordERKNS_8IINFieldE
	.type	_ZN8opendnp312IAPDUHandler14OnHeaderResultERKNS_12HeaderRecordERKNS_8IINFieldE, @function
_ZN8opendnp312IAPDUHandler14OnHeaderResultERKNS_12HeaderRecordERKNS_8IINFieldE:
.LFB2565:
	.cfi_startproc
	endbr64
	ret
	.cfi_endproc
.LFE2565:
	.size	_ZN8opendnp312IAPDUHandler14OnHeaderResultERKNS_12HeaderRecordERKNS_8IINFieldE, .-_ZN8opendnp312IAPDUHandler14OnHeaderResultERKNS_12HeaderRecordERKNS_8IINFieldE
	.text
	.align 2
	.p2align 4
	.globl	_ZN8opendnp320RestartOperationTask9IsAllowedEjNS_14GroupVariationENS_13QualifierCodeE
	.type	_ZN8opendnp320RestartOperationTask9IsAllowedEjNS_14GroupVariationENS_13QualifierCodeE, @function
_ZN8opendnp320RestartOperationTask9IsAllowedEjNS_14GroupVariationENS_13QualifierCodeE:
.LFB2595:
	.cfi_startproc
	endbr64
	xorl	%eax, %eax
	testl	%esi, %esi
	jne	.L10
	subw	$13313, %dx
	cmpw	$1, %dx
	setbe	%al
.L10:
	ret
	.cfi_endproc
.LFE2595:
	.size	_ZN8opendnp320RestartOperationTask9IsAllowedEjNS_14GroupVariationENS_13QualifierCodeE, .-_ZN8opendnp320RestartOperationTask9IsAllowedEjNS_14GroupVariationENS_13QualifierCodeE
	.p2align 4
	.type	_ZNSt17_Function_handlerIFbRN8opendnp312HeaderWriterEEZNS0_20RestartOperationTaskC4ERNS0_18IMasterApplicationENS0_11RestartTypeERKSt8functionIFvRKNS0_22RestartOperationResultEEEN7openpal6LoggerERKNS0_10TaskConfigEEUlS2_E_E9_M_invokeERKSt9_Any_dataS2_, @function
_ZNSt17_Function_handlerIFbRN8opendnp312HeaderWriterEEZNS0_20RestartOperationTaskC4ERNS0_18IMasterApplicationENS0_11RestartTypeERKSt8functionIFvRKNS0_22RestartOperationResultEEEN7openpal6LoggerERKNS0_10TaskConfigEEUlS2_E_E9_M_invokeERKSt9_Any_dataS2_:
.LFB3043:
	.cfi_startproc
	endbr64
	movl	$1, %eax
	ret
	.cfi_endproc
.LFE3043:
	.size	_ZNSt17_Function_handlerIFbRN8opendnp312HeaderWriterEEZNS0_20RestartOperationTaskC4ERNS0_18IMasterApplicationENS0_11RestartTypeERKSt8functionIFvRKNS0_22RestartOperationResultEEEN7openpal6LoggerERKNS0_10TaskConfigEEUlS2_E_E9_M_invokeERKSt9_Any_dataS2_, .-_ZNSt17_Function_handlerIFbRN8opendnp312HeaderWriterEEZNS0_20RestartOperationTaskC4ERNS0_18IMasterApplicationENS0_11RestartTypeERKSt8functionIFvRKNS0_22RestartOperationResultEEEN7openpal6LoggerERKNS0_10TaskConfigEEUlS2_E_E9_M_invokeERKSt9_Any_dataS2_
	.p2align 4
	.type	_ZNSt14_Function_base13_Base_managerIZN8opendnp320RestartOperationTaskC4ERNS1_18IMasterApplicationENS1_11RestartTypeERKSt8functionIFvRKNS1_22RestartOperationResultEEEN7openpal6LoggerERKNS1_10TaskConfigEEUlRNS1_12HeaderWriterEE_E10_M_managerERSt9_Any_dataRKSN_St18_Manager_operation, @function
_ZNSt14_Function_base13_Base_managerIZN8opendnp320RestartOperationTaskC4ERNS1_18IMasterApplicationENS1_11RestartTypeERKSt8functionIFvRKNS1_22RestartOperationResultEEEN7openpal6LoggerERKNS1_10TaskConfigEEUlRNS1_12HeaderWriterEE_E10_M_managerERSt9_Any_dataRKSN_St18_Manager_operation:
.LFB3045:
	.cfi_startproc
	endbr64
	cmpl	$1, %edx
	je	.L15
	cmpl	$3, %edx
	je	.L16
	testl	%edx, %edx
	je	.L20
.L16:
	xorl	%eax, %eax
	ret
	.p2align 4,,10
	.p2align 3
.L15:
	movq	%rsi, (%rdi)
	xorl	%eax, %eax
	ret
	.p2align 4,,10
	.p2align 3
.L20:
	leaq	_ZTIZN8opendnp320RestartOperationTaskC4ERNS_18IMasterApplicationENS_11RestartTypeERKSt8functionIFvRKNS_22RestartOperationResultEEEN7openpal6LoggerERKNS_10TaskConfigEEUlRNS_12HeaderWriterEE_(%rip), %rax
	movq	%rax, (%rdi)
	xorl	%eax, %eax
	ret
	.cfi_endproc
.LFE3045:
	.size	_ZNSt14_Function_base13_Base_managerIZN8opendnp320RestartOperationTaskC4ERNS1_18IMasterApplicationENS1_11RestartTypeERKSt8functionIFvRKNS1_22RestartOperationResultEEEN7openpal6LoggerERKNS1_10TaskConfigEEUlRNS1_12HeaderWriterEE_E10_M_managerERSt9_Any_dataRKSN_St18_Manager_operation, .-_ZNSt14_Function_base13_Base_managerIZN8opendnp320RestartOperationTaskC4ERNS1_18IMasterApplicationENS1_11RestartTypeERKSt8functionIFvRKNS1_22RestartOperationResultEEEN7openpal6LoggerERKNS1_10TaskConfigEEUlRNS1_12HeaderWriterEE_E10_M_managerERSt9_Any_dataRKSN_St18_Manager_operation
	.section	.text._ZN8opendnp314FunctorVisitorINS_11Group52Var2EZNKS_11ICollectionIS1_E13ReadOnlyValueERS1_EUlRKS1_E_E7OnValueES6_,"axG",@progbits,_ZN8opendnp314FunctorVisitorINS_11Group52Var2EZNKS_11ICollectionIS1_E13ReadOnlyValueERS1_EUlRKS1_E_E7OnValueES6_,comdat
	.align 2
	.p2align 4
	.weak	_ZN8opendnp314FunctorVisitorINS_11Group52Var2EZNKS_11ICollectionIS1_E13ReadOnlyValueERS1_EUlRKS1_E_E7OnValueES6_
	.type	_ZN8opendnp314FunctorVisitorINS_11Group52Var2EZNKS_11ICollectionIS1_E13ReadOnlyValueERS1_EUlRKS1_E_E7OnValueES6_, @function
_ZN8opendnp314FunctorVisitorINS_11Group52Var2EZNKS_11ICollectionIS1_E13ReadOnlyValueERS1_EUlRKS1_E_E7OnValueES6_:
.LFB3323:
	.cfi_startproc
	endbr64
	movzwl	(%rsi), %edx
	movq	8(%rdi), %rax
	movw	%dx, (%rax)
	ret
	.cfi_endproc
.LFE3323:
	.size	_ZN8opendnp314FunctorVisitorINS_11Group52Var2EZNKS_11ICollectionIS1_E13ReadOnlyValueERS1_EUlRKS1_E_E7OnValueES6_, .-_ZN8opendnp314FunctorVisitorINS_11Group52Var2EZNKS_11ICollectionIS1_E13ReadOnlyValueERS1_EUlRKS1_E_E7OnValueES6_
	.section	.text._ZN8opendnp314FunctorVisitorINS_11Group52Var1EZNKS_11ICollectionIS1_E13ReadOnlyValueERS1_EUlRKS1_E_E7OnValueES6_,"axG",@progbits,_ZN8opendnp314FunctorVisitorINS_11Group52Var1EZNKS_11ICollectionIS1_E13ReadOnlyValueERS1_EUlRKS1_E_E7OnValueES6_,comdat
	.align 2
	.p2align 4
	.weak	_ZN8opendnp314FunctorVisitorINS_11Group52Var1EZNKS_11ICollectionIS1_E13ReadOnlyValueERS1_EUlRKS1_E_E7OnValueES6_
	.type	_ZN8opendnp314FunctorVisitorINS_11Group52Var1EZNKS_11ICollectionIS1_E13ReadOnlyValueERS1_EUlRKS1_E_E7OnValueES6_, @function
_ZN8opendnp314FunctorVisitorINS_11Group52Var1EZNKS_11ICollectionIS1_E13ReadOnlyValueERS1_EUlRKS1_E_E7OnValueES6_:
.LFB3324:
	.cfi_startproc
	endbr64
	movzwl	(%rsi), %edx
	movq	8(%rdi), %rax
	movw	%dx, (%rax)
	ret
	.cfi_endproc
.LFE3324:
	.size	_ZN8opendnp314FunctorVisitorINS_11Group52Var1EZNKS_11ICollectionIS1_E13ReadOnlyValueERS1_EUlRKS1_E_E7OnValueES6_, .-_ZN8opendnp314FunctorVisitorINS_11Group52Var1EZNKS_11ICollectionIS1_E13ReadOnlyValueERS1_EUlRKS1_E_E7OnValueES6_
	.text
	.align 2
	.p2align 4
	.globl	_ZNK8opendnp320RestartOperationTask4NameEv
	.type	_ZNK8opendnp320RestartOperationTask4NameEv, @function
_ZNK8opendnp320RestartOperationTask4NameEv:
.LFB2596:
	.cfi_startproc
	endbr64
	movzbl	88(%rdi), %edi
	jmp	_ZN8opendnp320FunctionCodeToStringENS_12FunctionCodeE@PLT
	.cfi_endproc
.LFE2596:
	.size	_ZNK8opendnp320RestartOperationTask4NameEv, .-_ZNK8opendnp320RestartOperationTask4NameEv
	.align 2
	.p2align 4
	.globl	_ZN8opendnp320RestartOperationTask14OnTaskCompleteENS_14TaskCompletionEN7openpal18MonotonicTimestampE
	.type	_ZN8opendnp320RestartOperationTask14OnTaskCompleteENS_14TaskCompletionEN7openpal18MonotonicTimestampE, @function
_ZN8opendnp320RestartOperationTask14OnTaskCompleteENS_14TaskCompletionEN7openpal18MonotonicTimestampE:
.LFB2601:
	.cfi_startproc
	endbr64
	pushq	%rbp
	.cfi_def_cfa_offset 16
	.cfi_offset 6, -16
	movl	%esi, %ebp
	pushq	%rbx
	.cfi_def_cfa_offset 24
	.cfi_offset 3, -24
	movq	%rdi, %rbx
	subq	$-128, %rdi
	subq	$56, %rsp
	.cfi_def_cfa_offset 80
	movq	%fs:40, %rax
	movq	%rax, 40(%rsp)
	xorl	%eax, %eax
	call	_ZNK8opendnp312IAPDUHandler6ErrorsEv@PLT
	movzbl	%ah, %edx
	movl	%edx, %ecx
	orb	%al, %cl
	movq	184(%rbx), %rax
	je	.L25
	cmpq	$0, 168(%rbx)
	movb	$1, (%rsp)
	movq	%rax, 8(%rsp)
	je	.L28
	movq	%rsp, %rsi
	leaq	152(%rbx), %rdi
	call	*176(%rbx)
	jmp	.L27
	.p2align 4,,10
	.p2align 3
.L25:
	cmpq	$0, 168(%rbx)
	movb	%bpl, 16(%rsp)
	movq	%rax, 24(%rsp)
	je	.L28
	leaq	16(%rsp), %rsi
	leaq	152(%rbx), %rdi
	call	*176(%rbx)
.L27:
	call	_ZN7openpal18MonotonicTimestamp3MaxEv@PLT
	movq	%rax, %rdx
	movq	40(%rsp), %rax
	xorq	%fs:40, %rax
	jne	.L31
	addq	$56, %rsp
	.cfi_remember_state
	.cfi_def_cfa_offset 24
	xorl	%eax, %eax
	popq	%rbx
	.cfi_def_cfa_offset 16
	popq	%rbp
	.cfi_def_cfa_offset 8
	ret
.L28:
	.cfi_restore_state
	call	_ZSt25__throw_bad_function_callv@PLT
.L31:
	call	__stack_chk_fail@PLT
	.cfi_endproc
.LFE2601:
	.size	_ZN8opendnp320RestartOperationTask14OnTaskCompleteENS_14TaskCompletionEN7openpal18MonotonicTimestampE, .-_ZN8opendnp320RestartOperationTask14OnTaskCompleteENS_14TaskCompletionEN7openpal18MonotonicTimestampE
	.align 2
	.p2align 4
	.globl	_ZN8opendnp320RestartOperationTask15ProcessResponseERKNS_18APDUResponseHeaderERKN7openpal6RSliceE
	.type	_ZN8opendnp320RestartOperationTask15ProcessResponseERKNS_18APDUResponseHeaderERKN7openpal6RSliceE, @function
_ZN8opendnp320RestartOperationTask15ProcessResponseERKNS_18APDUResponseHeaderERKN7openpal6RSliceE:
.LFB2597:
	.cfi_startproc
	endbr64
	pushq	%r12
	.cfi_def_cfa_offset 16
	.cfi_offset 12, -16
	movq	%rdx, %r12
	pushq	%rbp
	.cfi_def_cfa_offset 24
	.cfi_offset 6, -24
	movq	%rsi, %rbp
	pushq	%rbx
	.cfi_def_cfa_offset 32
	.cfi_offset 3, -32
	movq	%rdi, %rbx
	call	_ZN8opendnp311IMasterTask22ValidateSingleResponseERKNS_18APDUResponseHeaderE@PLT
	testb	%al, %al
	jne	.L44
.L33:
	xorl	%eax, %eax
.L32:
	popq	%rbx
	.cfi_remember_state
	.cfi_def_cfa_offset 24
	popq	%rbp
	.cfi_def_cfa_offset 16
	popq	%r12
	.cfi_def_cfa_offset 8
	ret
	.p2align 4,,10
	.p2align 3
.L44:
	.cfi_restore_state
	movq	%rbp, %rsi
	movq	%rbx, %rdi
	call	_ZN8opendnp311IMasterTask27ValidateInternalIndicationsERKNS_18APDUResponseHeaderE@PLT
	testb	%al, %al
	je	.L33
	movl	(%r12), %eax
	testl	%eax, %eax
	je	.L33
	leaq	16(%rbx), %rdx
	leaq	128(%rbx), %rsi
	movq	%r12, %rdi
	movabsq	$35184372088833, %rcx
	call	_ZN8opendnp310APDUParser5ParseERKN7openpal6RSliceERNS_12IAPDUHandlerEPNS1_6LoggerENS_14ParserSettingsE@PLT
	movl	%eax, %r8d
	movl	$2, %eax
	testb	%r8b, %r8b
	jne	.L33
	jmp	.L32
	.cfi_endproc
.LFE2597:
	.size	_ZN8opendnp320RestartOperationTask15ProcessResponseERKNS_18APDUResponseHeaderERKN7openpal6RSliceE, .-_ZN8opendnp320RestartOperationTask15ProcessResponseERKNS_18APDUResponseHeaderERKN7openpal6RSliceE
	.align 2
	.p2align 4
	.globl	_ZN8opendnp320RestartOperationTask13ProcessHeaderERKNS_11CountHeaderERKNS_11ICollectionINS_11Group52Var1EEE
	.type	_ZN8opendnp320RestartOperationTask13ProcessHeaderERKNS_11CountHeaderERKNS_11ICollectionINS_11Group52Var1EEE, @function
_ZN8opendnp320RestartOperationTask13ProcessHeaderERKNS_11CountHeaderERKNS_11ICollectionINS_11Group52Var1EEE:
.LFB2598:
	.cfi_startproc
	endbr64
	pushq	%r12
	.cfi_def_cfa_offset 16
	.cfi_offset 12, -16
	pushq	%rbp
	.cfi_def_cfa_offset 24
	.cfi_offset 6, -24
	movq	%rdx, %rbp
	pushq	%rbx
	.cfi_def_cfa_offset 32
	.cfi_offset 3, -32
	movq	%rdi, %rbx
	subq	$48, %rsp
	.cfi_def_cfa_offset 80
	movq	%fs:40, %rax
	movq	%rax, 40(%rsp)
	xorl	%eax, %eax
	leaq	14(%rsp), %r12
	movq	%r12, %rdi
	call	_ZN8opendnp311Group52Var1C1Ev@PLT
	movq	0(%rbp), %rax
	movq	%rbp, %rdi
	call	*(%rax)
	cmpq	$1, %rax
	je	.L46
	xorl	%eax, %eax
	leaq	16(%rsp), %rdi
	movl	$10, %esi
	movw	%ax, 16(%rsp)
	call	_ZN8opendnp38IINField6SetBitENS_6IINBitE@PLT
	movzwl	16(%rsp), %eax
.L47:
	movq	40(%rsp), %rcx
	xorq	%fs:40, %rcx
	jne	.L50
	addq	$48, %rsp
	.cfi_remember_state
	.cfi_def_cfa_offset 32
	popq	%rbx
	.cfi_def_cfa_offset 24
	popq	%rbp
	.cfi_def_cfa_offset 16
	popq	%r12
	.cfi_def_cfa_offset 8
	ret
	.p2align 4,,10
	.p2align 3
.L46:
	.cfi_restore_state
	movq	_ZTVN8opendnp314FunctorVisitorINS_11Group52Var1EZNKS_11ICollectionIS1_E13ReadOnlyValueERS1_EUlRKS1_E_EE@GOTPCREL(%rip), %rax
	movq	%r12, %xmm1
	leaq	16(%rsp), %rsi
	movq	%rbp, %rdi
	addq	$16, %rax
	movq	%rax, %xmm0
	movq	0(%rbp), %rax
	punpcklqdq	%xmm1, %xmm0
	movaps	%xmm0, 16(%rsp)
	call	*8(%rax)
	movzwl	14(%rsp), %edi
	call	_ZN7openpal12TimeDuration7SecondsEl@PLT
	movq	%rax, 184(%rbx)
	xorl	%eax, %eax
	jmp	.L47
.L50:
	call	__stack_chk_fail@PLT
	.cfi_endproc
.LFE2598:
	.size	_ZN8opendnp320RestartOperationTask13ProcessHeaderERKNS_11CountHeaderERKNS_11ICollectionINS_11Group52Var1EEE, .-_ZN8opendnp320RestartOperationTask13ProcessHeaderERKNS_11CountHeaderERKNS_11ICollectionINS_11Group52Var1EEE
	.align 2
	.p2align 4
	.globl	_ZN8opendnp320RestartOperationTask13ProcessHeaderERKNS_11CountHeaderERKNS_11ICollectionINS_11Group52Var2EEE
	.type	_ZN8opendnp320RestartOperationTask13ProcessHeaderERKNS_11CountHeaderERKNS_11ICollectionINS_11Group52Var2EEE, @function
_ZN8opendnp320RestartOperationTask13ProcessHeaderERKNS_11CountHeaderERKNS_11ICollectionINS_11Group52Var2EEE:
.LFB2599:
	.cfi_startproc
	endbr64
	pushq	%r12
	.cfi_def_cfa_offset 16
	.cfi_offset 12, -16
	pushq	%rbp
	.cfi_def_cfa_offset 24
	.cfi_offset 6, -24
	movq	%rdx, %rbp
	pushq	%rbx
	.cfi_def_cfa_offset 32
	.cfi_offset 3, -32
	movq	%rdi, %rbx
	subq	$48, %rsp
	.cfi_def_cfa_offset 80
	movq	%fs:40, %rax
	movq	%rax, 40(%rsp)
	xorl	%eax, %eax
	leaq	14(%rsp), %r12
	movq	%r12, %rdi
	call	_ZN8opendnp311Group52Var2C1Ev@PLT
	movq	0(%rbp), %rax
	movq	%rbp, %rdi
	call	*(%rax)
	cmpq	$1, %rax
	je	.L52
	xorl	%eax, %eax
	leaq	16(%rsp), %rdi
	movl	$10, %esi
	movw	%ax, 16(%rsp)
	call	_ZN8opendnp38IINField6SetBitENS_6IINBitE@PLT
	movzwl	16(%rsp), %eax
.L53:
	movq	40(%rsp), %rcx
	xorq	%fs:40, %rcx
	jne	.L56
	addq	$48, %rsp
	.cfi_remember_state
	.cfi_def_cfa_offset 32
	popq	%rbx
	.cfi_def_cfa_offset 24
	popq	%rbp
	.cfi_def_cfa_offset 16
	popq	%r12
	.cfi_def_cfa_offset 8
	ret
	.p2align 4,,10
	.p2align 3
.L52:
	.cfi_restore_state
	movq	_ZTVN8opendnp314FunctorVisitorINS_11Group52Var2EZNKS_11ICollectionIS1_E13ReadOnlyValueERS1_EUlRKS1_E_EE@GOTPCREL(%rip), %rax
	movq	%r12, %xmm1
	leaq	16(%rsp), %rsi
	movq	%rbp, %rdi
	addq	$16, %rax
	movq	%rax, %xmm0
	movq	0(%rbp), %rax
	punpcklqdq	%xmm1, %xmm0
	movaps	%xmm0, 16(%rsp)
	call	*8(%rax)
	movzwl	14(%rsp), %edi
	call	_ZN7openpal12TimeDuration12MillisecondsEl@PLT
	movq	%rax, 184(%rbx)
	xorl	%eax, %eax
	jmp	.L53
.L56:
	call	__stack_chk_fail@PLT
	.cfi_endproc
.LFE2599:
	.size	_ZN8opendnp320RestartOperationTask13ProcessHeaderERKNS_11CountHeaderERKNS_11ICollectionINS_11Group52Var2EEE, .-_ZN8opendnp320RestartOperationTask13ProcessHeaderERKNS_11CountHeaderERKNS_11ICollectionINS_11Group52Var2EEE
	.p2align 4
	.globl	_ZThn128_N8opendnp320RestartOperationTask9IsAllowedEjNS_14GroupVariationENS_13QualifierCodeE
	.type	_ZThn128_N8opendnp320RestartOperationTask9IsAllowedEjNS_14GroupVariationENS_13QualifierCodeE, @function
_ZThn128_N8opendnp320RestartOperationTask9IsAllowedEjNS_14GroupVariationENS_13QualifierCodeE:
.LFB3364:
	.cfi_startproc
	endbr64
	xorl	%eax, %eax
	testl	%esi, %esi
	jne	.L57
	subw	$13313, %dx
	cmpw	$1, %dx
	setbe	%al
.L57:
	ret
	.cfi_endproc
.LFE3364:
	.size	_ZThn128_N8opendnp320RestartOperationTask9IsAllowedEjNS_14GroupVariationENS_13QualifierCodeE, .-_ZThn128_N8opendnp320RestartOperationTask9IsAllowedEjNS_14GroupVariationENS_13QualifierCodeE
	.section	.text._ZN8opendnp320RestartOperationTaskD0Ev,"axG",@progbits,_ZN8opendnp320RestartOperationTaskD5Ev,comdat
	.align 2
	.p2align 4
	.weak	_ZN8opendnp320RestartOperationTaskD0Ev
	.type	_ZN8opendnp320RestartOperationTaskD0Ev, @function
_ZN8opendnp320RestartOperationTaskD0Ev:
.LFB3299:
	.cfi_startproc
	.cfi_personality 0x9b,DW.ref.__gxx_personality_v0
	.cfi_lsda 0x1b,.LLSDA3299
	endbr64
	movq	_ZTVN8opendnp320RestartOperationTaskE@GOTPCREL(%rip), %rax
	pushq	%rbp
	.cfi_def_cfa_offset 16
	.cfi_offset 6, -16
	movq	%rdi, %rbp
	leaq	16(%rax), %rdx
	addq	$160, %rax
	movq	%rax, 128(%rdi)
	movq	168(%rdi), %rax
	movq	%rdx, (%rdi)
	testq	%rax, %rax
	je	.L61
	leaq	152(%rdi), %rdi
	movl	$3, %edx
	movq	%rdi, %rsi
	call	*%rax
.L61:
	movq	_ZTVN8opendnp321SimpleRequestTaskBaseE@GOTPCREL(%rip), %rax
	addq	$16, %rax
	movq	%rax, 0(%rbp)
	movq	112(%rbp), %rax
	testq	%rax, %rax
	je	.L62
	leaq	96(%rbp), %rdi
	movl	$3, %edx
	movq	%rdi, %rsi
	call	*%rax
.L62:
	movq	%rbp, %rdi
	call	_ZN8opendnp311IMasterTaskD2Ev@PLT
	movq	%rbp, %rdi
	movl	$192, %esi
	popq	%rbp
	.cfi_def_cfa_offset 8
	jmp	_ZdlPvm@PLT
	.cfi_endproc
.LFE3299:
	.globl	__gxx_personality_v0
	.section	.gcc_except_table._ZN8opendnp320RestartOperationTaskD0Ev,"aG",@progbits,_ZN8opendnp320RestartOperationTaskD5Ev,comdat
.LLSDA3299:
	.byte	0xff
	.byte	0xff
	.byte	0x1
	.uleb128 .LLSDACSE3299-.LLSDACSB3299
.LLSDACSB3299:
.LLSDACSE3299:
	.section	.text._ZN8opendnp320RestartOperationTaskD0Ev,"axG",@progbits,_ZN8opendnp320RestartOperationTaskD5Ev,comdat
	.size	_ZN8opendnp320RestartOperationTaskD0Ev, .-_ZN8opendnp320RestartOperationTaskD0Ev
	.section	.text._ZN8opendnp320RestartOperationTaskD2Ev,"axG",@progbits,_ZN8opendnp320RestartOperationTaskD5Ev,comdat
	.align 2
	.p2align 4
	.weak	_ZN8opendnp320RestartOperationTaskD2Ev
	.type	_ZN8opendnp320RestartOperationTaskD2Ev, @function
_ZN8opendnp320RestartOperationTaskD2Ev:
.LFB3297:
	.cfi_startproc
	.cfi_personality 0x9b,DW.ref.__gxx_personality_v0
	.cfi_lsda 0x1b,.LLSDA3297
	endbr64
	movq	_ZTVN8opendnp320RestartOperationTaskE@GOTPCREL(%rip), %rax
	pushq	%rbp
	.cfi_def_cfa_offset 16
	.cfi_offset 6, -16
	movq	%rdi, %rbp
	leaq	16(%rax), %rdx
	addq	$160, %rax
	movq	%rax, 128(%rdi)
	movq	168(%rdi), %rax
	movq	%rdx, (%rdi)
	testq	%rax, %rax
	je	.L71
	leaq	152(%rdi), %rdi
	movl	$3, %edx
	movq	%rdi, %rsi
	call	*%rax
.L71:
	movq	_ZTVN8opendnp321SimpleRequestTaskBaseE@GOTPCREL(%rip), %rax
	addq	$16, %rax
	movq	%rax, 0(%rbp)
	movq	112(%rbp), %rax
	testq	%rax, %rax
	je	.L72
	leaq	96(%rbp), %rdi
	movl	$3, %edx
	movq	%rdi, %rsi
	call	*%rax
.L72:
	movq	%rbp, %rdi
	popq	%rbp
	.cfi_def_cfa_offset 8
	jmp	_ZN8opendnp311IMasterTaskD2Ev@PLT
	.cfi_endproc
.LFE3297:
	.section	.gcc_except_table._ZN8opendnp320RestartOperationTaskD2Ev,"aG",@progbits,_ZN8opendnp320RestartOperationTaskD5Ev,comdat
.LLSDA3297:
	.byte	0xff
	.byte	0xff
	.byte	0x1
	.uleb128 .LLSDACSE3297-.LLSDACSB3297
.LLSDACSB3297:
.LLSDACSE3297:
	.section	.text._ZN8opendnp320RestartOperationTaskD2Ev,"axG",@progbits,_ZN8opendnp320RestartOperationTaskD5Ev,comdat
	.size	_ZN8opendnp320RestartOperationTaskD2Ev, .-_ZN8opendnp320RestartOperationTaskD2Ev
	.weak	_ZN8opendnp320RestartOperationTaskD1Ev
	.set	_ZN8opendnp320RestartOperationTaskD1Ev,_ZN8opendnp320RestartOperationTaskD2Ev
	.text
	.p2align 4
	.globl	_ZThn128_N8opendnp320RestartOperationTask13ProcessHeaderERKNS_11CountHeaderERKNS_11ICollectionINS_11Group52Var2EEE
	.type	_ZThn128_N8opendnp320RestartOperationTask13ProcessHeaderERKNS_11CountHeaderERKNS_11ICollectionINS_11Group52Var2EEE, @function
_ZThn128_N8opendnp320RestartOperationTask13ProcessHeaderERKNS_11CountHeaderERKNS_11ICollectionINS_11Group52Var2EEE:
.LFB3365:
	.cfi_startproc
	endbr64
	pushq	%r12
	.cfi_def_cfa_offset 16
	.cfi_offset 12, -16
	pushq	%rbp
	.cfi_def_cfa_offset 24
	.cfi_offset 6, -24
	movq	%rdx, %rbp
	pushq	%rbx
	.cfi_def_cfa_offset 32
	.cfi_offset 3, -32
	movq	%rdi, %rbx
	subq	$48, %rsp
	.cfi_def_cfa_offset 80
	movq	%fs:40, %rax
	movq	%rax, 40(%rsp)
	xorl	%eax, %eax
	leaq	14(%rsp), %r12
	movq	%r12, %rdi
	call	_ZN8opendnp311Group52Var2C1Ev@PLT
	movq	0(%rbp), %rax
	movq	%rbp, %rdi
	call	*(%rax)
	cmpq	$1, %rax
	je	.L81
	xorl	%eax, %eax
	leaq	16(%rsp), %rdi
	movl	$10, %esi
	movw	%ax, 16(%rsp)
	call	_ZN8opendnp38IINField6SetBitENS_6IINBitE@PLT
	movzbl	16(%rsp), %ecx
	movzbl	17(%rsp), %edx
.L82:
	xorl	%eax, %eax
	movq	40(%rsp), %rbx
	xorq	%fs:40, %rbx
	movb	%cl, %al
	movb	%dl, %ah
	jne	.L85
	addq	$48, %rsp
	.cfi_remember_state
	.cfi_def_cfa_offset 32
	popq	%rbx
	.cfi_def_cfa_offset 24
	popq	%rbp
	.cfi_def_cfa_offset 16
	popq	%r12
	.cfi_def_cfa_offset 8
	ret
	.p2align 4,,10
	.p2align 3
.L81:
	.cfi_restore_state
	movq	_ZTVN8opendnp314FunctorVisitorINS_11Group52Var2EZNKS_11ICollectionIS1_E13ReadOnlyValueERS1_EUlRKS1_E_EE@GOTPCREL(%rip), %rax
	movq	%r12, %xmm1
	leaq	16(%rsp), %rsi
	movq	%rbp, %rdi
	addq	$16, %rax
	movq	%rax, %xmm0
	movq	0(%rbp), %rax
	punpcklqdq	%xmm1, %xmm0
	movaps	%xmm0, 16(%rsp)
	call	*8(%rax)
	movzwl	14(%rsp), %edi
	call	_ZN7openpal12TimeDuration12MillisecondsEl@PLT
	xorl	%edx, %edx
	xorl	%ecx, %ecx
	movq	%rax, 56(%rbx)
	jmp	.L82
.L85:
	call	__stack_chk_fail@PLT
	.cfi_endproc
.LFE3365:
	.size	_ZThn128_N8opendnp320RestartOperationTask13ProcessHeaderERKNS_11CountHeaderERKNS_11ICollectionINS_11Group52Var2EEE, .-_ZThn128_N8opendnp320RestartOperationTask13ProcessHeaderERKNS_11CountHeaderERKNS_11ICollectionINS_11Group52Var2EEE
	.p2align 4
	.globl	_ZThn128_N8opendnp320RestartOperationTask13ProcessHeaderERKNS_11CountHeaderERKNS_11ICollectionINS_11Group52Var1EEE
	.type	_ZThn128_N8opendnp320RestartOperationTask13ProcessHeaderERKNS_11CountHeaderERKNS_11ICollectionINS_11Group52Var1EEE, @function
_ZThn128_N8opendnp320RestartOperationTask13ProcessHeaderERKNS_11CountHeaderERKNS_11ICollectionINS_11Group52Var1EEE:
.LFB3366:
	.cfi_startproc
	endbr64
	pushq	%r12
	.cfi_def_cfa_offset 16
	.cfi_offset 12, -16
	pushq	%rbp
	.cfi_def_cfa_offset 24
	.cfi_offset 6, -24
	movq	%rdx, %rbp
	pushq	%rbx
	.cfi_def_cfa_offset 32
	.cfi_offset 3, -32
	movq	%rdi, %rbx
	subq	$48, %rsp
	.cfi_def_cfa_offset 80
	movq	%fs:40, %rax
	movq	%rax, 40(%rsp)
	xorl	%eax, %eax
	leaq	14(%rsp), %r12
	movq	%r12, %rdi
	call	_ZN8opendnp311Group52Var1C1Ev@PLT
	movq	0(%rbp), %rax
	movq	%rbp, %rdi
	call	*(%rax)
	cmpq	$1, %rax
	je	.L87
	xorl	%eax, %eax
	leaq	16(%rsp), %rdi
	movl	$10, %esi
	movw	%ax, 16(%rsp)
	call	_ZN8opendnp38IINField6SetBitENS_6IINBitE@PLT
	movzbl	16(%rsp), %ecx
	movzbl	17(%rsp), %edx
.L88:
	xorl	%eax, %eax
	movq	40(%rsp), %rbx
	xorq	%fs:40, %rbx
	movb	%cl, %al
	movb	%dl, %ah
	jne	.L91
	addq	$48, %rsp
	.cfi_remember_state
	.cfi_def_cfa_offset 32
	popq	%rbx
	.cfi_def_cfa_offset 24
	popq	%rbp
	.cfi_def_cfa_offset 16
	popq	%r12
	.cfi_def_cfa_offset 8
	ret
	.p2align 4,,10
	.p2align 3
.L87:
	.cfi_restore_state
	movq	_ZTVN8opendnp314FunctorVisitorINS_11Group52Var1EZNKS_11ICollectionIS1_E13ReadOnlyValueERS1_EUlRKS1_E_EE@GOTPCREL(%rip), %rax
	movq	%r12, %xmm1
	leaq	16(%rsp), %rsi
	movq	%rbp, %rdi
	addq	$16, %rax
	movq	%rax, %xmm0
	movq	0(%rbp), %rax
	punpcklqdq	%xmm1, %xmm0
	movaps	%xmm0, 16(%rsp)
	call	*8(%rax)
	movzwl	14(%rsp), %edi
	call	_ZN7openpal12TimeDuration7SecondsEl@PLT
	xorl	%edx, %edx
	xorl	%ecx, %ecx
	movq	%rax, 56(%rbx)
	jmp	.L88
.L91:
	call	__stack_chk_fail@PLT
	.cfi_endproc
.LFE3366:
	.size	_ZThn128_N8opendnp320RestartOperationTask13ProcessHeaderERKNS_11CountHeaderERKNS_11ICollectionINS_11Group52Var1EEE, .-_ZThn128_N8opendnp320RestartOperationTask13ProcessHeaderERKNS_11CountHeaderERKNS_11ICollectionINS_11Group52Var1EEE
	.section	.text._ZN7openpal6LoggerD2Ev,"axG",@progbits,_ZN7openpal6LoggerD5Ev,comdat
	.align 2
	.p2align 4
	.weak	_ZN7openpal6LoggerD2Ev
	.type	_ZN7openpal6LoggerD2Ev, @function
_ZN7openpal6LoggerD2Ev:
.LFB2005:
	.cfi_startproc
	endbr64
	pushq	%r12
	.cfi_def_cfa_offset 16
	.cfi_offset 12, -16
	pushq	%rbp
	.cfi_def_cfa_offset 24
	.cfi_offset 6, -24
	pushq	%rbx
	.cfi_def_cfa_offset 32
	.cfi_offset 3, -32
	movq	24(%rdi), %rbp
	movq	%rdi, %rbx
	testq	%rbp, %rbp
	je	.L94
	movq	_ZL28__gthrw___pthread_key_createPjPFvPvE@GOTPCREL(%rip), %r12
	testq	%r12, %r12
	je	.L95
	movl	$-1, %eax
	lock xaddl	%eax, 8(%rbp)
	cmpl	$1, %eax
	je	.L108
	.p2align 4,,10
	.p2align 3
.L94:
	movq	8(%rbx), %rbp
	testq	%rbp, %rbp
	je	.L92
	movq	_ZL28__gthrw___pthread_key_createPjPFvPvE@GOTPCREL(%rip), %r12
	testq	%r12, %r12
	je	.L102
	movl	$-1, %eax
	lock xaddl	%eax, 8(%rbp)
	cmpl	$1, %eax
	je	.L109
.L92:
	popq	%rbx
	.cfi_remember_state
	.cfi_def_cfa_offset 24
	popq	%rbp
	.cfi_def_cfa_offset 16
	popq	%r12
	.cfi_def_cfa_offset 8
	ret
	.p2align 4,,10
	.p2align 3
.L95:
	.cfi_restore_state
	movl	8(%rbp), %eax
	leal	-1(%rax), %edx
	movl	%edx, 8(%rbp)
	cmpl	$1, %eax
	jne	.L94
.L108:
	movq	0(%rbp), %rax
	movq	%rbp, %rdi
	call	*16(%rax)
	testq	%r12, %r12
	je	.L98
	movl	$-1, %eax
	lock xaddl	%eax, 12(%rbp)
.L99:
	cmpl	$1, %eax
	jne	.L94
	movq	0(%rbp), %rax
	movq	%rbp, %rdi
	call	*24(%rax)
	jmp	.L94
	.p2align 4,,10
	.p2align 3
.L102:
	movl	8(%rbp), %eax
	leal	-1(%rax), %edx
	movl	%edx, 8(%rbp)
	cmpl	$1, %eax
	jne	.L92
.L109:
	movq	0(%rbp), %rax
	movq	%rbp, %rdi
	call	*16(%rax)
	testq	%r12, %r12
	je	.L105
	movl	$-1, %eax
	lock xaddl	%eax, 12(%rbp)
.L106:
	cmpl	$1, %eax
	jne	.L92
	movq	0(%rbp), %rax
	popq	%rbx
	.cfi_remember_state
	.cfi_def_cfa_offset 24
	movq	%rbp, %rdi
	popq	%rbp
	.cfi_def_cfa_offset 16
	popq	%r12
	.cfi_def_cfa_offset 8
	movq	24(%rax), %rax
	jmp	*%rax
	.p2align 4,,10
	.p2align 3
.L98:
	.cfi_restore_state
	movl	12(%rbp), %eax
	leal	-1(%rax), %edx
	movl	%edx, 12(%rbp)
	jmp	.L99
	.p2align 4,,10
	.p2align 3
.L105:
	movl	12(%rbp), %eax
	leal	-1(%rax), %edx
	movl	%edx, 12(%rbp)
	jmp	.L106
	.cfi_endproc
.LFE2005:
	.size	_ZN7openpal6LoggerD2Ev, .-_ZN7openpal6LoggerD2Ev
	.weak	_ZN7openpal6LoggerD1Ev
	.set	_ZN7openpal6LoggerD1Ev,_ZN7openpal6LoggerD2Ev
	.text
	.align 2
	.p2align 4
	.globl	_ZN8opendnp320RestartOperationTask14ToFunctionCodeENS_11RestartTypeE
	.type	_ZN8opendnp320RestartOperationTask14ToFunctionCodeENS_11RestartTypeE, @function
_ZN8opendnp320RestartOperationTask14ToFunctionCodeENS_11RestartTypeE:
.LFB2600:
	.cfi_startproc
	endbr64
	testb	%dil, %dil
	setne	%al
	addl	$13, %eax
	ret
	.cfi_endproc
.LFE2600:
	.size	_ZN8opendnp320RestartOperationTask14ToFunctionCodeENS_11RestartTypeE, .-_ZN8opendnp320RestartOperationTask14ToFunctionCodeENS_11RestartTypeE
	.section	.text.unlikely,"ax",@progbits
	.align 2
.LCOLDB0:
	.text
.LHOTB0:
	.align 2
	.p2align 4
	.globl	_ZN8opendnp320RestartOperationTaskC2ERNS_18IMasterApplicationENS_11RestartTypeERKSt8functionIFvRKNS_22RestartOperationResultEEEN7openpal6LoggerERKNS_10TaskConfigE
	.type	_ZN8opendnp320RestartOperationTaskC2ERNS_18IMasterApplicationENS_11RestartTypeERKSt8functionIFvRKNS_22RestartOperationResultEEEN7openpal6LoggerERKNS_10TaskConfigE, @function
_ZN8opendnp320RestartOperationTaskC2ERNS_18IMasterApplicationENS_11RestartTypeERKSt8functionIFvRKNS_22RestartOperationResultEEEN7openpal6LoggerERKNS_10TaskConfigE:
.LFB2593:
	.cfi_startproc
	.cfi_personality 0x9b,DW.ref.__gxx_personality_v0
	.cfi_lsda 0x1b,.LLSDA2593
	endbr64
	pushq	%rbp
	.cfi_def_cfa_offset 16
	.cfi_offset 6, -16
	movq	%rsp, %rbp
	.cfi_def_cfa_register 6
	pushq	%r15
	pushq	%r14
	pushq	%r13
	.cfi_offset 15, -24
	.cfi_offset 14, -32
	.cfi_offset 13, -40
	movq	%r9, %r13
	pushq	%r12
	.cfi_offset 12, -48
	movq	%rsi, %r12
	pushq	%rbx
	.cfi_offset 3, -56
	movq	%rcx, %rbx
	subq	$120, %rsp
	movq	%rdi, -136(%rbp)
	movdqu	(%r8), %xmm1
	movl	%edx, %edi
	movq	%fs:40, %rax
	movq	%rax, -56(%rbp)
	xorl	%eax, %eax
	movq	8(%r8), %rax
	movaps	%xmm1, -128(%rbp)
	testq	%rax, %rax
	je	.L114
	cmpq	$0, _ZL28__gthrw___pthread_key_createPjPFvPvE@GOTPCREL(%rip)
	je	.L115
	lock addl	$1, 8(%rax)
.L114:
	movdqu	16(%r8), %xmm2
	movq	24(%r8), %rax
	movaps	%xmm2, -112(%rbp)
	testq	%rax, %rax
	je	.L116
	cmpq	$0, _ZL28__gthrw___pthread_key_createPjPFvPvE@GOTPCREL(%rip)
	je	.L117
	lock addl	$1, 8(%rax)
.L116:
	leaq	_ZNSt17_Function_handlerIFbRN8opendnp312HeaderWriterEEZNS0_20RestartOperationTaskC4ERNS0_18IMasterApplicationENS0_11RestartTypeERKSt8functionIFvRKNS0_22RestartOperationResultEEEN7openpal6LoggerERKNS0_10TaskConfigEEUlS2_E_E9_M_invokeERKSt9_Any_dataS2_(%rip), %rax
	leaq	_ZNSt14_Function_base13_Base_managerIZN8opendnp320RestartOperationTaskC4ERNS1_18IMasterApplicationENS1_11RestartTypeERKSt8functionIFvRKNS1_22RestartOperationResultEEEN7openpal6LoggerERKNS1_10TaskConfigEEUlRNS1_12HeaderWriterEE_E10_M_managerERSt9_Any_dataRKSN_St18_Manager_operation(%rip), %rcx
	movq	%rcx, %xmm0
	movq	%rax, %xmm3
	leaq	-128(%rbp), %r15
	punpcklqdq	%xmm3, %xmm0
	movaps	%xmm0, -80(%rbp)
.LEHB0:
	call	_ZN8opendnp320RestartOperationTask14ToFunctionCodeENS_11RestartTypeE@PLT
	subq	$8, %rsp
	leaq	-96(%rbp), %r14
	movl	%eax, %edx
	movq	%r15, %r9
	pushq	%r13
	movq	-136(%rbp), %rdi
	movq	%r14, %r8
	movq	%r12, %rsi
	movl	$110, %ecx
	.cfi_escape 0x2e,0x10
	call	_ZN8opendnp321SimpleRequestTaskBaseC2ERNS_18IMasterApplicationENS_12FunctionCodeEiRKSt8functionIFbRNS_12HeaderWriterEEEN7openpal6LoggerERKNS_10TaskConfigE@PLT
.LEHE0:
	popq	%rax
	movq	-80(%rbp), %rax
	popq	%rdx
	testq	%rax, %rax
	je	.L118
	movl	$3, %edx
	movq	%r14, %rsi
	movq	%r14, %rdi
	call	*%rax
.L118:
	movq	-104(%rbp), %r12
	testq	%r12, %r12
	je	.L120
	movq	_ZL28__gthrw___pthread_key_createPjPFvPvE@GOTPCREL(%rip), %r13
	testq	%r13, %r13
	je	.L121
	movl	$-1, %eax
	lock xaddl	%eax, 8(%r12)
	cmpl	$1, %eax
	je	.L174
	.p2align 4,,10
	.p2align 3
.L120:
	movq	-120(%rbp), %r12
	testq	%r12, %r12
	je	.L127
	movq	_ZL28__gthrw___pthread_key_createPjPFvPvE@GOTPCREL(%rip), %r13
	testq	%r13, %r13
	je	.L128
	movl	$-1, %eax
	lock xaddl	%eax, 8(%r12)
	cmpl	$1, %eax
	je	.L175
	.p2align 4,,10
	.p2align 3
.L127:
	movq	-136(%rbp), %r15
	leaq	128(%r15), %rdi
.LEHB1:
	.cfi_escape 0x2e,0
	call	_ZN8opendnp312IAPDUHandlerC2Ev@PLT
.LEHE1:
	movq	_ZTVN8opendnp320RestartOperationTaskE@GOTPCREL(%rip), %rax
	leaq	152(%r15), %r12
	movq	$0, 168(%r15)
	leaq	16(%rax), %rdx
	addq	$160, %rax
	movq	%rax, 128(%r15)
	movq	16(%rbx), %rax
	movq	%rdx, (%r15)
	testq	%rax, %rax
	je	.L133
	movl	$2, %edx
	movq	%rbx, %rsi
	movq	%r12, %rdi
.LEHB2:
	call	*%rax
.LEHE2:
	movdqu	16(%rbx), %xmm4
	movaps	%xmm4, -160(%rbp)
	movups	%xmm4, 168(%r15)
.L133:
.LEHB3:
	call	_ZN7openpal12TimeDuration3MinEv@PLT
.LEHE3:
	movq	-136(%rbp), %rbx
	movq	%rax, 184(%rbx)
	movq	-56(%rbp), %rax
	xorq	%fs:40, %rax
	jne	.L176
	leaq	-40(%rbp), %rsp
	popq	%rbx
	popq	%r12
	popq	%r13
	popq	%r14
	popq	%r15
	popq	%rbp
	.cfi_remember_state
	.cfi_def_cfa 7, 8
	ret
	.p2align 4,,10
	.p2align 3
.L115:
	.cfi_restore_state
	addl	$1, 8(%rax)
	jmp	.L114
	.p2align 4,,10
	.p2align 3
.L117:
	addl	$1, 8(%rax)
	jmp	.L116
	.p2align 4,,10
	.p2align 3
.L128:
	movl	8(%r12), %eax
	leal	-1(%rax), %edx
	movl	%edx, 8(%r12)
	cmpl	$1, %eax
	jne	.L127
.L175:
	movq	(%r12), %rax
	movq	%r12, %rdi
	call	*16(%rax)
	testq	%r13, %r13
	je	.L131
	movl	$-1, %eax
	lock xaddl	%eax, 12(%r12)
.L132:
	cmpl	$1, %eax
	jne	.L127
	movq	(%r12), %rax
	movq	%r12, %rdi
	call	*24(%rax)
	jmp	.L127
	.p2align 4,,10
	.p2align 3
.L121:
	movl	8(%r12), %eax
	leal	-1(%rax), %edx
	movl	%edx, 8(%r12)
	cmpl	$1, %eax
	jne	.L120
.L174:
	movq	(%r12), %rax
	movq	%r12, %rdi
	call	*16(%rax)
	testq	%r13, %r13
	je	.L124
	movl	$-1, %eax
	lock xaddl	%eax, 12(%r12)
.L125:
	cmpl	$1, %eax
	jne	.L120
	movq	(%r12), %rax
	movq	%r12, %rdi
	call	*24(%rax)
	jmp	.L120
	.p2align 4,,10
	.p2align 3
.L131:
	movl	12(%r12), %eax
	leal	-1(%rax), %edx
	movl	%edx, 12(%r12)
	jmp	.L132
	.p2align 4,,10
	.p2align 3
.L124:
	movl	12(%r12), %eax
	leal	-1(%rax), %edx
	movl	%edx, 12(%r12)
	jmp	.L125
.L176:
	call	__stack_chk_fail@PLT
.L146:
	endbr64
	movq	%rax, %rbx
	jmp	.L140
.L147:
	endbr64
	movq	%rax, %rbx
	jmp	.L135
.L144:
	endbr64
	movq	%rax, %rbx
	jmp	.L138
.L145:
	endbr64
	movq	%rax, %rbx
	jmp	.L137
	.section	.gcc_except_table,"a",@progbits
.LLSDA2593:
	.byte	0xff
	.byte	0xff
	.byte	0x1
	.uleb128 .LLSDACSE2593-.LLSDACSB2593
.LLSDACSB2593:
	.uleb128 .LEHB0-.LFB2593
	.uleb128 .LEHE0-.LEHB0
	.uleb128 .L144-.LFB2593
	.uleb128 0
	.uleb128 .LEHB1-.LFB2593
	.uleb128 .LEHE1-.LEHB1
	.uleb128 .L145-.LFB2593
	.uleb128 0
	.uleb128 .LEHB2-.LFB2593
	.uleb128 .LEHE2-.LEHB2
	.uleb128 .L147-.LFB2593
	.uleb128 0
	.uleb128 .LEHB3-.LFB2593
	.uleb128 .LEHE3-.LEHB3
	.uleb128 .L146-.LFB2593
	.uleb128 0
.LLSDACSE2593:
	.text
	.cfi_endproc
	.section	.text.unlikely
	.cfi_startproc
	.cfi_personality 0x9b,DW.ref.__gxx_personality_v0
	.cfi_lsda 0x1b,.LLSDAC2593
	.type	_ZN8opendnp320RestartOperationTaskC2ERNS_18IMasterApplicationENS_11RestartTypeERKSt8functionIFvRKNS_22RestartOperationResultEEEN7openpal6LoggerERKNS_10TaskConfigE.cold, @function
_ZN8opendnp320RestartOperationTaskC2ERNS_18IMasterApplicationENS_11RestartTypeERKSt8functionIFvRKNS_22RestartOperationResultEEEN7openpal6LoggerERKNS_10TaskConfigE.cold:
.LFSB2593:
.L140:
	.cfi_def_cfa 6, 16
	.cfi_offset 3, -56
	.cfi_offset 6, -16
	.cfi_offset 12, -48
	.cfi_offset 13, -40
	.cfi_offset 14, -32
	.cfi_offset 15, -24
	movq	-136(%rbp), %rax
	movq	168(%rax), %rax
	testq	%rax, %rax
	je	.L137
	movl	$3, %edx
	movq	%r12, %rsi
	movq	%r12, %rdi
	call	*%rax
.L137:
	movq	_ZTVN8opendnp321SimpleRequestTaskBaseE@GOTPCREL(%rip), %rax
	movq	-136(%rbp), %rsi
	addq	$16, %rax
	movq	%rax, (%rsi)
	movq	112(%rsi), %rax
	testq	%rax, %rax
	je	.L142
	leaq	96(%rsi), %rdi
	movl	$3, %edx
	movq	%rdi, %rsi
	call	*%rax
.L142:
	movq	-136(%rbp), %rdi
	call	_ZN8opendnp311IMasterTaskD2Ev@PLT
	movq	%rbx, %rdi
.LEHB4:
	call	_Unwind_Resume@PLT
.LEHE4:
.L135:
	movq	-136(%rbp), %rax
	movq	168(%rax), %rax
	testq	%rax, %rax
	je	.L137
	movl	$3, %edx
	movq	%r12, %rsi
	movq	%r12, %rdi
	call	*%rax
	jmp	.L137
.L138:
	movq	-80(%rbp), %rax
	testq	%rax, %rax
	je	.L139
	leaq	-96(%rbp), %rdi
	movl	$3, %edx
	movq	%rdi, %rsi
	call	*%rax
.L139:
	movq	%r15, %rdi
	call	_ZN7openpal6LoggerD1Ev@PLT
	movq	%rbx, %rdi
.LEHB5:
	call	_Unwind_Resume@PLT
.LEHE5:
	.cfi_endproc
.LFE2593:
	.section	.gcc_except_table
.LLSDAC2593:
	.byte	0xff
	.byte	0xff
	.byte	0x1
	.uleb128 .LLSDACSEC2593-.LLSDACSBC2593
.LLSDACSBC2593:
	.uleb128 .LEHB4-.LCOLDB0
	.uleb128 .LEHE4-.LEHB4
	.uleb128 0
	.uleb128 0
	.uleb128 .LEHB5-.LCOLDB0
	.uleb128 .LEHE5-.LEHB5
	.uleb128 0
	.uleb128 0
.LLSDACSEC2593:
	.section	.text.unlikely
	.text
	.size	_ZN8opendnp320RestartOperationTaskC2ERNS_18IMasterApplicationENS_11RestartTypeERKSt8functionIFvRKNS_22RestartOperationResultEEEN7openpal6LoggerERKNS_10TaskConfigE, .-_ZN8opendnp320RestartOperationTaskC2ERNS_18IMasterApplicationENS_11RestartTypeERKSt8functionIFvRKNS_22RestartOperationResultEEEN7openpal6LoggerERKNS_10TaskConfigE
	.section	.text.unlikely
	.size	_ZN8opendnp320RestartOperationTaskC2ERNS_18IMasterApplicationENS_11RestartTypeERKSt8functionIFvRKNS_22RestartOperationResultEEEN7openpal6LoggerERKNS_10TaskConfigE.cold, .-_ZN8opendnp320RestartOperationTaskC2ERNS_18IMasterApplicationENS_11RestartTypeERKSt8functionIFvRKNS_22RestartOperationResultEEEN7openpal6LoggerERKNS_10TaskConfigE.cold
.LCOLDE0:
	.text
.LHOTE0:
	.globl	_ZN8opendnp320RestartOperationTaskC1ERNS_18IMasterApplicationENS_11RestartTypeERKSt8functionIFvRKNS_22RestartOperationResultEEEN7openpal6LoggerERKNS_10TaskConfigE
	.set	_ZN8opendnp320RestartOperationTaskC1ERNS_18IMasterApplicationENS_11RestartTypeERKSt8functionIFvRKNS_22RestartOperationResultEEEN7openpal6LoggerERKNS_10TaskConfigE,_ZN8opendnp320RestartOperationTaskC2ERNS_18IMasterApplicationENS_11RestartTypeERKSt8functionIFvRKNS_22RestartOperationResultEEEN7openpal6LoggerERKNS_10TaskConfigE
	.weak	_ZTSN8opendnp320RestartOperationTaskE
	.section	.rodata._ZTSN8opendnp320RestartOperationTaskE,"aG",@progbits,_ZTSN8opendnp320RestartOperationTaskE,comdat
	.align 32
	.type	_ZTSN8opendnp320RestartOperationTaskE, @object
	.size	_ZTSN8opendnp320RestartOperationTaskE, 34
_ZTSN8opendnp320RestartOperationTaskE:
	.string	"N8opendnp320RestartOperationTaskE"
	.weak	_ZTIN8opendnp320RestartOperationTaskE
	.section	.data.rel.ro._ZTIN8opendnp320RestartOperationTaskE,"awG",@progbits,_ZTIN8opendnp320RestartOperationTaskE,comdat
	.align 8
	.type	_ZTIN8opendnp320RestartOperationTaskE, @object
	.size	_ZTIN8opendnp320RestartOperationTaskE, 56
_ZTIN8opendnp320RestartOperationTaskE:
	.quad	_ZTVN10__cxxabiv121__vmi_class_type_infoE+16
	.quad	_ZTSN8opendnp320RestartOperationTaskE
	.long	0
	.long	2
	.quad	_ZTIN8opendnp321SimpleRequestTaskBaseE
	.quad	2
	.quad	_ZTIN8opendnp312IAPDUHandlerE
	.quad	32768
	.section	.data.rel.ro,"aw"
	.align 8
	.type	_ZTIZN8opendnp320RestartOperationTaskC4ERNS_18IMasterApplicationENS_11RestartTypeERKSt8functionIFvRKNS_22RestartOperationResultEEEN7openpal6LoggerERKNS_10TaskConfigEEUlRNS_12HeaderWriterEE_, @object
	.size	_ZTIZN8opendnp320RestartOperationTaskC4ERNS_18IMasterApplicationENS_11RestartTypeERKSt8functionIFvRKNS_22RestartOperationResultEEEN7openpal6LoggerERKNS_10TaskConfigEEUlRNS_12HeaderWriterEE_, 16
_ZTIZN8opendnp320RestartOperationTaskC4ERNS_18IMasterApplicationENS_11RestartTypeERKSt8functionIFvRKNS_22RestartOperationResultEEEN7openpal6LoggerERKNS_10TaskConfigEEUlRNS_12HeaderWriterEE_:
	.quad	_ZTVN10__cxxabiv117__class_type_infoE+16
	.quad	_ZTSZN8opendnp320RestartOperationTaskC4ERNS_18IMasterApplicationENS_11RestartTypeERKSt8functionIFvRKNS_22RestartOperationResultEEEN7openpal6LoggerERKNS_10TaskConfigEEUlRNS_12HeaderWriterEE_
	.section	.rodata
	.align 32
	.type	_ZTSZN8opendnp320RestartOperationTaskC4ERNS_18IMasterApplicationENS_11RestartTypeERKSt8functionIFvRKNS_22RestartOperationResultEEEN7openpal6LoggerERKNS_10TaskConfigEEUlRNS_12HeaderWriterEE_, @object
	.size	_ZTSZN8opendnp320RestartOperationTaskC4ERNS_18IMasterApplicationENS_11RestartTypeERKSt8functionIFvRKNS_22RestartOperationResultEEEN7openpal6LoggerERKNS_10TaskConfigEEUlRNS_12HeaderWriterEE_, 187
_ZTSZN8opendnp320RestartOperationTaskC4ERNS_18IMasterApplicationENS_11RestartTypeERKSt8functionIFvRKNS_22RestartOperationResultEEEN7openpal6LoggerERKNS_10TaskConfigEEUlRNS_12HeaderWriterEE_:
	.string	"*ZN8opendnp320RestartOperationTaskC4ERNS_18IMasterApplicationENS_11RestartTypeERKSt8functionIFvRKNS_22RestartOperationResultEEEN7openpal6LoggerERKNS_10TaskConfigEEUlRNS_12HeaderWriterEE_"
	.weak	_ZTSN8opendnp38IVisitorINS_11Group52Var1EEE
	.section	.rodata._ZTSN8opendnp38IVisitorINS_11Group52Var1EEE,"aG",@progbits,_ZTSN8opendnp38IVisitorINS_11Group52Var1EEE,comdat
	.align 32
	.type	_ZTSN8opendnp38IVisitorINS_11Group52Var1EEE, @object
	.size	_ZTSN8opendnp38IVisitorINS_11Group52Var1EEE, 40
_ZTSN8opendnp38IVisitorINS_11Group52Var1EEE:
	.string	"N8opendnp38IVisitorINS_11Group52Var1EEE"
	.weak	_ZTIN8opendnp38IVisitorINS_11Group52Var1EEE
	.section	.data.rel.ro._ZTIN8opendnp38IVisitorINS_11Group52Var1EEE,"awG",@progbits,_ZTIN8opendnp38IVisitorINS_11Group52Var1EEE,comdat
	.align 8
	.type	_ZTIN8opendnp38IVisitorINS_11Group52Var1EEE, @object
	.size	_ZTIN8opendnp38IVisitorINS_11Group52Var1EEE, 16
_ZTIN8opendnp38IVisitorINS_11Group52Var1EEE:
	.quad	_ZTVN10__cxxabiv117__class_type_infoE+16
	.quad	_ZTSN8opendnp38IVisitorINS_11Group52Var1EEE
	.weak	_ZTSN8opendnp314FunctorVisitorINS_11Group52Var1EZNKS_11ICollectionIS1_E13ReadOnlyValueERS1_EUlRKS1_E_EE
	.section	.rodata._ZTSN8opendnp314FunctorVisitorINS_11Group52Var1EZNKS_11ICollectionIS1_E13ReadOnlyValueERS1_EUlRKS1_E_EE,"aG",@progbits,_ZTSN8opendnp314FunctorVisitorINS_11Group52Var1EZNKS_11ICollectionIS1_E13ReadOnlyValueERS1_EUlRKS1_E_EE,comdat
	.align 32
	.type	_ZTSN8opendnp314FunctorVisitorINS_11Group52Var1EZNKS_11ICollectionIS1_E13ReadOnlyValueERS1_EUlRKS1_E_EE, @object
	.size	_ZTSN8opendnp314FunctorVisitorINS_11Group52Var1EZNKS_11ICollectionIS1_E13ReadOnlyValueERS1_EUlRKS1_E_EE, 100
_ZTSN8opendnp314FunctorVisitorINS_11Group52Var1EZNKS_11ICollectionIS1_E13ReadOnlyValueERS1_EUlRKS1_E_EE:
	.string	"N8opendnp314FunctorVisitorINS_11Group52Var1EZNKS_11ICollectionIS1_E13ReadOnlyValueERS1_EUlRKS1_E_EE"
	.weak	_ZTIN8opendnp314FunctorVisitorINS_11Group52Var1EZNKS_11ICollectionIS1_E13ReadOnlyValueERS1_EUlRKS1_E_EE
	.section	.data.rel.ro._ZTIN8opendnp314FunctorVisitorINS_11Group52Var1EZNKS_11ICollectionIS1_E13ReadOnlyValueERS1_EUlRKS1_E_EE,"awG",@progbits,_ZTIN8opendnp314FunctorVisitorINS_11Group52Var1EZNKS_11ICollectionIS1_E13ReadOnlyValueERS1_EUlRKS1_E_EE,comdat
	.align 8
	.type	_ZTIN8opendnp314FunctorVisitorINS_11Group52Var1EZNKS_11ICollectionIS1_E13ReadOnlyValueERS1_EUlRKS1_E_EE, @object
	.size	_ZTIN8opendnp314FunctorVisitorINS_11Group52Var1EZNKS_11ICollectionIS1_E13ReadOnlyValueERS1_EUlRKS1_E_EE, 24
_ZTIN8opendnp314FunctorVisitorINS_11Group52Var1EZNKS_11ICollectionIS1_E13ReadOnlyValueERS1_EUlRKS1_E_EE:
	.quad	_ZTVN10__cxxabiv120__si_class_type_infoE+16
	.quad	_ZTSN8opendnp314FunctorVisitorINS_11Group52Var1EZNKS_11ICollectionIS1_E13ReadOnlyValueERS1_EUlRKS1_E_EE
	.quad	_ZTIN8opendnp38IVisitorINS_11Group52Var1EEE
	.weak	_ZTSN8opendnp38IVisitorINS_11Group52Var2EEE
	.section	.rodata._ZTSN8opendnp38IVisitorINS_11Group52Var2EEE,"aG",@progbits,_ZTSN8opendnp38IVisitorINS_11Group52Var2EEE,comdat
	.align 32
	.type	_ZTSN8opendnp38IVisitorINS_11Group52Var2EEE, @object
	.size	_ZTSN8opendnp38IVisitorINS_11Group52Var2EEE, 40
_ZTSN8opendnp38IVisitorINS_11Group52Var2EEE:
	.string	"N8opendnp38IVisitorINS_11Group52Var2EEE"
	.weak	_ZTIN8opendnp38IVisitorINS_11Group52Var2EEE
	.section	.data.rel.ro._ZTIN8opendnp38IVisitorINS_11Group52Var2EEE,"awG",@progbits,_ZTIN8opendnp38IVisitorINS_11Group52Var2EEE,comdat
	.align 8
	.type	_ZTIN8opendnp38IVisitorINS_11Group52Var2EEE, @object
	.size	_ZTIN8opendnp38IVisitorINS_11Group52Var2EEE, 16
_ZTIN8opendnp38IVisitorINS_11Group52Var2EEE:
	.quad	_ZTVN10__cxxabiv117__class_type_infoE+16
	.quad	_ZTSN8opendnp38IVisitorINS_11Group52Var2EEE
	.weak	_ZTSN8opendnp314FunctorVisitorINS_11Group52Var2EZNKS_11ICollectionIS1_E13ReadOnlyValueERS1_EUlRKS1_E_EE
	.section	.rodata._ZTSN8opendnp314FunctorVisitorINS_11Group52Var2EZNKS_11ICollectionIS1_E13ReadOnlyValueERS1_EUlRKS1_E_EE,"aG",@progbits,_ZTSN8opendnp314FunctorVisitorINS_11Group52Var2EZNKS_11ICollectionIS1_E13ReadOnlyValueERS1_EUlRKS1_E_EE,comdat
	.align 32
	.type	_ZTSN8opendnp314FunctorVisitorINS_11Group52Var2EZNKS_11ICollectionIS1_E13ReadOnlyValueERS1_EUlRKS1_E_EE, @object
	.size	_ZTSN8opendnp314FunctorVisitorINS_11Group52Var2EZNKS_11ICollectionIS1_E13ReadOnlyValueERS1_EUlRKS1_E_EE, 100
_ZTSN8opendnp314FunctorVisitorINS_11Group52Var2EZNKS_11ICollectionIS1_E13ReadOnlyValueERS1_EUlRKS1_E_EE:
	.string	"N8opendnp314FunctorVisitorINS_11Group52Var2EZNKS_11ICollectionIS1_E13ReadOnlyValueERS1_EUlRKS1_E_EE"
	.weak	_ZTIN8opendnp314FunctorVisitorINS_11Group52Var2EZNKS_11ICollectionIS1_E13ReadOnlyValueERS1_EUlRKS1_E_EE
	.section	.data.rel.ro._ZTIN8opendnp314FunctorVisitorINS_11Group52Var2EZNKS_11ICollectionIS1_E13ReadOnlyValueERS1_EUlRKS1_E_EE,"awG",@progbits,_ZTIN8opendnp314FunctorVisitorINS_11Group52Var2EZNKS_11ICollectionIS1_E13ReadOnlyValueERS1_EUlRKS1_E_EE,comdat
	.align 8
	.type	_ZTIN8opendnp314FunctorVisitorINS_11Group52Var2EZNKS_11ICollectionIS1_E13ReadOnlyValueERS1_EUlRKS1_E_EE, @object
	.size	_ZTIN8opendnp314FunctorVisitorINS_11Group52Var2EZNKS_11ICollectionIS1_E13ReadOnlyValueERS1_EUlRKS1_E_EE, 24
_ZTIN8opendnp314FunctorVisitorINS_11Group52Var2EZNKS_11ICollectionIS1_E13ReadOnlyValueERS1_EUlRKS1_E_EE:
	.quad	_ZTVN10__cxxabiv120__si_class_type_infoE+16
	.quad	_ZTSN8opendnp314FunctorVisitorINS_11Group52Var2EZNKS_11ICollectionIS1_E13ReadOnlyValueERS1_EUlRKS1_E_EE
	.quad	_ZTIN8opendnp38IVisitorINS_11Group52Var2EEE
	.weak	_ZTVN8opendnp320RestartOperationTaskE
	.section	.data.rel.ro._ZTVN8opendnp320RestartOperationTaskE,"awG",@progbits,_ZTVN8opendnp320RestartOperationTaskE,comdat
	.align 8
	.type	_ZTVN8opendnp320RestartOperationTaskE, @object
	.size	_ZTVN8opendnp320RestartOperationTaskE, 592
_ZTVN8opendnp320RestartOperationTaskE:
	.quad	0
	.quad	_ZTIN8opendnp320RestartOperationTaskE
	.quad	_ZN8opendnp320RestartOperationTaskD1Ev
	.quad	_ZN8opendnp320RestartOperationTaskD0Ev
	.quad	_ZNK8opendnp311IMasterTask10IsAuthTaskEv
	.quad	_ZNK8opendnp320RestartOperationTask4NameEv
	.quad	_ZNK8opendnp321SimpleRequestTaskBase8PriorityEv
	.quad	_ZNK8opendnp321SimpleRequestTaskBase19BlocksLowerPriorityEv
	.quad	_ZNK8opendnp321SimpleRequestTaskBase11IsRecurringEv
	.quad	_ZN8opendnp321SimpleRequestTaskBase12BuildRequestERNS_11APDURequestEh
	.quad	_ZN8opendnp311IMasterTask10InitializeEv
	.quad	_ZN8opendnp320RestartOperationTask15ProcessResponseERKNS_18APDUResponseHeaderERKN7openpal6RSliceE
	.quad	_ZN8opendnp320RestartOperationTask14OnTaskCompleteENS_14TaskCompletionEN7openpal18MonotonicTimestampE
	.quad	_ZNK8opendnp321SimpleRequestTaskBase9IsEnabledEv
	.quad	_ZNK8opendnp321SimpleRequestTaskBase11GetTaskTypeEv
	.quad	_ZN8opendnp320RestartOperationTask9IsAllowedEjNS_14GroupVariationENS_13QualifierCodeE
	.quad	_ZN8opendnp320RestartOperationTask13ProcessHeaderERKNS_11CountHeaderERKNS_11ICollectionINS_11Group52Var1EEE
	.quad	_ZN8opendnp320RestartOperationTask13ProcessHeaderERKNS_11CountHeaderERKNS_11ICollectionINS_11Group52Var2EEE
	.quad	-128
	.quad	_ZTIN8opendnp320RestartOperationTaskE
	.quad	_ZThn128_N8opendnp320RestartOperationTask9IsAllowedEjNS_14GroupVariationENS_13QualifierCodeE
	.quad	_ZN8opendnp312IAPDUHandler13ProcessHeaderERKNS_16AllObjectsHeaderE
	.quad	_ZN8opendnp312IAPDUHandler13ProcessHeaderERKNS_11RangeHeaderE
	.quad	_ZN8opendnp312IAPDUHandler13ProcessHeaderERKNS_11CountHeaderE
	.quad	_ZN8opendnp312IAPDUHandler13ProcessHeaderERKNS_16FreeFormatHeaderERKNS_12Group120Var1ERKN7openpal6RSliceE
	.quad	_ZN8opendnp312IAPDUHandler13ProcessHeaderERKNS_16FreeFormatHeaderERKNS_12Group120Var2ERKN7openpal6RSliceE
	.quad	_ZN8opendnp312IAPDUHandler13ProcessHeaderERKNS_16FreeFormatHeaderERKNS_12Group120Var5ERKN7openpal6RSliceE
	.quad	_ZN8opendnp312IAPDUHandler13ProcessHeaderERKNS_16FreeFormatHeaderERKNS_12Group120Var6ERKN7openpal6RSliceE
	.quad	_ZN8opendnp312IAPDUHandler13ProcessHeaderERKNS_16FreeFormatHeaderERKNS_12Group120Var8ERKN7openpal6RSliceE
	.quad	_ZN8opendnp312IAPDUHandler13ProcessHeaderERKNS_16FreeFormatHeaderERKNS_12Group120Var7ERKN7openpal6RSliceE
	.quad	_ZN8opendnp312IAPDUHandler13ProcessHeaderERKNS_16FreeFormatHeaderERKNS_12Group120Var9ERKN7openpal6RSliceE
	.quad	_ZN8opendnp312IAPDUHandler13ProcessHeaderERKNS_16FreeFormatHeaderERKNS_13Group120Var10ERKN7openpal6RSliceE
	.quad	_ZN8opendnp312IAPDUHandler13ProcessHeaderERKNS_16FreeFormatHeaderERKNS_13Group120Var11ERKN7openpal6RSliceE
	.quad	_ZN8opendnp312IAPDUHandler13ProcessHeaderERKNS_16FreeFormatHeaderERKNS_13Group120Var12ERKN7openpal6RSliceE
	.quad	_ZN8opendnp312IAPDUHandler13ProcessHeaderERKNS_16FreeFormatHeaderERKNS_13Group120Var13ERKN7openpal6RSliceE
	.quad	_ZN8opendnp312IAPDUHandler13ProcessHeaderERKNS_16FreeFormatHeaderERKNS_13Group120Var14ERKN7openpal6RSliceE
	.quad	_ZN8opendnp312IAPDUHandler13ProcessHeaderERKNS_16FreeFormatHeaderERKNS_13Group120Var15ERKN7openpal6RSliceE
	.quad	_ZN8opendnp312IAPDUHandler13ProcessHeaderERKNS_11CountHeaderERKNS_11ICollectionINS_11Group50Var1EEE
	.quad	_ZN8opendnp312IAPDUHandler13ProcessHeaderERKNS_11CountHeaderERKNS_11ICollectionINS_11Group51Var1EEE
	.quad	_ZN8opendnp312IAPDUHandler13ProcessHeaderERKNS_11CountHeaderERKNS_11ICollectionINS_11Group51Var2EEE
	.quad	_ZThn128_N8opendnp320RestartOperationTask13ProcessHeaderERKNS_11CountHeaderERKNS_11ICollectionINS_11Group52Var1EEE
	.quad	_ZThn128_N8opendnp320RestartOperationTask13ProcessHeaderERKNS_11CountHeaderERKNS_11ICollectionINS_11Group52Var2EEE
	.quad	_ZN8opendnp312IAPDUHandler13ProcessHeaderERKNS_11CountHeaderERKNS_11ICollectionINS_12Group120Var3EEE
	.quad	_ZN8opendnp312IAPDUHandler13ProcessHeaderERKNS_11CountHeaderERKNS_11ICollectionINS_12Group120Var4EEE
	.quad	_ZN8opendnp312IAPDUHandler13ProcessHeaderERKNS_11RangeHeaderERKNS_11ICollectionINS_7IndexedINS_8IINValueEEEEE
	.quad	_ZN8opendnp312IAPDUHandler13ProcessHeaderERKNS_11RangeHeaderERKNS_11ICollectionINS_7IndexedINS_6BinaryEEEEE
	.quad	_ZN8opendnp312IAPDUHandler13ProcessHeaderERKNS_11RangeHeaderERKNS_11ICollectionINS_7IndexedINS_15DoubleBitBinaryEEEEE
	.quad	_ZN8opendnp312IAPDUHandler13ProcessHeaderERKNS_11RangeHeaderERKNS_11ICollectionINS_7IndexedINS_18BinaryOutputStatusEEEEE
	.quad	_ZN8opendnp312IAPDUHandler13ProcessHeaderERKNS_11RangeHeaderERKNS_11ICollectionINS_7IndexedINS_7CounterEEEEE
	.quad	_ZN8opendnp312IAPDUHandler13ProcessHeaderERKNS_11RangeHeaderERKNS_11ICollectionINS_7IndexedINS_13FrozenCounterEEEEE
	.quad	_ZN8opendnp312IAPDUHandler13ProcessHeaderERKNS_11RangeHeaderERKNS_11ICollectionINS_7IndexedINS_6AnalogEEEEE
	.quad	_ZN8opendnp312IAPDUHandler13ProcessHeaderERKNS_11RangeHeaderERKNS_11ICollectionINS_7IndexedINS_18AnalogOutputStatusEEEEE
	.quad	_ZN8opendnp312IAPDUHandler13ProcessHeaderERKNS_11RangeHeaderERKNS_11ICollectionINS_7IndexedINS_11OctetStringEEEEE
	.quad	_ZN8opendnp312IAPDUHandler13ProcessHeaderERKNS_11RangeHeaderERKNS_11ICollectionINS_7IndexedINS_15TimeAndIntervalEEEEE
	.quad	_ZN8opendnp312IAPDUHandler13ProcessHeaderERKNS_11RangeHeaderERKNS_11ICollectionINS_7IndexedINS_12Group121Var1EEEEE
	.quad	_ZN8opendnp312IAPDUHandler13ProcessHeaderERKNS_12PrefixHeaderERKNS_11ICollectionINS_7IndexedINS_6BinaryEEEEE
	.quad	_ZN8opendnp312IAPDUHandler13ProcessHeaderERKNS_12PrefixHeaderERKNS_11ICollectionINS_7IndexedINS_18BinaryOutputStatusEEEEE
	.quad	_ZN8opendnp312IAPDUHandler13ProcessHeaderERKNS_12PrefixHeaderERKNS_11ICollectionINS_7IndexedINS_15DoubleBitBinaryEEEEE
	.quad	_ZN8opendnp312IAPDUHandler13ProcessHeaderERKNS_12PrefixHeaderERKNS_11ICollectionINS_7IndexedINS_7CounterEEEEE
	.quad	_ZN8opendnp312IAPDUHandler13ProcessHeaderERKNS_12PrefixHeaderERKNS_11ICollectionINS_7IndexedINS_13FrozenCounterEEEEE
	.quad	_ZN8opendnp312IAPDUHandler13ProcessHeaderERKNS_12PrefixHeaderERKNS_11ICollectionINS_7IndexedINS_6AnalogEEEEE
	.quad	_ZN8opendnp312IAPDUHandler13ProcessHeaderERKNS_12PrefixHeaderERKNS_11ICollectionINS_7IndexedINS_18AnalogOutputStatusEEEEE
	.quad	_ZN8opendnp312IAPDUHandler13ProcessHeaderERKNS_12PrefixHeaderERKNS_11ICollectionINS_7IndexedINS_11OctetStringEEEEE
	.quad	_ZN8opendnp312IAPDUHandler13ProcessHeaderERKNS_12PrefixHeaderERKNS_11ICollectionINS_7IndexedINS_15TimeAndIntervalEEEEE
	.quad	_ZN8opendnp312IAPDUHandler13ProcessHeaderERKNS_12PrefixHeaderERKNS_11ICollectionINS_7IndexedINS_18BinaryCommandEventEEEEE
	.quad	_ZN8opendnp312IAPDUHandler13ProcessHeaderERKNS_12PrefixHeaderERKNS_11ICollectionINS_7IndexedINS_18AnalogCommandEventEEEEE
	.quad	_ZN8opendnp312IAPDUHandler13ProcessHeaderERKNS_12PrefixHeaderERKNS_11ICollectionINS_7IndexedINS_12Group122Var1EEEEE
	.quad	_ZN8opendnp312IAPDUHandler13ProcessHeaderERKNS_12PrefixHeaderERKNS_11ICollectionINS_7IndexedINS_12Group122Var2EEEEE
	.quad	_ZN8opendnp312IAPDUHandler13ProcessHeaderERKNS_12PrefixHeaderERKNS_11ICollectionINS_7IndexedINS_23ControlRelayOutputBlockEEEEE
	.quad	_ZN8opendnp312IAPDUHandler13ProcessHeaderERKNS_12PrefixHeaderERKNS_11ICollectionINS_7IndexedINS_17AnalogOutputInt16EEEEE
	.quad	_ZN8opendnp312IAPDUHandler13ProcessHeaderERKNS_12PrefixHeaderERKNS_11ICollectionINS_7IndexedINS_17AnalogOutputInt32EEEEE
	.quad	_ZN8opendnp312IAPDUHandler13ProcessHeaderERKNS_12PrefixHeaderERKNS_11ICollectionINS_7IndexedINS_19AnalogOutputFloat32EEEEE
	.quad	_ZN8opendnp312IAPDUHandler13ProcessHeaderERKNS_12PrefixHeaderERKNS_11ICollectionINS_7IndexedINS_20AnalogOutputDouble64EEEEE
	.quad	_ZN8opendnp312IAPDUHandler14OnHeaderResultERKNS_12HeaderRecordERKNS_8IINFieldE
	.weak	_ZTVN8opendnp314FunctorVisitorINS_11Group52Var1EZNKS_11ICollectionIS1_E13ReadOnlyValueERS1_EUlRKS1_E_EE
	.section	.data.rel.ro._ZTVN8opendnp314FunctorVisitorINS_11Group52Var1EZNKS_11ICollectionIS1_E13ReadOnlyValueERS1_EUlRKS1_E_EE,"awG",@progbits,_ZTVN8opendnp314FunctorVisitorINS_11Group52Var1EZNKS_11ICollectionIS1_E13ReadOnlyValueERS1_EUlRKS1_E_EE,comdat
	.align 8
	.type	_ZTVN8opendnp314FunctorVisitorINS_11Group52Var1EZNKS_11ICollectionIS1_E13ReadOnlyValueERS1_EUlRKS1_E_EE, @object
	.size	_ZTVN8opendnp314FunctorVisitorINS_11Group52Var1EZNKS_11ICollectionIS1_E13ReadOnlyValueERS1_EUlRKS1_E_EE, 24
_ZTVN8opendnp314FunctorVisitorINS_11Group52Var1EZNKS_11ICollectionIS1_E13ReadOnlyValueERS1_EUlRKS1_E_EE:
	.quad	0
	.quad	_ZTIN8opendnp314FunctorVisitorINS_11Group52Var1EZNKS_11ICollectionIS1_E13ReadOnlyValueERS1_EUlRKS1_E_EE
	.quad	_ZN8opendnp314FunctorVisitorINS_11Group52Var1EZNKS_11ICollectionIS1_E13ReadOnlyValueERS1_EUlRKS1_E_E7OnValueES6_
	.weak	_ZTVN8opendnp314FunctorVisitorINS_11Group52Var2EZNKS_11ICollectionIS1_E13ReadOnlyValueERS1_EUlRKS1_E_EE
	.section	.data.rel.ro._ZTVN8opendnp314FunctorVisitorINS_11Group52Var2EZNKS_11ICollectionIS1_E13ReadOnlyValueERS1_EUlRKS1_E_EE,"awG",@progbits,_ZTVN8opendnp314FunctorVisitorINS_11Group52Var2EZNKS_11ICollectionIS1_E13ReadOnlyValueERS1_EUlRKS1_E_EE,comdat
	.align 8
	.type	_ZTVN8opendnp314FunctorVisitorINS_11Group52Var2EZNKS_11ICollectionIS1_E13ReadOnlyValueERS1_EUlRKS1_E_EE, @object
	.size	_ZTVN8opendnp314FunctorVisitorINS_11Group52Var2EZNKS_11ICollectionIS1_E13ReadOnlyValueERS1_EUlRKS1_E_EE, 24
_ZTVN8opendnp314FunctorVisitorINS_11Group52Var2EZNKS_11ICollectionIS1_E13ReadOnlyValueERS1_EUlRKS1_E_EE:
	.quad	0
	.quad	_ZTIN8opendnp314FunctorVisitorINS_11Group52Var2EZNKS_11ICollectionIS1_E13ReadOnlyValueERS1_EUlRKS1_E_EE
	.quad	_ZN8opendnp314FunctorVisitorINS_11Group52Var2EZNKS_11ICollectionIS1_E13ReadOnlyValueERS1_EUlRKS1_E_E7OnValueES6_
	.weakref	_ZL28__gthrw___pthread_key_createPjPFvPvE,__pthread_key_create
	.hidden	DW.ref.__gxx_personality_v0
	.weak	DW.ref.__gxx_personality_v0
	.section	.data.rel.local.DW.ref.__gxx_personality_v0,"awG",@progbits,DW.ref.__gxx_personality_v0,comdat
	.align 8
	.type	DW.ref.__gxx_personality_v0, @object
	.size	DW.ref.__gxx_personality_v0, 8
DW.ref.__gxx_personality_v0:
	.quad	__gxx_personality_v0
	.ident	"GCC: (Ubuntu 9.4.0-1ubuntu1~20.04.1) 9.4.0"
	.section	.note.GNU-stack,"",@progbits
	.section	.note.gnu.property,"a"
	.align 8
	.long	 1f - 0f
	.long	 4f - 1f
	.long	 5
0:
	.string	 "GNU"
1:
	.align 8
	.long	 0xc0000002
	.long	 3f - 2f
2:
	.long	 0x3
3:
	.align 8
4:
