	.file	"SerialIOHandler.cpp"
	.text
	.section	.rodata._ZNK4asio6detail15system_category4nameEv.str1.1,"aMS",@progbits,1
.LC0:
	.string	"asio.system"
	.section	.text._ZNK4asio6detail15system_category4nameEv,"axG",@progbits,_ZNK4asio6detail15system_category4nameEv,comdat
	.align 2
	.p2align 4
	.weak	_ZNK4asio6detail15system_category4nameEv
	.type	_ZNK4asio6detail15system_category4nameEv, @function
_ZNK4asio6detail15system_category4nameEv:
.LFB2952:
	.cfi_startproc
	endbr64
	leaq	.LC0(%rip), %rax
	ret
	.cfi_endproc
.LFE2952:
	.size	_ZNK4asio6detail15system_category4nameEv, .-_ZNK4asio6detail15system_category4nameEv
	.section	.rodata._ZNK4asio5error6detail14netdb_category4nameEv.str1.1,"aMS",@progbits,1
.LC1:
	.string	"asio.netdb"
	.section	.text._ZNK4asio5error6detail14netdb_category4nameEv,"axG",@progbits,_ZNK4asio5error6detail14netdb_category4nameEv,comdat
	.align 2
	.p2align 4
	.weak	_ZNK4asio5error6detail14netdb_category4nameEv
	.type	_ZNK4asio5error6detail14netdb_category4nameEv, @function
_ZNK4asio5error6detail14netdb_category4nameEv:
.LFB2992:
	.cfi_startproc
	endbr64
	leaq	.LC1(%rip), %rax
	ret
	.cfi_endproc
.LFE2992:
	.size	_ZNK4asio5error6detail14netdb_category4nameEv, .-_ZNK4asio5error6detail14netdb_category4nameEv
	.section	.rodata._ZNK4asio5error6detail17addrinfo_category4nameEv.str1.1,"aMS",@progbits,1
.LC2:
	.string	"asio.addrinfo"
	.section	.text._ZNK4asio5error6detail17addrinfo_category4nameEv,"axG",@progbits,_ZNK4asio5error6detail17addrinfo_category4nameEv,comdat
	.align 2
	.p2align 4
	.weak	_ZNK4asio5error6detail17addrinfo_category4nameEv
	.type	_ZNK4asio5error6detail17addrinfo_category4nameEv, @function
_ZNK4asio5error6detail17addrinfo_category4nameEv:
.LFB2998:
	.cfi_startproc
	endbr64
	leaq	.LC2(%rip), %rax
	ret
	.cfi_endproc
.LFE2998:
	.size	_ZNK4asio5error6detail17addrinfo_category4nameEv, .-_ZNK4asio5error6detail17addrinfo_category4nameEv
	.section	.rodata._ZNK4asio5error6detail13misc_category4nameEv.str1.1,"aMS",@progbits,1
.LC3:
	.string	"asio.misc"
	.section	.text._ZNK4asio5error6detail13misc_category4nameEv,"axG",@progbits,_ZNK4asio5error6detail13misc_category4nameEv,comdat
	.align 2
	.p2align 4
	.weak	_ZNK4asio5error6detail13misc_category4nameEv
	.type	_ZNK4asio5error6detail13misc_category4nameEv, @function
_ZNK4asio5error6detail13misc_category4nameEv:
.LFB3004:
	.cfi_startproc
	endbr64
	leaq	.LC3(%rip), %rax
	ret
	.cfi_endproc
.LFE3004:
	.size	_ZNK4asio5error6detail13misc_category4nameEv, .-_ZNK4asio5error6detail13misc_category4nameEv
	.section	.text._ZN4asio6detail7tss_ptrINS0_10call_stackINS0_15task_io_serviceENS0_27task_io_service_thread_infoEE7contextEED2Ev,"axG",@progbits,_ZN4asio6detail7tss_ptrINS0_10call_stackINS0_15task_io_serviceENS0_27task_io_service_thread_infoEE7contextEED5Ev,comdat
	.align 2
	.p2align 4
	.weak	_ZN4asio6detail7tss_ptrINS0_10call_stackINS0_15task_io_serviceENS0_27task_io_service_thread_infoEE7contextEED2Ev
	.type	_ZN4asio6detail7tss_ptrINS0_10call_stackINS0_15task_io_serviceENS0_27task_io_service_thread_infoEE7contextEED2Ev, @function
_ZN4asio6detail7tss_ptrINS0_10call_stackINS0_15task_io_serviceENS0_27task_io_service_thread_infoEE7contextEED2Ev:
.LFB10098:
	.cfi_startproc
	endbr64
	ret
	.cfi_endproc
.LFE10098:
	.size	_ZN4asio6detail7tss_ptrINS0_10call_stackINS0_15task_io_serviceENS0_27task_io_service_thread_infoEE7contextEED2Ev, .-_ZN4asio6detail7tss_ptrINS0_10call_stackINS0_15task_io_serviceENS0_27task_io_service_thread_infoEE7contextEED2Ev
	.weak	_ZN4asio6detail7tss_ptrINS0_10call_stackINS0_15task_io_serviceENS0_27task_io_service_thread_infoEE7contextEED1Ev
	.set	_ZN4asio6detail7tss_ptrINS0_10call_stackINS0_15task_io_serviceENS0_27task_io_service_thread_infoEE7contextEED1Ev,_ZN4asio6detail7tss_ptrINS0_10call_stackINS0_15task_io_serviceENS0_27task_io_service_thread_infoEE7contextEED2Ev
	.section	.text._ZN4asio6detail10service_idINS0_13epoll_reactorEED2Ev,"axG",@progbits,_ZN4asio6detail10service_idINS0_13epoll_reactorEED5Ev,comdat
	.align 2
	.p2align 4
	.weak	_ZN4asio6detail10service_idINS0_13epoll_reactorEED2Ev
	.type	_ZN4asio6detail10service_idINS0_13epoll_reactorEED2Ev, @function
_ZN4asio6detail10service_idINS0_13epoll_reactorEED2Ev:
.LFB10101:
	.cfi_startproc
	endbr64
	ret
	.cfi_endproc
.LFE10101:
	.size	_ZN4asio6detail10service_idINS0_13epoll_reactorEED2Ev, .-_ZN4asio6detail10service_idINS0_13epoll_reactorEED2Ev
	.weak	_ZN4asio6detail10service_idINS0_13epoll_reactorEED1Ev
	.set	_ZN4asio6detail10service_idINS0_13epoll_reactorEED1Ev,_ZN4asio6detail10service_idINS0_13epoll_reactorEED2Ev
	.section	.text._ZN4asio6detail10service_idINS0_15task_io_serviceEED2Ev,"axG",@progbits,_ZN4asio6detail10service_idINS0_15task_io_serviceEED5Ev,comdat
	.align 2
	.p2align 4
	.weak	_ZN4asio6detail10service_idINS0_15task_io_serviceEED2Ev
	.type	_ZN4asio6detail10service_idINS0_15task_io_serviceEED2Ev, @function
_ZN4asio6detail10service_idINS0_15task_io_serviceEED2Ev:
.LFB10104:
	.cfi_startproc
	endbr64
	ret
	.cfi_endproc
.LFE10104:
	.size	_ZN4asio6detail10service_idINS0_15task_io_serviceEED2Ev, .-_ZN4asio6detail10service_idINS0_15task_io_serviceEED2Ev
	.weak	_ZN4asio6detail10service_idINS0_15task_io_serviceEED1Ev
	.set	_ZN4asio6detail10service_idINS0_15task_io_serviceEED1Ev,_ZN4asio6detail10service_idINS0_15task_io_serviceEED2Ev
	.section	.text._ZN4asio6detail7tss_ptrINS0_10call_stackINS0_14strand_service11strand_implEhE7contextEED2Ev,"axG",@progbits,_ZN4asio6detail7tss_ptrINS0_10call_stackINS0_14strand_service11strand_implEhE7contextEED5Ev,comdat
	.align 2
	.p2align 4
	.weak	_ZN4asio6detail7tss_ptrINS0_10call_stackINS0_14strand_service11strand_implEhE7contextEED2Ev
	.type	_ZN4asio6detail7tss_ptrINS0_10call_stackINS0_14strand_service11strand_implEhE7contextEED2Ev, @function
_ZN4asio6detail7tss_ptrINS0_10call_stackINS0_14strand_service11strand_implEhE7contextEED2Ev:
.LFB10107:
	.cfi_startproc
	endbr64
	ret
	.cfi_endproc
.LFE10107:
	.size	_ZN4asio6detail7tss_ptrINS0_10call_stackINS0_14strand_service11strand_implEhE7contextEED2Ev, .-_ZN4asio6detail7tss_ptrINS0_10call_stackINS0_14strand_service11strand_implEhE7contextEED2Ev
	.weak	_ZN4asio6detail7tss_ptrINS0_10call_stackINS0_14strand_service11strand_implEhE7contextEED1Ev
	.set	_ZN4asio6detail7tss_ptrINS0_10call_stackINS0_14strand_service11strand_implEhE7contextEED1Ev,_ZN4asio6detail7tss_ptrINS0_10call_stackINS0_14strand_service11strand_implEhE7contextEED2Ev
	.section	.text._ZN4asio6detail10service_idINS0_14strand_serviceEED2Ev,"axG",@progbits,_ZN4asio6detail10service_idINS0_14strand_serviceEED5Ev,comdat
	.align 2
	.p2align 4
	.weak	_ZN4asio6detail10service_idINS0_14strand_serviceEED2Ev
	.type	_ZN4asio6detail10service_idINS0_14strand_serviceEED2Ev, @function
_ZN4asio6detail10service_idINS0_14strand_serviceEED2Ev:
.LFB10110:
	.cfi_startproc
	endbr64
	ret
	.cfi_endproc
.LFE10110:
	.size	_ZN4asio6detail10service_idINS0_14strand_serviceEED2Ev, .-_ZN4asio6detail10service_idINS0_14strand_serviceEED2Ev
	.weak	_ZN4asio6detail10service_idINS0_14strand_serviceEED1Ev
	.set	_ZN4asio6detail10service_idINS0_14strand_serviceEED1Ev,_ZN4asio6detail10service_idINS0_14strand_serviceEED2Ev
	.section	.text._ZNSt23_Sp_counted_ptr_inplaceIN7asiopal13SerialChannelESaIS1_ELN9__gnu_cxx12_Lock_policyE2EED2Ev,"axG",@progbits,_ZNSt23_Sp_counted_ptr_inplaceIN7asiopal13SerialChannelESaIS1_ELN9__gnu_cxx12_Lock_policyE2EED5Ev,comdat
	.align 2
	.p2align 4
	.weak	_ZNSt23_Sp_counted_ptr_inplaceIN7asiopal13SerialChannelESaIS1_ELN9__gnu_cxx12_Lock_policyE2EED2Ev
	.type	_ZNSt23_Sp_counted_ptr_inplaceIN7asiopal13SerialChannelESaIS1_ELN9__gnu_cxx12_Lock_policyE2EED2Ev, @function
_ZNSt23_Sp_counted_ptr_inplaceIN7asiopal13SerialChannelESaIS1_ELN9__gnu_cxx12_Lock_policyE2EED2Ev:
.LFB10120:
	.cfi_startproc
	endbr64
	ret
	.cfi_endproc
.LFE10120:
	.size	_ZNSt23_Sp_counted_ptr_inplaceIN7asiopal13SerialChannelESaIS1_ELN9__gnu_cxx12_Lock_policyE2EED2Ev, .-_ZNSt23_Sp_counted_ptr_inplaceIN7asiopal13SerialChannelESaIS1_ELN9__gnu_cxx12_Lock_policyE2EED2Ev
	.weak	_ZNSt23_Sp_counted_ptr_inplaceIN7asiopal13SerialChannelESaIS1_ELN9__gnu_cxx12_Lock_policyE2EED1Ev
	.set	_ZNSt23_Sp_counted_ptr_inplaceIN7asiopal13SerialChannelESaIS1_ELN9__gnu_cxx12_Lock_policyE2EED1Ev,_ZNSt23_Sp_counted_ptr_inplaceIN7asiopal13SerialChannelESaIS1_ELN9__gnu_cxx12_Lock_policyE2EED2Ev
	.section	.text._ZNSt23_Sp_counted_ptr_inplaceIN7asiopal13SerialChannelESaIS1_ELN9__gnu_cxx12_Lock_policyE2EE10_M_destroyEv,"axG",@progbits,_ZNSt23_Sp_counted_ptr_inplaceIN7asiopal13SerialChannelESaIS1_ELN9__gnu_cxx12_Lock_policyE2EE10_M_destroyEv,comdat
	.align 2
	.p2align 4
	.weak	_ZNSt23_Sp_counted_ptr_inplaceIN7asiopal13SerialChannelESaIS1_ELN9__gnu_cxx12_Lock_policyE2EE10_M_destroyEv
	.type	_ZNSt23_Sp_counted_ptr_inplaceIN7asiopal13SerialChannelESaIS1_ELN9__gnu_cxx12_Lock_policyE2EE10_M_destroyEv, @function
_ZNSt23_Sp_counted_ptr_inplaceIN7asiopal13SerialChannelESaIS1_ELN9__gnu_cxx12_Lock_policyE2EE10_M_destroyEv:
.LFB10124:
	.cfi_startproc
	endbr64
	jmp	_ZdlPv@PLT
	.cfi_endproc
.LFE10124:
	.size	_ZNSt23_Sp_counted_ptr_inplaceIN7asiopal13SerialChannelESaIS1_ELN9__gnu_cxx12_Lock_policyE2EE10_M_destroyEv, .-_ZNSt23_Sp_counted_ptr_inplaceIN7asiopal13SerialChannelESaIS1_ELN9__gnu_cxx12_Lock_policyE2EE10_M_destroyEv
	.section	.text._ZNSt23_Sp_counted_ptr_inplaceIN7asiopal13SerialChannelESaIS1_ELN9__gnu_cxx12_Lock_policyE2EED0Ev,"axG",@progbits,_ZNSt23_Sp_counted_ptr_inplaceIN7asiopal13SerialChannelESaIS1_ELN9__gnu_cxx12_Lock_policyE2EED5Ev,comdat
	.align 2
	.p2align 4
	.weak	_ZNSt23_Sp_counted_ptr_inplaceIN7asiopal13SerialChannelESaIS1_ELN9__gnu_cxx12_Lock_policyE2EED0Ev
	.type	_ZNSt23_Sp_counted_ptr_inplaceIN7asiopal13SerialChannelESaIS1_ELN9__gnu_cxx12_Lock_policyE2EED0Ev, @function
_ZNSt23_Sp_counted_ptr_inplaceIN7asiopal13SerialChannelESaIS1_ELN9__gnu_cxx12_Lock_policyE2EED0Ev:
.LFB10122:
	.cfi_startproc
	endbr64
	movl	$104, %esi
	jmp	_ZdlPvm@PLT
	.cfi_endproc
.LFE10122:
	.size	_ZNSt23_Sp_counted_ptr_inplaceIN7asiopal13SerialChannelESaIS1_ELN9__gnu_cxx12_Lock_policyE2EED0Ev, .-_ZNSt23_Sp_counted_ptr_inplaceIN7asiopal13SerialChannelESaIS1_ELN9__gnu_cxx12_Lock_policyE2EED0Ev
	.section	.text._ZN4asio6detail15system_categoryD2Ev,"axG",@progbits,_ZN4asio6detail15system_categoryD5Ev,comdat
	.align 2
	.p2align 4
	.weak	_ZN4asio6detail15system_categoryD2Ev
	.type	_ZN4asio6detail15system_categoryD2Ev, @function
_ZN4asio6detail15system_categoryD2Ev:
.LFB10077:
	.cfi_startproc
	endbr64
	movq	_ZTVN4asio6detail15system_categoryE@GOTPCREL(%rip), %rax
	addq	$16, %rax
	movq	%rax, (%rdi)
	jmp	_ZNSt3_V214error_categoryD2Ev@PLT
	.cfi_endproc
.LFE10077:
	.size	_ZN4asio6detail15system_categoryD2Ev, .-_ZN4asio6detail15system_categoryD2Ev
	.weak	_ZN4asio6detail15system_categoryD1Ev
	.set	_ZN4asio6detail15system_categoryD1Ev,_ZN4asio6detail15system_categoryD2Ev
	.section	.text._ZN4asio6detail15system_categoryD0Ev,"axG",@progbits,_ZN4asio6detail15system_categoryD5Ev,comdat
	.align 2
	.p2align 4
	.weak	_ZN4asio6detail15system_categoryD0Ev
	.type	_ZN4asio6detail15system_categoryD0Ev, @function
_ZN4asio6detail15system_categoryD0Ev:
.LFB10079:
	.cfi_startproc
	endbr64
	movq	_ZTVN4asio6detail15system_categoryE@GOTPCREL(%rip), %rax
	pushq	%rbp
	.cfi_def_cfa_offset 16
	.cfi_offset 6, -16
	movq	%rdi, %rbp
	addq	$16, %rax
	movq	%rax, (%rdi)
	call	_ZNSt3_V214error_categoryD2Ev@PLT
	movq	%rbp, %rdi
	movl	$8, %esi
	popq	%rbp
	.cfi_def_cfa_offset 8
	jmp	_ZdlPvm@PLT
	.cfi_endproc
.LFE10079:
	.size	_ZN4asio6detail15system_categoryD0Ev, .-_ZN4asio6detail15system_categoryD0Ev
	.section	.text._ZN4asio5error6detail14netdb_categoryD2Ev,"axG",@progbits,_ZN4asio5error6detail14netdb_categoryD5Ev,comdat
	.align 2
	.p2align 4
	.weak	_ZN4asio5error6detail14netdb_categoryD2Ev
	.type	_ZN4asio5error6detail14netdb_categoryD2Ev, @function
_ZN4asio5error6detail14netdb_categoryD2Ev:
.LFB10065:
	.cfi_startproc
	endbr64
	movq	_ZTVN4asio5error6detail14netdb_categoryE@GOTPCREL(%rip), %rax
	addq	$16, %rax
	movq	%rax, (%rdi)
	jmp	_ZNSt3_V214error_categoryD2Ev@PLT
	.cfi_endproc
.LFE10065:
	.size	_ZN4asio5error6detail14netdb_categoryD2Ev, .-_ZN4asio5error6detail14netdb_categoryD2Ev
	.weak	_ZN4asio5error6detail14netdb_categoryD1Ev
	.set	_ZN4asio5error6detail14netdb_categoryD1Ev,_ZN4asio5error6detail14netdb_categoryD2Ev
	.section	.text._ZN4asio5error6detail14netdb_categoryD0Ev,"axG",@progbits,_ZN4asio5error6detail14netdb_categoryD5Ev,comdat
	.align 2
	.p2align 4
	.weak	_ZN4asio5error6detail14netdb_categoryD0Ev
	.type	_ZN4asio5error6detail14netdb_categoryD0Ev, @function
_ZN4asio5error6detail14netdb_categoryD0Ev:
.LFB10067:
	.cfi_startproc
	endbr64
	movq	_ZTVN4asio5error6detail14netdb_categoryE@GOTPCREL(%rip), %rax
	pushq	%rbp
	.cfi_def_cfa_offset 16
	.cfi_offset 6, -16
	movq	%rdi, %rbp
	addq	$16, %rax
	movq	%rax, (%rdi)
	call	_ZNSt3_V214error_categoryD2Ev@PLT
	movq	%rbp, %rdi
	movl	$8, %esi
	popq	%rbp
	.cfi_def_cfa_offset 8
	jmp	_ZdlPvm@PLT
	.cfi_endproc
.LFE10067:
	.size	_ZN4asio5error6detail14netdb_categoryD0Ev, .-_ZN4asio5error6detail14netdb_categoryD0Ev
	.section	.text._ZN4asio5error6detail17addrinfo_categoryD2Ev,"axG",@progbits,_ZN4asio5error6detail17addrinfo_categoryD5Ev,comdat
	.align 2
	.p2align 4
	.weak	_ZN4asio5error6detail17addrinfo_categoryD2Ev
	.type	_ZN4asio5error6detail17addrinfo_categoryD2Ev, @function
_ZN4asio5error6detail17addrinfo_categoryD2Ev:
.LFB10061:
	.cfi_startproc
	endbr64
	movq	_ZTVN4asio5error6detail17addrinfo_categoryE@GOTPCREL(%rip), %rax
	addq	$16, %rax
	movq	%rax, (%rdi)
	jmp	_ZNSt3_V214error_categoryD2Ev@PLT
	.cfi_endproc
.LFE10061:
	.size	_ZN4asio5error6detail17addrinfo_categoryD2Ev, .-_ZN4asio5error6detail17addrinfo_categoryD2Ev
	.weak	_ZN4asio5error6detail17addrinfo_categoryD1Ev
	.set	_ZN4asio5error6detail17addrinfo_categoryD1Ev,_ZN4asio5error6detail17addrinfo_categoryD2Ev
	.section	.text._ZN4asio5error6detail17addrinfo_categoryD0Ev,"axG",@progbits,_ZN4asio5error6detail17addrinfo_categoryD5Ev,comdat
	.align 2
	.p2align 4
	.weak	_ZN4asio5error6detail17addrinfo_categoryD0Ev
	.type	_ZN4asio5error6detail17addrinfo_categoryD0Ev, @function
_ZN4asio5error6detail17addrinfo_categoryD0Ev:
.LFB10063:
	.cfi_startproc
	endbr64
	movq	_ZTVN4asio5error6detail17addrinfo_categoryE@GOTPCREL(%rip), %rax
	pushq	%rbp
	.cfi_def_cfa_offset 16
	.cfi_offset 6, -16
	movq	%rdi, %rbp
	addq	$16, %rax
	movq	%rax, (%rdi)
	call	_ZNSt3_V214error_categoryD2Ev@PLT
	movq	%rbp, %rdi
	movl	$8, %esi
	popq	%rbp
	.cfi_def_cfa_offset 8
	jmp	_ZdlPvm@PLT
	.cfi_endproc
.LFE10063:
	.size	_ZN4asio5error6detail17addrinfo_categoryD0Ev, .-_ZN4asio5error6detail17addrinfo_categoryD0Ev
	.section	.text._ZN4asio5error6detail13misc_categoryD2Ev,"axG",@progbits,_ZN4asio5error6detail13misc_categoryD5Ev,comdat
	.align 2
	.p2align 4
	.weak	_ZN4asio5error6detail13misc_categoryD2Ev
	.type	_ZN4asio5error6detail13misc_categoryD2Ev, @function
_ZN4asio5error6detail13misc_categoryD2Ev:
.LFB10057:
	.cfi_startproc
	endbr64
	movq	_ZTVN4asio5error6detail13misc_categoryE@GOTPCREL(%rip), %rax
	addq	$16, %rax
	movq	%rax, (%rdi)
	jmp	_ZNSt3_V214error_categoryD2Ev@PLT
	.cfi_endproc
.LFE10057:
	.size	_ZN4asio5error6detail13misc_categoryD2Ev, .-_ZN4asio5error6detail13misc_categoryD2Ev
	.weak	_ZN4asio5error6detail13misc_categoryD1Ev
	.set	_ZN4asio5error6detail13misc_categoryD1Ev,_ZN4asio5error6detail13misc_categoryD2Ev
	.section	.text._ZN4asio5error6detail13misc_categoryD0Ev,"axG",@progbits,_ZN4asio5error6detail13misc_categoryD5Ev,comdat
	.align 2
	.p2align 4
	.weak	_ZN4asio5error6detail13misc_categoryD0Ev
	.type	_ZN4asio5error6detail13misc_categoryD0Ev, @function
_ZN4asio5error6detail13misc_categoryD0Ev:
.LFB10059:
	.cfi_startproc
	endbr64
	movq	_ZTVN4asio5error6detail13misc_categoryE@GOTPCREL(%rip), %rax
	pushq	%rbp
	.cfi_def_cfa_offset 16
	.cfi_offset 6, -16
	movq	%rdi, %rbp
	addq	$16, %rax
	movq	%rax, (%rdi)
	call	_ZNSt3_V214error_categoryD2Ev@PLT
	movq	%rbp, %rdi
	movl	$8, %esi
	popq	%rbp
	.cfi_def_cfa_offset 8
	jmp	_ZdlPvm@PLT
	.cfi_endproc
.LFE10059:
	.size	_ZN4asio5error6detail13misc_categoryD0Ev, .-_ZN4asio5error6detail13misc_categoryD0Ev
	.section	.text._ZNSt23_Sp_counted_ptr_inplaceIN7asiopal13SerialChannelESaIS1_ELN9__gnu_cxx12_Lock_policyE2EE14_M_get_deleterERKSt9type_info,"axG",@progbits,_ZNSt23_Sp_counted_ptr_inplaceIN7asiopal13SerialChannelESaIS1_ELN9__gnu_cxx12_Lock_policyE2EE14_M_get_deleterERKSt9type_info,comdat
	.align 2
	.p2align 4
	.weak	_ZNSt23_Sp_counted_ptr_inplaceIN7asiopal13SerialChannelESaIS1_ELN9__gnu_cxx12_Lock_policyE2EE14_M_get_deleterERKSt9type_info
	.type	_ZNSt23_Sp_counted_ptr_inplaceIN7asiopal13SerialChannelESaIS1_ELN9__gnu_cxx12_Lock_policyE2EE14_M_get_deleterERKSt9type_info, @function
_ZNSt23_Sp_counted_ptr_inplaceIN7asiopal13SerialChannelESaIS1_ELN9__gnu_cxx12_Lock_policyE2EE14_M_get_deleterERKSt9type_info:
.LFB10125:
	.cfi_startproc
	endbr64
	pushq	%r12
	.cfi_def_cfa_offset 16
	.cfi_offset 12, -16
	pushq	%rbx
	.cfi_def_cfa_offset 24
	.cfi_offset 3, -24
	movq	%rdi, %rbx
	subq	$8, %rsp
	.cfi_def_cfa_offset 32
	cmpq	_ZZNSt19_Sp_make_shared_tag5_S_tiEvE5__tag@GOTPCREL(%rip), %rsi
	je	.L27
	movq	8(%rsi), %rdi
	movq	_ZTSSt19_Sp_make_shared_tag@GOTPCREL(%rip), %rsi
	cmpq	%rsi, %rdi
	je	.L27
	xorl	%r12d, %r12d
	cmpb	$42, (%rdi)
	je	.L26
	call	strcmp@PLT
	testl	%eax, %eax
	jne	.L26
.L27:
	leaq	16(%rbx), %r12
.L26:
	addq	$8, %rsp
	.cfi_def_cfa_offset 24
	movq	%r12, %rax
	popq	%rbx
	.cfi_def_cfa_offset 16
	popq	%r12
	.cfi_def_cfa_offset 8
	ret
	.cfi_endproc
.LFE10125:
	.size	_ZNSt23_Sp_counted_ptr_inplaceIN7asiopal13SerialChannelESaIS1_ELN9__gnu_cxx12_Lock_policyE2EE14_M_get_deleterERKSt9type_info, .-_ZNSt23_Sp_counted_ptr_inplaceIN7asiopal13SerialChannelESaIS1_ELN9__gnu_cxx12_Lock_policyE2EE14_M_get_deleterERKSt9type_info
	.text
	.align 2
	.p2align 4
	.globl	_ZN8asiodnp315SerialIOHandler20SuspendChannelAcceptEv
	.type	_ZN8asiodnp315SerialIOHandler20SuspendChannelAcceptEv, @function
_ZN8asiodnp315SerialIOHandler20SuspendChannelAcceptEv:
.LFB7607:
	.cfi_startproc
	endbr64
	addq	$896, %rdi
	jmp	_ZN7openpal8TimerRef6CancelEv@PLT
	.cfi_endproc
.LFE7607:
	.size	_ZN8asiodnp315SerialIOHandler20SuspendChannelAcceptEv, .-_ZN8asiodnp315SerialIOHandler20SuspendChannelAcceptEv
	.globl	_ZN8asiodnp315SerialIOHandler10ResetStateEv
	.set	_ZN8asiodnp315SerialIOHandler10ResetStateEv,_ZN8asiodnp315SerialIOHandler20SuspendChannelAcceptEv
	.align 2
	.p2align 4
	.globl	_ZN8asiodnp315SerialIOHandler12ShutdownImplEv
	.type	_ZN8asiodnp315SerialIOHandler12ShutdownImplEv, @function
_ZN8asiodnp315SerialIOHandler12ShutdownImplEv:
.LFB7605:
	.cfi_startproc
	endbr64
	jmp	_ZN8asiodnp315SerialIOHandler10ResetStateEv@PLT
	.cfi_endproc
.LFE7605:
	.size	_ZN8asiodnp315SerialIOHandler12ShutdownImplEv, .-_ZN8asiodnp315SerialIOHandler12ShutdownImplEv
	.p2align 4
	.type	_ZNSt14_Function_base13_Base_managerIZN7openpal8TimerRef5StartIZN8asiodnp315SerialIOHandler7TryOpenERKNS1_12TimeDurationEEUlvE_EEbS8_RKT_EUlvE_E10_M_managerERSt9_Any_dataRKSF_St18_Manager_operation, @function
_ZNSt14_Function_base13_Base_managerIZN7openpal8TimerRef5StartIZN8asiodnp315SerialIOHandler7TryOpenERKNS1_12TimeDurationEEUlvE_EEbS8_RKT_EUlvE_E10_M_managerERSt9_Any_dataRKSF_St18_Manager_operation:
.LFB9231:
	.cfi_startproc
	endbr64
	pushq	%rbp
	.cfi_def_cfa_offset 16
	.cfi_offset 6, -16
	pushq	%rbx
	.cfi_def_cfa_offset 24
	.cfi_offset 3, -24
	movq	%rdi, %rbx
	subq	$8, %rsp
	.cfi_def_cfa_offset 32
	cmpl	$2, %edx
	je	.L35
	ja	.L36
	testl	%edx, %edx
	je	.L46
	movq	(%rsi), %rax
	movq	%rax, (%rdi)
.L40:
	addq	$8, %rsp
	.cfi_remember_state
	.cfi_def_cfa_offset 24
	xorl	%eax, %eax
	popq	%rbx
	.cfi_def_cfa_offset 16
	popq	%rbp
	.cfi_def_cfa_offset 8
	ret
	.p2align 4,,10
	.p2align 3
.L36:
	.cfi_restore_state
	cmpl	$3, %edx
	jne	.L40
	movq	(%rdi), %rdi
	testq	%rdi, %rdi
	je	.L40
	movl	$24, %esi
	call	_ZdlPvm@PLT
	addq	$8, %rsp
	.cfi_remember_state
	.cfi_def_cfa_offset 24
	xorl	%eax, %eax
	popq	%rbx
	.cfi_def_cfa_offset 16
	popq	%rbp
	.cfi_def_cfa_offset 8
	ret
	.p2align 4,,10
	.p2align 3
.L35:
	.cfi_restore_state
	movq	(%rsi), %rbp
	movl	$24, %edi
	call	_Znwm@PLT
	movdqu	0(%rbp), %xmm0
	movups	%xmm0, (%rax)
	movq	16(%rbp), %rdx
	movq	%rdx, 16(%rax)
	movq	%rax, (%rbx)
	addq	$8, %rsp
	.cfi_remember_state
	.cfi_def_cfa_offset 24
	xorl	%eax, %eax
	popq	%rbx
	.cfi_def_cfa_offset 16
	popq	%rbp
	.cfi_def_cfa_offset 8
	ret
	.p2align 4,,10
	.p2align 3
.L46:
	.cfi_restore_state
	leaq	_ZTIZN7openpal8TimerRef5StartIZN8asiodnp315SerialIOHandler7TryOpenERKNS_12TimeDurationEEUlvE_EEbS6_RKT_EUlvE_(%rip), %rax
	movq	%rax, (%rdi)
	addq	$8, %rsp
	.cfi_def_cfa_offset 24
	xorl	%eax, %eax
	popq	%rbx
	.cfi_def_cfa_offset 16
	popq	%rbp
	.cfi_def_cfa_offset 8
	ret
	.cfi_endproc
.LFE9231:
	.size	_ZNSt14_Function_base13_Base_managerIZN7openpal8TimerRef5StartIZN8asiodnp315SerialIOHandler7TryOpenERKNS1_12TimeDurationEEUlvE_EEbS8_RKT_EUlvE_E10_M_managerERSt9_Any_dataRKSF_St18_Manager_operation, .-_ZNSt14_Function_base13_Base_managerIZN7openpal8TimerRef5StartIZN8asiodnp315SerialIOHandler7TryOpenERKNS1_12TimeDurationEEUlvE_EEbS8_RKT_EUlvE_E10_M_managerERSt9_Any_dataRKSF_St18_Manager_operation
	.section	.text._ZNSt23_Sp_counted_ptr_inplaceIN7asiopal13SerialChannelESaIS1_ELN9__gnu_cxx12_Lock_policyE2EE10_M_disposeEv,"axG",@progbits,_ZNSt23_Sp_counted_ptr_inplaceIN7asiopal13SerialChannelESaIS1_ELN9__gnu_cxx12_Lock_policyE2EE10_M_disposeEv,comdat
	.align 2
	.p2align 4
	.weak	_ZNSt23_Sp_counted_ptr_inplaceIN7asiopal13SerialChannelESaIS1_ELN9__gnu_cxx12_Lock_policyE2EE10_M_disposeEv
	.type	_ZNSt23_Sp_counted_ptr_inplaceIN7asiopal13SerialChannelESaIS1_ELN9__gnu_cxx12_Lock_policyE2EE10_M_disposeEv, @function
_ZNSt23_Sp_counted_ptr_inplaceIN7asiopal13SerialChannelESaIS1_ELN9__gnu_cxx12_Lock_policyE2EE10_M_disposeEv:
.LFB10123:
	.cfi_startproc
	.cfi_personality 0x9b,DW.ref.__gxx_personality_v0
	.cfi_lsda 0x1b,.LLSDA10123
	endbr64
	pushq	%r15
	.cfi_def_cfa_offset 16
	.cfi_offset 15, -16
	pushq	%r14
	.cfi_def_cfa_offset 24
	.cfi_offset 14, -24
	pushq	%r13
	.cfi_def_cfa_offset 32
	.cfi_offset 13, -32
	pushq	%r12
	.cfi_def_cfa_offset 40
	.cfi_offset 12, -40
	pushq	%rbp
	.cfi_def_cfa_offset 48
	.cfi_offset 6, -48
	pushq	%rbx
	.cfi_def_cfa_offset 56
	.cfi_offset 3, -56
	movq	%rdi, %rbx
	subq	$56, %rsp
	.cfi_def_cfa_offset 112
	movl	80(%rdi), %r12d
	movq	%fs:40, %rax
	movq	%rax, 40(%rsp)
	xorl	%eax, %eax
	movq	_ZTVN7asiopal13SerialChannelE@GOTPCREL(%rip), %rax
	addq	$16, %rax
	movq	%rax, 16(%rdi)
	cmpl	$-1, %r12d
	jne	.L172
.L79:
	movq	_ZTVN7asiopal13IAsyncChannelE@GOTPCREL(%rip), %rax
	movq	64(%rbx), %rbp
	addq	$16, %rax
	movq	%rax, 16(%rbx)
	testq	%rbp, %rbp
	je	.L91
	movq	_ZL28__gthrw___pthread_key_createPjPFvPvE@GOTPCREL(%rip), %r12
	testq	%r12, %r12
	je	.L92
	movl	$-1, %eax
	lock xaddl	%eax, 8(%rbp)
	cmpl	$1, %eax
	je	.L173
	.p2align 4,,10
	.p2align 3
.L91:
	movq	48(%rbx), %rbp
	testq	%rbp, %rbp
	je	.L98
	movq	_ZL28__gthrw___pthread_key_createPjPFvPvE@GOTPCREL(%rip), %r12
	testq	%r12, %r12
	je	.L99
	movl	$-1, %eax
	lock xaddl	%eax, 8(%rbp)
	cmpl	$1, %eax
	je	.L174
	.p2align 4,,10
	.p2align 3
.L98:
	movq	32(%rbx), %rdi
	testq	%rdi, %rdi
	je	.L47
	cmpq	$0, _ZL28__gthrw___pthread_key_createPjPFvPvE@GOTPCREL(%rip)
	je	.L106
	movl	$-1, %eax
	lock xaddl	%eax, 12(%rdi)
	cmpl	$1, %eax
	je	.L175
	.p2align 4,,10
	.p2align 3
.L47:
	movq	40(%rsp), %rax
	xorq	%fs:40, %rax
	jne	.L176
	addq	$56, %rsp
	.cfi_remember_state
	.cfi_def_cfa_offset 56
	popq	%rbx
	.cfi_def_cfa_offset 48
	popq	%rbp
	.cfi_def_cfa_offset 40
	popq	%r12
	.cfi_def_cfa_offset 32
	popq	%r13
	.cfi_def_cfa_offset 24
	popq	%r14
	.cfi_def_cfa_offset 16
	popq	%r15
	.cfi_def_cfa_offset 8
	ret
	.p2align 4,,10
	.p2align 3
.L99:
	.cfi_restore_state
	movl	8(%rbp), %eax
	leal	-1(%rax), %edx
	movl	%edx, 8(%rbp)
	cmpl	$1, %eax
	jne	.L98
.L174:
	movq	0(%rbp), %rax
	movq	%rbp, %rdi
	call	*16(%rax)
	testq	%r12, %r12
	je	.L102
	movl	$-1, %eax
	lock xaddl	%eax, 12(%rbp)
.L103:
	cmpl	$1, %eax
	jne	.L98
	movq	0(%rbp), %rax
	movq	%rbp, %rdi
	call	*24(%rax)
	jmp	.L98
	.p2align 4,,10
	.p2align 3
.L92:
	movl	8(%rbp), %eax
	leal	-1(%rax), %edx
	movl	%edx, 8(%rbp)
	cmpl	$1, %eax
	jne	.L91
.L173:
	movq	0(%rbp), %rax
	movq	%rbp, %rdi
	call	*16(%rax)
	testq	%r12, %r12
	je	.L95
	movl	$-1, %eax
	lock xaddl	%eax, 12(%rbp)
.L96:
	cmpl	$1, %eax
	jne	.L91
	movq	0(%rbp), %rax
	movq	%rbp, %rdi
	call	*24(%rax)
	jmp	.L91
	.p2align 4,,10
	.p2align 3
.L106:
	movl	12(%rdi), %eax
	leal	-1(%rax), %edx
	movl	%edx, 12(%rdi)
	cmpl	$1, %eax
	jne	.L47
.L175:
	movq	(%rdi), %rax
	call	*24(%rax)
	jmp	.L47
	.p2align 4,,10
	.p2align 3
.L172:
	movq	88(%rdi), %rbp
	testq	%rbp, %rbp
	je	.L78
	movq	96(%rdi), %rax
	movzbl	84(%rdi), %r13d
	movq	40(%rax), %rax
	movq	%rax, (%rsp)
	leaq	40(%rbp), %rax
	movq	%rax, %rdi
	movq	%rax, 8(%rsp)
	call	pthread_mutex_lock@PLT
	movq	88(%rbx), %rdi
	cmpb	$0, 144(%rdi)
	jne	.L50
	andl	$4, %r13d
	jne	.L177
.L51:
	movl	$96, %r12d
	xorl	%r14d, %r14d
	xorl	%r13d, %r13d
.L61:
	movq	(%rdi,%r12), %rbp
	testq	%rbp, %rbp
	je	.L52
	movq	_ZGVZN4asio15system_categoryEvE8instance@GOTPCREL(%rip), %r15
	movzbl	(%r15), %eax
	testb	%al, %al
	je	.L178
	.p2align 4,,10
	.p2align 3
.L55:
	movq	88(%rbx), %rdi
	movq	_ZZN4asio15system_categoryEvE8instance@GOTPCREL(%rip), %rax
	movl	$125, 24(%rbp)
	leaq	(%rdi,%r12), %rsi
	movq	%rax, 32(%rbp)
	movq	(%rsi), %rdx
	testq	%rdx, %rdx
	je	.L57
	movq	(%rdx), %rax
	movq	%rax, (%rsi)
	testq	%rax, %rax
	je	.L179
	movq	$0, (%rdx)
	movq	$0, 0(%rbp)
	testq	%r14, %r14
	je	.L180
.L109:
	movq	%rbp, (%r14)
	testq	%rax, %rax
	je	.L59
.L60:
	movq	%rbp, %r14
	movq	%rax, %rbp
	movzbl	(%r15), %eax
	testb	%al, %al
	jne	.L55
.L178:
	movq	%r15, %rdi
	call	__cxa_guard_acquire@PLT
	testl	%eax, %eax
	je	.L55
	movq	_ZZN4asio15system_categoryEvE8instance@GOTPCREL(%rip), %rsi
	movq	_ZN4asio6detail15system_categoryD1Ev@GOTPCREL(%rip), %rdi
	leaq	__dso_handle(%rip), %rdx
	call	__cxa_atexit@PLT
	movq	%r15, %rdi
	call	__cxa_guard_release@PLT
	jmp	.L55
	.p2align 4,,10
	.p2align 3
.L50:
	movq	8(%rsp), %rdi
	call	pthread_mutex_unlock@PLT
.L166:
	movl	80(%rbx), %r12d
	cmpl	$-1, %r12d
	je	.L79
.L78:
	call	__errno_location@PLT
	movl	%r12d, %edi
	movl	$0, (%rax)
	movq	%rax, %rbp
	call	close@PLT
	movq	_ZGVZN4asio15system_categoryEvE8instance@GOTPCREL(%rip), %r15
	movl	%eax, %r13d
	movzbl	(%r15), %eax
	testb	%al, %al
	je	.L181
.L81:
	testl	%r13d, %r13d
	je	.L79
	movl	0(%rbp), %r13d
	movzbl	(%r15), %eax
	testb	%al, %al
	je	.L182
.L84:
	cmpl	$11, %r13d
	je	.L86
.L171:
	movzbl	(%r15), %eax
	testb	%al, %al
	jne	.L79
	movq	%r15, %rdi
	call	__cxa_guard_acquire@PLT
	testl	%eax, %eax
	je	.L79
	movq	_ZZN4asio15system_categoryEvE8instance@GOTPCREL(%rip), %rsi
	movq	_ZN4asio6detail15system_categoryD1Ev@GOTPCREL(%rip), %rdi
	leaq	__dso_handle(%rip), %rdx
	call	__cxa_atexit@PLT
	movq	%r15, %rdi
	call	__cxa_guard_release@PLT
	jmp	.L79
	.p2align 4,,10
	.p2align 3
.L57:
	movq	$0, 0(%rbp)
	testq	%r14, %r14
	je	.L112
	movq	%rbp, (%r14)
.L59:
	movq	%rbp, %r14
.L52:
	addq	$16, %r12
	cmpq	$144, %r12
	jne	.L61
	movl	$-1, 88(%rdi)
	movb	$1, 144(%rdi)
	movq	8(%rsp), %rdi
	call	pthread_mutex_unlock@PLT
	movq	(%rsp), %r15
	movq	88(%rbx), %rbp
	leaq	120(%r15), %r12
	movq	%r12, %rdi
	call	pthread_mutex_lock@PLT
	cmpq	160(%r15), %rbp
	je	.L183
.L62:
	movq	32(%rbp), %rdx
	movq	24(%rbp), %rax
	testq	%rdx, %rdx
	je	.L63
	movq	%rax, 24(%rdx)
	movq	24(%rbp), %rax
.L63:
	testq	%rax, %rax
	je	.L64
	movq	32(%rbp), %rdx
	movq	%rdx, 32(%rax)
.L64:
	movq	(%rsp), %r15
	movq	%r12, %rdi
	movq	168(%r15), %rax
	movq	$0, 32(%rbp)
	movq	%rax, 24(%rbp)
	movq	%rbp, 168(%r15)
	call	pthread_mutex_unlock@PLT
	movq	$0, 88(%rbx)
	testq	%r13, %r13
	je	.L166
	movq	40(%r15), %rbp
	cmpb	$0, 40(%rbp)
	je	.L66
	data16	leaq	_ZN4asio6detail15keyword_tss_ptrINS0_10call_stackINS0_15task_io_serviceENS0_27task_io_service_thread_infoEE7contextEE6value_E@tlsgd(%rip), %rdi
	.value	0x6666
	rex64
	call	__tls_get_addr@PLT
	movq	(%rax), %rax
	testq	%rax, %rax
	jne	.L69
	jmp	.L66
	.p2align 4,,10
	.p2align 3
.L67:
	movq	16(%rax), %rax
	testq	%rax, %rax
	je	.L66
.L69:
	cmpq	(%rax), %rbp
	jne	.L67
	movq	8(%rax), %rax
	testq	%rax, %rax
	je	.L66
	movq	16(%rax), %rdx
	testq	%rdx, %rdx
	je	.L70
	movq	%r13, (%rdx)
.L71:
	movq	%r14, 16(%rax)
	jmp	.L166
	.p2align 4,,10
	.p2align 3
.L179:
	movq	$0, 8(%rsi)
	movq	$0, (%rdx)
	movq	$0, 0(%rbp)
	testq	%r14, %r14
	jne	.L109
	.p2align 4,,10
	.p2align 3
.L112:
	movq	%rbp, %r13
	jmp	.L59
	.p2align 4,,10
	.p2align 3
.L180:
	movq	%rbp, %r13
	jmp	.L60
	.p2align 4,,10
	.p2align 3
.L181:
	movq	%r15, %rdi
	call	__cxa_guard_acquire@PLT
	testl	%eax, %eax
	je	.L81
	movq	_ZZN4asio15system_categoryEvE8instance@GOTPCREL(%rip), %rsi
	movq	_ZN4asio6detail15system_categoryD1Ev@GOTPCREL(%rip), %rdi
	leaq	__dso_handle(%rip), %rdx
	call	__cxa_atexit@PLT
	movq	%r15, %rdi
	call	__cxa_guard_release@PLT
	jmp	.L81
	.p2align 4,,10
	.p2align 3
.L95:
	movl	12(%rbp), %eax
	leal	-1(%rax), %edx
	movl	%edx, 12(%rbp)
	jmp	.L96
	.p2align 4,,10
	.p2align 3
.L102:
	movl	12(%rbp), %eax
	leal	-1(%rax), %edx
	movl	%edx, 12(%rbp)
	jmp	.L103
	.p2align 4,,10
	.p2align 3
.L66:
	leaq	48(%rbp), %r12
	movq	%r12, %rdi
	call	pthread_mutex_lock@PLT
	movq	200(%rbp), %rax
	testq	%rax, %rax
	je	.L73
	movq	%r13, (%rax)
.L74:
	movq	136(%rbp), %rax
	movq	%r14, 200(%rbp)
	orq	$1, %rax
	movq	%rax, 136(%rbp)
	cmpq	$1, %rax
	je	.L75
	movq	%r12, %rdi
	call	pthread_mutex_unlock@PLT
	leaq	88(%rbp), %rdi
	call	pthread_cond_signal@PLT
	jmp	.L166
	.p2align 4,,10
	.p2align 3
.L75:
	cmpb	$0, 176(%rbp)
	jne	.L77
	movq	144(%rbp), %rax
	testq	%rax, %rax
	je	.L77
	movb	$1, 176(%rbp)
	leaq	88(%rax), %rdx
	leaq	28(%rsp), %rcx
	movl	$3, %esi
	movl	$-2147483639, 28(%rsp)
	movq	%rdx, 32(%rsp)
	movl	88(%rax), %edx
	movl	96(%rax), %edi
	call	epoll_ctl@PLT
.L77:
	movq	%r12, %rdi
	call	pthread_mutex_unlock@PLT
	jmp	.L166
	.p2align 4,,10
	.p2align 3
.L177:
	movq	(%rsp), %rax
	movl	$0, 28(%rsp)
	leaq	28(%rsp), %rcx
	movl	%r12d, %edx
	movq	$0, 32(%rsp)
	movl	$2, %esi
	movl	96(%rax), %edi
	call	epoll_ctl@PLT
	movq	88(%rbx), %rdi
	jmp	.L51
	.p2align 4,,10
	.p2align 3
.L182:
	movq	%r15, %rdi
	call	__cxa_guard_acquire@PLT
	testl	%eax, %eax
	je	.L84
	movq	_ZZN4asio15system_categoryEvE8instance@GOTPCREL(%rip), %rsi
	movq	_ZN4asio6detail15system_categoryD1Ev@GOTPCREL(%rip), %rdi
	leaq	__dso_handle(%rip), %rdx
	call	__cxa_atexit@PLT
	movq	%r15, %rdi
	call	__cxa_guard_release@PLT
	jmp	.L84
	.p2align 4,,10
	.p2align 3
.L183:
	movq	24(%rbp), %rax
	movq	(%rsp), %rcx
	movq	%rax, 160(%rcx)
	jmp	.L62
	.p2align 4,,10
	.p2align 3
.L86:
	movl	%r12d, %edi
	leaq	28(%rsp), %rdx
	movl	$21537, %esi
	xorl	%eax, %eax
	movl	$0, 28(%rsp)
	call	ioctl@PLT
	andb	$-4, 84(%rbx)
	movl	%r12d, %edi
	movl	$0, 0(%rbp)
	call	close@PLT
	jmp	.L171
	.p2align 4,,10
	.p2align 3
.L73:
	movq	%r13, 192(%rbp)
	jmp	.L74
	.p2align 4,,10
	.p2align 3
.L70:
	movq	%r13, 8(%rax)
	jmp	.L71
.L176:
	call	__stack_chk_fail@PLT
	.cfi_endproc
.LFE10123:
	.globl	__gxx_personality_v0
	.section	.gcc_except_table._ZNSt23_Sp_counted_ptr_inplaceIN7asiopal13SerialChannelESaIS1_ELN9__gnu_cxx12_Lock_policyE2EE10_M_disposeEv,"aG",@progbits,_ZNSt23_Sp_counted_ptr_inplaceIN7asiopal13SerialChannelESaIS1_ELN9__gnu_cxx12_Lock_policyE2EE10_M_disposeEv,comdat
.LLSDA10123:
	.byte	0xff
	.byte	0xff
	.byte	0x1
	.uleb128 .LLSDACSE10123-.LLSDACSB10123
.LLSDACSB10123:
.LLSDACSE10123:
	.section	.text._ZNSt23_Sp_counted_ptr_inplaceIN7asiopal13SerialChannelESaIS1_ELN9__gnu_cxx12_Lock_policyE2EE10_M_disposeEv,"axG",@progbits,_ZNSt23_Sp_counted_ptr_inplaceIN7asiopal13SerialChannelESaIS1_ELN9__gnu_cxx12_Lock_policyE2EE10_M_disposeEv,comdat
	.size	_ZNSt23_Sp_counted_ptr_inplaceIN7asiopal13SerialChannelESaIS1_ELN9__gnu_cxx12_Lock_policyE2EE10_M_disposeEv, .-_ZNSt23_Sp_counted_ptr_inplaceIN7asiopal13SerialChannelESaIS1_ELN9__gnu_cxx12_Lock_policyE2EE10_M_disposeEv
	.section	.rodata._ZNK4asio6detail15system_category7messageB5cxx11Ei.str1.8,"aMS",@progbits,1
	.align 8
.LC4:
	.string	"basic_string::_M_construct null not valid"
	.section	.text._ZNK4asio6detail15system_category7messageB5cxx11Ei,"axG",@progbits,_ZNK4asio6detail15system_category7messageB5cxx11Ei,comdat
	.align 2
	.p2align 4
	.weak	_ZNK4asio6detail15system_category7messageB5cxx11Ei
	.type	_ZNK4asio6detail15system_category7messageB5cxx11Ei, @function
_ZNK4asio6detail15system_category7messageB5cxx11Ei:
.LFB2953:
	.cfi_startproc
	endbr64
	pushq	%r14
	.cfi_def_cfa_offset 16
	.cfi_offset 14, -16
	pushq	%r13
	.cfi_def_cfa_offset 24
	.cfi_offset 13, -24
	pushq	%r12
	.cfi_def_cfa_offset 32
	.cfi_offset 12, -32
	movq	%rdi, %r12
	pushq	%rbp
	.cfi_def_cfa_offset 40
	.cfi_offset 6, -40
	leaq	16(%rdi), %rbp
	subq	$296, %rsp
	.cfi_def_cfa_offset 336
	movq	%fs:40, %rax
	movq	%rax, 280(%rsp)
	xorl	%eax, %eax
	cmpl	$125, %edx
	je	.L197
	pxor	%xmm0, %xmm0
	movl	%edx, %edi
	leaq	16(%rsp), %rsi
	movl	$256, %edx
	movaps	%xmm0, 16(%rsp)
	movaps	%xmm0, 32(%rsp)
	movaps	%xmm0, 48(%rsp)
	movaps	%xmm0, 64(%rsp)
	movaps	%xmm0, 80(%rsp)
	movaps	%xmm0, 96(%rsp)
	movaps	%xmm0, 112(%rsp)
	movaps	%xmm0, 128(%rsp)
	movaps	%xmm0, 144(%rsp)
	movaps	%xmm0, 160(%rsp)
	movaps	%xmm0, 176(%rsp)
	movaps	%xmm0, 192(%rsp)
	movaps	%xmm0, 208(%rsp)
	movaps	%xmm0, 224(%rsp)
	movaps	%xmm0, 240(%rsp)
	movaps	%xmm0, 256(%rsp)
	call	strerror_r@PLT
	movq	%rbp, (%r12)
	movq	%rax, %r14
	testq	%rax, %rax
	je	.L198
	movq	%rax, %rdi
	call	strlen@PLT
	movq	%rax, 8(%rsp)
	movq	%rax, %r13
	cmpq	$15, %rax
	ja	.L199
	cmpq	$1, %rax
	jne	.L190
	movzbl	(%r14), %edx
	movb	%dl, 16(%r12)
.L191:
	movq	%rax, 8(%r12)
	movb	$0, 0(%rbp,%rax)
.L184:
	movq	280(%rsp), %rax
	xorq	%fs:40, %rax
	jne	.L200
	addq	$296, %rsp
	.cfi_remember_state
	.cfi_def_cfa_offset 40
	movq	%r12, %rax
	popq	%rbp
	.cfi_def_cfa_offset 32
	popq	%r12
	.cfi_def_cfa_offset 24
	popq	%r13
	.cfi_def_cfa_offset 16
	popq	%r14
	.cfi_def_cfa_offset 8
	ret
	.p2align 4,,10
	.p2align 3
.L199:
	.cfi_restore_state
	leaq	8(%rsp), %rsi
	xorl	%edx, %edx
	movq	%r12, %rdi
	call	_ZNSt7__cxx1112basic_stringIcSt11char_traitsIcESaIcEE9_M_createERmm@PLT
	movq	%rax, (%r12)
	movq	%rax, %rbp
	movq	8(%rsp), %rax
	movq	%rax, 16(%r12)
.L189:
	movq	%rbp, %rdi
	movq	%r13, %rdx
	movq	%r14, %rsi
	call	memcpy@PLT
	movq	8(%rsp), %rax
	movq	(%r12), %rbp
	jmp	.L191
	.p2align 4,,10
	.p2align 3
.L197:
	movq	%rbp, (%rdi)
	xorl	%edx, %edx
	leaq	8(%rsp), %rsi
	movq	$18, 8(%rsp)
	call	_ZNSt7__cxx1112basic_stringIcSt11char_traitsIcESaIcEE9_M_createERmm@PLT
	movq	8(%rsp), %rdx
	movdqa	.LC5(%rip), %xmm0
	movq	%rax, (%r12)
	movq	%rdx, 16(%r12)
	movl	$11876, %edx
	movw	%dx, 16(%rax)
	movups	%xmm0, (%rax)
	movq	8(%rsp), %rax
	movq	(%r12), %rdx
	movq	%rax, 8(%r12)
	movb	$0, (%rdx,%rax)
	jmp	.L184
	.p2align 4,,10
	.p2align 3
.L190:
	testq	%rax, %rax
	je	.L191
	jmp	.L189
	.p2align 4,,10
	.p2align 3
.L198:
	leaq	.LC4(%rip), %rdi
	call	_ZSt19__throw_logic_errorPKc@PLT
.L200:
	call	__stack_chk_fail@PLT
	.cfi_endproc
.LFE2953:
	.size	_ZNK4asio6detail15system_category7messageB5cxx11Ei, .-_ZNK4asio6detail15system_category7messageB5cxx11Ei
	.section	.text._ZNK4asio5error6detail17addrinfo_category7messageB5cxx11Ei,"axG",@progbits,_ZNK4asio5error6detail17addrinfo_category7messageB5cxx11Ei,comdat
	.align 2
	.p2align 4
	.weak	_ZNK4asio5error6detail17addrinfo_category7messageB5cxx11Ei
	.type	_ZNK4asio5error6detail17addrinfo_category7messageB5cxx11Ei, @function
_ZNK4asio5error6detail17addrinfo_category7messageB5cxx11Ei:
.LFB2999:
	.cfi_startproc
	endbr64
	pushq	%r12
	.cfi_def_cfa_offset 16
	.cfi_offset 12, -16
	movq	%rdi, %r12
	subq	$16, %rsp
	.cfi_def_cfa_offset 32
	movq	%fs:40, %rax
	movq	%rax, 8(%rsp)
	xorl	%eax, %eax
	leaq	16(%rdi), %rax
	movq	%rax, (%rdi)
	cmpl	$-8, %edx
	je	.L207
	cmpl	$-7, %edx
	je	.L208
	xorl	%edx, %edx
	movq	%rsp, %rsi
	movq	$19, (%rsp)
	call	_ZNSt7__cxx1112basic_stringIcSt11char_traitsIcESaIcEE9_M_createERmm@PLT
	movq	(%rsp), %rdx
	movdqa	.LC8(%rip), %xmm0
	movq	%rax, (%r12)
	movq	%rdx, 16(%r12)
	movl	$28530, %edx
	movw	%dx, 16(%rax)
	movb	$114, 18(%rax)
	movups	%xmm0, (%rax)
	movq	(%rsp), %rax
	movq	(%r12), %rdx
	movq	%rax, 8(%r12)
	movb	$0, (%rdx,%rax)
.L201:
	movq	8(%rsp), %rax
	xorq	%fs:40, %rax
	jne	.L209
	addq	$16, %rsp
	.cfi_remember_state
	.cfi_def_cfa_offset 16
	movq	%r12, %rax
	popq	%r12
	.cfi_def_cfa_offset 8
	ret
	.p2align 4,,10
	.p2align 3
.L208:
	.cfi_restore_state
	xorl	%edx, %edx
	movq	%rsp, %rsi
	movq	$25, (%rsp)
	call	_ZNSt7__cxx1112basic_stringIcSt11char_traitsIcESaIcEE9_M_createERmm@PLT
	movq	(%rsp), %rdx
	movdqa	.LC7(%rip), %xmm0
	movabsq	$7310593918082512243, %rcx
	movq	%rax, (%r12)
	movq	%rdx, 16(%r12)
	movq	%rcx, 16(%rax)
	movb	$100, 24(%rax)
	movups	%xmm0, (%rax)
	movq	(%rsp), %rax
	movq	(%r12), %rdx
	movq	%rax, 8(%r12)
	movb	$0, (%rdx,%rax)
	jmp	.L201
	.p2align 4,,10
	.p2align 3
.L207:
	xorl	%edx, %edx
	movq	%rsp, %rsi
	movq	$17, (%rsp)
	call	_ZNSt7__cxx1112basic_stringIcSt11char_traitsIcESaIcEE9_M_createERmm@PLT
	movq	(%rsp), %rdx
	movdqa	.LC6(%rip), %xmm0
	movq	%rax, (%r12)
	movq	%rdx, 16(%r12)
	movb	$100, 16(%rax)
	movups	%xmm0, (%rax)
	movq	(%rsp), %rax
	movq	(%r12), %rdx
	movq	%rax, 8(%r12)
	movb	$0, (%rdx,%rax)
	jmp	.L201
.L209:
	call	__stack_chk_fail@PLT
	.cfi_endproc
.LFE2999:
	.size	_ZNK4asio5error6detail17addrinfo_category7messageB5cxx11Ei, .-_ZNK4asio5error6detail17addrinfo_category7messageB5cxx11Ei
	.section	.text._ZNK4asio5error6detail13misc_category7messageB5cxx11Ei,"axG",@progbits,_ZNK4asio5error6detail13misc_category7messageB5cxx11Ei,comdat
	.align 2
	.p2align 4
	.weak	_ZNK4asio5error6detail13misc_category7messageB5cxx11Ei
	.type	_ZNK4asio5error6detail13misc_category7messageB5cxx11Ei, @function
_ZNK4asio5error6detail13misc_category7messageB5cxx11Ei:
.LFB3005:
	.cfi_startproc
	endbr64
	pushq	%r12
	.cfi_def_cfa_offset 16
	.cfi_offset 12, -16
	movq	%rdi, %r12
	subq	$16, %rsp
	.cfi_def_cfa_offset 32
	movq	%fs:40, %rax
	movq	%rax, 8(%rsp)
	xorl	%eax, %eax
	leaq	16(%rdi), %rax
	movq	%rax, (%rdi)
	cmpl	$1, %edx
	je	.L218
	cmpl	$2, %edx
	je	.L219
	cmpl	$3, %edx
	je	.L220
	cmpl	$4, %edx
	je	.L221
	movabsq	$8316298233121436513, %rcx
	movl	$28530, %edx
	movq	%rcx, 16(%rdi)
	movl	$1919230051, 8(%rax)
	movw	%dx, 12(%rax)
	movb	$114, 14(%rax)
	movq	$15, 8(%rdi)
	movb	$0, 31(%rdi)
.L210:
	movq	8(%rsp), %rax
	xorq	%fs:40, %rax
	jne	.L222
	addq	$16, %rsp
	.cfi_remember_state
	.cfi_def_cfa_offset 16
	movq	%r12, %rax
	popq	%r12
	.cfi_def_cfa_offset 8
	ret
	.p2align 4,,10
	.p2align 3
.L218:
	.cfi_restore_state
	movabsq	$2340011850872286273, %rcx
	movq	%rcx, 16(%rdi)
	movl	$1852141679, 8(%rax)
	movq	$12, 8(%rdi)
	movb	$0, 28(%rdi)
	jmp	.L210
	.p2align 4,,10
	.p2align 3
.L221:
	movq	%rsp, %rsi
	xorl	%edx, %edx
	movq	$57, (%rsp)
	call	_ZNSt7__cxx1112basic_stringIcSt11char_traitsIcESaIcEE9_M_createERmm@PLT
	movq	(%rsp), %rdx
	movdqa	.LC10(%rip), %xmm0
	movabsq	$7310291504967217959, %rsi
	movq	%rax, (%r12)
	movq	%rdx, 16(%r12)
	movups	%xmm0, (%rax)
	movdqa	.LC11(%rip), %xmm0
	movq	%rsi, 48(%rax)
	movups	%xmm0, 16(%rax)
	movdqa	.LC12(%rip), %xmm0
	movb	$116, 56(%rax)
	movups	%xmm0, 32(%rax)
	movq	(%rsp), %rax
	movq	(%r12), %rdx
	movq	%rax, 8(%r12)
	movb	$0, (%rdx,%rax)
	jmp	.L210
	.p2align 4,,10
	.p2align 3
.L219:
	movabsq	$7358994418594246213, %rcx
	movq	%rcx, 16(%rdi)
	movl	$27753, %ecx
	movw	%cx, 8(%rax)
	movb	$101, 10(%rax)
	movq	$11, 8(%rdi)
	movb	$0, 27(%rdi)
	jmp	.L210
	.p2align 4,,10
	.p2align 3
.L220:
	xorl	%edx, %edx
	movq	%rsp, %rsi
	movq	$17, (%rsp)
	call	_ZNSt7__cxx1112basic_stringIcSt11char_traitsIcESaIcEE9_M_createERmm@PLT
	movq	(%rsp), %rdx
	movdqa	.LC9(%rip), %xmm0
	movq	%rax, (%r12)
	movq	%rdx, 16(%r12)
	movb	$100, 16(%rax)
	movups	%xmm0, (%rax)
	movq	(%rsp), %rax
	movq	(%r12), %rdx
	movq	%rax, 8(%r12)
	movb	$0, (%rdx,%rax)
	jmp	.L210
.L222:
	call	__stack_chk_fail@PLT
	.cfi_endproc
.LFE3005:
	.size	_ZNK4asio5error6detail13misc_category7messageB5cxx11Ei, .-_ZNK4asio5error6detail13misc_category7messageB5cxx11Ei
	.section	.text._ZNK4asio5error6detail14netdb_category7messageB5cxx11Ei,"axG",@progbits,_ZNK4asio5error6detail14netdb_category7messageB5cxx11Ei,comdat
	.align 2
	.p2align 4
	.weak	_ZNK4asio5error6detail14netdb_category7messageB5cxx11Ei
	.type	_ZNK4asio5error6detail14netdb_category7messageB5cxx11Ei, @function
_ZNK4asio5error6detail14netdb_category7messageB5cxx11Ei:
.LFB2993:
	.cfi_startproc
	endbr64
	pushq	%r12
	.cfi_def_cfa_offset 16
	.cfi_offset 12, -16
	movq	%rdi, %r12
	subq	$16, %rsp
	.cfi_def_cfa_offset 32
	movq	%fs:40, %rax
	movq	%rax, 8(%rsp)
	xorl	%eax, %eax
	leaq	16(%rdi), %rax
	movq	%rax, (%rdi)
	cmpl	$1, %edx
	je	.L231
	cmpl	$2, %edx
	je	.L232
	cmpl	$4, %edx
	je	.L233
	cmpl	$3, %edx
	je	.L234
	xorl	%edx, %edx
	movq	%rsp, %rsi
	movq	$16, (%rsp)
	call	_ZNSt7__cxx1112basic_stringIcSt11char_traitsIcESaIcEE9_M_createERmm@PLT
	movq	(%rsp), %rdx
	movdqa	.LC22(%rip), %xmm0
	movq	%rax, (%r12)
	movq	%rdx, 16(%r12)
	movups	%xmm0, (%rax)
	movq	(%rsp), %rax
	movq	(%r12), %rdx
	movq	%rax, 8(%r12)
	movb	$0, (%rdx,%rax)
.L223:
	movq	8(%rsp), %rax
	xorq	%fs:40, %rax
	jne	.L235
	addq	$16, %rsp
	.cfi_remember_state
	.cfi_def_cfa_offset 16
	movq	%r12, %rax
	popq	%r12
	.cfi_def_cfa_offset 8
	ret
	.p2align 4,,10
	.p2align 3
.L231:
	.cfi_restore_state
	movq	%rsp, %rsi
	xorl	%edx, %edx
	movq	$30, (%rsp)
	call	_ZNSt7__cxx1112basic_stringIcSt11char_traitsIcESaIcEE9_M_createERmm@PLT
	movq	(%rsp), %rdx
	movl	$10597, %esi
	movdqa	.LC13(%rip), %xmm0
	movabsq	$8388361603773658465, %rcx
	movq	%rax, (%r12)
	movq	%rdx, 16(%r12)
	movq	%rcx, 16(%rax)
	movl	$1986622561, 24(%rax)
	movw	%si, 28(%rax)
	movups	%xmm0, (%rax)
	movq	(%rsp), %rax
	movq	(%r12), %rdx
	movq	%rax, 8(%r12)
	movb	$0, (%rdx,%rax)
	jmp	.L223
	.p2align 4,,10
	.p2align 3
.L234:
	xorl	%edx, %edx
	movq	%rsp, %rsi
	movq	$55, (%rsp)
	call	_ZNSt7__cxx1112basic_stringIcSt11char_traitsIcESaIcEE9_M_createERmm@PLT
	movq	(%rsp), %rdx
	movdqa	.LC19(%rip), %xmm0
	movq	%rax, (%r12)
	movq	%rdx, 16(%r12)
	movl	$30059, %edx
	movups	%xmm0, (%rax)
	movdqa	.LC20(%rip), %xmm0
	movl	$1869573152, 48(%rax)
	movups	%xmm0, 16(%rax)
	movdqa	.LC21(%rip), %xmm0
	movw	%dx, 52(%rax)
	movb	$112, 54(%rax)
	movups	%xmm0, 32(%rax)
	movq	(%rsp), %rax
	movq	(%r12), %rdx
	movq	%rax, 8(%r12)
	movb	$0, (%rdx,%rax)
	jmp	.L223
	.p2align 4,,10
	.p2align 3
.L232:
	xorl	%edx, %edx
	movq	%rsp, %rsi
	movq	$51, (%rsp)
	call	_ZNSt7__cxx1112basic_stringIcSt11char_traitsIcESaIcEE9_M_createERmm@PLT
	movq	(%rsp), %rdx
	movl	$25972, %ecx
	movdqa	.LC13(%rip), %xmm0
	movq	%rax, (%r12)
	movq	%rdx, 16(%r12)
	movups	%xmm0, (%rax)
	movdqa	.LC14(%rip), %xmm0
	movw	%cx, 48(%rax)
	movups	%xmm0, 16(%rax)
	movdqa	.LC15(%rip), %xmm0
	movb	$114, 50(%rax)
	movups	%xmm0, 32(%rax)
	movq	(%rsp), %rax
	movq	(%r12), %rdx
	movq	%rax, 8(%r12)
	movb	$0, (%rdx,%rax)
	jmp	.L223
	.p2align 4,,10
	.p2align 3
.L233:
	xorl	%edx, %edx
	movq	%rsp, %rsi
	movq	$56, (%rsp)
	call	_ZNSt7__cxx1112basic_stringIcSt11char_traitsIcESaIcEE9_M_createERmm@PLT
	movq	(%rsp), %rdx
	movdqa	.LC16(%rip), %xmm0
	movabsq	$7022344801645520244, %rcx
	movq	%rax, (%r12)
	movq	%rdx, 16(%r12)
	movups	%xmm0, (%rax)
	movdqa	.LC17(%rip), %xmm0
	movq	%rcx, 48(%rax)
	movups	%xmm0, 16(%rax)
	movdqa	.LC18(%rip), %xmm0
	movups	%xmm0, 32(%rax)
	movq	(%rsp), %rax
	movq	(%r12), %rdx
	movq	%rax, 8(%r12)
	movb	$0, (%rdx,%rax)
	jmp	.L223
.L235:
	call	__stack_chk_fail@PLT
	.cfi_endproc
.LFE2993:
	.size	_ZNK4asio5error6detail14netdb_category7messageB5cxx11Ei, .-_ZNK4asio5error6detail14netdb_category7messageB5cxx11Ei
	.section	.text._ZNSt16_Sp_counted_baseILN9__gnu_cxx12_Lock_policyE2EE10_M_releaseEv,"axG",@progbits,_ZNSt16_Sp_counted_baseILN9__gnu_cxx12_Lock_policyE2EE10_M_releaseEv,comdat
	.align 2
	.p2align 4
	.weak	_ZNSt16_Sp_counted_baseILN9__gnu_cxx12_Lock_policyE2EE10_M_releaseEv
	.type	_ZNSt16_Sp_counted_baseILN9__gnu_cxx12_Lock_policyE2EE10_M_releaseEv, @function
_ZNSt16_Sp_counted_baseILN9__gnu_cxx12_Lock_policyE2EE10_M_releaseEv:
.LFB8564:
	.cfi_startproc
	endbr64
	pushq	%rbp
	.cfi_def_cfa_offset 16
	.cfi_offset 6, -16
	movq	%rdi, %rbp
	pushq	%rbx
	.cfi_def_cfa_offset 24
	.cfi_offset 3, -24
	subq	$8, %rsp
	.cfi_def_cfa_offset 32
	movq	_ZL28__gthrw___pthread_key_createPjPFvPvE@GOTPCREL(%rip), %rbx
	testq	%rbx, %rbx
	je	.L237
	movl	$-1, %eax
	lock xaddl	%eax, 8(%rdi)
	cmpl	$1, %eax
	je	.L245
.L236:
	addq	$8, %rsp
	.cfi_remember_state
	.cfi_def_cfa_offset 24
	popq	%rbx
	.cfi_def_cfa_offset 16
	popq	%rbp
	.cfi_def_cfa_offset 8
	ret
	.p2align 4,,10
	.p2align 3
.L237:
	.cfi_restore_state
	movl	8(%rdi), %eax
	leal	-1(%rax), %edx
	movl	%edx, 8(%rdi)
	cmpl	$1, %eax
	jne	.L236
.L245:
	movq	0(%rbp), %rax
	movq	%rbp, %rdi
	call	*16(%rax)
	testq	%rbx, %rbx
	je	.L241
	movl	$-1, %eax
	lock xaddl	%eax, 12(%rbp)
.L242:
	cmpl	$1, %eax
	jne	.L236
	movq	0(%rbp), %rax
	movq	%rbp, %rdi
	movq	24(%rax), %rax
	addq	$8, %rsp
	.cfi_remember_state
	.cfi_def_cfa_offset 24
	popq	%rbx
	.cfi_def_cfa_offset 16
	popq	%rbp
	.cfi_def_cfa_offset 8
	jmp	*%rax
	.p2align 4,,10
	.p2align 3
.L241:
	.cfi_restore_state
	movl	12(%rbp), %eax
	leal	-1(%rax), %edx
	movl	%edx, 12(%rbp)
	jmp	.L242
	.cfi_endproc
.LFE8564:
	.size	_ZNSt16_Sp_counted_baseILN9__gnu_cxx12_Lock_policyE2EE10_M_releaseEv, .-_ZNSt16_Sp_counted_baseILN9__gnu_cxx12_Lock_policyE2EE10_M_releaseEv
	.section	.rodata.str1.1,"aMS",@progbits,1
.LC23:
	.string	"Error Connecting: %s"
	.section	.rodata.str1.8,"aMS",@progbits,1
	.align 8
.LC24:
	.string	"/home/kimchaer/Desktop/OpenPLC_v3/utils/dnp3_src/cpp/libs/src/asiodnp3/SerialIOHandler.cpp(73)"
	.section	.text.unlikely,"ax",@progbits
	.align 2
.LCOLDB25:
	.text
.LHOTB25:
	.align 2
	.p2align 4
	.globl	_ZN8asiodnp315SerialIOHandler7TryOpenERKN7openpal12TimeDurationE
	.type	_ZN8asiodnp315SerialIOHandler7TryOpenERKN7openpal12TimeDurationE, @function
_ZN8asiodnp315SerialIOHandler7TryOpenERKN7openpal12TimeDurationE:
.LFB7609:
	.cfi_startproc
	.cfi_personality 0x9b,DW.ref.__gxx_personality_v0
	.cfi_lsda 0x1b,.LLSDA7609
	endbr64
	pushq	%r15
	.cfi_def_cfa_offset 16
	.cfi_offset 15, -16
	pushq	%r14
	.cfi_def_cfa_offset 24
	.cfi_offset 14, -24
	movq	%rsi, %r14
	pushq	%r13
	.cfi_def_cfa_offset 32
	.cfi_offset 13, -32
	pushq	%r12
	.cfi_def_cfa_offset 40
	.cfi_offset 12, -40
	movq	%rdi, %r12
	movl	$104, %edi
	pushq	%rbp
	.cfi_def_cfa_offset 48
	.cfi_offset 6, -48
	pushq	%rbx
	.cfi_def_cfa_offset 56
	.cfi_offset 3, -56
	subq	$216, %rsp
	.cfi_def_cfa_offset 272
	movq	%fs:40, %rax
	movq	%rax, 200(%rsp)
	xorl	%eax, %eax
.LEHB0:
	call	_Znwm@PLT
.LEHE0:
	movdqu	800(%r12), %xmm1
	movq	%rax, %rbp
	movabsq	$4294967297, %rax
	movq	%rax, 8(%rbp)
	movq	_ZTVSt23_Sp_counted_ptr_inplaceIN7asiopal13SerialChannelESaIS1_ELN9__gnu_cxx12_Lock_policyE2EE@GOTPCREL(%rip), %rax
	leaq	16(%rbp), %rbx
	movaps	%xmm1, 32(%rsp)
	addq	$16, %rax
	movq	%rax, 0(%rbp)
	movq	808(%r12), %rax
	testq	%rax, %rax
	je	.L247
	cmpq	$0, _ZL28__gthrw___pthread_key_createPjPFvPvE@GOTPCREL(%rip)
	je	.L248
	lock addl	$1, 8(%rax)
.L247:
	leaq	32(%rsp), %r15
	movq	%rbx, %rdi
	movq	%r15, %rsi
.LEHB1:
	call	_ZN7asiopal13SerialChannelC1ESt10shared_ptrINS_8ExecutorEE@PLT
.LEHE1:
	movq	40(%rsp), %rdi
	testq	%rdi, %rdi
	je	.L254
	movq	_ZL28__gthrw___pthread_key_createPjPFvPvE@GOTPCREL(%rip), %r13
	testq	%r13, %r13
	je	.L250
	movl	$-1, %eax
	lock xaddl	%eax, 8(%rdi)
	cmpl	$1, %eax
	je	.L335
	.p2align 4,,10
	.p2align 3
.L254:
	movq	32(%rbp), %rax
	testq	%rax, %rax
	je	.L257
	movl	8(%rax), %eax
	testl	%eax, %eax
	je	.L257
.L258:
	movl	$0, 16(%rsp)
	call	_ZNSt3_V215system_categoryEv@PLT
	leaq	16(%rsp), %rdx
	leaq	840(%r12), %rsi
	movq	%rbx, %rdi
	movq	%rax, 24(%rsp)
.LEHB2:
	call	_ZN7asiopal13SerialChannel4OpenERKNS_14SerialSettingsERSt10error_code@PLT
	movl	16(%rsp), %eax
	testl	%eax, %eax
	je	.L265
	leaq	32(%r12), %r13
	movq	%r15, %rsi
	movl	$4, 32(%rsp)
	movq	%r13, %rdi
	call	_ZNK7openpal6Logger9IsEnabledERKNS_10LogFiltersE@PLT
	testb	%al, %al
	je	.L266
	movq	24(%rsp), %rsi
	movl	16(%rsp), %edx
	leaq	48(%rsp), %rdi
	movq	(%rsi), %rax
	call	*32(%rax)
	movq	48(%rsp), %r9
	leaq	80(%rsp), %rbx
	movl	$120, %ecx
	xorl	%eax, %eax
	movq	%rbx, %rdi
	movl	$1, %edx
	movl	$120, %esi
	leaq	.LC23(%rip), %r8
	call	__snprintf_chk@PLT
	movq	48(%rsp), %rdi
	leaq	64(%rsp), %rax
	cmpq	%rax, %rdi
	je	.L267
	call	_ZdlPv@PLT
.L267:
	movq	%rbx, %rcx
	leaq	.LC24(%rip), %rdx
	movq	%r15, %rsi
	movq	%r13, %rdi
	movl	$4, 32(%rsp)
	call	_ZN7openpal6Logger3LogERKNS_10LogFiltersEPKcS5_@PLT
.LEHE2:
.L266:
	addl	$1, 84(%r12)
	movl	$24, %edi
	movq	(%r14), %rbx
	leaq	896(%r12), %r13
	movq	$0, 64(%rsp)
.LEHB3:
	call	_Znwm@PLT
.LEHE3:
	movq	%r12, %xmm2
	movq	%r13, %xmm0
	movq	%r14, %rsi
	movq	%r13, %rdi
	punpcklqdq	%xmm2, %xmm0
	movq	%rbx, 16(%rax)
	leaq	_ZNSt14_Function_base13_Base_managerIZN7openpal8TimerRef5StartIZN8asiodnp315SerialIOHandler7TryOpenERKNS1_12TimeDurationEEUlvE_EEbS8_RKT_EUlvE_E10_M_managerERSt9_Any_dataRKSF_St18_Manager_operation(%rip), %rcx
	leaq	48(%rsp), %r12
	movups	%xmm0, (%rax)
	movq	%rcx, %xmm0
	movq	%r12, %rdx
	movq	%rax, 48(%rsp)
	leaq	_ZNSt17_Function_handlerIFvvEZN7openpal8TimerRef5StartIZN8asiodnp315SerialIOHandler7TryOpenERKNS1_12TimeDurationEEUlvE_EEbS8_RKT_EUlvE_E9_M_invokeERKSt9_Any_data(%rip), %rax
	movq	%rax, %xmm3
	punpcklqdq	%xmm3, %xmm0
	movaps	%xmm0, 64(%rsp)
.LEHB4:
	call	_ZN7openpal8TimerRef11StartActionERKNS_12TimeDurationERKSt8functionIFvvEE@PLT
.LEHE4:
	movq	64(%rsp), %rax
	testq	%rax, %rax
	je	.L272
	movl	$3, %edx
	movq	%r12, %rsi
	movq	%r12, %rdi
	call	*%rax
.L272:
	movq	_ZL28__gthrw___pthread_key_createPjPFvPvE@GOTPCREL(%rip), %r13
	leaq	8(%rbp), %rbx
.L273:
	testq	%r13, %r13
	je	.L336
	movl	$-1, %eax
	lock xaddl	%eax, (%rbx)
	cmpl	$1, %eax
	je	.L337
.L246:
	movq	200(%rsp), %rax
	xorq	%fs:40, %rax
	jne	.L338
	addq	$216, %rsp
	.cfi_remember_state
	.cfi_def_cfa_offset 56
	popq	%rbx
	.cfi_def_cfa_offset 48
	popq	%rbp
	.cfi_def_cfa_offset 40
	popq	%r12
	.cfi_def_cfa_offset 32
	popq	%r13
	.cfi_def_cfa_offset 24
	popq	%r14
	.cfi_def_cfa_offset 16
	popq	%r15
	.cfi_def_cfa_offset 8
	ret
	.p2align 4,,10
	.p2align 3
.L248:
	.cfi_restore_state
	addl	$1, 8(%rax)
	jmp	.L247
	.p2align 4,,10
	.p2align 3
.L257:
	movq	_ZL28__gthrw___pthread_key_createPjPFvPvE@GOTPCREL(%rip), %r13
	movq	%rbx, 24(%rbp)
	testq	%r13, %r13
	je	.L339
	lock addl	$1, 12(%rbp)
.L259:
	movq	32(%rbp), %rdi
	testq	%rdi, %rdi
	je	.L261
	testq	%r13, %r13
	je	.L262
	movl	$-1, %eax
	lock xaddl	%eax, 12(%rdi)
.L263:
	cmpl	$1, %eax
	jne	.L261
	movq	(%rdi), %rax
	call	*24(%rax)
	.p2align 4,,10
	.p2align 3
.L261:
	movq	%rbp, 32(%rbp)
	jmp	.L258
	.p2align 4,,10
	.p2align 3
.L250:
	movl	8(%rdi), %eax
	leal	-1(%rax), %edx
	movl	%edx, 8(%rdi)
	cmpl	$1, %eax
	jne	.L254
.L335:
	movq	(%rdi), %rax
	movq	%rdi, 8(%rsp)
	call	*16(%rax)
	testq	%r13, %r13
	movq	8(%rsp), %rdi
	je	.L252
	movl	$-1, %eax
	lock xaddl	%eax, 12(%rdi)
.L253:
	cmpl	$1, %eax
	jne	.L254
	movq	(%rdi), %rax
	call	*24(%rax)
	jmp	.L254
	.p2align 4,,10
	.p2align 3
.L265:
	movq	%rbx, %xmm0
	movq	%rbp, %xmm4
	leaq	8(%rbp), %rbx
	movq	_ZL28__gthrw___pthread_key_createPjPFvPvE@GOTPCREL(%rip), %r13
	punpcklqdq	%xmm4, %xmm0
	movaps	%xmm0, 32(%rsp)
	testq	%r13, %r13
	je	.L276
	lock addl	$1, (%rbx)
.L277:
	movq	%r15, %rsi
	movq	%r12, %rdi
.LEHB5:
	call	_ZN8asiodnp39IOHandler12OnNewChannelERKSt10shared_ptrIN7asiopal13IAsyncChannelEE@PLT
.LEHE5:
	movq	40(%rsp), %r12
	testq	%r12, %r12
	je	.L273
	testq	%r13, %r13
	je	.L280
	movl	$-1, %eax
	lock xaddl	%eax, 8(%r12)
.L281:
	cmpl	$1, %eax
	jne	.L273
	movq	(%r12), %rax
	movq	%r12, %rdi
	call	*16(%rax)
	testq	%r13, %r13
	je	.L283
	movl	$-1, %eax
	lock xaddl	%eax, 12(%r12)
.L284:
	cmpl	$1, %eax
	jne	.L273
	movq	(%r12), %rax
	movq	%r12, %rdi
	call	*24(%rax)
	jmp	.L273
	.p2align 4,,10
	.p2align 3
.L336:
	movl	8(%rbp), %eax
	leal	-1(%rax), %edx
	movl	%edx, 8(%rbp)
	cmpl	$1, %eax
	jne	.L246
.L337:
	movq	0(%rbp), %rax
	movq	%rbp, %rdi
	call	*16(%rax)
	testq	%r13, %r13
	je	.L288
	movl	$-1, %eax
	lock xaddl	%eax, 12(%rbp)
.L289:
	cmpl	$1, %eax
	jne	.L246
	movq	0(%rbp), %rax
	movq	%rbp, %rdi
	call	*24(%rax)
	jmp	.L246
	.p2align 4,,10
	.p2align 3
.L280:
	movl	8(%r12), %eax
	leal	-1(%rax), %edx
	movl	%edx, 8(%r12)
	jmp	.L281
	.p2align 4,,10
	.p2align 3
.L262:
	movl	12(%rdi), %eax
	leal	-1(%rax), %edx
	movl	%edx, 12(%rdi)
	jmp	.L263
	.p2align 4,,10
	.p2align 3
.L276:
	addl	$1, 8(%rbp)
	jmp	.L277
	.p2align 4,,10
	.p2align 3
.L339:
	addl	$1, 12(%rbp)
	jmp	.L259
	.p2align 4,,10
	.p2align 3
.L252:
	movl	12(%rdi), %eax
	leal	-1(%rax), %edx
	movl	%edx, 12(%rdi)
	jmp	.L253
	.p2align 4,,10
	.p2align 3
.L288:
	movl	12(%rbp), %eax
	leal	-1(%rax), %edx
	movl	%edx, 12(%rbp)
	jmp	.L289
	.p2align 4,,10
	.p2align 3
.L283:
	movl	12(%r12), %eax
	leal	-1(%rax), %edx
	movl	%edx, 12(%r12)
	jmp	.L284
.L338:
	call	__stack_chk_fail@PLT
.L301:
	endbr64
	movq	%rax, %r12
	jmp	.L255
.L303:
	endbr64
	movq	%rax, %r12
	jmp	.L269
.L302:
	endbr64
	movq	%rax, %rbx
	jmp	.L274
.L299:
	endbr64
	movq	%rax, %r12
	jmp	.L271
.L300:
	endbr64
	movq	%rax, %r12
	jmp	.L291
	.section	.gcc_except_table,"a",@progbits
.LLSDA7609:
	.byte	0xff
	.byte	0xff
	.byte	0x1
	.uleb128 .LLSDACSE7609-.LLSDACSB7609
.LLSDACSB7609:
	.uleb128 .LEHB0-.LFB7609
	.uleb128 .LEHE0-.LEHB0
	.uleb128 0
	.uleb128 0
	.uleb128 .LEHB1-.LFB7609
	.uleb128 .LEHE1-.LEHB1
	.uleb128 .L301-.LFB7609
	.uleb128 0
	.uleb128 .LEHB2-.LFB7609
	.uleb128 .LEHE2-.LEHB2
	.uleb128 .L299-.LFB7609
	.uleb128 0
	.uleb128 .LEHB3-.LFB7609
	.uleb128 .LEHE3-.LEHB3
	.uleb128 .L303-.LFB7609
	.uleb128 0
	.uleb128 .LEHB4-.LFB7609
	.uleb128 .LEHE4-.LEHB4
	.uleb128 .L302-.LFB7609
	.uleb128 0
	.uleb128 .LEHB5-.LFB7609
	.uleb128 .LEHE5-.LEHB5
	.uleb128 .L300-.LFB7609
	.uleb128 0
.LLSDACSE7609:
	.text
	.cfi_endproc
	.section	.text.unlikely
	.cfi_startproc
	.cfi_personality 0x9b,DW.ref.__gxx_personality_v0
	.cfi_lsda 0x1b,.LLSDAC7609
	.type	_ZN8asiodnp315SerialIOHandler7TryOpenERKN7openpal12TimeDurationE.cold, @function
_ZN8asiodnp315SerialIOHandler7TryOpenERKN7openpal12TimeDurationE.cold:
.LFSB7609:
.L255:
	.cfi_def_cfa_offset 272
	.cfi_offset 3, -56
	.cfi_offset 6, -48
	.cfi_offset 12, -40
	.cfi_offset 13, -32
	.cfi_offset 14, -24
	.cfi_offset 15, -16
	movq	40(%rsp), %rdi
	testq	%rdi, %rdi
	je	.L256
	call	_ZNSt16_Sp_counted_baseILN9__gnu_cxx12_Lock_policyE2EE10_M_releaseEv@PLT
.L256:
	movq	%rbp, %rdi
	call	_ZdlPv@PLT
	movq	%r12, %rdi
.LEHB6:
	call	_Unwind_Resume@PLT
.LEHE6:
.L269:
	movq	64(%rsp), %rax
	testq	%rax, %rax
	je	.L271
	leaq	48(%rsp), %rdi
	movl	$3, %edx
	movq	%rdi, %rsi
	call	*%rax
.L271:
	movq	%rbp, %rdi
	call	_ZNSt16_Sp_counted_baseILN9__gnu_cxx12_Lock_policyE2EE10_M_releaseEv@PLT
	movq	%r12, %rdi
.LEHB7:
	call	_Unwind_Resume@PLT
.LEHE7:
.L274:
	movq	64(%rsp), %rax
	testq	%rax, %rax
	je	.L275
	movl	$3, %edx
	movq	%r12, %rsi
	movq	%r12, %rdi
	call	*%rax
.L275:
	movq	%rbx, %r12
	jmp	.L271
.L291:
	movq	40(%rsp), %rdi
	testq	%rdi, %rdi
	je	.L271
	call	_ZNSt16_Sp_counted_baseILN9__gnu_cxx12_Lock_policyE2EE10_M_releaseEv@PLT
	jmp	.L271
	.cfi_endproc
.LFE7609:
	.section	.gcc_except_table
.LLSDAC7609:
	.byte	0xff
	.byte	0xff
	.byte	0x1
	.uleb128 .LLSDACSEC7609-.LLSDACSBC7609
.LLSDACSBC7609:
	.uleb128 .LEHB6-.LCOLDB25
	.uleb128 .LEHE6-.LEHB6
	.uleb128 0
	.uleb128 0
	.uleb128 .LEHB7-.LCOLDB25
	.uleb128 .LEHE7-.LEHB7
	.uleb128 0
	.uleb128 0
.LLSDACSEC7609:
	.section	.text.unlikely
	.text
	.size	_ZN8asiodnp315SerialIOHandler7TryOpenERKN7openpal12TimeDurationE, .-_ZN8asiodnp315SerialIOHandler7TryOpenERKN7openpal12TimeDurationE
	.section	.text.unlikely
	.size	_ZN8asiodnp315SerialIOHandler7TryOpenERKN7openpal12TimeDurationE.cold, .-_ZN8asiodnp315SerialIOHandler7TryOpenERKN7openpal12TimeDurationE.cold
.LCOLDE25:
	.text
.LHOTE25:
	.align 2
	.p2align 4
	.globl	_ZN8asiodnp315SerialIOHandler18BeginChannelAcceptEv
	.type	_ZN8asiodnp315SerialIOHandler18BeginChannelAcceptEv, @function
_ZN8asiodnp315SerialIOHandler18BeginChannelAcceptEv:
.LFB7606:
	.cfi_startproc
	endbr64
	leaq	816(%rdi), %rsi
	jmp	_ZN8asiodnp315SerialIOHandler7TryOpenERKN7openpal12TimeDurationE@PLT
	.cfi_endproc
.LFE7606:
	.size	_ZN8asiodnp315SerialIOHandler18BeginChannelAcceptEv, .-_ZN8asiodnp315SerialIOHandler18BeginChannelAcceptEv
	.align 2
	.p2align 4
	.globl	_ZN8asiodnp315SerialIOHandler17OnChannelShutdownEv
	.type	_ZN8asiodnp315SerialIOHandler17OnChannelShutdownEv, @function
_ZN8asiodnp315SerialIOHandler17OnChannelShutdownEv:
.LFB7608:
	.cfi_startproc
	endbr64
	jmp	_ZN8asiodnp315SerialIOHandler18BeginChannelAcceptEv@PLT
	.cfi_endproc
.LFE7608:
	.size	_ZN8asiodnp315SerialIOHandler17OnChannelShutdownEv, .-_ZN8asiodnp315SerialIOHandler17OnChannelShutdownEv
	.p2align 4
	.type	_ZNSt17_Function_handlerIFvvEZN7openpal8TimerRef5StartIZN8asiodnp315SerialIOHandler7TryOpenERKNS1_12TimeDurationEEUlvE_EEbS8_RKT_EUlvE_E9_M_invokeERKSt9_Any_data, @function
_ZNSt17_Function_handlerIFvvEZN7openpal8TimerRef5StartIZN8asiodnp315SerialIOHandler7TryOpenERKNS1_12TimeDurationEEUlvE_EEbS8_RKT_EUlvE_E9_M_invokeERKSt9_Any_data:
.LFB9230:
	.cfi_startproc
	endbr64
	pushq	%rbp
	.cfi_def_cfa_offset 16
	.cfi_offset 6, -16
	subq	$16, %rsp
	.cfi_def_cfa_offset 32
	movq	(%rdi), %rsi
	movq	%fs:40, %rax
	movq	%rax, 8(%rsp)
	xorl	%eax, %eax
	movq	8(%rsi), %rbp
	movq	(%rsi), %rax
	addq	$16, %rsi
	movq	832(%rbp), %rdi
	movq	$0, 8(%rax)
	leaq	824(%rbp), %rdx
	movq	(%rdi), %rax
	call	*16(%rax)
	movq	%rsp, %rsi
	movq	%rbp, %rdi
	movq	%rax, (%rsp)
	call	_ZN8asiodnp315SerialIOHandler7TryOpenERKN7openpal12TimeDurationE@PLT
	movq	8(%rsp), %rax
	xorq	%fs:40, %rax
	jne	.L345
	addq	$16, %rsp
	.cfi_remember_state
	.cfi_def_cfa_offset 16
	popq	%rbp
	.cfi_def_cfa_offset 8
	ret
.L345:
	.cfi_restore_state
	call	__stack_chk_fail@PLT
	.cfi_endproc
.LFE9230:
	.size	_ZNSt17_Function_handlerIFvvEZN7openpal8TimerRef5StartIZN8asiodnp315SerialIOHandler7TryOpenERKNS1_12TimeDurationEEUlvE_EEbS8_RKT_EUlvE_E9_M_invokeERKSt9_Any_data, .-_ZNSt17_Function_handlerIFvvEZN7openpal8TimerRef5StartIZN8asiodnp315SerialIOHandler7TryOpenERKNS1_12TimeDurationEEUlvE_EEbS8_RKT_EUlvE_E9_M_invokeERKSt9_Any_data
	.section	.text._ZNSt8_Rb_treeIPN8opendnp317IScheduleCallbackES2_St9_IdentityIS2_ESt4lessIS2_ESaIS2_EE8_M_eraseEPSt13_Rb_tree_nodeIS2_E,"axG",@progbits,_ZNSt8_Rb_treeIPN8opendnp317IScheduleCallbackES2_St9_IdentityIS2_ESt4lessIS2_ESaIS2_EE8_M_eraseEPSt13_Rb_tree_nodeIS2_E,comdat
	.align 2
	.p2align 4
	.weak	_ZNSt8_Rb_treeIPN8opendnp317IScheduleCallbackES2_St9_IdentityIS2_ESt4lessIS2_ESaIS2_EE8_M_eraseEPSt13_Rb_tree_nodeIS2_E
	.type	_ZNSt8_Rb_treeIPN8opendnp317IScheduleCallbackES2_St9_IdentityIS2_ESt4lessIS2_ESaIS2_EE8_M_eraseEPSt13_Rb_tree_nodeIS2_E, @function
_ZNSt8_Rb_treeIPN8opendnp317IScheduleCallbackES2_St9_IdentityIS2_ESt4lessIS2_ESaIS2_EE8_M_eraseEPSt13_Rb_tree_nodeIS2_E:
.LFB8863:
	.cfi_startproc
	endbr64
	testq	%rsi, %rsi
	je	.L354
	pushq	%rbp
	.cfi_def_cfa_offset 16
	.cfi_offset 6, -16
	movq	%rdi, %rbp
	pushq	%rbx
	.cfi_def_cfa_offset 24
	.cfi_offset 3, -24
	movq	%rsi, %rbx
	subq	$8, %rsp
	.cfi_def_cfa_offset 32
.L348:
	movq	24(%rbx), %rsi
	movq	%rbp, %rdi
	call	_ZNSt8_Rb_treeIPN8opendnp317IScheduleCallbackES2_St9_IdentityIS2_ESt4lessIS2_ESaIS2_EE8_M_eraseEPSt13_Rb_tree_nodeIS2_E@PLT
	movq	%rbx, %rdi
	movq	16(%rbx), %rbx
	call	_ZdlPv@PLT
	testq	%rbx, %rbx
	jne	.L348
	addq	$8, %rsp
	.cfi_def_cfa_offset 24
	popq	%rbx
	.cfi_def_cfa_offset 16
	popq	%rbp
	.cfi_def_cfa_offset 8
	ret
	.p2align 4,,10
	.p2align 3
.L354:
	.cfi_restore 3
	.cfi_restore 6
	ret
	.cfi_endproc
.LFE8863:
	.size	_ZNSt8_Rb_treeIPN8opendnp317IScheduleCallbackES2_St9_IdentityIS2_ESt4lessIS2_ESaIS2_EE8_M_eraseEPSt13_Rb_tree_nodeIS2_E, .-_ZNSt8_Rb_treeIPN8opendnp317IScheduleCallbackES2_St9_IdentityIS2_ESt4lessIS2_ESaIS2_EE8_M_eraseEPSt13_Rb_tree_nodeIS2_E
	.section	.text._ZN8asiodnp39IOHandlerD2Ev,"axG",@progbits,_ZN8asiodnp39IOHandlerD5Ev,comdat
	.align 2
	.p2align 4
	.weak	_ZN8asiodnp39IOHandlerD2Ev
	.type	_ZN8asiodnp39IOHandlerD2Ev, @function
_ZN8asiodnp39IOHandlerD2Ev:
.LFB7526:
	.cfi_startproc
	endbr64
	pushq	%r15
	.cfi_def_cfa_offset 16
	.cfi_offset 15, -16
	pushq	%r14
	.cfi_def_cfa_offset 24
	.cfi_offset 14, -24
	pushq	%r13
	.cfi_def_cfa_offset 32
	.cfi_offset 13, -32
	pushq	%r12
	.cfi_def_cfa_offset 40
	.cfi_offset 12, -40
	pushq	%rbp
	.cfi_def_cfa_offset 48
	.cfi_offset 6, -48
	pushq	%rbx
	.cfi_def_cfa_offset 56
	.cfi_offset 3, -56
	movq	%rdi, %rbx
	subq	$56, %rsp
	.cfi_def_cfa_offset 112
	movq	_ZTVN8asiodnp39IOHandlerE@GOTPCREL(%rip), %rax
	leaq	104(%rax), %rdx
	addq	$16, %rax
	movq	%rax, %xmm0
	movq	_ZTVN8opendnp317MultidropTaskLockE@GOTPCREL(%rip), %rax
	movq	%rdx, %xmm1
	punpcklqdq	%xmm1, %xmm0
	addq	$16, %rax
	movups	%xmm0, (%rdi)
	movq	%rax, 648(%rdi)
	movq	712(%rdi), %rdi
	testq	%rdi, %rdi
	je	.L358
	movq	784(%rbx), %rax
	movq	752(%rbx), %rbp
	leaq	8(%rax), %r12
	cmpq	%rbp, %r12
	jbe	.L359
	.p2align 4,,10
	.p2align 3
.L360:
	movq	0(%rbp), %rdi
	addq	$8, %rbp
	call	_ZdlPv@PLT
	cmpq	%rbp, %r12
	ja	.L360
	movq	712(%rbx), %rdi
.L359:
	call	_ZdlPv@PLT
.L358:
	movq	680(%rbx), %rbp
	leaq	664(%rbx), %r12
	testq	%rbp, %rbp
	je	.L364
.L361:
	movq	24(%rbp), %rsi
	movq	%r12, %rdi
	call	_ZNSt8_Rb_treeIPN8opendnp317IScheduleCallbackES2_St9_IdentityIS2_ESt4lessIS2_ESaIS2_EE8_M_eraseEPSt13_Rb_tree_nodeIS2_E@PLT
	movq	%rbp, %rdi
	movq	16(%rbp), %rbp
	call	_ZdlPv@PLT
	testq	%rbp, %rbp
	jne	.L361
.L364:
	movq	640(%rbx), %rbp
	testq	%rbp, %rbp
	je	.L365
	movq	_ZL28__gthrw___pthread_key_createPjPFvPvE@GOTPCREL(%rip), %r12
	testq	%r12, %r12
	je	.L366
	movl	$-1, %eax
	lock xaddl	%eax, 8(%rbp)
	cmpl	$1, %eax
	je	.L498
	.p2align 4,,10
	.p2align 3
.L365:
	movq	240(%rbx), %rbp
	testq	%rbp, %rbp
	je	.L371
	movq	_ZL28__gthrw___pthread_key_createPjPFvPvE@GOTPCREL(%rip), %r12
	testq	%r12, %r12
	je	.L372
	movl	$-1, %eax
	lock xaddl	%eax, 8(%rbp)
	cmpl	$1, %eax
	je	.L499
	.p2align 4,,10
	.p2align 3
.L371:
	movq	224(%rbx), %rbp
	testq	%rbp, %rbp
	je	.L378
	movq	_ZL28__gthrw___pthread_key_createPjPFvPvE@GOTPCREL(%rip), %r12
	testq	%r12, %r12
	je	.L379
	movl	$-1, %eax
	lock xaddl	%eax, 8(%rbp)
	cmpl	$1, %eax
	je	.L500
	.p2align 4,,10
	.p2align 3
.L378:
	movq	168(%rbx), %rsi
	movq	184(%rbx), %rax
	movq	192(%rbx), %rbp
	movq	152(%rbx), %r15
	movq	%rsi, 8(%rsp)
	movq	176(%rbx), %rsi
	movq	%rax, (%rsp)
	movq	208(%rbx), %rax
	leaq	8(%rsi), %r14
	movq	%rsi, 32(%rsp)
	movq	%rax, 16(%rsp)
	cmpq	%r14, %rax
	jbe	.L398
	movq	_ZL28__gthrw___pthread_key_createPjPFvPvE@GOTPCREL(%rip), %r12
	.p2align 4,,10
	.p2align 3
.L384:
	movq	(%r14), %r13
	leaq	512(%r13), %rax
	movq	%rax, 24(%rsp)
	testq	%r12, %r12
	jne	.L397
	jmp	.L393
	.p2align 4,,10
	.p2align 3
.L395:
	addq	$32, %r13
	cmpq	%r13, 24(%rsp)
	je	.L392
.L397:
	movq	24(%r13), %rdi
	testq	%rdi, %rdi
	je	.L395
	lock subl	$1, 8(%rdi)
	jne	.L395
	movq	(%rdi), %rcx
	movq	%rdi, 40(%rsp)
	call	*16(%rcx)
	movq	40(%rsp), %rdi
	movl	$-1, %ecx
	lock xaddl	%ecx, 12(%rdi)
	cmpl	$1, %ecx
	jne	.L395
	movq	(%rdi), %rcx
	addq	$32, %r13
	call	*24(%rcx)
	cmpq	%r13, 24(%rsp)
	jne	.L397
	.p2align 4,,10
	.p2align 3
.L392:
	addq	$8, %r14
	cmpq	%r14, 16(%rsp)
	ja	.L384
.L398:
	movq	32(%rsp), %rsi
	cmpq	%rsi, 16(%rsp)
	je	.L501
	cmpq	8(%rsp), %r15
	je	.L408
	cmpq	$0, _ZL28__gthrw___pthread_key_createPjPFvPvE@GOTPCREL(%rip)
	je	.L409
	movq	24(%r15), %r12
	testq	%r12, %r12
	jne	.L502
	.p2align 4,,10
	.p2align 3
.L411:
	addq	$32, %r15
	cmpq	%r15, 8(%rsp)
	je	.L408
.L403:
	movq	24(%r15), %r12
	testq	%r12, %r12
	je	.L411
.L502:
	lock subl	$1, 8(%r12)
	jne	.L411
	movq	(%r12), %rdx
	movq	%r12, %rdi
	call	*16(%rdx)
	lock subl	$1, 12(%r12)
	jne	.L411
	movq	(%r12), %rdx
	movq	%r12, %rdi
	addq	$32, %r15
	call	*24(%rdx)
	cmpq	%r15, 8(%rsp)
	jne	.L403
	.p2align 4,,10
	.p2align 3
.L408:
	cmpq	%rbp, (%rsp)
	je	.L418
	cmpq	$0, _ZL28__gthrw___pthread_key_createPjPFvPvE@GOTPCREL(%rip)
	je	.L419
	movq	24(%rbp), %r12
	testq	%r12, %r12
	jne	.L503
	.p2align 4,,10
	.p2align 3
.L421:
	addq	$32, %rbp
	cmpq	%rbp, (%rsp)
	je	.L418
.L413:
	movq	24(%rbp), %r12
	testq	%r12, %r12
	je	.L421
.L503:
	lock subl	$1, 8(%r12)
	jne	.L421
	movq	(%r12), %rax
	movq	%r12, %rdi
	call	*16(%rax)
	lock subl	$1, 12(%r12)
	jne	.L421
	movq	(%r12), %rax
	movq	%r12, %rdi
	addq	$32, %rbp
	call	*24(%rax)
	cmpq	%rbp, (%rsp)
	jne	.L413
	.p2align 4,,10
	.p2align 3
.L418:
	movq	136(%rbx), %rdi
	testq	%rdi, %rdi
	je	.L402
	movq	208(%rbx), %rax
	movq	176(%rbx), %rbp
	leaq	8(%rax), %r12
	cmpq	%rbp, %r12
	jbe	.L432
	.p2align 4,,10
	.p2align 3
.L433:
	movq	0(%rbp), %rdi
	addq	$8, %rbp
	call	_ZdlPv@PLT
	cmpq	%rbp, %r12
	ja	.L433
	movq	136(%rbx), %rdi
.L432:
	call	_ZdlPv@PLT
.L402:
	movq	120(%rbx), %r13
	movq	112(%rbx), %rbp
	cmpq	%rbp, %r13
	je	.L434
	cmpq	$0, _ZL28__gthrw___pthread_key_createPjPFvPvE@GOTPCREL(%rip)
	je	.L441
	movq	16(%rbp), %r12
	testq	%r12, %r12
	jne	.L504
	.p2align 4,,10
	.p2align 3
.L443:
	addq	$24, %rbp
	cmpq	%rbp, %r13
	je	.L440
.L435:
	movq	16(%rbp), %r12
	testq	%r12, %r12
	je	.L443
.L504:
	lock subl	$1, 8(%r12)
	jne	.L443
	movq	(%r12), %rax
	movq	%r12, %rdi
	call	*16(%rax)
	lock subl	$1, 12(%r12)
	jne	.L443
	movq	(%r12), %rax
	addq	$24, %rbp
	movq	%r12, %rdi
	call	*24(%rax)
	cmpq	%rbp, %r13
	jne	.L435
	.p2align 4,,10
	.p2align 3
.L440:
	movq	112(%rbx), %rbp
.L434:
	testq	%rbp, %rbp
	je	.L445
	movq	%rbp, %rdi
	call	_ZdlPv@PLT
.L445:
	movq	72(%rbx), %rbp
	testq	%rbp, %rbp
	je	.L447
	movq	_ZL28__gthrw___pthread_key_createPjPFvPvE@GOTPCREL(%rip), %r12
	testq	%r12, %r12
	je	.L448
	movl	$-1, %eax
	lock xaddl	%eax, 8(%rbp)
	cmpl	$1, %eax
	je	.L505
	.p2align 4,,10
	.p2align 3
.L447:
	movq	56(%rbx), %rbp
	testq	%rbp, %rbp
	je	.L454
	movq	_ZL28__gthrw___pthread_key_createPjPFvPvE@GOTPCREL(%rip), %r12
	testq	%r12, %r12
	je	.L455
	movl	$-1, %eax
	lock xaddl	%eax, 8(%rbp)
	cmpl	$1, %eax
	je	.L506
	.p2align 4,,10
	.p2align 3
.L454:
	movq	40(%rbx), %rbp
	testq	%rbp, %rbp
	je	.L461
	movq	_ZL28__gthrw___pthread_key_createPjPFvPvE@GOTPCREL(%rip), %r12
	testq	%r12, %r12
	je	.L462
	movl	$-1, %eax
	lock xaddl	%eax, 8(%rbp)
	cmpl	$1, %eax
	je	.L507
	.p2align 4,,10
	.p2align 3
.L461:
	movq	24(%rbx), %rdi
	testq	%rdi, %rdi
	je	.L357
	cmpq	$0, _ZL28__gthrw___pthread_key_createPjPFvPvE@GOTPCREL(%rip)
	je	.L469
	movl	$-1, %eax
	lock xaddl	%eax, 12(%rdi)
	cmpl	$1, %eax
	je	.L508
.L357:
	addq	$56, %rsp
	.cfi_remember_state
	.cfi_def_cfa_offset 56
	popq	%rbx
	.cfi_def_cfa_offset 48
	popq	%rbp
	.cfi_def_cfa_offset 40
	popq	%r12
	.cfi_def_cfa_offset 32
	popq	%r13
	.cfi_def_cfa_offset 24
	popq	%r14
	.cfi_def_cfa_offset 16
	popq	%r15
	.cfi_def_cfa_offset 8
	ret
	.p2align 4,,10
	.p2align 3
.L391:
	.cfi_restore_state
	movq	(%rdi), %rcx
	movq	%rdi, 40(%rsp)
	call	*16(%rcx)
	movq	40(%rsp), %rdi
	movl	12(%rdi), %ecx
	leal	-1(%rcx), %esi
	movl	%esi, 12(%rdi)
	cmpl	$1, %ecx
	jne	.L390
	movq	(%rdi), %rcx
	call	*24(%rcx)
	.p2align 4,,10
	.p2align 3
.L390:
	addq	$32, %r13
	cmpq	%r13, 24(%rsp)
	je	.L392
.L393:
	movq	24(%r13), %rdi
	testq	%rdi, %rdi
	je	.L390
	movl	8(%rdi), %ecx
	leal	-1(%rcx), %esi
	movl	%esi, 8(%rdi)
	cmpl	$1, %ecx
	jne	.L390
	jmp	.L391
	.p2align 4,,10
	.p2align 3
.L407:
	movq	(%r12), %rdx
	movq	%r12, %rdi
	call	*16(%rdx)
	movl	12(%r12), %edx
	leal	-1(%rdx), %ecx
	movl	%ecx, 12(%r12)
	cmpl	$1, %edx
	jne	.L406
	movq	(%r12), %rdx
	movq	%r12, %rdi
	call	*24(%rdx)
	.p2align 4,,10
	.p2align 3
.L406:
	addq	$32, %r15
	cmpq	%r15, 8(%rsp)
	je	.L408
.L409:
	movq	24(%r15), %r12
	testq	%r12, %r12
	je	.L406
	movl	8(%r12), %edx
	leal	-1(%rdx), %ecx
	movl	%ecx, 8(%r12)
	cmpl	$1, %edx
	jne	.L406
	jmp	.L407
	.p2align 4,,10
	.p2align 3
.L417:
	movq	(%r12), %rax
	movq	%r12, %rdi
	call	*16(%rax)
	movl	12(%r12), %eax
	leal	-1(%rax), %edx
	movl	%edx, 12(%r12)
	cmpl	$1, %eax
	jne	.L416
	movq	(%r12), %rax
	movq	%r12, %rdi
	call	*24(%rax)
	.p2align 4,,10
	.p2align 3
.L416:
	addq	$32, %rbp
	cmpq	%rbp, (%rsp)
	je	.L418
.L419:
	movq	24(%rbp), %r12
	testq	%r12, %r12
	je	.L416
	movl	8(%r12), %eax
	leal	-1(%rax), %edx
	movl	%edx, 8(%r12)
	cmpl	$1, %eax
	jne	.L416
	jmp	.L417
	.p2align 4,,10
	.p2align 3
.L439:
	movq	(%r12), %rax
	movq	%r12, %rdi
	call	*16(%rax)
	movl	12(%r12), %eax
	leal	-1(%rax), %edx
	movl	%edx, 12(%r12)
	cmpl	$1, %eax
	jne	.L438
	movq	(%r12), %rax
	movq	%r12, %rdi
	call	*24(%rax)
	.p2align 4,,10
	.p2align 3
.L438:
	addq	$24, %rbp
	cmpq	%rbp, %r13
	je	.L440
.L441:
	movq	16(%rbp), %r12
	testq	%r12, %r12
	je	.L438
	movl	8(%r12), %eax
	leal	-1(%rax), %edx
	movl	%edx, 8(%r12)
	cmpl	$1, %eax
	jne	.L438
	jmp	.L439
	.p2align 4,,10
	.p2align 3
.L448:
	movl	8(%rbp), %eax
	leal	-1(%rax), %edx
	movl	%edx, 8(%rbp)
	cmpl	$1, %eax
	jne	.L447
.L505:
	movq	0(%rbp), %rax
	movq	%rbp, %rdi
	call	*16(%rax)
	testq	%r12, %r12
	je	.L451
	movl	$-1, %eax
	lock xaddl	%eax, 12(%rbp)
.L452:
	cmpl	$1, %eax
	jne	.L447
	movq	0(%rbp), %rax
	movq	%rbp, %rdi
	call	*24(%rax)
	jmp	.L447
	.p2align 4,,10
	.p2align 3
.L379:
	movl	8(%rbp), %eax
	leal	-1(%rax), %edx
	movl	%edx, 8(%rbp)
	cmpl	$1, %eax
	jne	.L378
.L500:
	movq	0(%rbp), %rax
	movq	%rbp, %rdi
	call	*16(%rax)
	testq	%r12, %r12
	je	.L382
	movl	$-1, %eax
	lock xaddl	%eax, 12(%rbp)
.L383:
	cmpl	$1, %eax
	jne	.L378
	movq	0(%rbp), %rax
	movq	%rbp, %rdi
	call	*24(%rax)
	jmp	.L378
	.p2align 4,,10
	.p2align 3
.L372:
	movl	8(%rbp), %eax
	leal	-1(%rax), %edx
	movl	%edx, 8(%rbp)
	cmpl	$1, %eax
	jne	.L371
.L499:
	movq	0(%rbp), %rax
	movq	%rbp, %rdi
	call	*16(%rax)
	testq	%r12, %r12
	je	.L375
	movl	$-1, %eax
	lock xaddl	%eax, 12(%rbp)
.L376:
	cmpl	$1, %eax
	jne	.L371
	movq	0(%rbp), %rax
	movq	%rbp, %rdi
	call	*24(%rax)
	jmp	.L371
	.p2align 4,,10
	.p2align 3
.L366:
	movl	8(%rbp), %eax
	leal	-1(%rax), %edx
	movl	%edx, 8(%rbp)
	cmpl	$1, %eax
	jne	.L365
.L498:
	movq	0(%rbp), %rax
	movq	%rbp, %rdi
	call	*16(%rax)
	testq	%r12, %r12
	je	.L368
	movl	$-1, %eax
	lock xaddl	%eax, 12(%rbp)
.L369:
	cmpl	$1, %eax
	jne	.L365
	movq	0(%rbp), %rax
	movq	%rbp, %rdi
	call	*24(%rax)
	jmp	.L365
	.p2align 4,,10
	.p2align 3
.L469:
	movl	12(%rdi), %eax
	leal	-1(%rax), %edx
	movl	%edx, 12(%rdi)
	cmpl	$1, %eax
	jne	.L357
.L508:
	movq	(%rdi), %rax
	movq	24(%rax), %rax
	addq	$56, %rsp
	.cfi_remember_state
	.cfi_def_cfa_offset 56
	popq	%rbx
	.cfi_def_cfa_offset 48
	popq	%rbp
	.cfi_def_cfa_offset 40
	popq	%r12
	.cfi_def_cfa_offset 32
	popq	%r13
	.cfi_def_cfa_offset 24
	popq	%r14
	.cfi_def_cfa_offset 16
	popq	%r15
	.cfi_def_cfa_offset 8
	jmp	*%rax
	.p2align 4,,10
	.p2align 3
.L462:
	.cfi_restore_state
	movl	8(%rbp), %eax
	leal	-1(%rax), %edx
	movl	%edx, 8(%rbp)
	cmpl	$1, %eax
	jne	.L461
.L507:
	movq	0(%rbp), %rax
	movq	%rbp, %rdi
	call	*16(%rax)
	testq	%r12, %r12
	je	.L465
	movl	$-1, %eax
	lock xaddl	%eax, 12(%rbp)
.L466:
	cmpl	$1, %eax
	jne	.L461
	movq	0(%rbp), %rax
	movq	%rbp, %rdi
	call	*24(%rax)
	jmp	.L461
	.p2align 4,,10
	.p2align 3
.L455:
	movl	8(%rbp), %eax
	leal	-1(%rax), %edx
	movl	%edx, 8(%rbp)
	cmpl	$1, %eax
	jne	.L454
.L506:
	movq	0(%rbp), %rax
	movq	%rbp, %rdi
	call	*16(%rax)
	testq	%r12, %r12
	je	.L458
	movl	$-1, %eax
	lock xaddl	%eax, 12(%rbp)
.L459:
	cmpl	$1, %eax
	jne	.L454
	movq	0(%rbp), %rax
	movq	%rbp, %rdi
	call	*24(%rax)
	jmp	.L454
	.p2align 4,,10
	.p2align 3
.L501:
	cmpq	%r15, (%rsp)
	je	.L418
	cmpq	$0, _ZL28__gthrw___pthread_key_createPjPFvPvE@GOTPCREL(%rip)
	je	.L428
	movq	24(%r15), %rbp
	testq	%rbp, %rbp
	jne	.L509
	.p2align 4,,10
	.p2align 3
.L430:
	addq	$32, %r15
	cmpq	%r15, (%rsp)
	je	.L418
	movq	24(%r15), %rbp
	testq	%rbp, %rbp
	je	.L430
.L509:
	lock subl	$1, 8(%rbp)
	jne	.L430
	movq	0(%rbp), %rdx
	movq	%rbp, %rdi
	call	*16(%rdx)
	lock subl	$1, 12(%rbp)
	jne	.L430
	movq	0(%rbp), %rdx
	movq	%rbp, %rdi
	call	*24(%rdx)
	jmp	.L430
	.p2align 4,,10
	.p2align 3
.L427:
	movq	0(%rbp), %rdx
	movq	%rbp, %rdi
	call	*16(%rdx)
	movl	12(%rbp), %edx
	leal	-1(%rdx), %ecx
	movl	%ecx, 12(%rbp)
	cmpl	$1, %edx
	jne	.L426
	movq	0(%rbp), %rdx
	movq	%rbp, %rdi
	call	*24(%rdx)
	.p2align 4,,10
	.p2align 3
.L426:
	addq	$32, %r15
	cmpq	%r15, (%rsp)
	je	.L418
.L428:
	movq	24(%r15), %rbp
	testq	%rbp, %rbp
	je	.L426
	movl	8(%rbp), %edx
	leal	-1(%rdx), %ecx
	movl	%ecx, 8(%rbp)
	cmpl	$1, %edx
	jne	.L426
	jmp	.L427
	.p2align 4,,10
	.p2align 3
.L368:
	movl	12(%rbp), %eax
	leal	-1(%rax), %edx
	movl	%edx, 12(%rbp)
	jmp	.L369
	.p2align 4,,10
	.p2align 3
.L382:
	movl	12(%rbp), %eax
	leal	-1(%rax), %edx
	movl	%edx, 12(%rbp)
	jmp	.L383
	.p2align 4,,10
	.p2align 3
.L451:
	movl	12(%rbp), %eax
	leal	-1(%rax), %edx
	movl	%edx, 12(%rbp)
	jmp	.L452
	.p2align 4,,10
	.p2align 3
.L375:
	movl	12(%rbp), %eax
	leal	-1(%rax), %edx
	movl	%edx, 12(%rbp)
	jmp	.L376
	.p2align 4,,10
	.p2align 3
.L458:
	movl	12(%rbp), %eax
	leal	-1(%rax), %edx
	movl	%edx, 12(%rbp)
	jmp	.L459
	.p2align 4,,10
	.p2align 3
.L465:
	movl	12(%rbp), %eax
	leal	-1(%rax), %edx
	movl	%edx, 12(%rbp)
	jmp	.L466
	.cfi_endproc
.LFE7526:
	.size	_ZN8asiodnp39IOHandlerD2Ev, .-_ZN8asiodnp39IOHandlerD2Ev
	.set	.LTHUNK0,_ZN8asiodnp39IOHandlerD2Ev
	.p2align 4
	.weak	_ZThn8_N8asiodnp39IOHandlerD1Ev
	.type	_ZThn8_N8asiodnp39IOHandlerD1Ev, @function
_ZThn8_N8asiodnp39IOHandlerD1Ev:
.LFB10365:
	.cfi_startproc
	endbr64
	subq	$8, %rdi
	jmp	.LTHUNK0
	.cfi_endproc
.LFE10365:
	.size	_ZThn8_N8asiodnp39IOHandlerD1Ev, .-_ZThn8_N8asiodnp39IOHandlerD1Ev
	.weak	_ZN8asiodnp39IOHandlerD1Ev
	.set	_ZN8asiodnp39IOHandlerD1Ev,_ZN8asiodnp39IOHandlerD2Ev
	.section	.text._ZN8asiodnp39IOHandlerD0Ev,"axG",@progbits,_ZN8asiodnp39IOHandlerD5Ev,comdat
	.align 2
	.p2align 4
	.weak	_ZN8asiodnp39IOHandlerD0Ev
	.type	_ZN8asiodnp39IOHandlerD0Ev, @function
_ZN8asiodnp39IOHandlerD0Ev:
.LFB7528:
	.cfi_startproc
	endbr64
	pushq	%rbp
	.cfi_def_cfa_offset 16
	.cfi_offset 6, -16
	movq	%rdi, %rbp
	call	_ZN8asiodnp39IOHandlerD1Ev@PLT
	movq	%rbp, %rdi
	movl	$800, %esi
	popq	%rbp
	.cfi_def_cfa_offset 8
	jmp	_ZdlPvm@PLT
	.cfi_endproc
.LFE7528:
	.size	_ZN8asiodnp39IOHandlerD0Ev, .-_ZN8asiodnp39IOHandlerD0Ev
	.p2align 4
	.weak	_ZThn8_N8asiodnp39IOHandlerD0Ev
	.type	_ZThn8_N8asiodnp39IOHandlerD0Ev, @function
_ZThn8_N8asiodnp39IOHandlerD0Ev:
.LFB10358:
	.cfi_startproc
	endbr64
	pushq	%rbp
	.cfi_def_cfa_offset 16
	.cfi_offset 6, -16
	leaq	-8(%rdi), %rbp
	movq	%rbp, %rdi
	call	_ZN8asiodnp39IOHandlerD1Ev@PLT
	movq	%rbp, %rdi
	movl	$800, %esi
	popq	%rbp
	.cfi_def_cfa_offset 8
	jmp	_ZdlPvm@PLT
	.cfi_endproc
.LFE10358:
	.size	_ZThn8_N8asiodnp39IOHandlerD0Ev, .-_ZThn8_N8asiodnp39IOHandlerD0Ev
	.section	.text.unlikely
	.align 2
.LCOLDB26:
	.text
.LHOTB26:
	.align 2
	.p2align 4
	.globl	_ZN8asiodnp315SerialIOHandlerC2ERKN7openpal6LoggerERKSt10shared_ptrINS_16IChannelListenerEERKS5_IN7asiopal8ExecutorEERKNSA_12ChannelRetryERKNSA_14SerialSettingsE
	.type	_ZN8asiodnp315SerialIOHandlerC2ERKN7openpal6LoggerERKSt10shared_ptrINS_16IChannelListenerEERKS5_IN7asiopal8ExecutorEERKNSA_12ChannelRetryERKNSA_14SerialSettingsE, @function
_ZN8asiodnp315SerialIOHandlerC2ERKN7openpal6LoggerERKSt10shared_ptrINS_16IChannelListenerEERKS5_IN7asiopal8ExecutorEERKNSA_12ChannelRetryERKNSA_14SerialSettingsE:
.LFB7603:
	.cfi_startproc
	.cfi_personality 0x9b,DW.ref.__gxx_personality_v0
	.cfi_lsda 0x1b,.LLSDA7603
	endbr64
	pushq	%r15
	.cfi_def_cfa_offset 16
	.cfi_offset 15, -16
	pushq	%r14
	.cfi_def_cfa_offset 24
	.cfi_offset 14, -24
	pushq	%r13
	.cfi_def_cfa_offset 32
	.cfi_offset 13, -32
	movq	%rcx, %r13
	pushq	%r12
	.cfi_def_cfa_offset 40
	.cfi_offset 12, -40
	movq	%r8, %r12
	pushq	%rbp
	.cfi_def_cfa_offset 48
	.cfi_offset 6, -48
	movq	%rdi, %rbp
	pushq	%rbx
	.cfi_def_cfa_offset 56
	.cfi_offset 3, -56
	movq	%r9, %rbx
	subq	$40, %rsp
	.cfi_def_cfa_offset 96
	movq	%fs:40, %rax
	movq	%rax, 24(%rsp)
	xorl	%eax, %eax
	movq	_ZTVN8asiodnp315SerialIOHandlerE@GOTPCREL(%rip), %rax
	leaq	104(%rax), %rcx
	addq	$16, %rax
	movq	%rax, %xmm0
	movq	%rcx, %xmm1
	punpcklqdq	%xmm1, %xmm0
	movaps	%xmm0, (%rsp)
.LEHB8:
	call	_ZN8asiodnp39IOHandlerC2ERKN7openpal6LoggerERKSt10shared_ptrINS_16IChannelListenerEE@PLT
.LEHE8:
	movq	0(%r13), %rax
	movdqa	(%rsp), %xmm0
	movq	%rax, 800(%rbp)
	movq	8(%r13), %rax
	movups	%xmm0, 0(%rbp)
	movq	%rax, 808(%rbp)
	testq	%rax, %rax
	je	.L515
	cmpq	$0, _ZL28__gthrw___pthread_key_createPjPFvPvE@GOTPCREL(%rip)
	je	.L516
	lock addl	$1, 8(%rax)
.L515:
	movq	16(%r12), %rax
	movdqu	(%r12), %xmm2
	leaq	856(%rbp), %r15
	movq	%r15, 840(%rbp)
	movq	(%rbx), %r14
	movq	%rax, 832(%rbp)
	movups	%xmm2, 816(%rbp)
	movq	8(%rbx), %r12
	movq	%r14, %rax
	addq	%r12, %rax
	je	.L517
	testq	%r14, %r14
	je	.L544
.L517:
	movq	%r12, 16(%rsp)
	cmpq	$15, %r12
	ja	.L545
	cmpq	$1, %r12
	jne	.L520
	movzbl	(%r14), %eax
	movb	%al, 856(%rbp)
	movq	%r15, %rax
.L521:
	movq	%r12, 848(%rbp)
	leaq	896(%rbp), %rdi
	movb	$0, (%rax,%r12)
	movzbl	42(%rbx), %eax
	movq	32(%rbx), %rdx
	movb	%al, 882(%rbp)
	movq	48(%rbx), %rax
	movq	%rdx, 872(%rbp)
	movzwl	40(%rbx), %edx
	movq	%rax, 888(%rbp)
	movw	%dx, 880(%rbp)
	movq	0(%r13), %rsi
.LEHB9:
	call	_ZN7openpal8TimerRefC1ERNS_9IExecutorE@PLT
.LEHE9:
	movq	24(%rsp), %rax
	xorq	%fs:40, %rax
	jne	.L546
	addq	$40, %rsp
	.cfi_remember_state
	.cfi_def_cfa_offset 56
	popq	%rbx
	.cfi_def_cfa_offset 48
	popq	%rbp
	.cfi_def_cfa_offset 40
	popq	%r12
	.cfi_def_cfa_offset 32
	popq	%r13
	.cfi_def_cfa_offset 24
	popq	%r14
	.cfi_def_cfa_offset 16
	popq	%r15
	.cfi_def_cfa_offset 8
	ret
	.p2align 4,,10
	.p2align 3
.L520:
	.cfi_restore_state
	testq	%r12, %r12
	jne	.L547
	movq	%r15, %rax
	jmp	.L521
	.p2align 4,,10
	.p2align 3
.L516:
	addl	$1, 8(%rax)
	jmp	.L515
	.p2align 4,,10
	.p2align 3
.L545:
	leaq	16(%rsp), %rsi
	leaq	840(%rbp), %rdi
	xorl	%edx, %edx
.LEHB10:
	call	_ZNSt7__cxx1112basic_stringIcSt11char_traitsIcESaIcEE9_M_createERmm@PLT
	movq	%rax, 840(%rbp)
	movq	%rax, %rdi
	movq	16(%rsp), %rax
	movq	%rax, 856(%rbp)
.L519:
	movq	%r12, %rdx
	movq	%r14, %rsi
	call	memcpy@PLT
	movq	16(%rsp), %r12
	movq	840(%rbp), %rax
	jmp	.L521
.L544:
	leaq	.LC4(%rip), %rdi
	call	_ZSt19__throw_logic_errorPKc@PLT
.LEHE10:
.L546:
	call	__stack_chk_fail@PLT
.L547:
	movq	%r15, %rdi
	jmp	.L519
.L528:
	endbr64
	movq	%rax, %r12
	jmp	.L524
.L529:
	endbr64
	movq	%rax, %r12
	jmp	.L522
	.section	.gcc_except_table
.LLSDA7603:
	.byte	0xff
	.byte	0xff
	.byte	0x1
	.uleb128 .LLSDACSE7603-.LLSDACSB7603
.LLSDACSB7603:
	.uleb128 .LEHB8-.LFB7603
	.uleb128 .LEHE8-.LEHB8
	.uleb128 0
	.uleb128 0
	.uleb128 .LEHB9-.LFB7603
	.uleb128 .LEHE9-.LEHB9
	.uleb128 .L529-.LFB7603
	.uleb128 0
	.uleb128 .LEHB10-.LFB7603
	.uleb128 .LEHE10-.LEHB10
	.uleb128 .L528-.LFB7603
	.uleb128 0
.LLSDACSE7603:
	.text
	.cfi_endproc
	.section	.text.unlikely
	.cfi_startproc
	.cfi_personality 0x9b,DW.ref.__gxx_personality_v0
	.cfi_lsda 0x1b,.LLSDAC7603
	.type	_ZN8asiodnp315SerialIOHandlerC2ERKN7openpal6LoggerERKSt10shared_ptrINS_16IChannelListenerEERKS5_IN7asiopal8ExecutorEERKNSA_12ChannelRetryERKNSA_14SerialSettingsE.cold, @function
_ZN8asiodnp315SerialIOHandlerC2ERKN7openpal6LoggerERKSt10shared_ptrINS_16IChannelListenerEERKS5_IN7asiopal8ExecutorEERKNSA_12ChannelRetryERKNSA_14SerialSettingsE.cold:
.LFSB7603:
.L522:
	.cfi_def_cfa_offset 96
	.cfi_offset 3, -56
	.cfi_offset 6, -48
	.cfi_offset 12, -40
	.cfi_offset 13, -32
	.cfi_offset 14, -24
	.cfi_offset 15, -16
	movq	840(%rbp), %rdi
	cmpq	%r15, %rdi
	je	.L524
	call	_ZdlPv@PLT
.L524:
	movq	808(%rbp), %rdi
	testq	%rdi, %rdi
	je	.L525
	call	_ZNSt16_Sp_counted_baseILN9__gnu_cxx12_Lock_policyE2EE10_M_releaseEv@PLT
.L525:
	movq	%rbp, %rdi
	call	_ZN8asiodnp39IOHandlerD2Ev@PLT
	movq	%r12, %rdi
.LEHB11:
	call	_Unwind_Resume@PLT
.LEHE11:
	.cfi_endproc
.LFE7603:
	.section	.gcc_except_table
.LLSDAC7603:
	.byte	0xff
	.byte	0xff
	.byte	0x1
	.uleb128 .LLSDACSEC7603-.LLSDACSBC7603
.LLSDACSBC7603:
	.uleb128 .LEHB11-.LCOLDB26
	.uleb128 .LEHE11-.LEHB11
	.uleb128 0
	.uleb128 0
.LLSDACSEC7603:
	.section	.text.unlikely
	.text
	.size	_ZN8asiodnp315SerialIOHandlerC2ERKN7openpal6LoggerERKSt10shared_ptrINS_16IChannelListenerEERKS5_IN7asiopal8ExecutorEERKNSA_12ChannelRetryERKNSA_14SerialSettingsE, .-_ZN8asiodnp315SerialIOHandlerC2ERKN7openpal6LoggerERKSt10shared_ptrINS_16IChannelListenerEERKS5_IN7asiopal8ExecutorEERKNSA_12ChannelRetryERKNSA_14SerialSettingsE
	.section	.text.unlikely
	.size	_ZN8asiodnp315SerialIOHandlerC2ERKN7openpal6LoggerERKSt10shared_ptrINS_16IChannelListenerEERKS5_IN7asiopal8ExecutorEERKNSA_12ChannelRetryERKNSA_14SerialSettingsE.cold, .-_ZN8asiodnp315SerialIOHandlerC2ERKN7openpal6LoggerERKSt10shared_ptrINS_16IChannelListenerEERKS5_IN7asiopal8ExecutorEERKNSA_12ChannelRetryERKNSA_14SerialSettingsE.cold
.LCOLDE26:
	.text
.LHOTE26:
	.globl	_ZN8asiodnp315SerialIOHandlerC1ERKN7openpal6LoggerERKSt10shared_ptrINS_16IChannelListenerEERKS5_IN7asiopal8ExecutorEERKNSA_12ChannelRetryERKNSA_14SerialSettingsE
	.set	_ZN8asiodnp315SerialIOHandlerC1ERKN7openpal6LoggerERKSt10shared_ptrINS_16IChannelListenerEERKS5_IN7asiopal8ExecutorEERKNSA_12ChannelRetryERKNSA_14SerialSettingsE,_ZN8asiodnp315SerialIOHandlerC2ERKN7openpal6LoggerERKSt10shared_ptrINS_16IChannelListenerEERKS5_IN7asiopal8ExecutorEERKNSA_12ChannelRetryERKNSA_14SerialSettingsE
	.section	.text._ZN8asiodnp315SerialIOHandlerD2Ev,"axG",@progbits,_ZN8asiodnp315SerialIOHandlerD5Ev,comdat
	.align 2
	.p2align 4
	.weak	_ZN8asiodnp315SerialIOHandlerD2Ev
	.type	_ZN8asiodnp315SerialIOHandlerD2Ev, @function
_ZN8asiodnp315SerialIOHandlerD2Ev:
.LFB10025:
	.cfi_startproc
	endbr64
	movq	_ZTVN8asiodnp315SerialIOHandlerE@GOTPCREL(%rip), %rax
	pushq	%r12
	.cfi_def_cfa_offset 16
	.cfi_offset 12, -16
	pushq	%rbp
	.cfi_def_cfa_offset 24
	.cfi_offset 6, -24
	movq	%rdi, %rbp
	addq	$896, %rdi
	leaq	104(%rax), %rdx
	addq	$16, %rax
	pushq	%rbx
	.cfi_def_cfa_offset 32
	.cfi_offset 3, -32
	movq	%rax, %xmm0
	movq	%rdx, %xmm1
	punpcklqdq	%xmm1, %xmm0
	movups	%xmm0, -896(%rdi)
	call	_ZN7openpal8TimerRefD1Ev@PLT
	movq	840(%rbp), %rdi
	leaq	856(%rbp), %rax
	cmpq	%rax, %rdi
	je	.L549
	call	_ZdlPv@PLT
.L549:
	movq	808(%rbp), %r12
	testq	%r12, %r12
	je	.L551
	movq	_ZL28__gthrw___pthread_key_createPjPFvPvE@GOTPCREL(%rip), %rbx
	testq	%rbx, %rbx
	je	.L552
	movl	$-1, %eax
	lock xaddl	%eax, 8(%r12)
	cmpl	$1, %eax
	je	.L558
.L551:
	popq	%rbx
	.cfi_remember_state
	.cfi_def_cfa_offset 24
	movq	%rbp, %rdi
	popq	%rbp
	.cfi_def_cfa_offset 16
	popq	%r12
	.cfi_def_cfa_offset 8
	jmp	_ZN8asiodnp39IOHandlerD2Ev@PLT
	.p2align 4,,10
	.p2align 3
.L552:
	.cfi_restore_state
	movl	8(%r12), %eax
	leal	-1(%rax), %edx
	movl	%edx, 8(%r12)
	cmpl	$1, %eax
	jne	.L551
.L558:
	movq	(%r12), %rax
	movq	%r12, %rdi
	call	*16(%rax)
	testq	%rbx, %rbx
	je	.L555
	movl	$-1, %eax
	lock xaddl	%eax, 12(%r12)
.L556:
	cmpl	$1, %eax
	jne	.L551
	movq	(%r12), %rax
	movq	%r12, %rdi
	call	*24(%rax)
	jmp	.L551
	.p2align 4,,10
	.p2align 3
.L555:
	movl	12(%r12), %eax
	leal	-1(%rax), %edx
	movl	%edx, 12(%r12)
	jmp	.L556
	.cfi_endproc
.LFE10025:
	.size	_ZN8asiodnp315SerialIOHandlerD2Ev, .-_ZN8asiodnp315SerialIOHandlerD2Ev
	.weak	_ZN8asiodnp315SerialIOHandlerD1Ev
	.set	_ZN8asiodnp315SerialIOHandlerD1Ev,_ZN8asiodnp315SerialIOHandlerD2Ev
	.section	.text._ZN8asiodnp315SerialIOHandlerD0Ev,"axG",@progbits,_ZN8asiodnp315SerialIOHandlerD5Ev,comdat
	.p2align 4
	.weak	_ZThn8_N8asiodnp315SerialIOHandlerD0Ev
	.type	_ZThn8_N8asiodnp315SerialIOHandlerD0Ev, @function
_ZThn8_N8asiodnp315SerialIOHandlerD0Ev:
.LFB10359:
	.cfi_startproc
	endbr64
	movq	_ZTVN8asiodnp315SerialIOHandlerE@GOTPCREL(%rip), %rax
	pushq	%r12
	.cfi_def_cfa_offset 16
	.cfi_offset 12, -16
	leaq	-8(%rdi), %r12
	pushq	%rbp
	.cfi_def_cfa_offset 24
	.cfi_offset 6, -24
	leaq	104(%rax), %rdx
	addq	$16, %rax
	pushq	%rbx
	.cfi_def_cfa_offset 32
	.cfi_offset 3, -32
	movq	%rdi, %rbx
	movq	%rax, %xmm0
	movq	%rdx, %xmm1
	addq	$888, %rdi
	punpcklqdq	%xmm1, %xmm0
	movups	%xmm0, -896(%rdi)
	call	_ZN7openpal8TimerRefD1Ev@PLT
	movq	832(%rbx), %rdi
	leaq	848(%rbx), %rax
	cmpq	%rax, %rdi
	je	.L560
	call	_ZdlPv@PLT
.L560:
	movq	800(%rbx), %rbp
	testq	%rbp, %rbp
	je	.L562
	movq	_ZL28__gthrw___pthread_key_createPjPFvPvE@GOTPCREL(%rip), %rbx
	testq	%rbx, %rbx
	je	.L563
	movl	$-1, %eax
	lock xaddl	%eax, 8(%rbp)
	cmpl	$1, %eax
	je	.L569
.L562:
	movq	%r12, %rdi
	call	_ZN8asiodnp39IOHandlerD2Ev@PLT
	popq	%rbx
	.cfi_remember_state
	.cfi_def_cfa_offset 24
	movq	%r12, %rdi
	popq	%rbp
	.cfi_def_cfa_offset 16
	movl	$912, %esi
	popq	%r12
	.cfi_def_cfa_offset 8
	jmp	_ZdlPvm@PLT
	.p2align 4,,10
	.p2align 3
.L563:
	.cfi_restore_state
	movl	8(%rbp), %eax
	leal	-1(%rax), %edx
	movl	%edx, 8(%rbp)
	cmpl	$1, %eax
	jne	.L562
.L569:
	movq	0(%rbp), %rax
	movq	%rbp, %rdi
	call	*16(%rax)
	testq	%rbx, %rbx
	je	.L566
	movl	$-1, %eax
	lock xaddl	%eax, 12(%rbp)
.L567:
	cmpl	$1, %eax
	jne	.L562
	movq	0(%rbp), %rax
	movq	%rbp, %rdi
	call	*24(%rax)
	jmp	.L562
	.p2align 4,,10
	.p2align 3
.L566:
	movl	12(%rbp), %eax
	leal	-1(%rax), %edx
	movl	%edx, 12(%rbp)
	jmp	.L567
	.cfi_endproc
.LFE10359:
	.size	_ZThn8_N8asiodnp315SerialIOHandlerD0Ev, .-_ZThn8_N8asiodnp315SerialIOHandlerD0Ev
	.align 2
	.p2align 4
	.weak	_ZN8asiodnp315SerialIOHandlerD0Ev
	.type	_ZN8asiodnp315SerialIOHandlerD0Ev, @function
_ZN8asiodnp315SerialIOHandlerD0Ev:
.LFB10027:
	.cfi_startproc
	endbr64
	movq	_ZTVN8asiodnp315SerialIOHandlerE@GOTPCREL(%rip), %rax
	pushq	%r12
	.cfi_def_cfa_offset 16
	.cfi_offset 12, -16
	pushq	%rbp
	.cfi_def_cfa_offset 24
	.cfi_offset 6, -24
	movq	%rdi, %rbp
	addq	$896, %rdi
	leaq	104(%rax), %rdx
	addq	$16, %rax
	pushq	%rbx
	.cfi_def_cfa_offset 32
	.cfi_offset 3, -32
	movq	%rax, %xmm0
	movq	%rdx, %xmm1
	punpcklqdq	%xmm1, %xmm0
	movups	%xmm0, -896(%rdi)
	call	_ZN7openpal8TimerRefD1Ev@PLT
	movq	840(%rbp), %rdi
	leaq	856(%rbp), %rax
	cmpq	%rax, %rdi
	je	.L571
	call	_ZdlPv@PLT
.L571:
	movq	808(%rbp), %r12
	testq	%r12, %r12
	je	.L573
	movq	_ZL28__gthrw___pthread_key_createPjPFvPvE@GOTPCREL(%rip), %rbx
	testq	%rbx, %rbx
	je	.L574
	movl	$-1, %eax
	lock xaddl	%eax, 8(%r12)
	cmpl	$1, %eax
	je	.L580
.L573:
	movq	%rbp, %rdi
	call	_ZN8asiodnp39IOHandlerD2Ev@PLT
	popq	%rbx
	.cfi_remember_state
	.cfi_def_cfa_offset 24
	movq	%rbp, %rdi
	movl	$912, %esi
	popq	%rbp
	.cfi_def_cfa_offset 16
	popq	%r12
	.cfi_def_cfa_offset 8
	jmp	_ZdlPvm@PLT
	.p2align 4,,10
	.p2align 3
.L574:
	.cfi_restore_state
	movl	8(%r12), %eax
	leal	-1(%rax), %edx
	movl	%edx, 8(%r12)
	cmpl	$1, %eax
	jne	.L573
.L580:
	movq	(%r12), %rax
	movq	%r12, %rdi
	call	*16(%rax)
	testq	%rbx, %rbx
	je	.L577
	movl	$-1, %eax
	lock xaddl	%eax, 12(%r12)
.L578:
	cmpl	$1, %eax
	jne	.L573
	movq	(%r12), %rax
	movq	%r12, %rdi
	call	*24(%rax)
	jmp	.L573
	.p2align 4,,10
	.p2align 3
.L577:
	movl	12(%r12), %eax
	leal	-1(%rax), %edx
	movl	%edx, 12(%r12)
	jmp	.L578
	.cfi_endproc
.LFE10027:
	.size	_ZN8asiodnp315SerialIOHandlerD0Ev, .-_ZN8asiodnp315SerialIOHandlerD0Ev
	.section	.text._ZN8asiodnp315SerialIOHandlerD2Ev,"axG",@progbits,_ZN8asiodnp315SerialIOHandlerD5Ev,comdat
	.p2align 4
	.weak	_ZThn8_N8asiodnp315SerialIOHandlerD1Ev
	.type	_ZThn8_N8asiodnp315SerialIOHandlerD1Ev, @function
_ZThn8_N8asiodnp315SerialIOHandlerD1Ev:
.LFB10360:
	.cfi_startproc
	endbr64
	movq	_ZTVN8asiodnp315SerialIOHandlerE@GOTPCREL(%rip), %rax
	pushq	%r12
	.cfi_def_cfa_offset 16
	.cfi_offset 12, -16
	pushq	%rbp
	.cfi_def_cfa_offset 24
	.cfi_offset 6, -24
	leaq	104(%rax), %rdx
	addq	$16, %rax
	pushq	%rbx
	.cfi_def_cfa_offset 32
	.cfi_offset 3, -32
	movq	%rdi, %rbx
	movq	%rax, %xmm0
	movq	%rdx, %xmm1
	addq	$888, %rdi
	punpcklqdq	%xmm1, %xmm0
	movups	%xmm0, -896(%rdi)
	call	_ZN7openpal8TimerRefD1Ev@PLT
	movq	832(%rbx), %rdi
	leaq	848(%rbx), %rax
	cmpq	%rax, %rdi
	je	.L582
	call	_ZdlPv@PLT
.L582:
	movq	800(%rbx), %rbp
	testq	%rbp, %rbp
	je	.L584
	movq	_ZL28__gthrw___pthread_key_createPjPFvPvE@GOTPCREL(%rip), %r12
	testq	%r12, %r12
	je	.L585
	movl	$-1, %eax
	lock xaddl	%eax, 8(%rbp)
	cmpl	$1, %eax
	je	.L591
.L584:
	leaq	-8(%rbx), %rdi
	popq	%rbx
	.cfi_remember_state
	.cfi_def_cfa_offset 24
	popq	%rbp
	.cfi_def_cfa_offset 16
	popq	%r12
	.cfi_def_cfa_offset 8
	jmp	_ZN8asiodnp39IOHandlerD2Ev@PLT
	.p2align 4,,10
	.p2align 3
.L585:
	.cfi_restore_state
	movl	8(%rbp), %eax
	leal	-1(%rax), %edx
	movl	%edx, 8(%rbp)
	cmpl	$1, %eax
	jne	.L584
.L591:
	movq	0(%rbp), %rax
	movq	%rbp, %rdi
	call	*16(%rax)
	testq	%r12, %r12
	je	.L588
	movl	$-1, %eax
	lock xaddl	%eax, 12(%rbp)
.L589:
	cmpl	$1, %eax
	jne	.L584
	movq	0(%rbp), %rax
	movq	%rbp, %rdi
	call	*24(%rax)
	jmp	.L584
	.p2align 4,,10
	.p2align 3
.L588:
	movl	12(%rbp), %eax
	leal	-1(%rax), %edx
	movl	%edx, 12(%rbp)
	jmp	.L589
	.cfi_endproc
.LFE10360:
	.size	_ZThn8_N8asiodnp315SerialIOHandlerD1Ev, .-_ZThn8_N8asiodnp315SerialIOHandlerD1Ev
	.section	.text.startup,"ax",@progbits
	.p2align 4
	.type	_GLOBAL__sub_I_SerialIOHandler.cpp, @function
_GLOBAL__sub_I_SerialIOHandler.cpp:
.LFB10226:
	.cfi_startproc
	endbr64
	pushq	%rbp
	.cfi_def_cfa_offset 16
	.cfi_offset 6, -16
	movq	_ZGVZN4asio15system_categoryEvE8instance@GOTPCREL(%rip), %rbp
	movzbl	0(%rbp), %eax
	testb	%al, %al
	je	.L623
.L594:
	movq	_ZGVZN4asio5error18get_netdb_categoryEvE8instance@GOTPCREL(%rip), %rbp
	movzbl	0(%rbp), %eax
	testb	%al, %al
	je	.L624
.L597:
	movq	_ZGVZN4asio5error21get_addrinfo_categoryEvE8instance@GOTPCREL(%rip), %rbp
	movzbl	0(%rbp), %eax
	testb	%al, %al
	je	.L625
.L600:
	movq	_ZGVZN4asio5error17get_misc_categoryEvE8instance@GOTPCREL(%rip), %rbp
	movzbl	0(%rbp), %eax
	testb	%al, %al
	je	.L626
.L603:
	movq	_ZGVN4asio6detail10call_stackINS0_15task_io_serviceENS0_27task_io_service_thread_infoEE4top_E@GOTPCREL(%rip), %rax
	cmpb	$0, (%rax)
	je	.L627
.L605:
	movq	_ZGVN4asio6detail12service_baseINS0_13epoll_reactorEE2idE@GOTPCREL(%rip), %rax
	cmpb	$0, (%rax)
	je	.L628
.L606:
	movq	_ZGVN4asio6detail12service_baseINS0_15task_io_serviceEE2idE@GOTPCREL(%rip), %rax
	cmpb	$0, (%rax)
	je	.L629
.L607:
	movq	_ZGVN4asio6detail10call_stackINS0_14strand_service11strand_implEhE4top_E@GOTPCREL(%rip), %rax
	cmpb	$0, (%rax)
	je	.L630
.L608:
	movq	_ZGVN4asio6detail12service_baseINS0_14strand_serviceEE2idE@GOTPCREL(%rip), %rax
	cmpb	$0, (%rax)
	je	.L631
	popq	%rbp
	.cfi_remember_state
	.cfi_def_cfa_offset 8
	ret
.L623:
	.cfi_restore_state
	movq	%rbp, %rdi
	call	__cxa_guard_acquire@PLT
	testl	%eax, %eax
	je	.L594
	movq	_ZZN4asio15system_categoryEvE8instance@GOTPCREL(%rip), %rsi
	movq	_ZN4asio6detail15system_categoryD1Ev@GOTPCREL(%rip), %rdi
	leaq	__dso_handle(%rip), %rdx
	call	__cxa_atexit@PLT
	movq	%rbp, %rdi
	call	__cxa_guard_release@PLT
	jmp	.L594
.L631:
	movb	$1, (%rax)
	leaq	__dso_handle(%rip), %rdx
	movq	_ZN4asio6detail12service_baseINS0_14strand_serviceEE2idE@GOTPCREL(%rip), %rsi
	movq	_ZN4asio6detail10service_idINS0_14strand_serviceEED1Ev@GOTPCREL(%rip), %rdi
	popq	%rbp
	.cfi_remember_state
	.cfi_def_cfa_offset 8
	jmp	__cxa_atexit@PLT
.L630:
	.cfi_restore_state
	movb	$1, (%rax)
	movq	_ZN4asio6detail10call_stackINS0_14strand_service11strand_implEhE4top_E@GOTPCREL(%rip), %rsi
	leaq	__dso_handle(%rip), %rdx
	movq	_ZN4asio6detail7tss_ptrINS0_10call_stackINS0_14strand_service11strand_implEhE7contextEED1Ev@GOTPCREL(%rip), %rdi
	call	__cxa_atexit@PLT
	jmp	.L608
.L629:
	movb	$1, (%rax)
	movq	_ZN4asio6detail12service_baseINS0_15task_io_serviceEE2idE@GOTPCREL(%rip), %rsi
	leaq	__dso_handle(%rip), %rdx
	movq	_ZN4asio6detail10service_idINS0_15task_io_serviceEED1Ev@GOTPCREL(%rip), %rdi
	call	__cxa_atexit@PLT
	jmp	.L607
.L628:
	movb	$1, (%rax)
	movq	_ZN4asio6detail12service_baseINS0_13epoll_reactorEE2idE@GOTPCREL(%rip), %rsi
	leaq	__dso_handle(%rip), %rdx
	movq	_ZN4asio6detail10service_idINS0_13epoll_reactorEED1Ev@GOTPCREL(%rip), %rdi
	call	__cxa_atexit@PLT
	jmp	.L606
.L627:
	movb	$1, (%rax)
	movq	_ZN4asio6detail10call_stackINS0_15task_io_serviceENS0_27task_io_service_thread_infoEE4top_E@GOTPCREL(%rip), %rsi
	leaq	__dso_handle(%rip), %rdx
	movq	_ZN4asio6detail7tss_ptrINS0_10call_stackINS0_15task_io_serviceENS0_27task_io_service_thread_infoEE7contextEED1Ev@GOTPCREL(%rip), %rdi
	call	__cxa_atexit@PLT
	jmp	.L605
.L626:
	movq	%rbp, %rdi
	call	__cxa_guard_acquire@PLT
	testl	%eax, %eax
	je	.L603
	movq	_ZZN4asio5error17get_misc_categoryEvE8instance@GOTPCREL(%rip), %rsi
	movq	_ZN4asio5error6detail13misc_categoryD1Ev@GOTPCREL(%rip), %rdi
	leaq	__dso_handle(%rip), %rdx
	call	__cxa_atexit@PLT
	movq	%rbp, %rdi
	call	__cxa_guard_release@PLT
	jmp	.L603
.L625:
	movq	%rbp, %rdi
	call	__cxa_guard_acquire@PLT
	testl	%eax, %eax
	je	.L600
	movq	_ZZN4asio5error21get_addrinfo_categoryEvE8instance@GOTPCREL(%rip), %rsi
	movq	_ZN4asio5error6detail17addrinfo_categoryD1Ev@GOTPCREL(%rip), %rdi
	leaq	__dso_handle(%rip), %rdx
	call	__cxa_atexit@PLT
	movq	%rbp, %rdi
	call	__cxa_guard_release@PLT
	jmp	.L600
.L624:
	movq	%rbp, %rdi
	call	__cxa_guard_acquire@PLT
	testl	%eax, %eax
	je	.L597
	movq	_ZZN4asio5error18get_netdb_categoryEvE8instance@GOTPCREL(%rip), %rsi
	movq	_ZN4asio5error6detail14netdb_categoryD1Ev@GOTPCREL(%rip), %rdi
	leaq	__dso_handle(%rip), %rdx
	call	__cxa_atexit@PLT
	movq	%rbp, %rdi
	call	__cxa_guard_release@PLT
	jmp	.L597
	.cfi_endproc
.LFE10226:
	.size	_GLOBAL__sub_I_SerialIOHandler.cpp, .-_GLOBAL__sub_I_SerialIOHandler.cpp
	.section	.init_array,"aw"
	.align 8
	.quad	_GLOBAL__sub_I_SerialIOHandler.cpp
	.weak	_ZTSSt11_Mutex_baseILN9__gnu_cxx12_Lock_policyE2EE
	.section	.rodata._ZTSSt11_Mutex_baseILN9__gnu_cxx12_Lock_policyE2EE,"aG",@progbits,_ZTSSt11_Mutex_baseILN9__gnu_cxx12_Lock_policyE2EE,comdat
	.align 32
	.type	_ZTSSt11_Mutex_baseILN9__gnu_cxx12_Lock_policyE2EE, @object
	.size	_ZTSSt11_Mutex_baseILN9__gnu_cxx12_Lock_policyE2EE, 47
_ZTSSt11_Mutex_baseILN9__gnu_cxx12_Lock_policyE2EE:
	.string	"St11_Mutex_baseILN9__gnu_cxx12_Lock_policyE2EE"
	.weak	_ZTISt11_Mutex_baseILN9__gnu_cxx12_Lock_policyE2EE
	.section	.data.rel.ro._ZTISt11_Mutex_baseILN9__gnu_cxx12_Lock_policyE2EE,"awG",@progbits,_ZTISt11_Mutex_baseILN9__gnu_cxx12_Lock_policyE2EE,comdat
	.align 8
	.type	_ZTISt11_Mutex_baseILN9__gnu_cxx12_Lock_policyE2EE, @object
	.size	_ZTISt11_Mutex_baseILN9__gnu_cxx12_Lock_policyE2EE, 16
_ZTISt11_Mutex_baseILN9__gnu_cxx12_Lock_policyE2EE:
	.quad	_ZTVN10__cxxabiv117__class_type_infoE+16
	.quad	_ZTSSt11_Mutex_baseILN9__gnu_cxx12_Lock_policyE2EE
	.weak	_ZTSN7openpal10UncopyableE
	.section	.rodata._ZTSN7openpal10UncopyableE,"aG",@progbits,_ZTSN7openpal10UncopyableE,comdat
	.align 16
	.type	_ZTSN7openpal10UncopyableE, @object
	.size	_ZTSN7openpal10UncopyableE, 23
_ZTSN7openpal10UncopyableE:
	.string	"N7openpal10UncopyableE"
	.weak	_ZTIN7openpal10UncopyableE
	.section	.data.rel.ro._ZTIN7openpal10UncopyableE,"awG",@progbits,_ZTIN7openpal10UncopyableE,comdat
	.align 8
	.type	_ZTIN7openpal10UncopyableE, @object
	.size	_ZTIN7openpal10UncopyableE, 16
_ZTIN7openpal10UncopyableE:
	.quad	_ZTVN10__cxxabiv117__class_type_infoE+16
	.quad	_ZTSN7openpal10UncopyableE
	.weak	_ZTSSt23enable_shared_from_thisIN7asiopal13IAsyncChannelEE
	.section	.rodata._ZTSSt23enable_shared_from_thisIN7asiopal13IAsyncChannelEE,"aG",@progbits,_ZTSSt23enable_shared_from_thisIN7asiopal13IAsyncChannelEE,comdat
	.align 32
	.type	_ZTSSt23enable_shared_from_thisIN7asiopal13IAsyncChannelEE, @object
	.size	_ZTSSt23enable_shared_from_thisIN7asiopal13IAsyncChannelEE, 55
_ZTSSt23enable_shared_from_thisIN7asiopal13IAsyncChannelEE:
	.string	"St23enable_shared_from_thisIN7asiopal13IAsyncChannelEE"
	.weak	_ZTISt23enable_shared_from_thisIN7asiopal13IAsyncChannelEE
	.section	.data.rel.ro._ZTISt23enable_shared_from_thisIN7asiopal13IAsyncChannelEE,"awG",@progbits,_ZTISt23enable_shared_from_thisIN7asiopal13IAsyncChannelEE,comdat
	.align 8
	.type	_ZTISt23enable_shared_from_thisIN7asiopal13IAsyncChannelEE, @object
	.size	_ZTISt23enable_shared_from_thisIN7asiopal13IAsyncChannelEE, 16
_ZTISt23enable_shared_from_thisIN7asiopal13IAsyncChannelEE:
	.quad	_ZTVN10__cxxabiv117__class_type_infoE+16
	.quad	_ZTSSt23enable_shared_from_thisIN7asiopal13IAsyncChannelEE
	.weak	_ZTSSt19_Sp_make_shared_tag
	.section	.rodata._ZTSSt19_Sp_make_shared_tag,"aG",@progbits,_ZTSSt19_Sp_make_shared_tag,comdat
	.align 16
	.type	_ZTSSt19_Sp_make_shared_tag, @object
	.size	_ZTSSt19_Sp_make_shared_tag, 24
_ZTSSt19_Sp_make_shared_tag:
	.string	"St19_Sp_make_shared_tag"
	.weak	_ZGVN4asio6detail12service_baseINS0_14strand_serviceEE2idE
	.section	.bss._ZGVN4asio6detail12service_baseINS0_14strand_serviceEE2idE,"awG",@nobits,_ZGVN4asio6detail12service_baseINS0_14strand_serviceEE2idE,comdat
	.align 8
	.type	_ZGVN4asio6detail12service_baseINS0_14strand_serviceEE2idE, @gnu_unique_object
	.size	_ZGVN4asio6detail12service_baseINS0_14strand_serviceEE2idE, 8
_ZGVN4asio6detail12service_baseINS0_14strand_serviceEE2idE:
	.zero	8
	.weak	_ZGVN4asio6detail10call_stackINS0_14strand_service11strand_implEhE4top_E
	.section	.bss._ZGVN4asio6detail10call_stackINS0_14strand_service11strand_implEhE4top_E,"awG",@nobits,_ZGVN4asio6detail10call_stackINS0_14strand_service11strand_implEhE4top_E,comdat
	.align 8
	.type	_ZGVN4asio6detail10call_stackINS0_14strand_service11strand_implEhE4top_E, @gnu_unique_object
	.size	_ZGVN4asio6detail10call_stackINS0_14strand_service11strand_implEhE4top_E, 8
_ZGVN4asio6detail10call_stackINS0_14strand_service11strand_implEhE4top_E:
	.zero	8
	.weak	_ZGVN4asio6detail12service_baseINS0_15task_io_serviceEE2idE
	.section	.bss._ZGVN4asio6detail12service_baseINS0_15task_io_serviceEE2idE,"awG",@nobits,_ZGVN4asio6detail12service_baseINS0_15task_io_serviceEE2idE,comdat
	.align 8
	.type	_ZGVN4asio6detail12service_baseINS0_15task_io_serviceEE2idE, @gnu_unique_object
	.size	_ZGVN4asio6detail12service_baseINS0_15task_io_serviceEE2idE, 8
_ZGVN4asio6detail12service_baseINS0_15task_io_serviceEE2idE:
	.zero	8
	.weak	_ZGVN4asio6detail12service_baseINS0_13epoll_reactorEE2idE
	.section	.bss._ZGVN4asio6detail12service_baseINS0_13epoll_reactorEE2idE,"awG",@nobits,_ZGVN4asio6detail12service_baseINS0_13epoll_reactorEE2idE,comdat
	.align 8
	.type	_ZGVN4asio6detail12service_baseINS0_13epoll_reactorEE2idE, @gnu_unique_object
	.size	_ZGVN4asio6detail12service_baseINS0_13epoll_reactorEE2idE, 8
_ZGVN4asio6detail12service_baseINS0_13epoll_reactorEE2idE:
	.zero	8
	.weak	_ZGVN4asio6detail10call_stackINS0_15task_io_serviceENS0_27task_io_service_thread_infoEE4top_E
	.section	.bss._ZGVN4asio6detail10call_stackINS0_15task_io_serviceENS0_27task_io_service_thread_infoEE4top_E,"awG",@nobits,_ZGVN4asio6detail10call_stackINS0_15task_io_serviceENS0_27task_io_service_thread_infoEE4top_E,comdat
	.align 8
	.type	_ZGVN4asio6detail10call_stackINS0_15task_io_serviceENS0_27task_io_service_thread_infoEE4top_E, @gnu_unique_object
	.size	_ZGVN4asio6detail10call_stackINS0_15task_io_serviceENS0_27task_io_service_thread_infoEE4top_E, 8
_ZGVN4asio6detail10call_stackINS0_15task_io_serviceENS0_27task_io_service_thread_infoEE4top_E:
	.zero	8
	.weak	_ZN4asio6detail12service_baseINS0_14strand_serviceEE2idE
	.section	.bss._ZN4asio6detail12service_baseINS0_14strand_serviceEE2idE,"awG",@nobits,_ZN4asio6detail12service_baseINS0_14strand_serviceEE2idE,comdat
	.type	_ZN4asio6detail12service_baseINS0_14strand_serviceEE2idE, @gnu_unique_object
	.size	_ZN4asio6detail12service_baseINS0_14strand_serviceEE2idE, 1
_ZN4asio6detail12service_baseINS0_14strand_serviceEE2idE:
	.zero	1
	.weak	_ZN4asio6detail10call_stackINS0_14strand_service11strand_implEhE4top_E
	.section	.bss._ZN4asio6detail10call_stackINS0_14strand_service11strand_implEhE4top_E,"awG",@nobits,_ZN4asio6detail10call_stackINS0_14strand_service11strand_implEhE4top_E,comdat
	.type	_ZN4asio6detail10call_stackINS0_14strand_service11strand_implEhE4top_E, @gnu_unique_object
	.size	_ZN4asio6detail10call_stackINS0_14strand_service11strand_implEhE4top_E, 1
_ZN4asio6detail10call_stackINS0_14strand_service11strand_implEhE4top_E:
	.zero	1
	.weak	_ZN4asio6detail12service_baseINS0_15task_io_serviceEE2idE
	.section	.bss._ZN4asio6detail12service_baseINS0_15task_io_serviceEE2idE,"awG",@nobits,_ZN4asio6detail12service_baseINS0_15task_io_serviceEE2idE,comdat
	.type	_ZN4asio6detail12service_baseINS0_15task_io_serviceEE2idE, @gnu_unique_object
	.size	_ZN4asio6detail12service_baseINS0_15task_io_serviceEE2idE, 1
_ZN4asio6detail12service_baseINS0_15task_io_serviceEE2idE:
	.zero	1
	.weak	_ZN4asio6detail12service_baseINS0_13epoll_reactorEE2idE
	.section	.bss._ZN4asio6detail12service_baseINS0_13epoll_reactorEE2idE,"awG",@nobits,_ZN4asio6detail12service_baseINS0_13epoll_reactorEE2idE,comdat
	.type	_ZN4asio6detail12service_baseINS0_13epoll_reactorEE2idE, @gnu_unique_object
	.size	_ZN4asio6detail12service_baseINS0_13epoll_reactorEE2idE, 1
_ZN4asio6detail12service_baseINS0_13epoll_reactorEE2idE:
	.zero	1
	.weak	_ZN4asio6detail10call_stackINS0_15task_io_serviceENS0_27task_io_service_thread_infoEE4top_E
	.section	.bss._ZN4asio6detail10call_stackINS0_15task_io_serviceENS0_27task_io_service_thread_infoEE4top_E,"awG",@nobits,_ZN4asio6detail10call_stackINS0_15task_io_serviceENS0_27task_io_service_thread_infoEE4top_E,comdat
	.type	_ZN4asio6detail10call_stackINS0_15task_io_serviceENS0_27task_io_service_thread_infoEE4top_E, @gnu_unique_object
	.size	_ZN4asio6detail10call_stackINS0_15task_io_serviceENS0_27task_io_service_thread_infoEE4top_E, 1
_ZN4asio6detail10call_stackINS0_15task_io_serviceENS0_27task_io_service_thread_infoEE4top_E:
	.zero	1
	.weak	_ZTSSt16_Sp_counted_baseILN9__gnu_cxx12_Lock_policyE2EE
	.section	.rodata._ZTSSt16_Sp_counted_baseILN9__gnu_cxx12_Lock_policyE2EE,"aG",@progbits,_ZTSSt16_Sp_counted_baseILN9__gnu_cxx12_Lock_policyE2EE,comdat
	.align 32
	.type	_ZTSSt16_Sp_counted_baseILN9__gnu_cxx12_Lock_policyE2EE, @object
	.size	_ZTSSt16_Sp_counted_baseILN9__gnu_cxx12_Lock_policyE2EE, 52
_ZTSSt16_Sp_counted_baseILN9__gnu_cxx12_Lock_policyE2EE:
	.string	"St16_Sp_counted_baseILN9__gnu_cxx12_Lock_policyE2EE"
	.weak	_ZTISt16_Sp_counted_baseILN9__gnu_cxx12_Lock_policyE2EE
	.section	.data.rel.ro._ZTISt16_Sp_counted_baseILN9__gnu_cxx12_Lock_policyE2EE,"awG",@progbits,_ZTISt16_Sp_counted_baseILN9__gnu_cxx12_Lock_policyE2EE,comdat
	.align 8
	.type	_ZTISt16_Sp_counted_baseILN9__gnu_cxx12_Lock_policyE2EE, @object
	.size	_ZTISt16_Sp_counted_baseILN9__gnu_cxx12_Lock_policyE2EE, 24
_ZTISt16_Sp_counted_baseILN9__gnu_cxx12_Lock_policyE2EE:
	.quad	_ZTVN10__cxxabiv120__si_class_type_infoE+16
	.quad	_ZTSSt16_Sp_counted_baseILN9__gnu_cxx12_Lock_policyE2EE
	.quad	_ZTISt11_Mutex_baseILN9__gnu_cxx12_Lock_policyE2EE
	.weak	_ZTSN4asio6detail15system_categoryE
	.section	.rodata._ZTSN4asio6detail15system_categoryE,"aG",@progbits,_ZTSN4asio6detail15system_categoryE,comdat
	.align 32
	.type	_ZTSN4asio6detail15system_categoryE, @object
	.size	_ZTSN4asio6detail15system_categoryE, 32
_ZTSN4asio6detail15system_categoryE:
	.string	"N4asio6detail15system_categoryE"
	.weak	_ZTIN4asio6detail15system_categoryE
	.section	.data.rel.ro._ZTIN4asio6detail15system_categoryE,"awG",@progbits,_ZTIN4asio6detail15system_categoryE,comdat
	.align 8
	.type	_ZTIN4asio6detail15system_categoryE, @object
	.size	_ZTIN4asio6detail15system_categoryE, 24
_ZTIN4asio6detail15system_categoryE:
	.quad	_ZTVN10__cxxabiv120__si_class_type_infoE+16
	.quad	_ZTSN4asio6detail15system_categoryE
	.quad	_ZTINSt3_V214error_categoryE
	.weak	_ZTSN4asio5error6detail14netdb_categoryE
	.section	.rodata._ZTSN4asio5error6detail14netdb_categoryE,"aG",@progbits,_ZTSN4asio5error6detail14netdb_categoryE,comdat
	.align 32
	.type	_ZTSN4asio5error6detail14netdb_categoryE, @object
	.size	_ZTSN4asio5error6detail14netdb_categoryE, 37
_ZTSN4asio5error6detail14netdb_categoryE:
	.string	"N4asio5error6detail14netdb_categoryE"
	.weak	_ZTIN4asio5error6detail14netdb_categoryE
	.section	.data.rel.ro._ZTIN4asio5error6detail14netdb_categoryE,"awG",@progbits,_ZTIN4asio5error6detail14netdb_categoryE,comdat
	.align 8
	.type	_ZTIN4asio5error6detail14netdb_categoryE, @object
	.size	_ZTIN4asio5error6detail14netdb_categoryE, 24
_ZTIN4asio5error6detail14netdb_categoryE:
	.quad	_ZTVN10__cxxabiv120__si_class_type_infoE+16
	.quad	_ZTSN4asio5error6detail14netdb_categoryE
	.quad	_ZTINSt3_V214error_categoryE
	.weak	_ZTSN4asio5error6detail17addrinfo_categoryE
	.section	.rodata._ZTSN4asio5error6detail17addrinfo_categoryE,"aG",@progbits,_ZTSN4asio5error6detail17addrinfo_categoryE,comdat
	.align 32
	.type	_ZTSN4asio5error6detail17addrinfo_categoryE, @object
	.size	_ZTSN4asio5error6detail17addrinfo_categoryE, 40
_ZTSN4asio5error6detail17addrinfo_categoryE:
	.string	"N4asio5error6detail17addrinfo_categoryE"
	.weak	_ZTIN4asio5error6detail17addrinfo_categoryE
	.section	.data.rel.ro._ZTIN4asio5error6detail17addrinfo_categoryE,"awG",@progbits,_ZTIN4asio5error6detail17addrinfo_categoryE,comdat
	.align 8
	.type	_ZTIN4asio5error6detail17addrinfo_categoryE, @object
	.size	_ZTIN4asio5error6detail17addrinfo_categoryE, 24
_ZTIN4asio5error6detail17addrinfo_categoryE:
	.quad	_ZTVN10__cxxabiv120__si_class_type_infoE+16
	.quad	_ZTSN4asio5error6detail17addrinfo_categoryE
	.quad	_ZTINSt3_V214error_categoryE
	.weak	_ZTSN4asio5error6detail13misc_categoryE
	.section	.rodata._ZTSN4asio5error6detail13misc_categoryE,"aG",@progbits,_ZTSN4asio5error6detail13misc_categoryE,comdat
	.align 32
	.type	_ZTSN4asio5error6detail13misc_categoryE, @object
	.size	_ZTSN4asio5error6detail13misc_categoryE, 36
_ZTSN4asio5error6detail13misc_categoryE:
	.string	"N4asio5error6detail13misc_categoryE"
	.weak	_ZTIN4asio5error6detail13misc_categoryE
	.section	.data.rel.ro._ZTIN4asio5error6detail13misc_categoryE,"awG",@progbits,_ZTIN4asio5error6detail13misc_categoryE,comdat
	.align 8
	.type	_ZTIN4asio5error6detail13misc_categoryE, @object
	.size	_ZTIN4asio5error6detail13misc_categoryE, 24
_ZTIN4asio5error6detail13misc_categoryE:
	.quad	_ZTVN10__cxxabiv120__si_class_type_infoE+16
	.quad	_ZTSN4asio5error6detail13misc_categoryE
	.quad	_ZTINSt3_V214error_categoryE
	.weak	_ZTSN7asiopal13IAsyncChannelE
	.section	.rodata._ZTSN7asiopal13IAsyncChannelE,"aG",@progbits,_ZTSN7asiopal13IAsyncChannelE,comdat
	.align 16
	.type	_ZTSN7asiopal13IAsyncChannelE, @object
	.size	_ZTSN7asiopal13IAsyncChannelE, 26
_ZTSN7asiopal13IAsyncChannelE:
	.string	"N7asiopal13IAsyncChannelE"
	.weak	_ZTIN7asiopal13IAsyncChannelE
	.section	.data.rel.ro._ZTIN7asiopal13IAsyncChannelE,"awG",@progbits,_ZTIN7asiopal13IAsyncChannelE,comdat
	.align 8
	.type	_ZTIN7asiopal13IAsyncChannelE, @object
	.size	_ZTIN7asiopal13IAsyncChannelE, 56
_ZTIN7asiopal13IAsyncChannelE:
	.quad	_ZTVN10__cxxabiv121__vmi_class_type_infoE+16
	.quad	_ZTSN7asiopal13IAsyncChannelE
	.long	0
	.long	2
	.quad	_ZTISt23enable_shared_from_thisIN7asiopal13IAsyncChannelEE
	.quad	2050
	.quad	_ZTIN7openpal10UncopyableE
	.quad	0
	.weak	_ZTSN8asiodnp315SerialIOHandlerE
	.section	.rodata._ZTSN8asiodnp315SerialIOHandlerE,"aG",@progbits,_ZTSN8asiodnp315SerialIOHandlerE,comdat
	.align 16
	.type	_ZTSN8asiodnp315SerialIOHandlerE, @object
	.size	_ZTSN8asiodnp315SerialIOHandlerE, 29
_ZTSN8asiodnp315SerialIOHandlerE:
	.string	"N8asiodnp315SerialIOHandlerE"
	.weak	_ZTIN8asiodnp315SerialIOHandlerE
	.section	.data.rel.ro._ZTIN8asiodnp315SerialIOHandlerE,"awG",@progbits,_ZTIN8asiodnp315SerialIOHandlerE,comdat
	.align 8
	.type	_ZTIN8asiodnp315SerialIOHandlerE, @object
	.size	_ZTIN8asiodnp315SerialIOHandlerE, 24
_ZTIN8asiodnp315SerialIOHandlerE:
	.quad	_ZTVN10__cxxabiv120__si_class_type_infoE+16
	.quad	_ZTSN8asiodnp315SerialIOHandlerE
	.quad	_ZTIN8asiodnp39IOHandlerE
	.section	.data.rel.ro,"aw"
	.align 8
	.type	_ZTIZN7openpal8TimerRef5StartIZN8asiodnp315SerialIOHandler7TryOpenERKNS_12TimeDurationEEUlvE_EEbS6_RKT_EUlvE_, @object
	.size	_ZTIZN7openpal8TimerRef5StartIZN8asiodnp315SerialIOHandler7TryOpenERKNS_12TimeDurationEEUlvE_EEbS6_RKT_EUlvE_, 16
_ZTIZN7openpal8TimerRef5StartIZN8asiodnp315SerialIOHandler7TryOpenERKNS_12TimeDurationEEUlvE_EEbS6_RKT_EUlvE_:
	.quad	_ZTVN10__cxxabiv117__class_type_infoE+16
	.quad	_ZTSZN7openpal8TimerRef5StartIZN8asiodnp315SerialIOHandler7TryOpenERKNS_12TimeDurationEEUlvE_EEbS6_RKT_EUlvE_
	.section	.rodata
	.align 32
	.type	_ZTSZN7openpal8TimerRef5StartIZN8asiodnp315SerialIOHandler7TryOpenERKNS_12TimeDurationEEUlvE_EEbS6_RKT_EUlvE_, @object
	.size	_ZTSZN7openpal8TimerRef5StartIZN8asiodnp315SerialIOHandler7TryOpenERKNS_12TimeDurationEEUlvE_EEbS6_RKT_EUlvE_, 107
_ZTSZN7openpal8TimerRef5StartIZN8asiodnp315SerialIOHandler7TryOpenERKNS_12TimeDurationEEUlvE_EEbS6_RKT_EUlvE_:
	.string	"*ZN7openpal8TimerRef5StartIZN8asiodnp315SerialIOHandler7TryOpenERKNS_12TimeDurationEEUlvE_EEbS6_RKT_EUlvE_"
	.weak	_ZTSSt23_Sp_counted_ptr_inplaceIN7asiopal13SerialChannelESaIS1_ELN9__gnu_cxx12_Lock_policyE2EE
	.section	.rodata._ZTSSt23_Sp_counted_ptr_inplaceIN7asiopal13SerialChannelESaIS1_ELN9__gnu_cxx12_Lock_policyE2EE,"aG",@progbits,_ZTSSt23_Sp_counted_ptr_inplaceIN7asiopal13SerialChannelESaIS1_ELN9__gnu_cxx12_Lock_policyE2EE,comdat
	.align 32
	.type	_ZTSSt23_Sp_counted_ptr_inplaceIN7asiopal13SerialChannelESaIS1_ELN9__gnu_cxx12_Lock_policyE2EE, @object
	.size	_ZTSSt23_Sp_counted_ptr_inplaceIN7asiopal13SerialChannelESaIS1_ELN9__gnu_cxx12_Lock_policyE2EE, 91
_ZTSSt23_Sp_counted_ptr_inplaceIN7asiopal13SerialChannelESaIS1_ELN9__gnu_cxx12_Lock_policyE2EE:
	.string	"St23_Sp_counted_ptr_inplaceIN7asiopal13SerialChannelESaIS1_ELN9__gnu_cxx12_Lock_policyE2EE"
	.weak	_ZTISt23_Sp_counted_ptr_inplaceIN7asiopal13SerialChannelESaIS1_ELN9__gnu_cxx12_Lock_policyE2EE
	.section	.data.rel.ro._ZTISt23_Sp_counted_ptr_inplaceIN7asiopal13SerialChannelESaIS1_ELN9__gnu_cxx12_Lock_policyE2EE,"awG",@progbits,_ZTISt23_Sp_counted_ptr_inplaceIN7asiopal13SerialChannelESaIS1_ELN9__gnu_cxx12_Lock_policyE2EE,comdat
	.align 8
	.type	_ZTISt23_Sp_counted_ptr_inplaceIN7asiopal13SerialChannelESaIS1_ELN9__gnu_cxx12_Lock_policyE2EE, @object
	.size	_ZTISt23_Sp_counted_ptr_inplaceIN7asiopal13SerialChannelESaIS1_ELN9__gnu_cxx12_Lock_policyE2EE, 24
_ZTISt23_Sp_counted_ptr_inplaceIN7asiopal13SerialChannelESaIS1_ELN9__gnu_cxx12_Lock_policyE2EE:
	.quad	_ZTVN10__cxxabiv120__si_class_type_infoE+16
	.quad	_ZTSSt23_Sp_counted_ptr_inplaceIN7asiopal13SerialChannelESaIS1_ELN9__gnu_cxx12_Lock_policyE2EE
	.quad	_ZTISt16_Sp_counted_baseILN9__gnu_cxx12_Lock_policyE2EE
	.weak	_ZTVN4asio6detail15system_categoryE
	.section	.data.rel.ro._ZTVN4asio6detail15system_categoryE,"awG",@progbits,_ZTVN4asio6detail15system_categoryE,comdat
	.align 8
	.type	_ZTVN4asio6detail15system_categoryE, @object
	.size	_ZTVN4asio6detail15system_categoryE, 80
_ZTVN4asio6detail15system_categoryE:
	.quad	0
	.quad	_ZTIN4asio6detail15system_categoryE
	.quad	_ZN4asio6detail15system_categoryD1Ev
	.quad	_ZN4asio6detail15system_categoryD0Ev
	.quad	_ZNK4asio6detail15system_category4nameEv
	.quad	_ZNKSt3_V214error_category10_M_messageB5cxx11Ei
	.quad	_ZNK4asio6detail15system_category7messageB5cxx11Ei
	.quad	_ZNKSt3_V214error_category23default_error_conditionEi
	.quad	_ZNKSt3_V214error_category10equivalentEiRKSt15error_condition
	.quad	_ZNKSt3_V214error_category10equivalentERKSt10error_codei
	.weak	_ZTVN4asio5error6detail14netdb_categoryE
	.section	.data.rel.ro._ZTVN4asio5error6detail14netdb_categoryE,"awG",@progbits,_ZTVN4asio5error6detail14netdb_categoryE,comdat
	.align 8
	.type	_ZTVN4asio5error6detail14netdb_categoryE, @object
	.size	_ZTVN4asio5error6detail14netdb_categoryE, 80
_ZTVN4asio5error6detail14netdb_categoryE:
	.quad	0
	.quad	_ZTIN4asio5error6detail14netdb_categoryE
	.quad	_ZN4asio5error6detail14netdb_categoryD1Ev
	.quad	_ZN4asio5error6detail14netdb_categoryD0Ev
	.quad	_ZNK4asio5error6detail14netdb_category4nameEv
	.quad	_ZNKSt3_V214error_category10_M_messageB5cxx11Ei
	.quad	_ZNK4asio5error6detail14netdb_category7messageB5cxx11Ei
	.quad	_ZNKSt3_V214error_category23default_error_conditionEi
	.quad	_ZNKSt3_V214error_category10equivalentEiRKSt15error_condition
	.quad	_ZNKSt3_V214error_category10equivalentERKSt10error_codei
	.weak	_ZTVN4asio5error6detail17addrinfo_categoryE
	.section	.data.rel.ro._ZTVN4asio5error6detail17addrinfo_categoryE,"awG",@progbits,_ZTVN4asio5error6detail17addrinfo_categoryE,comdat
	.align 8
	.type	_ZTVN4asio5error6detail17addrinfo_categoryE, @object
	.size	_ZTVN4asio5error6detail17addrinfo_categoryE, 80
_ZTVN4asio5error6detail17addrinfo_categoryE:
	.quad	0
	.quad	_ZTIN4asio5error6detail17addrinfo_categoryE
	.quad	_ZN4asio5error6detail17addrinfo_categoryD1Ev
	.quad	_ZN4asio5error6detail17addrinfo_categoryD0Ev
	.quad	_ZNK4asio5error6detail17addrinfo_category4nameEv
	.quad	_ZNKSt3_V214error_category10_M_messageB5cxx11Ei
	.quad	_ZNK4asio5error6detail17addrinfo_category7messageB5cxx11Ei
	.quad	_ZNKSt3_V214error_category23default_error_conditionEi
	.quad	_ZNKSt3_V214error_category10equivalentEiRKSt15error_condition
	.quad	_ZNKSt3_V214error_category10equivalentERKSt10error_codei
	.weak	_ZTVN4asio5error6detail13misc_categoryE
	.section	.data.rel.ro._ZTVN4asio5error6detail13misc_categoryE,"awG",@progbits,_ZTVN4asio5error6detail13misc_categoryE,comdat
	.align 8
	.type	_ZTVN4asio5error6detail13misc_categoryE, @object
	.size	_ZTVN4asio5error6detail13misc_categoryE, 80
_ZTVN4asio5error6detail13misc_categoryE:
	.quad	0
	.quad	_ZTIN4asio5error6detail13misc_categoryE
	.quad	_ZN4asio5error6detail13misc_categoryD1Ev
	.quad	_ZN4asio5error6detail13misc_categoryD0Ev
	.quad	_ZNK4asio5error6detail13misc_category4nameEv
	.quad	_ZNKSt3_V214error_category10_M_messageB5cxx11Ei
	.quad	_ZNK4asio5error6detail13misc_category7messageB5cxx11Ei
	.quad	_ZNKSt3_V214error_category23default_error_conditionEi
	.quad	_ZNKSt3_V214error_category10equivalentEiRKSt15error_condition
	.quad	_ZNKSt3_V214error_category10equivalentERKSt10error_codei
	.weak	_ZTVN7asiopal13IAsyncChannelE
	.section	.data.rel.ro._ZTVN7asiopal13IAsyncChannelE,"awG",@progbits,_ZTVN7asiopal13IAsyncChannelE,comdat
	.align 8
	.type	_ZTVN7asiopal13IAsyncChannelE, @object
	.size	_ZTVN7asiopal13IAsyncChannelE, 56
_ZTVN7asiopal13IAsyncChannelE:
	.quad	0
	.quad	_ZTIN7asiopal13IAsyncChannelE
	.quad	0
	.quad	0
	.quad	__cxa_pure_virtual
	.quad	__cxa_pure_virtual
	.quad	__cxa_pure_virtual
	.weak	_ZTVN8asiodnp315SerialIOHandlerE
	.section	.data.rel.ro._ZTVN8asiodnp315SerialIOHandlerE,"awG",@progbits,_ZTVN8asiodnp315SerialIOHandlerE,comdat
	.align 8
	.type	_ZTVN8asiodnp315SerialIOHandlerE, @object
	.size	_ZTVN8asiodnp315SerialIOHandlerE, 136
_ZTVN8asiodnp315SerialIOHandlerE:
	.quad	0
	.quad	_ZTIN8asiodnp315SerialIOHandlerE
	.quad	_ZN8asiodnp315SerialIOHandlerD1Ev
	.quad	_ZN8asiodnp315SerialIOHandlerD0Ev
	.quad	_ZN8asiodnp39IOHandler7OnFrameERKN8opendnp316LinkHeaderFieldsERKN7openpal6RSliceE
	.quad	_ZN8asiodnp39IOHandler14OnReadCompleteERKSt10error_codem
	.quad	_ZN8asiodnp39IOHandler15OnWriteCompleteERKSt10error_codem
	.quad	_ZN8asiodnp315SerialIOHandler18BeginChannelAcceptEv
	.quad	_ZN8asiodnp315SerialIOHandler20SuspendChannelAcceptEv
	.quad	_ZN8asiodnp315SerialIOHandler12ShutdownImplEv
	.quad	_ZN8asiodnp315SerialIOHandler17OnChannelShutdownEv
	.quad	-8
	.quad	_ZTIN8asiodnp315SerialIOHandlerE
	.quad	_ZThn8_N8asiodnp315SerialIOHandlerD1Ev
	.quad	_ZThn8_N8asiodnp315SerialIOHandlerD0Ev
	.quad	_ZThn8_N8asiodnp39IOHandler14OnReadCompleteERKSt10error_codem
	.quad	_ZThn8_N8asiodnp39IOHandler15OnWriteCompleteERKSt10error_codem
	.weak	_ZTVSt23_Sp_counted_ptr_inplaceIN7asiopal13SerialChannelESaIS1_ELN9__gnu_cxx12_Lock_policyE2EE
	.section	.data.rel.ro._ZTVSt23_Sp_counted_ptr_inplaceIN7asiopal13SerialChannelESaIS1_ELN9__gnu_cxx12_Lock_policyE2EE,"awG",@progbits,_ZTVSt23_Sp_counted_ptr_inplaceIN7asiopal13SerialChannelESaIS1_ELN9__gnu_cxx12_Lock_policyE2EE,comdat
	.align 8
	.type	_ZTVSt23_Sp_counted_ptr_inplaceIN7asiopal13SerialChannelESaIS1_ELN9__gnu_cxx12_Lock_policyE2EE, @object
	.size	_ZTVSt23_Sp_counted_ptr_inplaceIN7asiopal13SerialChannelESaIS1_ELN9__gnu_cxx12_Lock_policyE2EE, 56
_ZTVSt23_Sp_counted_ptr_inplaceIN7asiopal13SerialChannelESaIS1_ELN9__gnu_cxx12_Lock_policyE2EE:
	.quad	0
	.quad	_ZTISt23_Sp_counted_ptr_inplaceIN7asiopal13SerialChannelESaIS1_ELN9__gnu_cxx12_Lock_policyE2EE
	.quad	_ZNSt23_Sp_counted_ptr_inplaceIN7asiopal13SerialChannelESaIS1_ELN9__gnu_cxx12_Lock_policyE2EED1Ev
	.quad	_ZNSt23_Sp_counted_ptr_inplaceIN7asiopal13SerialChannelESaIS1_ELN9__gnu_cxx12_Lock_policyE2EED0Ev
	.quad	_ZNSt23_Sp_counted_ptr_inplaceIN7asiopal13SerialChannelESaIS1_ELN9__gnu_cxx12_Lock_policyE2EE10_M_disposeEv
	.quad	_ZNSt23_Sp_counted_ptr_inplaceIN7asiopal13SerialChannelESaIS1_ELN9__gnu_cxx12_Lock_policyE2EE10_M_destroyEv
	.quad	_ZNSt23_Sp_counted_ptr_inplaceIN7asiopal13SerialChannelESaIS1_ELN9__gnu_cxx12_Lock_policyE2EE14_M_get_deleterERKSt9type_info
	.weak	_ZGVZN4asio5error17get_misc_categoryEvE8instance
	.section	.bss._ZGVZN4asio5error17get_misc_categoryEvE8instance,"awG",@nobits,_ZGVZN4asio5error17get_misc_categoryEvE8instance,comdat
	.align 8
	.type	_ZGVZN4asio5error17get_misc_categoryEvE8instance, @gnu_unique_object
	.size	_ZGVZN4asio5error17get_misc_categoryEvE8instance, 8
_ZGVZN4asio5error17get_misc_categoryEvE8instance:
	.zero	8
	.weak	_ZZN4asio5error17get_misc_categoryEvE8instance
	.section	.data.rel._ZZN4asio5error17get_misc_categoryEvE8instance,"awG",@progbits,_ZZN4asio5error17get_misc_categoryEvE8instance,comdat
	.align 8
	.type	_ZZN4asio5error17get_misc_categoryEvE8instance, @gnu_unique_object
	.size	_ZZN4asio5error17get_misc_categoryEvE8instance, 8
_ZZN4asio5error17get_misc_categoryEvE8instance:
	.quad	_ZTVN4asio5error6detail13misc_categoryE+16
	.weak	_ZGVZN4asio5error21get_addrinfo_categoryEvE8instance
	.section	.bss._ZGVZN4asio5error21get_addrinfo_categoryEvE8instance,"awG",@nobits,_ZGVZN4asio5error21get_addrinfo_categoryEvE8instance,comdat
	.align 8
	.type	_ZGVZN4asio5error21get_addrinfo_categoryEvE8instance, @gnu_unique_object
	.size	_ZGVZN4asio5error21get_addrinfo_categoryEvE8instance, 8
_ZGVZN4asio5error21get_addrinfo_categoryEvE8instance:
	.zero	8
	.weak	_ZZN4asio5error21get_addrinfo_categoryEvE8instance
	.section	.data.rel._ZZN4asio5error21get_addrinfo_categoryEvE8instance,"awG",@progbits,_ZZN4asio5error21get_addrinfo_categoryEvE8instance,comdat
	.align 8
	.type	_ZZN4asio5error21get_addrinfo_categoryEvE8instance, @gnu_unique_object
	.size	_ZZN4asio5error21get_addrinfo_categoryEvE8instance, 8
_ZZN4asio5error21get_addrinfo_categoryEvE8instance:
	.quad	_ZTVN4asio5error6detail17addrinfo_categoryE+16
	.weak	_ZGVZN4asio5error18get_netdb_categoryEvE8instance
	.section	.bss._ZGVZN4asio5error18get_netdb_categoryEvE8instance,"awG",@nobits,_ZGVZN4asio5error18get_netdb_categoryEvE8instance,comdat
	.align 8
	.type	_ZGVZN4asio5error18get_netdb_categoryEvE8instance, @gnu_unique_object
	.size	_ZGVZN4asio5error18get_netdb_categoryEvE8instance, 8
_ZGVZN4asio5error18get_netdb_categoryEvE8instance:
	.zero	8
	.weak	_ZZN4asio5error18get_netdb_categoryEvE8instance
	.section	.data.rel._ZZN4asio5error18get_netdb_categoryEvE8instance,"awG",@progbits,_ZZN4asio5error18get_netdb_categoryEvE8instance,comdat
	.align 8
	.type	_ZZN4asio5error18get_netdb_categoryEvE8instance, @gnu_unique_object
	.size	_ZZN4asio5error18get_netdb_categoryEvE8instance, 8
_ZZN4asio5error18get_netdb_categoryEvE8instance:
	.quad	_ZTVN4asio5error6detail14netdb_categoryE+16
	.weak	_ZGVZN4asio15system_categoryEvE8instance
	.section	.bss._ZGVZN4asio15system_categoryEvE8instance,"awG",@nobits,_ZGVZN4asio15system_categoryEvE8instance,comdat
	.align 8
	.type	_ZGVZN4asio15system_categoryEvE8instance, @gnu_unique_object
	.size	_ZGVZN4asio15system_categoryEvE8instance, 8
_ZGVZN4asio15system_categoryEvE8instance:
	.zero	8
	.weak	_ZZN4asio15system_categoryEvE8instance
	.section	.data.rel._ZZN4asio15system_categoryEvE8instance,"awG",@progbits,_ZZN4asio15system_categoryEvE8instance,comdat
	.align 8
	.type	_ZZN4asio15system_categoryEvE8instance, @gnu_unique_object
	.size	_ZZN4asio15system_categoryEvE8instance, 8
_ZZN4asio15system_categoryEvE8instance:
	.quad	_ZTVN4asio6detail15system_categoryE+16
	.weak	_ZN4asio6detail15keyword_tss_ptrINS0_10call_stackINS0_15task_io_serviceENS0_27task_io_service_thread_infoEE7contextEE6value_E
	.section	.tbss._ZN4asio6detail15keyword_tss_ptrINS0_10call_stackINS0_15task_io_serviceENS0_27task_io_service_thread_infoEE7contextEE6value_E,"awTG",@nobits,_ZN4asio6detail15keyword_tss_ptrINS0_10call_stackINS0_15task_io_serviceENS0_27task_io_service_thread_infoEE7contextEE6value_E,comdat
	.align 8
	.type	_ZN4asio6detail15keyword_tss_ptrINS0_10call_stackINS0_15task_io_serviceENS0_27task_io_service_thread_infoEE7contextEE6value_E, @gnu_unique_object
	.size	_ZN4asio6detail15keyword_tss_ptrINS0_10call_stackINS0_15task_io_serviceENS0_27task_io_service_thread_infoEE7contextEE6value_E, 8
_ZN4asio6detail15keyword_tss_ptrINS0_10call_stackINS0_15task_io_serviceENS0_27task_io_service_thread_infoEE7contextEE6value_E:
	.zero	8
	.weak	_ZZNSt19_Sp_make_shared_tag5_S_tiEvE5__tag
	.section	.rodata._ZZNSt19_Sp_make_shared_tag5_S_tiEvE5__tag,"aG",@progbits,_ZZNSt19_Sp_make_shared_tag5_S_tiEvE5__tag,comdat
	.align 8
	.type	_ZZNSt19_Sp_make_shared_tag5_S_tiEvE5__tag, @gnu_unique_object
	.size	_ZZNSt19_Sp_make_shared_tag5_S_tiEvE5__tag, 16
_ZZNSt19_Sp_make_shared_tag5_S_tiEvE5__tag:
	.zero	16
	.weakref	_ZL28__gthrw___pthread_key_createPjPFvPvE,__pthread_key_create
	.section	.rodata.cst16,"aM",@progbits,16
	.align 16
.LC5:
	.quad	8028075772644520015
	.quad	7310593917846626414
	.align 16
.LC6:
	.quad	2334381286471394643
	.quad	7959390400869068654
	.align 16
.LC7:
	.quad	8367816086596579155
	.quad	2338616625292734585
	.align 16
.LC8:
	.quad	7234013753529430881
	.quad	8243030355803531634
	.align 16
.LC9:
	.quad	2338615488418245701
	.quad	7959390400869068654
	.align 16
.LC10:
	.quad	7166182912791242836
	.quad	7214892426067994994
	.align 16
.LC11:
	.quad	2338616625293649263
	.quad	8031165433303558502
	.align 16
.LC12:
	.quad	7810775711721485344
	.quad	7812726531955123045
	.align 16
.LC13:
	.quad	8390045716486254408
	.quad	2891421386351273504
	.align 16
.LC14:
	.quad	7526769937477431150
	.quad	8532478930943832687
	.align 16
.LC15:
	.quad	2340027324477221221
	.quad	7020021577750243169
	.align 16
.LC16:
	.quad	8243123821706831956
	.quad	7809653110584451193
	.align 16
.LC17:
	.quad	2338623170819155049
	.quad	2338324160631043177
	.align 16
.LC18:
	.quad	7311138144931573614
	.quad	7019250824563089696
	.align 16
.LC19:
	.quad	7309955097514876993
	.quad	7809911847770287971
	.align 16
.LC20:
	.quad	2338053693894893669
	.quad	7234314212361855855
	.align 16
.LC21:
	.quad	2334956330985808928
	.quad	7310293695322153316
	.align 16
.LC22:
	.quad	8387231026764149601
	.quad	8245935278387126884
	.hidden	DW.ref.__gxx_personality_v0
	.weak	DW.ref.__gxx_personality_v0
	.section	.data.rel.local.DW.ref.__gxx_personality_v0,"awG",@progbits,DW.ref.__gxx_personality_v0,comdat
	.align 8
	.type	DW.ref.__gxx_personality_v0, @object
	.size	DW.ref.__gxx_personality_v0, 8
DW.ref.__gxx_personality_v0:
	.quad	__gxx_personality_v0
	.hidden	__dso_handle
	.ident	"GCC: (Ubuntu 9.4.0-1ubuntu1~20.04.1) 9.4.0"
	.section	.note.GNU-stack,"",@progbits
	.section	.note.gnu.property,"a"
	.align 8
	.long	 1f - 0f
	.long	 4f - 1f
	.long	 5
0:
	.string	 "GNU"
1:
	.align 8
	.long	 0xc0000002
	.long	 3f - 2f
2:
	.long	 0x3
3:
	.align 8
4:
