	.file	"SerialChannel.cpp"
	.text
	.section	.rodata._ZNK4asio6detail15system_category4nameEv.str1.1,"aMS",@progbits,1
.LC0:
	.string	"asio.system"
	.section	.text._ZNK4asio6detail15system_category4nameEv,"axG",@progbits,_ZNK4asio6detail15system_category4nameEv,comdat
	.align 2
	.p2align 4
	.weak	_ZNK4asio6detail15system_category4nameEv
	.type	_ZNK4asio6detail15system_category4nameEv, @function
_ZNK4asio6detail15system_category4nameEv:
.LFB2350:
	.cfi_startproc
	endbr64
	leaq	.LC0(%rip), %rax
	ret
	.cfi_endproc
.LFE2350:
	.size	_ZNK4asio6detail15system_category4nameEv, .-_ZNK4asio6detail15system_category4nameEv
	.section	.rodata._ZNK4asio5error6detail14netdb_category4nameEv.str1.1,"aMS",@progbits,1
.LC1:
	.string	"asio.netdb"
	.section	.text._ZNK4asio5error6detail14netdb_category4nameEv,"axG",@progbits,_ZNK4asio5error6detail14netdb_category4nameEv,comdat
	.align 2
	.p2align 4
	.weak	_ZNK4asio5error6detail14netdb_category4nameEv
	.type	_ZNK4asio5error6detail14netdb_category4nameEv, @function
_ZNK4asio5error6detail14netdb_category4nameEv:
.LFB2390:
	.cfi_startproc
	endbr64
	leaq	.LC1(%rip), %rax
	ret
	.cfi_endproc
.LFE2390:
	.size	_ZNK4asio5error6detail14netdb_category4nameEv, .-_ZNK4asio5error6detail14netdb_category4nameEv
	.section	.rodata._ZNK4asio5error6detail17addrinfo_category4nameEv.str1.1,"aMS",@progbits,1
.LC2:
	.string	"asio.addrinfo"
	.section	.text._ZNK4asio5error6detail17addrinfo_category4nameEv,"axG",@progbits,_ZNK4asio5error6detail17addrinfo_category4nameEv,comdat
	.align 2
	.p2align 4
	.weak	_ZNK4asio5error6detail17addrinfo_category4nameEv
	.type	_ZNK4asio5error6detail17addrinfo_category4nameEv, @function
_ZNK4asio5error6detail17addrinfo_category4nameEv:
.LFB2396:
	.cfi_startproc
	endbr64
	leaq	.LC2(%rip), %rax
	ret
	.cfi_endproc
.LFE2396:
	.size	_ZNK4asio5error6detail17addrinfo_category4nameEv, .-_ZNK4asio5error6detail17addrinfo_category4nameEv
	.section	.rodata._ZNK4asio5error6detail13misc_category4nameEv.str1.1,"aMS",@progbits,1
.LC3:
	.string	"asio.misc"
	.section	.text._ZNK4asio5error6detail13misc_category4nameEv,"axG",@progbits,_ZNK4asio5error6detail13misc_category4nameEv,comdat
	.align 2
	.p2align 4
	.weak	_ZNK4asio5error6detail13misc_category4nameEv
	.type	_ZNK4asio5error6detail13misc_category4nameEv, @function
_ZNK4asio5error6detail13misc_category4nameEv:
.LFB2402:
	.cfi_startproc
	endbr64
	leaq	.LC3(%rip), %rax
	ret
	.cfi_endproc
.LFE2402:
	.size	_ZNK4asio5error6detail13misc_category4nameEv, .-_ZNK4asio5error6detail13misc_category4nameEv
	.section	.text._ZN4asio10io_service7service12fork_serviceENS0_10fork_eventE,"axG",@progbits,_ZN4asio10io_service7service12fork_serviceENS0_10fork_eventE,comdat
	.align 2
	.p2align 4
	.weak	_ZN4asio10io_service7service12fork_serviceENS0_10fork_eventE
	.type	_ZN4asio10io_service7service12fork_serviceENS0_10fork_eventE, @function
_ZN4asio10io_service7service12fork_serviceENS0_10fork_eventE:
.LFB3363:
	.cfi_startproc
	endbr64
	ret
	.cfi_endproc
.LFE3363:
	.size	_ZN4asio10io_service7service12fork_serviceENS0_10fork_eventE, .-_ZN4asio10io_service7service12fork_serviceENS0_10fork_eventE
	.section	.text._ZN4asio19serial_port_service16shutdown_serviceEv,"axG",@progbits,_ZN4asio19serial_port_service16shutdown_serviceEv,comdat
	.align 2
	.p2align 4
	.weak	_ZN4asio19serial_port_service16shutdown_serviceEv
	.type	_ZN4asio19serial_port_service16shutdown_serviceEv, @function
_ZN4asio19serial_port_service16shutdown_serviceEv:
.LFB4158:
	.cfi_startproc
	endbr64
	ret
	.cfi_endproc
.LFE4158:
	.size	_ZN4asio19serial_port_service16shutdown_serviceEv, .-_ZN4asio19serial_port_service16shutdown_serviceEv
	.section	.text._ZN4asio19serial_port_serviceD2Ev,"axG",@progbits,_ZN4asio19serial_port_serviceD5Ev,comdat
	.align 2
	.p2align 4
	.weak	_ZN4asio19serial_port_serviceD2Ev
	.type	_ZN4asio19serial_port_serviceD2Ev, @function
_ZN4asio19serial_port_serviceD2Ev:
.LFB9279:
	.cfi_startproc
	endbr64
	ret
	.cfi_endproc
.LFE9279:
	.size	_ZN4asio19serial_port_serviceD2Ev, .-_ZN4asio19serial_port_serviceD2Ev
	.weak	_ZN4asio19serial_port_serviceD1Ev
	.set	_ZN4asio19serial_port_serviceD1Ev,_ZN4asio19serial_port_serviceD2Ev
	.section	.text._ZN4asio6detail7tss_ptrINS0_10call_stackINS0_15task_io_serviceENS0_27task_io_service_thread_infoEE7contextEED2Ev,"axG",@progbits,_ZN4asio6detail7tss_ptrINS0_10call_stackINS0_15task_io_serviceENS0_27task_io_service_thread_infoEE7contextEED5Ev,comdat
	.align 2
	.p2align 4
	.weak	_ZN4asio6detail7tss_ptrINS0_10call_stackINS0_15task_io_serviceENS0_27task_io_service_thread_infoEE7contextEED2Ev
	.type	_ZN4asio6detail7tss_ptrINS0_10call_stackINS0_15task_io_serviceENS0_27task_io_service_thread_infoEE7contextEED2Ev, @function
_ZN4asio6detail7tss_ptrINS0_10call_stackINS0_15task_io_serviceENS0_27task_io_service_thread_infoEE7contextEED2Ev:
.LFB9328:
	.cfi_startproc
	endbr64
	ret
	.cfi_endproc
.LFE9328:
	.size	_ZN4asio6detail7tss_ptrINS0_10call_stackINS0_15task_io_serviceENS0_27task_io_service_thread_infoEE7contextEED2Ev, .-_ZN4asio6detail7tss_ptrINS0_10call_stackINS0_15task_io_serviceENS0_27task_io_service_thread_infoEE7contextEED2Ev
	.weak	_ZN4asio6detail7tss_ptrINS0_10call_stackINS0_15task_io_serviceENS0_27task_io_service_thread_infoEE7contextEED1Ev
	.set	_ZN4asio6detail7tss_ptrINS0_10call_stackINS0_15task_io_serviceENS0_27task_io_service_thread_infoEE7contextEED1Ev,_ZN4asio6detail7tss_ptrINS0_10call_stackINS0_15task_io_serviceENS0_27task_io_service_thread_infoEE7contextEED2Ev
	.section	.text._ZN4asio6detail10service_idINS0_13epoll_reactorEED2Ev,"axG",@progbits,_ZN4asio6detail10service_idINS0_13epoll_reactorEED5Ev,comdat
	.align 2
	.p2align 4
	.weak	_ZN4asio6detail10service_idINS0_13epoll_reactorEED2Ev
	.type	_ZN4asio6detail10service_idINS0_13epoll_reactorEED2Ev, @function
_ZN4asio6detail10service_idINS0_13epoll_reactorEED2Ev:
.LFB9331:
	.cfi_startproc
	endbr64
	ret
	.cfi_endproc
.LFE9331:
	.size	_ZN4asio6detail10service_idINS0_13epoll_reactorEED2Ev, .-_ZN4asio6detail10service_idINS0_13epoll_reactorEED2Ev
	.weak	_ZN4asio6detail10service_idINS0_13epoll_reactorEED1Ev
	.set	_ZN4asio6detail10service_idINS0_13epoll_reactorEED1Ev,_ZN4asio6detail10service_idINS0_13epoll_reactorEED2Ev
	.section	.text._ZN4asio6detail10service_idINS0_15task_io_serviceEED2Ev,"axG",@progbits,_ZN4asio6detail10service_idINS0_15task_io_serviceEED5Ev,comdat
	.align 2
	.p2align 4
	.weak	_ZN4asio6detail10service_idINS0_15task_io_serviceEED2Ev
	.type	_ZN4asio6detail10service_idINS0_15task_io_serviceEED2Ev, @function
_ZN4asio6detail10service_idINS0_15task_io_serviceEED2Ev:
.LFB9334:
	.cfi_startproc
	endbr64
	ret
	.cfi_endproc
.LFE9334:
	.size	_ZN4asio6detail10service_idINS0_15task_io_serviceEED2Ev, .-_ZN4asio6detail10service_idINS0_15task_io_serviceEED2Ev
	.weak	_ZN4asio6detail10service_idINS0_15task_io_serviceEED1Ev
	.set	_ZN4asio6detail10service_idINS0_15task_io_serviceEED1Ev,_ZN4asio6detail10service_idINS0_15task_io_serviceEED2Ev
	.section	.text._ZN4asio6detail7tss_ptrINS0_10call_stackINS0_14strand_service11strand_implEhE7contextEED2Ev,"axG",@progbits,_ZN4asio6detail7tss_ptrINS0_10call_stackINS0_14strand_service11strand_implEhE7contextEED5Ev,comdat
	.align 2
	.p2align 4
	.weak	_ZN4asio6detail7tss_ptrINS0_10call_stackINS0_14strand_service11strand_implEhE7contextEED2Ev
	.type	_ZN4asio6detail7tss_ptrINS0_10call_stackINS0_14strand_service11strand_implEhE7contextEED2Ev, @function
_ZN4asio6detail7tss_ptrINS0_10call_stackINS0_14strand_service11strand_implEhE7contextEED2Ev:
.LFB9337:
	.cfi_startproc
	endbr64
	ret
	.cfi_endproc
.LFE9337:
	.size	_ZN4asio6detail7tss_ptrINS0_10call_stackINS0_14strand_service11strand_implEhE7contextEED2Ev, .-_ZN4asio6detail7tss_ptrINS0_10call_stackINS0_14strand_service11strand_implEhE7contextEED2Ev
	.weak	_ZN4asio6detail7tss_ptrINS0_10call_stackINS0_14strand_service11strand_implEhE7contextEED1Ev
	.set	_ZN4asio6detail7tss_ptrINS0_10call_stackINS0_14strand_service11strand_implEhE7contextEED1Ev,_ZN4asio6detail7tss_ptrINS0_10call_stackINS0_14strand_service11strand_implEhE7contextEED2Ev
	.section	.text._ZN4asio6detail10service_idINS0_14strand_serviceEED2Ev,"axG",@progbits,_ZN4asio6detail10service_idINS0_14strand_serviceEED5Ev,comdat
	.align 2
	.p2align 4
	.weak	_ZN4asio6detail10service_idINS0_14strand_serviceEED2Ev
	.type	_ZN4asio6detail10service_idINS0_14strand_serviceEED2Ev, @function
_ZN4asio6detail10service_idINS0_14strand_serviceEED2Ev:
.LFB9340:
	.cfi_startproc
	endbr64
	ret
	.cfi_endproc
.LFE9340:
	.size	_ZN4asio6detail10service_idINS0_14strand_serviceEED2Ev, .-_ZN4asio6detail10service_idINS0_14strand_serviceEED2Ev
	.weak	_ZN4asio6detail10service_idINS0_14strand_serviceEED1Ev
	.set	_ZN4asio6detail10service_idINS0_14strand_serviceEED1Ev,_ZN4asio6detail10service_idINS0_14strand_serviceEED2Ev
	.section	.text._ZN4asio6detail10service_idINS_19serial_port_serviceEED2Ev,"axG",@progbits,_ZN4asio6detail10service_idINS_19serial_port_serviceEED5Ev,comdat
	.align 2
	.p2align 4
	.weak	_ZN4asio6detail10service_idINS_19serial_port_serviceEED2Ev
	.type	_ZN4asio6detail10service_idINS_19serial_port_serviceEED2Ev, @function
_ZN4asio6detail10service_idINS_19serial_port_serviceEED2Ev:
.LFB9343:
	.cfi_startproc
	endbr64
	ret
	.cfi_endproc
.LFE9343:
	.size	_ZN4asio6detail10service_idINS_19serial_port_serviceEED2Ev, .-_ZN4asio6detail10service_idINS_19serial_port_serviceEED2Ev
	.weak	_ZN4asio6detail10service_idINS_19serial_port_serviceEED1Ev
	.set	_ZN4asio6detail10service_idINS_19serial_port_serviceEED1Ev,_ZN4asio6detail10service_idINS_19serial_port_serviceEED2Ev
	.section	.text._ZN4asio19serial_port_serviceD0Ev,"axG",@progbits,_ZN4asio19serial_port_serviceD5Ev,comdat
	.align 2
	.p2align 4
	.weak	_ZN4asio19serial_port_serviceD0Ev
	.type	_ZN4asio19serial_port_serviceD0Ev, @function
_ZN4asio19serial_port_serviceD0Ev:
.LFB9281:
	.cfi_startproc
	endbr64
	movl	$48, %esi
	jmp	_ZdlPvm@PLT
	.cfi_endproc
.LFE9281:
	.size	_ZN4asio19serial_port_serviceD0Ev, .-_ZN4asio19serial_port_serviceD0Ev
	.section	.text._ZN4asio6detail15system_categoryD2Ev,"axG",@progbits,_ZN4asio6detail15system_categoryD5Ev,comdat
	.align 2
	.p2align 4
	.weak	_ZN4asio6detail15system_categoryD2Ev
	.type	_ZN4asio6detail15system_categoryD2Ev, @function
_ZN4asio6detail15system_categoryD2Ev:
.LFB9307:
	.cfi_startproc
	endbr64
	movq	_ZTVN4asio6detail15system_categoryE@GOTPCREL(%rip), %rax
	addq	$16, %rax
	movq	%rax, (%rdi)
	jmp	_ZNSt3_V214error_categoryD2Ev@PLT
	.cfi_endproc
.LFE9307:
	.size	_ZN4asio6detail15system_categoryD2Ev, .-_ZN4asio6detail15system_categoryD2Ev
	.weak	_ZN4asio6detail15system_categoryD1Ev
	.set	_ZN4asio6detail15system_categoryD1Ev,_ZN4asio6detail15system_categoryD2Ev
	.section	.text._ZN4asio6detail15system_categoryD0Ev,"axG",@progbits,_ZN4asio6detail15system_categoryD5Ev,comdat
	.align 2
	.p2align 4
	.weak	_ZN4asio6detail15system_categoryD0Ev
	.type	_ZN4asio6detail15system_categoryD0Ev, @function
_ZN4asio6detail15system_categoryD0Ev:
.LFB9309:
	.cfi_startproc
	endbr64
	movq	_ZTVN4asio6detail15system_categoryE@GOTPCREL(%rip), %rax
	pushq	%rbp
	.cfi_def_cfa_offset 16
	.cfi_offset 6, -16
	movq	%rdi, %rbp
	addq	$16, %rax
	movq	%rax, (%rdi)
	call	_ZNSt3_V214error_categoryD2Ev@PLT
	movq	%rbp, %rdi
	movl	$8, %esi
	popq	%rbp
	.cfi_def_cfa_offset 8
	jmp	_ZdlPvm@PLT
	.cfi_endproc
.LFE9309:
	.size	_ZN4asio6detail15system_categoryD0Ev, .-_ZN4asio6detail15system_categoryD0Ev
	.section	.text._ZN4asio5error6detail13misc_categoryD2Ev,"axG",@progbits,_ZN4asio5error6detail13misc_categoryD5Ev,comdat
	.align 2
	.p2align 4
	.weak	_ZN4asio5error6detail13misc_categoryD2Ev
	.type	_ZN4asio5error6detail13misc_categoryD2Ev, @function
_ZN4asio5error6detail13misc_categoryD2Ev:
.LFB9287:
	.cfi_startproc
	endbr64
	movq	_ZTVN4asio5error6detail13misc_categoryE@GOTPCREL(%rip), %rax
	addq	$16, %rax
	movq	%rax, (%rdi)
	jmp	_ZNSt3_V214error_categoryD2Ev@PLT
	.cfi_endproc
.LFE9287:
	.size	_ZN4asio5error6detail13misc_categoryD2Ev, .-_ZN4asio5error6detail13misc_categoryD2Ev
	.weak	_ZN4asio5error6detail13misc_categoryD1Ev
	.set	_ZN4asio5error6detail13misc_categoryD1Ev,_ZN4asio5error6detail13misc_categoryD2Ev
	.section	.text._ZN4asio5error6detail13misc_categoryD0Ev,"axG",@progbits,_ZN4asio5error6detail13misc_categoryD5Ev,comdat
	.align 2
	.p2align 4
	.weak	_ZN4asio5error6detail13misc_categoryD0Ev
	.type	_ZN4asio5error6detail13misc_categoryD0Ev, @function
_ZN4asio5error6detail13misc_categoryD0Ev:
.LFB9289:
	.cfi_startproc
	endbr64
	movq	_ZTVN4asio5error6detail13misc_categoryE@GOTPCREL(%rip), %rax
	pushq	%rbp
	.cfi_def_cfa_offset 16
	.cfi_offset 6, -16
	movq	%rdi, %rbp
	addq	$16, %rax
	movq	%rax, (%rdi)
	call	_ZNSt3_V214error_categoryD2Ev@PLT
	movq	%rbp, %rdi
	movl	$8, %esi
	popq	%rbp
	.cfi_def_cfa_offset 8
	jmp	_ZdlPvm@PLT
	.cfi_endproc
.LFE9289:
	.size	_ZN4asio5error6detail13misc_categoryD0Ev, .-_ZN4asio5error6detail13misc_categoryD0Ev
	.section	.text._ZN4asio5error6detail14netdb_categoryD2Ev,"axG",@progbits,_ZN4asio5error6detail14netdb_categoryD5Ev,comdat
	.align 2
	.p2align 4
	.weak	_ZN4asio5error6detail14netdb_categoryD2Ev
	.type	_ZN4asio5error6detail14netdb_categoryD2Ev, @function
_ZN4asio5error6detail14netdb_categoryD2Ev:
.LFB9295:
	.cfi_startproc
	endbr64
	movq	_ZTVN4asio5error6detail14netdb_categoryE@GOTPCREL(%rip), %rax
	addq	$16, %rax
	movq	%rax, (%rdi)
	jmp	_ZNSt3_V214error_categoryD2Ev@PLT
	.cfi_endproc
.LFE9295:
	.size	_ZN4asio5error6detail14netdb_categoryD2Ev, .-_ZN4asio5error6detail14netdb_categoryD2Ev
	.weak	_ZN4asio5error6detail14netdb_categoryD1Ev
	.set	_ZN4asio5error6detail14netdb_categoryD1Ev,_ZN4asio5error6detail14netdb_categoryD2Ev
	.section	.text._ZN4asio5error6detail14netdb_categoryD0Ev,"axG",@progbits,_ZN4asio5error6detail14netdb_categoryD5Ev,comdat
	.align 2
	.p2align 4
	.weak	_ZN4asio5error6detail14netdb_categoryD0Ev
	.type	_ZN4asio5error6detail14netdb_categoryD0Ev, @function
_ZN4asio5error6detail14netdb_categoryD0Ev:
.LFB9297:
	.cfi_startproc
	endbr64
	movq	_ZTVN4asio5error6detail14netdb_categoryE@GOTPCREL(%rip), %rax
	pushq	%rbp
	.cfi_def_cfa_offset 16
	.cfi_offset 6, -16
	movq	%rdi, %rbp
	addq	$16, %rax
	movq	%rax, (%rdi)
	call	_ZNSt3_V214error_categoryD2Ev@PLT
	movq	%rbp, %rdi
	movl	$8, %esi
	popq	%rbp
	.cfi_def_cfa_offset 8
	jmp	_ZdlPvm@PLT
	.cfi_endproc
.LFE9297:
	.size	_ZN4asio5error6detail14netdb_categoryD0Ev, .-_ZN4asio5error6detail14netdb_categoryD0Ev
	.section	.text._ZN4asio5error6detail17addrinfo_categoryD2Ev,"axG",@progbits,_ZN4asio5error6detail17addrinfo_categoryD5Ev,comdat
	.align 2
	.p2align 4
	.weak	_ZN4asio5error6detail17addrinfo_categoryD2Ev
	.type	_ZN4asio5error6detail17addrinfo_categoryD2Ev, @function
_ZN4asio5error6detail17addrinfo_categoryD2Ev:
.LFB9291:
	.cfi_startproc
	endbr64
	movq	_ZTVN4asio5error6detail17addrinfo_categoryE@GOTPCREL(%rip), %rax
	addq	$16, %rax
	movq	%rax, (%rdi)
	jmp	_ZNSt3_V214error_categoryD2Ev@PLT
	.cfi_endproc
.LFE9291:
	.size	_ZN4asio5error6detail17addrinfo_categoryD2Ev, .-_ZN4asio5error6detail17addrinfo_categoryD2Ev
	.weak	_ZN4asio5error6detail17addrinfo_categoryD1Ev
	.set	_ZN4asio5error6detail17addrinfo_categoryD1Ev,_ZN4asio5error6detail17addrinfo_categoryD2Ev
	.section	.text._ZN4asio5error6detail17addrinfo_categoryD0Ev,"axG",@progbits,_ZN4asio5error6detail17addrinfo_categoryD5Ev,comdat
	.align 2
	.p2align 4
	.weak	_ZN4asio5error6detail17addrinfo_categoryD0Ev
	.type	_ZN4asio5error6detail17addrinfo_categoryD0Ev, @function
_ZN4asio5error6detail17addrinfo_categoryD0Ev:
.LFB9293:
	.cfi_startproc
	endbr64
	movq	_ZTVN4asio5error6detail17addrinfo_categoryE@GOTPCREL(%rip), %rax
	pushq	%rbp
	.cfi_def_cfa_offset 16
	.cfi_offset 6, -16
	movq	%rdi, %rbp
	addq	$16, %rax
	movq	%rax, (%rdi)
	call	_ZNSt3_V214error_categoryD2Ev@PLT
	movq	%rbp, %rdi
	movl	$8, %esi
	popq	%rbp
	.cfi_def_cfa_offset 8
	jmp	_ZdlPvm@PLT
	.cfi_endproc
.LFE9293:
	.size	_ZN4asio5error6detail17addrinfo_categoryD0Ev, .-_ZN4asio5error6detail17addrinfo_categoryD0Ev
	.section	.text.unlikely,"ax",@progbits
	.align 2
	.type	_ZN4asio6detail18completion_handlerINS0_7binder2IZN7asiopal13SerialChannel14BeginWriteImplERKN7openpal6RSliceEEUlRKSt10error_codemE_S9_mEEE3ptr5resetEv.isra.0, @function
_ZN4asio6detail18completion_handlerINS0_7binder2IZN7asiopal13SerialChannel14BeginWriteImplERKN7openpal6RSliceEEUlRKSt10error_codemE_S9_mEEE3ptr5resetEv.isra.0:
.LFB9547:
	.cfi_startproc
	pushq	%rbp
	.cfi_def_cfa_offset 16
	.cfi_offset 6, -16
	pushq	%rbx
	.cfi_def_cfa_offset 24
	.cfi_offset 3, -24
	movq	%rdi, %rbx
	pushq	%rdx
	.cfi_def_cfa_offset 32
	cmpq	$0, (%rsi)
	je	.L29
	movq	$0, (%rsi)
.L29:
	movq	(%rbx), %rbp
	testq	%rbp, %rbp
	je	.L28
	data16	leaq	_ZN4asio6detail15keyword_tss_ptrINS0_10call_stackINS0_15task_io_serviceENS0_27task_io_service_thread_infoEE7contextEE6value_E@tlsgd(%rip), %rdi
	.value	0x6666
	rex64
	call	__tls_get_addr@PLT
	movq	(%rax), %rax
	testq	%rax, %rax
	je	.L31
	movq	8(%rax), %rax
	testq	%rax, %rax
	je	.L31
	cmpq	$0, (%rax)
	jne	.L31
	movb	56(%rbp), %dl
	movb	%dl, 0(%rbp)
	movq	%rbp, (%rax)
	jmp	.L32
.L31:
	movq	%rbp, %rdi
	call	_ZdlPv@PLT
.L32:
	movq	$0, (%rbx)
.L28:
	popq	%rax
	.cfi_def_cfa_offset 24
	popq	%rbx
	.cfi_def_cfa_offset 16
	popq	%rbp
	.cfi_def_cfa_offset 8
	ret
	.cfi_endproc
.LFE9547:
	.size	_ZN4asio6detail18completion_handlerINS0_7binder2IZN7asiopal13SerialChannel14BeginWriteImplERKN7openpal6RSliceEEUlRKSt10error_codemE_S9_mEEE3ptr5resetEv.isra.0, .-_ZN4asio6detail18completion_handlerINS0_7binder2IZN7asiopal13SerialChannel14BeginWriteImplERKN7openpal6RSliceEEUlRKSt10error_codemE_S9_mEEE3ptr5resetEv.isra.0
	.align 2
	.type	_ZN4asio6detail18descriptor_read_opINS_17mutable_buffers_1ENS0_15wrapped_handlerINS_10io_service6strandEZN7asiopal13SerialChannel13BeginReadImplEN7openpal6WSliceEEUlRKSt10error_codemE_NS0_26is_continuation_if_runningEEEE3ptr5resetEv.isra.0, @function
_ZN4asio6detail18descriptor_read_opINS_17mutable_buffers_1ENS0_15wrapped_handlerINS_10io_service6strandEZN7asiopal13SerialChannel13BeginReadImplEN7openpal6WSliceEEUlRKSt10error_codemE_NS0_26is_continuation_if_runningEEEE3ptr5resetEv.isra.0:
.LFB9613:
	.cfi_startproc
	pushq	%rbp
	.cfi_def_cfa_offset 16
	.cfi_offset 6, -16
	pushq	%rbx
	.cfi_def_cfa_offset 24
	.cfi_offset 3, -24
	movq	%rdi, %rbx
	pushq	%rdx
	.cfi_def_cfa_offset 32
	cmpq	$0, (%rsi)
	je	.L44
	movq	$0, (%rsi)
.L44:
	movq	(%rbx), %rbp
	testq	%rbp, %rbp
	je	.L43
	data16	leaq	_ZN4asio6detail15keyword_tss_ptrINS0_10call_stackINS0_15task_io_serviceENS0_27task_io_service_thread_infoEE7contextEE6value_E@tlsgd(%rip), %rdi
	.value	0x6666
	rex64
	call	__tls_get_addr@PLT
	movq	(%rax), %rax
	testq	%rax, %rax
	je	.L46
	movq	8(%rax), %rax
	testq	%rax, %rax
	je	.L46
	cmpq	$0, (%rax)
	jne	.L46
	movb	104(%rbp), %dl
	movb	%dl, 0(%rbp)
	movq	%rbp, (%rax)
	jmp	.L47
.L46:
	movq	%rbp, %rdi
	call	_ZdlPv@PLT
.L47:
	movq	$0, (%rbx)
.L43:
	popq	%rax
	.cfi_def_cfa_offset 24
	popq	%rbx
	.cfi_def_cfa_offset 16
	popq	%rbp
	.cfi_def_cfa_offset 8
	ret
	.cfi_endproc
.LFE9613:
	.size	_ZN4asio6detail18descriptor_read_opINS_17mutable_buffers_1ENS0_15wrapped_handlerINS_10io_service6strandEZN7asiopal13SerialChannel13BeginReadImplEN7openpal6WSliceEEUlRKSt10error_codemE_NS0_26is_continuation_if_runningEEEE3ptr5resetEv.isra.0, .-_ZN4asio6detail18descriptor_read_opINS_17mutable_buffers_1ENS0_15wrapped_handlerINS_10io_service6strandEZN7asiopal13SerialChannel13BeginReadImplEN7openpal6WSliceEEUlRKSt10error_codemE_NS0_26is_continuation_if_runningEEEE3ptr5resetEv.isra.0
	.align 2
	.type	_ZN4asio6detail19descriptor_write_opINS_15const_buffers_1ENS0_8write_opINS_17basic_serial_portINS_19serial_port_serviceEEES2_NS0_14transfer_all_tENS0_15wrapped_handlerINS_10io_service6strandEZN7asiopal13SerialChannel14BeginWriteImplERKN7openpal6RSliceEEUlRKSt10error_codemE_NS0_26is_continuation_if_runningEEEEEE3ptr5resetEv.isra.0, @function
_ZN4asio6detail19descriptor_write_opINS_15const_buffers_1ENS0_8write_opINS_17basic_serial_portINS_19serial_port_serviceEEES2_NS0_14transfer_all_tENS0_15wrapped_handlerINS_10io_service6strandEZN7asiopal13SerialChannel14BeginWriteImplERKN7openpal6RSliceEEUlRKSt10error_codemE_NS0_26is_continuation_if_runningEEEEEE3ptr5resetEv.isra.0:
.LFB9617:
	.cfi_startproc
	pushq	%rbp
	.cfi_def_cfa_offset 16
	.cfi_offset 6, -16
	pushq	%rbx
	.cfi_def_cfa_offset 24
	.cfi_offset 3, -24
	movq	%rdi, %rbx
	pushq	%rdx
	.cfi_def_cfa_offset 32
	cmpq	$0, (%rsi)
	je	.L59
	movq	$0, (%rsi)
.L59:
	movq	(%rbx), %rbp
	testq	%rbp, %rbp
	je	.L58
	data16	leaq	_ZN4asio6detail15keyword_tss_ptrINS0_10call_stackINS0_15task_io_serviceENS0_27task_io_service_thread_infoEE7contextEE6value_E@tlsgd(%rip), %rdi
	.value	0x6666
	rex64
	call	__tls_get_addr@PLT
	movq	(%rax), %rax
	testq	%rax, %rax
	je	.L61
	movq	8(%rax), %rax
	testq	%rax, %rax
	je	.L61
	cmpq	$0, (%rax)
	jne	.L61
	movb	144(%rbp), %dl
	movb	%dl, 0(%rbp)
	movq	%rbp, (%rax)
	jmp	.L62
.L61:
	movq	%rbp, %rdi
	call	_ZdlPv@PLT
.L62:
	movq	$0, (%rbx)
.L58:
	popq	%rax
	.cfi_def_cfa_offset 24
	popq	%rbx
	.cfi_def_cfa_offset 16
	popq	%rbp
	.cfi_def_cfa_offset 8
	ret
	.cfi_endproc
.LFE9617:
	.size	_ZN4asio6detail19descriptor_write_opINS_15const_buffers_1ENS0_8write_opINS_17basic_serial_portINS_19serial_port_serviceEEES2_NS0_14transfer_all_tENS0_15wrapped_handlerINS_10io_service6strandEZN7asiopal13SerialChannel14BeginWriteImplERKN7openpal6RSliceEEUlRKSt10error_codemE_NS0_26is_continuation_if_runningEEEEEE3ptr5resetEv.isra.0, .-_ZN4asio6detail19descriptor_write_opINS_15const_buffers_1ENS0_8write_opINS_17basic_serial_portINS_19serial_port_serviceEEES2_NS0_14transfer_all_tENS0_15wrapped_handlerINS_10io_service6strandEZN7asiopal13SerialChannel14BeginWriteImplERKN7openpal6RSliceEEUlRKSt10error_codemE_NS0_26is_continuation_if_runningEEEEEE3ptr5resetEv.isra.0
	.align 2
	.type	_ZN4asio6detail18completion_handlerINS0_7binder2IZN7asiopal13SerialChannel13BeginReadImplEN7openpal6WSliceEEUlRKSt10error_codemE_S7_mEEE3ptr5resetEv.isra.0, @function
_ZN4asio6detail18completion_handlerINS0_7binder2IZN7asiopal13SerialChannel13BeginReadImplEN7openpal6WSliceEEUlRKSt10error_codemE_S7_mEEE3ptr5resetEv.isra.0:
.LFB9533:
	.cfi_startproc
	pushq	%rbp
	.cfi_def_cfa_offset 16
	.cfi_offset 6, -16
	pushq	%rbx
	.cfi_def_cfa_offset 24
	.cfi_offset 3, -24
	movq	%rdi, %rbx
	pushq	%rdx
	.cfi_def_cfa_offset 32
	cmpq	$0, (%rsi)
	je	.L74
	movq	$0, (%rsi)
.L74:
	movq	(%rbx), %rbp
	testq	%rbp, %rbp
	je	.L73
	data16	leaq	_ZN4asio6detail15keyword_tss_ptrINS0_10call_stackINS0_15task_io_serviceENS0_27task_io_service_thread_infoEE7contextEE6value_E@tlsgd(%rip), %rdi
	.value	0x6666
	rex64
	call	__tls_get_addr@PLT
	movq	(%rax), %rax
	testq	%rax, %rax
	je	.L76
	movq	8(%rax), %rax
	testq	%rax, %rax
	je	.L76
	cmpq	$0, (%rax)
	jne	.L76
	movb	56(%rbp), %dl
	movb	%dl, 0(%rbp)
	movq	%rbp, (%rax)
	jmp	.L77
.L76:
	movq	%rbp, %rdi
	call	_ZdlPv@PLT
.L77:
	movq	$0, (%rbx)
.L73:
	popq	%rax
	.cfi_def_cfa_offset 24
	popq	%rbx
	.cfi_def_cfa_offset 16
	popq	%rbp
	.cfi_def_cfa_offset 8
	ret
	.cfi_endproc
.LFE9533:
	.size	_ZN4asio6detail18completion_handlerINS0_7binder2IZN7asiopal13SerialChannel13BeginReadImplEN7openpal6WSliceEEUlRKSt10error_codemE_S7_mEEE3ptr5resetEv.isra.0, .-_ZN4asio6detail18completion_handlerINS0_7binder2IZN7asiopal13SerialChannel13BeginReadImplEN7openpal6WSliceEEUlRKSt10error_codemE_S7_mEEE3ptr5resetEv.isra.0
	.align 2
	.type	_ZN4asio6detail18completion_handlerINS0_17rewrapped_handlerINS0_7binder2INS0_15wrapped_handlerINS_10io_service6strandEZN7asiopal13SerialChannel13BeginReadImplEN7openpal6WSliceEEUlRKSt10error_codemE_NS0_26is_continuation_if_runningEEESB_mEESE_EEE3ptr5resetEv.isra.0, @function
_ZN4asio6detail18completion_handlerINS0_17rewrapped_handlerINS0_7binder2INS0_15wrapped_handlerINS_10io_service6strandEZN7asiopal13SerialChannel13BeginReadImplEN7openpal6WSliceEEUlRKSt10error_codemE_NS0_26is_continuation_if_runningEEESB_mEESE_EEE3ptr5resetEv.isra.0:
.LFB9536:
	.cfi_startproc
	pushq	%rbp
	.cfi_def_cfa_offset 16
	.cfi_offset 6, -16
	pushq	%rbx
	.cfi_def_cfa_offset 24
	.cfi_offset 3, -24
	movq	%rdi, %rbx
	pushq	%rdx
	.cfi_def_cfa_offset 32
	cmpq	$0, (%rsi)
	je	.L89
	movq	$0, (%rsi)
.L89:
	movq	(%rbx), %rbp
	testq	%rbp, %rbp
	je	.L88
	data16	leaq	_ZN4asio6detail15keyword_tss_ptrINS0_10call_stackINS0_15task_io_serviceENS0_27task_io_service_thread_infoEE7contextEE6value_E@tlsgd(%rip), %rdi
	.value	0x6666
	rex64
	call	__tls_get_addr@PLT
	movq	(%rax), %rax
	testq	%rax, %rax
	je	.L91
	movq	8(%rax), %rax
	testq	%rax, %rax
	je	.L91
	cmpq	$0, (%rax)
	jne	.L91
	movb	80(%rbp), %dl
	movb	%dl, 0(%rbp)
	movq	%rbp, (%rax)
	jmp	.L92
.L91:
	movq	%rbp, %rdi
	call	_ZdlPv@PLT
.L92:
	movq	$0, (%rbx)
.L88:
	popq	%rax
	.cfi_def_cfa_offset 24
	popq	%rbx
	.cfi_def_cfa_offset 16
	popq	%rbp
	.cfi_def_cfa_offset 8
	ret
	.cfi_endproc
.LFE9536:
	.size	_ZN4asio6detail18completion_handlerINS0_17rewrapped_handlerINS0_7binder2INS0_15wrapped_handlerINS_10io_service6strandEZN7asiopal13SerialChannel13BeginReadImplEN7openpal6WSliceEEUlRKSt10error_codemE_NS0_26is_continuation_if_runningEEESB_mEESE_EEE3ptr5resetEv.isra.0, .-_ZN4asio6detail18completion_handlerINS0_17rewrapped_handlerINS0_7binder2INS0_15wrapped_handlerINS_10io_service6strandEZN7asiopal13SerialChannel13BeginReadImplEN7openpal6WSliceEEUlRKSt10error_codemE_NS0_26is_continuation_if_runningEEESB_mEESE_EEE3ptr5resetEv.isra.0
	.align 2
	.type	_ZN4asio6detail18completion_handlerINS0_17rewrapped_handlerINS0_7binder2INS0_8write_opINS_17basic_serial_portINS_19serial_port_serviceEEENS_15const_buffers_1ENS0_14transfer_all_tENS0_15wrapped_handlerINS_10io_service6strandEZN7asiopal13SerialChannel14BeginWriteImplERKN7openpal6RSliceEEUlRKSt10error_codemE_NS0_26is_continuation_if_runningEEEEESJ_mEESM_EEE3ptr5resetEv.isra.0, @function
_ZN4asio6detail18completion_handlerINS0_17rewrapped_handlerINS0_7binder2INS0_8write_opINS_17basic_serial_portINS_19serial_port_serviceEEENS_15const_buffers_1ENS0_14transfer_all_tENS0_15wrapped_handlerINS_10io_service6strandEZN7asiopal13SerialChannel14BeginWriteImplERKN7openpal6RSliceEEUlRKSt10error_codemE_NS0_26is_continuation_if_runningEEEEESJ_mEESM_EEE3ptr5resetEv.isra.0:
.LFB9544:
	.cfi_startproc
	pushq	%rbp
	.cfi_def_cfa_offset 16
	.cfi_offset 6, -16
	pushq	%rbx
	.cfi_def_cfa_offset 24
	.cfi_offset 3, -24
	movq	%rdi, %rbx
	pushq	%rdx
	.cfi_def_cfa_offset 32
	cmpq	$0, (%rsi)
	je	.L104
	movq	$0, (%rsi)
.L104:
	movq	(%rbx), %rbp
	testq	%rbp, %rbp
	je	.L103
	data16	leaq	_ZN4asio6detail15keyword_tss_ptrINS0_10call_stackINS0_15task_io_serviceENS0_27task_io_service_thread_infoEE7contextEE6value_E@tlsgd(%rip), %rdi
	.value	0x6666
	rex64
	call	__tls_get_addr@PLT
	movq	(%rax), %rax
	testq	%rax, %rax
	je	.L106
	movq	8(%rax), %rax
	testq	%rax, %rax
	je	.L106
	cmpq	$0, (%rax)
	jne	.L106
	movb	120(%rbp), %dl
	movb	%dl, 0(%rbp)
	movq	%rbp, (%rax)
	jmp	.L107
.L106:
	movq	%rbp, %rdi
	call	_ZdlPv@PLT
.L107:
	movq	$0, (%rbx)
.L103:
	popq	%rax
	.cfi_def_cfa_offset 24
	popq	%rbx
	.cfi_def_cfa_offset 16
	popq	%rbp
	.cfi_def_cfa_offset 8
	ret
	.cfi_endproc
.LFE9544:
	.size	_ZN4asio6detail18completion_handlerINS0_17rewrapped_handlerINS0_7binder2INS0_8write_opINS_17basic_serial_portINS_19serial_port_serviceEEENS_15const_buffers_1ENS0_14transfer_all_tENS0_15wrapped_handlerINS_10io_service6strandEZN7asiopal13SerialChannel14BeginWriteImplERKN7openpal6RSliceEEUlRKSt10error_codemE_NS0_26is_continuation_if_runningEEEEESJ_mEESM_EEE3ptr5resetEv.isra.0, .-_ZN4asio6detail18completion_handlerINS0_17rewrapped_handlerINS0_7binder2INS0_8write_opINS_17basic_serial_portINS_19serial_port_serviceEEENS_15const_buffers_1ENS0_14transfer_all_tENS0_15wrapped_handlerINS_10io_service6strandEZN7asiopal13SerialChannel14BeginWriteImplERKN7openpal6RSliceEEUlRKSt10error_codemE_NS0_26is_continuation_if_runningEEEEESJ_mEESM_EEE3ptr5resetEv.isra.0
	.section	.text._ZN4asio6detail13epoll_reactorD2Ev,"axG",@progbits,_ZN4asio6detail13epoll_reactorD5Ev,comdat
	.align 2
	.p2align 4
	.weak	_ZN4asio6detail13epoll_reactorD2Ev
	.type	_ZN4asio6detail13epoll_reactorD2Ev, @function
_ZN4asio6detail13epoll_reactorD2Ev:
.LFB3240:
	.cfi_startproc
	.cfi_personality 0x9b,DW.ref.__gxx_personality_v0
	.cfi_lsda 0x1b,.LLSDA3240
	endbr64
	pushq	%r15
	.cfi_def_cfa_offset 16
	.cfi_offset 15, -16
	pushq	%r14
	.cfi_def_cfa_offset 24
	.cfi_offset 14, -24
	pushq	%r13
	.cfi_def_cfa_offset 32
	.cfi_offset 13, -32
	pushq	%r12
	.cfi_def_cfa_offset 40
	.cfi_offset 12, -40
	pushq	%rbp
	.cfi_def_cfa_offset 48
	.cfi_offset 6, -48
	pushq	%rbx
	.cfi_def_cfa_offset 56
	.cfi_offset 3, -56
	movq	%rdi, %rbx
	subq	$56, %rsp
	.cfi_def_cfa_offset 112
	movq	%fs:40, %rax
	movq	%rax, 40(%rsp)
	xorl	%eax, %eax
	movq	_ZTVN4asio6detail13epoll_reactorE@GOTPCREL(%rip), %rax
	addq	$16, %rax
	movq	%rax, (%rdi)
	movl	96(%rdi), %edi
	cmpl	$-1, %edi
	je	.L119
	call	close@PLT
.L119:
	movl	100(%rbx), %edi
	cmpl	$-1, %edi
	je	.L120
	call	close@PLT
.L120:
	movq	160(%rbx), %rbp
	leaq	16(%rsp), %r14
	testq	%rbp, %rbp
	je	.L131
	.p2align 4,,10
	.p2align 3
.L121:
	movq	%rbp, %r12
	movq	24(%rbp), %rbp
	leaq	80(%r12), %rax
	leaq	128(%r12), %r15
	movq	%rax, (%rsp)
.L126:
	movq	(%r15), %rsi
	testq	%rsi, %rsi
	je	.L128
	movq	%rsi, 8(%rsp)
	call	_ZNSt3_V215system_categoryEv@PLT
	movq	8(%rsp), %rsi
	movq	%rax, %r13
	jmp	.L130
	.p2align 4,,10
	.p2align 3
.L127:
	movq	$0, (%rsi)
	movq	8(%rsi), %rax
	xorl	%ecx, %ecx
	movq	%r14, %rdx
	movl	$0, 16(%rsp)
	xorl	%edi, %edi
	movq	%r13, 24(%rsp)
	call	*%rax
	movq	(%r15), %rsi
	testq	%rsi, %rsi
	je	.L128
.L130:
	movq	(%rsi), %rax
	movq	%rax, (%r15)
	testq	%rax, %rax
	jne	.L127
	movq	$0, 8(%r15)
	jmp	.L127
	.p2align 4,,10
	.p2align 3
.L128:
	subq	$16, %r15
	cmpq	(%rsp), %r15
	jne	.L126
	leaq	40(%r12), %rdi
	call	pthread_mutex_destroy@PLT
	movl	$152, %esi
	movq	%r12, %rdi
	call	_ZdlPvm@PLT
	testq	%rbp, %rbp
	jne	.L121
.L131:
	movq	168(%rbx), %rbp
	testq	%rbp, %rbp
	je	.L122
	leaq	16(%rsp), %r14
	.p2align 4,,10
	.p2align 3
.L123:
	movq	%rbp, %r12
	movq	24(%rbp), %rbp
	leaq	80(%r12), %rax
	leaq	128(%r12), %r15
	movq	%rax, (%rsp)
.L136:
	movq	(%r15), %rsi
	testq	%rsi, %rsi
	je	.L138
	movq	%rsi, 8(%rsp)
	call	_ZNSt3_V215system_categoryEv@PLT
	movq	8(%rsp), %rsi
	movq	%rax, %r13
	jmp	.L140
	.p2align 4,,10
	.p2align 3
.L137:
	movq	$0, (%rsi)
	movq	8(%rsi), %rax
	xorl	%ecx, %ecx
	movq	%r14, %rdx
	movl	$0, 16(%rsp)
	xorl	%edi, %edi
	movq	%r13, 24(%rsp)
	call	*%rax
	movq	(%r15), %rsi
	testq	%rsi, %rsi
	je	.L138
.L140:
	movq	(%rsi), %rax
	movq	%rax, (%r15)
	testq	%rax, %rax
	jne	.L137
	movq	$0, 8(%r15)
	jmp	.L137
	.p2align 4,,10
	.p2align 3
.L138:
	subq	$16, %r15
	cmpq	(%rsp), %r15
	jne	.L136
	leaq	40(%r12), %rdi
	call	pthread_mutex_destroy@PLT
	movl	$152, %esi
	movq	%r12, %rdi
	call	_ZdlPvm@PLT
	testq	%rbp, %rbp
	jne	.L123
.L122:
	leaq	120(%rbx), %rdi
	call	pthread_mutex_destroy@PLT
	movl	92(%rbx), %r8d
	cmpl	$-1, %r8d
	je	.L180
	movl	88(%rbx), %edi
	cmpl	%edi, %r8d
	jne	.L181
.L142:
	call	close@PLT
	jmp	.L143
	.p2align 4,,10
	.p2align 3
.L181:
	movl	%r8d, %edi
	call	close@PLT
.L180:
	movl	88(%rbx), %edi
	cmpl	$-1, %edi
	jne	.L142
.L143:
	leaq	48(%rbx), %rdi
	call	pthread_mutex_destroy@PLT
	movq	40(%rsp), %rax
	xorq	%fs:40, %rax
	jne	.L182
	addq	$56, %rsp
	.cfi_remember_state
	.cfi_def_cfa_offset 56
	popq	%rbx
	.cfi_def_cfa_offset 48
	popq	%rbp
	.cfi_def_cfa_offset 40
	popq	%r12
	.cfi_def_cfa_offset 32
	popq	%r13
	.cfi_def_cfa_offset 24
	popq	%r14
	.cfi_def_cfa_offset 16
	popq	%r15
	.cfi_def_cfa_offset 8
	ret
.L182:
	.cfi_restore_state
	call	__stack_chk_fail@PLT
	.cfi_endproc
.LFE3240:
	.globl	__gxx_personality_v0
	.section	.gcc_except_table._ZN4asio6detail13epoll_reactorD2Ev,"aG",@progbits,_ZN4asio6detail13epoll_reactorD5Ev,comdat
.LLSDA3240:
	.byte	0xff
	.byte	0xff
	.byte	0x1
	.uleb128 .LLSDACSE3240-.LLSDACSB3240
.LLSDACSB3240:
.LLSDACSE3240:
	.section	.text._ZN4asio6detail13epoll_reactorD2Ev,"axG",@progbits,_ZN4asio6detail13epoll_reactorD5Ev,comdat
	.size	_ZN4asio6detail13epoll_reactorD2Ev, .-_ZN4asio6detail13epoll_reactorD2Ev
	.weak	_ZN4asio6detail13epoll_reactorD1Ev
	.set	_ZN4asio6detail13epoll_reactorD1Ev,_ZN4asio6detail13epoll_reactorD2Ev
	.section	.text._ZN4asio6detail13epoll_reactor16shutdown_serviceEv,"axG",@progbits,_ZN4asio6detail13epoll_reactor16shutdown_serviceEv,comdat
	.align 2
	.p2align 4
	.weak	_ZN4asio6detail13epoll_reactor16shutdown_serviceEv
	.type	_ZN4asio6detail13epoll_reactor16shutdown_serviceEv, @function
_ZN4asio6detail13epoll_reactor16shutdown_serviceEv:
.LFB3243:
	.cfi_startproc
	.cfi_personality 0x9b,DW.ref.__gxx_personality_v0
	.cfi_lsda 0x1b,.LLSDA3243
	endbr64
	pushq	%r13
	.cfi_def_cfa_offset 16
	.cfi_offset 13, -16
	pushq	%r12
	.cfi_def_cfa_offset 24
	.cfi_offset 12, -24
	pushq	%rbp
	.cfi_def_cfa_offset 32
	.cfi_offset 6, -32
	leaq	48(%rdi), %rbp
	pushq	%rbx
	.cfi_def_cfa_offset 40
	.cfi_offset 3, -40
	movq	%rdi, %rbx
	movq	%rbp, %rdi
	subq	$72, %rsp
	.cfi_def_cfa_offset 112
	movq	%fs:40, %rax
	movq	%rax, 56(%rsp)
	xorl	%eax, %eax
	call	pthread_mutex_lock@PLT
	movb	$1, 112(%rbx)
	movq	%rbp, %rdi
	call	pthread_mutex_unlock@PLT
	movq	160(%rbx), %rax
	pxor	%xmm0, %xmm0
	movaps	%xmm0, 16(%rsp)
	testq	%rax, %rax
	je	.L259
	xorl	%esi, %esi
	xorl	%edx, %edx
	xorl	%r9d, %r9d
	xorl	%r8d, %r8d
	pxor	%xmm0, %xmm0
	jmp	.L184
	.p2align 4,,10
	.p2align 3
.L188:
	movq	%rcx, (%rdx)
.L189:
	movq	104(%rax), %rdx
	movl	$1, %esi
	movups	%xmm0, 96(%rax)
.L187:
	movq	112(%rax), %rcx
	testq	%rcx, %rcx
	je	.L190
	testq	%rdx, %rdx
	je	.L260
	movq	%rcx, (%rdx)
.L192:
	movq	120(%rax), %rdx
	movl	$1, %esi
	movups	%xmm0, 112(%rax)
.L190:
	movq	128(%rax), %rcx
	testq	%rcx, %rcx
	je	.L193
	testq	%rdx, %rdx
	je	.L261
	movq	%rcx, (%rdx)
.L195:
	movq	136(%rax), %rdx
	movl	$1, %esi
	movups	%xmm0, 128(%rax)
.L193:
	movq	24(%rax), %rcx
	movb	$1, 144(%rax)
	movq	%rcx, 160(%rbx)
	movq	32(%rax), %rcx
	testq	%rcx, %rcx
	je	.L196
	movq	24(%rax), %rdi
	movq	%rdi, 24(%rcx)
.L196:
	movq	24(%rax), %rcx
	testq	%rcx, %rcx
	je	.L197
	movq	32(%rax), %rdi
	movq	%rdi, 32(%rcx)
.L197:
	movq	168(%rbx), %rcx
	movq	$0, 32(%rax)
	movq	%rcx, 24(%rax)
	movq	%rax, 168(%rbx)
	movq	160(%rbx), %rax
	testq	%rax, %rax
	je	.L262
.L184:
	movq	96(%rax), %rcx
	testq	%rcx, %rcx
	je	.L187
	testq	%rdx, %rdx
	jne	.L188
	movq	%rcx, %r8
	movl	$1, %r9d
	jmp	.L189
	.p2align 4,,10
	.p2align 3
.L261:
	movq	%rcx, %r8
	movl	$1, %r9d
	jmp	.L195
	.p2align 4,,10
	.p2align 3
.L260:
	movq	%rcx, %r8
	movl	$1, %r9d
	jmp	.L192
	.p2align 4,,10
	.p2align 3
.L262:
	xorl	%ebp, %ebp
	testb	%r9b, %r9b
	je	.L200
	movq	%r8, 16(%rsp)
	movq	%r8, %rbp
.L200:
	testb	%sil, %sil
	je	.L201
	movq	%rdx, 24(%rsp)
.L201:
	movq	104(%rbx), %rbx
	testq	%rbx, %rbx
	je	.L202
.L186:
	leaq	16(%rsp), %rbp
	.p2align 4,,10
	.p2align 3
.L203:
	movq	(%rbx), %rax
	movq	%rbp, %rsi
	movq	%rbx, %rdi
.LEHB0:
	call	*48(%rax)
.LEHE0:
	movq	8(%rbx), %rbx
	testq	%rbx, %rbx
	jne	.L203
	movq	16(%rsp), %rbp
.L202:
	testq	%rbp, %rbp
	je	.L183
	pxor	%xmm0, %xmm0
	leaq	32(%rsp), %rbx
	movaps	%xmm0, 16(%rsp)
	call	_ZNSt3_V215system_categoryEv@PLT
	movq	%rax, %r12
	.p2align 4,,10
	.p2align 3
.L204:
	movq	%rbp, %rsi
	movq	0(%rbp), %rbp
	xorl	%ecx, %ecx
	xorl	%edi, %edi
	movq	$0, (%rsi)
	movq	8(%rsi), %rax
	movq	%rbx, %rdx
	movl	$0, 32(%rsp)
	movq	%r12, 40(%rsp)
	call	*%rax
	testq	%rbp, %rbp
	jne	.L204
	movq	16(%rsp), %rsi
	testq	%rsi, %rsi
	movq	%rsi, 8(%rsp)
	je	.L183
	call	_ZNSt3_V215system_categoryEv@PLT
	movq	8(%rsp), %rsi
	movq	%rax, %rbp
	jmp	.L209
	.p2align 4,,10
	.p2align 3
.L206:
	movq	$0, (%rsi)
	movq	8(%rsi), %rax
	xorl	%ecx, %ecx
	movq	%rbx, %rdx
	movl	$0, 32(%rsp)
	xorl	%edi, %edi
	movq	%rbp, 40(%rsp)
	call	*%rax
	movq	16(%rsp), %rsi
	testq	%rsi, %rsi
	je	.L183
.L209:
	movq	(%rsi), %rax
	movq	%rax, 16(%rsp)
	testq	%rax, %rax
	jne	.L206
	movq	$0, 24(%rsp)
	jmp	.L206
.L259:
	movq	104(%rbx), %rbx
	testq	%rbx, %rbx
	jne	.L186
	.p2align 4,,10
	.p2align 3
.L183:
	movq	56(%rsp), %rax
	xorq	%fs:40, %rax
	jne	.L263
	addq	$72, %rsp
	.cfi_remember_state
	.cfi_def_cfa_offset 40
	popq	%rbx
	.cfi_def_cfa_offset 32
	popq	%rbp
	.cfi_def_cfa_offset 24
	popq	%r12
	.cfi_def_cfa_offset 16
	popq	%r13
	.cfi_def_cfa_offset 8
	ret
.L263:
	.cfi_restore_state
	call	__stack_chk_fail@PLT
.L216:
	endbr64
	movq	%rax, %r12
	leaq	32(%rsp), %rbx
.L210:
	movq	16(%rsp), %rbp
	testq	%rbp, %rbp
	jne	.L264
	movq	%r12, %rdi
.LEHB1:
	call	_Unwind_Resume@PLT
.LEHE1:
.L264:
	movq	0(%rbp), %rax
	movq	%rax, 16(%rsp)
	testq	%rax, %rax
	jne	.L212
	movq	$0, 24(%rsp)
.L212:
	movq	$0, 0(%rbp)
	movq	8(%rbp), %r13
	movl	$0, 32(%rsp)
	call	_ZNSt3_V215system_categoryEv@PLT
	xorl	%ecx, %ecx
	movq	%rbx, %rdx
	movq	%rbp, %rsi
	movq	%rax, 40(%rsp)
	xorl	%edi, %edi
	call	*%r13
	jmp	.L210
	.cfi_endproc
.LFE3243:
	.section	.gcc_except_table._ZN4asio6detail13epoll_reactor16shutdown_serviceEv,"aG",@progbits,_ZN4asio6detail13epoll_reactor16shutdown_serviceEv,comdat
.LLSDA3243:
	.byte	0xff
	.byte	0xff
	.byte	0x1
	.uleb128 .LLSDACSE3243-.LLSDACSB3243
.LLSDACSB3243:
	.uleb128 .LEHB0-.LFB3243
	.uleb128 .LEHE0-.LEHB0
	.uleb128 .L216-.LFB3243
	.uleb128 0
	.uleb128 .LEHB1-.LFB3243
	.uleb128 .LEHE1-.LEHB1
	.uleb128 0
	.uleb128 0
.LLSDACSE3243:
	.section	.text._ZN4asio6detail13epoll_reactor16shutdown_serviceEv,"axG",@progbits,_ZN4asio6detail13epoll_reactor16shutdown_serviceEv,comdat
	.size	_ZN4asio6detail13epoll_reactor16shutdown_serviceEv, .-_ZN4asio6detail13epoll_reactor16shutdown_serviceEv
	.section	.text.unlikely
.LCOLDB4:
	.text
.LHOTB4:
	.p2align 4
	.type	_ZN4asio6detail18completion_handlerINS0_7binder2IZN7asiopal13SerialChannel13BeginReadImplEN7openpal6WSliceEEUlRKSt10error_codemE_S7_mEEE11do_completeEPNS0_15task_io_serviceEPNS0_25task_io_service_operationES9_m, @function
_ZN4asio6detail18completion_handlerINS0_7binder2IZN7asiopal13SerialChannel13BeginReadImplEN7openpal6WSliceEEUlRKSt10error_codemE_S7_mEEE11do_completeEPNS0_15task_io_serviceEPNS0_25task_io_service_operationES9_m:
.LFB9237:
	.cfi_startproc
	.cfi_personality 0x9b,DW.ref.__gxx_personality_v0
	.cfi_lsda 0x1b,.LLSDA9237
	endbr64
	pushq	%rbp
	.cfi_def_cfa_offset 16
	.cfi_offset 6, -16
	movq	%rsi, %rbp
	pushq	%rbx
	.cfi_def_cfa_offset 24
	.cfi_offset 3, -24
	movq	%rdi, %rbx
	subq	$88, %rsp
	.cfi_def_cfa_offset 112
	movdqu	24(%rsi), %xmm0
	movdqu	40(%rsi), %xmm1
	movq	%fs:40, %rax
	movq	%rax, 72(%rsp)
	xorl	%eax, %eax
	leaq	32(%rsp), %rax
	movq	%rsi, 8(%rsp)
	movq	%rax, (%rsp)
	movq	$0, 16(%rsp)
	movaps	%xmm0, 32(%rsp)
	movaps	%xmm1, 48(%rsp)
	data16	leaq	_ZN4asio6detail15keyword_tss_ptrINS0_10call_stackINS0_15task_io_serviceENS0_27task_io_service_thread_infoEE7contextEE6value_E@tlsgd(%rip), %rdi
	.value	0x6666
	rex64
	call	__tls_get_addr@PLT
	movq	(%rax), %rax
	testq	%rax, %rax
	je	.L266
	movq	8(%rax), %rax
	testq	%rax, %rax
	je	.L266
	cmpq	$0, (%rax)
	je	.L297
.L266:
	movq	%rbp, %rdi
	call	_ZdlPv@PLT
.L267:
	movq	$0, 8(%rsp)
	testq	%rbx, %rbx
	je	.L265
	movq	32(%rsp), %rax
	movq	56(%rsp), %rdx
	movq	40(%rax), %rdi
	movb	$0, 57(%rax)
	testq	%rdi, %rdi
	je	.L272
	cmpb	$0, 56(%rax)
	je	.L298
.L272:
	sfence
	cmpq	$0, 16(%rsp)
	je	.L299
.L270:
	movq	$0, 16(%rsp)
	movq	8(%rsp), %rbp
.L273:
	testq	%rbp, %rbp
	je	.L265
	data16	leaq	_ZN4asio6detail15keyword_tss_ptrINS0_10call_stackINS0_15task_io_serviceENS0_27task_io_service_thread_infoEE7contextEE6value_E@tlsgd(%rip), %rdi
	.value	0x6666
	rex64
	call	__tls_get_addr@PLT
	movq	(%rax), %rax
	testq	%rax, %rax
	je	.L276
	movq	8(%rax), %rax
	testq	%rax, %rax
	je	.L276
	cmpq	$0, (%rax)
	je	.L300
.L276:
	movq	%rbp, %rdi
	call	_ZdlPv@PLT
.L265:
	movq	72(%rsp), %rax
	xorq	%fs:40, %rax
	jne	.L301
	addq	$88, %rsp
	.cfi_remember_state
	.cfi_def_cfa_offset 24
	popq	%rbx
	.cfi_def_cfa_offset 16
	popq	%rbp
	.cfi_def_cfa_offset 8
	ret
	.p2align 4,,10
	.p2align 3
.L298:
	.cfi_restore_state
	movq	(%rdi), %rax
	leaq	40(%rsp), %rsi
.LEHB2:
	call	*16(%rax)
.LEHE2:
	sfence
	cmpq	$0, 16(%rsp)
	jne	.L270
.L299:
	movq	8(%rsp), %rbp
	jmp	.L273
	.p2align 4,,10
	.p2align 3
.L297:
	movzbl	56(%rbp), %edx
	movb	%dl, 0(%rbp)
	movq	%rbp, (%rax)
	jmp	.L267
	.p2align 4,,10
	.p2align 3
.L300:
	movzbl	56(%rbp), %edx
	movb	%dl, 0(%rbp)
	movq	%rbp, (%rax)
	jmp	.L265
.L301:
	call	__stack_chk_fail@PLT
.L279:
	endbr64
	movq	%rax, %rbp
	jmp	.L277
	.section	.gcc_except_table,"a",@progbits
.LLSDA9237:
	.byte	0xff
	.byte	0xff
	.byte	0x1
	.uleb128 .LLSDACSE9237-.LLSDACSB9237
.LLSDACSB9237:
	.uleb128 .LEHB2-.LFB9237
	.uleb128 .LEHE2-.LEHB2
	.uleb128 .L279-.LFB9237
	.uleb128 0
.LLSDACSE9237:
	.text
	.cfi_endproc
	.section	.text.unlikely
	.cfi_startproc
	.cfi_personality 0x9b,DW.ref.__gxx_personality_v0
	.cfi_lsda 0x1b,.LLSDAC9237
	.type	_ZN4asio6detail18completion_handlerINS0_7binder2IZN7asiopal13SerialChannel13BeginReadImplEN7openpal6WSliceEEUlRKSt10error_codemE_S7_mEEE11do_completeEPNS0_15task_io_serviceEPNS0_25task_io_service_operationES9_m.cold, @function
_ZN4asio6detail18completion_handlerINS0_7binder2IZN7asiopal13SerialChannel13BeginReadImplEN7openpal6WSliceEEUlRKSt10error_codemE_S7_mEEE11do_completeEPNS0_15task_io_serviceEPNS0_25task_io_service_operationES9_m.cold:
.LFSB9237:
.L277:
	.cfi_def_cfa_offset 112
	.cfi_offset 3, -24
	.cfi_offset 6, -16
	sfence
	leaq	8(%rsp), %rdi
	leaq	16(%rsp), %rsi
	call	_ZN4asio6detail18completion_handlerINS0_7binder2IZN7asiopal13SerialChannel13BeginReadImplEN7openpal6WSliceEEUlRKSt10error_codemE_S7_mEEE3ptr5resetEv.isra.0
	movq	%rbp, %rdi
.LEHB3:
	call	_Unwind_Resume@PLT
.LEHE3:
	.cfi_endproc
.LFE9237:
	.section	.gcc_except_table
.LLSDAC9237:
	.byte	0xff
	.byte	0xff
	.byte	0x1
	.uleb128 .LLSDACSEC9237-.LLSDACSBC9237
.LLSDACSBC9237:
	.uleb128 .LEHB3-.LCOLDB4
	.uleb128 .LEHE3-.LEHB3
	.uleb128 0
	.uleb128 0
.LLSDACSEC9237:
	.section	.text.unlikely
	.text
	.size	_ZN4asio6detail18completion_handlerINS0_7binder2IZN7asiopal13SerialChannel13BeginReadImplEN7openpal6WSliceEEUlRKSt10error_codemE_S7_mEEE11do_completeEPNS0_15task_io_serviceEPNS0_25task_io_service_operationES9_m, .-_ZN4asio6detail18completion_handlerINS0_7binder2IZN7asiopal13SerialChannel13BeginReadImplEN7openpal6WSliceEEUlRKSt10error_codemE_S7_mEEE11do_completeEPNS0_15task_io_serviceEPNS0_25task_io_service_operationES9_m
	.section	.text.unlikely
	.size	_ZN4asio6detail18completion_handlerINS0_7binder2IZN7asiopal13SerialChannel13BeginReadImplEN7openpal6WSliceEEUlRKSt10error_codemE_S7_mEEE11do_completeEPNS0_15task_io_serviceEPNS0_25task_io_service_operationES9_m.cold, .-_ZN4asio6detail18completion_handlerINS0_7binder2IZN7asiopal13SerialChannel13BeginReadImplEN7openpal6WSliceEEUlRKSt10error_codemE_S7_mEEE11do_completeEPNS0_15task_io_serviceEPNS0_25task_io_service_operationES9_m.cold
.LCOLDE4:
	.text
.LHOTE4:
	.section	.text.unlikely
.LCOLDB5:
	.text
.LHOTB5:
	.p2align 4
	.type	_ZN4asio6detail18completion_handlerINS0_7binder2IZN7asiopal13SerialChannel14BeginWriteImplERKN7openpal6RSliceEEUlRKSt10error_codemE_S9_mEEE11do_completeEPNS0_15task_io_serviceEPNS0_25task_io_service_operationESB_m, @function
_ZN4asio6detail18completion_handlerINS0_7binder2IZN7asiopal13SerialChannel14BeginWriteImplERKN7openpal6RSliceEEUlRKSt10error_codemE_S9_mEEE11do_completeEPNS0_15task_io_serviceEPNS0_25task_io_service_operationESB_m:
.LFB8879:
	.cfi_startproc
	.cfi_personality 0x9b,DW.ref.__gxx_personality_v0
	.cfi_lsda 0x1b,.LLSDA8879
	endbr64
	pushq	%rbp
	.cfi_def_cfa_offset 16
	.cfi_offset 6, -16
	movq	%rsi, %rbp
	pushq	%rbx
	.cfi_def_cfa_offset 24
	.cfi_offset 3, -24
	movq	%rdi, %rbx
	subq	$88, %rsp
	.cfi_def_cfa_offset 112
	movdqu	24(%rsi), %xmm0
	movdqu	40(%rsi), %xmm1
	movq	%fs:40, %rax
	movq	%rax, 72(%rsp)
	xorl	%eax, %eax
	leaq	32(%rsp), %rax
	movq	%rsi, 8(%rsp)
	movq	%rax, (%rsp)
	movq	$0, 16(%rsp)
	movaps	%xmm0, 32(%rsp)
	movaps	%xmm1, 48(%rsp)
	data16	leaq	_ZN4asio6detail15keyword_tss_ptrINS0_10call_stackINS0_15task_io_serviceENS0_27task_io_service_thread_infoEE7contextEE6value_E@tlsgd(%rip), %rdi
	.value	0x6666
	rex64
	call	__tls_get_addr@PLT
	movq	(%rax), %rax
	testq	%rax, %rax
	je	.L303
	movq	8(%rax), %rax
	testq	%rax, %rax
	je	.L303
	cmpq	$0, (%rax)
	je	.L334
.L303:
	movq	%rbp, %rdi
	call	_ZdlPv@PLT
.L304:
	movq	$0, 8(%rsp)
	testq	%rbx, %rbx
	je	.L302
	movq	32(%rsp), %rax
	movq	56(%rsp), %rdx
	movq	40(%rax), %rdi
	movb	$0, 58(%rax)
	testq	%rdi, %rdi
	je	.L309
	cmpb	$0, 56(%rax)
	je	.L335
.L309:
	sfence
	cmpq	$0, 16(%rsp)
	je	.L336
.L307:
	movq	$0, 16(%rsp)
	movq	8(%rsp), %rbp
.L310:
	testq	%rbp, %rbp
	je	.L302
	data16	leaq	_ZN4asio6detail15keyword_tss_ptrINS0_10call_stackINS0_15task_io_serviceENS0_27task_io_service_thread_infoEE7contextEE6value_E@tlsgd(%rip), %rdi
	.value	0x6666
	rex64
	call	__tls_get_addr@PLT
	movq	(%rax), %rax
	testq	%rax, %rax
	je	.L313
	movq	8(%rax), %rax
	testq	%rax, %rax
	je	.L313
	cmpq	$0, (%rax)
	je	.L337
.L313:
	movq	%rbp, %rdi
	call	_ZdlPv@PLT
.L302:
	movq	72(%rsp), %rax
	xorq	%fs:40, %rax
	jne	.L338
	addq	$88, %rsp
	.cfi_remember_state
	.cfi_def_cfa_offset 24
	popq	%rbx
	.cfi_def_cfa_offset 16
	popq	%rbp
	.cfi_def_cfa_offset 8
	ret
	.p2align 4,,10
	.p2align 3
.L335:
	.cfi_restore_state
	movq	(%rdi), %rax
	leaq	40(%rsp), %rsi
.LEHB4:
	call	*24(%rax)
.LEHE4:
	sfence
	cmpq	$0, 16(%rsp)
	jne	.L307
.L336:
	movq	8(%rsp), %rbp
	jmp	.L310
	.p2align 4,,10
	.p2align 3
.L334:
	movzbl	56(%rbp), %edx
	movb	%dl, 0(%rbp)
	movq	%rbp, (%rax)
	jmp	.L304
	.p2align 4,,10
	.p2align 3
.L337:
	movzbl	56(%rbp), %edx
	movb	%dl, 0(%rbp)
	movq	%rbp, (%rax)
	jmp	.L302
.L338:
	call	__stack_chk_fail@PLT
.L316:
	endbr64
	movq	%rax, %rbp
	jmp	.L314
	.section	.gcc_except_table
.LLSDA8879:
	.byte	0xff
	.byte	0xff
	.byte	0x1
	.uleb128 .LLSDACSE8879-.LLSDACSB8879
.LLSDACSB8879:
	.uleb128 .LEHB4-.LFB8879
	.uleb128 .LEHE4-.LEHB4
	.uleb128 .L316-.LFB8879
	.uleb128 0
.LLSDACSE8879:
	.text
	.cfi_endproc
	.section	.text.unlikely
	.cfi_startproc
	.cfi_personality 0x9b,DW.ref.__gxx_personality_v0
	.cfi_lsda 0x1b,.LLSDAC8879
	.type	_ZN4asio6detail18completion_handlerINS0_7binder2IZN7asiopal13SerialChannel14BeginWriteImplERKN7openpal6RSliceEEUlRKSt10error_codemE_S9_mEEE11do_completeEPNS0_15task_io_serviceEPNS0_25task_io_service_operationESB_m.cold, @function
_ZN4asio6detail18completion_handlerINS0_7binder2IZN7asiopal13SerialChannel14BeginWriteImplERKN7openpal6RSliceEEUlRKSt10error_codemE_S9_mEEE11do_completeEPNS0_15task_io_serviceEPNS0_25task_io_service_operationESB_m.cold:
.LFSB8879:
.L314:
	.cfi_def_cfa_offset 112
	.cfi_offset 3, -24
	.cfi_offset 6, -16
	sfence
	leaq	8(%rsp), %rdi
	leaq	16(%rsp), %rsi
	call	_ZN4asio6detail18completion_handlerINS0_7binder2IZN7asiopal13SerialChannel14BeginWriteImplERKN7openpal6RSliceEEUlRKSt10error_codemE_S9_mEEE3ptr5resetEv.isra.0
	movq	%rbp, %rdi
.LEHB5:
	call	_Unwind_Resume@PLT
.LEHE5:
	.cfi_endproc
.LFE8879:
	.section	.gcc_except_table
.LLSDAC8879:
	.byte	0xff
	.byte	0xff
	.byte	0x1
	.uleb128 .LLSDACSEC8879-.LLSDACSBC8879
.LLSDACSBC8879:
	.uleb128 .LEHB5-.LCOLDB5
	.uleb128 .LEHE5-.LEHB5
	.uleb128 0
	.uleb128 0
.LLSDACSEC8879:
	.section	.text.unlikely
	.text
	.size	_ZN4asio6detail18completion_handlerINS0_7binder2IZN7asiopal13SerialChannel14BeginWriteImplERKN7openpal6RSliceEEUlRKSt10error_codemE_S9_mEEE11do_completeEPNS0_15task_io_serviceEPNS0_25task_io_service_operationESB_m, .-_ZN4asio6detail18completion_handlerINS0_7binder2IZN7asiopal13SerialChannel14BeginWriteImplERKN7openpal6RSliceEEUlRKSt10error_codemE_S9_mEEE11do_completeEPNS0_15task_io_serviceEPNS0_25task_io_service_operationESB_m
	.section	.text.unlikely
	.size	_ZN4asio6detail18completion_handlerINS0_7binder2IZN7asiopal13SerialChannel14BeginWriteImplERKN7openpal6RSliceEEUlRKSt10error_codemE_S9_mEEE11do_completeEPNS0_15task_io_serviceEPNS0_25task_io_service_operationESB_m.cold, .-_ZN4asio6detail18completion_handlerINS0_7binder2IZN7asiopal13SerialChannel14BeginWriteImplERKN7openpal6RSliceEEUlRKSt10error_codemE_S9_mEEE11do_completeEPNS0_15task_io_serviceEPNS0_25task_io_service_operationESB_m.cold
.LCOLDE5:
	.text
.LHOTE5:
	.section	.text._ZN4asio6detail13epoll_reactorD0Ev,"axG",@progbits,_ZN4asio6detail13epoll_reactorD5Ev,comdat
	.align 2
	.p2align 4
	.weak	_ZN4asio6detail13epoll_reactorD0Ev
	.type	_ZN4asio6detail13epoll_reactorD0Ev, @function
_ZN4asio6detail13epoll_reactorD0Ev:
.LFB3242:
	.cfi_startproc
	.cfi_personality 0x9b,DW.ref.__gxx_personality_v0
	.cfi_lsda 0x1b,.LLSDA3242
	endbr64
	pushq	%r15
	.cfi_def_cfa_offset 16
	.cfi_offset 15, -16
	pushq	%r14
	.cfi_def_cfa_offset 24
	.cfi_offset 14, -24
	pushq	%r13
	.cfi_def_cfa_offset 32
	.cfi_offset 13, -32
	pushq	%r12
	.cfi_def_cfa_offset 40
	.cfi_offset 12, -40
	pushq	%rbp
	.cfi_def_cfa_offset 48
	.cfi_offset 6, -48
	movq	%rdi, %rbp
	pushq	%rbx
	.cfi_def_cfa_offset 56
	.cfi_offset 3, -56
	subq	$56, %rsp
	.cfi_def_cfa_offset 112
	movq	%fs:40, %rax
	movq	%rax, 40(%rsp)
	xorl	%eax, %eax
	movq	_ZTVN4asio6detail13epoll_reactorE@GOTPCREL(%rip), %rax
	addq	$16, %rax
	movq	%rax, (%rdi)
	movl	96(%rdi), %edi
	cmpl	$-1, %edi
	je	.L340
	call	close@PLT
.L340:
	movl	100(%rbp), %edi
	cmpl	$-1, %edi
	je	.L341
	call	close@PLT
.L341:
	movq	160(%rbp), %rbx
	leaq	16(%rsp), %r14
	testq	%rbx, %rbx
	je	.L352
	.p2align 4,,10
	.p2align 3
.L342:
	movq	%rbx, %r12
	movq	24(%rbx), %rbx
	leaq	96(%r12), %rax
	leaq	144(%r12), %r15
	movq	%rax, (%rsp)
.L347:
	movq	-16(%r15), %rsi
	subq	$16, %r15
	testq	%rsi, %rsi
	je	.L349
	movq	%rsi, 8(%rsp)
	call	_ZNSt3_V215system_categoryEv@PLT
	movq	8(%rsp), %rsi
	movq	%rax, %r13
	jmp	.L351
	.p2align 4,,10
	.p2align 3
.L348:
	movq	$0, (%rsi)
	movq	8(%rsi), %rax
	xorl	%ecx, %ecx
	movq	%r14, %rdx
	movl	$0, 16(%rsp)
	xorl	%edi, %edi
	movq	%r13, 24(%rsp)
	call	*%rax
	movq	(%r15), %rsi
	testq	%rsi, %rsi
	je	.L349
.L351:
	movq	(%rsi), %rax
	movq	%rax, (%r15)
	testq	%rax, %rax
	jne	.L348
	movq	$0, 8(%r15)
	jmp	.L348
	.p2align 4,,10
	.p2align 3
.L349:
	cmpq	(%rsp), %r15
	jne	.L347
	leaq	40(%r12), %rdi
	call	pthread_mutex_destroy@PLT
	movl	$152, %esi
	movq	%r12, %rdi
	call	_ZdlPvm@PLT
	testq	%rbx, %rbx
	jne	.L342
.L352:
	movq	168(%rbp), %rbx
	testq	%rbx, %rbx
	je	.L343
	leaq	16(%rsp), %r14
	.p2align 4,,10
	.p2align 3
.L344:
	movq	%rbx, %r12
	movq	24(%rbx), %rbx
	leaq	80(%r12), %rax
	leaq	128(%r12), %r15
	movq	%rax, (%rsp)
.L357:
	movq	(%r15), %rsi
	testq	%rsi, %rsi
	je	.L359
	movq	%rsi, 8(%rsp)
	call	_ZNSt3_V215system_categoryEv@PLT
	movq	8(%rsp), %rsi
	movq	%rax, %r13
	jmp	.L361
	.p2align 4,,10
	.p2align 3
.L358:
	movq	$0, (%rsi)
	movq	8(%rsi), %rax
	xorl	%ecx, %ecx
	movq	%r14, %rdx
	movl	$0, 16(%rsp)
	xorl	%edi, %edi
	movq	%r13, 24(%rsp)
	call	*%rax
	movq	(%r15), %rsi
	testq	%rsi, %rsi
	je	.L359
.L361:
	movq	(%rsi), %rax
	movq	%rax, (%r15)
	testq	%rax, %rax
	jne	.L358
	movq	$0, 8(%r15)
	jmp	.L358
	.p2align 4,,10
	.p2align 3
.L359:
	subq	$16, %r15
	cmpq	(%rsp), %r15
	jne	.L357
	leaq	40(%r12), %rdi
	call	pthread_mutex_destroy@PLT
	movl	$152, %esi
	movq	%r12, %rdi
	call	_ZdlPvm@PLT
	testq	%rbx, %rbx
	jne	.L344
.L343:
	leaq	120(%rbp), %rdi
	call	pthread_mutex_destroy@PLT
	movl	92(%rbp), %r8d
	cmpl	$-1, %r8d
	je	.L401
	movl	88(%rbp), %edi
	cmpl	%edi, %r8d
	jne	.L402
.L363:
	call	close@PLT
	jmp	.L364
	.p2align 4,,10
	.p2align 3
.L402:
	movl	%r8d, %edi
	call	close@PLT
.L401:
	movl	88(%rbp), %edi
	cmpl	$-1, %edi
	jne	.L363
.L364:
	leaq	48(%rbp), %rdi
	call	pthread_mutex_destroy@PLT
	movl	$176, %esi
	movq	%rbp, %rdi
	call	_ZdlPvm@PLT
	movq	40(%rsp), %rax
	xorq	%fs:40, %rax
	jne	.L403
	addq	$56, %rsp
	.cfi_remember_state
	.cfi_def_cfa_offset 56
	popq	%rbx
	.cfi_def_cfa_offset 48
	popq	%rbp
	.cfi_def_cfa_offset 40
	popq	%r12
	.cfi_def_cfa_offset 32
	popq	%r13
	.cfi_def_cfa_offset 24
	popq	%r14
	.cfi_def_cfa_offset 16
	popq	%r15
	.cfi_def_cfa_offset 8
	ret
.L403:
	.cfi_restore_state
	call	__stack_chk_fail@PLT
	.cfi_endproc
.LFE3242:
	.section	.gcc_except_table
.LLSDA3242:
	.byte	0xff
	.byte	0xff
	.byte	0x1
	.uleb128 .LLSDACSE3242-.LLSDACSB3242
.LLSDACSB3242:
.LLSDACSE3242:
	.section	.text._ZN4asio6detail13epoll_reactorD0Ev,"axG",@progbits,_ZN4asio6detail13epoll_reactorD5Ev,comdat
	.size	_ZN4asio6detail13epoll_reactorD0Ev, .-_ZN4asio6detail13epoll_reactorD0Ev
	.section	.text._ZN4asio6detail24descriptor_write_op_baseINS_15const_buffers_1EE10do_performEPNS0_10reactor_opE,"axG",@progbits,_ZN4asio6detail24descriptor_write_op_baseINS_15const_buffers_1EE10do_performEPNS0_10reactor_opE,comdat
	.p2align 4
	.weak	_ZN4asio6detail24descriptor_write_op_baseINS_15const_buffers_1EE10do_performEPNS0_10reactor_opE
	.type	_ZN4asio6detail24descriptor_write_op_baseINS_15const_buffers_1EE10do_performEPNS0_10reactor_opE, @function
_ZN4asio6detail24descriptor_write_op_baseINS_15const_buffers_1EE10do_performEPNS0_10reactor_opE:
.LFB9109:
	.cfi_startproc
	endbr64
	pushq	%r15
	.cfi_def_cfa_offset 16
	.cfi_offset 15, -16
	movq	%rdi, %r15
	pushq	%r14
	.cfi_def_cfa_offset 24
	.cfi_offset 14, -24
	pushq	%r13
	.cfi_def_cfa_offset 32
	.cfi_offset 13, -32
	pushq	%r12
	.cfi_def_cfa_offset 40
	.cfi_offset 12, -40
	pushq	%rbp
	.cfi_def_cfa_offset 48
	.cfi_offset 6, -48
	pushq	%rbx
	.cfi_def_cfa_offset 56
	.cfi_offset 3, -56
	subq	$56, %rsp
	.cfi_def_cfa_offset 112
	movq	72(%rdi), %xmm0
	movl	56(%rdi), %r14d
	movq	%fs:40, %rax
	movq	%rax, 40(%rsp)
	xorl	%eax, %eax
	movq	64(%rdi), %rax
	leaq	16(%rsp), %r13
	punpcklqdq	%xmm0, %xmm0
	movq	%rax, 16(%rsp)
	movups	%xmm0, 24(%rsp)
	call	__errno_location@PLT
	movq	_ZGVZN4asio15system_categoryEvE8instance@GOTPCREL(%rip), %rbp
	movq	_ZZN4asio15system_categoryEvE8instance@GOTPCREL(%rip), %rbx
	movq	%rax, %r12
.L412:
	movl	$0, (%r12)
	movl	$1, %edx
	movq	%r13, %rsi
	movl	%r14d, %edi
	call	writev@PLT
	movq	%rax, 8(%rsp)
	movzbl	0(%rbp), %eax
	testb	%al, %al
	je	.L440
.L406:
	movl	(%r12), %eax
	movq	%rbx, 32(%r15)
	movl	%eax, 24(%r15)
	movzbl	0(%rbp), %eax
	testb	%al, %al
	je	.L441
.L409:
	cmpq	%rbx, 32(%r15)
	je	.L442
.L411:
	movzbl	0(%rbp), %eax
	testb	%al, %al
	je	.L443
.L414:
	cmpq	%rbx, 32(%r15)
	je	.L444
.L416:
	movzbl	0(%rbp), %eax
	testb	%al, %al
	je	.L445
.L419:
	cmpq	%rbx, 32(%r15)
	je	.L446
.L421:
	movq	8(%rsp), %rbx
	testq	%rbx, %rbx
	js	.L423
	call	_ZNSt3_V215system_categoryEv@PLT
	movl	$0, 24(%r15)
	movq	%rbx, 40(%r15)
	movq	%rax, 32(%r15)
	movl	$1, %eax
.L404:
	movq	40(%rsp), %rcx
	xorq	%fs:40, %rcx
	jne	.L447
	addq	$56, %rsp
	.cfi_remember_state
	.cfi_def_cfa_offset 56
	popq	%rbx
	.cfi_def_cfa_offset 48
	popq	%rbp
	.cfi_def_cfa_offset 40
	popq	%r12
	.cfi_def_cfa_offset 32
	popq	%r13
	.cfi_def_cfa_offset 24
	popq	%r14
	.cfi_def_cfa_offset 16
	popq	%r15
	.cfi_def_cfa_offset 8
	ret
	.p2align 4,,10
	.p2align 3
.L423:
	.cfi_restore_state
	movq	$0, 40(%r15)
	movl	$1, %eax
	jmp	.L404
	.p2align 4,,10
	.p2align 3
.L440:
	movq	%rbp, %rdi
	call	__cxa_guard_acquire@PLT
	testl	%eax, %eax
	je	.L406
	movq	_ZN4asio6detail15system_categoryD1Ev@GOTPCREL(%rip), %rdi
	leaq	__dso_handle(%rip), %rdx
	movq	%rbx, %rsi
	call	__cxa_atexit@PLT
	movq	%rbp, %rdi
	call	__cxa_guard_release@PLT
	jmp	.L406
	.p2align 4,,10
	.p2align 3
.L441:
	movq	%rbp, %rdi
	call	__cxa_guard_acquire@PLT
	testl	%eax, %eax
	je	.L409
	movq	_ZN4asio6detail15system_categoryD1Ev@GOTPCREL(%rip), %rdi
	leaq	__dso_handle(%rip), %rdx
	movq	%rbx, %rsi
	call	__cxa_atexit@PLT
	movq	%rbp, %rdi
	call	__cxa_guard_release@PLT
	cmpq	%rbx, 32(%r15)
	jne	.L411
	.p2align 4,,10
	.p2align 3
.L442:
	cmpl	$4, 24(%r15)
	je	.L412
	movzbl	0(%rbp), %eax
	testb	%al, %al
	jne	.L414
.L443:
	movq	%rbp, %rdi
	call	__cxa_guard_acquire@PLT
	testl	%eax, %eax
	je	.L414
	movq	_ZN4asio6detail15system_categoryD1Ev@GOTPCREL(%rip), %rdi
	leaq	__dso_handle(%rip), %rdx
	movq	%rbx, %rsi
	call	__cxa_atexit@PLT
	movq	%rbp, %rdi
	call	__cxa_guard_release@PLT
	cmpq	%rbx, 32(%r15)
	jne	.L416
	.p2align 4,,10
	.p2align 3
.L444:
	cmpl	$11, 24(%r15)
	jne	.L416
	xorl	%eax, %eax
	jmp	.L404
	.p2align 4,,10
	.p2align 3
.L445:
	movq	%rbp, %rdi
	call	__cxa_guard_acquire@PLT
	testl	%eax, %eax
	je	.L419
	movq	_ZN4asio6detail15system_categoryD1Ev@GOTPCREL(%rip), %rdi
	leaq	__dso_handle(%rip), %rdx
	movq	%rbx, %rsi
	call	__cxa_atexit@PLT
	movq	%rbp, %rdi
	call	__cxa_guard_release@PLT
	jmp	.L419
	.p2align 4,,10
	.p2align 3
.L446:
	cmpl	$11, 24(%r15)
	jne	.L421
	xorl	%eax, %eax
	jmp	.L404
.L447:
	call	__stack_chk_fail@PLT
	.cfi_endproc
.LFE9109:
	.size	_ZN4asio6detail24descriptor_write_op_baseINS_15const_buffers_1EE10do_performEPNS0_10reactor_opE, .-_ZN4asio6detail24descriptor_write_op_baseINS_15const_buffers_1EE10do_performEPNS0_10reactor_opE
	.section	.text._ZN4asio6detail23descriptor_read_op_baseINS_17mutable_buffers_1EE10do_performEPNS0_10reactor_opE,"axG",@progbits,_ZN4asio6detail23descriptor_read_op_baseINS_17mutable_buffers_1EE10do_performEPNS0_10reactor_opE,comdat
	.p2align 4
	.weak	_ZN4asio6detail23descriptor_read_op_baseINS_17mutable_buffers_1EE10do_performEPNS0_10reactor_opE
	.type	_ZN4asio6detail23descriptor_read_op_baseINS_17mutable_buffers_1EE10do_performEPNS0_10reactor_opE, @function
_ZN4asio6detail23descriptor_read_op_baseINS_17mutable_buffers_1EE10do_performEPNS0_10reactor_opE:
.LFB8991:
	.cfi_startproc
	endbr64
	pushq	%r15
	.cfi_def_cfa_offset 16
	.cfi_offset 15, -16
	movq	%rdi, %r15
	pushq	%r14
	.cfi_def_cfa_offset 24
	.cfi_offset 14, -24
	pushq	%r13
	.cfi_def_cfa_offset 32
	.cfi_offset 13, -32
	pushq	%r12
	.cfi_def_cfa_offset 40
	.cfi_offset 12, -40
	pushq	%rbp
	.cfi_def_cfa_offset 48
	.cfi_offset 6, -48
	pushq	%rbx
	.cfi_def_cfa_offset 56
	.cfi_offset 3, -56
	subq	$56, %rsp
	.cfi_def_cfa_offset 112
	movq	72(%rdi), %xmm0
	movl	56(%rdi), %r14d
	movq	%fs:40, %rax
	movq	%rax, 40(%rsp)
	xorl	%eax, %eax
	movq	64(%rdi), %rax
	punpcklqdq	%xmm0, %xmm0
	movq	%rax, 16(%rsp)
	movups	%xmm0, 24(%rsp)
	call	__errno_location@PLT
	movq	_ZGVZN4asio15system_categoryEvE8instance@GOTPCREL(%rip), %rbp
	movq	_ZZN4asio15system_categoryEvE8instance@GOTPCREL(%rip), %rbx
	movq	%rax, %r13
	leaq	16(%rsp), %rax
	movq	%rax, 8(%rsp)
.L461:
	movl	$0, 0(%r13)
	movq	8(%rsp), %rsi
	movl	$1, %edx
	movl	%r14d, %edi
	call	readv@PLT
	movq	%rax, %r12
	movzbl	0(%rbp), %eax
	testb	%al, %al
	je	.L492
.L450:
	movl	0(%r13), %eax
	movq	%rbx, 32(%r15)
	movl	%eax, 24(%r15)
	testq	%r12, %r12
	je	.L493
	movzbl	0(%rbp), %eax
	testb	%al, %al
	je	.L494
.L458:
	cmpq	%rbx, 32(%r15)
	je	.L495
.L460:
	movzbl	0(%rbp), %eax
	testb	%al, %al
	je	.L496
.L463:
	cmpq	%rbx, 32(%r15)
	je	.L497
.L465:
	movzbl	0(%rbp), %eax
	testb	%al, %al
	je	.L498
.L467:
	cmpq	%rbx, 32(%r15)
	je	.L499
.L469:
	testq	%r12, %r12
	jle	.L471
	call	_ZNSt3_V215system_categoryEv@PLT
	movl	$0, 24(%r15)
	movq	%r12, 40(%r15)
	movq	%rax, 32(%r15)
	movl	$1, %eax
.L448:
	movq	40(%rsp), %rcx
	xorq	%fs:40, %rcx
	jne	.L500
	addq	$56, %rsp
	.cfi_remember_state
	.cfi_def_cfa_offset 56
	popq	%rbx
	.cfi_def_cfa_offset 48
	popq	%rbp
	.cfi_def_cfa_offset 40
	popq	%r12
	.cfi_def_cfa_offset 32
	popq	%r13
	.cfi_def_cfa_offset 24
	popq	%r14
	.cfi_def_cfa_offset 16
	popq	%r15
	.cfi_def_cfa_offset 8
	ret
	.p2align 4,,10
	.p2align 3
.L471:
	.cfi_restore_state
	movq	$0, 40(%r15)
	movl	$1, %eax
	jmp	.L448
	.p2align 4,,10
	.p2align 3
.L492:
	movq	%rbp, %rdi
	call	__cxa_guard_acquire@PLT
	testl	%eax, %eax
	je	.L450
	movq	_ZN4asio6detail15system_categoryD1Ev@GOTPCREL(%rip), %rdi
	leaq	__dso_handle(%rip), %rdx
	movq	%rbx, %rsi
	call	__cxa_atexit@PLT
	movq	%rbp, %rdi
	call	__cxa_guard_release@PLT
	jmp	.L450
	.p2align 4,,10
	.p2align 3
.L494:
	movq	%rbp, %rdi
	call	__cxa_guard_acquire@PLT
	testl	%eax, %eax
	je	.L458
	movq	_ZN4asio6detail15system_categoryD1Ev@GOTPCREL(%rip), %rdi
	leaq	__dso_handle(%rip), %rdx
	movq	%rbx, %rsi
	call	__cxa_atexit@PLT
	movq	%rbp, %rdi
	call	__cxa_guard_release@PLT
	cmpq	%rbx, 32(%r15)
	jne	.L460
	.p2align 4,,10
	.p2align 3
.L495:
	cmpl	$4, 24(%r15)
	je	.L461
	movzbl	0(%rbp), %eax
	testb	%al, %al
	jne	.L463
.L496:
	movq	%rbp, %rdi
	call	__cxa_guard_acquire@PLT
	testl	%eax, %eax
	je	.L463
	movq	_ZN4asio6detail15system_categoryD1Ev@GOTPCREL(%rip), %rdi
	leaq	__dso_handle(%rip), %rdx
	movq	%rbx, %rsi
	call	__cxa_atexit@PLT
	movq	%rbp, %rdi
	call	__cxa_guard_release@PLT
	cmpq	%rbx, 32(%r15)
	jne	.L465
	.p2align 4,,10
	.p2align 3
.L497:
	cmpl	$11, 24(%r15)
	jne	.L465
	xorl	%eax, %eax
	jmp	.L448
	.p2align 4,,10
	.p2align 3
.L498:
	movq	%rbp, %rdi
	call	__cxa_guard_acquire@PLT
	testl	%eax, %eax
	je	.L467
	movq	_ZN4asio6detail15system_categoryD1Ev@GOTPCREL(%rip), %rdi
	leaq	__dso_handle(%rip), %rdx
	movq	%rbx, %rsi
	call	__cxa_atexit@PLT
	movq	%rbp, %rdi
	call	__cxa_guard_release@PLT
	jmp	.L467
	.p2align 4,,10
	.p2align 3
.L499:
	cmpl	$11, 24(%r15)
	jne	.L469
	xorl	%eax, %eax
	jmp	.L448
	.p2align 4,,10
	.p2align 3
.L493:
	movq	_ZGVZN4asio5error17get_misc_categoryEvE8instance@GOTPCREL(%rip), %rbp
	movzbl	0(%rbp), %eax
	testb	%al, %al
	je	.L453
.L490:
	movq	_ZZN4asio5error17get_misc_categoryEvE8instance@GOTPCREL(%rip), %rbx
.L454:
	movl	$2, 24(%r15)
	movl	$1, %eax
	movq	%rbx, 32(%r15)
	jmp	.L448
	.p2align 4,,10
	.p2align 3
.L453:
	movq	%rbp, %rdi
	call	__cxa_guard_acquire@PLT
	testl	%eax, %eax
	je	.L490
	movq	_ZZN4asio5error17get_misc_categoryEvE8instance@GOTPCREL(%rip), %rbx
	movq	_ZN4asio5error6detail13misc_categoryD1Ev@GOTPCREL(%rip), %rdi
	leaq	__dso_handle(%rip), %rdx
	movq	%rbx, %rsi
	call	__cxa_atexit@PLT
	movq	%rbp, %rdi
	call	__cxa_guard_release@PLT
	jmp	.L454
.L500:
	call	__stack_chk_fail@PLT
	.cfi_endproc
.LFE8991:
	.size	_ZN4asio6detail23descriptor_read_op_baseINS_17mutable_buffers_1EE10do_performEPNS0_10reactor_opE, .-_ZN4asio6detail23descriptor_read_op_baseINS_17mutable_buffers_1EE10do_performEPNS0_10reactor_opE
	.section	.rodata._ZNK4asio6detail15system_category7messageB5cxx11Ei.str1.8,"aMS",@progbits,1
	.align 8
.LC6:
	.string	"basic_string::_M_construct null not valid"
	.section	.text._ZNK4asio6detail15system_category7messageB5cxx11Ei,"axG",@progbits,_ZNK4asio6detail15system_category7messageB5cxx11Ei,comdat
	.align 2
	.p2align 4
	.weak	_ZNK4asio6detail15system_category7messageB5cxx11Ei
	.type	_ZNK4asio6detail15system_category7messageB5cxx11Ei, @function
_ZNK4asio6detail15system_category7messageB5cxx11Ei:
.LFB2351:
	.cfi_startproc
	endbr64
	pushq	%r14
	.cfi_def_cfa_offset 16
	.cfi_offset 14, -16
	pushq	%r13
	.cfi_def_cfa_offset 24
	.cfi_offset 13, -24
	pushq	%r12
	.cfi_def_cfa_offset 32
	.cfi_offset 12, -32
	movq	%rdi, %r12
	pushq	%rbp
	.cfi_def_cfa_offset 40
	.cfi_offset 6, -40
	leaq	16(%rdi), %rbp
	subq	$296, %rsp
	.cfi_def_cfa_offset 336
	movq	%fs:40, %rax
	movq	%rax, 280(%rsp)
	xorl	%eax, %eax
	cmpl	$125, %edx
	je	.L514
	pxor	%xmm0, %xmm0
	movl	%edx, %edi
	leaq	16(%rsp), %rsi
	movl	$256, %edx
	movaps	%xmm0, 16(%rsp)
	movaps	%xmm0, 32(%rsp)
	movaps	%xmm0, 48(%rsp)
	movaps	%xmm0, 64(%rsp)
	movaps	%xmm0, 80(%rsp)
	movaps	%xmm0, 96(%rsp)
	movaps	%xmm0, 112(%rsp)
	movaps	%xmm0, 128(%rsp)
	movaps	%xmm0, 144(%rsp)
	movaps	%xmm0, 160(%rsp)
	movaps	%xmm0, 176(%rsp)
	movaps	%xmm0, 192(%rsp)
	movaps	%xmm0, 208(%rsp)
	movaps	%xmm0, 224(%rsp)
	movaps	%xmm0, 240(%rsp)
	movaps	%xmm0, 256(%rsp)
	call	strerror_r@PLT
	movq	%rbp, (%r12)
	movq	%rax, %r14
	testq	%rax, %rax
	je	.L515
	movq	%rax, %rdi
	call	strlen@PLT
	movq	%rax, 8(%rsp)
	movq	%rax, %r13
	cmpq	$15, %rax
	ja	.L516
	cmpq	$1, %rax
	jne	.L507
	movzbl	(%r14), %edx
	movb	%dl, 16(%r12)
.L508:
	movq	%rax, 8(%r12)
	movb	$0, 0(%rbp,%rax)
.L501:
	movq	280(%rsp), %rax
	xorq	%fs:40, %rax
	jne	.L517
	addq	$296, %rsp
	.cfi_remember_state
	.cfi_def_cfa_offset 40
	movq	%r12, %rax
	popq	%rbp
	.cfi_def_cfa_offset 32
	popq	%r12
	.cfi_def_cfa_offset 24
	popq	%r13
	.cfi_def_cfa_offset 16
	popq	%r14
	.cfi_def_cfa_offset 8
	ret
	.p2align 4,,10
	.p2align 3
.L516:
	.cfi_restore_state
	leaq	8(%rsp), %rsi
	xorl	%edx, %edx
	movq	%r12, %rdi
	call	_ZNSt7__cxx1112basic_stringIcSt11char_traitsIcESaIcEE9_M_createERmm@PLT
	movq	%rax, (%r12)
	movq	%rax, %rbp
	movq	8(%rsp), %rax
	movq	%rax, 16(%r12)
.L506:
	movq	%rbp, %rdi
	movq	%r13, %rdx
	movq	%r14, %rsi
	call	memcpy@PLT
	movq	8(%rsp), %rax
	movq	(%r12), %rbp
	jmp	.L508
	.p2align 4,,10
	.p2align 3
.L514:
	movq	%rbp, (%rdi)
	xorl	%edx, %edx
	leaq	8(%rsp), %rsi
	movq	$18, 8(%rsp)
	call	_ZNSt7__cxx1112basic_stringIcSt11char_traitsIcESaIcEE9_M_createERmm@PLT
	movq	8(%rsp), %rdx
	movdqa	.LC7(%rip), %xmm0
	movq	%rax, (%r12)
	movq	%rdx, 16(%r12)
	movl	$11876, %edx
	movw	%dx, 16(%rax)
	movups	%xmm0, (%rax)
	movq	8(%rsp), %rax
	movq	(%r12), %rdx
	movq	%rax, 8(%r12)
	movb	$0, (%rdx,%rax)
	jmp	.L501
	.p2align 4,,10
	.p2align 3
.L507:
	testq	%rax, %rax
	je	.L508
	jmp	.L506
	.p2align 4,,10
	.p2align 3
.L515:
	leaq	.LC6(%rip), %rdi
	call	_ZSt19__throw_logic_errorPKc@PLT
.L517:
	call	__stack_chk_fail@PLT
	.cfi_endproc
.LFE2351:
	.size	_ZNK4asio6detail15system_category7messageB5cxx11Ei, .-_ZNK4asio6detail15system_category7messageB5cxx11Ei
	.section	.text._ZNK4asio5error6detail17addrinfo_category7messageB5cxx11Ei,"axG",@progbits,_ZNK4asio5error6detail17addrinfo_category7messageB5cxx11Ei,comdat
	.align 2
	.p2align 4
	.weak	_ZNK4asio5error6detail17addrinfo_category7messageB5cxx11Ei
	.type	_ZNK4asio5error6detail17addrinfo_category7messageB5cxx11Ei, @function
_ZNK4asio5error6detail17addrinfo_category7messageB5cxx11Ei:
.LFB2397:
	.cfi_startproc
	endbr64
	pushq	%r12
	.cfi_def_cfa_offset 16
	.cfi_offset 12, -16
	movq	%rdi, %r12
	subq	$16, %rsp
	.cfi_def_cfa_offset 32
	movq	%fs:40, %rax
	movq	%rax, 8(%rsp)
	xorl	%eax, %eax
	leaq	16(%rdi), %rax
	movq	%rax, (%rdi)
	cmpl	$-8, %edx
	je	.L524
	cmpl	$-7, %edx
	je	.L525
	xorl	%edx, %edx
	movq	%rsp, %rsi
	movq	$19, (%rsp)
	call	_ZNSt7__cxx1112basic_stringIcSt11char_traitsIcESaIcEE9_M_createERmm@PLT
	movq	(%rsp), %rdx
	movdqa	.LC10(%rip), %xmm0
	movq	%rax, (%r12)
	movq	%rdx, 16(%r12)
	movl	$28530, %edx
	movw	%dx, 16(%rax)
	movb	$114, 18(%rax)
	movups	%xmm0, (%rax)
	movq	(%rsp), %rax
	movq	(%r12), %rdx
	movq	%rax, 8(%r12)
	movb	$0, (%rdx,%rax)
.L518:
	movq	8(%rsp), %rax
	xorq	%fs:40, %rax
	jne	.L526
	addq	$16, %rsp
	.cfi_remember_state
	.cfi_def_cfa_offset 16
	movq	%r12, %rax
	popq	%r12
	.cfi_def_cfa_offset 8
	ret
	.p2align 4,,10
	.p2align 3
.L525:
	.cfi_restore_state
	xorl	%edx, %edx
	movq	%rsp, %rsi
	movq	$25, (%rsp)
	call	_ZNSt7__cxx1112basic_stringIcSt11char_traitsIcESaIcEE9_M_createERmm@PLT
	movq	(%rsp), %rdx
	movdqa	.LC9(%rip), %xmm0
	movabsq	$7310593918082512243, %rcx
	movq	%rax, (%r12)
	movq	%rdx, 16(%r12)
	movq	%rcx, 16(%rax)
	movb	$100, 24(%rax)
	movups	%xmm0, (%rax)
	movq	(%rsp), %rax
	movq	(%r12), %rdx
	movq	%rax, 8(%r12)
	movb	$0, (%rdx,%rax)
	jmp	.L518
	.p2align 4,,10
	.p2align 3
.L524:
	xorl	%edx, %edx
	movq	%rsp, %rsi
	movq	$17, (%rsp)
	call	_ZNSt7__cxx1112basic_stringIcSt11char_traitsIcESaIcEE9_M_createERmm@PLT
	movq	(%rsp), %rdx
	movdqa	.LC8(%rip), %xmm0
	movq	%rax, (%r12)
	movq	%rdx, 16(%r12)
	movb	$100, 16(%rax)
	movups	%xmm0, (%rax)
	movq	(%rsp), %rax
	movq	(%r12), %rdx
	movq	%rax, 8(%r12)
	movb	$0, (%rdx,%rax)
	jmp	.L518
.L526:
	call	__stack_chk_fail@PLT
	.cfi_endproc
.LFE2397:
	.size	_ZNK4asio5error6detail17addrinfo_category7messageB5cxx11Ei, .-_ZNK4asio5error6detail17addrinfo_category7messageB5cxx11Ei
	.section	.text._ZNK4asio5error6detail13misc_category7messageB5cxx11Ei,"axG",@progbits,_ZNK4asio5error6detail13misc_category7messageB5cxx11Ei,comdat
	.align 2
	.p2align 4
	.weak	_ZNK4asio5error6detail13misc_category7messageB5cxx11Ei
	.type	_ZNK4asio5error6detail13misc_category7messageB5cxx11Ei, @function
_ZNK4asio5error6detail13misc_category7messageB5cxx11Ei:
.LFB2403:
	.cfi_startproc
	endbr64
	pushq	%r12
	.cfi_def_cfa_offset 16
	.cfi_offset 12, -16
	movq	%rdi, %r12
	subq	$16, %rsp
	.cfi_def_cfa_offset 32
	movq	%fs:40, %rax
	movq	%rax, 8(%rsp)
	xorl	%eax, %eax
	leaq	16(%rdi), %rax
	movq	%rax, (%rdi)
	cmpl	$1, %edx
	je	.L535
	cmpl	$2, %edx
	je	.L536
	cmpl	$3, %edx
	je	.L537
	cmpl	$4, %edx
	je	.L538
	movabsq	$8316298233121436513, %rcx
	movl	$28530, %edx
	movq	%rcx, 16(%rdi)
	movl	$1919230051, 8(%rax)
	movw	%dx, 12(%rax)
	movb	$114, 14(%rax)
	movq	$15, 8(%rdi)
	movb	$0, 31(%rdi)
.L527:
	movq	8(%rsp), %rax
	xorq	%fs:40, %rax
	jne	.L539
	addq	$16, %rsp
	.cfi_remember_state
	.cfi_def_cfa_offset 16
	movq	%r12, %rax
	popq	%r12
	.cfi_def_cfa_offset 8
	ret
	.p2align 4,,10
	.p2align 3
.L535:
	.cfi_restore_state
	movabsq	$2340011850872286273, %rcx
	movq	%rcx, 16(%rdi)
	movl	$1852141679, 8(%rax)
	movq	$12, 8(%rdi)
	movb	$0, 28(%rdi)
	jmp	.L527
	.p2align 4,,10
	.p2align 3
.L538:
	movq	%rsp, %rsi
	xorl	%edx, %edx
	movq	$57, (%rsp)
	call	_ZNSt7__cxx1112basic_stringIcSt11char_traitsIcESaIcEE9_M_createERmm@PLT
	movq	(%rsp), %rdx
	movdqa	.LC12(%rip), %xmm0
	movabsq	$7310291504967217959, %rsi
	movq	%rax, (%r12)
	movq	%rdx, 16(%r12)
	movups	%xmm0, (%rax)
	movdqa	.LC13(%rip), %xmm0
	movq	%rsi, 48(%rax)
	movups	%xmm0, 16(%rax)
	movdqa	.LC14(%rip), %xmm0
	movb	$116, 56(%rax)
	movups	%xmm0, 32(%rax)
	movq	(%rsp), %rax
	movq	(%r12), %rdx
	movq	%rax, 8(%r12)
	movb	$0, (%rdx,%rax)
	jmp	.L527
	.p2align 4,,10
	.p2align 3
.L536:
	movabsq	$7358994418594246213, %rcx
	movq	%rcx, 16(%rdi)
	movl	$27753, %ecx
	movw	%cx, 8(%rax)
	movb	$101, 10(%rax)
	movq	$11, 8(%rdi)
	movb	$0, 27(%rdi)
	jmp	.L527
	.p2align 4,,10
	.p2align 3
.L537:
	xorl	%edx, %edx
	movq	%rsp, %rsi
	movq	$17, (%rsp)
	call	_ZNSt7__cxx1112basic_stringIcSt11char_traitsIcESaIcEE9_M_createERmm@PLT
	movq	(%rsp), %rdx
	movdqa	.LC11(%rip), %xmm0
	movq	%rax, (%r12)
	movq	%rdx, 16(%r12)
	movb	$100, 16(%rax)
	movups	%xmm0, (%rax)
	movq	(%rsp), %rax
	movq	(%r12), %rdx
	movq	%rax, 8(%r12)
	movb	$0, (%rdx,%rax)
	jmp	.L527
.L539:
	call	__stack_chk_fail@PLT
	.cfi_endproc
.LFE2403:
	.size	_ZNK4asio5error6detail13misc_category7messageB5cxx11Ei, .-_ZNK4asio5error6detail13misc_category7messageB5cxx11Ei
	.section	.text._ZNK4asio5error6detail14netdb_category7messageB5cxx11Ei,"axG",@progbits,_ZNK4asio5error6detail14netdb_category7messageB5cxx11Ei,comdat
	.align 2
	.p2align 4
	.weak	_ZNK4asio5error6detail14netdb_category7messageB5cxx11Ei
	.type	_ZNK4asio5error6detail14netdb_category7messageB5cxx11Ei, @function
_ZNK4asio5error6detail14netdb_category7messageB5cxx11Ei:
.LFB2391:
	.cfi_startproc
	endbr64
	pushq	%r12
	.cfi_def_cfa_offset 16
	.cfi_offset 12, -16
	movq	%rdi, %r12
	subq	$16, %rsp
	.cfi_def_cfa_offset 32
	movq	%fs:40, %rax
	movq	%rax, 8(%rsp)
	xorl	%eax, %eax
	leaq	16(%rdi), %rax
	movq	%rax, (%rdi)
	cmpl	$1, %edx
	je	.L548
	cmpl	$2, %edx
	je	.L549
	cmpl	$4, %edx
	je	.L550
	cmpl	$3, %edx
	je	.L551
	xorl	%edx, %edx
	movq	%rsp, %rsi
	movq	$16, (%rsp)
	call	_ZNSt7__cxx1112basic_stringIcSt11char_traitsIcESaIcEE9_M_createERmm@PLT
	movq	(%rsp), %rdx
	movdqa	.LC24(%rip), %xmm0
	movq	%rax, (%r12)
	movq	%rdx, 16(%r12)
	movups	%xmm0, (%rax)
	movq	(%rsp), %rax
	movq	(%r12), %rdx
	movq	%rax, 8(%r12)
	movb	$0, (%rdx,%rax)
.L540:
	movq	8(%rsp), %rax
	xorq	%fs:40, %rax
	jne	.L552
	addq	$16, %rsp
	.cfi_remember_state
	.cfi_def_cfa_offset 16
	movq	%r12, %rax
	popq	%r12
	.cfi_def_cfa_offset 8
	ret
	.p2align 4,,10
	.p2align 3
.L548:
	.cfi_restore_state
	movq	%rsp, %rsi
	xorl	%edx, %edx
	movq	$30, (%rsp)
	call	_ZNSt7__cxx1112basic_stringIcSt11char_traitsIcESaIcEE9_M_createERmm@PLT
	movq	(%rsp), %rdx
	movl	$10597, %esi
	movdqa	.LC15(%rip), %xmm0
	movabsq	$8388361603773658465, %rcx
	movq	%rax, (%r12)
	movq	%rdx, 16(%r12)
	movq	%rcx, 16(%rax)
	movl	$1986622561, 24(%rax)
	movw	%si, 28(%rax)
	movups	%xmm0, (%rax)
	movq	(%rsp), %rax
	movq	(%r12), %rdx
	movq	%rax, 8(%r12)
	movb	$0, (%rdx,%rax)
	jmp	.L540
	.p2align 4,,10
	.p2align 3
.L551:
	xorl	%edx, %edx
	movq	%rsp, %rsi
	movq	$55, (%rsp)
	call	_ZNSt7__cxx1112basic_stringIcSt11char_traitsIcESaIcEE9_M_createERmm@PLT
	movq	(%rsp), %rdx
	movdqa	.LC21(%rip), %xmm0
	movq	%rax, (%r12)
	movq	%rdx, 16(%r12)
	movl	$30059, %edx
	movups	%xmm0, (%rax)
	movdqa	.LC22(%rip), %xmm0
	movl	$1869573152, 48(%rax)
	movups	%xmm0, 16(%rax)
	movdqa	.LC23(%rip), %xmm0
	movw	%dx, 52(%rax)
	movb	$112, 54(%rax)
	movups	%xmm0, 32(%rax)
	movq	(%rsp), %rax
	movq	(%r12), %rdx
	movq	%rax, 8(%r12)
	movb	$0, (%rdx,%rax)
	jmp	.L540
	.p2align 4,,10
	.p2align 3
.L549:
	xorl	%edx, %edx
	movq	%rsp, %rsi
	movq	$51, (%rsp)
	call	_ZNSt7__cxx1112basic_stringIcSt11char_traitsIcESaIcEE9_M_createERmm@PLT
	movq	(%rsp), %rdx
	movl	$25972, %ecx
	movdqa	.LC15(%rip), %xmm0
	movq	%rax, (%r12)
	movq	%rdx, 16(%r12)
	movups	%xmm0, (%rax)
	movdqa	.LC16(%rip), %xmm0
	movw	%cx, 48(%rax)
	movups	%xmm0, 16(%rax)
	movdqa	.LC17(%rip), %xmm0
	movb	$114, 50(%rax)
	movups	%xmm0, 32(%rax)
	movq	(%rsp), %rax
	movq	(%r12), %rdx
	movq	%rax, 8(%r12)
	movb	$0, (%rdx,%rax)
	jmp	.L540
	.p2align 4,,10
	.p2align 3
.L550:
	xorl	%edx, %edx
	movq	%rsp, %rsi
	movq	$56, (%rsp)
	call	_ZNSt7__cxx1112basic_stringIcSt11char_traitsIcESaIcEE9_M_createERmm@PLT
	movq	(%rsp), %rdx
	movdqa	.LC18(%rip), %xmm0
	movabsq	$7022344801645520244, %rcx
	movq	%rax, (%r12)
	movq	%rdx, 16(%r12)
	movups	%xmm0, (%rax)
	movdqa	.LC19(%rip), %xmm0
	movq	%rcx, 48(%rax)
	movups	%xmm0, 16(%rax)
	movdqa	.LC20(%rip), %xmm0
	movups	%xmm0, 32(%rax)
	movq	(%rsp), %rax
	movq	(%r12), %rdx
	movq	%rax, 8(%r12)
	movb	$0, (%rdx,%rax)
	jmp	.L540
.L552:
	call	__stack_chk_fail@PLT
	.cfi_endproc
.LFE2391:
	.size	_ZNK4asio5error6detail14netdb_category7messageB5cxx11Ei, .-_ZNK4asio5error6detail14netdb_category7messageB5cxx11Ei
	.section	.text._ZN7asiopal13SerialChannelD2Ev,"axG",@progbits,_ZN7asiopal13SerialChannelD5Ev,comdat
	.align 2
	.p2align 4
	.weak	_ZN7asiopal13SerialChannelD2Ev
	.type	_ZN7asiopal13SerialChannelD2Ev, @function
_ZN7asiopal13SerialChannelD2Ev:
.LFB9255:
	.cfi_startproc
	.cfi_personality 0x9b,DW.ref.__gxx_personality_v0
	.cfi_lsda 0x1b,.LLSDA9255
	endbr64
	pushq	%r15
	.cfi_def_cfa_offset 16
	.cfi_offset 15, -16
	pushq	%r14
	.cfi_def_cfa_offset 24
	.cfi_offset 14, -24
	pushq	%r13
	.cfi_def_cfa_offset 32
	.cfi_offset 13, -32
	pushq	%r12
	.cfi_def_cfa_offset 40
	.cfi_offset 12, -40
	pushq	%rbp
	.cfi_def_cfa_offset 48
	.cfi_offset 6, -48
	pushq	%rbx
	.cfi_def_cfa_offset 56
	.cfi_offset 3, -56
	movq	%rdi, %rbx
	subq	$56, %rsp
	.cfi_def_cfa_offset 112
	movl	64(%rdi), %r12d
	movq	%fs:40, %rax
	movq	%rax, 40(%rsp)
	xorl	%eax, %eax
	movq	_ZTVN7asiopal13SerialChannelE@GOTPCREL(%rip), %rax
	addq	$16, %rax
	movq	%rax, (%rdi)
	cmpl	$-1, %r12d
	jne	.L678
.L585:
	movq	_ZTVN7asiopal13IAsyncChannelE@GOTPCREL(%rip), %rax
	movq	48(%rbx), %rbp
	addq	$16, %rax
	movq	%rax, (%rbx)
	testq	%rbp, %rbp
	je	.L597
	movq	_ZL28__gthrw___pthread_key_createPjPFvPvE@GOTPCREL(%rip), %r12
	testq	%r12, %r12
	je	.L598
	movl	$-1, %eax
	lock xaddl	%eax, 8(%rbp)
	cmpl	$1, %eax
	je	.L679
	.p2align 4,,10
	.p2align 3
.L597:
	movq	32(%rbx), %rbp
	testq	%rbp, %rbp
	je	.L604
	movq	_ZL28__gthrw___pthread_key_createPjPFvPvE@GOTPCREL(%rip), %r12
	testq	%r12, %r12
	je	.L605
	movl	$-1, %eax
	lock xaddl	%eax, 8(%rbp)
	cmpl	$1, %eax
	je	.L680
	.p2align 4,,10
	.p2align 3
.L604:
	movq	16(%rbx), %rdi
	testq	%rdi, %rdi
	je	.L553
	cmpq	$0, _ZL28__gthrw___pthread_key_createPjPFvPvE@GOTPCREL(%rip)
	je	.L612
	movl	$-1, %eax
	lock xaddl	%eax, 12(%rdi)
	cmpl	$1, %eax
	je	.L681
	.p2align 4,,10
	.p2align 3
.L553:
	movq	40(%rsp), %rax
	xorq	%fs:40, %rax
	jne	.L682
	addq	$56, %rsp
	.cfi_remember_state
	.cfi_def_cfa_offset 56
	popq	%rbx
	.cfi_def_cfa_offset 48
	popq	%rbp
	.cfi_def_cfa_offset 40
	popq	%r12
	.cfi_def_cfa_offset 32
	popq	%r13
	.cfi_def_cfa_offset 24
	popq	%r14
	.cfi_def_cfa_offset 16
	popq	%r15
	.cfi_def_cfa_offset 8
	ret
	.p2align 4,,10
	.p2align 3
.L605:
	.cfi_restore_state
	movl	8(%rbp), %eax
	leal	-1(%rax), %edx
	movl	%edx, 8(%rbp)
	cmpl	$1, %eax
	jne	.L604
.L680:
	movq	0(%rbp), %rax
	movq	%rbp, %rdi
	call	*16(%rax)
	testq	%r12, %r12
	je	.L608
	movl	$-1, %eax
	lock xaddl	%eax, 12(%rbp)
.L609:
	cmpl	$1, %eax
	jne	.L604
	movq	0(%rbp), %rax
	movq	%rbp, %rdi
	call	*24(%rax)
	jmp	.L604
	.p2align 4,,10
	.p2align 3
.L598:
	movl	8(%rbp), %eax
	leal	-1(%rax), %edx
	movl	%edx, 8(%rbp)
	cmpl	$1, %eax
	jne	.L597
.L679:
	movq	0(%rbp), %rax
	movq	%rbp, %rdi
	call	*16(%rax)
	testq	%r12, %r12
	je	.L601
	movl	$-1, %eax
	lock xaddl	%eax, 12(%rbp)
.L602:
	cmpl	$1, %eax
	jne	.L597
	movq	0(%rbp), %rax
	movq	%rbp, %rdi
	call	*24(%rax)
	jmp	.L597
	.p2align 4,,10
	.p2align 3
.L612:
	movl	12(%rdi), %eax
	leal	-1(%rax), %edx
	movl	%edx, 12(%rdi)
	cmpl	$1, %eax
	jne	.L553
.L681:
	movq	(%rdi), %rax
	call	*24(%rax)
	jmp	.L553
	.p2align 4,,10
	.p2align 3
.L678:
	movq	72(%rdi), %rbp
	testq	%rbp, %rbp
	je	.L584
	movq	80(%rdi), %rax
	movzbl	68(%rdi), %r13d
	movq	40(%rax), %rax
	movq	%rax, (%rsp)
	leaq	40(%rbp), %rax
	movq	%rax, %rdi
	movq	%rax, 8(%rsp)
	call	pthread_mutex_lock@PLT
	movq	72(%rbx), %rdi
	cmpb	$0, 144(%rdi)
	jne	.L556
	andl	$4, %r13d
	jne	.L683
.L557:
	movl	$96, %r12d
	xorl	%r14d, %r14d
	xorl	%r13d, %r13d
.L567:
	movq	(%rdi,%r12), %rbp
	testq	%rbp, %rbp
	je	.L558
	movq	_ZGVZN4asio15system_categoryEvE8instance@GOTPCREL(%rip), %r15
	movzbl	(%r15), %eax
	testb	%al, %al
	je	.L684
	.p2align 4,,10
	.p2align 3
.L561:
	movq	72(%rbx), %rdi
	movq	_ZZN4asio15system_categoryEvE8instance@GOTPCREL(%rip), %rax
	movl	$125, 24(%rbp)
	leaq	(%rdi,%r12), %rsi
	movq	%rax, 32(%rbp)
	movq	(%rsi), %rdx
	testq	%rdx, %rdx
	je	.L563
	movq	(%rdx), %rax
	movq	%rax, (%rsi)
	testq	%rax, %rax
	je	.L685
	movq	$0, (%rdx)
	movq	$0, 0(%rbp)
	testq	%r14, %r14
	je	.L686
.L615:
	movq	%rbp, (%r14)
	testq	%rax, %rax
	je	.L565
.L566:
	movq	%rbp, %r14
	movq	%rax, %rbp
	movzbl	(%r15), %eax
	testb	%al, %al
	jne	.L561
.L684:
	movq	%r15, %rdi
	call	__cxa_guard_acquire@PLT
	testl	%eax, %eax
	je	.L561
	movq	_ZZN4asio15system_categoryEvE8instance@GOTPCREL(%rip), %rsi
	movq	_ZN4asio6detail15system_categoryD1Ev@GOTPCREL(%rip), %rdi
	leaq	__dso_handle(%rip), %rdx
	call	__cxa_atexit@PLT
	movq	%r15, %rdi
	call	__cxa_guard_release@PLT
	jmp	.L561
	.p2align 4,,10
	.p2align 3
.L556:
	movq	8(%rsp), %rdi
	call	pthread_mutex_unlock@PLT
.L672:
	movl	64(%rbx), %r12d
	cmpl	$-1, %r12d
	je	.L585
.L584:
	call	__errno_location@PLT
	movl	%r12d, %edi
	movl	$0, (%rax)
	movq	%rax, %rbp
	call	close@PLT
	movq	_ZGVZN4asio15system_categoryEvE8instance@GOTPCREL(%rip), %r15
	movl	%eax, %r13d
	movzbl	(%r15), %eax
	testb	%al, %al
	je	.L687
.L587:
	testl	%r13d, %r13d
	je	.L585
	movl	0(%rbp), %r13d
	movzbl	(%r15), %eax
	testb	%al, %al
	je	.L688
.L590:
	cmpl	$11, %r13d
	je	.L592
.L677:
	movzbl	(%r15), %eax
	testb	%al, %al
	jne	.L585
	movq	%r15, %rdi
	call	__cxa_guard_acquire@PLT
	testl	%eax, %eax
	je	.L585
	movq	_ZZN4asio15system_categoryEvE8instance@GOTPCREL(%rip), %rsi
	movq	_ZN4asio6detail15system_categoryD1Ev@GOTPCREL(%rip), %rdi
	leaq	__dso_handle(%rip), %rdx
	call	__cxa_atexit@PLT
	movq	%r15, %rdi
	call	__cxa_guard_release@PLT
	jmp	.L585
	.p2align 4,,10
	.p2align 3
.L563:
	movq	$0, 0(%rbp)
	testq	%r14, %r14
	je	.L618
	movq	%rbp, (%r14)
.L565:
	movq	%rbp, %r14
.L558:
	addq	$16, %r12
	cmpq	$144, %r12
	jne	.L567
	movl	$-1, 88(%rdi)
	movb	$1, 144(%rdi)
	movq	8(%rsp), %rdi
	call	pthread_mutex_unlock@PLT
	movq	(%rsp), %r15
	movq	72(%rbx), %rbp
	leaq	120(%r15), %r12
	movq	%r12, %rdi
	call	pthread_mutex_lock@PLT
	cmpq	160(%r15), %rbp
	je	.L689
.L568:
	movq	32(%rbp), %rdx
	movq	24(%rbp), %rax
	testq	%rdx, %rdx
	je	.L569
	movq	%rax, 24(%rdx)
	movq	24(%rbp), %rax
.L569:
	testq	%rax, %rax
	je	.L570
	movq	32(%rbp), %rdx
	movq	%rdx, 32(%rax)
.L570:
	movq	(%rsp), %r15
	movq	%r12, %rdi
	movq	168(%r15), %rax
	movq	$0, 32(%rbp)
	movq	%rax, 24(%rbp)
	movq	%rbp, 168(%r15)
	call	pthread_mutex_unlock@PLT
	movq	$0, 72(%rbx)
	testq	%r13, %r13
	je	.L672
	movq	40(%r15), %rbp
	cmpb	$0, 40(%rbp)
	je	.L572
	data16	leaq	_ZN4asio6detail15keyword_tss_ptrINS0_10call_stackINS0_15task_io_serviceENS0_27task_io_service_thread_infoEE7contextEE6value_E@tlsgd(%rip), %rdi
	.value	0x6666
	rex64
	call	__tls_get_addr@PLT
	movq	(%rax), %rax
	testq	%rax, %rax
	jne	.L575
	jmp	.L572
	.p2align 4,,10
	.p2align 3
.L573:
	movq	16(%rax), %rax
	testq	%rax, %rax
	je	.L572
.L575:
	cmpq	(%rax), %rbp
	jne	.L573
	movq	8(%rax), %rax
	testq	%rax, %rax
	je	.L572
	movq	16(%rax), %rdx
	testq	%rdx, %rdx
	je	.L576
	movq	%r13, (%rdx)
.L577:
	movq	%r14, 16(%rax)
	jmp	.L672
	.p2align 4,,10
	.p2align 3
.L685:
	movq	$0, 8(%rsi)
	movq	$0, (%rdx)
	movq	$0, 0(%rbp)
	testq	%r14, %r14
	jne	.L615
	.p2align 4,,10
	.p2align 3
.L618:
	movq	%rbp, %r13
	jmp	.L565
	.p2align 4,,10
	.p2align 3
.L686:
	movq	%rbp, %r13
	jmp	.L566
	.p2align 4,,10
	.p2align 3
.L687:
	movq	%r15, %rdi
	call	__cxa_guard_acquire@PLT
	testl	%eax, %eax
	je	.L587
	movq	_ZZN4asio15system_categoryEvE8instance@GOTPCREL(%rip), %rsi
	movq	_ZN4asio6detail15system_categoryD1Ev@GOTPCREL(%rip), %rdi
	leaq	__dso_handle(%rip), %rdx
	call	__cxa_atexit@PLT
	movq	%r15, %rdi
	call	__cxa_guard_release@PLT
	jmp	.L587
	.p2align 4,,10
	.p2align 3
.L601:
	movl	12(%rbp), %eax
	leal	-1(%rax), %edx
	movl	%edx, 12(%rbp)
	jmp	.L602
	.p2align 4,,10
	.p2align 3
.L608:
	movl	12(%rbp), %eax
	leal	-1(%rax), %edx
	movl	%edx, 12(%rbp)
	jmp	.L609
	.p2align 4,,10
	.p2align 3
.L572:
	leaq	48(%rbp), %r12
	movq	%r12, %rdi
	call	pthread_mutex_lock@PLT
	movq	200(%rbp), %rax
	testq	%rax, %rax
	je	.L579
	movq	%r13, (%rax)
.L580:
	movq	136(%rbp), %rax
	movq	%r14, 200(%rbp)
	orq	$1, %rax
	movq	%rax, 136(%rbp)
	cmpq	$1, %rax
	je	.L581
	movq	%r12, %rdi
	call	pthread_mutex_unlock@PLT
	leaq	88(%rbp), %rdi
	call	pthread_cond_signal@PLT
	jmp	.L672
	.p2align 4,,10
	.p2align 3
.L581:
	cmpb	$0, 176(%rbp)
	jne	.L583
	movq	144(%rbp), %rax
	testq	%rax, %rax
	je	.L583
	movb	$1, 176(%rbp)
	leaq	88(%rax), %rdx
	leaq	28(%rsp), %rcx
	movl	$3, %esi
	movl	$-2147483639, 28(%rsp)
	movq	%rdx, 32(%rsp)
	movl	88(%rax), %edx
	movl	96(%rax), %edi
	call	epoll_ctl@PLT
.L583:
	movq	%r12, %rdi
	call	pthread_mutex_unlock@PLT
	jmp	.L672
	.p2align 4,,10
	.p2align 3
.L683:
	movq	(%rsp), %rax
	movl	$0, 28(%rsp)
	leaq	28(%rsp), %rcx
	movl	%r12d, %edx
	movq	$0, 32(%rsp)
	movl	$2, %esi
	movl	96(%rax), %edi
	call	epoll_ctl@PLT
	movq	72(%rbx), %rdi
	jmp	.L557
	.p2align 4,,10
	.p2align 3
.L688:
	movq	%r15, %rdi
	call	__cxa_guard_acquire@PLT
	testl	%eax, %eax
	je	.L590
	movq	_ZZN4asio15system_categoryEvE8instance@GOTPCREL(%rip), %rsi
	movq	_ZN4asio6detail15system_categoryD1Ev@GOTPCREL(%rip), %rdi
	leaq	__dso_handle(%rip), %rdx
	call	__cxa_atexit@PLT
	movq	%r15, %rdi
	call	__cxa_guard_release@PLT
	jmp	.L590
	.p2align 4,,10
	.p2align 3
.L689:
	movq	24(%rbp), %rax
	movq	(%rsp), %rcx
	movq	%rax, 160(%rcx)
	jmp	.L568
	.p2align 4,,10
	.p2align 3
.L592:
	movl	%r12d, %edi
	leaq	28(%rsp), %rdx
	movl	$21537, %esi
	xorl	%eax, %eax
	movl	$0, 28(%rsp)
	call	ioctl@PLT
	andb	$-4, 68(%rbx)
	movl	%r12d, %edi
	movl	$0, 0(%rbp)
	call	close@PLT
	jmp	.L677
	.p2align 4,,10
	.p2align 3
.L579:
	movq	%r13, 192(%rbp)
	jmp	.L580
	.p2align 4,,10
	.p2align 3
.L576:
	movq	%r13, 8(%rax)
	jmp	.L577
.L682:
	call	__stack_chk_fail@PLT
	.cfi_endproc
.LFE9255:
	.section	.gcc_except_table
.LLSDA9255:
	.byte	0xff
	.byte	0xff
	.byte	0x1
	.uleb128 .LLSDACSE9255-.LLSDACSB9255
.LLSDACSB9255:
.LLSDACSE9255:
	.section	.text._ZN7asiopal13SerialChannelD2Ev,"axG",@progbits,_ZN7asiopal13SerialChannelD5Ev,comdat
	.size	_ZN7asiopal13SerialChannelD2Ev, .-_ZN7asiopal13SerialChannelD2Ev
	.weak	_ZN7asiopal13SerialChannelD1Ev
	.set	_ZN7asiopal13SerialChannelD1Ev,_ZN7asiopal13SerialChannelD2Ev
	.text
	.align 2
	.p2align 4
	.globl	_ZN7asiopal13SerialChannel12ShutdownImplEv
	.type	_ZN7asiopal13SerialChannel12ShutdownImplEv, @function
_ZN7asiopal13SerialChannel12ShutdownImplEv:
.LFB6935:
	.cfi_startproc
	endbr64
	pushq	%r15
	.cfi_def_cfa_offset 16
	.cfi_offset 15, -16
	movq	%rdi, %r15
	pushq	%r14
	.cfi_def_cfa_offset 24
	.cfi_offset 14, -24
	pushq	%r13
	.cfi_def_cfa_offset 32
	.cfi_offset 13, -32
	pushq	%r12
	.cfi_def_cfa_offset 40
	.cfi_offset 12, -40
	pushq	%rbp
	.cfi_def_cfa_offset 48
	.cfi_offset 6, -48
	pushq	%rbx
	.cfi_def_cfa_offset 56
	.cfi_offset 3, -56
	subq	$56, %rsp
	.cfi_def_cfa_offset 112
	movl	64(%rdi), %r12d
	movq	%fs:40, %rax
	movq	%rax, 40(%rsp)
	xorl	%eax, %eax
	cmpl	$-1, %r12d
	jne	.L796
.L721:
	movl	$-1, 64(%r15)
	movb	$0, 68(%r15)
	movq	40(%rsp), %rax
	xorq	%fs:40, %rax
	jne	.L797
	addq	$56, %rsp
	.cfi_remember_state
	.cfi_def_cfa_offset 56
	popq	%rbx
	.cfi_def_cfa_offset 48
	popq	%rbp
	.cfi_def_cfa_offset 40
	popq	%r12
	.cfi_def_cfa_offset 32
	popq	%r13
	.cfi_def_cfa_offset 24
	popq	%r14
	.cfi_def_cfa_offset 16
	popq	%r15
	.cfi_def_cfa_offset 8
	ret
	.p2align 4,,10
	.p2align 3
.L796:
	.cfi_restore_state
	movq	72(%rdi), %rbp
	testq	%rbp, %rbp
	je	.L692
	movq	80(%rdi), %rax
	movzbl	68(%rdi), %ebx
	movq	40(%rax), %rax
	movq	%rax, (%rsp)
	leaq	40(%rbp), %rax
	movq	%rax, %rdi
	movq	%rax, 8(%rsp)
	call	pthread_mutex_lock@PLT
	movq	72(%r15), %rdi
	cmpb	$0, 144(%rdi)
	jne	.L693
	andl	$4, %ebx
	jne	.L798
.L694:
	movl	$96, %ebp
	xorl	%r12d, %r12d
	xorl	%r13d, %r13d
.L704:
	movq	(%rdi,%rbp), %rbx
	testq	%rbx, %rbx
	je	.L695
	movq	_ZGVZN4asio15system_categoryEvE8instance@GOTPCREL(%rip), %r14
	movzbl	(%r14), %eax
	testb	%al, %al
	je	.L799
	.p2align 4,,10
	.p2align 3
.L698:
	movq	72(%r15), %rdi
	movq	_ZZN4asio15system_categoryEvE8instance@GOTPCREL(%rip), %rax
	movl	$125, 24(%rbx)
	leaq	(%rdi,%rbp), %rsi
	movq	%rax, 32(%rbx)
	movq	(%rsi), %rdx
	testq	%rdx, %rdx
	je	.L700
	movq	(%rdx), %rax
	movq	%rax, (%rsi)
	testq	%rax, %rax
	je	.L800
	movq	$0, (%rdx)
	movq	$0, (%rbx)
	testq	%r12, %r12
	je	.L801
.L732:
	movq	%rbx, (%r12)
	testq	%rax, %rax
	je	.L702
.L703:
	movq	%rbx, %r12
	movq	%rax, %rbx
	movzbl	(%r14), %eax
	testb	%al, %al
	jne	.L698
.L799:
	movq	%r14, %rdi
	call	__cxa_guard_acquire@PLT
	testl	%eax, %eax
	je	.L698
	movq	_ZZN4asio15system_categoryEvE8instance@GOTPCREL(%rip), %rsi
	movq	_ZN4asio6detail15system_categoryD1Ev@GOTPCREL(%rip), %rdi
	leaq	__dso_handle(%rip), %rdx
	call	__cxa_atexit@PLT
	movq	%r14, %rdi
	call	__cxa_guard_release@PLT
	jmp	.L698
	.p2align 4,,10
	.p2align 3
.L693:
	movq	8(%rsp), %rdi
	call	pthread_mutex_unlock@PLT
.L790:
	movl	64(%r15), %r12d
	cmpl	$-1, %r12d
	je	.L721
.L692:
	call	__errno_location@PLT
	movl	%r12d, %edi
	movl	$0, (%rax)
	movq	%rax, %rbx
	call	close@PLT
	movq	_ZGVZN4asio15system_categoryEvE8instance@GOTPCREL(%rip), %r14
	movl	%eax, %ebp
	movzbl	(%r14), %eax
	testb	%al, %al
	je	.L802
.L723:
	testl	%ebp, %ebp
	je	.L721
	movl	(%rbx), %ebp
	movzbl	(%r14), %eax
	testb	%al, %al
	je	.L803
.L726:
	cmpl	$11, %ebp
	je	.L728
.L795:
	movzbl	(%r14), %eax
	testb	%al, %al
	jne	.L721
	movq	%r14, %rdi
	call	__cxa_guard_acquire@PLT
	testl	%eax, %eax
	je	.L721
	movq	_ZZN4asio15system_categoryEvE8instance@GOTPCREL(%rip), %rsi
	movq	_ZN4asio6detail15system_categoryD1Ev@GOTPCREL(%rip), %rdi
	leaq	__dso_handle(%rip), %rdx
	call	__cxa_atexit@PLT
	movq	%r14, %rdi
	call	__cxa_guard_release@PLT
	jmp	.L721
	.p2align 4,,10
	.p2align 3
.L700:
	movq	$0, (%rbx)
	testq	%r12, %r12
	je	.L735
	movq	%rbx, (%r12)
.L702:
	movq	%rbx, %r12
.L695:
	addq	$16, %rbp
	cmpq	$144, %rbp
	jne	.L704
	movl	$-1, 88(%rdi)
	movb	$1, 144(%rdi)
	movq	8(%rsp), %rdi
	call	pthread_mutex_unlock@PLT
	movq	(%rsp), %r14
	movq	72(%r15), %rbx
	leaq	120(%r14), %rbp
	movq	%rbp, %rdi
	call	pthread_mutex_lock@PLT
	cmpq	160(%r14), %rbx
	je	.L804
.L705:
	movq	32(%rbx), %rdx
	movq	24(%rbx), %rax
	testq	%rdx, %rdx
	je	.L706
	movq	%rax, 24(%rdx)
	movq	24(%rbx), %rax
.L706:
	testq	%rax, %rax
	je	.L707
	movq	32(%rbx), %rdx
	movq	%rdx, 32(%rax)
.L707:
	movq	(%rsp), %r14
	movq	%rbp, %rdi
	movq	168(%r14), %rax
	movq	$0, 32(%rbx)
	movq	%rax, 24(%rbx)
	movq	%rbx, 168(%r14)
	call	pthread_mutex_unlock@PLT
	movq	$0, 72(%r15)
	testq	%r13, %r13
	je	.L790
	movq	40(%r14), %rbx
	cmpb	$0, 40(%rbx)
	je	.L709
	data16	leaq	_ZN4asio6detail15keyword_tss_ptrINS0_10call_stackINS0_15task_io_serviceENS0_27task_io_service_thread_infoEE7contextEE6value_E@tlsgd(%rip), %rdi
	.value	0x6666
	rex64
	call	__tls_get_addr@PLT
	movq	(%rax), %rax
	testq	%rax, %rax
	jne	.L712
	jmp	.L709
	.p2align 4,,10
	.p2align 3
.L710:
	movq	16(%rax), %rax
	testq	%rax, %rax
	je	.L709
.L712:
	cmpq	(%rax), %rbx
	jne	.L710
	movq	8(%rax), %rax
	testq	%rax, %rax
	je	.L709
	movq	16(%rax), %rdx
	testq	%rdx, %rdx
	je	.L713
	movq	%r13, (%rdx)
.L714:
	movq	%r12, 16(%rax)
	jmp	.L790
	.p2align 4,,10
	.p2align 3
.L800:
	movq	$0, 8(%rsi)
	movq	$0, (%rdx)
	movq	$0, (%rbx)
	testq	%r12, %r12
	jne	.L732
	.p2align 4,,10
	.p2align 3
.L735:
	movq	%rbx, %r13
	jmp	.L702
	.p2align 4,,10
	.p2align 3
.L801:
	movq	%rbx, %r13
	jmp	.L703
	.p2align 4,,10
	.p2align 3
.L802:
	movq	%r14, %rdi
	call	__cxa_guard_acquire@PLT
	testl	%eax, %eax
	je	.L723
	movq	_ZZN4asio15system_categoryEvE8instance@GOTPCREL(%rip), %rsi
	movq	_ZN4asio6detail15system_categoryD1Ev@GOTPCREL(%rip), %rdi
	leaq	__dso_handle(%rip), %rdx
	call	__cxa_atexit@PLT
	movq	%r14, %rdi
	call	__cxa_guard_release@PLT
	jmp	.L723
	.p2align 4,,10
	.p2align 3
.L709:
	leaq	48(%rbx), %rbp
	movq	%rbp, %rdi
	call	pthread_mutex_lock@PLT
	movq	200(%rbx), %rax
	testq	%rax, %rax
	je	.L716
	movq	%r13, (%rax)
.L717:
	movq	136(%rbx), %rax
	movq	%r12, 200(%rbx)
	orq	$1, %rax
	movq	%rax, 136(%rbx)
	cmpq	$1, %rax
	je	.L718
	movq	%rbp, %rdi
	call	pthread_mutex_unlock@PLT
	leaq	88(%rbx), %rdi
	call	pthread_cond_signal@PLT
	jmp	.L790
	.p2align 4,,10
	.p2align 3
.L718:
	cmpb	$0, 176(%rbx)
	jne	.L720
	movq	144(%rbx), %rax
	testq	%rax, %rax
	je	.L720
	movb	$1, 176(%rbx)
	leaq	88(%rax), %rdx
	leaq	28(%rsp), %rcx
	movl	$3, %esi
	movl	$-2147483639, 28(%rsp)
	movq	%rdx, 32(%rsp)
	movl	88(%rax), %edx
	movl	96(%rax), %edi
	call	epoll_ctl@PLT
.L720:
	movq	%rbp, %rdi
	call	pthread_mutex_unlock@PLT
	jmp	.L790
	.p2align 4,,10
	.p2align 3
.L798:
	movq	(%rsp), %rax
	movl	$0, 28(%rsp)
	leaq	28(%rsp), %rcx
	movl	%r12d, %edx
	movq	$0, 32(%rsp)
	movl	$2, %esi
	movl	96(%rax), %edi
	call	epoll_ctl@PLT
	movq	72(%r15), %rdi
	jmp	.L694
	.p2align 4,,10
	.p2align 3
.L803:
	movq	%r14, %rdi
	call	__cxa_guard_acquire@PLT
	testl	%eax, %eax
	je	.L726
	movq	_ZZN4asio15system_categoryEvE8instance@GOTPCREL(%rip), %rsi
	movq	_ZN4asio6detail15system_categoryD1Ev@GOTPCREL(%rip), %rdi
	leaq	__dso_handle(%rip), %rdx
	call	__cxa_atexit@PLT
	movq	%r14, %rdi
	call	__cxa_guard_release@PLT
	jmp	.L726
	.p2align 4,,10
	.p2align 3
.L804:
	movq	24(%rbx), %rax
	movq	(%rsp), %rcx
	movq	%rax, 160(%rcx)
	jmp	.L705
	.p2align 4,,10
	.p2align 3
.L728:
	movl	%r12d, %edi
	leaq	28(%rsp), %rdx
	movl	$21537, %esi
	xorl	%eax, %eax
	movl	$0, 28(%rsp)
	call	ioctl@PLT
	andb	$-4, 68(%r15)
	movl	%r12d, %edi
	movl	$0, (%rbx)
	call	close@PLT
	jmp	.L795
	.p2align 4,,10
	.p2align 3
.L716:
	movq	%r13, 192(%rbx)
	jmp	.L717
	.p2align 4,,10
	.p2align 3
.L713:
	movq	%r13, 8(%rax)
	jmp	.L714
.L797:
	call	__stack_chk_fail@PLT
	.cfi_endproc
.LFE6935:
	.size	_ZN7asiopal13SerialChannel12ShutdownImplEv, .-_ZN7asiopal13SerialChannel12ShutdownImplEv
	.section	.text._ZN7asiopal13SerialChannelD0Ev,"axG",@progbits,_ZN7asiopal13SerialChannelD5Ev,comdat
	.align 2
	.p2align 4
	.weak	_ZN7asiopal13SerialChannelD0Ev
	.type	_ZN7asiopal13SerialChannelD0Ev, @function
_ZN7asiopal13SerialChannelD0Ev:
.LFB9257:
	.cfi_startproc
	.cfi_personality 0x9b,DW.ref.__gxx_personality_v0
	.cfi_lsda 0x1b,.LLSDA9257
	endbr64
	pushq	%r15
	.cfi_def_cfa_offset 16
	.cfi_offset 15, -16
	pushq	%r14
	.cfi_def_cfa_offset 24
	.cfi_offset 14, -24
	pushq	%r13
	.cfi_def_cfa_offset 32
	.cfi_offset 13, -32
	pushq	%r12
	.cfi_def_cfa_offset 40
	.cfi_offset 12, -40
	pushq	%rbp
	.cfi_def_cfa_offset 48
	.cfi_offset 6, -48
	movq	%rdi, %rbp
	pushq	%rbx
	.cfi_def_cfa_offset 56
	.cfi_offset 3, -56
	subq	$56, %rsp
	.cfi_def_cfa_offset 112
	movl	64(%rdi), %r13d
	movq	%fs:40, %rax
	movq	%rax, 40(%rsp)
	xorl	%eax, %eax
	movq	_ZTVN7asiopal13SerialChannelE@GOTPCREL(%rip), %rax
	addq	$16, %rax
	movq	%rax, (%rdi)
	cmpl	$-1, %r13d
	jne	.L931
.L837:
	movq	_ZTVN7asiopal13IAsyncChannelE@GOTPCREL(%rip), %rax
	movq	48(%rbp), %r12
	addq	$16, %rax
	movq	%rax, 0(%rbp)
	testq	%r12, %r12
	je	.L849
	movq	_ZL28__gthrw___pthread_key_createPjPFvPvE@GOTPCREL(%rip), %rbx
	testq	%rbx, %rbx
	je	.L850
	movl	$-1, %eax
	lock xaddl	%eax, 8(%r12)
	cmpl	$1, %eax
	je	.L932
	.p2align 4,,10
	.p2align 3
.L849:
	movq	32(%rbp), %r12
	testq	%r12, %r12
	je	.L856
	movq	_ZL28__gthrw___pthread_key_createPjPFvPvE@GOTPCREL(%rip), %rbx
	testq	%rbx, %rbx
	je	.L857
	movl	$-1, %eax
	lock xaddl	%eax, 8(%r12)
	cmpl	$1, %eax
	je	.L933
	.p2align 4,,10
	.p2align 3
.L856:
	movq	16(%rbp), %rdi
	testq	%rdi, %rdi
	je	.L863
	cmpq	$0, _ZL28__gthrw___pthread_key_createPjPFvPvE@GOTPCREL(%rip)
	je	.L864
	movl	$-1, %eax
	lock xaddl	%eax, 12(%rdi)
	cmpl	$1, %eax
	je	.L934
	.p2align 4,,10
	.p2align 3
.L863:
	movl	$88, %esi
	movq	%rbp, %rdi
	call	_ZdlPvm@PLT
	movq	40(%rsp), %rax
	xorq	%fs:40, %rax
	jne	.L935
	addq	$56, %rsp
	.cfi_remember_state
	.cfi_def_cfa_offset 56
	popq	%rbx
	.cfi_def_cfa_offset 48
	popq	%rbp
	.cfi_def_cfa_offset 40
	popq	%r12
	.cfi_def_cfa_offset 32
	popq	%r13
	.cfi_def_cfa_offset 24
	popq	%r14
	.cfi_def_cfa_offset 16
	popq	%r15
	.cfi_def_cfa_offset 8
	ret
	.p2align 4,,10
	.p2align 3
.L857:
	.cfi_restore_state
	movl	8(%r12), %eax
	leal	-1(%rax), %edx
	movl	%edx, 8(%r12)
	cmpl	$1, %eax
	jne	.L856
.L933:
	movq	(%r12), %rax
	movq	%r12, %rdi
	call	*16(%rax)
	testq	%rbx, %rbx
	je	.L860
	movl	$-1, %eax
	lock xaddl	%eax, 12(%r12)
.L861:
	cmpl	$1, %eax
	jne	.L856
	movq	(%r12), %rax
	movq	%r12, %rdi
	call	*24(%rax)
	jmp	.L856
	.p2align 4,,10
	.p2align 3
.L850:
	movl	8(%r12), %eax
	leal	-1(%rax), %edx
	movl	%edx, 8(%r12)
	cmpl	$1, %eax
	jne	.L849
.L932:
	movq	(%r12), %rax
	movq	%r12, %rdi
	call	*16(%rax)
	testq	%rbx, %rbx
	je	.L853
	movl	$-1, %eax
	lock xaddl	%eax, 12(%r12)
.L854:
	cmpl	$1, %eax
	jne	.L849
	movq	(%r12), %rax
	movq	%r12, %rdi
	call	*24(%rax)
	jmp	.L849
	.p2align 4,,10
	.p2align 3
.L864:
	movl	12(%rdi), %eax
	leal	-1(%rax), %edx
	movl	%edx, 12(%rdi)
	cmpl	$1, %eax
	jne	.L863
.L934:
	movq	(%rdi), %rax
	call	*24(%rax)
	jmp	.L863
	.p2align 4,,10
	.p2align 3
.L931:
	movq	72(%rdi), %r12
	testq	%r12, %r12
	je	.L836
	movq	80(%rdi), %rax
	movzbl	68(%rdi), %ebx
	movq	40(%rax), %rax
	movq	%rax, (%rsp)
	leaq	40(%r12), %rax
	movq	%rax, %rdi
	movq	%rax, 8(%rsp)
	call	pthread_mutex_lock@PLT
	movq	72(%rbp), %rdi
	cmpb	$0, 144(%rdi)
	jne	.L808
	andl	$4, %ebx
	jne	.L936
.L809:
	movl	$96, %ebx
	xorl	%r14d, %r14d
	xorl	%r13d, %r13d
.L819:
	movq	(%rdi,%rbx), %r12
	testq	%r12, %r12
	je	.L810
	movq	_ZGVZN4asio15system_categoryEvE8instance@GOTPCREL(%rip), %r15
	movzbl	(%r15), %eax
	testb	%al, %al
	je	.L937
	.p2align 4,,10
	.p2align 3
.L813:
	movq	72(%rbp), %rdi
	movq	_ZZN4asio15system_categoryEvE8instance@GOTPCREL(%rip), %rax
	movl	$125, 24(%r12)
	leaq	(%rdi,%rbx), %rsi
	movq	%rax, 32(%r12)
	movq	(%rsi), %rdx
	testq	%rdx, %rdx
	je	.L815
	movq	(%rdx), %rax
	movq	%rax, (%rsi)
	testq	%rax, %rax
	je	.L938
	movq	$0, (%rdx)
	movq	$0, (%r12)
	testq	%r14, %r14
	je	.L939
.L867:
	movq	%r12, (%r14)
	testq	%rax, %rax
	je	.L817
.L818:
	movq	%r12, %r14
	movq	%rax, %r12
	movzbl	(%r15), %eax
	testb	%al, %al
	jne	.L813
.L937:
	movq	%r15, %rdi
	call	__cxa_guard_acquire@PLT
	testl	%eax, %eax
	je	.L813
	movq	_ZZN4asio15system_categoryEvE8instance@GOTPCREL(%rip), %rsi
	movq	_ZN4asio6detail15system_categoryD1Ev@GOTPCREL(%rip), %rdi
	leaq	__dso_handle(%rip), %rdx
	call	__cxa_atexit@PLT
	movq	%r15, %rdi
	call	__cxa_guard_release@PLT
	jmp	.L813
	.p2align 4,,10
	.p2align 3
.L808:
	movq	8(%rsp), %rdi
	call	pthread_mutex_unlock@PLT
.L925:
	movl	64(%rbp), %r13d
	cmpl	$-1, %r13d
	je	.L837
.L836:
	call	__errno_location@PLT
	movl	%r13d, %edi
	movl	$0, (%rax)
	movq	%rax, %rbx
	call	close@PLT
	movq	_ZGVZN4asio15system_categoryEvE8instance@GOTPCREL(%rip), %r15
	movl	%eax, %r12d
	movzbl	(%r15), %eax
	testb	%al, %al
	je	.L940
.L839:
	testl	%r12d, %r12d
	je	.L837
	movl	(%rbx), %r12d
	movzbl	(%r15), %eax
	testb	%al, %al
	je	.L941
.L842:
	cmpl	$11, %r12d
	je	.L844
.L930:
	movzbl	(%r15), %eax
	testb	%al, %al
	jne	.L837
	movq	%r15, %rdi
	call	__cxa_guard_acquire@PLT
	testl	%eax, %eax
	je	.L837
	movq	_ZZN4asio15system_categoryEvE8instance@GOTPCREL(%rip), %rsi
	movq	_ZN4asio6detail15system_categoryD1Ev@GOTPCREL(%rip), %rdi
	leaq	__dso_handle(%rip), %rdx
	call	__cxa_atexit@PLT
	movq	%r15, %rdi
	call	__cxa_guard_release@PLT
	jmp	.L837
	.p2align 4,,10
	.p2align 3
.L815:
	movq	$0, (%r12)
	testq	%r14, %r14
	je	.L870
	movq	%r12, (%r14)
.L817:
	movq	%r12, %r14
.L810:
	addq	$16, %rbx
	cmpq	$144, %rbx
	jne	.L819
	movl	$-1, 88(%rdi)
	movb	$1, 144(%rdi)
	movq	8(%rsp), %rdi
	call	pthread_mutex_unlock@PLT
	movq	(%rsp), %r15
	movq	72(%rbp), %rbx
	leaq	120(%r15), %r12
	movq	%r12, %rdi
	call	pthread_mutex_lock@PLT
	cmpq	160(%r15), %rbx
	je	.L942
.L820:
	movq	32(%rbx), %rdx
	movq	24(%rbx), %rax
	testq	%rdx, %rdx
	je	.L821
	movq	%rax, 24(%rdx)
	movq	24(%rbx), %rax
.L821:
	testq	%rax, %rax
	je	.L822
	movq	32(%rbx), %rdx
	movq	%rdx, 32(%rax)
.L822:
	movq	(%rsp), %r15
	movq	%r12, %rdi
	movq	168(%r15), %rax
	movq	$0, 32(%rbx)
	movq	%rax, 24(%rbx)
	movq	%rbx, 168(%r15)
	call	pthread_mutex_unlock@PLT
	movq	$0, 72(%rbp)
	testq	%r13, %r13
	je	.L925
	movq	40(%r15), %rbx
	cmpb	$0, 40(%rbx)
	je	.L824
	data16	leaq	_ZN4asio6detail15keyword_tss_ptrINS0_10call_stackINS0_15task_io_serviceENS0_27task_io_service_thread_infoEE7contextEE6value_E@tlsgd(%rip), %rdi
	.value	0x6666
	rex64
	call	__tls_get_addr@PLT
	movq	(%rax), %rax
	testq	%rax, %rax
	jne	.L827
	jmp	.L824
	.p2align 4,,10
	.p2align 3
.L825:
	movq	16(%rax), %rax
	testq	%rax, %rax
	je	.L824
.L827:
	cmpq	(%rax), %rbx
	jne	.L825
	movq	8(%rax), %rax
	testq	%rax, %rax
	je	.L824
	movq	16(%rax), %rdx
	testq	%rdx, %rdx
	je	.L828
	movq	%r13, (%rdx)
.L829:
	movq	%r14, 16(%rax)
	jmp	.L925
	.p2align 4,,10
	.p2align 3
.L938:
	movq	$0, 8(%rsi)
	movq	$0, (%rdx)
	movq	$0, (%r12)
	testq	%r14, %r14
	jne	.L867
	.p2align 4,,10
	.p2align 3
.L870:
	movq	%r12, %r13
	jmp	.L817
	.p2align 4,,10
	.p2align 3
.L939:
	movq	%r12, %r13
	jmp	.L818
	.p2align 4,,10
	.p2align 3
.L940:
	movq	%r15, %rdi
	call	__cxa_guard_acquire@PLT
	testl	%eax, %eax
	je	.L839
	movq	_ZZN4asio15system_categoryEvE8instance@GOTPCREL(%rip), %rsi
	movq	_ZN4asio6detail15system_categoryD1Ev@GOTPCREL(%rip), %rdi
	leaq	__dso_handle(%rip), %rdx
	call	__cxa_atexit@PLT
	movq	%r15, %rdi
	call	__cxa_guard_release@PLT
	jmp	.L839
	.p2align 4,,10
	.p2align 3
.L853:
	movl	12(%r12), %eax
	leal	-1(%rax), %edx
	movl	%edx, 12(%r12)
	jmp	.L854
	.p2align 4,,10
	.p2align 3
.L860:
	movl	12(%r12), %eax
	leal	-1(%rax), %edx
	movl	%edx, 12(%r12)
	jmp	.L861
	.p2align 4,,10
	.p2align 3
.L824:
	leaq	48(%rbx), %r12
	movq	%r12, %rdi
	call	pthread_mutex_lock@PLT
	movq	200(%rbx), %rax
	testq	%rax, %rax
	je	.L831
	movq	%r13, (%rax)
.L832:
	movq	136(%rbx), %rax
	movq	%r14, 200(%rbx)
	orq	$1, %rax
	movq	%rax, 136(%rbx)
	cmpq	$1, %rax
	je	.L833
	movq	%r12, %rdi
	call	pthread_mutex_unlock@PLT
	leaq	88(%rbx), %rdi
	call	pthread_cond_signal@PLT
	jmp	.L925
	.p2align 4,,10
	.p2align 3
.L833:
	cmpb	$0, 176(%rbx)
	jne	.L835
	movq	144(%rbx), %rax
	testq	%rax, %rax
	je	.L835
	movb	$1, 176(%rbx)
	leaq	88(%rax), %rdx
	leaq	28(%rsp), %rcx
	movl	$3, %esi
	movl	$-2147483639, 28(%rsp)
	movq	%rdx, 32(%rsp)
	movl	88(%rax), %edx
	movl	96(%rax), %edi
	call	epoll_ctl@PLT
.L835:
	movq	%r12, %rdi
	call	pthread_mutex_unlock@PLT
	jmp	.L925
	.p2align 4,,10
	.p2align 3
.L936:
	movq	(%rsp), %rax
	movl	$0, 28(%rsp)
	leaq	28(%rsp), %rcx
	movl	%r13d, %edx
	movq	$0, 32(%rsp)
	movl	$2, %esi
	movl	96(%rax), %edi
	call	epoll_ctl@PLT
	movq	72(%rbp), %rdi
	jmp	.L809
	.p2align 4,,10
	.p2align 3
.L941:
	movq	%r15, %rdi
	call	__cxa_guard_acquire@PLT
	testl	%eax, %eax
	je	.L842
	movq	_ZZN4asio15system_categoryEvE8instance@GOTPCREL(%rip), %rsi
	movq	_ZN4asio6detail15system_categoryD1Ev@GOTPCREL(%rip), %rdi
	leaq	__dso_handle(%rip), %rdx
	call	__cxa_atexit@PLT
	movq	%r15, %rdi
	call	__cxa_guard_release@PLT
	jmp	.L842
	.p2align 4,,10
	.p2align 3
.L942:
	movq	24(%rbx), %rax
	movq	(%rsp), %rcx
	movq	%rax, 160(%rcx)
	jmp	.L820
	.p2align 4,,10
	.p2align 3
.L844:
	movl	%r13d, %edi
	leaq	28(%rsp), %rdx
	movl	$21537, %esi
	xorl	%eax, %eax
	movl	$0, 28(%rsp)
	call	ioctl@PLT
	andb	$-4, 68(%rbp)
	movl	%r13d, %edi
	movl	$0, (%rbx)
	call	close@PLT
	jmp	.L930
	.p2align 4,,10
	.p2align 3
.L831:
	movq	%r13, 192(%rbx)
	jmp	.L832
	.p2align 4,,10
	.p2align 3
.L828:
	movq	%r13, 8(%rax)
	jmp	.L829
.L935:
	call	__stack_chk_fail@PLT
	.cfi_endproc
.LFE9257:
	.section	.gcc_except_table
.LLSDA9257:
	.byte	0xff
	.byte	0xff
	.byte	0x1
	.uleb128 .LLSDACSE9257-.LLSDACSB9257
.LLSDACSB9257:
.LLSDACSE9257:
	.section	.text._ZN7asiopal13SerialChannelD0Ev,"axG",@progbits,_ZN7asiopal13SerialChannelD5Ev,comdat
	.size	_ZN7asiopal13SerialChannelD0Ev, .-_ZN7asiopal13SerialChannelD0Ev
	.section	.text.unlikely
	.align 2
.LCOLDB25:
	.text
.LHOTB25:
	.align 2
	.p2align 4
	.globl	_ZN7asiopal13SerialChannel13BeginReadImplEN7openpal6WSliceE
	.type	_ZN7asiopal13SerialChannel13BeginReadImplEN7openpal6WSliceE, @function
_ZN7asiopal13SerialChannel13BeginReadImplEN7openpal6WSliceE:
.LFB6925:
	.cfi_startproc
	.cfi_personality 0x9b,DW.ref.__gxx_personality_v0
	.cfi_lsda 0x1b,.LLSDA6925
	endbr64
	pushq	%r15
	.cfi_def_cfa_offset 16
	.cfi_offset 15, -16
	pushq	%r14
	.cfi_def_cfa_offset 24
	.cfi_offset 14, -24
	movq	%rdx, %r14
	pushq	%r13
	.cfi_def_cfa_offset 32
	.cfi_offset 13, -32
	movl	%esi, %r13d
	pushq	%r12
	.cfi_def_cfa_offset 40
	.cfi_offset 12, -40
	pushq	%rbp
	.cfi_def_cfa_offset 48
	.cfi_offset 6, -48
	pushq	%rbx
	.cfi_def_cfa_offset 56
	.cfi_offset 3, -56
	movq	%rdi, %rbx
	subq	$136, %rsp
	.cfi_def_cfa_offset 192
	movq	%fs:40, %rax
	movq	%rax, 120(%rsp)
	xorl	%eax, %eax
	movq	24(%rdi), %rax
	movq	%rdi, 96(%rsp)
	movdqu	40(%rax), %xmm0
	movq	48(%rax), %rbp
	movq	80(%rdi), %rax
	movaps	%xmm0, 80(%rsp)
	movq	%rax, 8(%rsp)
	data16	leaq	_ZN4asio6detail15keyword_tss_ptrINS0_10call_stackINS0_14strand_service11strand_implEhE7contextEE6value_E@tlsgd(%rip), %rdi
	.value	0x6666
	rex64
	call	__tls_get_addr@PLT
	movq	(%rax), %r12
	testq	%r12, %r12
	jne	.L946
	jmp	.L944
	.p2align 4,,10
	.p2align 3
.L945:
	movq	16(%r12), %r12
	testq	%r12, %r12
	je	.L944
.L946:
	cmpq	(%r12), %rbp
	jne	.L945
	movq	8(%r12), %r12
.L944:
	pxor	%xmm0, %xmm0
	leaq	80(%rsp), %rax
	movq	%rax, 48(%rsp)
	movups	%xmm0, 56(%rsp)
	data16	leaq	_ZN4asio6detail15keyword_tss_ptrINS0_10call_stackINS0_15task_io_serviceENS0_27task_io_service_thread_infoEE7contextEE6value_E@tlsgd(%rip), %rdi
	.value	0x6666
	rex64
	call	__tls_get_addr@PLT
	movq	(%rax), %rax
	testq	%rax, %rax
	je	.L947
	movq	8(%rax), %rax
	testq	%rax, %rax
	je	.L947
	movq	(%rax), %rbp
	testq	%rbp, %rbp
	je	.L947
	movq	$0, (%rax)
	movzbl	0(%rbp), %eax
	cmpb	$103, %al
	jbe	.L948
	movb	%al, 104(%rbp)
	jmp	.L949
	.p2align 4,,10
	.p2align 3
.L948:
	movq	%rbp, %rdi
	call	_ZdlPv@PLT
.L947:
	movl	$105, %edi
.LEHB6:
	call	_Znwm@PLT
.LEHE6:
	movb	$104, 104(%rax)
	movq	%rax, %rbp
.L949:
	leaq	_ZN4asio6detail18descriptor_read_opINS_17mutable_buffers_1ENS0_15wrapped_handlerINS_10io_service6strandEZN7asiopal13SerialChannel13BeginReadImplEN7openpal6WSliceEEUlRKSt10error_codemE_NS0_26is_continuation_if_runningEEEE11do_completeEPNS0_15task_io_serviceEPNS0_25task_io_service_operationESC_m(%rip), %rax
	movl	64(%rbx), %r15d
	movq	%rbp, 56(%rsp)
	movl	$0, 16(%rbp)
	movq	$0, 0(%rbp)
	movq	%rax, 8(%rbp)
	movl	$0, 24(%rbp)
	call	_ZNSt3_V215system_categoryEv@PLT
	movdqa	80(%rsp), %xmm1
	movl	%r15d, 56(%rbp)
	movq	%rax, 32(%rbp)
	movq	%rax, %rcx
	movq	_ZN4asio6detail23descriptor_read_op_baseINS_17mutable_buffers_1EE10do_performEPNS0_10reactor_opE@GOTPCREL(%rip), %rax
	movq	$0, 40(%rbp)
	movq	%rax, 48(%rbp)
	movq	96(%rsp), %rax
	movq	%r14, 64(%rbp)
	movq	%r13, 72(%rbp)
	movq	%rax, 96(%rbp)
	movq	%rbp, 64(%rsp)
	movups	%xmm1, 80(%rbp)
	testq	%r13, %r13
	je	.L950
	testb	$3, 68(%rbx)
	jne	.L951
	cmpl	$-1, %r15d
	je	.L1112
	movq	%rcx, 16(%rsp)
	call	__errno_location@PLT
	movl	%r15d, %edi
	leaq	36(%rsp), %rdx
	movl	$21537, %esi
	movl	$0, (%rax)
	movq	%rax, %r14
	xorl	%eax, %eax
	movl	$1, 36(%rsp)
	call	ioctl@PLT
	movq	_ZGVZN4asio15system_categoryEvE8instance@GOTPCREL(%rip), %r13
	movl	%eax, %r15d
	movzbl	0(%r13), %eax
	testb	%al, %al
	movq	16(%rsp), %rcx
	je	.L956
.L1092:
	movq	_ZZN4asio15system_categoryEvE8instance@GOTPCREL(%rip), %rsi
.L957:
	movl	(%r14), %eax
	movq	%rsi, 32(%rbp)
	movl	%eax, 24(%rbp)
	testl	%r15d, %r15d
	jns	.L1113
.L950:
	movq	8(%rsp), %rax
	movq	40(%rax), %rax
	movq	40(%rax), %rbx
	testq	%r12, %r12
	jne	.L1022
	cmpb	$0, 40(%rbx)
	je	.L1006
.L1022:
	data16	leaq	_ZN4asio6detail15keyword_tss_ptrINS0_10call_stackINS0_15task_io_serviceENS0_27task_io_service_thread_infoEE7contextEE6value_E@tlsgd(%rip), %rdi
	.value	0x6666
	rex64
	call	__tls_get_addr@PLT
	movq	(%rax), %rax
	testq	%rax, %rax
	jne	.L1010
	jmp	.L1006
	.p2align 4,,10
	.p2align 3
.L1008:
	movq	16(%rax), %rax
	testq	%rax, %rax
	je	.L1006
.L1010:
	cmpq	(%rax), %rbx
	jne	.L1008
.L1111:
	movq	8(%rax), %rax
	testq	%rax, %rax
	je	.L1006
	addq	$1, 24(%rax)
	movq	$0, 0(%rbp)
	cmpq	$0, 16(%rax)
	je	.L1011
	movq	16(%rax), %rdx
	movq	%rbp, (%rdx)
	movq	%rbp, 16(%rax)
	jmp	.L943
	.p2align 4,,10
	.p2align 3
.L1113:
	movl	$0, 24(%rbp)
	movl	64(%rbx), %r15d
	movq	%rcx, 32(%rbp)
	orb	$2, 68(%rbx)
.L951:
	movq	8(%rsp), %rax
	movq	72(%rbx), %r13
	movq	40(%rax), %r14
	testq	%r13, %r13
	je	.L1114
	addq	$40, %r13
	movq	%r13, %rdi
	call	pthread_mutex_lock@PLT
	movq	72(%rbx), %rax
	cmpb	$0, 144(%rax)
	jne	.L1115
	cmpq	$0, 96(%rax)
	je	.L1116
.L989:
	movq	104(%rax), %rdx
	movq	$0, 0(%rbp)
	testq	%rdx, %rdx
	je	.L1003
	movq	%rbp, (%rdx)
	movq	%rbp, 104(%rax)
.L1004:
	movq	40(%r14), %rax
	lock addq	$1, 184(%rax)
	movq	%r13, %rdi
	call	pthread_mutex_unlock@PLT
	jmp	.L943
	.p2align 4,,10
	.p2align 3
.L1114:
	movq	_ZGVZN4asio15system_categoryEvE8instance@GOTPCREL(%rip), %r13
	movzbl	0(%r13), %eax
	testb	%al, %al
	je	.L961
.L1093:
	movq	_ZZN4asio15system_categoryEvE8instance@GOTPCREL(%rip), %rsi
.L962:
	movq	40(%r14), %rbx
	movl	$9, 24(%rbp)
	movq	%rsi, 32(%rbp)
	cmpb	$0, 40(%rbx)
	jne	.L1019
	testq	%r12, %r12
	jne	.L1019
	.p2align 4,,10
	.p2align 3
.L1006:
	lock addq	$1, 184(%rbx)
	leaq	48(%rbx), %r12
	movq	%r12, %rdi
	call	pthread_mutex_lock@PLT
	movq	$0, 0(%rbp)
	cmpq	$0, 200(%rbx)
	je	.L1012
	movq	200(%rbx), %rax
	movq	%rbp, (%rax)
	movq	%rbp, 200(%rbx)
.L1013:
	movq	136(%rbx), %rax
	orq	$1, %rax
	movq	%rax, 136(%rbx)
	cmpq	$1, %rax
	je	.L1014
	movq	%r12, %rdi
	call	pthread_mutex_unlock@PLT
	leaq	88(%rbx), %rdi
	call	pthread_cond_signal@PLT
	.p2align 4,,10
	.p2align 3
.L943:
	movq	120(%rsp), %rax
	xorq	%fs:40, %rax
	jne	.L1117
	addq	$136, %rsp
	.cfi_remember_state
	.cfi_def_cfa_offset 56
	popq	%rbx
	.cfi_def_cfa_offset 48
	popq	%rbp
	.cfi_def_cfa_offset 40
	popq	%r12
	.cfi_def_cfa_offset 32
	popq	%r13
	.cfi_def_cfa_offset 24
	popq	%r14
	.cfi_def_cfa_offset 16
	popq	%r15
	.cfi_def_cfa_offset 8
	ret
	.p2align 4,,10
	.p2align 3
.L1014:
	.cfi_restore_state
	cmpb	$0, 176(%rbx)
	jne	.L1016
	movq	144(%rbx), %rax
	testq	%rax, %rax
	je	.L1016
	movb	$1, 176(%rbx)
	leaq	88(%rax), %rdx
	leaq	36(%rsp), %rcx
	movl	$3, %esi
	movl	$-2147483639, 36(%rsp)
	movq	%rdx, 40(%rsp)
	movl	88(%rax), %edx
	movl	96(%rax), %edi
	call	epoll_ctl@PLT
.L1016:
	movq	%r12, %rdi
	call	pthread_mutex_unlock@PLT
	jmp	.L943
	.p2align 4,,10
	.p2align 3
.L1011:
	movq	%rbp, %xmm0
	punpcklqdq	%xmm0, %xmm0
	movups	%xmm0, 8(%rax)
	jmp	.L943
	.p2align 4,,10
	.p2align 3
.L1003:
	movq	%rbp, %xmm0
	punpcklqdq	%xmm0, %xmm0
	movups	%xmm0, 96(%rax)
	jmp	.L1004
	.p2align 4,,10
	.p2align 3
.L956:
	movq	%r13, %rdi
	movq	%rcx, 16(%rsp)
	call	__cxa_guard_acquire@PLT
	movq	16(%rsp), %rcx
	testl	%eax, %eax
	je	.L1092
	movq	_ZZN4asio15system_categoryEvE8instance@GOTPCREL(%rip), %rsi
	movq	_ZN4asio6detail15system_categoryD1Ev@GOTPCREL(%rip), %rdi
	movq	%rcx, 24(%rsp)
	leaq	__dso_handle(%rip), %rdx
	movq	%rsi, 16(%rsp)
	call	__cxa_atexit@PLT
	movq	%r13, %rdi
	call	__cxa_guard_release@PLT
	movq	24(%rsp), %rcx
	movq	16(%rsp), %rsi
	jmp	.L957
	.p2align 4,,10
	.p2align 3
.L1012:
	movq	%rbp, %xmm0
	punpcklqdq	%xmm0, %xmm0
	movups	%xmm0, 192(%rbx)
	jmp	.L1013
	.p2align 4,,10
	.p2align 3
.L1019:
	data16	leaq	_ZN4asio6detail15keyword_tss_ptrINS0_10call_stackINS0_15task_io_serviceENS0_27task_io_service_thread_infoEE7contextEE6value_E@tlsgd(%rip), %rdi
	.value	0x6666
	rex64
	call	__tls_get_addr@PLT
	movq	(%rax), %rax
	testq	%rax, %rax
	jne	.L968
	jmp	.L1006
	.p2align 4,,10
	.p2align 3
.L966:
	movq	16(%rax), %rax
	testq	%rax, %rax
	je	.L1006
.L968:
	cmpq	(%rax), %rbx
	jne	.L966
	jmp	.L1111
	.p2align 4,,10
	.p2align 3
.L1115:
	movq	40(%r14), %rbx
	cmpb	$0, 40(%rbx)
	jne	.L1020
	testq	%r12, %r12
	je	.L977
.L1020:
	data16	leaq	_ZN4asio6detail15keyword_tss_ptrINS0_10call_stackINS0_15task_io_serviceENS0_27task_io_service_thread_infoEE7contextEE6value_E@tlsgd(%rip), %rdi
	.value	0x6666
	rex64
	call	__tls_get_addr@PLT
	movq	(%rax), %rax
	testq	%rax, %rax
	jne	.L981
	jmp	.L977
	.p2align 4,,10
	.p2align 3
.L979:
	movq	16(%rax), %rax
	testq	%rax, %rax
	je	.L977
.L981:
	cmpq	(%rax), %rbx
	jne	.L979
	movq	8(%rax), %rax
	testq	%rax, %rax
	je	.L977
	addq	$1, 24(%rax)
	cmpq	$0, 16(%rax)
	movq	$0, 0(%rbp)
	je	.L982
	movq	16(%rax), %rdx
	movq	%rbp, (%rdx)
	movq	%rbp, 16(%rax)
.L983:
	movq	%r13, %rdi
	call	pthread_mutex_unlock@PLT
	jmp	.L943
	.p2align 4,,10
	.p2align 3
.L1112:
	movq	_ZGVZN4asio15system_categoryEvE8instance@GOTPCREL(%rip), %r13
	movzbl	0(%r13), %eax
	testb	%al, %al
	je	.L953
.L1091:
	movq	_ZZN4asio15system_categoryEvE8instance@GOTPCREL(%rip), %rsi
.L954:
	movl	$9, 24(%rbp)
	movq	%rsi, 32(%rbp)
	jmp	.L950
	.p2align 4,,10
	.p2align 3
.L1116:
	cmpq	$0, 128(%rax)
	je	.L1118
	movl	92(%rax), %edx
	movq	%rax, 40(%rsp)
	leaq	36(%rsp), %rcx
	movl	$3, %esi
	movl	%edx, 36(%rsp)
	movl	96(%r14), %edi
	movl	%r15d, %edx
	call	epoll_ctl@PLT
.L1094:
	movq	72(%rbx), %rax
	jmp	.L989
	.p2align 4,,10
	.p2align 3
.L961:
	movq	%r13, %rdi
	call	__cxa_guard_acquire@PLT
	testl	%eax, %eax
	je	.L1093
	movq	_ZZN4asio15system_categoryEvE8instance@GOTPCREL(%rip), %rsi
	movq	_ZN4asio6detail15system_categoryD1Ev@GOTPCREL(%rip), %rdi
	leaq	__dso_handle(%rip), %rdx
	movq	%rsi, 8(%rsp)
	call	__cxa_atexit@PLT
	movq	%r13, %rdi
	call	__cxa_guard_release@PLT
	movq	8(%rsp), %rsi
	jmp	.L962
	.p2align 4,,10
	.p2align 3
.L953:
	movq	%r13, %rdi
	call	__cxa_guard_acquire@PLT
	testl	%eax, %eax
	je	.L1091
	movq	_ZZN4asio15system_categoryEvE8instance@GOTPCREL(%rip), %rsi
	movq	_ZN4asio6detail15system_categoryD1Ev@GOTPCREL(%rip), %rdi
	leaq	__dso_handle(%rip), %rdx
	movq	%rsi, 16(%rsp)
	call	__cxa_atexit@PLT
	movq	%r13, %rdi
	call	__cxa_guard_release@PLT
	movq	16(%rsp), %rsi
	jmp	.L954
	.p2align 4,,10
	.p2align 3
.L977:
	lock addq	$1, 184(%rbx)
	leaq	48(%rbx), %r12
	movq	%r12, %rdi
	call	pthread_mutex_lock@PLT
	cmpq	$0, 200(%rbx)
	movq	$0, 0(%rbp)
	je	.L984
	movq	200(%rbx), %rax
	movq	%rbp, (%rax)
	movq	%rbp, 200(%rbx)
.L985:
	movq	136(%rbx), %rax
	orq	$1, %rax
	movq	%rax, 136(%rbx)
	cmpq	$1, %rax
	je	.L986
	movq	%r12, %rdi
	call	pthread_mutex_unlock@PLT
	leaq	88(%rbx), %rdi
	call	pthread_cond_signal@PLT
	jmp	.L983
	.p2align 4,,10
	.p2align 3
.L986:
	cmpb	$0, 176(%rbx)
	jne	.L988
	movq	144(%rbx), %rax
	testq	%rax, %rax
	je	.L988
	movb	$1, 176(%rbx)
	leaq	88(%rax), %rdx
	leaq	36(%rsp), %rcx
	movl	$3, %esi
	movl	$-2147483639, 36(%rsp)
	movq	%rdx, 40(%rsp)
	movl	88(%rax), %edx
	movl	96(%rax), %edi
	call	epoll_ctl@PLT
.L988:
	movq	%r12, %rdi
	call	pthread_mutex_unlock@PLT
	jmp	.L983
	.p2align 4,,10
	.p2align 3
.L984:
	movq	%rbp, %xmm0
	punpcklqdq	%xmm0, %xmm0
	movups	%xmm0, 192(%rbx)
	jmp	.L985
	.p2align 4,,10
	.p2align 3
.L1118:
	movq	%rbp, %rdi
.LEHB7:
	call	*48(%rbp)
.LEHE7:
	testb	%al, %al
	je	.L1094
	movq	%r13, %rdi
	call	pthread_mutex_unlock@PLT
	movq	40(%r14), %rbx
	testq	%r12, %r12
	jne	.L1021
	cmpb	$0, 40(%rbx)
	je	.L1006
.L1021:
	data16	leaq	_ZN4asio6detail15keyword_tss_ptrINS0_10call_stackINS0_15task_io_serviceENS0_27task_io_service_thread_infoEE7contextEE6value_E@tlsgd(%rip), %rdi
	.value	0x6666
	rex64
	call	__tls_get_addr@PLT
	movq	(%rax), %rax
	testq	%rax, %rax
	jne	.L996
	jmp	.L1006
	.p2align 4,,10
	.p2align 3
.L994:
	movq	16(%rax), %rax
	testq	%rax, %rax
	je	.L1006
.L996:
	cmpq	(%rax), %rbx
	jne	.L994
	jmp	.L1111
.L982:
	movq	%rbp, %xmm0
	punpcklqdq	%xmm0, %xmm0
	movups	%xmm0, 8(%rax)
	jmp	.L983
.L1117:
	call	__stack_chk_fail@PLT
.L1018:
	endbr64
	movq	%rax, %rbp
	jmp	.L1005
	.section	.gcc_except_table
.LLSDA6925:
	.byte	0xff
	.byte	0xff
	.byte	0x1
	.uleb128 .LLSDACSE6925-.LLSDACSB6925
.LLSDACSB6925:
	.uleb128 .LEHB6-.LFB6925
	.uleb128 .LEHE6-.LEHB6
	.uleb128 0
	.uleb128 0
	.uleb128 .LEHB7-.LFB6925
	.uleb128 .LEHE7-.LEHB7
	.uleb128 .L1018-.LFB6925
	.uleb128 0
.LLSDACSE6925:
	.text
	.cfi_endproc
	.section	.text.unlikely
	.cfi_startproc
	.cfi_personality 0x9b,DW.ref.__gxx_personality_v0
	.cfi_lsda 0x1b,.LLSDAC6925
	.type	_ZN7asiopal13SerialChannel13BeginReadImplEN7openpal6WSliceE.cold, @function
_ZN7asiopal13SerialChannel13BeginReadImplEN7openpal6WSliceE.cold:
.LFSB6925:
.L1005:
	.cfi_def_cfa_offset 192
	.cfi_offset 3, -56
	.cfi_offset 6, -48
	.cfi_offset 12, -40
	.cfi_offset 13, -32
	.cfi_offset 14, -24
	.cfi_offset 15, -16
	movq	%r13, %rdi
	call	pthread_mutex_unlock@PLT
	leaq	56(%rsp), %rdi
	leaq	64(%rsp), %rsi
	call	_ZN4asio6detail18descriptor_read_opINS_17mutable_buffers_1ENS0_15wrapped_handlerINS_10io_service6strandEZN7asiopal13SerialChannel13BeginReadImplEN7openpal6WSliceEEUlRKSt10error_codemE_NS0_26is_continuation_if_runningEEEE3ptr5resetEv.isra.0
	movq	%rbp, %rdi
.LEHB8:
	call	_Unwind_Resume@PLT
.LEHE8:
	.cfi_endproc
.LFE6925:
	.section	.gcc_except_table
.LLSDAC6925:
	.byte	0xff
	.byte	0xff
	.byte	0x1
	.uleb128 .LLSDACSEC6925-.LLSDACSBC6925
.LLSDACSBC6925:
	.uleb128 .LEHB8-.LCOLDB25
	.uleb128 .LEHE8-.LEHB8
	.uleb128 0
	.uleb128 0
.LLSDACSEC6925:
	.section	.text.unlikely
	.text
	.size	_ZN7asiopal13SerialChannel13BeginReadImplEN7openpal6WSliceE, .-_ZN7asiopal13SerialChannel13BeginReadImplEN7openpal6WSliceE
	.section	.text.unlikely
	.size	_ZN7asiopal13SerialChannel13BeginReadImplEN7openpal6WSliceE.cold, .-_ZN7asiopal13SerialChannel13BeginReadImplEN7openpal6WSliceE.cold
.LCOLDE25:
	.text
.LHOTE25:
	.section	.rodata._ZNSt12system_errorC2ESt10error_codePKc.str1.1,"aMS",@progbits,1
.LC26:
	.string	": "
	.section	.text._ZNSt12system_errorC2ESt10error_codePKc,"axG",@progbits,_ZNSt12system_errorC5ESt10error_codePKc,comdat
	.align 2
	.p2align 4
	.weak	_ZNSt12system_errorC2ESt10error_codePKc
	.type	_ZNSt12system_errorC2ESt10error_codePKc, @function
_ZNSt12system_errorC2ESt10error_codePKc:
.LFB2291:
	.cfi_startproc
	.cfi_personality 0x9b,DW.ref.__gxx_personality_v0
	.cfi_lsda 0x1b,.LLSDA2291
	endbr64
	pushq	%r14
	.cfi_def_cfa_offset 16
	.cfi_offset 14, -16
	movl	%esi, %r8d
	movq	%rcx, %r14
	pushq	%r13
	.cfi_def_cfa_offset 24
	.cfi_offset 13, -24
	movq	%r8, %r13
	pushq	%r12
	.cfi_def_cfa_offset 32
	.cfi_offset 12, -32
	pushq	%rbp
	.cfi_def_cfa_offset 40
	.cfi_offset 6, -40
	movq	%rdx, %rbp
	pushq	%rbx
	.cfi_def_cfa_offset 48
	.cfi_offset 3, -48
	movq	%rdi, %rbx
	subq	$112, %rsp
	.cfi_def_cfa_offset 160
	movq	%fs:40, %rax
	movq	%rax, 104(%rsp)
	xorl	%eax, %eax
	movq	(%rdx), %rax
	leaq	64(%rsp), %r12
	movl	%esi, %edx
	movq	%r12, %rdi
	movq	%rbp, %rsi
.LEHB9:
	call	*32(%rax)
.LEHE9:
	movl	$2, %r8d
	xorl	%edx, %edx
	xorl	%esi, %esi
	leaq	.LC26(%rip), %rcx
	movq	%r12, %rdi
.LEHB10:
	call	_ZNSt7__cxx1112basic_stringIcSt11char_traitsIcESaIcEE10_M_replaceEmmPKcm@PLT
.LEHE10:
	leaq	48(%rsp), %r12
	leaq	16(%rax), %rdx
	movq	%r12, 32(%rsp)
	movq	(%rax), %rcx
	cmpq	%rdx, %rcx
	je	.L1139
	movq	%rcx, 32(%rsp)
	movq	16(%rax), %rcx
	movq	%rcx, 48(%rsp)
.L1121:
	movq	8(%rax), %rcx
	movb	$0, 16(%rax)
	movq	%r14, %rdi
	movq	%rcx, 40(%rsp)
	movq	%rdx, (%rax)
	movq	$0, 8(%rax)
	call	strlen@PLT
	leaq	32(%rsp), %rdi
	movq	%r14, %rcx
	xorl	%edx, %edx
	movq	%rax, %r8
	xorl	%esi, %esi
.LEHB11:
	call	_ZNSt7__cxx1112basic_stringIcSt11char_traitsIcESaIcEE10_M_replaceEmmPKcm@PLT
.LEHE11:
	leaq	16(%rsp), %r14
	leaq	16(%rax), %rdx
	movq	%r14, (%rsp)
	movq	(%rax), %rcx
	cmpq	%rdx, %rcx
	je	.L1140
	movq	%rcx, (%rsp)
	movq	16(%rax), %rcx
	movq	%rcx, 16(%rsp)
.L1123:
	movq	8(%rax), %rcx
	movb	$0, 16(%rax)
	movq	%rsp, %rsi
	movq	%rbx, %rdi
	movq	%rcx, 8(%rsp)
	movq	%rdx, (%rax)
	movq	$0, 8(%rax)
.LEHB12:
	call	_ZNSt13runtime_errorC2ERKNSt7__cxx1112basic_stringIcSt11char_traitsIcESaIcEEE@PLT
.LEHE12:
	movq	(%rsp), %rdi
	cmpq	%r14, %rdi
	je	.L1124
	call	_ZdlPv@PLT
.L1124:
	movq	32(%rsp), %rdi
	cmpq	%r12, %rdi
	je	.L1125
	call	_ZdlPv@PLT
.L1125:
	movq	64(%rsp), %rdi
	leaq	80(%rsp), %rax
	cmpq	%rax, %rdi
	je	.L1126
	call	_ZdlPv@PLT
.L1126:
	movq	_ZTVSt12system_error@GOTPCREL(%rip), %rax
	movq	%r13, 16(%rbx)
	movq	%rbp, 24(%rbx)
	addq	$16, %rax
	movq	%rax, (%rbx)
	movq	104(%rsp), %rax
	xorq	%fs:40, %rax
	jne	.L1141
	addq	$112, %rsp
	.cfi_remember_state
	.cfi_def_cfa_offset 48
	popq	%rbx
	.cfi_def_cfa_offset 40
	popq	%rbp
	.cfi_def_cfa_offset 32
	popq	%r12
	.cfi_def_cfa_offset 24
	popq	%r13
	.cfi_def_cfa_offset 16
	popq	%r14
	.cfi_def_cfa_offset 8
	ret
	.p2align 4,,10
	.p2align 3
.L1139:
	.cfi_restore_state
	movdqu	16(%rax), %xmm0
	movaps	%xmm0, 48(%rsp)
	jmp	.L1121
	.p2align 4,,10
	.p2align 3
.L1140:
	movdqu	16(%rax), %xmm1
	movaps	%xmm1, 16(%rsp)
	jmp	.L1123
.L1141:
	call	__stack_chk_fail@PLT
.L1136:
	endbr64
	movq	%rax, %rbp
	jmp	.L1127
.L1134:
	endbr64
	movq	%rax, %rbp
	jmp	.L1131
.L1135:
	endbr64
	movq	%rax, %rbp
	jmp	.L1129
.L1127:
	movq	(%rsp), %rdi
	cmpq	%r14, %rdi
	je	.L1129
	call	_ZdlPv@PLT
.L1129:
	movq	32(%rsp), %rdi
	cmpq	%r12, %rdi
	je	.L1131
	call	_ZdlPv@PLT
.L1131:
	movq	64(%rsp), %rdi
	leaq	80(%rsp), %rax
	cmpq	%rax, %rdi
	je	.L1132
	call	_ZdlPv@PLT
.L1132:
	movq	%rbp, %rdi
.LEHB13:
	call	_Unwind_Resume@PLT
.LEHE13:
	.cfi_endproc
.LFE2291:
	.section	.gcc_except_table
.LLSDA2291:
	.byte	0xff
	.byte	0xff
	.byte	0x1
	.uleb128 .LLSDACSE2291-.LLSDACSB2291
.LLSDACSB2291:
	.uleb128 .LEHB9-.LFB2291
	.uleb128 .LEHE9-.LEHB9
	.uleb128 0
	.uleb128 0
	.uleb128 .LEHB10-.LFB2291
	.uleb128 .LEHE10-.LEHB10
	.uleb128 .L1134-.LFB2291
	.uleb128 0
	.uleb128 .LEHB11-.LFB2291
	.uleb128 .LEHE11-.LEHB11
	.uleb128 .L1135-.LFB2291
	.uleb128 0
	.uleb128 .LEHB12-.LFB2291
	.uleb128 .LEHE12-.LEHB12
	.uleb128 .L1136-.LFB2291
	.uleb128 0
	.uleb128 .LEHB13-.LFB2291
	.uleb128 .LEHE13-.LEHB13
	.uleb128 0
	.uleb128 0
.LLSDACSE2291:
	.section	.text._ZNSt12system_errorC2ESt10error_codePKc,"axG",@progbits,_ZNSt12system_errorC5ESt10error_codePKc,comdat
	.size	_ZNSt12system_errorC2ESt10error_codePKc, .-_ZNSt12system_errorC2ESt10error_codePKc
	.weak	_ZNSt12system_errorC1ESt10error_codePKc
	.set	_ZNSt12system_errorC1ESt10error_codePKc,_ZNSt12system_errorC2ESt10error_codePKc
	.section	.text.unlikely
	.type	_ZN4asio6detail14do_throw_errorERKSt10error_codePKc.isra.0, @function
_ZN4asio6detail14do_throw_errorERKSt10error_codePKc.isra.0:
.LFB9602:
	.cfi_startproc
	.cfi_personality 0x9b,DW.ref.__gxx_personality_v0
	.cfi_lsda 0x1b,.LLSDA9602
	pushq	%r12
	.cfi_def_cfa_offset 16
	.cfi_offset 12, -16
	movq	%rsi, %r8
	movq	%rdx, %rcx
	movl	%edi, %esi
	pushq	%rbp
	.cfi_def_cfa_offset 24
	.cfi_offset 6, -24
	movq	%r8, %rdx
	subq	$56, %rsp
	.cfi_def_cfa_offset 80
	movq	%fs:40, %rax
	movq	%rax, 40(%rsp)
	xorl	%eax, %eax
	movq	%rsp, %r12
	movq	%r12, %rdi
.LEHB14:
	call	_ZNSt12system_errorC1ESt10error_codePKc@PLT
.LEHE14:
	movl	$32, %edi
	call	__cxa_allocate_exception@PLT
	movq	%r12, %rsi
	movq	%rax, %rdi
	movq	%rax, %rbp
	call	_ZNSt13runtime_errorC2ERKS_@PLT
	movq	_ZTVSt12system_error@GOTPCREL(%rip), %rax
	movq	%rbp, %rdi
	movaps	16(%rsp), %xmm0
	movq	_ZNSt12system_errorD1Ev@GOTPCREL(%rip), %rdx
	movq	_ZTISt12system_error@GOTPCREL(%rip), %rsi
	addq	$16, %rax
	movups	%xmm0, 16(%rbp)
	movq	%rax, 0(%rbp)
.LEHB15:
	call	__cxa_throw@PLT
.LEHE15:
.L1145:
	endbr64
	movq	%rax, %rbp
.L1143:
	movq	%r12, %rdi
	call	_ZNSt12system_errorD1Ev@PLT
	movq	%rbp, %rdi
.LEHB16:
	call	_Unwind_Resume@PLT
.LEHE16:
	.cfi_endproc
.LFE9602:
	.section	.gcc_except_table
.LLSDA9602:
	.byte	0xff
	.byte	0xff
	.byte	0x1
	.uleb128 .LLSDACSE9602-.LLSDACSB9602
.LLSDACSB9602:
	.uleb128 .LEHB14-.LFB9602
	.uleb128 .LEHE14-.LEHB14
	.uleb128 0
	.uleb128 0
	.uleb128 .LEHB15-.LFB9602
	.uleb128 .LEHE15-.LEHB15
	.uleb128 .L1145-.LFB9602
	.uleb128 0
	.uleb128 .LEHB16-.LFB9602
	.uleb128 .LEHE16-.LEHB16
	.uleb128 0
	.uleb128 0
.LLSDACSE9602:
	.section	.text.unlikely
	.size	_ZN4asio6detail14do_throw_errorERKSt10error_codePKc.isra.0, .-_ZN4asio6detail14do_throw_errorERKSt10error_codePKc.isra.0
	.section	.rodata._ZN4asio6detail13epoll_reactor12fork_serviceENS_10io_service10fork_eventE.str1.1,"aMS",@progbits,1
.LC27:
	.string	"epoll"
.LC28:
	.string	"eventfd_select_interrupter"
.LC29:
	.string	"epoll re-registration"
	.section	.text._ZN4asio6detail13epoll_reactor12fork_serviceENS_10io_service10fork_eventE,"axG",@progbits,_ZN4asio6detail13epoll_reactor12fork_serviceENS_10io_service10fork_eventE,comdat
	.align 2
	.p2align 4
	.weak	_ZN4asio6detail13epoll_reactor12fork_serviceENS_10io_service10fork_eventE
	.type	_ZN4asio6detail13epoll_reactor12fork_serviceENS_10io_service10fork_eventE, @function
_ZN4asio6detail13epoll_reactor12fork_serviceENS_10io_service10fork_eventE:
.LFB3244:
	.cfi_startproc
	.cfi_personality 0x9b,DW.ref.__gxx_personality_v0
	.cfi_lsda 0x1b,.LLSDA3244
	endbr64
	pushq	%r15
	.cfi_def_cfa_offset 16
	.cfi_offset 15, -16
	pushq	%r14
	.cfi_def_cfa_offset 24
	.cfi_offset 14, -24
	pushq	%r13
	.cfi_def_cfa_offset 32
	.cfi_offset 13, -32
	pushq	%r12
	.cfi_def_cfa_offset 40
	.cfi_offset 12, -40
	pushq	%rbp
	.cfi_def_cfa_offset 48
	.cfi_offset 6, -48
	pushq	%rbx
	.cfi_def_cfa_offset 56
	.cfi_offset 3, -56
	subq	$104, %rsp
	.cfi_def_cfa_offset 160
	movq	%fs:40, %rax
	movq	%rax, 88(%rsp)
	xorl	%eax, %eax
	cmpl	$2, %esi
	je	.L1247
.L1147:
	movq	88(%rsp), %rax
	xorq	%fs:40, %rax
	jne	.L1248
	addq	$104, %rsp
	.cfi_remember_state
	.cfi_def_cfa_offset 56
	popq	%rbx
	.cfi_def_cfa_offset 48
	popq	%rbp
	.cfi_def_cfa_offset 40
	popq	%r12
	.cfi_def_cfa_offset 32
	popq	%r13
	.cfi_def_cfa_offset 24
	popq	%r14
	.cfi_def_cfa_offset 16
	popq	%r15
	.cfi_def_cfa_offset 8
	ret
	.p2align 4,,10
	.p2align 3
.L1247:
	.cfi_restore_state
	movq	%rdi, %rbx
	movl	96(%rdi), %edi
	cmpl	$-1, %edi
	jne	.L1249
.L1149:
	movl	$-1, 96(%rbx)
	movl	$524288, %edi
	call	epoll_create1@PLT
	movl	%eax, %ebp
	cmpl	$-1, %eax
	je	.L1250
.L1150:
	movl	100(%rbx), %edi
	movl	%ebp, 96(%rbx)
	cmpl	$-1, %edi
	jne	.L1251
.L1156:
	movl	$-1, 100(%rbx)
	movl	$524288, %esi
	movl	$1, %edi
	call	timerfd_create@PLT
	movl	%eax, %ebp
	cmpl	$-1, %eax
	je	.L1252
.L1157:
	movl	92(%rbx), %r8d
	movl	88(%rbx), %edi
	movl	%ebp, 100(%rbx)
	leaq	88(%rbx), %r12
	cmpl	$-1, %r8d
	je	.L1158
	cmpl	%edi, %r8d
	jne	.L1253
.L1159:
.LEHB17:
	call	close@PLT
.L1160:
	movq	$-1, 88(%rbx)
	movl	$526336, %esi
	xorl	%edi, %edi
	call	eventfd@PLT
	movl	%eax, 88(%rbx)
	movl	%eax, %edx
	movl	%eax, 92(%rbx)
	cmpl	$-1, %eax
	je	.L1254
.L1161:
	movl	96(%rbx), %edi
	leaq	4(%rsp), %rbp
	movl	$1, %esi
	movl	$-2147483639, 4(%rsp)
	movq	%rbp, %rcx
	movq	%r12, 8(%rsp)
	leaq	48(%rsp), %r13
	call	epoll_ctl@PLT
	movl	92(%rbx), %edi
	movl	$8, %edx
	movq	%r13, %rsi
	movq	$1, 48(%rsp)
	call	write@PLT
.LEHE17:
	movl	100(%rbx), %edx
	cmpl	$-1, %edx
	jne	.L1255
.L1169:
	movl	88(%rbx), %edx
	movl	96(%rbx), %edi
	movq	%r13, %rcx
	movl	$3, %esi
	movl	$-2147483639, 48(%rsp)
	movq	%r12, 52(%rsp)
	call	epoll_ctl@PLT
.L1175:
	leaq	120(%rbx), %r14
	movq	%r14, %rdi
	call	pthread_mutex_lock@PLT
	movq	160(%rbx), %r15
	testq	%r15, %r15
	jne	.L1176
	jmp	.L1182
	.p2align 4,,10
	.p2align 3
.L1177:
	movq	24(%r15), %r15
	testq	%r15, %r15
	je	.L1182
.L1176:
	movl	92(%r15), %eax
	movl	88(%r15), %edx
	movq	%rbp, %rcx
	movl	$1, %esi
	movl	96(%rbx), %edi
	movq	%r15, 8(%rsp)
	movl	%eax, 4(%rsp)
	call	epoll_ctl@PLT
	testl	%eax, %eax
	je	.L1177
	movq	_ZGVZN4asio15system_categoryEvE8instance@GOTPCREL(%rip), %r12
	movzbl	(%r12), %eax
	testb	%al, %al
	je	.L1178
.L1246:
	movq	_ZZN4asio15system_categoryEvE8instance@GOTPCREL(%rip), %r13
.L1179:
	call	__errno_location@PLT
	movl	(%rax), %eax
	testl	%eax, %eax
	je	.L1177
	leaq	.LC29(%rip), %rdx
	movl	%eax, %edi
	movq	%r13, %rsi
.LEHB18:
	call	_ZN4asio6detail14do_throw_errorERKSt10error_codePKc.isra.0
.LEHE18:
	.p2align 4,,10
	.p2align 3
.L1253:
	movl	%r8d, %edi
.LEHB19:
	call	close@PLT
	movl	88(%rbx), %edi
.L1158:
	cmpl	$-1, %edi
	je	.L1160
	jmp	.L1159
	.p2align 4,,10
	.p2align 3
.L1255:
	movl	96(%rbx), %edi
	leaq	100(%rbx), %rax
	movq	%rbp, %rcx
	movl	$1, %esi
	movl	$9, 4(%rsp)
	movq	%rax, 8(%rsp)
	call	epoll_ctl@PLT
	movl	100(%rbx), %edi
	cmpl	$-1, %edi
	je	.L1169
	movq	104(%rbx), %r12
	pxor	%xmm0, %xmm0
	movaps	%xmm0, 16(%rsp)
	testq	%r12, %r12
	je	.L1170
	movl	$300000000, %esi
	.p2align 4,,10
	.p2align 3
.L1172:
	movq	(%r12), %rax
	movq	%r12, %rdi
	call	*32(%rax)
	movq	8(%r12), %r12
	movq	%rax, %rsi
	testq	%r12, %r12
	jne	.L1172
	movabsq	$4835703278458516699, %rdx
	xorl	%r8d, %r8d
	movl	100(%rbx), %edi
	imulq	%rdx
	movq	%rsi, %rax
	sarq	$63, %rax
	sarq	$18, %rdx
	subq	%rax, %rdx
	testq	%rsi, %rsi
	movl	$1, %eax
	movq	%rdx, 32(%rsp)
	sete	%r8b
	je	.L1174
	imulq	$1000000, %rdx, %rdx
	subq	%rdx, %rsi
	imulq	$1000, %rsi, %rax
.L1174:
	leaq	16(%rsp), %rdx
	movq	%r13, %rcx
	movl	%r8d, %esi
	movq	%rax, 40(%rsp)
	call	timerfd_settime@PLT
	jmp	.L1175
	.p2align 4,,10
	.p2align 3
.L1251:
	call	close@PLT
	jmp	.L1156
	.p2align 4,,10
	.p2align 3
.L1249:
	call	close@PLT
	jmp	.L1149
	.p2align 4,,10
	.p2align 3
.L1178:
	movq	%r12, %rdi
	call	__cxa_guard_acquire@PLT
	testl	%eax, %eax
	je	.L1246
	movq	_ZZN4asio15system_categoryEvE8instance@GOTPCREL(%rip), %r13
	movq	_ZN4asio6detail15system_categoryD1Ev@GOTPCREL(%rip), %rdi
	leaq	__dso_handle(%rip), %rdx
	movq	%r13, %rsi
	call	__cxa_atexit@PLT
	movq	%r12, %rdi
	call	__cxa_guard_release@PLT
	jmp	.L1179
	.p2align 4,,10
	.p2align 3
.L1182:
	movq	%r14, %rdi
	call	pthread_mutex_unlock@PLT
	jmp	.L1147
	.p2align 4,,10
	.p2align 3
.L1254:
	call	__errno_location@PLT
	cmpl	$22, (%rax)
	movq	%rax, %rbp
	je	.L1256
.L1163:
	leaq	80(%rsp), %rdi
	call	pipe@PLT
	testl	%eax, %eax
	je	.L1184
	movq	_ZGVZN4asio15system_categoryEvE8instance@GOTPCREL(%rip), %r14
	movzbl	(%r14), %eax
	testb	%al, %al
	je	.L1165
.L1245:
	movq	_ZZN4asio15system_categoryEvE8instance@GOTPCREL(%rip), %r13
.L1166:
	movl	0(%rbp), %eax
	testl	%eax, %eax
	jne	.L1257
.L1164:
	movl	88(%rbx), %edx
	jmp	.L1161
	.p2align 4,,10
	.p2align 3
.L1252:
	call	__errno_location@PLT
	cmpl	$22, (%rax)
	jne	.L1157
	xorl	%esi, %esi
	movl	$1, %edi
	call	timerfd_create@PLT
	movl	%eax, %ebp
	cmpl	$-1, %eax
	je	.L1157
	movl	%eax, %edi
	movl	$1, %edx
	movl	$2, %esi
	xorl	%eax, %eax
	call	fcntl@PLT
	jmp	.L1157
	.p2align 4,,10
	.p2align 3
.L1250:
	call	__errno_location@PLT
	movq	%rax, %r14
	movl	(%rax), %eax
	subl	$22, %eax
	andl	$-17, %eax
	jne	.L1151
	movl	$20000, %edi
	call	epoll_create@PLT
	movl	%eax, %r12d
	cmpl	$-1, %eax
	je	.L1151
	movl	%eax, %edi
	movl	$1, %edx
	movl	$2, %esi
	xorl	%eax, %eax
	call	fcntl@PLT
	movl	%r12d, %ebp
	jmp	.L1150
.L1151:
	movq	_ZGVZN4asio15system_categoryEvE8instance@GOTPCREL(%rip), %r12
	movzbl	(%r12), %eax
	testb	%al, %al
	je	.L1152
.L1244:
	movq	_ZZN4asio15system_categoryEvE8instance@GOTPCREL(%rip), %r13
.L1153:
	movl	(%r14), %eax
	testl	%eax, %eax
	je	.L1150
	leaq	.LC27(%rip), %rdx
	movl	%eax, %edi
	movq	%r13, %rsi
	call	_ZN4asio6detail14do_throw_errorERKSt10error_codePKc.isra.0
	.p2align 4,,10
	.p2align 3
.L1184:
	movl	80(%rsp), %edi
	movl	$2048, %edx
	movl	$4, %esi
	xorl	%eax, %eax
	movl	%edi, 88(%rbx)
	call	fcntl@PLT
	movl	88(%rbx), %edi
	movl	$1, %edx
	xorl	%eax, %eax
	movl	$2, %esi
	call	fcntl@PLT
	movl	84(%rsp), %edi
	movl	$2048, %edx
	xorl	%eax, %eax
	movl	$4, %esi
	movl	%edi, 92(%rbx)
	call	fcntl@PLT
	movl	92(%rbx), %edi
	movl	$1, %edx
	xorl	%eax, %eax
	movl	$2, %esi
	call	fcntl@PLT
	jmp	.L1164
.L1152:
	movq	%r12, %rdi
	call	__cxa_guard_acquire@PLT
	testl	%eax, %eax
	je	.L1244
	movq	_ZZN4asio15system_categoryEvE8instance@GOTPCREL(%rip), %r13
	movq	_ZN4asio6detail15system_categoryD1Ev@GOTPCREL(%rip), %rdi
	leaq	__dso_handle(%rip), %rdx
	movq	%r13, %rsi
	call	__cxa_atexit@PLT
	movq	%r12, %rdi
	call	__cxa_guard_release@PLT
	jmp	.L1153
.L1256:
	xorl	%edi, %edi
	xorl	%esi, %esi
	call	eventfd@PLT
	movl	%eax, 88(%rbx)
	movl	%eax, %edi
	movl	%eax, 92(%rbx)
	cmpl	$-1, %eax
	je	.L1163
	movl	$2048, %edx
	movl	$4, %esi
	xorl	%eax, %eax
	call	fcntl@PLT
	movl	88(%rbx), %edi
	movl	$1, %edx
	xorl	%eax, %eax
	movl	$2, %esi
	call	fcntl@PLT
	movl	88(%rbx), %edx
	cmpl	$-1, %edx
	jne	.L1161
	jmp	.L1163
	.p2align 4,,10
	.p2align 3
.L1170:
	movq	$300, 32(%rsp)
	xorl	%r8d, %r8d
	xorl	%eax, %eax
	jmp	.L1174
.L1165:
	movq	%r14, %rdi
	call	__cxa_guard_acquire@PLT
	testl	%eax, %eax
	je	.L1245
	movq	_ZZN4asio15system_categoryEvE8instance@GOTPCREL(%rip), %r13
	movq	_ZN4asio6detail15system_categoryD1Ev@GOTPCREL(%rip), %rdi
	leaq	__dso_handle(%rip), %rdx
	movq	%r13, %rsi
	call	__cxa_atexit@PLT
	movq	%r14, %rdi
	call	__cxa_guard_release@PLT
	jmp	.L1166
.L1248:
	call	__stack_chk_fail@PLT
.L1257:
	leaq	.LC28(%rip), %rdx
	movl	%eax, %edi
	movq	%r13, %rsi
	call	_ZN4asio6detail14do_throw_errorERKSt10error_codePKc.isra.0
.L1188:
	endbr64
	movq	%rax, %rbp
.L1183:
	movq	%r14, %rdi
	call	pthread_mutex_unlock@PLT
	movq	%rbp, %rdi
	call	_Unwind_Resume@PLT
.LEHE19:
	.cfi_endproc
.LFE3244:
	.section	.gcc_except_table
.LLSDA3244:
	.byte	0xff
	.byte	0xff
	.byte	0x1
	.uleb128 .LLSDACSE3244-.LLSDACSB3244
.LLSDACSB3244:
	.uleb128 .LEHB17-.LFB3244
	.uleb128 .LEHE17-.LEHB17
	.uleb128 0
	.uleb128 0
	.uleb128 .LEHB18-.LFB3244
	.uleb128 .LEHE18-.LEHB18
	.uleb128 .L1188-.LFB3244
	.uleb128 0
	.uleb128 .LEHB19-.LFB3244
	.uleb128 .LEHE19-.LEHB19
	.uleb128 0
	.uleb128 0
.LLSDACSE3244:
	.section	.text._ZN4asio6detail13epoll_reactor12fork_serviceENS_10io_service10fork_eventE,"axG",@progbits,_ZN4asio6detail13epoll_reactor12fork_serviceENS_10io_service10fork_eventE,comdat
	.size	_ZN4asio6detail13epoll_reactor12fork_serviceENS_10io_service10fork_eventE, .-_ZN4asio6detail13epoll_reactor12fork_serviceENS_10io_service10fork_eventE
	.section	.text._ZN4asio15system_categoryEv,"axG",@progbits,_ZN4asio15system_categoryEv,comdat
	.p2align 4
	.weak	_ZN4asio15system_categoryEv
	.type	_ZN4asio15system_categoryEv, @function
_ZN4asio15system_categoryEv:
.LFB2354:
	.cfi_startproc
	endbr64
	pushq	%r12
	.cfi_def_cfa_offset 16
	.cfi_offset 12, -16
	pushq	%rbp
	.cfi_def_cfa_offset 24
	.cfi_offset 6, -24
	subq	$8, %rsp
	.cfi_def_cfa_offset 32
	movq	_ZGVZN4asio15system_categoryEvE8instance@GOTPCREL(%rip), %rbp
	movzbl	0(%rbp), %eax
	testb	%al, %al
	je	.L1259
.L1266:
	movq	_ZZN4asio15system_categoryEvE8instance@GOTPCREL(%rip), %r12
	addq	$8, %rsp
	.cfi_remember_state
	.cfi_def_cfa_offset 24
	popq	%rbp
	.cfi_def_cfa_offset 16
	movq	%r12, %rax
	popq	%r12
	.cfi_def_cfa_offset 8
	ret
	.p2align 4,,10
	.p2align 3
.L1259:
	.cfi_restore_state
	movq	%rbp, %rdi
	call	__cxa_guard_acquire@PLT
	testl	%eax, %eax
	je	.L1266
	movq	_ZZN4asio15system_categoryEvE8instance@GOTPCREL(%rip), %r12
	movq	_ZN4asio6detail15system_categoryD1Ev@GOTPCREL(%rip), %rdi
	leaq	__dso_handle(%rip), %rdx
	movq	%r12, %rsi
	call	__cxa_atexit@PLT
	movq	%rbp, %rdi
	call	__cxa_guard_release@PLT
	addq	$8, %rsp
	.cfi_def_cfa_offset 24
	movq	%r12, %rax
	popq	%rbp
	.cfi_def_cfa_offset 16
	popq	%r12
	.cfi_def_cfa_offset 8
	ret
	.cfi_endproc
.LFE2354:
	.size	_ZN4asio15system_categoryEv, .-_ZN4asio15system_categoryEv
	.section	.text._ZN4asio6detail13epoll_reactor32perform_io_cleanup_on_block_exitD2Ev,"axG",@progbits,_ZN4asio6detail13epoll_reactor32perform_io_cleanup_on_block_exitD5Ev,comdat
	.align 2
	.p2align 4
	.weak	_ZN4asio6detail13epoll_reactor32perform_io_cleanup_on_block_exitD2Ev
	.type	_ZN4asio6detail13epoll_reactor32perform_io_cleanup_on_block_exitD2Ev, @function
_ZN4asio6detail13epoll_reactor32perform_io_cleanup_on_block_exitD2Ev:
.LFB3268:
	.cfi_startproc
	.cfi_personality 0x9b,DW.ref.__gxx_personality_v0
	.cfi_lsda 0x1b,.LLSDA3268
	endbr64
	pushq	%r13
	.cfi_def_cfa_offset 16
	.cfi_offset 13, -16
	pushq	%r12
	.cfi_def_cfa_offset 24
	.cfi_offset 12, -24
	pushq	%rbp
	.cfi_def_cfa_offset 32
	.cfi_offset 6, -32
	pushq	%rbx
	.cfi_def_cfa_offset 40
	.cfi_offset 3, -40
	movq	%rdi, %rbx
	subq	$40, %rsp
	.cfi_def_cfa_offset 80
	movq	%fs:40, %rax
	movq	%rax, 24(%rsp)
	xorl	%eax, %eax
	cmpq	$0, 24(%rdi)
	je	.L1268
	movq	8(%rdi), %r12
	testq	%r12, %r12
	je	.L1267
	movq	(%rdi), %rax
	movq	40(%rax), %rbp
	cmpb	$0, 40(%rbp)
	je	.L1270
	data16	leaq	_ZN4asio6detail15keyword_tss_ptrINS0_10call_stackINS0_15task_io_serviceENS0_27task_io_service_thread_infoEE7contextEE6value_E@tlsgd(%rip), %rdi
	.value	0x6666
	rex64
	call	__tls_get_addr@PLT
	movq	(%rax), %rax
	testq	%rax, %rax
	jne	.L1273
	.p2align 4,,10
	.p2align 3
.L1270:
	leaq	48(%rbp), %r13
	movq	%r13, %rdi
	call	pthread_mutex_lock@PLT
	movq	8(%rbx), %rax
	testq	%rax, %rax
	je	.L1276
	movq	200(%rbp), %rdx
	testq	%rdx, %rdx
	je	.L1277
	movq	%rax, (%rdx)
.L1278:
	movq	16(%rbx), %rax
	pxor	%xmm0, %xmm0
	movq	%rax, 200(%rbp)
	movups	%xmm0, 8(%rbx)
.L1276:
	movq	136(%rbp), %rax
	orq	$1, %rax
	movq	%rax, 136(%rbp)
	cmpq	$1, %rax
	je	.L1279
	movq	%r13, %rdi
	call	pthread_mutex_unlock@PLT
	leaq	88(%rbp), %rdi
	call	pthread_cond_signal@PLT
.L1280:
	movq	8(%rbx), %rbp
.L1283:
	testq	%rbp, %rbp
	je	.L1267
	call	_ZNSt3_V215system_categoryEv@PLT
	movq	%rsp, %r12
	movq	%rax, %r13
	jmp	.L1286
	.p2align 4,,10
	.p2align 3
.L1284:
	movq	$0, 0(%rbp)
	movq	8(%rbp), %rax
	xorl	%ecx, %ecx
	xorl	%edi, %edi
	movq	%rbp, %rsi
	movl	$0, (%rsp)
	movq	%r12, %rdx
	movq	%r13, 8(%rsp)
	call	*%rax
	movq	8(%rbx), %rbp
	testq	%rbp, %rbp
	je	.L1267
.L1286:
	movq	0(%rbp), %rax
	movq	%rax, 8(%rbx)
	testq	%rax, %rax
	jne	.L1284
	movq	$0, 16(%rbx)
	jmp	.L1284
	.p2align 4,,10
	.p2align 3
.L1271:
	movq	16(%rax), %rax
	testq	%rax, %rax
	je	.L1270
.L1273:
	cmpq	(%rax), %rbp
	jne	.L1271
	movq	8(%rax), %rax
	testq	%rax, %rax
	je	.L1270
	movq	16(%rax), %rdx
	testq	%rdx, %rdx
	je	.L1274
	movq	%r12, (%rdx)
.L1275:
	movq	16(%rbx), %rdx
	pxor	%xmm0, %xmm0
	movq	%rdx, 16(%rax)
	movups	%xmm0, 8(%rbx)
	.p2align 4,,10
	.p2align 3
.L1267:
	movq	24(%rsp), %rax
	xorq	%fs:40, %rax
	jne	.L1311
	addq	$40, %rsp
	.cfi_remember_state
	.cfi_def_cfa_offset 40
	popq	%rbx
	.cfi_def_cfa_offset 32
	popq	%rbp
	.cfi_def_cfa_offset 24
	popq	%r12
	.cfi_def_cfa_offset 16
	popq	%r13
	.cfi_def_cfa_offset 8
	ret
	.p2align 4,,10
	.p2align 3
.L1268:
	.cfi_restore_state
	movq	(%rdi), %rax
	movq	40(%rax), %rax
	lock addq	$1, 184(%rax)
	movq	8(%rdi), %rbp
	jmp	.L1283
	.p2align 4,,10
	.p2align 3
.L1279:
	cmpb	$0, 176(%rbp)
	jne	.L1281
	movq	144(%rbp), %rax
	testq	%rax, %rax
	je	.L1281
	movb	$1, 176(%rbp)
	leaq	88(%rax), %rdx
	movq	%rsp, %r12
	movl	$3, %esi
	movl	$-2147483639, (%rsp)
	movq	%r12, %rcx
	movq	%rdx, 4(%rsp)
	movl	88(%rax), %edx
	movl	96(%rax), %edi
	call	epoll_ctl@PLT
.L1281:
	movq	%r13, %rdi
	call	pthread_mutex_unlock@PLT
	jmp	.L1280
	.p2align 4,,10
	.p2align 3
.L1277:
	movq	%rax, 192(%rbp)
	jmp	.L1278
	.p2align 4,,10
	.p2align 3
.L1274:
	movq	%r12, 8(%rax)
	jmp	.L1275
.L1311:
	call	__stack_chk_fail@PLT
	.cfi_endproc
.LFE3268:
	.section	.gcc_except_table
.LLSDA3268:
	.byte	0xff
	.byte	0xff
	.byte	0x1
	.uleb128 .LLSDACSE3268-.LLSDACSB3268
.LLSDACSB3268:
.LLSDACSE3268:
	.section	.text._ZN4asio6detail13epoll_reactor32perform_io_cleanup_on_block_exitD2Ev,"axG",@progbits,_ZN4asio6detail13epoll_reactor32perform_io_cleanup_on_block_exitD5Ev,comdat
	.size	_ZN4asio6detail13epoll_reactor32perform_io_cleanup_on_block_exitD2Ev, .-_ZN4asio6detail13epoll_reactor32perform_io_cleanup_on_block_exitD2Ev
	.weak	_ZN4asio6detail13epoll_reactor32perform_io_cleanup_on_block_exitD1Ev
	.set	_ZN4asio6detail13epoll_reactor32perform_io_cleanup_on_block_exitD1Ev,_ZN4asio6detail13epoll_reactor32perform_io_cleanup_on_block_exitD2Ev
	.section	.text._ZN4asio6detail13epoll_reactor16descriptor_state11do_completeEPNS0_15task_io_serviceEPNS0_25task_io_service_operationERKSt10error_codem,"axG",@progbits,_ZN4asio6detail13epoll_reactor16descriptor_state11do_completeEPNS0_15task_io_serviceEPNS0_25task_io_service_operationERKSt10error_codem,comdat
	.align 2
	.p2align 4
	.weak	_ZN4asio6detail13epoll_reactor16descriptor_state11do_completeEPNS0_15task_io_serviceEPNS0_25task_io_service_operationERKSt10error_codem
	.type	_ZN4asio6detail13epoll_reactor16descriptor_state11do_completeEPNS0_15task_io_serviceEPNS0_25task_io_service_operationERKSt10error_codem, @function
_ZN4asio6detail13epoll_reactor16descriptor_state11do_completeEPNS0_15task_io_serviceEPNS0_25task_io_service_operationERKSt10error_codem:
.LFB3274:
	.cfi_startproc
	.cfi_personality 0x9b,DW.ref.__gxx_personality_v0
	.cfi_lsda 0x1b,.LLSDA3274
	endbr64
	pushq	%r15
	.cfi_def_cfa_offset 16
	.cfi_offset 15, -16
	pushq	%r14
	.cfi_def_cfa_offset 24
	.cfi_offset 14, -24
	pushq	%r13
	.cfi_def_cfa_offset 32
	.cfi_offset 13, -32
	pushq	%r12
	.cfi_def_cfa_offset 40
	.cfi_offset 12, -40
	pushq	%rbp
	.cfi_def_cfa_offset 48
	.cfi_offset 6, -48
	pushq	%rbx
	.cfi_def_cfa_offset 56
	.cfi_offset 3, -56
	subq	$88, %rsp
	.cfi_def_cfa_offset 144
	movq	%fs:40, %rax
	movq	%rax, 72(%rsp)
	xorl	%eax, %eax
	testq	%rdi, %rdi
	je	.L1312
	leaq	40(%rsi), %r15
	movq	%rsi, %rbx
	movq	%rdi, %r13
	movl	%ecx, (%rsp)
	movq	%r15, %rdi
	movq	%rdx, %r14
	subq	$-128, %rbx
	call	pthread_mutex_lock@PLT
	movq	-48(%rbx), %rax
	movq	_ZZN4asio6detail13epoll_reactor16descriptor_state10perform_ioEjE4flag@GOTPCREL(%rip), %r12
	movq	$0, 40(%rsp)
	movq	$0, 48(%rsp)
	movq	%rax, 32(%rsp)
	leaq	-12(%r12), %rax
	movq	$0, 56(%rsp)
	movq	%rax, 8(%rsp)
.L1321:
	movl	8(%r12), %eax
	orl	$24, %eax
	testl	%eax, (%rsp)
	jne	.L1392
.L1315:
	subq	$4, %r12
	subq	$16, %rbx
	cmpq	%r12, 8(%rsp)
	jne	.L1321
	movq	40(%rsp), %rbx
	movq	%rbx, 56(%rsp)
	testq	%rbx, %rbx
	je	.L1322
	movq	(%rbx), %rax
	movq	%rax, 40(%rsp)
	testq	%rax, %rax
	je	.L1393
.L1323:
	movq	$0, (%rbx)
.L1322:
	movq	%r15, %rdi
	call	pthread_mutex_unlock@PLT
	cmpq	$0, 56(%rsp)
	je	.L1324
	movq	40(%rsp), %r12
	testq	%r12, %r12
	je	.L1325
	movq	32(%rsp), %rax
	movq	40(%rax), %rbp
	cmpb	$0, 40(%rbp)
	je	.L1326
	data16	leaq	_ZN4asio6detail15keyword_tss_ptrINS0_10call_stackINS0_15task_io_serviceENS0_27task_io_service_thread_infoEE7contextEE6value_E@tlsgd(%rip), %rdi
	.value	0x6666
	rex64
	call	__tls_get_addr@PLT
	movq	(%rax), %rax
	testq	%rax, %rax
	jne	.L1329
	jmp	.L1326
	.p2align 4,,10
	.p2align 3
.L1327:
	movq	16(%rax), %rax
	testq	%rax, %rax
	je	.L1326
.L1329:
	cmpq	(%rax), %rbp
	jne	.L1327
	movq	8(%rax), %rax
	testq	%rax, %rax
	je	.L1326
	movq	16(%rax), %rdx
	testq	%rdx, %rdx
	je	.L1330
	movq	%r12, (%rdx)
.L1331:
	movq	48(%rsp), %rdx
	movq	%rdx, 16(%rax)
	.p2align 4,,10
	.p2align 3
.L1325:
	testq	%rbx, %rbx
	je	.L1312
	xorl	%ecx, %ecx
	movq	%r14, %rdx
	movq	%rbx, %rsi
	movq	%r13, %rdi
.LEHB20:
	call	*8(%rbx)
.LEHE20:
.L1312:
	movq	72(%rsp), %rax
	xorq	%fs:40, %rax
	jne	.L1394
	addq	$88, %rsp
	.cfi_remember_state
	.cfi_def_cfa_offset 56
	popq	%rbx
	.cfi_def_cfa_offset 48
	popq	%rbp
	.cfi_def_cfa_offset 40
	popq	%r12
	.cfi_def_cfa_offset 32
	popq	%r13
	.cfi_def_cfa_offset 24
	popq	%r14
	.cfi_def_cfa_offset 16
	popq	%r15
	.cfi_def_cfa_offset 8
	ret
	.p2align 4,,10
	.p2align 3
.L1392:
	.cfi_restore_state
	movq	(%rbx), %rbp
	testq	%rbp, %rbp
	jne	.L1316
	jmp	.L1315
	.p2align 4,,10
	.p2align 3
.L1396:
	movq	%rbp, (%rdx)
	movq	%rbp, 48(%rsp)
.L1320:
	testq	%rax, %rax
	je	.L1315
	movq	%rax, %rbp
.L1316:
	movq	%rbp, %rdi
.LEHB21:
	call	*48(%rbp)
.LEHE21:
	testb	%al, %al
	je	.L1315
	movq	(%rbx), %rax
	testq	%rax, %rax
	je	.L1317
	movq	(%rax), %rdx
	movq	%rdx, (%rbx)
	testq	%rdx, %rdx
	je	.L1395
.L1318:
	movq	$0, (%rax)
	movq	%rdx, %rax
.L1317:
	movq	48(%rsp), %rdx
	movq	$0, 0(%rbp)
	testq	%rdx, %rdx
	jne	.L1396
	movq	%rbp, %xmm0
	punpcklqdq	%xmm0, %xmm0
	movups	%xmm0, 40(%rsp)
	jmp	.L1320
	.p2align 4,,10
	.p2align 3
.L1395:
	movq	$0, 8(%rbx)
	jmp	.L1318
	.p2align 4,,10
	.p2align 3
.L1324:
	movq	32(%rsp), %rax
	movq	40(%rax), %rax
	lock addq	$1, 184(%rax)
.L1338:
	movq	40(%rsp), %rsi
	testq	%rsi, %rsi
	movq	%rsi, (%rsp)
	je	.L1325
	call	_ZNSt3_V215system_categoryEv@PLT
	leaq	16(%rsp), %r12
	movq	(%rsp), %rsi
	movq	%rax, %rbp
	jmp	.L1341
	.p2align 4,,10
	.p2align 3
.L1339:
	movq	$0, (%rsi)
	movq	8(%rsi), %rax
	xorl	%ecx, %ecx
	movq	%r12, %rdx
	movl	$0, 16(%rsp)
	xorl	%edi, %edi
	movq	%rbp, 24(%rsp)
	call	*%rax
	movq	40(%rsp), %rsi
	testq	%rsi, %rsi
	je	.L1325
.L1341:
	movq	(%rsi), %rax
	movq	%rax, 40(%rsp)
	testq	%rax, %rax
	jne	.L1339
	movq	$0, 48(%rsp)
	jmp	.L1339
	.p2align 4,,10
	.p2align 3
.L1326:
	leaq	48(%rbp), %r15
	movq	%r15, %rdi
	call	pthread_mutex_lock@PLT
	movq	40(%rsp), %rax
	testq	%rax, %rax
	je	.L1332
	movq	200(%rbp), %rdx
	testq	%rdx, %rdx
	je	.L1333
	movq	%rax, (%rdx)
.L1334:
	movq	48(%rsp), %rax
	pxor	%xmm0, %xmm0
	movups	%xmm0, 40(%rsp)
	movq	%rax, 200(%rbp)
.L1332:
	movq	136(%rbp), %rax
	orq	$1, %rax
	movq	%rax, 136(%rbp)
	cmpq	$1, %rax
	je	.L1335
	movq	%r15, %rdi
	call	pthread_mutex_unlock@PLT
	leaq	88(%rbp), %rdi
	call	pthread_cond_signal@PLT
	jmp	.L1338
	.p2align 4,,10
	.p2align 3
.L1393:
	movq	$0, 48(%rsp)
	jmp	.L1323
	.p2align 4,,10
	.p2align 3
.L1335:
	cmpb	$0, 176(%rbp)
	jne	.L1337
	movq	144(%rbp), %rax
	testq	%rax, %rax
	je	.L1337
	movb	$1, 176(%rbp)
	leaq	88(%rax), %rdx
	leaq	16(%rsp), %r12
	movl	$3, %esi
	movl	$-2147483639, 16(%rsp)
	movq	%r12, %rcx
	movq	%rdx, 20(%rsp)
	movl	88(%rax), %edx
	movl	96(%rax), %edi
	call	epoll_ctl@PLT
.L1337:
	movq	%r15, %rdi
	call	pthread_mutex_unlock@PLT
	jmp	.L1338
	.p2align 4,,10
	.p2align 3
.L1330:
	movq	%r12, 8(%rax)
	jmp	.L1331
	.p2align 4,,10
	.p2align 3
.L1333:
	movq	%rax, 192(%rbp)
	jmp	.L1334
.L1394:
	call	__stack_chk_fail@PLT
.L1346:
	endbr64
	movq	%rax, %rbp
.L1342:
	movq	%r15, %rdi
	call	pthread_mutex_unlock@PLT
	leaq	32(%rsp), %rdi
	call	_ZN4asio6detail13epoll_reactor32perform_io_cleanup_on_block_exitD1Ev@PLT
	movq	%rbp, %rdi
.LEHB22:
	call	_Unwind_Resume@PLT
.LEHE22:
	.cfi_endproc
.LFE3274:
	.section	.gcc_except_table
.LLSDA3274:
	.byte	0xff
	.byte	0xff
	.byte	0x1
	.uleb128 .LLSDACSE3274-.LLSDACSB3274
.LLSDACSB3274:
	.uleb128 .LEHB20-.LFB3274
	.uleb128 .LEHE20-.LEHB20
	.uleb128 0
	.uleb128 0
	.uleb128 .LEHB21-.LFB3274
	.uleb128 .LEHE21-.LEHB21
	.uleb128 .L1346-.LFB3274
	.uleb128 0
	.uleb128 .LEHB22-.LFB3274
	.uleb128 .LEHE22-.LEHB22
	.uleb128 0
	.uleb128 0
.LLSDACSE3274:
	.section	.text._ZN4asio6detail13epoll_reactor16descriptor_state11do_completeEPNS0_15task_io_serviceEPNS0_25task_io_service_operationERKSt10error_codem,"axG",@progbits,_ZN4asio6detail13epoll_reactor16descriptor_state11do_completeEPNS0_15task_io_serviceEPNS0_25task_io_service_operationERKSt10error_codem,comdat
	.size	_ZN4asio6detail13epoll_reactor16descriptor_state11do_completeEPNS0_15task_io_serviceEPNS0_25task_io_service_operationERKSt10error_codem, .-_ZN4asio6detail13epoll_reactor16descriptor_state11do_completeEPNS0_15task_io_serviceEPNS0_25task_io_service_operationERKSt10error_codem
	.section	.text._ZN4asio6detail15task_io_service25post_immediate_completionEPNS0_25task_io_service_operationEb,"axG",@progbits,_ZN4asio6detail15task_io_service25post_immediate_completionEPNS0_25task_io_service_operationEb,comdat
	.align 2
	.p2align 4
	.weak	_ZN4asio6detail15task_io_service25post_immediate_completionEPNS0_25task_io_service_operationEb
	.type	_ZN4asio6detail15task_io_service25post_immediate_completionEPNS0_25task_io_service_operationEb, @function
_ZN4asio6detail15task_io_service25post_immediate_completionEPNS0_25task_io_service_operationEb:
.LFB3306:
	.cfi_startproc
	endbr64
	pushq	%r12
	.cfi_def_cfa_offset 16
	.cfi_offset 12, -16
	pushq	%rbp
	.cfi_def_cfa_offset 24
	.cfi_offset 6, -24
	movq	%rsi, %rbp
	pushq	%rbx
	.cfi_def_cfa_offset 32
	.cfi_offset 3, -32
	movq	%rdi, %rbx
	subq	$32, %rsp
	.cfi_def_cfa_offset 64
	movq	%fs:40, %rax
	movq	%rax, 24(%rsp)
	xorl	%eax, %eax
	cmpb	$0, 40(%rdi)
	jne	.L1411
	testb	%dl, %dl
	je	.L1398
.L1411:
	data16	leaq	_ZN4asio6detail15keyword_tss_ptrINS0_10call_stackINS0_15task_io_serviceENS0_27task_io_service_thread_infoEE7contextEE6value_E@tlsgd(%rip), %rdi
	.value	0x6666
	rex64
	call	__tls_get_addr@PLT
	movq	(%rax), %rax
	testq	%rax, %rax
	jne	.L1402
	jmp	.L1398
	.p2align 4,,10
	.p2align 3
.L1400:
	movq	16(%rax), %rax
	testq	%rax, %rax
	je	.L1398
.L1402:
	cmpq	(%rax), %rbx
	jne	.L1400
	movq	8(%rax), %rax
	testq	%rax, %rax
	je	.L1398
	addq	$1, 24(%rax)
	cmpq	$0, 16(%rax)
	movq	$0, 0(%rbp)
	je	.L1403
	movq	16(%rax), %rdx
	movq	%rbp, (%rdx)
	movq	%rbp, 16(%rax)
	jmp	.L1397
	.p2align 4,,10
	.p2align 3
.L1398:
	lock addq	$1, 184(%rbx)
	leaq	48(%rbx), %r12
	movq	%r12, %rdi
	call	pthread_mutex_lock@PLT
	cmpq	$0, 200(%rbx)
	movq	$0, 0(%rbp)
	je	.L1405
	movq	200(%rbx), %rax
	movq	%rbp, (%rax)
	movq	%rbp, 200(%rbx)
.L1406:
	movq	136(%rbx), %rax
	orq	$1, %rax
	movq	%rax, 136(%rbx)
	cmpq	$1, %rax
	je	.L1407
	movq	%r12, %rdi
	call	pthread_mutex_unlock@PLT
	leaq	88(%rbx), %rdi
	call	pthread_cond_signal@PLT
.L1397:
	movq	24(%rsp), %rax
	xorq	%fs:40, %rax
	jne	.L1422
	addq	$32, %rsp
	.cfi_remember_state
	.cfi_def_cfa_offset 32
	popq	%rbx
	.cfi_def_cfa_offset 24
	popq	%rbp
	.cfi_def_cfa_offset 16
	popq	%r12
	.cfi_def_cfa_offset 8
	ret
	.p2align 4,,10
	.p2align 3
.L1407:
	.cfi_restore_state
	cmpb	$0, 176(%rbx)
	jne	.L1409
	movq	144(%rbx), %rax
	testq	%rax, %rax
	je	.L1409
	leaq	88(%rax), %rdx
	movb	$1, 176(%rbx)
	movl	96(%rax), %edi
	leaq	12(%rsp), %rcx
	movq	%rdx, 16(%rsp)
	movl	88(%rax), %edx
	movl	$3, %esi
	movl	$-2147483639, 12(%rsp)
	call	epoll_ctl@PLT
.L1409:
	movq	%r12, %rdi
	call	pthread_mutex_unlock@PLT
	jmp	.L1397
	.p2align 4,,10
	.p2align 3
.L1405:
	movq	%rbp, %xmm0
	punpcklqdq	%xmm0, %xmm0
	movups	%xmm0, 192(%rbx)
	jmp	.L1406
	.p2align 4,,10
	.p2align 3
.L1403:
	movq	%rbp, %xmm0
	punpcklqdq	%xmm0, %xmm0
	movups	%xmm0, 8(%rax)
	jmp	.L1397
.L1422:
	call	__stack_chk_fail@PLT
	.cfi_endproc
.LFE3306:
	.size	_ZN4asio6detail15task_io_service25post_immediate_completionEPNS0_25task_io_service_operationEb, .-_ZN4asio6detail15task_io_service25post_immediate_completionEPNS0_25task_io_service_operationEb
	.section	.text.unlikely
	.align 2
.LCOLDB30:
	.text
.LHOTB30:
	.align 2
	.p2align 4
	.globl	_ZN7asiopal13SerialChannel14BeginWriteImplERKN7openpal6RSliceE
	.type	_ZN7asiopal13SerialChannel14BeginWriteImplERKN7openpal6RSliceE, @function
_ZN7asiopal13SerialChannel14BeginWriteImplERKN7openpal6RSliceE:
.LFB6930:
	.cfi_startproc
	.cfi_personality 0x9b,DW.ref.__gxx_personality_v0
	.cfi_lsda 0x1b,.LLSDA6930
	endbr64
	pushq	%r15
	.cfi_def_cfa_offset 16
	.cfi_offset 15, -16
	pushq	%r14
	.cfi_def_cfa_offset 24
	.cfi_offset 14, -24
	leaq	64(%rdi), %r14
	pushq	%r13
	.cfi_def_cfa_offset 32
	.cfi_offset 13, -32
	pushq	%r12
	.cfi_def_cfa_offset 40
	.cfi_offset 12, -40
	pushq	%rbp
	.cfi_def_cfa_offset 48
	.cfi_offset 6, -48
	pushq	%rbx
	.cfi_def_cfa_offset 56
	.cfi_offset 3, -56
	movq	%rdi, %rbx
	subq	$184, %rsp
	.cfi_def_cfa_offset 240
	movl	(%rsi), %r12d
	movq	%fs:40, %rax
	movq	%rax, 168(%rsp)
	xorl	%eax, %eax
	movq	24(%rdi), %rax
	movdqu	40(%rax), %xmm0
	movq	48(%rax), %rbp
	movq	8(%rsi), %rax
	movaps	%xmm0, 16(%rsp)
	movq	%rax, (%rsp)
	call	_ZNSt3_V215system_categoryEv@PLT
	movdqa	16(%rsp), %xmm0
	movq	%r14, %xmm1
	cmpq	$65536, %r12
	movq	%rax, %r13
	movl	$65536, %eax
	movhps	(%rsp), %xmm1
	movq	%r12, 112(%rsp)
	cmovbe	%r12, %rax
	movl	$1, 120(%rsp)
	movq	$0, 128(%rsp)
	movq	%rax, 8(%rsp)
	movq	80(%rbx), %rax
	movq	%rbx, 152(%rsp)
	movq	%rax, 32(%rsp)
	movaps	%xmm1, 96(%rsp)
	movups	%xmm0, 136(%rsp)
	data16	leaq	_ZN4asio6detail15keyword_tss_ptrINS0_10call_stackINS0_14strand_service11strand_implEhE7contextEE6value_E@tlsgd(%rip), %rdi
	.value	0x6666
	rex64
	call	__tls_get_addr@PLT
	movq	(%rax), %rax
	testq	%rax, %rax
	jne	.L1426
	jmp	.L1498
	.p2align 4,,10
	.p2align 3
.L1425:
	movq	16(%rax), %rax
	testq	%rax, %rax
	je	.L1498
.L1426:
	cmpq	(%rax), %rbp
	jne	.L1425
	cmpq	$0, 8(%rax)
	setne	%al
	setne	16(%rsp)
	movzbl	%al, %eax
	movl	%eax, 44(%rsp)
.L1424:
	pxor	%xmm0, %xmm0
	leaq	96(%rsp), %rax
	movq	%rax, 64(%rsp)
	movups	%xmm0, 72(%rsp)
	data16	leaq	_ZN4asio6detail15keyword_tss_ptrINS0_10call_stackINS0_15task_io_serviceENS0_27task_io_service_thread_infoEE7contextEE6value_E@tlsgd(%rip), %rdi
	.value	0x6666
	rex64
	call	__tls_get_addr@PLT
	movq	(%rax), %rax
	testq	%rax, %rax
	je	.L1427
	movq	8(%rax), %rax
	testq	%rax, %rax
	je	.L1427
	movq	(%rax), %rbp
	testq	%rbp, %rbp
	je	.L1427
	movq	$0, (%rax)
	movzbl	0(%rbp), %eax
	cmpb	$-113, %al
	jbe	.L1428
	movb	%al, 144(%rbp)
	xorl	%edx, %edx
	movl	$1, %ecx
.L1429:
	leaq	_ZN4asio6detail19descriptor_write_opINS_15const_buffers_1ENS0_8write_opINS_17basic_serial_portINS_19serial_port_serviceEEES2_NS0_14transfer_all_tENS0_15wrapped_handlerINS_10io_service6strandEZN7asiopal13SerialChannel14BeginWriteImplERKN7openpal6RSliceEEUlRKSt10error_codemE_NS0_26is_continuation_if_runningEEEEEE11do_completeEPNS0_15task_io_serviceEPNS0_25task_io_service_operationESJ_m(%rip), %rax
	movl	64(%rbx), %r15d
	movq	%r13, 32(%rbp)
	movq	%rbp, 72(%rsp)
	movdqu	104(%rsp), %xmm2
	movdqu	136(%rsp), %xmm3
	movq	%rax, 8(%rbp)
	movq	_ZN4asio6detail24descriptor_write_op_baseINS_15const_buffers_1EE10do_performEPNS0_10reactor_opE@GOTPCREL(%rip), %rax
	movq	$0, 0(%rbp)
	movl	$0, 16(%rbp)
	movq	%rax, 48(%rbp)
	movq	(%rsp), %rax
	movl	$0, 24(%rbp)
	movq	%rax, 64(%rbp)
	movq	8(%rsp), %rax
	movq	$0, 40(%rbp)
	movq	%rax, 72(%rbp)
	movq	152(%rsp), %rax
	movl	%r15d, 56(%rbp)
	movq	%r14, 80(%rbp)
	movl	%ecx, 104(%rbp)
	movq	%rdx, 112(%rbp)
	movq	%rax, 136(%rbp)
	movq	%rbp, 80(%rsp)
	movups	%xmm2, 88(%rbp)
	movups	%xmm3, 120(%rbp)
	testq	%r12, %r12
	je	.L1430
	testb	$3, 68(%rbx)
	jne	.L1431
	cmpl	$-1, %r15d
	je	.L1595
	call	__errno_location@PLT
	movl	%r15d, %edi
	leaq	52(%rsp), %rdx
	movl	$21537, %esi
	movl	$0, (%rax)
	movq	%rax, %r14
	xorl	%eax, %eax
	movl	$1, 52(%rsp)
	call	ioctl@PLT
	movq	_ZGVZN4asio15system_categoryEvE8instance@GOTPCREL(%rip), %r12
	movl	%eax, %r15d
	movzbl	(%r12), %eax
	testb	%al, %al
	je	.L1436
.L1576:
	movq	_ZZN4asio15system_categoryEvE8instance@GOTPCREL(%rip), %rcx
.L1437:
	movl	(%r14), %eax
	movq	%rcx, 32(%rbp)
	movl	%eax, 24(%rbp)
	testl	%r15d, %r15d
	jns	.L1596
.L1430:
	movq	32(%rsp), %rax
	movq	40(%rax), %rax
	movq	40(%rax), %rbx
	cmpb	$0, 40(%rbx)
	jne	.L1503
	cmpb	$0, 16(%rsp)
	je	.L1486
.L1503:
	data16	leaq	_ZN4asio6detail15keyword_tss_ptrINS0_10call_stackINS0_15task_io_serviceENS0_27task_io_service_thread_infoEE7contextEE6value_E@tlsgd(%rip), %rdi
	.value	0x6666
	rex64
	call	__tls_get_addr@PLT
	movq	(%rax), %rax
	testq	%rax, %rax
	jne	.L1490
	jmp	.L1486
	.p2align 4,,10
	.p2align 3
.L1488:
	movq	16(%rax), %rax
	testq	%rax, %rax
	je	.L1486
.L1490:
	cmpq	(%rax), %rbx
	jne	.L1488
.L1594:
	movq	8(%rax), %rax
	testq	%rax, %rax
	je	.L1486
	addq	$1, 24(%rax)
	movq	$0, 0(%rbp)
	cmpq	$0, 16(%rax)
	je	.L1491
	movq	16(%rax), %rdx
	movq	%rbp, (%rdx)
	movq	%rbp, 16(%rax)
	jmp	.L1423
	.p2align 4,,10
	.p2align 3
.L1428:
	movq	%rbp, %rdi
	call	_ZdlPv@PLT
.L1427:
	movl	$145, %edi
.LEHB23:
	call	_Znwm@PLT
.LEHE23:
	movq	96(%rsp), %r14
	movl	120(%rsp), %ecx
	movb	$-112, 144(%rax)
	movq	128(%rsp), %rdx
	movq	%rax, %rbp
	jmp	.L1429
	.p2align 4,,10
	.p2align 3
.L1598:
	movq	_ZGVZN4asio15system_categoryEvE8instance@GOTPCREL(%rip), %r12
	movzbl	(%r12), %eax
	testb	%al, %al
	je	.L1441
.L1577:
	movq	_ZZN4asio15system_categoryEvE8instance@GOTPCREL(%rip), %rcx
.L1442:
	movq	40(%r13), %rbx
	movl	$9, 24(%rbp)
	movq	%rcx, 32(%rbp)
	cmpb	$0, 40(%rbx)
	jne	.L1500
	cmpb	$0, 16(%rsp)
	jne	.L1500
	.p2align 4,,10
	.p2align 3
.L1486:
	lock addq	$1, 184(%rbx)
	leaq	48(%rbx), %r12
	movq	%r12, %rdi
	call	pthread_mutex_lock@PLT
	movq	$0, 0(%rbp)
	cmpq	$0, 200(%rbx)
	je	.L1492
	movq	200(%rbx), %rax
	movq	%rbp, (%rax)
	movq	%rbp, 200(%rbx)
.L1493:
	movq	136(%rbx), %rax
	orq	$1, %rax
	movq	%rax, 136(%rbx)
	cmpq	$1, %rax
	je	.L1494
	movq	%r12, %rdi
	call	pthread_mutex_unlock@PLT
	leaq	88(%rbx), %rdi
	call	pthread_cond_signal@PLT
	.p2align 4,,10
	.p2align 3
.L1423:
	movq	168(%rsp), %rax
	xorq	%fs:40, %rax
	jne	.L1597
	addq	$184, %rsp
	.cfi_remember_state
	.cfi_def_cfa_offset 56
	popq	%rbx
	.cfi_def_cfa_offset 48
	popq	%rbp
	.cfi_def_cfa_offset 40
	popq	%r12
	.cfi_def_cfa_offset 32
	popq	%r13
	.cfi_def_cfa_offset 24
	popq	%r14
	.cfi_def_cfa_offset 16
	popq	%r15
	.cfi_def_cfa_offset 8
	ret
	.p2align 4,,10
	.p2align 3
.L1596:
	.cfi_restore_state
	movl	$0, 24(%rbp)
	movl	64(%rbx), %r15d
	movq	%r13, 32(%rbp)
	orb	$2, 68(%rbx)
.L1431:
	movq	32(%rsp), %rax
	movq	72(%rbx), %r12
	movq	40(%rax), %r13
	testq	%r12, %r12
	je	.L1598
	addq	$40, %r12
	movq	%r12, %rdi
	call	pthread_mutex_lock@PLT
	movq	72(%rbx), %rax
	cmpb	$0, 144(%rax)
	jne	.L1599
	cmpq	$0, 112(%rax)
	je	.L1600
.L1469:
	movq	120(%rax), %rdx
	movq	$0, 0(%rbp)
	testq	%rdx, %rdx
	je	.L1483
	movq	%rbp, (%rdx)
	movq	%rbp, 120(%rax)
.L1484:
	movq	40(%r13), %rax
	lock addq	$1, 184(%rax)
	movq	%r12, %rdi
	call	pthread_mutex_unlock@PLT
	jmp	.L1423
	.p2align 4,,10
	.p2align 3
.L1494:
	cmpb	$0, 176(%rbx)
	jne	.L1463
	movq	144(%rbx), %rax
	testq	%rax, %rax
	je	.L1463
	movb	$1, 176(%rbx)
	leaq	88(%rax), %rdx
	leaq	52(%rsp), %rcx
	movl	$3, %esi
	movl	$-2147483639, 52(%rsp)
	movq	%rdx, 56(%rsp)
	movl	88(%rax), %edx
	movl	96(%rax), %edi
	call	epoll_ctl@PLT
.L1463:
	movq	%r12, %rdi
	call	pthread_mutex_unlock@PLT
	jmp	.L1423
	.p2align 4,,10
	.p2align 3
.L1498:
	movl	$0, 44(%rsp)
	movb	$0, 16(%rsp)
	jmp	.L1424
	.p2align 4,,10
	.p2align 3
.L1491:
	movq	%rbp, %xmm0
	punpcklqdq	%xmm0, %xmm0
	movups	%xmm0, 8(%rax)
	jmp	.L1423
	.p2align 4,,10
	.p2align 3
.L1483:
	movq	%rbp, %xmm0
	punpcklqdq	%xmm0, %xmm0
	movups	%xmm0, 112(%rax)
	jmp	.L1484
	.p2align 4,,10
	.p2align 3
.L1436:
	movq	%r12, %rdi
	call	__cxa_guard_acquire@PLT
	testl	%eax, %eax
	je	.L1576
	movq	_ZZN4asio15system_categoryEvE8instance@GOTPCREL(%rip), %rcx
	movq	_ZN4asio6detail15system_categoryD1Ev@GOTPCREL(%rip), %rdi
	leaq	__dso_handle(%rip), %rdx
	movq	%rcx, %rsi
	movq	%rcx, (%rsp)
	call	__cxa_atexit@PLT
	movq	%r12, %rdi
	call	__cxa_guard_release@PLT
	movq	(%rsp), %rcx
	jmp	.L1437
	.p2align 4,,10
	.p2align 3
.L1492:
	movq	%rbp, %xmm0
	punpcklqdq	%xmm0, %xmm0
	movups	%xmm0, 192(%rbx)
	jmp	.L1493
	.p2align 4,,10
	.p2align 3
.L1500:
	data16	leaq	_ZN4asio6detail15keyword_tss_ptrINS0_10call_stackINS0_15task_io_serviceENS0_27task_io_service_thread_infoEE7contextEE6value_E@tlsgd(%rip), %rdi
	.value	0x6666
	rex64
	call	__tls_get_addr@PLT
	movq	(%rax), %rax
	testq	%rax, %rax
	jne	.L1448
	jmp	.L1486
	.p2align 4,,10
	.p2align 3
.L1446:
	movq	16(%rax), %rax
	testq	%rax, %rax
	je	.L1486
.L1448:
	cmpq	(%rax), %rbx
	jne	.L1446
	jmp	.L1594
	.p2align 4,,10
	.p2align 3
.L1599:
	movq	40(%r13), %rbx
	cmpb	$0, 40(%rbx)
	jne	.L1501
	cmpb	$0, 16(%rsp)
	je	.L1457
.L1501:
	data16	leaq	_ZN4asio6detail15keyword_tss_ptrINS0_10call_stackINS0_15task_io_serviceENS0_27task_io_service_thread_infoEE7contextEE6value_E@tlsgd(%rip), %rdi
	.value	0x6666
	rex64
	call	__tls_get_addr@PLT
	movq	(%rax), %rax
	testq	%rax, %rax
	jne	.L1461
	jmp	.L1457
	.p2align 4,,10
	.p2align 3
.L1459:
	movq	16(%rax), %rax
	testq	%rax, %rax
	je	.L1457
.L1461:
	cmpq	(%rax), %rbx
	jne	.L1459
	movq	8(%rax), %rax
	testq	%rax, %rax
	je	.L1457
	addq	$1, 24(%rax)
	cmpq	$0, 16(%rax)
	movq	$0, 0(%rbp)
	je	.L1462
	movq	16(%rax), %rdx
	movq	%rbp, (%rdx)
	movq	%rbp, 16(%rax)
	jmp	.L1463
	.p2align 4,,10
	.p2align 3
.L1595:
	movq	_ZGVZN4asio15system_categoryEvE8instance@GOTPCREL(%rip), %r12
	movzbl	(%r12), %eax
	testb	%al, %al
	je	.L1433
.L1575:
	movq	_ZZN4asio15system_categoryEvE8instance@GOTPCREL(%rip), %rcx
.L1434:
	movl	$9, 24(%rbp)
	movq	%rcx, 32(%rbp)
	jmp	.L1430
	.p2align 4,,10
	.p2align 3
.L1600:
	movq	%rbp, %rdi
.LEHB24:
	call	*48(%rbp)
.LEHE24:
	testb	%al, %al
	jne	.L1601
	movq	72(%rbx), %rax
	movl	92(%rax), %edx
	testb	$4, %dl
	jne	.L1469
	orl	$4, %edx
	movq	%rax, 56(%rsp)
	leaq	52(%rsp), %rcx
	movl	$3, %esi
	movl	%edx, 52(%rsp)
	movl	96(%r13), %edi
	movl	%r15d, %edx
	call	epoll_ctl@PLT
	testl	%eax, %eax
	jne	.L1482
	movq	72(%rbx), %rax
	movl	52(%rsp), %edx
	orl	%edx, 92(%rax)
	jmp	.L1469
	.p2align 4,,10
	.p2align 3
.L1441:
	movq	%r12, %rdi
	call	__cxa_guard_acquire@PLT
	testl	%eax, %eax
	je	.L1577
	movq	_ZZN4asio15system_categoryEvE8instance@GOTPCREL(%rip), %rcx
	movq	_ZN4asio6detail15system_categoryD1Ev@GOTPCREL(%rip), %rdi
	leaq	__dso_handle(%rip), %rdx
	movq	%rcx, %rsi
	movq	%rcx, (%rsp)
	call	__cxa_atexit@PLT
	movq	%r12, %rdi
	call	__cxa_guard_release@PLT
	movq	(%rsp), %rcx
	jmp	.L1442
	.p2align 4,,10
	.p2align 3
.L1433:
	movq	%r12, %rdi
	call	__cxa_guard_acquire@PLT
	testl	%eax, %eax
	je	.L1575
	movq	_ZZN4asio15system_categoryEvE8instance@GOTPCREL(%rip), %rcx
	movq	_ZN4asio6detail15system_categoryD1Ev@GOTPCREL(%rip), %rdi
	leaq	__dso_handle(%rip), %rdx
	movq	%rcx, %rsi
	movq	%rcx, (%rsp)
	call	__cxa_atexit@PLT
	movq	%r12, %rdi
	call	__cxa_guard_release@PLT
	movq	(%rsp), %rcx
	jmp	.L1434
	.p2align 4,,10
	.p2align 3
.L1457:
	lock addq	$1, 184(%rbx)
	leaq	48(%rbx), %r13
	movq	%r13, %rdi
	call	pthread_mutex_lock@PLT
	cmpq	$0, 200(%rbx)
	movq	$0, 0(%rbp)
	je	.L1464
	movq	200(%rbx), %rax
	movq	%rbp, (%rax)
	movq	%rbp, 200(%rbx)
.L1465:
	movq	136(%rbx), %rax
	orq	$1, %rax
	movq	%rax, 136(%rbx)
	cmpq	$1, %rax
	je	.L1466
	movq	%r13, %rdi
	call	pthread_mutex_unlock@PLT
	leaq	88(%rbx), %rdi
	call	pthread_cond_signal@PLT
	jmp	.L1463
	.p2align 4,,10
	.p2align 3
.L1466:
	cmpb	$0, 176(%rbx)
	jne	.L1468
	movq	144(%rbx), %rax
	testq	%rax, %rax
	je	.L1468
	movb	$1, 176(%rbx)
	leaq	88(%rax), %rdx
	leaq	52(%rsp), %rcx
	movl	$3, %esi
	movl	$-2147483639, 52(%rsp)
	movq	%rdx, 56(%rsp)
	movl	88(%rax), %edx
	movl	96(%rax), %edi
	call	epoll_ctl@PLT
.L1468:
	movq	%r13, %rdi
	call	pthread_mutex_unlock@PLT
	jmp	.L1463
	.p2align 4,,10
	.p2align 3
.L1464:
	movq	%rbp, %xmm0
	punpcklqdq	%xmm0, %xmm0
	movups	%xmm0, 192(%rbx)
	jmp	.L1465
.L1462:
	movq	%rbp, %xmm0
	punpcklqdq	%xmm0, %xmm0
	movups	%xmm0, 8(%rax)
	jmp	.L1463
.L1601:
	movq	%r12, %rdi
	call	pthread_mutex_unlock@PLT
	movq	40(%r13), %rbx
	cmpb	$0, 40(%rbx)
	jne	.L1502
	cmpb	$0, 16(%rsp)
	je	.L1486
.L1502:
	data16	leaq	_ZN4asio6detail15keyword_tss_ptrINS0_10call_stackINS0_15task_io_serviceENS0_27task_io_service_thread_infoEE7contextEE6value_E@tlsgd(%rip), %rdi
	.value	0x6666
	rex64
	call	__tls_get_addr@PLT
	movq	(%rax), %rax
	testq	%rax, %rax
	jne	.L1475
	jmp	.L1486
	.p2align 4,,10
	.p2align 3
.L1473:
	movq	16(%rax), %rax
	testq	%rax, %rax
	je	.L1486
.L1475:
	cmpq	(%rax), %rbx
	jne	.L1473
	jmp	.L1594
.L1482:
	call	_ZN4asio15system_categoryEv@PLT
	movq	%rax, %rbx
	call	__errno_location@PLT
	movq	40(%r13), %rdi
	movl	44(%rsp), %edx
	movq	%rbp, %rsi
	movl	(%rax), %eax
	movq	%rbx, 32(%rbp)
	movl	%eax, 24(%rbp)
	call	_ZN4asio6detail15task_io_service25post_immediate_completionEPNS0_25task_io_service_operationEb@PLT
	jmp	.L1463
.L1597:
	call	__stack_chk_fail@PLT
.L1499:
	endbr64
	movq	%rax, %rbp
	jmp	.L1485
	.section	.gcc_except_table
.LLSDA6930:
	.byte	0xff
	.byte	0xff
	.byte	0x1
	.uleb128 .LLSDACSE6930-.LLSDACSB6930
.LLSDACSB6930:
	.uleb128 .LEHB23-.LFB6930
	.uleb128 .LEHE23-.LEHB23
	.uleb128 0
	.uleb128 0
	.uleb128 .LEHB24-.LFB6930
	.uleb128 .LEHE24-.LEHB24
	.uleb128 .L1499-.LFB6930
	.uleb128 0
.LLSDACSE6930:
	.text
	.cfi_endproc
	.section	.text.unlikely
	.cfi_startproc
	.cfi_personality 0x9b,DW.ref.__gxx_personality_v0
	.cfi_lsda 0x1b,.LLSDAC6930
	.type	_ZN7asiopal13SerialChannel14BeginWriteImplERKN7openpal6RSliceE.cold, @function
_ZN7asiopal13SerialChannel14BeginWriteImplERKN7openpal6RSliceE.cold:
.LFSB6930:
.L1485:
	.cfi_def_cfa_offset 240
	.cfi_offset 3, -56
	.cfi_offset 6, -48
	.cfi_offset 12, -40
	.cfi_offset 13, -32
	.cfi_offset 14, -24
	.cfi_offset 15, -16
	movq	%r12, %rdi
	call	pthread_mutex_unlock@PLT
	leaq	72(%rsp), %rdi
	leaq	80(%rsp), %rsi
	call	_ZN4asio6detail19descriptor_write_opINS_15const_buffers_1ENS0_8write_opINS_17basic_serial_portINS_19serial_port_serviceEEES2_NS0_14transfer_all_tENS0_15wrapped_handlerINS_10io_service6strandEZN7asiopal13SerialChannel14BeginWriteImplERKN7openpal6RSliceEEUlRKSt10error_codemE_NS0_26is_continuation_if_runningEEEEEE3ptr5resetEv.isra.0
	movq	%rbp, %rdi
.LEHB25:
	call	_Unwind_Resume@PLT
.LEHE25:
	.cfi_endproc
.LFE6930:
	.section	.gcc_except_table
.LLSDAC6930:
	.byte	0xff
	.byte	0xff
	.byte	0x1
	.uleb128 .LLSDACSEC6930-.LLSDACSBC6930
.LLSDACSBC6930:
	.uleb128 .LEHB25-.LCOLDB30
	.uleb128 .LEHE25-.LEHB25
	.uleb128 0
	.uleb128 0
.LLSDACSEC6930:
	.section	.text.unlikely
	.text
	.size	_ZN7asiopal13SerialChannel14BeginWriteImplERKN7openpal6RSliceE, .-_ZN7asiopal13SerialChannel14BeginWriteImplERKN7openpal6RSliceE
	.section	.text.unlikely
	.size	_ZN7asiopal13SerialChannel14BeginWriteImplERKN7openpal6RSliceE.cold, .-_ZN7asiopal13SerialChannel14BeginWriteImplERKN7openpal6RSliceE.cold
.LCOLDE30:
	.text
.LHOTE30:
	.section	.text._ZN4asio6detail14strand_service16on_dispatch_exitD2Ev,"axG",@progbits,_ZN4asio6detail14strand_service16on_dispatch_exitD5Ev,comdat
	.align 2
	.p2align 4
	.weak	_ZN4asio6detail14strand_service16on_dispatch_exitD2Ev
	.type	_ZN4asio6detail14strand_service16on_dispatch_exitD2Ev, @function
_ZN4asio6detail14strand_service16on_dispatch_exitD2Ev:
.LFB6335:
	.cfi_startproc
	endbr64
	pushq	%r12
	.cfi_def_cfa_offset 16
	.cfi_offset 12, -16
	pushq	%rbp
	.cfi_def_cfa_offset 24
	.cfi_offset 6, -24
	pushq	%rbx
	.cfi_def_cfa_offset 32
	.cfi_offset 3, -32
	movq	%rdi, %rbx
	subq	$32, %rsp
	.cfi_def_cfa_offset 64
	movq	%fs:40, %rax
	movq	%rax, 24(%rsp)
	xorl	%eax, %eax
	movq	8(%rdi), %rax
	leaq	24(%rax), %rdi
	call	pthread_mutex_lock@PLT
	movq	8(%rbx), %rdi
	movq	72(%rdi), %rbp
	testq	%rbp, %rbp
	je	.L1632
	movq	96(%rdi), %rax
	testq	%rax, %rax
	je	.L1605
	movq	%rbp, (%rax)
	movq	88(%rdi), %rbp
.L1606:
	movq	80(%rdi), %rax
	pxor	%xmm0, %xmm0
	movups	%xmm0, 72(%rdi)
	movq	%rax, 96(%rdi)
.L1604:
	testq	%rbp, %rbp
	setne	64(%rdi)
	addq	$24, %rdi
	call	pthread_mutex_unlock@PLT
	testq	%rbp, %rbp
	jne	.L1633
.L1602:
	movq	24(%rsp), %rax
	xorq	%fs:40, %rax
	jne	.L1634
	addq	$32, %rsp
	.cfi_remember_state
	.cfi_def_cfa_offset 32
	popq	%rbx
	.cfi_def_cfa_offset 24
	popq	%rbp
	.cfi_def_cfa_offset 16
	popq	%r12
	.cfi_def_cfa_offset 8
	ret
	.p2align 4,,10
	.p2align 3
.L1605:
	.cfi_restore_state
	movq	%rbp, 88(%rdi)
	jmp	.L1606
	.p2align 4,,10
	.p2align 3
.L1633:
	movq	(%rbx), %rbp
	movq	8(%rbx), %rbx
	cmpb	$0, 40(%rbp)
	je	.L1608
	data16	leaq	_ZN4asio6detail15keyword_tss_ptrINS0_10call_stackINS0_15task_io_serviceENS0_27task_io_service_thread_infoEE7contextEE6value_E@tlsgd(%rip), %rdi
	.value	0x6666
	rex64
	call	__tls_get_addr@PLT
	movq	(%rax), %rax
	testq	%rax, %rax
	jne	.L1611
	jmp	.L1608
	.p2align 4,,10
	.p2align 3
.L1609:
	movq	16(%rax), %rax
	testq	%rax, %rax
	je	.L1608
.L1611:
	cmpq	(%rax), %rbp
	jne	.L1609
	movq	8(%rax), %rax
	testq	%rax, %rax
	je	.L1608
	addq	$1, 24(%rax)
	cmpq	$0, 16(%rax)
	movq	$0, (%rbx)
	je	.L1612
	movq	16(%rax), %rdx
	movq	%rbx, (%rdx)
	movq	%rbx, 16(%rax)
	jmp	.L1602
	.p2align 4,,10
	.p2align 3
.L1608:
	lock addq	$1, 184(%rbp)
	leaq	48(%rbp), %r12
	movq	%r12, %rdi
	call	pthread_mutex_lock@PLT
	cmpq	$0, 200(%rbp)
	movq	$0, (%rbx)
	je	.L1613
	movq	200(%rbp), %rax
	movq	%rbx, (%rax)
	movq	%rbx, 200(%rbp)
.L1614:
	movq	136(%rbp), %rax
	orq	$1, %rax
	movq	%rax, 136(%rbp)
	cmpq	$1, %rax
	je	.L1615
	movq	%r12, %rdi
	call	pthread_mutex_unlock@PLT
	leaq	88(%rbp), %rdi
	call	pthread_cond_signal@PLT
	jmp	.L1602
	.p2align 4,,10
	.p2align 3
.L1632:
	movq	88(%rdi), %rbp
	jmp	.L1604
	.p2align 4,,10
	.p2align 3
.L1613:
	movq	%rbx, %xmm0
	punpcklqdq	%xmm0, %xmm0
	movups	%xmm0, 192(%rbp)
	jmp	.L1614
	.p2align 4,,10
	.p2align 3
.L1615:
	cmpb	$0, 176(%rbp)
	jne	.L1617
	movq	144(%rbp), %rax
	testq	%rax, %rax
	je	.L1617
	leaq	88(%rax), %rdx
	movb	$1, 176(%rbp)
	movl	96(%rax), %edi
	leaq	12(%rsp), %rcx
	movq	%rdx, 16(%rsp)
	movl	88(%rax), %edx
	movl	$3, %esi
	movl	$-2147483639, 12(%rsp)
	call	epoll_ctl@PLT
.L1617:
	movq	%r12, %rdi
	call	pthread_mutex_unlock@PLT
	jmp	.L1602
	.p2align 4,,10
	.p2align 3
.L1612:
	movq	%rbx, %xmm0
	punpcklqdq	%xmm0, %xmm0
	movups	%xmm0, 8(%rax)
	jmp	.L1602
.L1634:
	call	__stack_chk_fail@PLT
	.cfi_endproc
.LFE6335:
	.size	_ZN4asio6detail14strand_service16on_dispatch_exitD2Ev, .-_ZN4asio6detail14strand_service16on_dispatch_exitD2Ev
	.weak	_ZN4asio6detail14strand_service16on_dispatch_exitD1Ev
	.set	_ZN4asio6detail14strand_service16on_dispatch_exitD1Ev,_ZN4asio6detail14strand_service16on_dispatch_exitD2Ev
	.section	.text.unlikely
	.align 2
.LCOLDB31:
	.text
.LHOTB31:
	.align 2
	.p2align 4
	.type	_ZN4asio6detail14strand_service8dispatchINS0_7binder2IZN7asiopal13SerialChannel13BeginReadImplEN7openpal6WSliceEEUlRKSt10error_codemE_S8_mEEEEvRPNS1_11strand_implERT_, @function
_ZN4asio6detail14strand_service8dispatchINS0_7binder2IZN7asiopal13SerialChannel13BeginReadImplEN7openpal6WSliceEEUlRKSt10error_codemE_S8_mEEEEvRPNS1_11strand_implERT_:
.LFB9221:
	.cfi_startproc
	.cfi_personality 0x9b,DW.ref.__gxx_personality_v0
	.cfi_lsda 0x1b,.LLSDA9221
	pushq	%r14
	.cfi_def_cfa_offset 16
	.cfi_offset 14, -16
	pushq	%r13
	.cfi_def_cfa_offset 24
	.cfi_offset 13, -24
	movq	%rdi, %r13
	pushq	%r12
	.cfi_def_cfa_offset 32
	.cfi_offset 12, -32
	movq	%rsi, %r12
	pushq	%rbp
	.cfi_def_cfa_offset 40
	.cfi_offset 6, -40
	movq	%rdx, %rbp
	pushq	%rbx
	.cfi_def_cfa_offset 48
	.cfi_offset 3, -48
	subq	$160, %rsp
	.cfi_def_cfa_offset 208
	movq	(%rsi), %rbx
	movq	%fs:40, %rax
	movq	%rax, 152(%rsp)
	xorl	%eax, %eax
	data16	leaq	_ZN4asio6detail15keyword_tss_ptrINS0_10call_stackINS0_14strand_service11strand_implEhE7contextEE6value_E@tlsgd(%rip), %rdi
	.value	0x6666
	rex64
	call	__tls_get_addr@PLT
	movq	(%rax), %rax
	testq	%rax, %rax
	jne	.L1639
	jmp	.L1636
	.p2align 4,,10
	.p2align 3
.L1637:
	movq	16(%rax), %rax
	testq	%rax, %rax
	je	.L1636
.L1639:
	cmpq	(%rax), %rbx
	jne	.L1637
	cmpq	$0, 8(%rax)
	je	.L1636
	lfence
	movq	0(%rbp), %rax
	movq	24(%rbp), %rdx
	movq	40(%rax), %rdi
	movb	$0, 57(%rax)
	testq	%rdi, %rdi
	je	.L1642
	cmpb	$0, 56(%rax)
	jne	.L1642
	movq	(%rdi), %rax
	leaq	8(%rbp), %rsi
.LEHB26:
	call	*16(%rax)
.LEHE26:
.L1642:
	sfence
.L1635:
	movq	152(%rsp), %rax
	xorq	%fs:40, %rax
	jne	.L1770
	addq	$160, %rsp
	.cfi_remember_state
	.cfi_def_cfa_offset 48
	popq	%rbx
	.cfi_def_cfa_offset 40
	popq	%rbp
	.cfi_def_cfa_offset 32
	popq	%r12
	.cfi_def_cfa_offset 24
	popq	%r13
	.cfi_def_cfa_offset 16
	popq	%r14
	.cfi_def_cfa_offset 8
	ret
	.p2align 4,,10
	.p2align 3
.L1636:
	.cfi_restore_state
	pxor	%xmm0, %xmm0
	movq	%rbp, 16(%rsp)
	movups	%xmm0, 24(%rsp)
	data16	leaq	_ZN4asio6detail15keyword_tss_ptrINS0_10call_stackINS0_15task_io_serviceENS0_27task_io_service_thread_infoEE7contextEE6value_E@tlsgd(%rip), %rdi
	.value	0x6666
	rex64
	call	__tls_get_addr@PLT
	movq	(%rax), %rax
	testq	%rax, %rax
	je	.L1643
	movq	8(%rax), %rax
	testq	%rax, %rax
	je	.L1643
	movq	(%rax), %r14
	testq	%r14, %r14
	je	.L1643
	movq	$0, (%rax)
	movzbl	(%r14), %eax
	cmpb	$55, %al
	jbe	.L1644
	movb	%al, 56(%r14)
	jmp	.L1645
.L1644:
	movq	%r14, %rdi
	call	_ZdlPv@PLT
.L1643:
	movl	$57, %edi
.LEHB27:
	call	_Znwm@PLT
.LEHE27:
	movb	$56, 56(%rax)
	movq	%rax, %r14
.L1645:
	leaq	_ZN4asio6detail18completion_handlerINS0_7binder2IZN7asiopal13SerialChannel13BeginReadImplEN7openpal6WSliceEEUlRKSt10error_codemE_S7_mEEE11do_completeEPNS0_15task_io_serviceEPNS0_25task_io_service_operationES9_m(%rip), %rax
	movq	%r14, 24(%rsp)
	movdqa	0(%rbp), %xmm1
	movdqa	16(%rbp), %xmm2
	movq	40(%r13), %rbx
	movq	$0, (%r14)
	movq	%rax, 8(%r14)
	movl	$0, 16(%r14)
	movups	%xmm1, 24(%r14)
	movups	%xmm2, 40(%r14)
	movq	%r14, 32(%rsp)
	data16	leaq	_ZN4asio6detail15keyword_tss_ptrINS0_10call_stackINS0_15task_io_serviceENS0_27task_io_service_thread_infoEE7contextEE6value_E@tlsgd(%rip), %rdi
	.value	0x6666
	rex64
	call	__tls_get_addr@PLT
	movq	(%rax), %rax
	testq	%rax, %rax
	jne	.L1650
	jmp	.L1646
	.p2align 4,,10
	.p2align 3
.L1647:
	movq	16(%rax), %rax
	testq	%rax, %rax
	je	.L1646
.L1650:
	cmpq	(%rax), %rbx
	jne	.L1647
	movq	8(%rax), %rbx
	movq	(%r12), %rax
	leaq	24(%rax), %rdi
	call	pthread_mutex_lock@PLT
	testq	%rbx, %rbx
	je	.L1649
	movq	(%r12), %rax
	cmpb	$0, 64(%rax)
	leaq	24(%rax), %rdi
	je	.L1771
.L1651:
	cmpq	$0, 80(%rax)
	movq	$0, (%r14)
	je	.L1655
	movq	80(%rax), %rdx
	movq	%r14, (%rdx)
	movq	%r14, 80(%rax)
.L1769:
	call	pthread_mutex_unlock@PLT
	jmp	.L1635
.L1771:
	movb	$1, 64(%rax)
	call	pthread_mutex_unlock@PLT
	movq	(%r12), %r12
	pxor	%xmm0, %xmm0
	movq	32(%rsp), %rbp
	movups	%xmm0, 24(%rsp)
	movq	%r12, 48(%rsp)
	data16	leaq	_ZN4asio6detail15keyword_tss_ptrINS0_10call_stackINS0_14strand_service11strand_implEhE7contextEE6value_E@tlsgd(%rip), %rdi
	.value	0x6666
	rex64
	call	__tls_get_addr@PLT
	movdqu	24(%rbp), %xmm4
	movq	40(%r13), %rbx
	movq	%r12, %xmm3
	leaq	112(%rsp), %r12
	movq	%rbp, 88(%rsp)
	movaps	%xmm4, 112(%rsp)
	movq	%rbx, %xmm0
	movdqu	40(%rbp), %xmm5
	punpcklqdq	%xmm3, %xmm0
	movq	%r12, 80(%rsp)
	movq	$0, 96(%rsp)
	movaps	%xmm0, (%rsp)
	movq	(%rax), %rdx
	movaps	%xmm5, 128(%rsp)
	movq	%rdx, 64(%rsp)
	leaq	48(%rsp), %rdx
	movq	%rdx, (%rax)
	movq	%rdx, 56(%rsp)
	data16	leaq	_ZN4asio6detail15keyword_tss_ptrINS0_10call_stackINS0_15task_io_serviceENS0_27task_io_service_thread_infoEE7contextEE6value_E@tlsgd(%rip), %rdi
	.value	0x6666
	rex64
	call	__tls_get_addr@PLT
	movq	(%rax), %rax
	testq	%rax, %rax
	je	.L1653
	movq	8(%rax), %rax
	testq	%rax, %rax
	je	.L1653
	cmpq	$0, (%rax)
	je	.L1772
.L1653:
	movq	%rbp, %rdi
	call	_ZdlPv@PLT
.L1670:
	movq	$0, 88(%rsp)
	testq	%rbx, %rbx
	je	.L1671
	movq	112(%rsp), %rax
	movq	136(%rsp), %rdx
	movq	40(%rax), %rdi
	movb	$0, 57(%rax)
	testq	%rdi, %rdi
	je	.L1675
	cmpb	$0, 56(%rax)
	je	.L1773
.L1675:
	sfence
	cmpq	$0, 96(%rsp)
	je	.L1774
	movq	$0, 96(%rsp)
	movq	88(%rsp), %rbp
.L1676:
	testq	%rbp, %rbp
	je	.L1671
	data16	leaq	_ZN4asio6detail15keyword_tss_ptrINS0_10call_stackINS0_15task_io_serviceENS0_27task_io_service_thread_infoEE7contextEE6value_E@tlsgd(%rip), %rdi
	.value	0x6666
	rex64
	call	__tls_get_addr@PLT
	movq	(%rax), %rax
	testq	%rax, %rax
	je	.L1677
	movq	8(%rax), %rax
	testq	%rax, %rax
	je	.L1677
	cmpq	$0, (%rax)
	je	.L1775
.L1677:
	movq	%rbp, %rdi
	call	_ZdlPv@PLT
.L1671:
	movq	8(%rsp), %rax
	leaq	24(%rax), %rdi
	call	pthread_mutex_lock@PLT
	movq	8(%rsp), %rdi
	movq	72(%rdi), %rbx
	testq	%rbx, %rbx
	je	.L1776
	movq	96(%rdi), %rax
	testq	%rax, %rax
	je	.L1681
	movq	%rbx, (%rax)
	movq	88(%rdi), %rbx
.L1682:
	movq	80(%rdi), %rax
	pxor	%xmm0, %xmm0
	movups	%xmm0, 72(%rdi)
	movq	%rax, 96(%rdi)
.L1679:
	testq	%rbx, %rbx
	setne	64(%rdi)
	addq	$24, %rdi
	call	pthread_mutex_unlock@PLT
	testq	%rbx, %rbx
	jne	.L1777
.L1683:
	data16	leaq	_ZN4asio6detail15keyword_tss_ptrINS0_10call_stackINS0_14strand_service11strand_implEhE7contextEE6value_E@tlsgd(%rip), %rdi
	.value	0x6666
	rex64
	call	__tls_get_addr@PLT
	movq	64(%rsp), %rdx
	cmpq	$0, 32(%rsp)
	movq	24(%rsp), %rbp
	movq	%rdx, (%rax)
	je	.L1694
	movq	$0, 32(%rsp)
.L1694:
	testq	%rbp, %rbp
	je	.L1635
	data16	leaq	_ZN4asio6detail15keyword_tss_ptrINS0_10call_stackINS0_15task_io_serviceENS0_27task_io_service_thread_infoEE7contextEE6value_E@tlsgd(%rip), %rdi
	.value	0x6666
	rex64
	call	__tls_get_addr@PLT
	movq	(%rax), %rax
	testq	%rax, %rax
	je	.L1696
	movq	8(%rax), %rax
	testq	%rax, %rax
	je	.L1696
	cmpq	$0, (%rax)
	je	.L1778
.L1696:
	movq	%rbp, %rdi
	call	_ZdlPv@PLT
	jmp	.L1635
	.p2align 4,,10
	.p2align 3
.L1646:
	movq	(%r12), %rax
	leaq	24(%rax), %rdi
	call	pthread_mutex_lock@PLT
.L1649:
	movq	(%r12), %rax
	cmpb	$0, 64(%rax)
	leaq	24(%rax), %rdi
	jne	.L1651
	movb	$1, 64(%rax)
	call	pthread_mutex_unlock@PLT
	movq	(%r12), %rbp
	movq	$0, (%r14)
	cmpq	$0, 96(%rbp)
	je	.L1658
	movq	96(%rbp), %rax
	movq	%r14, (%rax)
	movq	%r14, 96(%rbp)
.L1659:
	movq	40(%r13), %rbx
	cmpb	$0, 40(%rbx)
	je	.L1660
	data16	leaq	_ZN4asio6detail15keyword_tss_ptrINS0_10call_stackINS0_15task_io_serviceENS0_27task_io_service_thread_infoEE7contextEE6value_E@tlsgd(%rip), %rdi
	.value	0x6666
	rex64
	call	__tls_get_addr@PLT
	movq	(%rax), %rax
	testq	%rax, %rax
	jne	.L1663
	jmp	.L1660
	.p2align 4,,10
	.p2align 3
.L1661:
	movq	16(%rax), %rax
	testq	%rax, %rax
	je	.L1660
.L1663:
	cmpq	(%rax), %rbx
	jne	.L1661
	movq	8(%rax), %rax
	testq	%rax, %rax
	je	.L1660
	addq	$1, 24(%rax)
	cmpq	$0, 16(%rax)
	movq	$0, 0(%rbp)
	je	.L1664
	movq	16(%rax), %rdx
	movq	%rbp, (%rdx)
	movq	%rbp, 16(%rax)
	jmp	.L1635
.L1660:
	lock addq	$1, 184(%rbx)
	leaq	48(%rbx), %r12
	movq	%r12, %rdi
	call	pthread_mutex_lock@PLT
	cmpq	$0, 200(%rbx)
	movq	$0, 0(%rbp)
	je	.L1665
	movq	200(%rbx), %rax
	movq	%rbp, (%rax)
	movq	%rbp, 200(%rbx)
.L1666:
	movq	136(%rbx), %rax
	orq	$1, %rax
	movq	%rax, 136(%rbx)
	cmpq	$1, %rax
	je	.L1667
	movq	%r12, %rdi
	call	pthread_mutex_unlock@PLT
	leaq	88(%rbx), %rdi
	call	pthread_cond_signal@PLT
	jmp	.L1635
.L1655:
	movq	%r14, %xmm0
	punpcklqdq	%xmm0, %xmm0
	movups	%xmm0, 72(%rax)
	jmp	.L1769
.L1773:
	movq	(%rdi), %rax
	leaq	120(%rsp), %rsi
.LEHB28:
	call	*16(%rax)
.LEHE28:
	jmp	.L1675
.L1665:
	movq	%rbp, %xmm0
	punpcklqdq	%xmm0, %xmm0
	movups	%xmm0, 192(%rbx)
	jmp	.L1666
.L1777:
	movq	(%rsp), %rbx
	movq	8(%rsp), %rbp
	cmpb	$0, 40(%rbx)
	je	.L1684
	data16	leaq	_ZN4asio6detail15keyword_tss_ptrINS0_10call_stackINS0_15task_io_serviceENS0_27task_io_service_thread_infoEE7contextEE6value_E@tlsgd(%rip), %rdi
	.value	0x6666
	rex64
	call	__tls_get_addr@PLT
	movq	(%rax), %rax
	testq	%rax, %rax
	jne	.L1687
	jmp	.L1684
	.p2align 4,,10
	.p2align 3
.L1685:
	movq	16(%rax), %rax
	testq	%rax, %rax
	je	.L1684
.L1687:
	cmpq	(%rax), %rbx
	jne	.L1685
	movq	8(%rax), %rax
	testq	%rax, %rax
	je	.L1684
	addq	$1, 24(%rax)
	cmpq	$0, 16(%rax)
	movq	$0, 0(%rbp)
	je	.L1688
	movq	16(%rax), %rdx
	movq	%rbp, (%rdx)
	movq	%rbp, 16(%rax)
	jmp	.L1683
.L1667:
	cmpb	$0, 176(%rbx)
	jne	.L1669
	movq	144(%rbx), %rax
	testq	%rax, %rax
	je	.L1669
	movb	$1, 176(%rbx)
	leaq	88(%rax), %rdx
	leaq	112(%rsp), %rcx
	movl	$3, %esi
	movl	$-2147483639, 112(%rsp)
	movq	%rdx, 116(%rsp)
	movl	88(%rax), %edx
	movl	96(%rax), %edi
	call	epoll_ctl@PLT
.L1669:
	movq	%r12, %rdi
	jmp	.L1769
.L1776:
	movq	88(%rdi), %rbx
	jmp	.L1679
.L1774:
	movq	88(%rsp), %rbp
	jmp	.L1676
.L1684:
	lock addq	$1, 184(%rbx)
	leaq	48(%rbx), %r13
	movq	%r13, %rdi
	call	pthread_mutex_lock@PLT
	cmpq	$0, 200(%rbx)
	movq	$0, 0(%rbp)
	je	.L1689
	movq	200(%rbx), %rax
	movq	%rbp, (%rax)
	movq	%rbp, 200(%rbx)
.L1690:
	movq	136(%rbx), %rax
	orq	$1, %rax
	movq	%rax, 136(%rbx)
	cmpq	$1, %rax
	je	.L1691
	movq	%r13, %rdi
	call	pthread_mutex_unlock@PLT
	leaq	88(%rbx), %rdi
	call	pthread_cond_signal@PLT
	jmp	.L1683
.L1681:
	movq	%rbx, 88(%rdi)
	jmp	.L1682
.L1691:
	cmpb	$0, 176(%rbx)
	jne	.L1693
	movq	144(%rbx), %rax
	testq	%rax, %rax
	je	.L1693
	movb	$1, 176(%rbx)
	leaq	88(%rax), %rdx
	movq	%r12, %rcx
	movl	$3, %esi
	movl	$-2147483639, 112(%rsp)
	movq	%rdx, 116(%rsp)
	movl	88(%rax), %edx
	movl	96(%rax), %edi
	call	epoll_ctl@PLT
.L1693:
	movq	%r13, %rdi
	call	pthread_mutex_unlock@PLT
	jmp	.L1683
.L1778:
	movzbl	56(%rbp), %edx
	movb	%dl, 0(%rbp)
	movq	%rbp, (%rax)
	jmp	.L1635
.L1658:
	movq	%r14, %xmm0
	punpcklqdq	%xmm0, %xmm0
	movups	%xmm0, 88(%rbp)
	jmp	.L1659
.L1775:
	movzbl	56(%rbp), %edx
	movb	%dl, 0(%rbp)
	movq	%rbp, (%rax)
	jmp	.L1671
.L1772:
	movzbl	56(%rbp), %edx
	movb	%dl, 0(%rbp)
	movq	%rbp, (%rax)
	jmp	.L1670
.L1689:
	movq	%rbp, %xmm0
	punpcklqdq	%xmm0, %xmm0
	movups	%xmm0, 192(%rbx)
	jmp	.L1690
.L1664:
	movq	%rbp, %xmm0
	punpcklqdq	%xmm0, %xmm0
	movups	%xmm0, 8(%rax)
	jmp	.L1635
.L1688:
	movq	%rbp, %xmm0
	punpcklqdq	%xmm0, %xmm0
	movups	%xmm0, 8(%rax)
	jmp	.L1683
.L1770:
	call	__stack_chk_fail@PLT
.L1699:
	endbr64
	movq	%rax, %rdi
	jmp	.L1697
.L1700:
	endbr64
	movq	%rax, %rbp
	jmp	.L1680
	.section	.gcc_except_table
.LLSDA9221:
	.byte	0xff
	.byte	0xff
	.byte	0x1
	.uleb128 .LLSDACSE9221-.LLSDACSB9221
.LLSDACSB9221:
	.uleb128 .LEHB26-.LFB9221
	.uleb128 .LEHE26-.LEHB26
	.uleb128 .L1699-.LFB9221
	.uleb128 0
	.uleb128 .LEHB27-.LFB9221
	.uleb128 .LEHE27-.LEHB27
	.uleb128 0
	.uleb128 0
	.uleb128 .LEHB28-.LFB9221
	.uleb128 .LEHE28-.LEHB28
	.uleb128 .L1700-.LFB9221
	.uleb128 0
.LLSDACSE9221:
	.text
	.cfi_endproc
	.section	.text.unlikely
	.cfi_startproc
	.cfi_personality 0x9b,DW.ref.__gxx_personality_v0
	.cfi_lsda 0x1b,.LLSDAC9221
	.type	_ZN4asio6detail14strand_service8dispatchINS0_7binder2IZN7asiopal13SerialChannel13BeginReadImplEN7openpal6WSliceEEUlRKSt10error_codemE_S8_mEEEEvRPNS1_11strand_implERT_.cold, @function
_ZN4asio6detail14strand_service8dispatchINS0_7binder2IZN7asiopal13SerialChannel13BeginReadImplEN7openpal6WSliceEEUlRKSt10error_codemE_S8_mEEEEvRPNS1_11strand_implERT_.cold:
.LFSB9221:
.L1697:
	.cfi_def_cfa_offset 208
	.cfi_offset 3, -48
	.cfi_offset 6, -40
	.cfi_offset 12, -32
	.cfi_offset 13, -24
	.cfi_offset 14, -16
	sfence
.LEHB29:
	call	_Unwind_Resume@PLT
.L1680:
	sfence
	leaq	96(%rsp), %rsi
	leaq	88(%rsp), %rdi
	call	_ZN4asio6detail18completion_handlerINS0_7binder2IZN7asiopal13SerialChannel13BeginReadImplEN7openpal6WSliceEEUlRKSt10error_codemE_S7_mEEE3ptr5resetEv.isra.0
	movq	%rsp, %rdi
	call	_ZN4asio6detail14strand_service16on_dispatch_exitD1Ev@PLT
	data16	leaq	_ZN4asio6detail15keyword_tss_ptrINS0_10call_stackINS0_14strand_service11strand_implEhE7contextEE6value_E@tlsgd(%rip), %rdi
	.value	0x6666
	rex64
	call	__tls_get_addr@PLT
	movq	64(%rsp), %rdx
	leaq	24(%rsp), %rdi
	leaq	32(%rsp), %rsi
	movq	%rdx, (%rax)
	call	_ZN4asio6detail18completion_handlerINS0_7binder2IZN7asiopal13SerialChannel13BeginReadImplEN7openpal6WSliceEEUlRKSt10error_codemE_S7_mEEE3ptr5resetEv.isra.0
	movq	%rbp, %rdi
	call	_Unwind_Resume@PLT
.LEHE29:
	.cfi_endproc
.LFE9221:
	.section	.gcc_except_table
.LLSDAC9221:
	.byte	0xff
	.byte	0xff
	.byte	0x1
	.uleb128 .LLSDACSEC9221-.LLSDACSBC9221
.LLSDACSBC9221:
	.uleb128 .LEHB29-.LCOLDB31
	.uleb128 .LEHE29-.LEHB29
	.uleb128 0
	.uleb128 0
.LLSDACSEC9221:
	.section	.text.unlikely
	.text
	.size	_ZN4asio6detail14strand_service8dispatchINS0_7binder2IZN7asiopal13SerialChannel13BeginReadImplEN7openpal6WSliceEEUlRKSt10error_codemE_S8_mEEEEvRPNS1_11strand_implERT_, .-_ZN4asio6detail14strand_service8dispatchINS0_7binder2IZN7asiopal13SerialChannel13BeginReadImplEN7openpal6WSliceEEUlRKSt10error_codemE_S8_mEEEEvRPNS1_11strand_implERT_
	.section	.text.unlikely
	.size	_ZN4asio6detail14strand_service8dispatchINS0_7binder2IZN7asiopal13SerialChannel13BeginReadImplEN7openpal6WSliceEEUlRKSt10error_codemE_S8_mEEEEvRPNS1_11strand_implERT_.cold, .-_ZN4asio6detail14strand_service8dispatchINS0_7binder2IZN7asiopal13SerialChannel13BeginReadImplEN7openpal6WSliceEEUlRKSt10error_codemE_S8_mEEEEvRPNS1_11strand_implERT_.cold
.LCOLDE31:
	.text
.LHOTE31:
	.section	.text.unlikely
.LCOLDB32:
	.text
.LHOTB32:
	.p2align 4
	.type	_ZN4asio6detail18completion_handlerINS0_17rewrapped_handlerINS0_7binder2INS0_15wrapped_handlerINS_10io_service6strandEZN7asiopal13SerialChannel13BeginReadImplEN7openpal6WSliceEEUlRKSt10error_codemE_NS0_26is_continuation_if_runningEEESB_mEESE_EEE11do_completeEPNS0_15task_io_serviceEPNS0_25task_io_service_operationESD_m, @function
_ZN4asio6detail18completion_handlerINS0_17rewrapped_handlerINS0_7binder2INS0_15wrapped_handlerINS_10io_service6strandEZN7asiopal13SerialChannel13BeginReadImplEN7openpal6WSliceEEUlRKSt10error_codemE_NS0_26is_continuation_if_runningEEESB_mEESE_EEE11do_completeEPNS0_15task_io_serviceEPNS0_25task_io_service_operationESD_m:
.LFB9149:
	.cfi_startproc
	.cfi_personality 0x9b,DW.ref.__gxx_personality_v0
	.cfi_lsda 0x1b,.LLSDA9149
	endbr64
	pushq	%rbp
	.cfi_def_cfa_offset 16
	.cfi_offset 6, -16
	movq	%rsi, %rbp
	pushq	%rbx
	.cfi_def_cfa_offset 24
	.cfi_offset 3, -24
	movq	%rdi, %rbx
	subq	$152, %rsp
	.cfi_def_cfa_offset 176
	movdqu	32(%rsi), %xmm0
	movdqu	56(%rsi), %xmm1
	movq	%fs:40, %rax
	movq	%rax, 136(%rsp)
	xorl	%eax, %eax
	movq	24(%rsi), %rax
	movq	%rsi, 8(%rsp)
	movq	$0, 16(%rsp)
	movq	%rax, 80(%rsp)
	movq	48(%rsi), %rax
	movups	%xmm0, 88(%rsp)
	movq	%rax, 104(%rsp)
	movq	72(%rsi), %rax
	movaps	%xmm1, 112(%rsp)
	movq	%rax, 128(%rsp)
	leaq	80(%rsp), %rax
	movq	%rax, (%rsp)
	data16	leaq	_ZN4asio6detail15keyword_tss_ptrINS0_10call_stackINS0_15task_io_serviceENS0_27task_io_service_thread_infoEE7contextEE6value_E@tlsgd(%rip), %rdi
	.value	0x6666
	rex64
	call	__tls_get_addr@PLT
	movq	(%rax), %rax
	testq	%rax, %rax
	je	.L1780
	movq	8(%rax), %rax
	testq	%rax, %rax
	je	.L1780
	cmpq	$0, (%rax)
	je	.L1808
.L1780:
	movq	%rbp, %rdi
	call	_ZdlPv@PLT
.L1781:
	movq	$0, 8(%rsp)
	testq	%rbx, %rbx
	je	.L1779
	movq	104(%rsp), %rax
	movq	88(%rsp), %rdi
	leaq	32(%rsp), %rdx
	leaq	96(%rsp), %rsi
	movq	%rax, 32(%rsp)
	movl	112(%rsp), %eax
	movl	%eax, 40(%rsp)
	movq	120(%rsp), %rax
	movq	%rax, 48(%rsp)
	movq	128(%rsp), %rax
	movq	%rax, 56(%rsp)
.LEHB30:
	call	_ZN4asio6detail14strand_service8dispatchINS0_7binder2IZN7asiopal13SerialChannel13BeginReadImplEN7openpal6WSliceEEUlRKSt10error_codemE_S8_mEEEEvRPNS1_11strand_implERT_
.LEHE30:
	sfence
	cmpq	$0, 16(%rsp)
	movq	8(%rsp), %rbp
	je	.L1783
	movq	$0, 16(%rsp)
.L1783:
	testq	%rbp, %rbp
	je	.L1779
	data16	leaq	_ZN4asio6detail15keyword_tss_ptrINS0_10call_stackINS0_15task_io_serviceENS0_27task_io_service_thread_infoEE7contextEE6value_E@tlsgd(%rip), %rdi
	.value	0x6666
	rex64
	call	__tls_get_addr@PLT
	movq	(%rax), %rax
	testq	%rax, %rax
	je	.L1785
	movq	8(%rax), %rax
	testq	%rax, %rax
	je	.L1785
	cmpq	$0, (%rax)
	je	.L1809
.L1785:
	movq	%rbp, %rdi
	call	_ZdlPv@PLT
.L1779:
	movq	136(%rsp), %rax
	xorq	%fs:40, %rax
	jne	.L1810
	addq	$152, %rsp
	.cfi_remember_state
	.cfi_def_cfa_offset 24
	popq	%rbx
	.cfi_def_cfa_offset 16
	popq	%rbp
	.cfi_def_cfa_offset 8
	ret
	.p2align 4,,10
	.p2align 3
.L1808:
	.cfi_restore_state
	movzbl	80(%rbp), %edx
	movb	%dl, 0(%rbp)
	movq	%rbp, (%rax)
	jmp	.L1781
	.p2align 4,,10
	.p2align 3
.L1809:
	movzbl	80(%rbp), %edx
	movb	%dl, 0(%rbp)
	movq	%rbp, (%rax)
	jmp	.L1779
.L1810:
	call	__stack_chk_fail@PLT
.L1788:
	endbr64
	movq	%rax, %rbp
	jmp	.L1786
	.section	.gcc_except_table
.LLSDA9149:
	.byte	0xff
	.byte	0xff
	.byte	0x1
	.uleb128 .LLSDACSE9149-.LLSDACSB9149
.LLSDACSB9149:
	.uleb128 .LEHB30-.LFB9149
	.uleb128 .LEHE30-.LEHB30
	.uleb128 .L1788-.LFB9149
	.uleb128 0
.LLSDACSE9149:
	.text
	.cfi_endproc
	.section	.text.unlikely
	.cfi_startproc
	.cfi_personality 0x9b,DW.ref.__gxx_personality_v0
	.cfi_lsda 0x1b,.LLSDAC9149
	.type	_ZN4asio6detail18completion_handlerINS0_17rewrapped_handlerINS0_7binder2INS0_15wrapped_handlerINS_10io_service6strandEZN7asiopal13SerialChannel13BeginReadImplEN7openpal6WSliceEEUlRKSt10error_codemE_NS0_26is_continuation_if_runningEEESB_mEESE_EEE11do_completeEPNS0_15task_io_serviceEPNS0_25task_io_service_operationESD_m.cold, @function
_ZN4asio6detail18completion_handlerINS0_17rewrapped_handlerINS0_7binder2INS0_15wrapped_handlerINS_10io_service6strandEZN7asiopal13SerialChannel13BeginReadImplEN7openpal6WSliceEEUlRKSt10error_codemE_NS0_26is_continuation_if_runningEEESB_mEESE_EEE11do_completeEPNS0_15task_io_serviceEPNS0_25task_io_service_operationESD_m.cold:
.LFSB9149:
.L1786:
	.cfi_def_cfa_offset 176
	.cfi_offset 3, -24
	.cfi_offset 6, -16
	sfence
	leaq	8(%rsp), %rdi
	leaq	16(%rsp), %rsi
	call	_ZN4asio6detail18completion_handlerINS0_17rewrapped_handlerINS0_7binder2INS0_15wrapped_handlerINS_10io_service6strandEZN7asiopal13SerialChannel13BeginReadImplEN7openpal6WSliceEEUlRKSt10error_codemE_NS0_26is_continuation_if_runningEEESB_mEESE_EEE3ptr5resetEv.isra.0
	movq	%rbp, %rdi
.LEHB31:
	call	_Unwind_Resume@PLT
.LEHE31:
	.cfi_endproc
.LFE9149:
	.section	.gcc_except_table
.LLSDAC9149:
	.byte	0xff
	.byte	0xff
	.byte	0x1
	.uleb128 .LLSDACSEC9149-.LLSDACSBC9149
.LLSDACSBC9149:
	.uleb128 .LEHB31-.LCOLDB32
	.uleb128 .LEHE31-.LEHB31
	.uleb128 0
	.uleb128 0
.LLSDACSEC9149:
	.section	.text.unlikely
	.text
	.size	_ZN4asio6detail18completion_handlerINS0_17rewrapped_handlerINS0_7binder2INS0_15wrapped_handlerINS_10io_service6strandEZN7asiopal13SerialChannel13BeginReadImplEN7openpal6WSliceEEUlRKSt10error_codemE_NS0_26is_continuation_if_runningEEESB_mEESE_EEE11do_completeEPNS0_15task_io_serviceEPNS0_25task_io_service_operationESD_m, .-_ZN4asio6detail18completion_handlerINS0_17rewrapped_handlerINS0_7binder2INS0_15wrapped_handlerINS_10io_service6strandEZN7asiopal13SerialChannel13BeginReadImplEN7openpal6WSliceEEUlRKSt10error_codemE_NS0_26is_continuation_if_runningEEESB_mEESE_EEE11do_completeEPNS0_15task_io_serviceEPNS0_25task_io_service_operationESD_m
	.section	.text.unlikely
	.size	_ZN4asio6detail18completion_handlerINS0_17rewrapped_handlerINS0_7binder2INS0_15wrapped_handlerINS_10io_service6strandEZN7asiopal13SerialChannel13BeginReadImplEN7openpal6WSliceEEUlRKSt10error_codemE_NS0_26is_continuation_if_runningEEESB_mEESE_EEE11do_completeEPNS0_15task_io_serviceEPNS0_25task_io_service_operationESD_m.cold, .-_ZN4asio6detail18completion_handlerINS0_17rewrapped_handlerINS0_7binder2INS0_15wrapped_handlerINS_10io_service6strandEZN7asiopal13SerialChannel13BeginReadImplEN7openpal6WSliceEEUlRKSt10error_codemE_NS0_26is_continuation_if_runningEEESB_mEESE_EEE11do_completeEPNS0_15task_io_serviceEPNS0_25task_io_service_operationESD_m.cold
.LCOLDE32:
	.text
.LHOTE32:
	.section	.text.unlikely
.LCOLDB33:
	.text
.LHOTB33:
	.p2align 4
	.type	_ZN4asio6detail18descriptor_read_opINS_17mutable_buffers_1ENS0_15wrapped_handlerINS_10io_service6strandEZN7asiopal13SerialChannel13BeginReadImplEN7openpal6WSliceEEUlRKSt10error_codemE_NS0_26is_continuation_if_runningEEEE11do_completeEPNS0_15task_io_serviceEPNS0_25task_io_service_operationESC_m, @function
_ZN4asio6detail18descriptor_read_opINS_17mutable_buffers_1ENS0_15wrapped_handlerINS_10io_service6strandEZN7asiopal13SerialChannel13BeginReadImplEN7openpal6WSliceEEUlRKSt10error_codemE_NS0_26is_continuation_if_runningEEEE11do_completeEPNS0_15task_io_serviceEPNS0_25task_io_service_operationESC_m:
.LFB8852:
	.cfi_startproc
	.cfi_personality 0x9b,DW.ref.__gxx_personality_v0
	.cfi_lsda 0x1b,.LLSDA8852
	endbr64
	pushq	%r13
	.cfi_def_cfa_offset 16
	.cfi_offset 13, -16
	pushq	%r12
	.cfi_def_cfa_offset 24
	.cfi_offset 12, -24
	pushq	%rbp
	.cfi_def_cfa_offset 32
	.cfi_offset 6, -32
	movq	%rsi, %rbp
	pushq	%rbx
	.cfi_def_cfa_offset 40
	.cfi_offset 3, -40
	movq	%rdi, %rbx
	subq	$456, %rsp
	.cfi_def_cfa_offset 496
	movl	24(%rsi), %ecx
	movq	32(%rsi), %rdx
	movq	%fs:40, %rax
	movq	%rax, 440(%rsp)
	xorl	%eax, %eax
	movq	40(%rsi), %rax
	movdqu	80(%rsi), %xmm2
	movq	%rsi, 24(%rsp)
	movq	96(%rsi), %rsi
	movl	%ecx, 216(%rsp)
	movq	%rax, 232(%rsp)
	leaq	192(%rsp), %rax
	movq	%rsi, 208(%rsp)
	movq	%rdx, 224(%rsp)
	movq	%rax, 16(%rsp)
	movq	$0, 32(%rsp)
	movaps	%xmm2, 192(%rsp)
	data16	leaq	_ZN4asio6detail15keyword_tss_ptrINS0_10call_stackINS0_15task_io_serviceENS0_27task_io_service_thread_infoEE7contextEE6value_E@tlsgd(%rip), %rdi
	.value	0x6666
	rex64
	call	__tls_get_addr@PLT
	movq	(%rax), %rax
	testq	%rax, %rax
	je	.L1812
	movq	8(%rax), %rax
	testq	%rax, %rax
	je	.L1812
	cmpq	$0, (%rax)
	je	.L1967
.L1812:
	movq	%rbp, %rdi
	call	_ZdlPv@PLT
.L1813:
	movq	$0, 24(%rsp)
	testq	%rbx, %rbx
	je	.L1811
	movq	208(%rsp), %rax
	movq	200(%rsp), %rbx
	movdqa	192(%rsp), %xmm1
	movdqu	216(%rsp), %xmm0
	movq	%rax, 264(%rsp)
	movq	%rax, 368(%rsp)
	movq	%rax, 392(%rsp)
	movq	232(%rsp), %rax
	movups	%xmm1, 248(%rsp)
	movq	%rax, 416(%rsp)
	movaps	%xmm0, 272(%rsp)
	movups	%xmm1, 376(%rsp)
	movaps	%xmm0, 400(%rsp)
	data16	leaq	_ZN4asio6detail15keyword_tss_ptrINS0_10call_stackINS0_14strand_service11strand_implEhE7contextEE6value_E@tlsgd(%rip), %rdi
	.value	0x6666
	rex64
	call	__tls_get_addr@PLT
	movq	(%rax), %rax
	testq	%rax, %rax
	jne	.L1818
	jmp	.L1815
	.p2align 4,,10
	.p2align 3
.L1816:
	movq	16(%rax), %rax
	testq	%rax, %rax
	je	.L1815
.L1818:
	cmpq	(%rax), %rbx
	jne	.L1816
	cmpq	$0, 8(%rax)
	je	.L1815
	lfence
	movq	392(%rsp), %rax
	leaq	304(%rsp), %rdx
	leaq	384(%rsp), %rsi
	movq	376(%rsp), %rdi
	movq	%rax, 304(%rsp)
	movl	400(%rsp), %eax
	movl	%eax, 312(%rsp)
	movq	408(%rsp), %rax
	movq	%rax, 320(%rsp)
	movq	416(%rsp), %rax
	movq	%rax, 328(%rsp)
.LEHB32:
	call	_ZN4asio6detail14strand_service8dispatchINS0_7binder2IZN7asiopal13SerialChannel13BeginReadImplEN7openpal6WSliceEEUlRKSt10error_codemE_S8_mEEEEvRPNS1_11strand_implERT_
.LEHE32:
	sfence
.L1819:
	sfence
	cmpq	$0, 32(%rsp)
	movq	24(%rsp), %rbp
	je	.L1873
	movq	$0, 32(%rsp)
.L1873:
	testq	%rbp, %rbp
	je	.L1811
	data16	leaq	_ZN4asio6detail15keyword_tss_ptrINS0_10call_stackINS0_15task_io_serviceENS0_27task_io_service_thread_infoEE7contextEE6value_E@tlsgd(%rip), %rdi
	.value	0x6666
	rex64
	call	__tls_get_addr@PLT
	movq	(%rax), %rax
	testq	%rax, %rax
	je	.L1876
	movq	8(%rax), %rax
	testq	%rax, %rax
	je	.L1876
	cmpq	$0, (%rax)
	je	.L1968
.L1876:
	movq	%rbp, %rdi
	call	_ZdlPv@PLT
.L1811:
	movq	440(%rsp), %rax
	xorq	%fs:40, %rax
	jne	.L1969
	addq	$456, %rsp
	.cfi_remember_state
	.cfi_def_cfa_offset 40
	popq	%rbx
	.cfi_def_cfa_offset 32
	popq	%rbp
	.cfi_def_cfa_offset 24
	popq	%r12
	.cfi_def_cfa_offset 16
	popq	%r13
	.cfi_def_cfa_offset 8
	ret
	.p2align 4,,10
	.p2align 3
.L1815:
	.cfi_restore_state
	pxor	%xmm0, %xmm0
	leaq	368(%rsp), %rax
	movq	192(%rsp), %r12
	movq	%rax, 48(%rsp)
	movups	%xmm0, 56(%rsp)
	data16	leaq	_ZN4asio6detail15keyword_tss_ptrINS0_10call_stackINS0_15task_io_serviceENS0_27task_io_service_thread_infoEE7contextEE6value_E@tlsgd(%rip), %rdi
	.value	0x6666
	rex64
	call	__tls_get_addr@PLT
	movq	(%rax), %rax
	testq	%rax, %rax
	je	.L1820
	movq	8(%rax), %rax
	testq	%rax, %rax
	je	.L1820
	movq	(%rax), %rbp
	testq	%rbp, %rbp
	je	.L1820
	movq	$0, (%rax)
	movzbl	0(%rbp), %eax
	cmpb	$79, %al
	jbe	.L1821
	movb	%al, 80(%rbp)
	jmp	.L1822
	.p2align 4,,10
	.p2align 3
.L1821:
	movq	%rbp, %rdi
	call	_ZdlPv@PLT
.L1820:
	movl	$81, %edi
.LEHB33:
	call	_Znwm@PLT
.LEHE33:
	movb	$80, 80(%rax)
	movq	%rax, %rbp
.L1822:
	leaq	_ZN4asio6detail18completion_handlerINS0_17rewrapped_handlerINS0_7binder2INS0_15wrapped_handlerINS_10io_service6strandEZN7asiopal13SerialChannel13BeginReadImplEN7openpal6WSliceEEUlRKSt10error_codemE_NS0_26is_continuation_if_runningEEESB_mEESE_EEE11do_completeEPNS0_15task_io_serviceEPNS0_25task_io_service_operationESD_m(%rip), %rax
	movq	%rbp, 56(%rsp)
	movdqu	376(%rsp), %xmm3
	movq	%rax, 8(%rbp)
	movq	40(%r12), %rbx
	movq	368(%rsp), %rax
	movl	$0, 16(%rbp)
	movdqa	400(%rsp), %xmm4
	movq	$0, 0(%rbp)
	movq	%rax, 24(%rbp)
	movq	392(%rsp), %rax
	movups	%xmm3, 32(%rbp)
	movq	%rax, 48(%rbp)
	movq	416(%rsp), %rax
	movups	%xmm4, 56(%rbp)
	movq	%rax, 72(%rbp)
	movq	%rbp, 64(%rsp)
	data16	leaq	_ZN4asio6detail15keyword_tss_ptrINS0_10call_stackINS0_15task_io_serviceENS0_27task_io_service_thread_infoEE7contextEE6value_E@tlsgd(%rip), %rdi
	.value	0x6666
	rex64
	call	__tls_get_addr@PLT
	movq	(%rax), %rax
	testq	%rax, %rax
	jne	.L1827
	jmp	.L1823
	.p2align 4,,10
	.p2align 3
.L1824:
	movq	16(%rax), %rax
	testq	%rax, %rax
	je	.L1823
.L1827:
	cmpq	(%rax), %rbx
	jne	.L1824
	movq	8(%rax), %rbx
	movq	200(%rsp), %rax
	leaq	24(%rax), %rdi
	call	pthread_mutex_lock@PLT
	testq	%rbx, %rbx
	je	.L1826
	movq	200(%rsp), %rax
	cmpb	$0, 64(%rax)
	leaq	24(%rax), %rdi
	je	.L1970
.L1828:
	cmpq	$0, 80(%rax)
	movq	$0, 0(%rbp)
	je	.L1832
	movq	80(%rax), %rdx
	movq	%rbp, (%rdx)
	movq	%rbp, 80(%rax)
.L1966:
	call	pthread_mutex_unlock@PLT
	jmp	.L1819
	.p2align 4,,10
	.p2align 3
.L1970:
	movb	$1, 64(%rax)
	call	pthread_mutex_unlock@PLT
	pxor	%xmm0, %xmm0
	movq	64(%rsp), %rbp
	movq	200(%rsp), %r13
	movups	%xmm0, 56(%rsp)
	movq	%r13, 80(%rsp)
	data16	leaq	_ZN4asio6detail15keyword_tss_ptrINS0_10call_stackINS0_14strand_service11strand_implEhE7contextEE6value_E@tlsgd(%rip), %rdi
	.value	0x6666
	rex64
	call	__tls_get_addr@PLT
	movq	40(%r12), %rbx
	movdqu	32(%rbp), %xmm6
	movq	%r13, %xmm5
	movdqu	56(%rbp), %xmm7
	leaq	304(%rsp), %r12
	movq	%rbp, 120(%rsp)
	movq	%rbx, %xmm0
	movq	%r12, 112(%rsp)
	movq	$0, 128(%rsp)
	punpcklqdq	%xmm5, %xmm0
	movaps	%xmm0, (%rsp)
	movq	(%rax), %rdx
	movq	%rdx, 96(%rsp)
	leaq	80(%rsp), %rdx
	movq	%rdx, (%rax)
	movq	24(%rbp), %rax
	movq	%rdx, 88(%rsp)
	movq	%rax, 304(%rsp)
	movq	48(%rbp), %rax
	movups	%xmm6, 312(%rsp)
	movq	%rax, 328(%rsp)
	movq	72(%rbp), %rax
	movaps	%xmm7, 336(%rsp)
	movq	%rax, 352(%rsp)
	data16	leaq	_ZN4asio6detail15keyword_tss_ptrINS0_10call_stackINS0_15task_io_serviceENS0_27task_io_service_thread_infoEE7contextEE6value_E@tlsgd(%rip), %rdi
	.value	0x6666
	rex64
	call	__tls_get_addr@PLT
	movq	(%rax), %rax
	testq	%rax, %rax
	je	.L1830
	movq	8(%rax), %rax
	testq	%rax, %rax
	je	.L1830
	cmpq	$0, (%rax)
	je	.L1971
.L1830:
	movq	%rbp, %rdi
	call	_ZdlPv@PLT
.L1847:
	movq	$0, 120(%rsp)
	testq	%rbx, %rbx
	je	.L1850
	movq	328(%rsp), %rax
	movq	312(%rsp), %rdi
	leaq	144(%rsp), %rdx
	leaq	320(%rsp), %rsi
	movq	%rax, 144(%rsp)
	movl	336(%rsp), %eax
	movl	%eax, 152(%rsp)
	movq	344(%rsp), %rax
	movq	%rax, 160(%rsp)
	movq	352(%rsp), %rax
	movq	%rax, 168(%rsp)
.LEHB34:
	call	_ZN4asio6detail14strand_service8dispatchINS0_7binder2IZN7asiopal13SerialChannel13BeginReadImplEN7openpal6WSliceEEUlRKSt10error_codemE_S8_mEEEEvRPNS1_11strand_implERT_
.LEHE34:
	sfence
	movq	120(%rsp), %rbp
	cmpq	$0, 128(%rsp)
	je	.L1849
	movq	$0, 128(%rsp)
.L1849:
	testq	%rbp, %rbp
	je	.L1850
	data16	leaq	_ZN4asio6detail15keyword_tss_ptrINS0_10call_stackINS0_15task_io_serviceENS0_27task_io_service_thread_infoEE7contextEE6value_E@tlsgd(%rip), %rdi
	.value	0x6666
	rex64
	call	__tls_get_addr@PLT
	movq	(%rax), %rax
	testq	%rax, %rax
	je	.L1851
	movq	8(%rax), %rax
	testq	%rax, %rax
	je	.L1851
	cmpq	$0, (%rax)
	je	.L1972
.L1851:
	movq	%rbp, %rdi
	call	_ZdlPv@PLT
.L1850:
	movq	8(%rsp), %rax
	leaq	24(%rax), %rdi
	call	pthread_mutex_lock@PLT
	movq	8(%rsp), %rdi
	movq	72(%rdi), %rbx
	testq	%rbx, %rbx
	je	.L1973
	movq	96(%rdi), %rax
	testq	%rax, %rax
	je	.L1856
	movq	%rbx, (%rax)
	movq	88(%rdi), %rbx
.L1857:
	movq	80(%rdi), %rax
	pxor	%xmm0, %xmm0
	movups	%xmm0, 72(%rdi)
	movq	%rax, 96(%rdi)
.L1853:
	testq	%rbx, %rbx
	setne	64(%rdi)
	addq	$24, %rdi
	call	pthread_mutex_unlock@PLT
	testq	%rbx, %rbx
	jne	.L1974
.L1858:
	data16	leaq	_ZN4asio6detail15keyword_tss_ptrINS0_10call_stackINS0_14strand_service11strand_implEhE7contextEE6value_E@tlsgd(%rip), %rdi
	.value	0x6666
	rex64
	call	__tls_get_addr@PLT
	movq	96(%rsp), %rdx
	cmpq	$0, 64(%rsp)
	movq	56(%rsp), %rbp
	movq	%rdx, (%rax)
	je	.L1869
	movq	$0, 64(%rsp)
.L1869:
	testq	%rbp, %rbp
	je	.L1819
	data16	leaq	_ZN4asio6detail15keyword_tss_ptrINS0_10call_stackINS0_15task_io_serviceENS0_27task_io_service_thread_infoEE7contextEE6value_E@tlsgd(%rip), %rdi
	.value	0x6666
	rex64
	call	__tls_get_addr@PLT
	movq	(%rax), %rax
	testq	%rax, %rax
	je	.L1871
	movq	8(%rax), %rax
	testq	%rax, %rax
	je	.L1871
	cmpq	$0, (%rax)
	je	.L1975
.L1871:
	movq	%rbp, %rdi
	call	_ZdlPv@PLT
	jmp	.L1819
	.p2align 4,,10
	.p2align 3
.L1967:
	movzbl	104(%rbp), %edx
	movb	%dl, 0(%rbp)
	movq	%rbp, (%rax)
	jmp	.L1813
	.p2align 4,,10
	.p2align 3
.L1832:
	movq	%rbp, %xmm0
	punpcklqdq	%xmm0, %xmm0
	movups	%xmm0, 72(%rax)
	jmp	.L1966
	.p2align 4,,10
	.p2align 3
.L1823:
	movq	200(%rsp), %rax
	leaq	24(%rax), %rdi
	call	pthread_mutex_lock@PLT
.L1826:
	movq	200(%rsp), %rax
	cmpb	$0, 64(%rax)
	leaq	24(%rax), %rdi
	jne	.L1828
	movb	$1, 64(%rax)
	call	pthread_mutex_unlock@PLT
	movq	200(%rsp), %r13
	movq	$0, 0(%rbp)
	cmpq	$0, 96(%r13)
	je	.L1835
	movq	96(%r13), %rax
	movq	%rbp, (%rax)
	movq	%rbp, 96(%r13)
.L1836:
	movq	40(%r12), %rbx
	cmpb	$0, 40(%rbx)
	je	.L1837
	data16	leaq	_ZN4asio6detail15keyword_tss_ptrINS0_10call_stackINS0_15task_io_serviceENS0_27task_io_service_thread_infoEE7contextEE6value_E@tlsgd(%rip), %rdi
	.value	0x6666
	rex64
	call	__tls_get_addr@PLT
	movq	(%rax), %rax
	testq	%rax, %rax
	jne	.L1840
	jmp	.L1837
	.p2align 4,,10
	.p2align 3
.L1838:
	movq	16(%rax), %rax
	testq	%rax, %rax
	je	.L1837
.L1840:
	cmpq	(%rax), %rbx
	jne	.L1838
	movq	8(%rax), %rax
	testq	%rax, %rax
	je	.L1837
	addq	$1, 24(%rax)
	cmpq	$0, 16(%rax)
	movq	$0, 0(%r13)
	je	.L1841
	movq	16(%rax), %rdx
	movq	%r13, (%rdx)
	movq	%r13, 16(%rax)
	jmp	.L1819
	.p2align 4,,10
	.p2align 3
.L1837:
	lock addq	$1, 184(%rbx)
	leaq	48(%rbx), %rbp
	movq	%rbp, %rdi
	call	pthread_mutex_lock@PLT
	cmpq	$0, 200(%rbx)
	movq	$0, 0(%r13)
	je	.L1842
	movq	200(%rbx), %rax
	movq	%r13, (%rax)
	movq	%r13, 200(%rbx)
.L1843:
	movq	136(%rbx), %rax
	orq	$1, %rax
	movq	%rax, 136(%rbx)
	cmpq	$1, %rax
	je	.L1844
	movq	%rbp, %rdi
	call	pthread_mutex_unlock@PLT
	leaq	88(%rbx), %rdi
	call	pthread_cond_signal@PLT
	jmp	.L1819
	.p2align 4,,10
	.p2align 3
.L1844:
	cmpb	$0, 176(%rbx)
	jne	.L1846
	movq	144(%rbx), %rax
	testq	%rax, %rax
	je	.L1846
	movb	$1, 176(%rbx)
	leaq	88(%rax), %rdx
	movl	$3, %esi
	leaq	304(%rsp), %rcx
	movl	$-2147483639, 304(%rsp)
	movq	%rdx, 308(%rsp)
	movl	88(%rax), %edx
	movl	96(%rax), %edi
	call	epoll_ctl@PLT
.L1846:
	movq	%rbp, %rdi
	jmp	.L1966
	.p2align 4,,10
	.p2align 3
.L1968:
	movzbl	104(%rbp), %edx
	movb	%dl, 0(%rbp)
	movq	%rbp, (%rax)
	jmp	.L1811
	.p2align 4,,10
	.p2align 3
.L1974:
	movq	(%rsp), %rbx
	movq	8(%rsp), %rbp
	cmpb	$0, 40(%rbx)
	je	.L1859
	data16	leaq	_ZN4asio6detail15keyword_tss_ptrINS0_10call_stackINS0_15task_io_serviceENS0_27task_io_service_thread_infoEE7contextEE6value_E@tlsgd(%rip), %rdi
	.value	0x6666
	rex64
	call	__tls_get_addr@PLT
	movq	(%rax), %rax
	testq	%rax, %rax
	jne	.L1862
	jmp	.L1859
	.p2align 4,,10
	.p2align 3
.L1860:
	movq	16(%rax), %rax
	testq	%rax, %rax
	je	.L1859
.L1862:
	cmpq	(%rax), %rbx
	jne	.L1860
	movq	8(%rax), %rax
	testq	%rax, %rax
	je	.L1859
	addq	$1, 24(%rax)
	cmpq	$0, 16(%rax)
	movq	$0, 0(%rbp)
	je	.L1863
	movq	16(%rax), %rdx
	movq	%rbp, (%rdx)
	movq	%rbp, 16(%rax)
	jmp	.L1858
	.p2align 4,,10
	.p2align 3
.L1859:
	lock addq	$1, 184(%rbx)
	leaq	48(%rbx), %r13
	movq	%r13, %rdi
	call	pthread_mutex_lock@PLT
	cmpq	$0, 200(%rbx)
	movq	$0, 0(%rbp)
	je	.L1864
	movq	200(%rbx), %rax
	movq	%rbp, (%rax)
	movq	%rbp, 200(%rbx)
.L1865:
	movq	136(%rbx), %rax
	orq	$1, %rax
	movq	%rax, 136(%rbx)
	cmpq	$1, %rax
	je	.L1866
	movq	%r13, %rdi
	call	pthread_mutex_unlock@PLT
	leaq	88(%rbx), %rdi
	call	pthread_cond_signal@PLT
	jmp	.L1858
	.p2align 4,,10
	.p2align 3
.L1973:
	movq	88(%rdi), %rbx
	jmp	.L1853
	.p2align 4,,10
	.p2align 3
.L1864:
	movq	%rbp, %xmm0
	punpcklqdq	%xmm0, %xmm0
	movups	%xmm0, 192(%rbx)
	jmp	.L1865
	.p2align 4,,10
	.p2align 3
.L1856:
	movq	%rbx, 88(%rdi)
	jmp	.L1857
	.p2align 4,,10
	.p2align 3
.L1866:
	cmpb	$0, 176(%rbx)
	jne	.L1868
	movq	144(%rbx), %rax
	testq	%rax, %rax
	je	.L1868
	movb	$1, 176(%rbx)
	leaq	88(%rax), %rdx
	movq	%r12, %rcx
	movl	$3, %esi
	movl	$-2147483639, 304(%rsp)
	movq	%rdx, 308(%rsp)
	movl	88(%rax), %edx
	movl	96(%rax), %edi
	call	epoll_ctl@PLT
.L1868:
	movq	%r13, %rdi
	call	pthread_mutex_unlock@PLT
	jmp	.L1858
	.p2align 4,,10
	.p2align 3
.L1975:
	movzbl	80(%rbp), %edx
	movb	%dl, 0(%rbp)
	movq	%rbp, (%rax)
	jmp	.L1819
	.p2align 4,,10
	.p2align 3
.L1835:
	movq	%rbp, %xmm0
	punpcklqdq	%xmm0, %xmm0
	movups	%xmm0, 88(%r13)
	jmp	.L1836
	.p2align 4,,10
	.p2align 3
.L1842:
	movq	%r13, %xmm0
	punpcklqdq	%xmm0, %xmm0
	movups	%xmm0, 192(%rbx)
	jmp	.L1843
	.p2align 4,,10
	.p2align 3
.L1972:
	movzbl	80(%rbp), %edx
	movb	%dl, 0(%rbp)
	movq	%rbp, (%rax)
	jmp	.L1850
	.p2align 4,,10
	.p2align 3
.L1971:
	movzbl	80(%rbp), %edx
	movb	%dl, 0(%rbp)
	movq	%rbp, (%rax)
	jmp	.L1847
	.p2align 4,,10
	.p2align 3
.L1841:
	movq	%r13, %xmm0
	punpcklqdq	%xmm0, %xmm0
	movups	%xmm0, 8(%rax)
	jmp	.L1819
.L1863:
	movq	%rbp, %xmm0
	punpcklqdq	%xmm0, %xmm0
	movups	%xmm0, 8(%rax)
	jmp	.L1858
.L1969:
	call	__stack_chk_fail@PLT
.L1879:
	endbr64
	movq	%rax, %rbp
	jmp	.L1874
.L1880:
	endbr64
	movq	%rax, %rbp
	jmp	.L1854
.L1878:
	endbr64
	movq	%rax, %rbp
	jmp	.L1855
	.section	.gcc_except_table
.LLSDA8852:
	.byte	0xff
	.byte	0xff
	.byte	0x1
	.uleb128 .LLSDACSE8852-.LLSDACSB8852
.LLSDACSB8852:
	.uleb128 .LEHB32-.LFB8852
	.uleb128 .LEHE32-.LEHB32
	.uleb128 .L1879-.LFB8852
	.uleb128 0
	.uleb128 .LEHB33-.LFB8852
	.uleb128 .LEHE33-.LEHB33
	.uleb128 .L1878-.LFB8852
	.uleb128 0
	.uleb128 .LEHB34-.LFB8852
	.uleb128 .LEHE34-.LEHB34
	.uleb128 .L1880-.LFB8852
	.uleb128 0
.LLSDACSE8852:
	.text
	.cfi_endproc
	.section	.text.unlikely
	.cfi_startproc
	.cfi_personality 0x9b,DW.ref.__gxx_personality_v0
	.cfi_lsda 0x1b,.LLSDAC8852
	.type	_ZN4asio6detail18descriptor_read_opINS_17mutable_buffers_1ENS0_15wrapped_handlerINS_10io_service6strandEZN7asiopal13SerialChannel13BeginReadImplEN7openpal6WSliceEEUlRKSt10error_codemE_NS0_26is_continuation_if_runningEEEE11do_completeEPNS0_15task_io_serviceEPNS0_25task_io_service_operationESC_m.cold, @function
_ZN4asio6detail18descriptor_read_opINS_17mutable_buffers_1ENS0_15wrapped_handlerINS_10io_service6strandEZN7asiopal13SerialChannel13BeginReadImplEN7openpal6WSliceEEUlRKSt10error_codemE_NS0_26is_continuation_if_runningEEEE11do_completeEPNS0_15task_io_serviceEPNS0_25task_io_service_operationESC_m.cold:
.LFSB8852:
.L1874:
	.cfi_def_cfa_offset 496
	.cfi_offset 3, -40
	.cfi_offset 6, -32
	.cfi_offset 12, -24
	.cfi_offset 13, -16
	sfence
	jmp	.L1855
.L1854:
	sfence
	leaq	128(%rsp), %rsi
	leaq	120(%rsp), %rdi
	call	_ZN4asio6detail18completion_handlerINS0_17rewrapped_handlerINS0_7binder2INS0_15wrapped_handlerINS_10io_service6strandEZN7asiopal13SerialChannel13BeginReadImplEN7openpal6WSliceEEUlRKSt10error_codemE_NS0_26is_continuation_if_runningEEESB_mEESE_EEE3ptr5resetEv.isra.0
	movq	%rsp, %rdi
	call	_ZN4asio6detail14strand_service16on_dispatch_exitD1Ev@PLT
	data16	leaq	_ZN4asio6detail15keyword_tss_ptrINS0_10call_stackINS0_14strand_service11strand_implEhE7contextEE6value_E@tlsgd(%rip), %rdi
	.value	0x6666
	rex64
	call	__tls_get_addr@PLT
	movq	96(%rsp), %rdx
	leaq	64(%rsp), %rsi
	leaq	56(%rsp), %rdi
	movq	%rdx, (%rax)
	call	_ZN4asio6detail18completion_handlerINS0_17rewrapped_handlerINS0_7binder2INS0_15wrapped_handlerINS_10io_service6strandEZN7asiopal13SerialChannel13BeginReadImplEN7openpal6WSliceEEUlRKSt10error_codemE_NS0_26is_continuation_if_runningEEESB_mEESE_EEE3ptr5resetEv.isra.0
.L1855:
	sfence
	leaq	24(%rsp), %rdi
	leaq	32(%rsp), %rsi
	call	_ZN4asio6detail18descriptor_read_opINS_17mutable_buffers_1ENS0_15wrapped_handlerINS_10io_service6strandEZN7asiopal13SerialChannel13BeginReadImplEN7openpal6WSliceEEUlRKSt10error_codemE_NS0_26is_continuation_if_runningEEEE3ptr5resetEv.isra.0
	movq	%rbp, %rdi
.LEHB35:
	call	_Unwind_Resume@PLT
.LEHE35:
	.cfi_endproc
.LFE8852:
	.section	.gcc_except_table
.LLSDAC8852:
	.byte	0xff
	.byte	0xff
	.byte	0x1
	.uleb128 .LLSDACSEC8852-.LLSDACSBC8852
.LLSDACSBC8852:
	.uleb128 .LEHB35-.LCOLDB33
	.uleb128 .LEHE35-.LEHB35
	.uleb128 0
	.uleb128 0
.LLSDACSEC8852:
	.section	.text.unlikely
	.text
	.size	_ZN4asio6detail18descriptor_read_opINS_17mutable_buffers_1ENS0_15wrapped_handlerINS_10io_service6strandEZN7asiopal13SerialChannel13BeginReadImplEN7openpal6WSliceEEUlRKSt10error_codemE_NS0_26is_continuation_if_runningEEEE11do_completeEPNS0_15task_io_serviceEPNS0_25task_io_service_operationESC_m, .-_ZN4asio6detail18descriptor_read_opINS_17mutable_buffers_1ENS0_15wrapped_handlerINS_10io_service6strandEZN7asiopal13SerialChannel13BeginReadImplEN7openpal6WSliceEEUlRKSt10error_codemE_NS0_26is_continuation_if_runningEEEE11do_completeEPNS0_15task_io_serviceEPNS0_25task_io_service_operationESC_m
	.section	.text.unlikely
	.size	_ZN4asio6detail18descriptor_read_opINS_17mutable_buffers_1ENS0_15wrapped_handlerINS_10io_service6strandEZN7asiopal13SerialChannel13BeginReadImplEN7openpal6WSliceEEUlRKSt10error_codemE_NS0_26is_continuation_if_runningEEEE11do_completeEPNS0_15task_io_serviceEPNS0_25task_io_service_operationESC_m.cold, .-_ZN4asio6detail18descriptor_read_opINS_17mutable_buffers_1ENS0_15wrapped_handlerINS_10io_service6strandEZN7asiopal13SerialChannel13BeginReadImplEN7openpal6WSliceEEUlRKSt10error_codemE_NS0_26is_continuation_if_runningEEEE11do_completeEPNS0_15task_io_serviceEPNS0_25task_io_service_operationESC_m.cold
.LCOLDE33:
	.text
.LHOTE33:
	.section	.text.unlikely
	.align 2
.LCOLDB34:
	.text
.LHOTB34:
	.align 2
	.p2align 4
	.type	_ZN4asio6detail8write_opINS_17basic_serial_portINS_19serial_port_serviceEEENS_15const_buffers_1ENS0_14transfer_all_tENS0_15wrapped_handlerINS_10io_service6strandEZN7asiopal13SerialChannel14BeginWriteImplERKN7openpal6RSliceEEUlRKSt10error_codemE_NS0_26is_continuation_if_runningEEEEclESI_mi, @function
_ZN4asio6detail8write_opINS_17basic_serial_portINS_19serial_port_serviceEEENS_15const_buffers_1ENS0_14transfer_all_tENS0_15wrapped_handlerINS_10io_service6strandEZN7asiopal13SerialChannel14BeginWriteImplERKN7openpal6RSliceEEUlRKSt10error_codemE_NS0_26is_continuation_if_runningEEEEclESI_mi:
.LFB8132:
	.cfi_startproc
	.cfi_personality 0x9b,DW.ref.__gxx_personality_v0
	.cfi_lsda 0x1b,.LLSDA8132
	pushq	%r15
	.cfi_def_cfa_offset 16
	.cfi_offset 15, -16
	pushq	%r14
	.cfi_def_cfa_offset 24
	.cfi_offset 14, -24
	movl	%ecx, %r14d
	pushq	%r13
	.cfi_def_cfa_offset 32
	.cfi_offset 13, -32
	pushq	%r12
	.cfi_def_cfa_offset 40
	.cfi_offset 12, -40
	pushq	%rbp
	.cfi_def_cfa_offset 48
	.cfi_offset 6, -48
	movq	%rdi, %rbp
	pushq	%rbx
	.cfi_def_cfa_offset 56
	.cfi_offset 3, -56
	subq	$264, %rsp
	.cfi_def_cfa_offset 320
	movq	32(%rdi), %r15
	movq	%fs:40, %rax
	movq	%rax, 248(%rsp)
	xorl	%eax, %eax
	movl	%ecx, 24(%rdi)
	cmpl	$1, %ecx
	je	.L2299
	addq	%rdx, %r15
	movl	(%rsi), %eax
	movq	%r15, 32(%rdi)
	testq	%rdx, %rdx
	je	.L2054
	testl	%eax, %eax
	je	.L2300
.L2054:
	movq	56(%rbp), %rcx
	movq	8(%rsi), %rdx
	movl	%eax, 184(%rsp)
	movq	%r15, 200(%rsp)
	movq	48(%rbp), %rbx
	movq	%rcx, 176(%rsp)
	movq	%rdx, 192(%rsp)
	data16	leaq	_ZN4asio6detail15keyword_tss_ptrINS0_10call_stackINS0_14strand_service11strand_implEhE7contextEE6value_E@tlsgd(%rip), %rdi
	.value	0x6666
	rex64
	call	__tls_get_addr@PLT
	movq	(%rax), %rax
	testq	%rax, %rax
	jne	.L2059
	jmp	.L2056
	.p2align 4,,10
	.p2align 3
.L2057:
	movq	16(%rax), %rax
	testq	%rax, %rax
	je	.L2056
.L2059:
	cmpq	(%rax), %rbx
	jne	.L2057
	cmpq	$0, 8(%rax)
	je	.L2056
	lfence
	movq	176(%rsp), %rax
	movq	200(%rsp), %rdx
	movq	40(%rax), %rdi
	movb	$0, 58(%rax)
	testq	%rdi, %rdi
	je	.L2062
	cmpb	$0, 56(%rax)
	je	.L2301
.L2062:
	sfence
.L1976:
	movq	248(%rsp), %rax
	xorq	%fs:40, %rax
	jne	.L2302
	addq	$264, %rsp
	.cfi_remember_state
	.cfi_def_cfa_offset 56
	popq	%rbx
	.cfi_def_cfa_offset 48
	popq	%rbp
	.cfi_def_cfa_offset 40
	popq	%r12
	.cfi_def_cfa_offset 32
	popq	%r13
	.cfi_def_cfa_offset 24
	popq	%r14
	.cfi_def_cfa_offset 16
	popq	%r15
	.cfi_def_cfa_offset 8
	ret
	.p2align 4,,10
	.p2align 3
.L2299:
	.cfi_restore_state
	movl	(%rsi), %edx
	xorl	%eax, %eax
	movq	16(%rdi), %rbx
	movq	(%rdi), %r12
	testl	%edx, %edx
	sete	%al
	salq	$16, %rax
	cmpq	%r15, %rbx
	jnb	.L2120
	movq	16(%r12), %rax
	movdqu	8(%rdi), %xmm5
	movq	%r12, 176(%rsp)
	xorl	%ebx, %ebx
	movdqu	40(%rdi), %xmm6
	movq	%r15, 208(%rsp)
	movq	%rax, 16(%rsp)
	movq	56(%rdi), %rax
	movl	$1, 200(%rsp)
	movq	%rax, 232(%rsp)
	movq	$0, (%rsp)
	movups	%xmm5, 184(%rsp)
	movups	%xmm6, 216(%rsp)
.L2118:
	data16	leaq	_ZN4asio6detail15keyword_tss_ptrINS0_10call_stackINS0_14strand_service11strand_implEhE7contextEE6value_E@tlsgd(%rip), %rdi
	.value	0x6666
	rex64
	call	__tls_get_addr@PLT
	movq	224(%rsp), %rbp
	movq	(%rax), %rax
	testq	%rax, %rax
	jne	.L1982
	jmp	.L2125
	.p2align 4,,10
	.p2align 3
.L1981:
	movq	16(%rax), %rax
	testq	%rax, %rax
	je	.L2125
.L1982:
	cmpq	(%rax), %rbp
	jne	.L1981
	cmpq	$0, 8(%rax)
	setne	%al
	setne	27(%rsp)
	movzbl	%al, %eax
	movl	%eax, 28(%rsp)
.L1980:
	pxor	%xmm0, %xmm0
	leaq	176(%rsp), %rax
	movq	%rax, 144(%rsp)
	movups	%xmm0, 152(%rsp)
	data16	leaq	_ZN4asio6detail15keyword_tss_ptrINS0_10call_stackINS0_15task_io_serviceENS0_27task_io_service_thread_infoEE7contextEE6value_E@tlsgd(%rip), %rdi
	.value	0x6666
	rex64
	call	__tls_get_addr@PLT
	movq	(%rax), %rax
	testq	%rax, %rax
	je	.L1983
	movq	8(%rax), %rax
	testq	%rax, %rax
	je	.L1983
	movq	(%rax), %rbp
	testq	%rbp, %rbp
	je	.L1983
	movq	$0, (%rax)
	movzbl	0(%rbp), %eax
	cmpb	$-113, %al
	jbe	.L1984
	movb	%al, 144(%rbp)
	movq	%r12, %rdx
	jmp	.L1985
	.p2align 4,,10
	.p2align 3
.L2120:
	movq	8(%rbp), %rcx
	subq	%r15, %rbx
	movdqu	8(%rbp), %xmm3
	movl	$1, 28(%rsp)
	movdqu	40(%rbp), %xmm4
	movb	$1, 27(%rsp)
	addq	%r15, %rcx
	cmpq	%rax, %rbx
	cmova	%rax, %rbx
	movq	16(%r12), %rax
	movq	%rcx, (%rsp)
	movq	%r12, 176(%rsp)
	movq	%rax, 16(%rsp)
	movq	56(%rbp), %rax
	movl	%r14d, 200(%rsp)
	movq	%r15, 208(%rsp)
	movq	%rax, 232(%rsp)
	movups	%xmm3, 184(%rsp)
	movups	%xmm4, 216(%rsp)
	testl	%r14d, %r14d
	je	.L1980
	jmp	.L2118
	.p2align 4,,10
	.p2align 3
.L1984:
	movq	%rbp, %rdi
	call	_ZdlPv@PLT
.L1983:
	movl	$145, %edi
.LEHB36:
	call	_Znwm@PLT
.LEHE36:
	movq	176(%rsp), %rdx
	movl	200(%rsp), %r14d
	movb	$-112, 144(%rax)
	movq	208(%rsp), %r15
	movq	%rax, %rbp
.L1985:
	leaq	_ZN4asio6detail19descriptor_write_opINS_15const_buffers_1ENS0_8write_opINS_17basic_serial_portINS_19serial_port_serviceEEES2_NS0_14transfer_all_tENS0_15wrapped_handlerINS_10io_service6strandEZN7asiopal13SerialChannel14BeginWriteImplERKN7openpal6RSliceEEUlRKSt10error_codemE_NS0_26is_continuation_if_runningEEEEEE11do_completeEPNS0_15task_io_serviceEPNS0_25task_io_service_operationESJ_m(%rip), %rax
	movl	(%r12), %r13d
	movq	%rdx, 8(%rsp)
	movq	%rbp, 152(%rsp)
	movq	$0, 0(%rbp)
	movq	%rax, 8(%rbp)
	movl	$0, 16(%rbp)
	movl	$0, 24(%rbp)
	call	_ZNSt3_V215system_categoryEv@PLT
	movq	8(%rsp), %rdx
	movl	%r13d, 56(%rbp)
	movdqu	184(%rsp), %xmm1
	movq	%rax, 32(%rbp)
	movq	%rax, %r8
	movq	_ZN4asio6detail24descriptor_write_op_baseINS_15const_buffers_1EE10do_performEPNS0_10reactor_opE@GOTPCREL(%rip), %rax
	movq	$0, 40(%rbp)
	movdqu	216(%rsp), %xmm2
	movq	%rbx, 72(%rbp)
	movq	%rax, 48(%rbp)
	movq	(%rsp), %rax
	movq	%rdx, 80(%rbp)
	movq	%rax, 64(%rbp)
	movq	232(%rsp), %rax
	movl	%r14d, 104(%rbp)
	movq	%r15, 112(%rbp)
	movq	%rax, 136(%rbp)
	movups	%xmm1, 88(%rbp)
	movups	%xmm2, 120(%rbp)
	movq	%rbp, 160(%rsp)
	testq	%rbx, %rbx
	je	.L1986
	testb	$3, 4(%r12)
	jne	.L1987
	cmpl	$-1, %r13d
	je	.L2303
	movq	%r8, (%rsp)
	call	__errno_location@PLT
	movl	%r13d, %edi
	leaq	112(%rsp), %rdx
	movl	$21537, %esi
	movl	$0, (%rax)
	movq	%rax, %rbx
	xorl	%eax, %eax
	movl	$1, 112(%rsp)
	call	ioctl@PLT
	movq	_ZGVZN4asio15system_categoryEvE8instance@GOTPCREL(%rip), %r13
	movl	%eax, %r14d
	movzbl	0(%r13), %eax
	testb	%al, %al
	movq	(%rsp), %r8
	je	.L1992
.L2273:
	movq	_ZZN4asio15system_categoryEvE8instance@GOTPCREL(%rip), %r15
.L1993:
	movl	(%rbx), %eax
	movq	%r15, 32(%rbp)
	movl	%eax, 24(%rbp)
	testl	%r14d, %r14d
	js	.L1986
	movl	$0, 24(%rbp)
	movl	(%r12), %r13d
	movq	%r8, 32(%rbp)
	orb	$2, 4(%r12)
.L1987:
	movq	16(%rsp), %rax
	movq	8(%r12), %r14
	movq	40(%rax), %rbx
	testq	%r14, %r14
	je	.L2304
	addq	$40, %r14
	movq	%r14, %rdi
	call	pthread_mutex_lock@PLT
	movq	8(%r12), %rax
	cmpb	$0, 144(%rax)
	jne	.L2305
	cmpq	$0, 112(%rax)
	je	.L2306
.L2025:
	movq	120(%rax), %rdx
	movq	$0, 0(%rbp)
	testq	%rdx, %rdx
	je	.L2039
	movq	%rbp, (%rdx)
	movq	%rbp, 120(%rax)
.L2040:
	movq	40(%rbx), %rax
	lock addq	$1, 184(%rax)
	movq	%r14, %rdi
	call	pthread_mutex_unlock@PLT
	jmp	.L1976
	.p2align 4,,10
	.p2align 3
.L2303:
	movq	_ZGVZN4asio15system_categoryEvE8instance@GOTPCREL(%rip), %r12
	movzbl	(%r12), %eax
	testb	%al, %al
	je	.L1989
.L2272:
	movq	_ZZN4asio15system_categoryEvE8instance@GOTPCREL(%rip), %r15
.L1990:
	movl	$9, 24(%rbp)
	movq	%r15, 32(%rbp)
	.p2align 4,,10
	.p2align 3
.L1986:
	movq	16(%rsp), %rax
	movq	40(%rax), %rax
	movq	40(%rax), %rbx
	cmpb	$0, 40(%rbx)
	jne	.L2132
	cmpb	$0, 27(%rsp)
	jne	.L2132
.L2042:
	lock addq	$1, 184(%rbx)
	leaq	48(%rbx), %r12
	movq	%r12, %rdi
	call	pthread_mutex_lock@PLT
	movq	$0, 0(%rbp)
	cmpq	$0, 200(%rbx)
	je	.L2048
	movq	200(%rbx), %rax
	movq	%rbp, (%rax)
	movq	%rbp, 200(%rbx)
.L2049:
	movq	136(%rbx), %rax
	orq	$1, %rax
	movq	%rax, 136(%rbx)
	cmpq	$1, %rax
	je	.L2050
.L2278:
	movq	%r12, %rdi
	call	pthread_mutex_unlock@PLT
	leaq	88(%rbx), %rdi
	call	pthread_cond_signal@PLT
	jmp	.L1976
	.p2align 4,,10
	.p2align 3
.L2132:
	data16	leaq	_ZN4asio6detail15keyword_tss_ptrINS0_10call_stackINS0_15task_io_serviceENS0_27task_io_service_thread_infoEE7contextEE6value_E@tlsgd(%rip), %rdi
	.value	0x6666
	rex64
	call	__tls_get_addr@PLT
	movq	(%rax), %rax
	testq	%rax, %rax
	jne	.L2046
	jmp	.L2042
	.p2align 4,,10
	.p2align 3
.L2044:
	movq	16(%rax), %rax
	testq	%rax, %rax
	je	.L2042
.L2046:
	cmpq	(%rax), %rbx
	jne	.L2044
.L2297:
	movq	8(%rax), %rax
	testq	%rax, %rax
	je	.L2042
.L2082:
	addq	$1, 24(%rax)
	movq	$0, 0(%rbp)
	cmpq	$0, 16(%rax)
	je	.L2084
	movq	16(%rax), %rdx
	movq	%rbp, (%rdx)
	movq	%rbp, 16(%rax)
	jmp	.L1976
	.p2align 4,,10
	.p2align 3
.L2300:
	movq	16(%rdi), %rbx
	cmpq	%rbx, %r15
	je	.L2054
	movq	(%rdi), %r12
	movl	$65536, %eax
	jbe	.L2120
	movq	16(%r12), %rax
	movdqu	8(%rbp), %xmm4
	movq	%r12, 176(%rsp)
	xorl	%ebx, %ebx
	movdqu	40(%rbp), %xmm5
	movq	%r15, 208(%rsp)
	movq	%rax, 16(%rsp)
	movq	56(%rbp), %rax
	movl	$0, 200(%rsp)
	movq	%rax, 232(%rsp)
	movq	$0, (%rsp)
	movl	$1, 28(%rsp)
	movb	$1, 27(%rsp)
	movups	%xmm4, 184(%rsp)
	movups	%xmm5, 216(%rsp)
	jmp	.L1980
	.p2align 4,,10
	.p2align 3
.L2301:
	movq	(%rdi), %rax
	leaq	184(%rsp), %rsi
.LEHB37:
	call	*24(%rax)
.LEHE37:
	jmp	.L2062
	.p2align 4,,10
	.p2align 3
.L2056:
	pxor	%xmm0, %xmm0
	leaq	176(%rsp), %rax
	movq	40(%rbp), %r13
	movq	%rax, 48(%rsp)
	movups	%xmm0, 56(%rsp)
	data16	leaq	_ZN4asio6detail15keyword_tss_ptrINS0_10call_stackINS0_15task_io_serviceENS0_27task_io_service_thread_infoEE7contextEE6value_E@tlsgd(%rip), %rdi
	.value	0x6666
	rex64
	call	__tls_get_addr@PLT
	movq	(%rax), %rax
	testq	%rax, %rax
	je	.L2063
	movq	8(%rax), %rax
	testq	%rax, %rax
	je	.L2063
	movq	(%rax), %r12
	testq	%r12, %r12
	je	.L2063
	movq	$0, (%rax)
	movzbl	(%r12), %eax
	cmpb	$55, %al
	jbe	.L2064
	movb	%al, 56(%r12)
	jmp	.L2065
	.p2align 4,,10
	.p2align 3
.L2050:
	cmpb	$0, 176(%rbx)
	jne	.L2089
	movq	144(%rbx), %rax
	testq	%rax, %rax
	je	.L2089
	movb	$1, 176(%rbx)
	leaq	88(%rax), %rdx
	leaq	112(%rsp), %rcx
	movl	$3, %esi
	movl	$-2147483639, 112(%rsp)
	movq	%rdx, 116(%rsp)
	movl	88(%rax), %edx
	movl	96(%rax), %edi
	call	epoll_ctl@PLT
.L2089:
	movq	%r12, %rdi
	call	pthread_mutex_unlock@PLT
	jmp	.L1976
	.p2align 4,,10
	.p2align 3
.L2125:
	movl	$0, 28(%rsp)
	movb	$0, 27(%rsp)
	jmp	.L1980
	.p2align 4,,10
	.p2align 3
.L2064:
	movq	%r12, %rdi
	call	_ZdlPv@PLT
.L2063:
	movl	$57, %edi
.LEHB38:
	call	_Znwm@PLT
.LEHE38:
	movb	$56, 56(%rax)
	movq	%rax, %r12
.L2065:
	leaq	_ZN4asio6detail18completion_handlerINS0_7binder2IZN7asiopal13SerialChannel14BeginWriteImplERKN7openpal6RSliceEEUlRKSt10error_codemE_S9_mEEE11do_completeEPNS0_15task_io_serviceEPNS0_25task_io_service_operationESB_m(%rip), %rax
	movq	%r12, 56(%rsp)
	movdqa	176(%rsp), %xmm7
	movq	$0, (%r12)
	movq	40(%r13), %rbx
	movq	%rax, 8(%r12)
	movl	$0, 16(%r12)
	movups	%xmm7, 24(%r12)
	movdqa	192(%rsp), %xmm7
	movq	%r12, 64(%rsp)
	movups	%xmm7, 40(%r12)
	data16	leaq	_ZN4asio6detail15keyword_tss_ptrINS0_10call_stackINS0_15task_io_serviceENS0_27task_io_service_thread_infoEE7contextEE6value_E@tlsgd(%rip), %rdi
	.value	0x6666
	rex64
	call	__tls_get_addr@PLT
	movq	(%rax), %rax
	testq	%rax, %rax
	jne	.L2070
	jmp	.L2066
	.p2align 4,,10
	.p2align 3
.L2067:
	movq	16(%rax), %rax
	testq	%rax, %rax
	je	.L2066
.L2070:
	cmpq	(%rax), %rbx
	jne	.L2067
	movq	8(%rax), %rbx
	movq	48(%rbp), %rax
	leaq	24(%rax), %rdi
	call	pthread_mutex_lock@PLT
	testq	%rbx, %rbx
	je	.L2069
	movq	48(%rbp), %rax
	cmpb	$0, 64(%rax)
	leaq	24(%rax), %rdi
	je	.L2307
.L2071:
	cmpq	$0, 80(%rax)
	movq	$0, (%r12)
	je	.L2075
	movq	80(%rax), %rdx
	movq	%r12, (%rdx)
	movq	%r12, 80(%rax)
.L2279:
	call	pthread_mutex_unlock@PLT
	jmp	.L1976
	.p2align 4,,10
	.p2align 3
.L2307:
	movb	$1, 64(%rax)
	call	pthread_mutex_unlock@PLT
	movq	48(%rbp), %rbp
	pxor	%xmm0, %xmm0
	movq	64(%rsp), %r12
	movups	%xmm0, 56(%rsp)
	movq	%rbp, 80(%rsp)
	data16	leaq	_ZN4asio6detail15keyword_tss_ptrINS0_10call_stackINS0_14strand_service11strand_implEhE7contextEE6value_E@tlsgd(%rip), %rdi
	.value	0x6666
	rex64
	call	__tls_get_addr@PLT
	movq	40(%r13), %rbx
	movq	%rbp, %xmm5
	movdqu	24(%r12), %xmm6
	leaq	144(%rsp), %r13
	movq	%r12, 120(%rsp)
	movaps	%xmm6, 144(%rsp)
	movq	%rbx, %xmm0
	movdqu	40(%r12), %xmm3
	punpcklqdq	%xmm5, %xmm0
	movq	%r13, 112(%rsp)
	movq	$0, 128(%rsp)
	movaps	%xmm0, 32(%rsp)
	movq	(%rax), %rdx
	movaps	%xmm3, 160(%rsp)
	movq	%rdx, 96(%rsp)
	leaq	80(%rsp), %rdx
	movq	%rdx, (%rax)
	movq	%rdx, 88(%rsp)
	data16	leaq	_ZN4asio6detail15keyword_tss_ptrINS0_10call_stackINS0_15task_io_serviceENS0_27task_io_service_thread_infoEE7contextEE6value_E@tlsgd(%rip), %rdi
	.value	0x6666
	rex64
	call	__tls_get_addr@PLT
	movq	(%rax), %rax
	testq	%rax, %rax
	je	.L2073
	movq	8(%rax), %rax
	testq	%rax, %rax
	je	.L2073
	cmpq	$0, (%rax)
	jne	.L2073
	movzbl	56(%r12), %edx
	movb	%dl, (%r12)
	movq	%r12, (%rax)
	jmp	.L2090
	.p2align 4,,10
	.p2align 3
.L2073:
	movq	%r12, %rdi
	call	_ZdlPv@PLT
.L2090:
	movq	$0, 120(%rsp)
	testq	%rbx, %rbx
	je	.L2091
	movq	144(%rsp), %rax
	movq	168(%rsp), %rdx
	movq	40(%rax), %rdi
	movb	$0, 58(%rax)
	testq	%rdi, %rdi
	je	.L2095
	cmpb	$0, 56(%rax)
	jne	.L2095
	movq	(%rdi), %rax
	leaq	152(%rsp), %rsi
.LEHB39:
	call	*24(%rax)
.LEHE39:
.L2095:
	sfence
	cmpq	$0, 128(%rsp)
	je	.L2308
	movq	$0, 128(%rsp)
	movq	120(%rsp), %rbp
.L2096:
	testq	%rbp, %rbp
	je	.L2091
	data16	leaq	_ZN4asio6detail15keyword_tss_ptrINS0_10call_stackINS0_15task_io_serviceENS0_27task_io_service_thread_infoEE7contextEE6value_E@tlsgd(%rip), %rdi
	.value	0x6666
	rex64
	call	__tls_get_addr@PLT
	movq	(%rax), %rax
	testq	%rax, %rax
	je	.L2097
	movq	8(%rax), %rax
	testq	%rax, %rax
	je	.L2097
	cmpq	$0, (%rax)
	je	.L2309
.L2097:
	movq	%rbp, %rdi
	call	_ZdlPv@PLT
.L2091:
	movq	40(%rsp), %rax
	leaq	24(%rax), %rdi
	call	pthread_mutex_lock@PLT
	movq	40(%rsp), %rdi
	movq	72(%rdi), %rbx
	testq	%rbx, %rbx
	je	.L2310
	movq	96(%rdi), %rax
	testq	%rax, %rax
	je	.L2101
	movq	%rbx, (%rax)
	movq	88(%rdi), %rbx
.L2102:
	movq	80(%rdi), %rax
	pxor	%xmm0, %xmm0
	movups	%xmm0, 72(%rdi)
	movq	%rax, 96(%rdi)
.L2099:
	testq	%rbx, %rbx
	setne	64(%rdi)
	addq	$24, %rdi
	call	pthread_mutex_unlock@PLT
	testq	%rbx, %rbx
	jne	.L2311
.L2103:
	data16	leaq	_ZN4asio6detail15keyword_tss_ptrINS0_10call_stackINS0_14strand_service11strand_implEhE7contextEE6value_E@tlsgd(%rip), %rdi
	.value	0x6666
	rex64
	call	__tls_get_addr@PLT
	movq	96(%rsp), %rdx
	cmpq	$0, 64(%rsp)
	movq	56(%rsp), %rbp
	movq	%rdx, (%rax)
	je	.L2114
	movq	$0, 64(%rsp)
.L2114:
	testq	%rbp, %rbp
	je	.L1976
	data16	leaq	_ZN4asio6detail15keyword_tss_ptrINS0_10call_stackINS0_15task_io_serviceENS0_27task_io_service_thread_infoEE7contextEE6value_E@tlsgd(%rip), %rdi
	.value	0x6666
	rex64
	call	__tls_get_addr@PLT
	movq	(%rax), %rax
	testq	%rax, %rax
	je	.L2116
	movq	8(%rax), %rax
	testq	%rax, %rax
	je	.L2116
	cmpq	$0, (%rax)
	je	.L2312
.L2116:
	movq	%rbp, %rdi
	call	_ZdlPv@PLT
	jmp	.L1976
	.p2align 4,,10
	.p2align 3
.L1992:
	movq	%r13, %rdi
	movq	%r8, (%rsp)
	call	__cxa_guard_acquire@PLT
	movq	(%rsp), %r8
	testl	%eax, %eax
	je	.L2273
	movq	_ZZN4asio15system_categoryEvE8instance@GOTPCREL(%rip), %r15
	movq	_ZN4asio6detail15system_categoryD1Ev@GOTPCREL(%rip), %rdi
	leaq	__dso_handle(%rip), %rdx
	movq	%r8, (%rsp)
	movq	%r15, %rsi
	call	__cxa_atexit@PLT
	movq	%r13, %rdi
	call	__cxa_guard_release@PLT
	movq	(%rsp), %r8
	jmp	.L1993
	.p2align 4,,10
	.p2align 3
.L2048:
	movq	%rbp, %xmm0
	punpcklqdq	%xmm0, %xmm0
	movups	%xmm0, 192(%rbx)
	jmp	.L2049
	.p2align 4,,10
	.p2align 3
.L2308:
	movq	120(%rsp), %rbp
	jmp	.L2096
	.p2align 4,,10
	.p2align 3
.L2101:
	movq	%rbx, 88(%rdi)
	jmp	.L2102
	.p2align 4,,10
	.p2align 3
.L2066:
	movq	48(%rbp), %rax
	leaq	24(%rax), %rdi
	call	pthread_mutex_lock@PLT
.L2069:
	movq	48(%rbp), %rax
	cmpb	$0, 64(%rax)
	leaq	24(%rax), %rdi
	jne	.L2071
	movb	$1, 64(%rax)
	call	pthread_mutex_unlock@PLT
	movq	48(%rbp), %rbp
	movq	$0, (%r12)
	cmpq	$0, 96(%rbp)
	je	.L2078
	movq	96(%rbp), %rax
	movq	%r12, (%rax)
	movq	%r12, 96(%rbp)
.L2079:
	movq	40(%r13), %rbx
	cmpb	$0, 40(%rbx)
	je	.L2080
	data16	leaq	_ZN4asio6detail15keyword_tss_ptrINS0_10call_stackINS0_15task_io_serviceENS0_27task_io_service_thread_infoEE7contextEE6value_E@tlsgd(%rip), %rdi
	.value	0x6666
	rex64
	call	__tls_get_addr@PLT
	movq	(%rax), %rax
	testq	%rax, %rax
	jne	.L2083
	jmp	.L2080
	.p2align 4,,10
	.p2align 3
.L2081:
	movq	16(%rax), %rax
	testq	%rax, %rax
	je	.L2080
.L2083:
	cmpq	(%rax), %rbx
	jne	.L2081
	movq	8(%rax), %rax
	testq	%rax, %rax
	jne	.L2082
	.p2align 4,,10
	.p2align 3
.L2080:
	lock addq	$1, 184(%rbx)
	leaq	48(%rbx), %r12
	movq	%r12, %rdi
	call	pthread_mutex_lock@PLT
	cmpq	$0, 200(%rbx)
	movq	$0, 0(%rbp)
	je	.L2085
	movq	200(%rbx), %rax
	movq	%rbp, (%rax)
	movq	%rbp, 200(%rbx)
.L2086:
	movq	136(%rbx), %rax
	orq	$1, %rax
	movq	%rax, 136(%rbx)
	cmpq	$1, %rax
	jne	.L2278
	cmpb	$0, 176(%rbx)
	jne	.L2089
	movq	144(%rbx), %rax
	testq	%rax, %rax
	je	.L2089
	movb	$1, 176(%rbx)
	leaq	88(%rax), %rdx
	movl	$3, %esi
	leaq	144(%rsp), %rcx
	movl	$-2147483639, 144(%rsp)
	movq	%rdx, 148(%rsp)
	movl	88(%rax), %edx
	movl	96(%rax), %edi
	call	epoll_ctl@PLT
	jmp	.L2089
	.p2align 4,,10
	.p2align 3
.L2084:
	movq	%rbp, %xmm0
	punpcklqdq	%xmm0, %xmm0
	movups	%xmm0, 8(%rax)
	jmp	.L1976
	.p2align 4,,10
	.p2align 3
.L2039:
	movq	%rbp, %xmm0
	punpcklqdq	%xmm0, %xmm0
	movups	%xmm0, 112(%rax)
	jmp	.L2040
	.p2align 4,,10
	.p2align 3
.L2304:
	movq	_ZGVZN4asio15system_categoryEvE8instance@GOTPCREL(%rip), %r12
	movzbl	(%r12), %eax
	testb	%al, %al
	je	.L1997
.L2274:
	movq	_ZZN4asio15system_categoryEvE8instance@GOTPCREL(%rip), %r15
.L1998:
	movq	40(%rbx), %rbx
	movl	$9, 24(%rbp)
	movq	%r15, 32(%rbp)
	cmpb	$0, 40(%rbx)
	jne	.L2129
	cmpb	$0, 27(%rsp)
	je	.L2042
.L2129:
	data16	leaq	_ZN4asio6detail15keyword_tss_ptrINS0_10call_stackINS0_15task_io_serviceENS0_27task_io_service_thread_infoEE7contextEE6value_E@tlsgd(%rip), %rdi
	.value	0x6666
	rex64
	call	__tls_get_addr@PLT
	movq	(%rax), %rax
	testq	%rax, %rax
	jne	.L2004
	jmp	.L2042
	.p2align 4,,10
	.p2align 3
.L2002:
	movq	16(%rax), %rax
	testq	%rax, %rax
	je	.L2042
.L2004:
	cmpq	(%rax), %rbx
	jne	.L2002
	jmp	.L2297
	.p2align 4,,10
	.p2align 3
.L2305:
	movq	40(%rbx), %rbx
	cmpb	$0, 40(%rbx)
	jne	.L2130
	cmpb	$0, 27(%rsp)
	je	.L2013
.L2130:
	data16	leaq	_ZN4asio6detail15keyword_tss_ptrINS0_10call_stackINS0_15task_io_serviceENS0_27task_io_service_thread_infoEE7contextEE6value_E@tlsgd(%rip), %rdi
	.value	0x6666
	rex64
	call	__tls_get_addr@PLT
	movq	(%rax), %rax
	testq	%rax, %rax
	jne	.L2017
	jmp	.L2013
	.p2align 4,,10
	.p2align 3
.L2015:
	movq	16(%rax), %rax
	testq	%rax, %rax
	je	.L2013
.L2017:
	cmpq	(%rax), %rbx
	jne	.L2015
	movq	8(%rax), %rax
	testq	%rax, %rax
	je	.L2013
	addq	$1, 24(%rax)
	cmpq	$0, 16(%rax)
	movq	$0, 0(%rbp)
	je	.L2018
	movq	16(%rax), %rdx
	movq	%rbp, (%rdx)
	movq	%rbp, 16(%rax)
.L2019:
	movq	%r14, %rdi
	jmp	.L2279
	.p2align 4,,10
	.p2align 3
.L2075:
	movq	%r12, %xmm0
	punpcklqdq	%xmm0, %xmm0
	movups	%xmm0, 72(%rax)
	jmp	.L2279
	.p2align 4,,10
	.p2align 3
.L2311:
	movq	32(%rsp), %rbx
	movq	40(%rsp), %rbp
	cmpb	$0, 40(%rbx)
	je	.L2104
	data16	leaq	_ZN4asio6detail15keyword_tss_ptrINS0_10call_stackINS0_15task_io_serviceENS0_27task_io_service_thread_infoEE7contextEE6value_E@tlsgd(%rip), %rdi
	.value	0x6666
	rex64
	call	__tls_get_addr@PLT
	movq	(%rax), %rax
	testq	%rax, %rax
	jne	.L2107
	jmp	.L2104
	.p2align 4,,10
	.p2align 3
.L2105:
	movq	16(%rax), %rax
	testq	%rax, %rax
	je	.L2104
.L2107:
	cmpq	(%rax), %rbx
	jne	.L2105
	movq	8(%rax), %rax
	testq	%rax, %rax
	je	.L2104
	addq	$1, 24(%rax)
	cmpq	$0, 16(%rax)
	movq	$0, 0(%rbp)
	je	.L2108
	movq	16(%rax), %rdx
	movq	%rbp, (%rdx)
	movq	%rbp, 16(%rax)
	jmp	.L2103
	.p2align 4,,10
	.p2align 3
.L2310:
	movq	88(%rdi), %rbx
	jmp	.L2099
	.p2align 4,,10
	.p2align 3
.L2104:
	lock addq	$1, 184(%rbx)
	leaq	48(%rbx), %r12
	movq	%r12, %rdi
	call	pthread_mutex_lock@PLT
	cmpq	$0, 200(%rbx)
	movq	$0, 0(%rbp)
	je	.L2109
	movq	200(%rbx), %rax
	movq	%rbp, (%rax)
	movq	%rbp, 200(%rbx)
.L2110:
	movq	136(%rbx), %rax
	orq	$1, %rax
	movq	%rax, 136(%rbx)
	cmpq	$1, %rax
	je	.L2111
	movq	%r12, %rdi
	call	pthread_mutex_unlock@PLT
	leaq	88(%rbx), %rdi
	call	pthread_cond_signal@PLT
	jmp	.L2103
	.p2align 4,,10
	.p2align 3
.L2013:
	lock addq	$1, 184(%rbx)
	leaq	48(%rbx), %r12
	movq	%r12, %rdi
	call	pthread_mutex_lock@PLT
	cmpq	$0, 200(%rbx)
	movq	$0, 0(%rbp)
	je	.L2020
	movq	200(%rbx), %rax
	movq	%rbp, (%rax)
	movq	%rbp, 200(%rbx)
.L2021:
	movq	136(%rbx), %rax
	orq	$1, %rax
	movq	%rax, 136(%rbx)
	cmpq	$1, %rax
	je	.L2022
	movq	%r12, %rdi
	call	pthread_mutex_unlock@PLT
	leaq	88(%rbx), %rdi
	call	pthread_cond_signal@PLT
	jmp	.L2019
	.p2align 4,,10
	.p2align 3
.L2306:
	movq	%rbp, %rdi
.LEHB40:
	call	*48(%rbp)
.LEHE40:
	testb	%al, %al
	jne	.L2313
	movq	8(%r12), %rax
	movl	92(%rax), %edx
	testb	$4, %dl
	jne	.L2025
	orl	$4, %edx
	movq	%rax, 116(%rsp)
	leaq	112(%rsp), %rcx
	movl	$3, %esi
	movl	%edx, 112(%rsp)
	movl	96(%rbx), %edi
	movl	%r13d, %edx
	call	epoll_ctl@PLT
	testl	%eax, %eax
	jne	.L2038
	movq	8(%r12), %rax
	movl	112(%rsp), %edx
	orl	%edx, 92(%rax)
	movq	8(%r12), %rax
	jmp	.L2025
.L2111:
	cmpb	$0, 176(%rbx)
	jne	.L2113
	movq	144(%rbx), %rax
	testq	%rax, %rax
	je	.L2113
	movb	$1, 176(%rbx)
	leaq	88(%rax), %rdx
	movq	%r13, %rcx
	movl	$3, %esi
	movl	$-2147483639, 144(%rsp)
	movq	%rdx, 148(%rsp)
	movl	88(%rax), %edx
	movl	96(%rax), %edi
	call	epoll_ctl@PLT
.L2113:
	movq	%r12, %rdi
	call	pthread_mutex_unlock@PLT
	jmp	.L2103
	.p2align 4,,10
	.p2align 3
.L2312:
	movzbl	56(%rbp), %edx
	movb	%dl, 0(%rbp)
	movq	%rbp, (%rax)
	jmp	.L1976
	.p2align 4,,10
	.p2align 3
.L2078:
	movq	%r12, %xmm0
	punpcklqdq	%xmm0, %xmm0
	movups	%xmm0, 88(%rbp)
	jmp	.L2079
.L2022:
	cmpb	$0, 176(%rbx)
	jne	.L2024
	movq	144(%rbx), %rax
	testq	%rax, %rax
	je	.L2024
	movb	$1, 176(%rbx)
	leaq	88(%rax), %rdx
	leaq	112(%rsp), %rcx
	movl	$3, %esi
	movl	$-2147483639, 112(%rsp)
	movq	%rdx, 116(%rsp)
	movl	88(%rax), %edx
	movl	96(%rax), %edi
	call	epoll_ctl@PLT
.L2024:
	movq	%r12, %rdi
	call	pthread_mutex_unlock@PLT
	jmp	.L2019
	.p2align 4,,10
	.p2align 3
.L1997:
	movq	%r12, %rdi
	call	__cxa_guard_acquire@PLT
	testl	%eax, %eax
	je	.L2274
	movq	_ZZN4asio15system_categoryEvE8instance@GOTPCREL(%rip), %r15
	movq	_ZN4asio6detail15system_categoryD1Ev@GOTPCREL(%rip), %rdi
	leaq	__dso_handle(%rip), %rdx
	movq	%r15, %rsi
	call	__cxa_atexit@PLT
	movq	%r12, %rdi
	call	__cxa_guard_release@PLT
	jmp	.L1998
	.p2align 4,,10
	.p2align 3
.L2085:
	movq	%rbp, %xmm0
	punpcklqdq	%xmm0, %xmm0
	movups	%xmm0, 192(%rbx)
	jmp	.L2086
.L1989:
	movq	%r12, %rdi
	call	__cxa_guard_acquire@PLT
	testl	%eax, %eax
	je	.L2272
	movq	_ZZN4asio15system_categoryEvE8instance@GOTPCREL(%rip), %r15
	movq	_ZN4asio6detail15system_categoryD1Ev@GOTPCREL(%rip), %rdi
	leaq	__dso_handle(%rip), %rdx
	movq	%r15, %rsi
	call	__cxa_atexit@PLT
	movq	%r12, %rdi
	call	__cxa_guard_release@PLT
	jmp	.L1990
.L2309:
	movzbl	56(%rbp), %edx
	movb	%dl, 0(%rbp)
	movq	%rbp, (%rax)
	jmp	.L2091
.L2109:
	movq	%rbp, %xmm0
	punpcklqdq	%xmm0, %xmm0
	movups	%xmm0, 192(%rbx)
	jmp	.L2110
.L2020:
	movq	%rbp, %xmm0
	punpcklqdq	%xmm0, %xmm0
	movups	%xmm0, 192(%rbx)
	jmp	.L2021
.L2018:
	movq	%rbp, %xmm0
	punpcklqdq	%xmm0, %xmm0
	movups	%xmm0, 8(%rax)
	jmp	.L2019
.L2313:
	movq	%r14, %rdi
	call	pthread_mutex_unlock@PLT
	movq	40(%rbx), %rbx
	cmpb	$0, 40(%rbx)
	jne	.L2131
	cmpb	$0, 27(%rsp)
	je	.L2042
.L2131:
	data16	leaq	_ZN4asio6detail15keyword_tss_ptrINS0_10call_stackINS0_15task_io_serviceENS0_27task_io_service_thread_infoEE7contextEE6value_E@tlsgd(%rip), %rdi
	.value	0x6666
	rex64
	call	__tls_get_addr@PLT
	movq	(%rax), %rax
	testq	%rax, %rax
	jne	.L2031
	jmp	.L2042
	.p2align 4,,10
	.p2align 3
.L2029:
	movq	16(%rax), %rax
	testq	%rax, %rax
	je	.L2042
.L2031:
	cmpq	(%rax), %rbx
	jne	.L2029
	jmp	.L2297
.L2108:
	movq	%rbp, %xmm0
	punpcklqdq	%xmm0, %xmm0
	movups	%xmm0, 8(%rax)
	jmp	.L2103
.L2038:
	call	_ZN4asio15system_categoryEv@PLT
	movq	%rax, %r12
	call	__errno_location@PLT
	movq	40(%rbx), %rdi
	movl	28(%rsp), %edx
	movq	%rbp, %rsi
	movl	(%rax), %eax
	movq	%r12, 32(%rbp)
	movl	%eax, 24(%rbp)
	call	_ZN4asio6detail15task_io_service25post_immediate_completionEPNS0_25task_io_service_operationEb@PLT
	jmp	.L2019
.L2302:
	call	__stack_chk_fail@PLT
.L2126:
	endbr64
	movq	%rax, %rbp
	jmp	.L2041
.L2128:
	endbr64
	movq	%rax, %rbp
	jmp	.L2100
.L2127:
	endbr64
	movq	%rax, %rdi
	jmp	.L2117
	.section	.gcc_except_table
.LLSDA8132:
	.byte	0xff
	.byte	0xff
	.byte	0x1
	.uleb128 .LLSDACSE8132-.LLSDACSB8132
.LLSDACSB8132:
	.uleb128 .LEHB36-.LFB8132
	.uleb128 .LEHE36-.LEHB36
	.uleb128 0
	.uleb128 0
	.uleb128 .LEHB37-.LFB8132
	.uleb128 .LEHE37-.LEHB37
	.uleb128 .L2127-.LFB8132
	.uleb128 0
	.uleb128 .LEHB38-.LFB8132
	.uleb128 .LEHE38-.LEHB38
	.uleb128 0
	.uleb128 0
	.uleb128 .LEHB39-.LFB8132
	.uleb128 .LEHE39-.LEHB39
	.uleb128 .L2128-.LFB8132
	.uleb128 0
	.uleb128 .LEHB40-.LFB8132
	.uleb128 .LEHE40-.LEHB40
	.uleb128 .L2126-.LFB8132
	.uleb128 0
.LLSDACSE8132:
	.text
	.cfi_endproc
	.section	.text.unlikely
	.cfi_startproc
	.cfi_personality 0x9b,DW.ref.__gxx_personality_v0
	.cfi_lsda 0x1b,.LLSDAC8132
	.type	_ZN4asio6detail8write_opINS_17basic_serial_portINS_19serial_port_serviceEEENS_15const_buffers_1ENS0_14transfer_all_tENS0_15wrapped_handlerINS_10io_service6strandEZN7asiopal13SerialChannel14BeginWriteImplERKN7openpal6RSliceEEUlRKSt10error_codemE_NS0_26is_continuation_if_runningEEEEclESI_mi.cold, @function
_ZN4asio6detail8write_opINS_17basic_serial_portINS_19serial_port_serviceEEENS_15const_buffers_1ENS0_14transfer_all_tENS0_15wrapped_handlerINS_10io_service6strandEZN7asiopal13SerialChannel14BeginWriteImplERKN7openpal6RSliceEEUlRKSt10error_codemE_NS0_26is_continuation_if_runningEEEEclESI_mi.cold:
.LFSB8132:
.L2041:
	.cfi_def_cfa_offset 320
	.cfi_offset 3, -56
	.cfi_offset 6, -48
	.cfi_offset 12, -40
	.cfi_offset 13, -32
	.cfi_offset 14, -24
	.cfi_offset 15, -16
	movq	%r14, %rdi
	call	pthread_mutex_unlock@PLT
	leaq	152(%rsp), %rdi
	leaq	160(%rsp), %rsi
	call	_ZN4asio6detail19descriptor_write_opINS_15const_buffers_1ENS0_8write_opINS_17basic_serial_portINS_19serial_port_serviceEEES2_NS0_14transfer_all_tENS0_15wrapped_handlerINS_10io_service6strandEZN7asiopal13SerialChannel14BeginWriteImplERKN7openpal6RSliceEEUlRKSt10error_codemE_NS0_26is_continuation_if_runningEEEEEE3ptr5resetEv.isra.0
	movq	%rbp, %rdi
.LEHB41:
	call	_Unwind_Resume@PLT
.L2100:
	sfence
	leaq	128(%rsp), %rsi
	leaq	120(%rsp), %rdi
	call	_ZN4asio6detail18completion_handlerINS0_7binder2IZN7asiopal13SerialChannel14BeginWriteImplERKN7openpal6RSliceEEUlRKSt10error_codemE_S9_mEEE3ptr5resetEv.isra.0
	leaq	32(%rsp), %rdi
	call	_ZN4asio6detail14strand_service16on_dispatch_exitD1Ev@PLT
	data16	leaq	_ZN4asio6detail15keyword_tss_ptrINS0_10call_stackINS0_14strand_service11strand_implEhE7contextEE6value_E@tlsgd(%rip), %rdi
	.value	0x6666
	rex64
	call	__tls_get_addr@PLT
	movq	96(%rsp), %rdx
	leaq	56(%rsp), %rdi
	leaq	64(%rsp), %rsi
	movq	%rdx, (%rax)
	call	_ZN4asio6detail18completion_handlerINS0_7binder2IZN7asiopal13SerialChannel14BeginWriteImplERKN7openpal6RSliceEEUlRKSt10error_codemE_S9_mEEE3ptr5resetEv.isra.0
	movq	%rbp, %rdi
	call	_Unwind_Resume@PLT
.L2117:
	sfence
	call	_Unwind_Resume@PLT
.LEHE41:
	.cfi_endproc
.LFE8132:
	.section	.gcc_except_table
.LLSDAC8132:
	.byte	0xff
	.byte	0xff
	.byte	0x1
	.uleb128 .LLSDACSEC8132-.LLSDACSBC8132
.LLSDACSBC8132:
	.uleb128 .LEHB41-.LCOLDB34
	.uleb128 .LEHE41-.LEHB41
	.uleb128 0
	.uleb128 0
.LLSDACSEC8132:
	.section	.text.unlikely
	.text
	.size	_ZN4asio6detail8write_opINS_17basic_serial_portINS_19serial_port_serviceEEENS_15const_buffers_1ENS0_14transfer_all_tENS0_15wrapped_handlerINS_10io_service6strandEZN7asiopal13SerialChannel14BeginWriteImplERKN7openpal6RSliceEEUlRKSt10error_codemE_NS0_26is_continuation_if_runningEEEEclESI_mi, .-_ZN4asio6detail8write_opINS_17basic_serial_portINS_19serial_port_serviceEEENS_15const_buffers_1ENS0_14transfer_all_tENS0_15wrapped_handlerINS_10io_service6strandEZN7asiopal13SerialChannel14BeginWriteImplERKN7openpal6RSliceEEUlRKSt10error_codemE_NS0_26is_continuation_if_runningEEEEclESI_mi
	.section	.text.unlikely
	.size	_ZN4asio6detail8write_opINS_17basic_serial_portINS_19serial_port_serviceEEENS_15const_buffers_1ENS0_14transfer_all_tENS0_15wrapped_handlerINS_10io_service6strandEZN7asiopal13SerialChannel14BeginWriteImplERKN7openpal6RSliceEEUlRKSt10error_codemE_NS0_26is_continuation_if_runningEEEEclESI_mi.cold, .-_ZN4asio6detail8write_opINS_17basic_serial_portINS_19serial_port_serviceEEENS_15const_buffers_1ENS0_14transfer_all_tENS0_15wrapped_handlerINS_10io_service6strandEZN7asiopal13SerialChannel14BeginWriteImplERKN7openpal6RSliceEEUlRKSt10error_codemE_NS0_26is_continuation_if_runningEEEEclESI_mi.cold
.LCOLDE34:
	.text
.LHOTE34:
	.section	.text.unlikely
.LCOLDB35:
	.text
.LHOTB35:
	.p2align 4
	.type	_ZN4asio6detail18completion_handlerINS0_17rewrapped_handlerINS0_7binder2INS0_8write_opINS_17basic_serial_portINS_19serial_port_serviceEEENS_15const_buffers_1ENS0_14transfer_all_tENS0_15wrapped_handlerINS_10io_service6strandEZN7asiopal13SerialChannel14BeginWriteImplERKN7openpal6RSliceEEUlRKSt10error_codemE_NS0_26is_continuation_if_runningEEEEESJ_mEESM_EEE11do_completeEPNS0_15task_io_serviceEPNS0_25task_io_service_operationESL_m, @function
_ZN4asio6detail18completion_handlerINS0_17rewrapped_handlerINS0_7binder2INS0_8write_opINS_17basic_serial_portINS_19serial_port_serviceEEENS_15const_buffers_1ENS0_14transfer_all_tENS0_15wrapped_handlerINS_10io_service6strandEZN7asiopal13SerialChannel14BeginWriteImplERKN7openpal6RSliceEEUlRKSt10error_codemE_NS0_26is_continuation_if_runningEEEEESJ_mEESM_EEE11do_completeEPNS0_15task_io_serviceEPNS0_25task_io_service_operationESL_m:
.LFB9200:
	.cfi_startproc
	.cfi_personality 0x9b,DW.ref.__gxx_personality_v0
	.cfi_lsda 0x1b,.LLSDA9200
	endbr64
	pushq	%rbp
	.cfi_def_cfa_offset 16
	.cfi_offset 6, -16
	movq	%rsi, %rbp
	pushq	%rbx
	.cfi_def_cfa_offset 24
	.cfi_offset 3, -24
	movq	%rdi, %rbx
	subq	$152, %rsp
	.cfi_def_cfa_offset 176
	movdqu	40(%rsi), %xmm0
	movdqu	72(%rsi), %xmm1
	movq	%fs:40, %rax
	movq	%rax, 136(%rsp)
	xorl	%eax, %eax
	movq	24(%rsi), %rax
	movdqu	96(%rsi), %xmm2
	movq	%rsi, 8(%rsp)
	movq	$0, 16(%rsp)
	movq	%rax, 32(%rsp)
	movq	32(%rsi), %rax
	movaps	%xmm0, 48(%rsp)
	movq	%rax, 40(%rsp)
	movl	56(%rsi), %eax
	movaps	%xmm1, 80(%rsp)
	movl	%eax, 64(%rsp)
	movq	64(%rsi), %rax
	movups	%xmm2, 104(%rsp)
	movq	%rax, 72(%rsp)
	movq	88(%rsi), %rax
	movq	%rax, 96(%rsp)
	movq	112(%rsi), %rax
	movq	%rax, 120(%rsp)
	leaq	32(%rsp), %rax
	movq	%rax, (%rsp)
	data16	leaq	_ZN4asio6detail15keyword_tss_ptrINS0_10call_stackINS0_15task_io_serviceENS0_27task_io_service_thread_infoEE7contextEE6value_E@tlsgd(%rip), %rdi
	.value	0x6666
	rex64
	call	__tls_get_addr@PLT
	movq	(%rax), %rax
	testq	%rax, %rax
	je	.L2315
	movq	8(%rax), %rax
	testq	%rax, %rax
	je	.L2315
	cmpq	$0, (%rax)
	je	.L2343
.L2315:
	movq	%rbp, %rdi
	call	_ZdlPv@PLT
.L2316:
	movq	$0, 8(%rsp)
	testq	%rbx, %rbx
	je	.L2314
	movq	120(%rsp), %rdx
	leaq	104(%rsp), %rsi
	leaq	40(%rsp), %rdi
	xorl	%ecx, %ecx
.LEHB42:
	call	_ZN4asio6detail8write_opINS_17basic_serial_portINS_19serial_port_serviceEEENS_15const_buffers_1ENS0_14transfer_all_tENS0_15wrapped_handlerINS_10io_service6strandEZN7asiopal13SerialChannel14BeginWriteImplERKN7openpal6RSliceEEUlRKSt10error_codemE_NS0_26is_continuation_if_runningEEEEclESI_mi
.LEHE42:
	sfence
	cmpq	$0, 16(%rsp)
	movq	8(%rsp), %rbp
	je	.L2318
	movq	$0, 16(%rsp)
.L2318:
	testq	%rbp, %rbp
	je	.L2314
	data16	leaq	_ZN4asio6detail15keyword_tss_ptrINS0_10call_stackINS0_15task_io_serviceENS0_27task_io_service_thread_infoEE7contextEE6value_E@tlsgd(%rip), %rdi
	.value	0x6666
	rex64
	call	__tls_get_addr@PLT
	movq	(%rax), %rax
	testq	%rax, %rax
	je	.L2320
	movq	8(%rax), %rax
	testq	%rax, %rax
	je	.L2320
	cmpq	$0, (%rax)
	je	.L2344
.L2320:
	movq	%rbp, %rdi
	call	_ZdlPv@PLT
.L2314:
	movq	136(%rsp), %rax
	xorq	%fs:40, %rax
	jne	.L2345
	addq	$152, %rsp
	.cfi_remember_state
	.cfi_def_cfa_offset 24
	popq	%rbx
	.cfi_def_cfa_offset 16
	popq	%rbp
	.cfi_def_cfa_offset 8
	ret
	.p2align 4,,10
	.p2align 3
.L2343:
	.cfi_restore_state
	movzbl	120(%rbp), %edx
	movb	%dl, 0(%rbp)
	movq	%rbp, (%rax)
	jmp	.L2316
	.p2align 4,,10
	.p2align 3
.L2344:
	movzbl	120(%rbp), %edx
	movb	%dl, 0(%rbp)
	movq	%rbp, (%rax)
	jmp	.L2314
.L2345:
	call	__stack_chk_fail@PLT
.L2323:
	endbr64
	movq	%rax, %rbp
	jmp	.L2321
	.section	.gcc_except_table
.LLSDA9200:
	.byte	0xff
	.byte	0xff
	.byte	0x1
	.uleb128 .LLSDACSE9200-.LLSDACSB9200
.LLSDACSB9200:
	.uleb128 .LEHB42-.LFB9200
	.uleb128 .LEHE42-.LEHB42
	.uleb128 .L2323-.LFB9200
	.uleb128 0
.LLSDACSE9200:
	.text
	.cfi_endproc
	.section	.text.unlikely
	.cfi_startproc
	.cfi_personality 0x9b,DW.ref.__gxx_personality_v0
	.cfi_lsda 0x1b,.LLSDAC9200
	.type	_ZN4asio6detail18completion_handlerINS0_17rewrapped_handlerINS0_7binder2INS0_8write_opINS_17basic_serial_portINS_19serial_port_serviceEEENS_15const_buffers_1ENS0_14transfer_all_tENS0_15wrapped_handlerINS_10io_service6strandEZN7asiopal13SerialChannel14BeginWriteImplERKN7openpal6RSliceEEUlRKSt10error_codemE_NS0_26is_continuation_if_runningEEEEESJ_mEESM_EEE11do_completeEPNS0_15task_io_serviceEPNS0_25task_io_service_operationESL_m.cold, @function
_ZN4asio6detail18completion_handlerINS0_17rewrapped_handlerINS0_7binder2INS0_8write_opINS_17basic_serial_portINS_19serial_port_serviceEEENS_15const_buffers_1ENS0_14transfer_all_tENS0_15wrapped_handlerINS_10io_service6strandEZN7asiopal13SerialChannel14BeginWriteImplERKN7openpal6RSliceEEUlRKSt10error_codemE_NS0_26is_continuation_if_runningEEEEESJ_mEESM_EEE11do_completeEPNS0_15task_io_serviceEPNS0_25task_io_service_operationESL_m.cold:
.LFSB9200:
.L2321:
	.cfi_def_cfa_offset 176
	.cfi_offset 3, -24
	.cfi_offset 6, -16
	sfence
	leaq	8(%rsp), %rdi
	leaq	16(%rsp), %rsi
	call	_ZN4asio6detail18completion_handlerINS0_17rewrapped_handlerINS0_7binder2INS0_8write_opINS_17basic_serial_portINS_19serial_port_serviceEEENS_15const_buffers_1ENS0_14transfer_all_tENS0_15wrapped_handlerINS_10io_service6strandEZN7asiopal13SerialChannel14BeginWriteImplERKN7openpal6RSliceEEUlRKSt10error_codemE_NS0_26is_continuation_if_runningEEEEESJ_mEESM_EEE3ptr5resetEv.isra.0
	movq	%rbp, %rdi
.LEHB43:
	call	_Unwind_Resume@PLT
.LEHE43:
	.cfi_endproc
.LFE9200:
	.section	.gcc_except_table
.LLSDAC9200:
	.byte	0xff
	.byte	0xff
	.byte	0x1
	.uleb128 .LLSDACSEC9200-.LLSDACSBC9200
.LLSDACSBC9200:
	.uleb128 .LEHB43-.LCOLDB35
	.uleb128 .LEHE43-.LEHB43
	.uleb128 0
	.uleb128 0
.LLSDACSEC9200:
	.section	.text.unlikely
	.text
	.size	_ZN4asio6detail18completion_handlerINS0_17rewrapped_handlerINS0_7binder2INS0_8write_opINS_17basic_serial_portINS_19serial_port_serviceEEENS_15const_buffers_1ENS0_14transfer_all_tENS0_15wrapped_handlerINS_10io_service6strandEZN7asiopal13SerialChannel14BeginWriteImplERKN7openpal6RSliceEEUlRKSt10error_codemE_NS0_26is_continuation_if_runningEEEEESJ_mEESM_EEE11do_completeEPNS0_15task_io_serviceEPNS0_25task_io_service_operationESL_m, .-_ZN4asio6detail18completion_handlerINS0_17rewrapped_handlerINS0_7binder2INS0_8write_opINS_17basic_serial_portINS_19serial_port_serviceEEENS_15const_buffers_1ENS0_14transfer_all_tENS0_15wrapped_handlerINS_10io_service6strandEZN7asiopal13SerialChannel14BeginWriteImplERKN7openpal6RSliceEEUlRKSt10error_codemE_NS0_26is_continuation_if_runningEEEEESJ_mEESM_EEE11do_completeEPNS0_15task_io_serviceEPNS0_25task_io_service_operationESL_m
	.section	.text.unlikely
	.size	_ZN4asio6detail18completion_handlerINS0_17rewrapped_handlerINS0_7binder2INS0_8write_opINS_17basic_serial_portINS_19serial_port_serviceEEENS_15const_buffers_1ENS0_14transfer_all_tENS0_15wrapped_handlerINS_10io_service6strandEZN7asiopal13SerialChannel14BeginWriteImplERKN7openpal6RSliceEEUlRKSt10error_codemE_NS0_26is_continuation_if_runningEEEEESJ_mEESM_EEE11do_completeEPNS0_15task_io_serviceEPNS0_25task_io_service_operationESL_m.cold, .-_ZN4asio6detail18completion_handlerINS0_17rewrapped_handlerINS0_7binder2INS0_8write_opINS_17basic_serial_portINS_19serial_port_serviceEEENS_15const_buffers_1ENS0_14transfer_all_tENS0_15wrapped_handlerINS_10io_service6strandEZN7asiopal13SerialChannel14BeginWriteImplERKN7openpal6RSliceEEUlRKSt10error_codemE_NS0_26is_continuation_if_runningEEEEESJ_mEESM_EEE11do_completeEPNS0_15task_io_serviceEPNS0_25task_io_service_operationESL_m.cold
.LCOLDE35:
	.text
.LHOTE35:
	.section	.text.unlikely
.LCOLDB36:
	.text
.LHOTB36:
	.p2align 4
	.type	_ZN4asio6detail19descriptor_write_opINS_15const_buffers_1ENS0_8write_opINS_17basic_serial_portINS_19serial_port_serviceEEES2_NS0_14transfer_all_tENS0_15wrapped_handlerINS_10io_service6strandEZN7asiopal13SerialChannel14BeginWriteImplERKN7openpal6RSliceEEUlRKSt10error_codemE_NS0_26is_continuation_if_runningEEEEEE11do_completeEPNS0_15task_io_serviceEPNS0_25task_io_service_operationESJ_m, @function
_ZN4asio6detail19descriptor_write_opINS_15const_buffers_1ENS0_8write_opINS_17basic_serial_portINS_19serial_port_serviceEEES2_NS0_14transfer_all_tENS0_15wrapped_handlerINS_10io_service6strandEZN7asiopal13SerialChannel14BeginWriteImplERKN7openpal6RSliceEEUlRKSt10error_codemE_NS0_26is_continuation_if_runningEEEEEE11do_completeEPNS0_15task_io_serviceEPNS0_25task_io_service_operationESJ_m:
.LFB9073:
	.cfi_startproc
	.cfi_personality 0x9b,DW.ref.__gxx_personality_v0
	.cfi_lsda 0x1b,.LLSDA9073
	endbr64
	pushq	%r13
	.cfi_def_cfa_offset 16
	.cfi_offset 13, -16
	pushq	%r12
	.cfi_def_cfa_offset 24
	.cfi_offset 12, -24
	pushq	%rbp
	.cfi_def_cfa_offset 32
	.cfi_offset 6, -32
	movq	%rsi, %rbp
	pushq	%rbx
	.cfi_def_cfa_offset 40
	.cfi_offset 3, -40
	movq	%rdi, %rbx
	subq	$552, %rsp
	.cfi_def_cfa_offset 592
	movq	80(%rsi), %rcx
	movl	24(%rsi), %edx
	movq	%fs:40, %rax
	movq	%rax, 536(%rsp)
	xorl	%eax, %eax
	movq	32(%rsi), %rax
	movdqu	88(%rsi), %xmm4
	movq	%rsi, 24(%rsp)
	movq	%rcx, 144(%rsp)
	movl	104(%rsi), %ecx
	movq	%rax, 216(%rsp)
	movq	40(%rsi), %rax
	movl	%ecx, 168(%rsp)
	movq	112(%rsi), %rcx
	movdqu	120(%rsi), %xmm5
	movl	%edx, 208(%rsp)
	movq	%rcx, 176(%rsp)
	movq	136(%rsi), %rcx
	movq	%rax, 224(%rsp)
	leaq	144(%rsp), %rax
	movq	%rcx, 200(%rsp)
	movq	%rax, 16(%rsp)
	movq	$0, 32(%rsp)
	movups	%xmm4, 152(%rsp)
	movups	%xmm5, 184(%rsp)
	data16	leaq	_ZN4asio6detail15keyword_tss_ptrINS0_10call_stackINS0_15task_io_serviceENS0_27task_io_service_thread_infoEE7contextEE6value_E@tlsgd(%rip), %rdi
	.value	0x6666
	rex64
	call	__tls_get_addr@PLT
	movq	(%rax), %rax
	testq	%rax, %rax
	je	.L2347
	movq	8(%rax), %rax
	testq	%rax, %rax
	je	.L2347
	cmpq	$0, (%rax)
	je	.L2502
.L2347:
	movq	%rbp, %rdi
	call	_ZdlPv@PLT
.L2348:
	movq	$0, 24(%rsp)
	testq	%rbx, %rbx
	je	.L2346
	movq	200(%rsp), %rax
	movl	168(%rsp), %edx
	movq	144(%rsp), %rbx
	movdqu	152(%rsp), %xmm2
	movdqu	184(%rsp), %xmm1
	movq	%rax, 304(%rsp)
	movq	%rax, %xmm3
	movdqa	208(%rsp), %xmm0
	movl	%edx, 464(%rsp)
	movq	%rbx, %xmm6
	movq	%rax, 496(%rsp)
	movq	176(%rsp), %rdx
	punpcklqdq	%xmm6, %xmm3
	movq	224(%rsp), %rax
	movaps	%xmm2, 256(%rsp)
	movq	192(%rsp), %rbp
	movq	%rdx, 472(%rsp)
	movq	%rax, 520(%rsp)
	movaps	%xmm1, 288(%rsp)
	movups	%xmm0, 312(%rsp)
	movaps	%xmm3, 432(%rsp)
	movaps	%xmm2, 448(%rsp)
	movaps	%xmm1, 480(%rsp)
	movups	%xmm0, 504(%rsp)
	data16	leaq	_ZN4asio6detail15keyword_tss_ptrINS0_10call_stackINS0_14strand_service11strand_implEhE7contextEE6value_E@tlsgd(%rip), %rdi
	.value	0x6666
	rex64
	call	__tls_get_addr@PLT
	movq	(%rax), %rax
	testq	%rax, %rax
	jne	.L2353
	jmp	.L2350
	.p2align 4,,10
	.p2align 3
.L2351:
	movq	16(%rax), %rax
	testq	%rax, %rax
	je	.L2350
.L2353:
	cmpq	(%rax), %rbp
	jne	.L2351
	cmpq	$0, 8(%rax)
	je	.L2350
	lfence
	movq	520(%rsp), %rdx
	leaq	504(%rsp), %rsi
	xorl	%ecx, %ecx
	leaq	440(%rsp), %rdi
.LEHB44:
	call	_ZN4asio6detail8write_opINS_17basic_serial_portINS_19serial_port_serviceEEENS_15const_buffers_1ENS0_14transfer_all_tENS0_15wrapped_handlerINS_10io_service6strandEZN7asiopal13SerialChannel14BeginWriteImplERKN7openpal6RSliceEEUlRKSt10error_codemE_NS0_26is_continuation_if_runningEEEEclESI_mi
.LEHE44:
	sfence
.L2354:
	sfence
	cmpq	$0, 32(%rsp)
	movq	24(%rsp), %rbp
	je	.L2408
	movq	$0, 32(%rsp)
.L2408:
	testq	%rbp, %rbp
	je	.L2346
	data16	leaq	_ZN4asio6detail15keyword_tss_ptrINS0_10call_stackINS0_15task_io_serviceENS0_27task_io_service_thread_infoEE7contextEE6value_E@tlsgd(%rip), %rdi
	.value	0x6666
	rex64
	call	__tls_get_addr@PLT
	movq	(%rax), %rax
	testq	%rax, %rax
	je	.L2411
	movq	8(%rax), %rax
	testq	%rax, %rax
	je	.L2411
	cmpq	$0, (%rax)
	je	.L2503
.L2411:
	movq	%rbp, %rdi
	call	_ZdlPv@PLT
.L2346:
	movq	536(%rsp), %rax
	xorq	%fs:40, %rax
	jne	.L2504
	addq	$552, %rsp
	.cfi_remember_state
	.cfi_def_cfa_offset 40
	popq	%rbx
	.cfi_def_cfa_offset 32
	popq	%rbp
	.cfi_def_cfa_offset 24
	popq	%r12
	.cfi_def_cfa_offset 16
	popq	%r13
	.cfi_def_cfa_offset 8
	ret
	.p2align 4,,10
	.p2align 3
.L2350:
	.cfi_restore_state
	pxor	%xmm0, %xmm0
	leaq	432(%rsp), %rax
	movq	184(%rsp), %r12
	movq	%rax, 48(%rsp)
	movups	%xmm0, 56(%rsp)
	data16	leaq	_ZN4asio6detail15keyword_tss_ptrINS0_10call_stackINS0_15task_io_serviceENS0_27task_io_service_thread_infoEE7contextEE6value_E@tlsgd(%rip), %rdi
	.value	0x6666
	rex64
	call	__tls_get_addr@PLT
	movq	(%rax), %rax
	testq	%rax, %rax
	je	.L2355
	movq	8(%rax), %rax
	testq	%rax, %rax
	je	.L2355
	movq	(%rax), %rbp
	testq	%rbp, %rbp
	je	.L2355
	movq	$0, (%rax)
	movzbl	0(%rbp), %eax
	cmpb	$119, %al
	jbe	.L2356
	movb	%al, 120(%rbp)
	jmp	.L2357
	.p2align 4,,10
	.p2align 3
.L2356:
	movq	%rbp, %rdi
	call	_ZdlPv@PLT
.L2355:
	movl	$121, %edi
.LEHB45:
	call	_Znwm@PLT
.LEHE45:
	movb	$120, 120(%rax)
	movq	440(%rsp), %rbx
	movq	%rax, %rbp
.L2357:
	leaq	_ZN4asio6detail18completion_handlerINS0_17rewrapped_handlerINS0_7binder2INS0_8write_opINS_17basic_serial_portINS_19serial_port_serviceEEENS_15const_buffers_1ENS0_14transfer_all_tENS0_15wrapped_handlerINS_10io_service6strandEZN7asiopal13SerialChannel14BeginWriteImplERKN7openpal6RSliceEEUlRKSt10error_codemE_NS0_26is_continuation_if_runningEEEEESJ_mEESM_EEE11do_completeEPNS0_15task_io_serviceEPNS0_25task_io_service_operationESL_m(%rip), %rax
	movq	%rbp, 56(%rsp)
	movdqa	448(%rsp), %xmm7
	movq	%rax, 8(%rbp)
	movq	432(%rsp), %rax
	movups	%xmm7, 40(%rbp)
	movdqa	480(%rsp), %xmm7
	movq	%rax, 24(%rbp)
	movl	464(%rsp), %eax
	movq	$0, 0(%rbp)
	movl	%eax, 56(%rbp)
	movq	472(%rsp), %rax
	movdqu	504(%rsp), %xmm6
	movl	$0, 16(%rbp)
	movq	%rax, 64(%rbp)
	movq	496(%rsp), %rax
	movq	%rbx, 32(%rbp)
	movq	40(%r12), %rbx
	movq	%rax, 88(%rbp)
	movq	520(%rsp), %rax
	movups	%xmm7, 72(%rbp)
	movq	%rax, 112(%rbp)
	movups	%xmm6, 96(%rbp)
	movq	%rbp, 64(%rsp)
	data16	leaq	_ZN4asio6detail15keyword_tss_ptrINS0_10call_stackINS0_15task_io_serviceENS0_27task_io_service_thread_infoEE7contextEE6value_E@tlsgd(%rip), %rdi
	.value	0x6666
	rex64
	call	__tls_get_addr@PLT
	movq	(%rax), %rax
	testq	%rax, %rax
	jne	.L2362
	jmp	.L2358
	.p2align 4,,10
	.p2align 3
.L2359:
	movq	16(%rax), %rax
	testq	%rax, %rax
	je	.L2358
.L2362:
	cmpq	(%rax), %rbx
	jne	.L2359
	movq	8(%rax), %rbx
	movq	192(%rsp), %rax
	leaq	24(%rax), %rdi
	call	pthread_mutex_lock@PLT
	testq	%rbx, %rbx
	je	.L2361
	movq	192(%rsp), %rax
	cmpb	$0, 64(%rax)
	leaq	24(%rax), %rdi
	je	.L2505
.L2363:
	cmpq	$0, 80(%rax)
	movq	$0, 0(%rbp)
	je	.L2367
	movq	80(%rax), %rdx
	movq	%rbp, (%rdx)
	movq	%rbp, 80(%rax)
.L2501:
	call	pthread_mutex_unlock@PLT
	jmp	.L2354
	.p2align 4,,10
	.p2align 3
.L2505:
	movb	$1, 64(%rax)
	call	pthread_mutex_unlock@PLT
	pxor	%xmm0, %xmm0
	movq	64(%rsp), %rbp
	movq	192(%rsp), %r13
	movups	%xmm0, 56(%rsp)
	movq	%r13, 80(%rsp)
	data16	leaq	_ZN4asio6detail15keyword_tss_ptrINS0_10call_stackINS0_14strand_service11strand_implEhE7contextEE6value_E@tlsgd(%rip), %rdi
	.value	0x6666
	rex64
	call	__tls_get_addr@PLT
	movq	40(%r12), %rbx
	movdqu	40(%rbp), %xmm4
	movq	%r13, %xmm7
	movdqu	72(%rbp), %xmm5
	movdqu	96(%rbp), %xmm1
	movq	%rbp, 120(%rsp)
	leaq	336(%rsp), %r12
	movq	%rbx, %xmm0
	movq	%r12, 112(%rsp)
	movq	$0, 128(%rsp)
	punpcklqdq	%xmm7, %xmm0
	movaps	%xmm0, (%rsp)
	movq	(%rax), %rdx
	movq	%rdx, 96(%rsp)
	leaq	80(%rsp), %rdx
	movq	%rdx, (%rax)
	movq	24(%rbp), %rax
	movq	%rdx, 88(%rsp)
	movq	%rax, 336(%rsp)
	movq	32(%rbp), %rax
	movaps	%xmm4, 352(%rsp)
	movq	%rax, 344(%rsp)
	movl	56(%rbp), %eax
	movl	%eax, 368(%rsp)
	movq	64(%rbp), %rax
	movaps	%xmm5, 384(%rsp)
	movq	%rax, 376(%rsp)
	movq	88(%rbp), %rax
	movups	%xmm1, 408(%rsp)
	movq	%rax, 400(%rsp)
	movq	112(%rbp), %rax
	movq	%rax, 424(%rsp)
	data16	leaq	_ZN4asio6detail15keyword_tss_ptrINS0_10call_stackINS0_15task_io_serviceENS0_27task_io_service_thread_infoEE7contextEE6value_E@tlsgd(%rip), %rdi
	.value	0x6666
	rex64
	call	__tls_get_addr@PLT
	movq	(%rax), %rax
	testq	%rax, %rax
	je	.L2365
	movq	8(%rax), %rax
	testq	%rax, %rax
	je	.L2365
	cmpq	$0, (%rax)
	je	.L2506
.L2365:
	movq	%rbp, %rdi
	call	_ZdlPv@PLT
.L2382:
	movq	$0, 120(%rsp)
	testq	%rbx, %rbx
	je	.L2385
	movq	424(%rsp), %rdx
	leaq	408(%rsp), %rsi
	leaq	344(%rsp), %rdi
	xorl	%ecx, %ecx
.LEHB46:
	call	_ZN4asio6detail8write_opINS_17basic_serial_portINS_19serial_port_serviceEEENS_15const_buffers_1ENS0_14transfer_all_tENS0_15wrapped_handlerINS_10io_service6strandEZN7asiopal13SerialChannel14BeginWriteImplERKN7openpal6RSliceEEUlRKSt10error_codemE_NS0_26is_continuation_if_runningEEEEclESI_mi
.LEHE46:
	sfence
	movq	120(%rsp), %rbp
	cmpq	$0, 128(%rsp)
	je	.L2384
	movq	$0, 128(%rsp)
.L2384:
	testq	%rbp, %rbp
	je	.L2385
	data16	leaq	_ZN4asio6detail15keyword_tss_ptrINS0_10call_stackINS0_15task_io_serviceENS0_27task_io_service_thread_infoEE7contextEE6value_E@tlsgd(%rip), %rdi
	.value	0x6666
	rex64
	call	__tls_get_addr@PLT
	movq	(%rax), %rax
	testq	%rax, %rax
	je	.L2386
	movq	8(%rax), %rax
	testq	%rax, %rax
	je	.L2386
	cmpq	$0, (%rax)
	je	.L2507
.L2386:
	movq	%rbp, %rdi
	call	_ZdlPv@PLT
.L2385:
	movq	8(%rsp), %rax
	leaq	24(%rax), %rdi
	call	pthread_mutex_lock@PLT
	movq	8(%rsp), %rdi
	movq	72(%rdi), %rbx
	testq	%rbx, %rbx
	je	.L2508
	movq	96(%rdi), %rax
	testq	%rax, %rax
	je	.L2391
	movq	%rbx, (%rax)
	movq	88(%rdi), %rbx
.L2392:
	movq	80(%rdi), %rax
	pxor	%xmm0, %xmm0
	movups	%xmm0, 72(%rdi)
	movq	%rax, 96(%rdi)
.L2388:
	testq	%rbx, %rbx
	setne	64(%rdi)
	addq	$24, %rdi
	call	pthread_mutex_unlock@PLT
	testq	%rbx, %rbx
	jne	.L2509
.L2393:
	data16	leaq	_ZN4asio6detail15keyword_tss_ptrINS0_10call_stackINS0_14strand_service11strand_implEhE7contextEE6value_E@tlsgd(%rip), %rdi
	.value	0x6666
	rex64
	call	__tls_get_addr@PLT
	movq	96(%rsp), %rdx
	cmpq	$0, 64(%rsp)
	movq	56(%rsp), %rbp
	movq	%rdx, (%rax)
	je	.L2404
	movq	$0, 64(%rsp)
.L2404:
	testq	%rbp, %rbp
	je	.L2354
	data16	leaq	_ZN4asio6detail15keyword_tss_ptrINS0_10call_stackINS0_15task_io_serviceENS0_27task_io_service_thread_infoEE7contextEE6value_E@tlsgd(%rip), %rdi
	.value	0x6666
	rex64
	call	__tls_get_addr@PLT
	movq	(%rax), %rax
	testq	%rax, %rax
	je	.L2406
	movq	8(%rax), %rax
	testq	%rax, %rax
	je	.L2406
	cmpq	$0, (%rax)
	je	.L2510
.L2406:
	movq	%rbp, %rdi
	call	_ZdlPv@PLT
	jmp	.L2354
	.p2align 4,,10
	.p2align 3
.L2502:
	movzbl	144(%rbp), %edx
	movb	%dl, 0(%rbp)
	movq	%rbp, (%rax)
	jmp	.L2348
	.p2align 4,,10
	.p2align 3
.L2367:
	movq	%rbp, %xmm0
	punpcklqdq	%xmm0, %xmm0
	movups	%xmm0, 72(%rax)
	jmp	.L2501
	.p2align 4,,10
	.p2align 3
.L2358:
	movq	192(%rsp), %rax
	leaq	24(%rax), %rdi
	call	pthread_mutex_lock@PLT
.L2361:
	movq	192(%rsp), %rax
	cmpb	$0, 64(%rax)
	leaq	24(%rax), %rdi
	jne	.L2363
	movb	$1, 64(%rax)
	call	pthread_mutex_unlock@PLT
	movq	192(%rsp), %r13
	movq	$0, 0(%rbp)
	cmpq	$0, 96(%r13)
	je	.L2370
	movq	96(%r13), %rax
	movq	%rbp, (%rax)
	movq	%rbp, 96(%r13)
.L2371:
	movq	40(%r12), %rbx
	cmpb	$0, 40(%rbx)
	je	.L2372
	data16	leaq	_ZN4asio6detail15keyword_tss_ptrINS0_10call_stackINS0_15task_io_serviceENS0_27task_io_service_thread_infoEE7contextEE6value_E@tlsgd(%rip), %rdi
	.value	0x6666
	rex64
	call	__tls_get_addr@PLT
	movq	(%rax), %rax
	testq	%rax, %rax
	jne	.L2375
	jmp	.L2372
	.p2align 4,,10
	.p2align 3
.L2373:
	movq	16(%rax), %rax
	testq	%rax, %rax
	je	.L2372
.L2375:
	cmpq	(%rax), %rbx
	jne	.L2373
	movq	8(%rax), %rax
	testq	%rax, %rax
	je	.L2372
	addq	$1, 24(%rax)
	cmpq	$0, 16(%rax)
	movq	$0, 0(%r13)
	je	.L2376
	movq	16(%rax), %rdx
	movq	%r13, (%rdx)
	movq	%r13, 16(%rax)
	jmp	.L2354
	.p2align 4,,10
	.p2align 3
.L2372:
	lock addq	$1, 184(%rbx)
	leaq	48(%rbx), %rbp
	movq	%rbp, %rdi
	call	pthread_mutex_lock@PLT
	cmpq	$0, 200(%rbx)
	movq	$0, 0(%r13)
	je	.L2377
	movq	200(%rbx), %rax
	movq	%r13, (%rax)
	movq	%r13, 200(%rbx)
.L2378:
	movq	136(%rbx), %rax
	orq	$1, %rax
	movq	%rax, 136(%rbx)
	cmpq	$1, %rax
	je	.L2379
	movq	%rbp, %rdi
	call	pthread_mutex_unlock@PLT
	leaq	88(%rbx), %rdi
	call	pthread_cond_signal@PLT
	jmp	.L2354
	.p2align 4,,10
	.p2align 3
.L2379:
	cmpb	$0, 176(%rbx)
	jne	.L2381
	movq	144(%rbx), %rax
	testq	%rax, %rax
	je	.L2381
	movb	$1, 176(%rbx)
	leaq	88(%rax), %rdx
	movl	$3, %esi
	leaq	336(%rsp), %rcx
	movl	$-2147483639, 336(%rsp)
	movq	%rdx, 340(%rsp)
	movl	88(%rax), %edx
	movl	96(%rax), %edi
	call	epoll_ctl@PLT
.L2381:
	movq	%rbp, %rdi
	jmp	.L2501
	.p2align 4,,10
	.p2align 3
.L2503:
	movzbl	144(%rbp), %edx
	movb	%dl, 0(%rbp)
	movq	%rbp, (%rax)
	jmp	.L2346
	.p2align 4,,10
	.p2align 3
.L2509:
	movq	(%rsp), %rbx
	movq	8(%rsp), %rbp
	cmpb	$0, 40(%rbx)
	je	.L2394
	data16	leaq	_ZN4asio6detail15keyword_tss_ptrINS0_10call_stackINS0_15task_io_serviceENS0_27task_io_service_thread_infoEE7contextEE6value_E@tlsgd(%rip), %rdi
	.value	0x6666
	rex64
	call	__tls_get_addr@PLT
	movq	(%rax), %rax
	testq	%rax, %rax
	jne	.L2397
	jmp	.L2394
	.p2align 4,,10
	.p2align 3
.L2395:
	movq	16(%rax), %rax
	testq	%rax, %rax
	je	.L2394
.L2397:
	cmpq	(%rax), %rbx
	jne	.L2395
	movq	8(%rax), %rax
	testq	%rax, %rax
	je	.L2394
	addq	$1, 24(%rax)
	cmpq	$0, 16(%rax)
	movq	$0, 0(%rbp)
	je	.L2398
	movq	16(%rax), %rdx
	movq	%rbp, (%rdx)
	movq	%rbp, 16(%rax)
	jmp	.L2393
	.p2align 4,,10
	.p2align 3
.L2394:
	lock addq	$1, 184(%rbx)
	leaq	48(%rbx), %r13
	movq	%r13, %rdi
	call	pthread_mutex_lock@PLT
	cmpq	$0, 200(%rbx)
	movq	$0, 0(%rbp)
	je	.L2399
