	.file	"SocketChannel.cpp"
	.text
	.section	.rodata._ZNK4asio6detail15system_category4nameEv.str1.1,"aMS",@progbits,1
.LC0:
	.string	"asio.system"
	.section	.text._ZNK4asio6detail15system_category4nameEv,"axG",@progbits,_ZNK4asio6detail15system_category4nameEv,comdat
	.align 2
	.p2align 4
	.weak	_ZNK4asio6detail15system_category4nameEv
	.type	_ZNK4asio6detail15system_category4nameEv, @function
_ZNK4asio6detail15system_category4nameEv:
.LFB2350:
	.cfi_startproc
	endbr64
	leaq	.LC0(%rip), %rax
	ret
	.cfi_endproc
.LFE2350:
	.size	_ZNK4asio6detail15system_category4nameEv, .-_ZNK4asio6detail15system_category4nameEv
	.section	.rodata._ZNK4asio5error6detail14netdb_category4nameEv.str1.1,"aMS",@progbits,1
.LC1:
	.string	"asio.netdb"
	.section	.text._ZNK4asio5error6detail14netdb_category4nameEv,"axG",@progbits,_ZNK4asio5error6detail14netdb_category4nameEv,comdat
	.align 2
	.p2align 4
	.weak	_ZNK4asio5error6detail14netdb_category4nameEv
	.type	_ZNK4asio5error6detail14netdb_category4nameEv, @function
_ZNK4asio5error6detail14netdb_category4nameEv:
.LFB2390:
	.cfi_startproc
	endbr64
	leaq	.LC1(%rip), %rax
	ret
	.cfi_endproc
.LFE2390:
	.size	_ZNK4asio5error6detail14netdb_category4nameEv, .-_ZNK4asio5error6detail14netdb_category4nameEv
	.section	.rodata._ZNK4asio5error6detail17addrinfo_category4nameEv.str1.1,"aMS",@progbits,1
.LC2:
	.string	"asio.addrinfo"
	.section	.text._ZNK4asio5error6detail17addrinfo_category4nameEv,"axG",@progbits,_ZNK4asio5error6detail17addrinfo_category4nameEv,comdat
	.align 2
	.p2align 4
	.weak	_ZNK4asio5error6detail17addrinfo_category4nameEv
	.type	_ZNK4asio5error6detail17addrinfo_category4nameEv, @function
_ZNK4asio5error6detail17addrinfo_category4nameEv:
.LFB2396:
	.cfi_startproc
	endbr64
	leaq	.LC2(%rip), %rax
	ret
	.cfi_endproc
.LFE2396:
	.size	_ZNK4asio5error6detail17addrinfo_category4nameEv, .-_ZNK4asio5error6detail17addrinfo_category4nameEv
	.section	.rodata._ZNK4asio5error6detail13misc_category4nameEv.str1.1,"aMS",@progbits,1
.LC3:
	.string	"asio.misc"
	.section	.text._ZNK4asio5error6detail13misc_category4nameEv,"axG",@progbits,_ZNK4asio5error6detail13misc_category4nameEv,comdat
	.align 2
	.p2align 4
	.weak	_ZNK4asio5error6detail13misc_category4nameEv
	.type	_ZNK4asio5error6detail13misc_category4nameEv, @function
_ZNK4asio5error6detail13misc_category4nameEv:
.LFB2402:
	.cfi_startproc
	endbr64
	leaq	.LC3(%rip), %rax
	ret
	.cfi_endproc
.LFE2402:
	.size	_ZNK4asio5error6detail13misc_category4nameEv, .-_ZNK4asio5error6detail13misc_category4nameEv
	.section	.text._ZN4asio6detail7tss_ptrINS0_10call_stackINS0_15task_io_serviceENS0_27task_io_service_thread_infoEE7contextEED2Ev,"axG",@progbits,_ZN4asio6detail7tss_ptrINS0_10call_stackINS0_15task_io_serviceENS0_27task_io_service_thread_infoEE7contextEED5Ev,comdat
	.align 2
	.p2align 4
	.weak	_ZN4asio6detail7tss_ptrINS0_10call_stackINS0_15task_io_serviceENS0_27task_io_service_thread_infoEE7contextEED2Ev
	.type	_ZN4asio6detail7tss_ptrINS0_10call_stackINS0_15task_io_serviceENS0_27task_io_service_thread_infoEE7contextEED2Ev, @function
_ZN4asio6detail7tss_ptrINS0_10call_stackINS0_15task_io_serviceENS0_27task_io_service_thread_infoEE7contextEED2Ev:
.LFB9337:
	.cfi_startproc
	endbr64
	ret
	.cfi_endproc
.LFE9337:
	.size	_ZN4asio6detail7tss_ptrINS0_10call_stackINS0_15task_io_serviceENS0_27task_io_service_thread_infoEE7contextEED2Ev, .-_ZN4asio6detail7tss_ptrINS0_10call_stackINS0_15task_io_serviceENS0_27task_io_service_thread_infoEE7contextEED2Ev
	.weak	_ZN4asio6detail7tss_ptrINS0_10call_stackINS0_15task_io_serviceENS0_27task_io_service_thread_infoEE7contextEED1Ev
	.set	_ZN4asio6detail7tss_ptrINS0_10call_stackINS0_15task_io_serviceENS0_27task_io_service_thread_infoEE7contextEED1Ev,_ZN4asio6detail7tss_ptrINS0_10call_stackINS0_15task_io_serviceENS0_27task_io_service_thread_infoEE7contextEED2Ev
	.section	.text._ZN4asio6detail10service_idINS0_13epoll_reactorEED2Ev,"axG",@progbits,_ZN4asio6detail10service_idINS0_13epoll_reactorEED5Ev,comdat
	.align 2
	.p2align 4
	.weak	_ZN4asio6detail10service_idINS0_13epoll_reactorEED2Ev
	.type	_ZN4asio6detail10service_idINS0_13epoll_reactorEED2Ev, @function
_ZN4asio6detail10service_idINS0_13epoll_reactorEED2Ev:
.LFB9340:
	.cfi_startproc
	endbr64
	ret
	.cfi_endproc
.LFE9340:
	.size	_ZN4asio6detail10service_idINS0_13epoll_reactorEED2Ev, .-_ZN4asio6detail10service_idINS0_13epoll_reactorEED2Ev
	.weak	_ZN4asio6detail10service_idINS0_13epoll_reactorEED1Ev
	.set	_ZN4asio6detail10service_idINS0_13epoll_reactorEED1Ev,_ZN4asio6detail10service_idINS0_13epoll_reactorEED2Ev
	.section	.text._ZN4asio6detail10service_idINS0_15task_io_serviceEED2Ev,"axG",@progbits,_ZN4asio6detail10service_idINS0_15task_io_serviceEED5Ev,comdat
	.align 2
	.p2align 4
	.weak	_ZN4asio6detail10service_idINS0_15task_io_serviceEED2Ev
	.type	_ZN4asio6detail10service_idINS0_15task_io_serviceEED2Ev, @function
_ZN4asio6detail10service_idINS0_15task_io_serviceEED2Ev:
.LFB9343:
	.cfi_startproc
	endbr64
	ret
	.cfi_endproc
.LFE9343:
	.size	_ZN4asio6detail10service_idINS0_15task_io_serviceEED2Ev, .-_ZN4asio6detail10service_idINS0_15task_io_serviceEED2Ev
	.weak	_ZN4asio6detail10service_idINS0_15task_io_serviceEED1Ev
	.set	_ZN4asio6detail10service_idINS0_15task_io_serviceEED1Ev,_ZN4asio6detail10service_idINS0_15task_io_serviceEED2Ev
	.section	.text._ZN4asio6detail7tss_ptrINS0_10call_stackINS0_14strand_service11strand_implEhE7contextEED2Ev,"axG",@progbits,_ZN4asio6detail7tss_ptrINS0_10call_stackINS0_14strand_service11strand_implEhE7contextEED5Ev,comdat
	.align 2
	.p2align 4
	.weak	_ZN4asio6detail7tss_ptrINS0_10call_stackINS0_14strand_service11strand_implEhE7contextEED2Ev
	.type	_ZN4asio6detail7tss_ptrINS0_10call_stackINS0_14strand_service11strand_implEhE7contextEED2Ev, @function
_ZN4asio6detail7tss_ptrINS0_10call_stackINS0_14strand_service11strand_implEhE7contextEED2Ev:
.LFB9346:
	.cfi_startproc
	endbr64
	ret
	.cfi_endproc
.LFE9346:
	.size	_ZN4asio6detail7tss_ptrINS0_10call_stackINS0_14strand_service11strand_implEhE7contextEED2Ev, .-_ZN4asio6detail7tss_ptrINS0_10call_stackINS0_14strand_service11strand_implEhE7contextEED2Ev
	.weak	_ZN4asio6detail7tss_ptrINS0_10call_stackINS0_14strand_service11strand_implEhE7contextEED1Ev
	.set	_ZN4asio6detail7tss_ptrINS0_10call_stackINS0_14strand_service11strand_implEhE7contextEED1Ev,_ZN4asio6detail7tss_ptrINS0_10call_stackINS0_14strand_service11strand_implEhE7contextEED2Ev
	.section	.text._ZN4asio6detail10service_idINS0_14strand_serviceEED2Ev,"axG",@progbits,_ZN4asio6detail10service_idINS0_14strand_serviceEED5Ev,comdat
	.align 2
	.p2align 4
	.weak	_ZN4asio6detail10service_idINS0_14strand_serviceEED2Ev
	.type	_ZN4asio6detail10service_idINS0_14strand_serviceEED2Ev, @function
_ZN4asio6detail10service_idINS0_14strand_serviceEED2Ev:
.LFB9349:
	.cfi_startproc
	endbr64
	ret
	.cfi_endproc
.LFE9349:
	.size	_ZN4asio6detail10service_idINS0_14strand_serviceEED2Ev, .-_ZN4asio6detail10service_idINS0_14strand_serviceEED2Ev
	.weak	_ZN4asio6detail10service_idINS0_14strand_serviceEED1Ev
	.set	_ZN4asio6detail10service_idINS0_14strand_serviceEED1Ev,_ZN4asio6detail10service_idINS0_14strand_serviceEED2Ev
	.section	.text._ZN4asio6detail15system_categoryD2Ev,"axG",@progbits,_ZN4asio6detail15system_categoryD5Ev,comdat
	.align 2
	.p2align 4
	.weak	_ZN4asio6detail15system_categoryD2Ev
	.type	_ZN4asio6detail15system_categoryD2Ev, @function
_ZN4asio6detail15system_categoryD2Ev:
.LFB9316:
	.cfi_startproc
	endbr64
	movq	_ZTVN4asio6detail15system_categoryE@GOTPCREL(%rip), %rax
	addq	$16, %rax
	movq	%rax, (%rdi)
	jmp	_ZNSt3_V214error_categoryD2Ev@PLT
	.cfi_endproc
.LFE9316:
	.size	_ZN4asio6detail15system_categoryD2Ev, .-_ZN4asio6detail15system_categoryD2Ev
	.weak	_ZN4asio6detail15system_categoryD1Ev
	.set	_ZN4asio6detail15system_categoryD1Ev,_ZN4asio6detail15system_categoryD2Ev
	.section	.text._ZN4asio6detail15system_categoryD0Ev,"axG",@progbits,_ZN4asio6detail15system_categoryD5Ev,comdat
	.align 2
	.p2align 4
	.weak	_ZN4asio6detail15system_categoryD0Ev
	.type	_ZN4asio6detail15system_categoryD0Ev, @function
_ZN4asio6detail15system_categoryD0Ev:
.LFB9318:
	.cfi_startproc
	endbr64
	movq	_ZTVN4asio6detail15system_categoryE@GOTPCREL(%rip), %rax
	pushq	%rbp
	.cfi_def_cfa_offset 16
	.cfi_offset 6, -16
	movq	%rdi, %rbp
	addq	$16, %rax
	movq	%rax, (%rdi)
	call	_ZNSt3_V214error_categoryD2Ev@PLT
	movq	%rbp, %rdi
	movl	$8, %esi
	popq	%rbp
	.cfi_def_cfa_offset 8
	jmp	_ZdlPvm@PLT
	.cfi_endproc
.LFE9318:
	.size	_ZN4asio6detail15system_categoryD0Ev, .-_ZN4asio6detail15system_categoryD0Ev
	.section	.text._ZN4asio5error6detail13misc_categoryD2Ev,"axG",@progbits,_ZN4asio5error6detail13misc_categoryD5Ev,comdat
	.align 2
	.p2align 4
	.weak	_ZN4asio5error6detail13misc_categoryD2Ev
	.type	_ZN4asio5error6detail13misc_categoryD2Ev, @function
_ZN4asio5error6detail13misc_categoryD2Ev:
.LFB9296:
	.cfi_startproc
	endbr64
	movq	_ZTVN4asio5error6detail13misc_categoryE@GOTPCREL(%rip), %rax
	addq	$16, %rax
	movq	%rax, (%rdi)
	jmp	_ZNSt3_V214error_categoryD2Ev@PLT
	.cfi_endproc
.LFE9296:
	.size	_ZN4asio5error6detail13misc_categoryD2Ev, .-_ZN4asio5error6detail13misc_categoryD2Ev
	.weak	_ZN4asio5error6detail13misc_categoryD1Ev
	.set	_ZN4asio5error6detail13misc_categoryD1Ev,_ZN4asio5error6detail13misc_categoryD2Ev
	.section	.text._ZN4asio5error6detail13misc_categoryD0Ev,"axG",@progbits,_ZN4asio5error6detail13misc_categoryD5Ev,comdat
	.align 2
	.p2align 4
	.weak	_ZN4asio5error6detail13misc_categoryD0Ev
	.type	_ZN4asio5error6detail13misc_categoryD0Ev, @function
_ZN4asio5error6detail13misc_categoryD0Ev:
.LFB9298:
	.cfi_startproc
	endbr64
	movq	_ZTVN4asio5error6detail13misc_categoryE@GOTPCREL(%rip), %rax
	pushq	%rbp
	.cfi_def_cfa_offset 16
	.cfi_offset 6, -16
	movq	%rdi, %rbp
	addq	$16, %rax
	movq	%rax, (%rdi)
	call	_ZNSt3_V214error_categoryD2Ev@PLT
	movq	%rbp, %rdi
	movl	$8, %esi
	popq	%rbp
	.cfi_def_cfa_offset 8
	jmp	_ZdlPvm@PLT
	.cfi_endproc
.LFE9298:
	.size	_ZN4asio5error6detail13misc_categoryD0Ev, .-_ZN4asio5error6detail13misc_categoryD0Ev
	.section	.text._ZN4asio5error6detail14netdb_categoryD2Ev,"axG",@progbits,_ZN4asio5error6detail14netdb_categoryD5Ev,comdat
	.align 2
	.p2align 4
	.weak	_ZN4asio5error6detail14netdb_categoryD2Ev
	.type	_ZN4asio5error6detail14netdb_categoryD2Ev, @function
_ZN4asio5error6detail14netdb_categoryD2Ev:
.LFB9304:
	.cfi_startproc
	endbr64
	movq	_ZTVN4asio5error6detail14netdb_categoryE@GOTPCREL(%rip), %rax
	addq	$16, %rax
	movq	%rax, (%rdi)
	jmp	_ZNSt3_V214error_categoryD2Ev@PLT
	.cfi_endproc
.LFE9304:
	.size	_ZN4asio5error6detail14netdb_categoryD2Ev, .-_ZN4asio5error6detail14netdb_categoryD2Ev
	.weak	_ZN4asio5error6detail14netdb_categoryD1Ev
	.set	_ZN4asio5error6detail14netdb_categoryD1Ev,_ZN4asio5error6detail14netdb_categoryD2Ev
	.section	.text._ZN4asio5error6detail14netdb_categoryD0Ev,"axG",@progbits,_ZN4asio5error6detail14netdb_categoryD5Ev,comdat
	.align 2
	.p2align 4
	.weak	_ZN4asio5error6detail14netdb_categoryD0Ev
	.type	_ZN4asio5error6detail14netdb_categoryD0Ev, @function
_ZN4asio5error6detail14netdb_categoryD0Ev:
.LFB9306:
	.cfi_startproc
	endbr64
	movq	_ZTVN4asio5error6detail14netdb_categoryE@GOTPCREL(%rip), %rax
	pushq	%rbp
	.cfi_def_cfa_offset 16
	.cfi_offset 6, -16
	movq	%rdi, %rbp
	addq	$16, %rax
	movq	%rax, (%rdi)
	call	_ZNSt3_V214error_categoryD2Ev@PLT
	movq	%rbp, %rdi
	movl	$8, %esi
	popq	%rbp
	.cfi_def_cfa_offset 8
	jmp	_ZdlPvm@PLT
	.cfi_endproc
.LFE9306:
	.size	_ZN4asio5error6detail14netdb_categoryD0Ev, .-_ZN4asio5error6detail14netdb_categoryD0Ev
	.section	.text._ZN4asio5error6detail17addrinfo_categoryD2Ev,"axG",@progbits,_ZN4asio5error6detail17addrinfo_categoryD5Ev,comdat
	.align 2
	.p2align 4
	.weak	_ZN4asio5error6detail17addrinfo_categoryD2Ev
	.type	_ZN4asio5error6detail17addrinfo_categoryD2Ev, @function
_ZN4asio5error6detail17addrinfo_categoryD2Ev:
.LFB9300:
	.cfi_startproc
	endbr64
	movq	_ZTVN4asio5error6detail17addrinfo_categoryE@GOTPCREL(%rip), %rax
	addq	$16, %rax
	movq	%rax, (%rdi)
	jmp	_ZNSt3_V214error_categoryD2Ev@PLT
	.cfi_endproc
.LFE9300:
	.size	_ZN4asio5error6detail17addrinfo_categoryD2Ev, .-_ZN4asio5error6detail17addrinfo_categoryD2Ev
	.weak	_ZN4asio5error6detail17addrinfo_categoryD1Ev
	.set	_ZN4asio5error6detail17addrinfo_categoryD1Ev,_ZN4asio5error6detail17addrinfo_categoryD2Ev
	.section	.text._ZN4asio5error6detail17addrinfo_categoryD0Ev,"axG",@progbits,_ZN4asio5error6detail17addrinfo_categoryD5Ev,comdat
	.align 2
	.p2align 4
	.weak	_ZN4asio5error6detail17addrinfo_categoryD0Ev
	.type	_ZN4asio5error6detail17addrinfo_categoryD0Ev, @function
_ZN4asio5error6detail17addrinfo_categoryD0Ev:
.LFB9302:
	.cfi_startproc
	endbr64
	movq	_ZTVN4asio5error6detail17addrinfo_categoryE@GOTPCREL(%rip), %rax
	pushq	%rbp
	.cfi_def_cfa_offset 16
	.cfi_offset 6, -16
	movq	%rdi, %rbp
	addq	$16, %rax
	movq	%rax, (%rdi)
	call	_ZNSt3_V214error_categoryD2Ev@PLT
	movq	%rbp, %rdi
	movl	$8, %esi
	popq	%rbp
	.cfi_def_cfa_offset 8
	jmp	_ZdlPvm@PLT
	.cfi_endproc
.LFE9302:
	.size	_ZN4asio5error6detail17addrinfo_categoryD0Ev, .-_ZN4asio5error6detail17addrinfo_categoryD0Ev
	.section	.text.unlikely,"ax",@progbits
	.align 2
	.type	_ZN4asio6detail23reactive_socket_send_opINS_15const_buffers_1ENS0_8write_opINS_19basic_stream_socketINS_2ip3tcpENS_21stream_socket_serviceIS6_EEEES2_NS0_14transfer_all_tENS0_15wrapped_handlerINS_10io_service6strandEZN7asiopal13SocketChannel14BeginWriteImplERKN7openpal6RSliceEEUlRKSt10error_codemE_NS0_26is_continuation_if_runningEEEEEE3ptr5resetEv.isra.0, @function
_ZN4asio6detail23reactive_socket_send_opINS_15const_buffers_1ENS0_8write_opINS_19basic_stream_socketINS_2ip3tcpENS_21stream_socket_serviceIS6_EEEES2_NS0_14transfer_all_tENS0_15wrapped_handlerINS_10io_service6strandEZN7asiopal13SocketChannel14BeginWriteImplERKN7openpal6RSliceEEUlRKSt10error_codemE_NS0_26is_continuation_if_runningEEEEEE3ptr5resetEv.isra.0:
.LFB9585:
	.cfi_startproc
	pushq	%rbp
	.cfi_def_cfa_offset 16
	.cfi_offset 6, -16
	pushq	%rbx
	.cfi_def_cfa_offset 24
	.cfi_offset 3, -24
	movq	%rdi, %rbx
	pushq	%rdx
	.cfi_def_cfa_offset 32
	cmpq	$0, (%rsi)
	je	.L24
	movq	$0, (%rsi)
.L24:
	movq	(%rbx), %rbp
	testq	%rbp, %rbp
	je	.L23
	data16	leaq	_ZN4asio6detail15keyword_tss_ptrINS0_10call_stackINS0_15task_io_serviceENS0_27task_io_service_thread_infoEE7contextEE6value_E@tlsgd(%rip), %rdi
	.value	0x6666
	rex64
	call	__tls_get_addr@PLT
	movq	(%rax), %rax
	testq	%rax, %rax
	je	.L26
	movq	8(%rax), %rax
	testq	%rax, %rax
	je	.L26
	cmpq	$0, (%rax)
	jne	.L26
	movb	152(%rbp), %dl
	movb	%dl, 0(%rbp)
	movq	%rbp, (%rax)
	jmp	.L27
.L26:
	movq	%rbp, %rdi
	call	_ZdlPv@PLT
.L27:
	movq	$0, (%rbx)
.L23:
	popq	%rax
	.cfi_def_cfa_offset 24
	popq	%rbx
	.cfi_def_cfa_offset 16
	popq	%rbp
	.cfi_def_cfa_offset 8
	ret
	.cfi_endproc
.LFE9585:
	.size	_ZN4asio6detail23reactive_socket_send_opINS_15const_buffers_1ENS0_8write_opINS_19basic_stream_socketINS_2ip3tcpENS_21stream_socket_serviceIS6_EEEES2_NS0_14transfer_all_tENS0_15wrapped_handlerINS_10io_service6strandEZN7asiopal13SocketChannel14BeginWriteImplERKN7openpal6RSliceEEUlRKSt10error_codemE_NS0_26is_continuation_if_runningEEEEEE3ptr5resetEv.isra.0, .-_ZN4asio6detail23reactive_socket_send_opINS_15const_buffers_1ENS0_8write_opINS_19basic_stream_socketINS_2ip3tcpENS_21stream_socket_serviceIS6_EEEES2_NS0_14transfer_all_tENS0_15wrapped_handlerINS_10io_service6strandEZN7asiopal13SocketChannel14BeginWriteImplERKN7openpal6RSliceEEUlRKSt10error_codemE_NS0_26is_continuation_if_runningEEEEEE3ptr5resetEv.isra.0
	.align 2
	.type	_ZN4asio6detail18completion_handlerINS0_7binder2IZN7asiopal13SocketChannel13BeginReadImplEN7openpal6WSliceEEUlRKSt10error_codemE_S7_mEEE3ptr5resetEv.isra.0, @function
_ZN4asio6detail18completion_handlerINS0_7binder2IZN7asiopal13SocketChannel13BeginReadImplEN7openpal6WSliceEEUlRKSt10error_codemE_S7_mEEE3ptr5resetEv.isra.0:
.LFB9521:
	.cfi_startproc
	pushq	%rbp
	.cfi_def_cfa_offset 16
	.cfi_offset 6, -16
	pushq	%rbx
	.cfi_def_cfa_offset 24
	.cfi_offset 3, -24
	movq	%rdi, %rbx
	pushq	%rdx
	.cfi_def_cfa_offset 32
	cmpq	$0, (%rsi)
	je	.L39
	movq	$0, (%rsi)
.L39:
	movq	(%rbx), %rbp
	testq	%rbp, %rbp
	je	.L38
	data16	leaq	_ZN4asio6detail15keyword_tss_ptrINS0_10call_stackINS0_15task_io_serviceENS0_27task_io_service_thread_infoEE7contextEE6value_E@tlsgd(%rip), %rdi
	.value	0x6666
	rex64
	call	__tls_get_addr@PLT
	movq	(%rax), %rax
	testq	%rax, %rax
	je	.L41
	movq	8(%rax), %rax
	testq	%rax, %rax
	je	.L41
	cmpq	$0, (%rax)
	jne	.L41
	movb	56(%rbp), %dl
	movb	%dl, 0(%rbp)
	movq	%rbp, (%rax)
	jmp	.L42
.L41:
	movq	%rbp, %rdi
	call	_ZdlPv@PLT
.L42:
	movq	$0, (%rbx)
.L38:
	popq	%rax
	.cfi_def_cfa_offset 24
	popq	%rbx
	.cfi_def_cfa_offset 16
	popq	%rbp
	.cfi_def_cfa_offset 8
	ret
	.cfi_endproc
.LFE9521:
	.size	_ZN4asio6detail18completion_handlerINS0_7binder2IZN7asiopal13SocketChannel13BeginReadImplEN7openpal6WSliceEEUlRKSt10error_codemE_S7_mEEE3ptr5resetEv.isra.0, .-_ZN4asio6detail18completion_handlerINS0_7binder2IZN7asiopal13SocketChannel13BeginReadImplEN7openpal6WSliceEEUlRKSt10error_codemE_S7_mEEE3ptr5resetEv.isra.0
	.align 2
	.type	_ZN4asio6detail18completion_handlerINS0_17rewrapped_handlerINS0_7binder2INS0_15wrapped_handlerINS_10io_service6strandEZN7asiopal13SocketChannel13BeginReadImplEN7openpal6WSliceEEUlRKSt10error_codemE_NS0_26is_continuation_if_runningEEESB_mEESE_EEE3ptr5resetEv.isra.0, @function
_ZN4asio6detail18completion_handlerINS0_17rewrapped_handlerINS0_7binder2INS0_15wrapped_handlerINS_10io_service6strandEZN7asiopal13SocketChannel13BeginReadImplEN7openpal6WSliceEEUlRKSt10error_codemE_NS0_26is_continuation_if_runningEEESB_mEESE_EEE3ptr5resetEv.isra.0:
.LFB9524:
	.cfi_startproc
	pushq	%rbp
	.cfi_def_cfa_offset 16
	.cfi_offset 6, -16
	pushq	%rbx
	.cfi_def_cfa_offset 24
	.cfi_offset 3, -24
	movq	%rdi, %rbx
	pushq	%rdx
	.cfi_def_cfa_offset 32
	cmpq	$0, (%rsi)
	je	.L54
	movq	$0, (%rsi)
.L54:
	movq	(%rbx), %rbp
	testq	%rbp, %rbp
	je	.L53
	data16	leaq	_ZN4asio6detail15keyword_tss_ptrINS0_10call_stackINS0_15task_io_serviceENS0_27task_io_service_thread_infoEE7contextEE6value_E@tlsgd(%rip), %rdi
	.value	0x6666
	rex64
	call	__tls_get_addr@PLT
	movq	(%rax), %rax
	testq	%rax, %rax
	je	.L56
	movq	8(%rax), %rax
	testq	%rax, %rax
	je	.L56
	cmpq	$0, (%rax)
	jne	.L56
	movb	80(%rbp), %dl
	movb	%dl, 0(%rbp)
	movq	%rbp, (%rax)
	jmp	.L57
.L56:
	movq	%rbp, %rdi
	call	_ZdlPv@PLT
.L57:
	movq	$0, (%rbx)
.L53:
	popq	%rax
	.cfi_def_cfa_offset 24
	popq	%rbx
	.cfi_def_cfa_offset 16
	popq	%rbp
	.cfi_def_cfa_offset 8
	ret
	.cfi_endproc
.LFE9524:
	.size	_ZN4asio6detail18completion_handlerINS0_17rewrapped_handlerINS0_7binder2INS0_15wrapped_handlerINS_10io_service6strandEZN7asiopal13SocketChannel13BeginReadImplEN7openpal6WSliceEEUlRKSt10error_codemE_NS0_26is_continuation_if_runningEEESB_mEESE_EEE3ptr5resetEv.isra.0, .-_ZN4asio6detail18completion_handlerINS0_17rewrapped_handlerINS0_7binder2INS0_15wrapped_handlerINS_10io_service6strandEZN7asiopal13SocketChannel13BeginReadImplEN7openpal6WSliceEEUlRKSt10error_codemE_NS0_26is_continuation_if_runningEEESB_mEESE_EEE3ptr5resetEv.isra.0
	.align 2
	.type	_ZN4asio6detail18completion_handlerINS0_17rewrapped_handlerINS0_7binder2INS0_8write_opINS_19basic_stream_socketINS_2ip3tcpENS_21stream_socket_serviceIS7_EEEENS_15const_buffers_1ENS0_14transfer_all_tENS0_15wrapped_handlerINS_10io_service6strandEZN7asiopal13SocketChannel14BeginWriteImplERKN7openpal6RSliceEEUlRKSt10error_codemE_NS0_26is_continuation_if_runningEEEEESM_mEESP_EEE3ptr5resetEv.isra.0, @function
_ZN4asio6detail18completion_handlerINS0_17rewrapped_handlerINS0_7binder2INS0_8write_opINS_19basic_stream_socketINS_2ip3tcpENS_21stream_socket_serviceIS7_EEEENS_15const_buffers_1ENS0_14transfer_all_tENS0_15wrapped_handlerINS_10io_service6strandEZN7asiopal13SocketChannel14BeginWriteImplERKN7openpal6RSliceEEUlRKSt10error_codemE_NS0_26is_continuation_if_runningEEEEESM_mEESP_EEE3ptr5resetEv.isra.0:
.LFB9532:
	.cfi_startproc
	pushq	%rbp
	.cfi_def_cfa_offset 16
	.cfi_offset 6, -16
	pushq	%rbx
	.cfi_def_cfa_offset 24
	.cfi_offset 3, -24
	movq	%rdi, %rbx
	pushq	%rdx
	.cfi_def_cfa_offset 32
	cmpq	$0, (%rsi)
	je	.L69
	movq	$0, (%rsi)
.L69:
	movq	(%rbx), %rbp
	testq	%rbp, %rbp
	je	.L68
	data16	leaq	_ZN4asio6detail15keyword_tss_ptrINS0_10call_stackINS0_15task_io_serviceENS0_27task_io_service_thread_infoEE7contextEE6value_E@tlsgd(%rip), %rdi
	.value	0x6666
	rex64
	call	__tls_get_addr@PLT
	movq	(%rax), %rax
	testq	%rax, %rax
	je	.L71
	movq	8(%rax), %rax
	testq	%rax, %rax
	je	.L71
	cmpq	$0, (%rax)
	jne	.L71
	movb	120(%rbp), %dl
	movb	%dl, 0(%rbp)
	movq	%rbp, (%rax)
	jmp	.L72
.L71:
	movq	%rbp, %rdi
	call	_ZdlPv@PLT
.L72:
	movq	$0, (%rbx)
.L68:
	popq	%rax
	.cfi_def_cfa_offset 24
	popq	%rbx
	.cfi_def_cfa_offset 16
	popq	%rbp
	.cfi_def_cfa_offset 8
	ret
	.cfi_endproc
.LFE9532:
	.size	_ZN4asio6detail18completion_handlerINS0_17rewrapped_handlerINS0_7binder2INS0_8write_opINS_19basic_stream_socketINS_2ip3tcpENS_21stream_socket_serviceIS7_EEEENS_15const_buffers_1ENS0_14transfer_all_tENS0_15wrapped_handlerINS_10io_service6strandEZN7asiopal13SocketChannel14BeginWriteImplERKN7openpal6RSliceEEUlRKSt10error_codemE_NS0_26is_continuation_if_runningEEEEESM_mEESP_EEE3ptr5resetEv.isra.0, .-_ZN4asio6detail18completion_handlerINS0_17rewrapped_handlerINS0_7binder2INS0_8write_opINS_19basic_stream_socketINS_2ip3tcpENS_21stream_socket_serviceIS7_EEEENS_15const_buffers_1ENS0_14transfer_all_tENS0_15wrapped_handlerINS_10io_service6strandEZN7asiopal13SocketChannel14BeginWriteImplERKN7openpal6RSliceEEUlRKSt10error_codemE_NS0_26is_continuation_if_runningEEEEESM_mEESP_EEE3ptr5resetEv.isra.0
	.align 2
	.type	_ZN4asio6detail18completion_handlerINS0_7binder2IZN7asiopal13SocketChannel14BeginWriteImplERKN7openpal6RSliceEEUlRKSt10error_codemE_S9_mEEE3ptr5resetEv.isra.0, @function
_ZN4asio6detail18completion_handlerINS0_7binder2IZN7asiopal13SocketChannel14BeginWriteImplERKN7openpal6RSliceEEUlRKSt10error_codemE_S9_mEEE3ptr5resetEv.isra.0:
.LFB9535:
	.cfi_startproc
	pushq	%rbp
	.cfi_def_cfa_offset 16
	.cfi_offset 6, -16
	pushq	%rbx
	.cfi_def_cfa_offset 24
	.cfi_offset 3, -24
	movq	%rdi, %rbx
	pushq	%rdx
	.cfi_def_cfa_offset 32
	cmpq	$0, (%rsi)
	je	.L84
	movq	$0, (%rsi)
.L84:
	movq	(%rbx), %rbp
	testq	%rbp, %rbp
	je	.L83
	data16	leaq	_ZN4asio6detail15keyword_tss_ptrINS0_10call_stackINS0_15task_io_serviceENS0_27task_io_service_thread_infoEE7contextEE6value_E@tlsgd(%rip), %rdi
	.value	0x6666
	rex64
	call	__tls_get_addr@PLT
	movq	(%rax), %rax
	testq	%rax, %rax
	je	.L86
	movq	8(%rax), %rax
	testq	%rax, %rax
	je	.L86
	cmpq	$0, (%rax)
	jne	.L86
	movb	56(%rbp), %dl
	movb	%dl, 0(%rbp)
	movq	%rbp, (%rax)
	jmp	.L87
.L86:
	movq	%rbp, %rdi
	call	_ZdlPv@PLT
.L87:
	movq	$0, (%rbx)
.L83:
	popq	%rax
	.cfi_def_cfa_offset 24
	popq	%rbx
	.cfi_def_cfa_offset 16
	popq	%rbp
	.cfi_def_cfa_offset 8
	ret
	.cfi_endproc
.LFE9535:
	.size	_ZN4asio6detail18completion_handlerINS0_7binder2IZN7asiopal13SocketChannel14BeginWriteImplERKN7openpal6RSliceEEUlRKSt10error_codemE_S9_mEEE3ptr5resetEv.isra.0, .-_ZN4asio6detail18completion_handlerINS0_7binder2IZN7asiopal13SocketChannel14BeginWriteImplERKN7openpal6RSliceEEUlRKSt10error_codemE_S9_mEEE3ptr5resetEv.isra.0
	.align 2
	.type	_ZN4asio6detail23reactive_socket_recv_opINS_17mutable_buffers_1ENS0_15wrapped_handlerINS_10io_service6strandEZN7asiopal13SocketChannel13BeginReadImplEN7openpal6WSliceEEUlRKSt10error_codemE_NS0_26is_continuation_if_runningEEEE3ptr5resetEv.isra.0, @function
_ZN4asio6detail23reactive_socket_recv_opINS_17mutable_buffers_1ENS0_15wrapped_handlerINS_10io_service6strandEZN7asiopal13SocketChannel13BeginReadImplEN7openpal6WSliceEEUlRKSt10error_codemE_NS0_26is_continuation_if_runningEEEE3ptr5resetEv.isra.0:
.LFB9576:
	.cfi_startproc
	pushq	%rbp
	.cfi_def_cfa_offset 16
	.cfi_offset 6, -16
	pushq	%rbx
	.cfi_def_cfa_offset 24
	.cfi_offset 3, -24
	movq	%rdi, %rbx
	pushq	%rdx
	.cfi_def_cfa_offset 32
	cmpq	$0, (%rsi)
	je	.L99
	movq	$0, (%rsi)
.L99:
	movq	(%rbx), %rbp
	testq	%rbp, %rbp
	je	.L98
	data16	leaq	_ZN4asio6detail15keyword_tss_ptrINS0_10call_stackINS0_15task_io_serviceENS0_27task_io_service_thread_infoEE7contextEE6value_E@tlsgd(%rip), %rdi
	.value	0x6666
	rex64
	call	__tls_get_addr@PLT
	movq	(%rax), %rax
	testq	%rax, %rax
	je	.L101
	movq	8(%rax), %rax
	testq	%rax, %rax
	je	.L101
	cmpq	$0, (%rax)
	jne	.L101
	movb	112(%rbp), %dl
	movb	%dl, 0(%rbp)
	movq	%rbp, (%rax)
	jmp	.L102
.L101:
	movq	%rbp, %rdi
	call	_ZdlPv@PLT
.L102:
	movq	$0, (%rbx)
.L98:
	popq	%rax
	.cfi_def_cfa_offset 24
	popq	%rbx
	.cfi_def_cfa_offset 16
	popq	%rbp
	.cfi_def_cfa_offset 8
	ret
	.cfi_endproc
.LFE9576:
	.size	_ZN4asio6detail23reactive_socket_recv_opINS_17mutable_buffers_1ENS0_15wrapped_handlerINS_10io_service6strandEZN7asiopal13SocketChannel13BeginReadImplEN7openpal6WSliceEEUlRKSt10error_codemE_NS0_26is_continuation_if_runningEEEE3ptr5resetEv.isra.0, .-_ZN4asio6detail23reactive_socket_recv_opINS_17mutable_buffers_1ENS0_15wrapped_handlerINS_10io_service6strandEZN7asiopal13SocketChannel13BeginReadImplEN7openpal6WSliceEEUlRKSt10error_codemE_NS0_26is_continuation_if_runningEEEE3ptr5resetEv.isra.0
.LCOLDB4:
	.text
.LHOTB4:
	.p2align 4
	.type	_ZN4asio6detail18completion_handlerINS0_7binder2IZN7asiopal13SocketChannel13BeginReadImplEN7openpal6WSliceEEUlRKSt10error_codemE_S7_mEEE11do_completeEPNS0_15task_io_serviceEPNS0_25task_io_service_operationES9_m, @function
_ZN4asio6detail18completion_handlerINS0_7binder2IZN7asiopal13SocketChannel13BeginReadImplEN7openpal6WSliceEEUlRKSt10error_codemE_S7_mEEE11do_completeEPNS0_15task_io_serviceEPNS0_25task_io_service_operationES9_m:
.LFB9246:
	.cfi_startproc
	.cfi_personality 0x9b,DW.ref.__gxx_personality_v0
	.cfi_lsda 0x1b,.LLSDA9246
	endbr64
	pushq	%rbp
	.cfi_def_cfa_offset 16
	.cfi_offset 6, -16
	movq	%rsi, %rbp
	pushq	%rbx
	.cfi_def_cfa_offset 24
	.cfi_offset 3, -24
	movq	%rdi, %rbx
	subq	$88, %rsp
	.cfi_def_cfa_offset 112
	movdqu	24(%rsi), %xmm0
	movdqu	40(%rsi), %xmm1
	movq	%fs:40, %rax
	movq	%rax, 72(%rsp)
	xorl	%eax, %eax
	leaq	32(%rsp), %rax
	movq	%rsi, 8(%rsp)
	movq	%rax, (%rsp)
	movq	$0, 16(%rsp)
	movaps	%xmm0, 32(%rsp)
	movaps	%xmm1, 48(%rsp)
	data16	leaq	_ZN4asio6detail15keyword_tss_ptrINS0_10call_stackINS0_15task_io_serviceENS0_27task_io_service_thread_infoEE7contextEE6value_E@tlsgd(%rip), %rdi
	.value	0x6666
	rex64
	call	__tls_get_addr@PLT
	movq	(%rax), %rax
	testq	%rax, %rax
	je	.L114
	movq	8(%rax), %rax
	testq	%rax, %rax
	je	.L114
	cmpq	$0, (%rax)
	je	.L145
.L114:
	movq	%rbp, %rdi
	call	_ZdlPv@PLT
.L115:
	movq	$0, 8(%rsp)
	testq	%rbx, %rbx
	je	.L113
	movq	32(%rsp), %rax
	movq	56(%rsp), %rdx
	movq	40(%rax), %rdi
	movb	$0, 57(%rax)
	testq	%rdi, %rdi
	je	.L120
	cmpb	$0, 56(%rax)
	je	.L146
.L120:
	sfence
	cmpq	$0, 16(%rsp)
	je	.L147
.L118:
	movq	$0, 16(%rsp)
	movq	8(%rsp), %rbp
.L121:
	testq	%rbp, %rbp
	je	.L113
	data16	leaq	_ZN4asio6detail15keyword_tss_ptrINS0_10call_stackINS0_15task_io_serviceENS0_27task_io_service_thread_infoEE7contextEE6value_E@tlsgd(%rip), %rdi
	.value	0x6666
	rex64
	call	__tls_get_addr@PLT
	movq	(%rax), %rax
	testq	%rax, %rax
	je	.L124
	movq	8(%rax), %rax
	testq	%rax, %rax
	je	.L124
	cmpq	$0, (%rax)
	je	.L148
.L124:
	movq	%rbp, %rdi
	call	_ZdlPv@PLT
.L113:
	movq	72(%rsp), %rax
	xorq	%fs:40, %rax
	jne	.L149
	addq	$88, %rsp
	.cfi_remember_state
	.cfi_def_cfa_offset 24
	popq	%rbx
	.cfi_def_cfa_offset 16
	popq	%rbp
	.cfi_def_cfa_offset 8
	ret
	.p2align 4,,10
	.p2align 3
.L146:
	.cfi_restore_state
	movq	(%rdi), %rax
	leaq	40(%rsp), %rsi
.LEHB0:
	call	*16(%rax)
.LEHE0:
	sfence
	cmpq	$0, 16(%rsp)
	jne	.L118
.L147:
	movq	8(%rsp), %rbp
	jmp	.L121
	.p2align 4,,10
	.p2align 3
.L145:
	movzbl	56(%rbp), %edx
	movb	%dl, 0(%rbp)
	movq	%rbp, (%rax)
	jmp	.L115
	.p2align 4,,10
	.p2align 3
.L148:
	movzbl	56(%rbp), %edx
	movb	%dl, 0(%rbp)
	movq	%rbp, (%rax)
	jmp	.L113
.L149:
	call	__stack_chk_fail@PLT
.L127:
	endbr64
	movq	%rax, %rbp
	jmp	.L125
	.globl	__gxx_personality_v0
	.section	.gcc_except_table,"a",@progbits
.LLSDA9246:
	.byte	0xff
	.byte	0xff
	.byte	0x1
	.uleb128 .LLSDACSE9246-.LLSDACSB9246
.LLSDACSB9246:
	.uleb128 .LEHB0-.LFB9246
	.uleb128 .LEHE0-.LEHB0
	.uleb128 .L127-.LFB9246
	.uleb128 0
.LLSDACSE9246:
	.text
	.cfi_endproc
	.section	.text.unlikely
	.cfi_startproc
	.cfi_personality 0x9b,DW.ref.__gxx_personality_v0
	.cfi_lsda 0x1b,.LLSDAC9246
	.type	_ZN4asio6detail18completion_handlerINS0_7binder2IZN7asiopal13SocketChannel13BeginReadImplEN7openpal6WSliceEEUlRKSt10error_codemE_S7_mEEE11do_completeEPNS0_15task_io_serviceEPNS0_25task_io_service_operationES9_m.cold, @function
_ZN4asio6detail18completion_handlerINS0_7binder2IZN7asiopal13SocketChannel13BeginReadImplEN7openpal6WSliceEEUlRKSt10error_codemE_S7_mEEE11do_completeEPNS0_15task_io_serviceEPNS0_25task_io_service_operationES9_m.cold:
.LFSB9246:
.L125:
	.cfi_def_cfa_offset 112
	.cfi_offset 3, -24
	.cfi_offset 6, -16
	sfence
	leaq	8(%rsp), %rdi
	leaq	16(%rsp), %rsi
	call	_ZN4asio6detail18completion_handlerINS0_7binder2IZN7asiopal13SocketChannel13BeginReadImplEN7openpal6WSliceEEUlRKSt10error_codemE_S7_mEEE3ptr5resetEv.isra.0
	movq	%rbp, %rdi
.LEHB1:
	call	_Unwind_Resume@PLT
.LEHE1:
	.cfi_endproc
.LFE9246:
	.section	.gcc_except_table
.LLSDAC9246:
	.byte	0xff
	.byte	0xff
	.byte	0x1
	.uleb128 .LLSDACSEC9246-.LLSDACSBC9246
.LLSDACSBC9246:
	.uleb128 .LEHB1-.LCOLDB4
	.uleb128 .LEHE1-.LEHB1
	.uleb128 0
	.uleb128 0
.LLSDACSEC9246:
	.section	.text.unlikely
	.text
	.size	_ZN4asio6detail18completion_handlerINS0_7binder2IZN7asiopal13SocketChannel13BeginReadImplEN7openpal6WSliceEEUlRKSt10error_codemE_S7_mEEE11do_completeEPNS0_15task_io_serviceEPNS0_25task_io_service_operationES9_m, .-_ZN4asio6detail18completion_handlerINS0_7binder2IZN7asiopal13SocketChannel13BeginReadImplEN7openpal6WSliceEEUlRKSt10error_codemE_S7_mEEE11do_completeEPNS0_15task_io_serviceEPNS0_25task_io_service_operationES9_m
	.section	.text.unlikely
	.size	_ZN4asio6detail18completion_handlerINS0_7binder2IZN7asiopal13SocketChannel13BeginReadImplEN7openpal6WSliceEEUlRKSt10error_codemE_S7_mEEE11do_completeEPNS0_15task_io_serviceEPNS0_25task_io_service_operationES9_m.cold, .-_ZN4asio6detail18completion_handlerINS0_7binder2IZN7asiopal13SocketChannel13BeginReadImplEN7openpal6WSliceEEUlRKSt10error_codemE_S7_mEEE11do_completeEPNS0_15task_io_serviceEPNS0_25task_io_service_operationES9_m.cold
.LCOLDE4:
	.text
.LHOTE4:
	.section	.text.unlikely
.LCOLDB5:
	.text
.LHOTB5:
	.p2align 4
	.type	_ZN4asio6detail18completion_handlerINS0_7binder2IZN7asiopal13SocketChannel14BeginWriteImplERKN7openpal6RSliceEEUlRKSt10error_codemE_S9_mEEE11do_completeEPNS0_15task_io_serviceEPNS0_25task_io_service_operationESB_m, @function
_ZN4asio6detail18completion_handlerINS0_7binder2IZN7asiopal13SocketChannel14BeginWriteImplERKN7openpal6RSliceEEUlRKSt10error_codemE_S9_mEEE11do_completeEPNS0_15task_io_serviceEPNS0_25task_io_service_operationESB_m:
.LFB8910:
	.cfi_startproc
	.cfi_personality 0x9b,DW.ref.__gxx_personality_v0
	.cfi_lsda 0x1b,.LLSDA8910
	endbr64
	pushq	%rbp
	.cfi_def_cfa_offset 16
	.cfi_offset 6, -16
	movq	%rsi, %rbp
	pushq	%rbx
	.cfi_def_cfa_offset 24
	.cfi_offset 3, -24
	movq	%rdi, %rbx
	subq	$88, %rsp
	.cfi_def_cfa_offset 112
	movdqu	24(%rsi), %xmm0
	movdqu	40(%rsi), %xmm1
	movq	%fs:40, %rax
	movq	%rax, 72(%rsp)
	xorl	%eax, %eax
	leaq	32(%rsp), %rax
	movq	%rsi, 8(%rsp)
	movq	%rax, (%rsp)
	movq	$0, 16(%rsp)
	movaps	%xmm0, 32(%rsp)
	movaps	%xmm1, 48(%rsp)
	data16	leaq	_ZN4asio6detail15keyword_tss_ptrINS0_10call_stackINS0_15task_io_serviceENS0_27task_io_service_thread_infoEE7contextEE6value_E@tlsgd(%rip), %rdi
	.value	0x6666
	rex64
	call	__tls_get_addr@PLT
	movq	(%rax), %rax
	testq	%rax, %rax
	je	.L151
	movq	8(%rax), %rax
	testq	%rax, %rax
	je	.L151
	cmpq	$0, (%rax)
	je	.L182
.L151:
	movq	%rbp, %rdi
	call	_ZdlPv@PLT
.L152:
	movq	$0, 8(%rsp)
	testq	%rbx, %rbx
	je	.L150
	movq	32(%rsp), %rax
	movq	56(%rsp), %rdx
	movq	40(%rax), %rdi
	movb	$0, 58(%rax)
	testq	%rdi, %rdi
	je	.L157
	cmpb	$0, 56(%rax)
	je	.L183
.L157:
	sfence
	cmpq	$0, 16(%rsp)
	je	.L184
.L155:
	movq	$0, 16(%rsp)
	movq	8(%rsp), %rbp
.L158:
	testq	%rbp, %rbp
	je	.L150
	data16	leaq	_ZN4asio6detail15keyword_tss_ptrINS0_10call_stackINS0_15task_io_serviceENS0_27task_io_service_thread_infoEE7contextEE6value_E@tlsgd(%rip), %rdi
	.value	0x6666
	rex64
	call	__tls_get_addr@PLT
	movq	(%rax), %rax
	testq	%rax, %rax
	je	.L161
	movq	8(%rax), %rax
	testq	%rax, %rax
	je	.L161
	cmpq	$0, (%rax)
	je	.L185
.L161:
	movq	%rbp, %rdi
	call	_ZdlPv@PLT
.L150:
	movq	72(%rsp), %rax
	xorq	%fs:40, %rax
	jne	.L186
	addq	$88, %rsp
	.cfi_remember_state
	.cfi_def_cfa_offset 24
	popq	%rbx
	.cfi_def_cfa_offset 16
	popq	%rbp
	.cfi_def_cfa_offset 8
	ret
	.p2align 4,,10
	.p2align 3
.L183:
	.cfi_restore_state
	movq	(%rdi), %rax
	leaq	40(%rsp), %rsi
.LEHB2:
	call	*24(%rax)
.LEHE2:
	sfence
	cmpq	$0, 16(%rsp)
	jne	.L155
.L184:
	movq	8(%rsp), %rbp
	jmp	.L158
	.p2align 4,,10
	.p2align 3
.L182:
	movzbl	56(%rbp), %edx
	movb	%dl, 0(%rbp)
	movq	%rbp, (%rax)
	jmp	.L152
	.p2align 4,,10
	.p2align 3
.L185:
	movzbl	56(%rbp), %edx
	movb	%dl, 0(%rbp)
	movq	%rbp, (%rax)
	jmp	.L150
.L186:
	call	__stack_chk_fail@PLT
.L164:
	endbr64
	movq	%rax, %rbp
	jmp	.L162
	.section	.gcc_except_table
.LLSDA8910:
	.byte	0xff
	.byte	0xff
	.byte	0x1
	.uleb128 .LLSDACSE8910-.LLSDACSB8910
.LLSDACSB8910:
	.uleb128 .LEHB2-.LFB8910
	.uleb128 .LEHE2-.LEHB2
	.uleb128 .L164-.LFB8910
	.uleb128 0
.LLSDACSE8910:
	.text
	.cfi_endproc
	.section	.text.unlikely
	.cfi_startproc
	.cfi_personality 0x9b,DW.ref.__gxx_personality_v0
	.cfi_lsda 0x1b,.LLSDAC8910
	.type	_ZN4asio6detail18completion_handlerINS0_7binder2IZN7asiopal13SocketChannel14BeginWriteImplERKN7openpal6RSliceEEUlRKSt10error_codemE_S9_mEEE11do_completeEPNS0_15task_io_serviceEPNS0_25task_io_service_operationESB_m.cold, @function
_ZN4asio6detail18completion_handlerINS0_7binder2IZN7asiopal13SocketChannel14BeginWriteImplERKN7openpal6RSliceEEUlRKSt10error_codemE_S9_mEEE11do_completeEPNS0_15task_io_serviceEPNS0_25task_io_service_operationESB_m.cold:
.LFSB8910:
.L162:
	.cfi_def_cfa_offset 112
	.cfi_offset 3, -24
	.cfi_offset 6, -16
	sfence
	leaq	8(%rsp), %rdi
	leaq	16(%rsp), %rsi
	call	_ZN4asio6detail18completion_handlerINS0_7binder2IZN7asiopal13SocketChannel14BeginWriteImplERKN7openpal6RSliceEEUlRKSt10error_codemE_S9_mEEE3ptr5resetEv.isra.0
	movq	%rbp, %rdi
.LEHB3:
	call	_Unwind_Resume@PLT
.LEHE3:
	.cfi_endproc
.LFE8910:
	.section	.gcc_except_table
.LLSDAC8910:
	.byte	0xff
	.byte	0xff
	.byte	0x1
	.uleb128 .LLSDACSEC8910-.LLSDACSBC8910
.LLSDACSBC8910:
	.uleb128 .LEHB3-.LCOLDB5
	.uleb128 .LEHE3-.LEHB3
	.uleb128 0
	.uleb128 0
.LLSDACSEC8910:
	.section	.text.unlikely
	.text
	.size	_ZN4asio6detail18completion_handlerINS0_7binder2IZN7asiopal13SocketChannel14BeginWriteImplERKN7openpal6RSliceEEUlRKSt10error_codemE_S9_mEEE11do_completeEPNS0_15task_io_serviceEPNS0_25task_io_service_operationESB_m, .-_ZN4asio6detail18completion_handlerINS0_7binder2IZN7asiopal13SocketChannel14BeginWriteImplERKN7openpal6RSliceEEUlRKSt10error_codemE_S9_mEEE11do_completeEPNS0_15task_io_serviceEPNS0_25task_io_service_operationESB_m
	.section	.text.unlikely
	.size	_ZN4asio6detail18completion_handlerINS0_7binder2IZN7asiopal13SocketChannel14BeginWriteImplERKN7openpal6RSliceEEUlRKSt10error_codemE_S9_mEEE11do_completeEPNS0_15task_io_serviceEPNS0_25task_io_service_operationESB_m.cold, .-_ZN4asio6detail18completion_handlerINS0_7binder2IZN7asiopal13SocketChannel14BeginWriteImplERKN7openpal6RSliceEEUlRKSt10error_codemE_S9_mEEE11do_completeEPNS0_15task_io_serviceEPNS0_25task_io_service_operationESB_m.cold
.LCOLDE5:
	.text
.LHOTE5:
	.section	.text._ZN4asio6detail28reactive_socket_send_op_baseINS_15const_buffers_1EE10do_performEPNS0_10reactor_opE,"axG",@progbits,_ZN4asio6detail28reactive_socket_send_op_baseINS_15const_buffers_1EE10do_performEPNS0_10reactor_opE,comdat
	.p2align 4
	.weak	_ZN4asio6detail28reactive_socket_send_op_baseINS_15const_buffers_1EE10do_performEPNS0_10reactor_opE
	.type	_ZN4asio6detail28reactive_socket_send_op_baseINS_15const_buffers_1EE10do_performEPNS0_10reactor_opE, @function
_ZN4asio6detail28reactive_socket_send_op_baseINS_15const_buffers_1EE10do_performEPNS0_10reactor_opE:
.LFB9107:
	.cfi_startproc
	endbr64
	pushq	%r15
	.cfi_def_cfa_offset 16
	.cfi_offset 15, -16
	pushq	%r14
	.cfi_def_cfa_offset 24
	.cfi_offset 14, -24
	movq	%rdi, %r14
	pushq	%r13
	.cfi_def_cfa_offset 32
	.cfi_offset 13, -32
	pushq	%r12
	.cfi_def_cfa_offset 40
	.cfi_offset 12, -40
	pushq	%rbp
	.cfi_def_cfa_offset 48
	.cfi_offset 6, -48
	pushq	%rbx
	.cfi_def_cfa_offset 56
	.cfi_offset 3, -56
	subq	$136, %rsp
	.cfi_def_cfa_offset 192
	movq	72(%rdi), %xmm0
	movl	56(%rdi), %r15d
	movq	%fs:40, %rax
	movq	%rax, 120(%rsp)
	xorl	%eax, %eax
	movq	64(%rdi), %rax
	punpcklqdq	%xmm0, %xmm0
	movq	%rax, 32(%rsp)
	movups	%xmm0, 40(%rsp)
	call	__errno_location@PLT
	movq	_ZGVZN4asio15system_categoryEvE8instance@GOTPCREL(%rip), %rbp
	movq	_ZZN4asio15system_categoryEvE8instance@GOTPCREL(%rip), %rbx
	movq	%rax, %r13
	movl	80(%r14), %eax
	orb	$64, %ah
	movl	%eax, 12(%rsp)
	leaq	32(%rsp), %rax
	movq	%rax, 24(%rsp)
	leaq	64(%rsp), %rax
	movq	%rax, 16(%rsp)
.L196:
	movq	24(%rsp), %rax
	movl	12(%rsp), %edx
	pxor	%xmm0, %xmm0
	movl	%r15d, %edi
	movl	$0, 0(%r13)
	movq	16(%rsp), %rsi
	movq	$0, 112(%rsp)
	movq	%rax, 80(%rsp)
	movq	$1, 88(%rsp)
	movaps	%xmm0, 64(%rsp)
	movaps	%xmm0, 96(%rsp)
	call	sendmsg@PLT
	movq	%rax, %r12
	movzbl	0(%rbp), %eax
	testb	%al, %al
	je	.L224
.L189:
	movl	0(%r13), %eax
	movq	%rbx, 32(%r14)
	movl	%eax, 24(%r14)
	testq	%r12, %r12
	js	.L191
	call	_ZNSt3_V215system_categoryEv@PLT
	movl	$0, 24(%r14)
	movq	%rax, 32(%r14)
.L191:
	movzbl	0(%rbp), %eax
	testb	%al, %al
	je	.L225
.L193:
	cmpq	%rbx, 32(%r14)
	je	.L226
.L195:
	movzbl	0(%rbp), %eax
	testb	%al, %al
	je	.L227
.L198:
	cmpq	%rbx, 32(%r14)
	je	.L228
.L200:
	movzbl	0(%rbp), %eax
	testb	%al, %al
	je	.L229
.L203:
	cmpq	%rbx, 32(%r14)
	je	.L230
.L205:
	testq	%r12, %r12
	js	.L207
	call	_ZNSt3_V215system_categoryEv@PLT
	movl	$0, 24(%r14)
	movq	%r12, 40(%r14)
	movq	%rax, 32(%r14)
	movl	$1, %eax
.L187:
	movq	120(%rsp), %rcx
	xorq	%fs:40, %rcx
	jne	.L231
	addq	$136, %rsp
	.cfi_remember_state
	.cfi_def_cfa_offset 56
	popq	%rbx
	.cfi_def_cfa_offset 48
	popq	%rbp
	.cfi_def_cfa_offset 40
	popq	%r12
	.cfi_def_cfa_offset 32
	popq	%r13
	.cfi_def_cfa_offset 24
	popq	%r14
	.cfi_def_cfa_offset 16
	popq	%r15
	.cfi_def_cfa_offset 8
	ret
	.p2align 4,,10
	.p2align 3
.L207:
	.cfi_restore_state
	movq	$0, 40(%r14)
	movl	$1, %eax
	jmp	.L187
	.p2align 4,,10
	.p2align 3
.L224:
	movq	%rbp, %rdi
	call	__cxa_guard_acquire@PLT
	testl	%eax, %eax
	je	.L189
	movq	_ZN4asio6detail15system_categoryD1Ev@GOTPCREL(%rip), %rdi
	leaq	__dso_handle(%rip), %rdx
	movq	%rbx, %rsi
	call	__cxa_atexit@PLT
	movq	%rbp, %rdi
	call	__cxa_guard_release@PLT
	jmp	.L189
	.p2align 4,,10
	.p2align 3
.L225:
	movq	%rbp, %rdi
	call	__cxa_guard_acquire@PLT
	testl	%eax, %eax
	je	.L193
	movq	_ZN4asio6detail15system_categoryD1Ev@GOTPCREL(%rip), %rdi
	leaq	__dso_handle(%rip), %rdx
	movq	%rbx, %rsi
	call	__cxa_atexit@PLT
	movq	%rbp, %rdi
	call	__cxa_guard_release@PLT
	cmpq	%rbx, 32(%r14)
	jne	.L195
	.p2align 4,,10
	.p2align 3
.L226:
	cmpl	$4, 24(%r14)
	je	.L196
	movzbl	0(%rbp), %eax
	testb	%al, %al
	jne	.L198
.L227:
	movq	%rbp, %rdi
	call	__cxa_guard_acquire@PLT
	testl	%eax, %eax
	je	.L198
	movq	_ZN4asio6detail15system_categoryD1Ev@GOTPCREL(%rip), %rdi
	leaq	__dso_handle(%rip), %rdx
	movq	%rbx, %rsi
	call	__cxa_atexit@PLT
	movq	%rbp, %rdi
	call	__cxa_guard_release@PLT
	cmpq	%rbx, 32(%r14)
	jne	.L200
	.p2align 4,,10
	.p2align 3
.L228:
	cmpl	$11, 24(%r14)
	jne	.L200
	xorl	%eax, %eax
	jmp	.L187
	.p2align 4,,10
	.p2align 3
.L229:
	movq	%rbp, %rdi
	call	__cxa_guard_acquire@PLT
	testl	%eax, %eax
	je	.L203
	movq	_ZN4asio6detail15system_categoryD1Ev@GOTPCREL(%rip), %rdi
	leaq	__dso_handle(%rip), %rdx
	movq	%rbx, %rsi
	call	__cxa_atexit@PLT
	movq	%rbp, %rdi
	call	__cxa_guard_release@PLT
	jmp	.L203
	.p2align 4,,10
	.p2align 3
.L230:
	cmpl	$11, 24(%r14)
	jne	.L205
	xorl	%eax, %eax
	jmp	.L187
.L231:
	call	__stack_chk_fail@PLT
	.cfi_endproc
.LFE9107:
	.size	_ZN4asio6detail28reactive_socket_send_op_baseINS_15const_buffers_1EE10do_performEPNS0_10reactor_opE, .-_ZN4asio6detail28reactive_socket_send_op_baseINS_15const_buffers_1EE10do_performEPNS0_10reactor_opE
	.section	.text._ZN4asio6detail28reactive_socket_recv_op_baseINS_17mutable_buffers_1EE10do_performEPNS0_10reactor_opE,"axG",@progbits,_ZN4asio6detail28reactive_socket_recv_op_baseINS_17mutable_buffers_1EE10do_performEPNS0_10reactor_opE,comdat
	.p2align 4
	.weak	_ZN4asio6detail28reactive_socket_recv_op_baseINS_17mutable_buffers_1EE10do_performEPNS0_10reactor_opE
	.type	_ZN4asio6detail28reactive_socket_recv_op_baseINS_17mutable_buffers_1EE10do_performEPNS0_10reactor_opE, @function
_ZN4asio6detail28reactive_socket_recv_op_baseINS_17mutable_buffers_1EE10do_performEPNS0_10reactor_opE:
.LFB8876:
	.cfi_startproc
	endbr64
	pushq	%r15
	.cfi_def_cfa_offset 16
	.cfi_offset 15, -16
	pushq	%r14
	.cfi_def_cfa_offset 24
	.cfi_offset 14, -24
	movq	%rdi, %r14
	pushq	%r13
	.cfi_def_cfa_offset 32
	.cfi_offset 13, -32
	pushq	%r12
	.cfi_def_cfa_offset 40
	.cfi_offset 12, -40
	pushq	%rbp
	.cfi_def_cfa_offset 48
	.cfi_offset 6, -48
	pushq	%rbx
	.cfi_def_cfa_offset 56
	.cfi_offset 3, -56
	subq	$136, %rsp
	.cfi_def_cfa_offset 192
	movq	72(%rdi), %xmm0
	movl	80(%rdi), %r15d
	movq	%fs:40, %rax
	movq	%rax, 120(%rsp)
	xorl	%eax, %eax
	movq	64(%rdi), %rax
	punpcklqdq	%xmm0, %xmm0
	movq	%rax, 32(%rsp)
	movzbl	60(%rdi), %eax
	movups	%xmm0, 40(%rsp)
	shrb	$4, %al
	andl	$1, %eax
	movb	%al, 31(%rsp)
	movl	56(%rdi), %eax
	movl	%eax, 24(%rsp)
	call	__errno_location@PLT
	movq	_ZGVZN4asio15system_categoryEvE8instance@GOTPCREL(%rip), %rbp
	movq	_ZZN4asio15system_categoryEvE8instance@GOTPCREL(%rip), %r12
	movq	%rax, %r13
	leaq	32(%rsp), %rax
	movq	%rax, 16(%rsp)
	leaq	64(%rsp), %rax
	movq	%rax, 8(%rsp)
.L246:
	movq	16(%rsp), %rax
	movl	24(%rsp), %edi
	pxor	%xmm0, %xmm0
	movl	%r15d, %edx
	movl	$0, 0(%r13)
	movq	8(%rsp), %rsi
	movq	$0, 112(%rsp)
	movq	%rax, 80(%rsp)
	movq	$1, 88(%rsp)
	movaps	%xmm0, 64(%rsp)
	movaps	%xmm0, 96(%rsp)
	call	recvmsg@PLT
	movq	%rax, %rbx
	movzbl	0(%rbp), %eax
	testb	%al, %al
	je	.L279
.L234:
	movl	0(%r13), %eax
	movq	%r12, 32(%r14)
	movl	%eax, 24(%r14)
	testq	%rbx, %rbx
	js	.L237
	call	_ZNSt3_V215system_categoryEv@PLT
	testq	%rbx, %rbx
	movl	$0, 24(%r14)
	movq	%rax, 32(%r14)
	sete	%r8b
	andb	31(%rsp), %r8b
	jne	.L280
.L237:
	movzbl	0(%rbp), %eax
	testb	%al, %al
	je	.L281
.L243:
	cmpq	%r12, 32(%r14)
	je	.L282
.L245:
	movzbl	0(%rbp), %eax
	testb	%al, %al
	je	.L283
.L248:
	cmpq	%r12, 32(%r14)
	je	.L284
.L250:
	movzbl	0(%rbp), %eax
	testb	%al, %al
	je	.L285
.L252:
	cmpq	%r12, 32(%r14)
	je	.L286
.L254:
	testq	%rbx, %rbx
	js	.L256
	call	_ZNSt3_V215system_categoryEv@PLT
	movq	%rbx, 40(%r14)
	movl	$1, %r8d
	movl	$0, 24(%r14)
	movq	%rax, 32(%r14)
.L232:
	movq	120(%rsp), %rax
	xorq	%fs:40, %rax
	jne	.L287
	addq	$136, %rsp
	.cfi_remember_state
	.cfi_def_cfa_offset 56
	movl	%r8d, %eax
	popq	%rbx
	.cfi_def_cfa_offset 48
	popq	%rbp
	.cfi_def_cfa_offset 40
	popq	%r12
	.cfi_def_cfa_offset 32
	popq	%r13
	.cfi_def_cfa_offset 24
	popq	%r14
	.cfi_def_cfa_offset 16
	popq	%r15
	.cfi_def_cfa_offset 8
	ret
	.p2align 4,,10
	.p2align 3
.L256:
	.cfi_restore_state
	movq	$0, 40(%r14)
	movl	$1, %r8d
	jmp	.L232
	.p2align 4,,10
	.p2align 3
.L279:
	movq	%rbp, %rdi
	call	__cxa_guard_acquire@PLT
	testl	%eax, %eax
	je	.L234
	movq	_ZN4asio6detail15system_categoryD1Ev@GOTPCREL(%rip), %rdi
	leaq	__dso_handle(%rip), %rdx
	movq	%r12, %rsi
	call	__cxa_atexit@PLT
	movq	%rbp, %rdi
	call	__cxa_guard_release@PLT
	jmp	.L234
	.p2align 4,,10
	.p2align 3
.L281:
	movq	%rbp, %rdi
	call	__cxa_guard_acquire@PLT
	testl	%eax, %eax
	je	.L243
	movq	_ZN4asio6detail15system_categoryD1Ev@GOTPCREL(%rip), %rdi
	leaq	__dso_handle(%rip), %rdx
	movq	%r12, %rsi
	call	__cxa_atexit@PLT
	movq	%rbp, %rdi
	call	__cxa_guard_release@PLT
	cmpq	%r12, 32(%r14)
	jne	.L245
	.p2align 4,,10
	.p2align 3
.L282:
	cmpl	$4, 24(%r14)
	je	.L246
	movzbl	0(%rbp), %eax
	testb	%al, %al
	jne	.L248
.L283:
	movq	%rbp, %rdi
	call	__cxa_guard_acquire@PLT
	testl	%eax, %eax
	je	.L248
	movq	_ZN4asio6detail15system_categoryD1Ev@GOTPCREL(%rip), %rdi
	leaq	__dso_handle(%rip), %rdx
	movq	%r12, %rsi
	call	__cxa_atexit@PLT
	movq	%rbp, %rdi
	call	__cxa_guard_release@PLT
	cmpq	%r12, 32(%r14)
	jne	.L250
	.p2align 4,,10
	.p2align 3
.L284:
	cmpl	$11, 24(%r14)
	jne	.L250
.L255:
	xorl	%r8d, %r8d
	jmp	.L232
	.p2align 4,,10
	.p2align 3
.L285:
	movq	%rbp, %rdi
	call	__cxa_guard_acquire@PLT
	testl	%eax, %eax
	je	.L252
	movq	_ZN4asio6detail15system_categoryD1Ev@GOTPCREL(%rip), %rdi
	leaq	__dso_handle(%rip), %rdx
	movq	%r12, %rsi
	call	__cxa_atexit@PLT
	movq	%rbp, %rdi
	call	__cxa_guard_release@PLT
	jmp	.L252
	.p2align 4,,10
	.p2align 3
.L286:
	cmpl	$11, 24(%r14)
	jne	.L254
	jmp	.L255
	.p2align 4,,10
	.p2align 3
.L280:
	movq	_ZGVZN4asio5error17get_misc_categoryEvE8instance@GOTPCREL(%rip), %rbp
	movzbl	0(%rbp), %eax
	testb	%al, %al
	je	.L238
.L278:
	movq	_ZZN4asio5error17get_misc_categoryEvE8instance@GOTPCREL(%rip), %rbx
.L239:
	movl	$2, 24(%r14)
	movq	%rbx, 32(%r14)
	jmp	.L232
	.p2align 4,,10
	.p2align 3
.L238:
	movq	%rbp, %rdi
	movb	%r8b, 24(%rsp)
	call	__cxa_guard_acquire@PLT
	movzbl	24(%rsp), %r8d
	testl	%eax, %eax
	je	.L278
	movq	_ZZN4asio5error17get_misc_categoryEvE8instance@GOTPCREL(%rip), %rbx
	movq	_ZN4asio5error6detail13misc_categoryD1Ev@GOTPCREL(%rip), %rdi
	movb	%r8b, 24(%rsp)
	leaq	__dso_handle(%rip), %rdx
	movq	%rbx, %rsi
	call	__cxa_atexit@PLT
	movq	%rbp, %rdi
	call	__cxa_guard_release@PLT
	movzbl	24(%rsp), %r8d
	jmp	.L239
.L287:
	call	__stack_chk_fail@PLT
	.cfi_endproc
.LFE8876:
	.size	_ZN4asio6detail28reactive_socket_recv_op_baseINS_17mutable_buffers_1EE10do_performEPNS0_10reactor_opE, .-_ZN4asio6detail28reactive_socket_recv_op_baseINS_17mutable_buffers_1EE10do_performEPNS0_10reactor_opE
	.section	.rodata._ZNK4asio6detail15system_category7messageB5cxx11Ei.str1.8,"aMS",@progbits,1
	.align 8
.LC6:
	.string	"basic_string::_M_construct null not valid"
	.section	.text._ZNK4asio6detail15system_category7messageB5cxx11Ei,"axG",@progbits,_ZNK4asio6detail15system_category7messageB5cxx11Ei,comdat
	.align 2
	.p2align 4
	.weak	_ZNK4asio6detail15system_category7messageB5cxx11Ei
	.type	_ZNK4asio6detail15system_category7messageB5cxx11Ei, @function
_ZNK4asio6detail15system_category7messageB5cxx11Ei:
.LFB2351:
	.cfi_startproc
	endbr64
	pushq	%r14
	.cfi_def_cfa_offset 16
	.cfi_offset 14, -16
	pushq	%r13
	.cfi_def_cfa_offset 24
	.cfi_offset 13, -24
	pushq	%r12
	.cfi_def_cfa_offset 32
	.cfi_offset 12, -32
	movq	%rdi, %r12
	pushq	%rbp
	.cfi_def_cfa_offset 40
	.cfi_offset 6, -40
	leaq	16(%rdi), %rbp
	subq	$296, %rsp
	.cfi_def_cfa_offset 336
	movq	%fs:40, %rax
	movq	%rax, 280(%rsp)
	xorl	%eax, %eax
	cmpl	$125, %edx
	je	.L301
	pxor	%xmm0, %xmm0
	movl	%edx, %edi
	leaq	16(%rsp), %rsi
	movl	$256, %edx
	movaps	%xmm0, 16(%rsp)
	movaps	%xmm0, 32(%rsp)
	movaps	%xmm0, 48(%rsp)
	movaps	%xmm0, 64(%rsp)
	movaps	%xmm0, 80(%rsp)
	movaps	%xmm0, 96(%rsp)
	movaps	%xmm0, 112(%rsp)
	movaps	%xmm0, 128(%rsp)
	movaps	%xmm0, 144(%rsp)
	movaps	%xmm0, 160(%rsp)
	movaps	%xmm0, 176(%rsp)
	movaps	%xmm0, 192(%rsp)
	movaps	%xmm0, 208(%rsp)
	movaps	%xmm0, 224(%rsp)
	movaps	%xmm0, 240(%rsp)
	movaps	%xmm0, 256(%rsp)
	call	strerror_r@PLT
	movq	%rbp, (%r12)
	movq	%rax, %r14
	testq	%rax, %rax
	je	.L302
	movq	%rax, %rdi
	call	strlen@PLT
	movq	%rax, 8(%rsp)
	movq	%rax, %r13
	cmpq	$15, %rax
	ja	.L303
	cmpq	$1, %rax
	jne	.L294
	movzbl	(%r14), %edx
	movb	%dl, 16(%r12)
.L295:
	movq	%rax, 8(%r12)
	movb	$0, 0(%rbp,%rax)
.L288:
	movq	280(%rsp), %rax
	xorq	%fs:40, %rax
	jne	.L304
	addq	$296, %rsp
	.cfi_remember_state
	.cfi_def_cfa_offset 40
	movq	%r12, %rax
	popq	%rbp
	.cfi_def_cfa_offset 32
	popq	%r12
	.cfi_def_cfa_offset 24
	popq	%r13
	.cfi_def_cfa_offset 16
	popq	%r14
	.cfi_def_cfa_offset 8
	ret
	.p2align 4,,10
	.p2align 3
.L303:
	.cfi_restore_state
	leaq	8(%rsp), %rsi
	xorl	%edx, %edx
	movq	%r12, %rdi
	call	_ZNSt7__cxx1112basic_stringIcSt11char_traitsIcESaIcEE9_M_createERmm@PLT
	movq	%rax, (%r12)
	movq	%rax, %rbp
	movq	8(%rsp), %rax
	movq	%rax, 16(%r12)
.L293:
	movq	%rbp, %rdi
	movq	%r13, %rdx
	movq	%r14, %rsi
	call	memcpy@PLT
	movq	8(%rsp), %rax
	movq	(%r12), %rbp
	jmp	.L295
	.p2align 4,,10
	.p2align 3
.L301:
	movq	%rbp, (%rdi)
	xorl	%edx, %edx
	leaq	8(%rsp), %rsi
	movq	$18, 8(%rsp)
	call	_ZNSt7__cxx1112basic_stringIcSt11char_traitsIcESaIcEE9_M_createERmm@PLT
	movq	8(%rsp), %rdx
	movdqa	.LC7(%rip), %xmm0
	movq	%rax, (%r12)
	movq	%rdx, 16(%r12)
	movl	$11876, %edx
	movw	%dx, 16(%rax)
	movups	%xmm0, (%rax)
	movq	8(%rsp), %rax
	movq	(%r12), %rdx
	movq	%rax, 8(%r12)
	movb	$0, (%rdx,%rax)
	jmp	.L288
	.p2align 4,,10
	.p2align 3
.L294:
	testq	%rax, %rax
	je	.L295
	jmp	.L293
	.p2align 4,,10
	.p2align 3
.L302:
	leaq	.LC6(%rip), %rdi
	call	_ZSt19__throw_logic_errorPKc@PLT
.L304:
	call	__stack_chk_fail@PLT
	.cfi_endproc
.LFE2351:
	.size	_ZNK4asio6detail15system_category7messageB5cxx11Ei, .-_ZNK4asio6detail15system_category7messageB5cxx11Ei
	.section	.text._ZNK4asio5error6detail17addrinfo_category7messageB5cxx11Ei,"axG",@progbits,_ZNK4asio5error6detail17addrinfo_category7messageB5cxx11Ei,comdat
	.align 2
	.p2align 4
	.weak	_ZNK4asio5error6detail17addrinfo_category7messageB5cxx11Ei
	.type	_ZNK4asio5error6detail17addrinfo_category7messageB5cxx11Ei, @function
_ZNK4asio5error6detail17addrinfo_category7messageB5cxx11Ei:
.LFB2397:
	.cfi_startproc
	endbr64
	pushq	%r12
	.cfi_def_cfa_offset 16
	.cfi_offset 12, -16
	movq	%rdi, %r12
	subq	$16, %rsp
	.cfi_def_cfa_offset 32
	movq	%fs:40, %rax
	movq	%rax, 8(%rsp)
	xorl	%eax, %eax
	leaq	16(%rdi), %rax
	movq	%rax, (%rdi)
	cmpl	$-8, %edx
	je	.L311
	cmpl	$-7, %edx
	je	.L312
	xorl	%edx, %edx
	movq	%rsp, %rsi
	movq	$19, (%rsp)
	call	_ZNSt7__cxx1112basic_stringIcSt11char_traitsIcESaIcEE9_M_createERmm@PLT
	movq	(%rsp), %rdx
	movdqa	.LC10(%rip), %xmm0
	movq	%rax, (%r12)
	movq	%rdx, 16(%r12)
	movl	$28530, %edx
	movw	%dx, 16(%rax)
	movb	$114, 18(%rax)
	movups	%xmm0, (%rax)
	movq	(%rsp), %rax
	movq	(%r12), %rdx
	movq	%rax, 8(%r12)
	movb	$0, (%rdx,%rax)
.L305:
	movq	8(%rsp), %rax
	xorq	%fs:40, %rax
	jne	.L313
	addq	$16, %rsp
	.cfi_remember_state
	.cfi_def_cfa_offset 16
	movq	%r12, %rax
	popq	%r12
	.cfi_def_cfa_offset 8
	ret
	.p2align 4,,10
	.p2align 3
.L312:
	.cfi_restore_state
	xorl	%edx, %edx
	movq	%rsp, %rsi
	movq	$25, (%rsp)
	call	_ZNSt7__cxx1112basic_stringIcSt11char_traitsIcESaIcEE9_M_createERmm@PLT
	movq	(%rsp), %rdx
	movdqa	.LC9(%rip), %xmm0
	movabsq	$7310593918082512243, %rcx
	movq	%rax, (%r12)
	movq	%rdx, 16(%r12)
	movq	%rcx, 16(%rax)
	movb	$100, 24(%rax)
	movups	%xmm0, (%rax)
	movq	(%rsp), %rax
	movq	(%r12), %rdx
	movq	%rax, 8(%r12)
	movb	$0, (%rdx,%rax)
	jmp	.L305
	.p2align 4,,10
	.p2align 3
.L311:
	xorl	%edx, %edx
	movq	%rsp, %rsi
	movq	$17, (%rsp)
	call	_ZNSt7__cxx1112basic_stringIcSt11char_traitsIcESaIcEE9_M_createERmm@PLT
	movq	(%rsp), %rdx
	movdqa	.LC8(%rip), %xmm0
	movq	%rax, (%r12)
	movq	%rdx, 16(%r12)
	movb	$100, 16(%rax)
	movups	%xmm0, (%rax)
	movq	(%rsp), %rax
	movq	(%r12), %rdx
	movq	%rax, 8(%r12)
	movb	$0, (%rdx,%rax)
	jmp	.L305
.L313:
	call	__stack_chk_fail@PLT
	.cfi_endproc
.LFE2397:
	.size	_ZNK4asio5error6detail17addrinfo_category7messageB5cxx11Ei, .-_ZNK4asio5error6detail17addrinfo_category7messageB5cxx11Ei
	.section	.text._ZNK4asio5error6detail14netdb_category7messageB5cxx11Ei,"axG",@progbits,_ZNK4asio5error6detail14netdb_category7messageB5cxx11Ei,comdat
	.align 2
	.p2align 4
	.weak	_ZNK4asio5error6detail14netdb_category7messageB5cxx11Ei
	.type	_ZNK4asio5error6detail14netdb_category7messageB5cxx11Ei, @function
_ZNK4asio5error6detail14netdb_category7messageB5cxx11Ei:
.LFB2391:
	.cfi_startproc
	endbr64
	pushq	%r12
	.cfi_def_cfa_offset 16
	.cfi_offset 12, -16
	movq	%rdi, %r12
	subq	$16, %rsp
	.cfi_def_cfa_offset 32
	movq	%fs:40, %rax
	movq	%rax, 8(%rsp)
	xorl	%eax, %eax
	leaq	16(%rdi), %rax
	movq	%rax, (%rdi)
	cmpl	$1, %edx
	je	.L322
	cmpl	$2, %edx
	je	.L323
	cmpl	$4, %edx
	je	.L324
	cmpl	$3, %edx
	je	.L325
	xorl	%edx, %edx
	movq	%rsp, %rsi
	movq	$16, (%rsp)
	call	_ZNSt7__cxx1112basic_stringIcSt11char_traitsIcESaIcEE9_M_createERmm@PLT
	movq	(%rsp), %rdx
	movdqa	.LC20(%rip), %xmm0
	movq	%rax, (%r12)
	movq	%rdx, 16(%r12)
	movups	%xmm0, (%rax)
	movq	(%rsp), %rax
	movq	(%r12), %rdx
	movq	%rax, 8(%r12)
	movb	$0, (%rdx,%rax)
.L314:
	movq	8(%rsp), %rax
	xorq	%fs:40, %rax
	jne	.L326
	addq	$16, %rsp
	.cfi_remember_state
	.cfi_def_cfa_offset 16
	movq	%r12, %rax
	popq	%r12
	.cfi_def_cfa_offset 8
	ret
	.p2align 4,,10
	.p2align 3
.L322:
	.cfi_restore_state
	movq	%rsp, %rsi
	xorl	%edx, %edx
	movq	$30, (%rsp)
	call	_ZNSt7__cxx1112basic_stringIcSt11char_traitsIcESaIcEE9_M_createERmm@PLT
	movq	(%rsp), %rdx
	movl	$10597, %esi
	movdqa	.LC11(%rip), %xmm0
	movabsq	$8388361603773658465, %rcx
	movq	%rax, (%r12)
	movq	%rdx, 16(%r12)
	movq	%rcx, 16(%rax)
	movl	$1986622561, 24(%rax)
	movw	%si, 28(%rax)
	movups	%xmm0, (%rax)
	movq	(%rsp), %rax
	movq	(%r12), %rdx
	movq	%rax, 8(%r12)
	movb	$0, (%rdx,%rax)
	jmp	.L314
	.p2align 4,,10
	.p2align 3
.L325:
	xorl	%edx, %edx
	movq	%rsp, %rsi
	movq	$55, (%rsp)
	call	_ZNSt7__cxx1112basic_stringIcSt11char_traitsIcESaIcEE9_M_createERmm@PLT
	movq	(%rsp), %rdx
	movdqa	.LC17(%rip), %xmm0
	movq	%rax, (%r12)
	movq	%rdx, 16(%r12)
	movl	$30059, %edx
	movups	%xmm0, (%rax)
	movdqa	.LC18(%rip), %xmm0
	movl	$1869573152, 48(%rax)
	movups	%xmm0, 16(%rax)
	movdqa	.LC19(%rip), %xmm0
	movw	%dx, 52(%rax)
	movb	$112, 54(%rax)
	movups	%xmm0, 32(%rax)
	movq	(%rsp), %rax
	movq	(%r12), %rdx
	movq	%rax, 8(%r12)
	movb	$0, (%rdx,%rax)
	jmp	.L314
	.p2align 4,,10
	.p2align 3
.L323:
	xorl	%edx, %edx
	movq	%rsp, %rsi
	movq	$51, (%rsp)
	call	_ZNSt7__cxx1112basic_stringIcSt11char_traitsIcESaIcEE9_M_createERmm@PLT
	movq	(%rsp), %rdx
	movl	$25972, %ecx
	movdqa	.LC11(%rip), %xmm0
	movq	%rax, (%r12)
	movq	%rdx, 16(%r12)
	movups	%xmm0, (%rax)
	movdqa	.LC12(%rip), %xmm0
	movw	%cx, 48(%rax)
	movups	%xmm0, 16(%rax)
	movdqa	.LC13(%rip), %xmm0
	movb	$114, 50(%rax)
	movups	%xmm0, 32(%rax)
	movq	(%rsp), %rax
	movq	(%r12), %rdx
	movq	%rax, 8(%r12)
	movb	$0, (%rdx,%rax)
	jmp	.L314
	.p2align 4,,10
	.p2align 3
.L324:
	xorl	%edx, %edx
	movq	%rsp, %rsi
	movq	$56, (%rsp)
	call	_ZNSt7__cxx1112basic_stringIcSt11char_traitsIcESaIcEE9_M_createERmm@PLT
	movq	(%rsp), %rdx
	movdqa	.LC14(%rip), %xmm0
	movabsq	$7022344801645520244, %rcx
	movq	%rax, (%r12)
	movq	%rdx, 16(%r12)
	movups	%xmm0, (%rax)
	movdqa	.LC15(%rip), %xmm0
	movq	%rcx, 48(%rax)
	movups	%xmm0, 16(%rax)
	movdqa	.LC16(%rip), %xmm0
	movups	%xmm0, 32(%rax)
	movq	(%rsp), %rax
	movq	(%r12), %rdx
	movq	%rax, 8(%r12)
	movb	$0, (%rdx,%rax)
	jmp	.L314
.L326:
	call	__stack_chk_fail@PLT
	.cfi_endproc
.LFE2391:
	.size	_ZNK4asio5error6detail14netdb_category7messageB5cxx11Ei, .-_ZNK4asio5error6detail14netdb_category7messageB5cxx11Ei
	.section	.text._ZNK4asio5error6detail13misc_category7messageB5cxx11Ei,"axG",@progbits,_ZNK4asio5error6detail13misc_category7messageB5cxx11Ei,comdat
	.align 2
	.p2align 4
	.weak	_ZNK4asio5error6detail13misc_category7messageB5cxx11Ei
	.type	_ZNK4asio5error6detail13misc_category7messageB5cxx11Ei, @function
_ZNK4asio5error6detail13misc_category7messageB5cxx11Ei:
.LFB2403:
	.cfi_startproc
	endbr64
	pushq	%r12
	.cfi_def_cfa_offset 16
	.cfi_offset 12, -16
	movq	%rdi, %r12
	subq	$16, %rsp
	.cfi_def_cfa_offset 32
	movq	%fs:40, %rax
	movq	%rax, 8(%rsp)
	xorl	%eax, %eax
	leaq	16(%rdi), %rax
	movq	%rax, (%rdi)
	cmpl	$1, %edx
	je	.L335
	cmpl	$2, %edx
	je	.L336
	cmpl	$3, %edx
	je	.L337
	cmpl	$4, %edx
	je	.L338
	movabsq	$8316298233121436513, %rcx
	movl	$28530, %edx
	movq	%rcx, 16(%rdi)
	movl	$1919230051, 8(%rax)
	movw	%dx, 12(%rax)
	movb	$114, 14(%rax)
	movq	$15, 8(%rdi)
	movb	$0, 31(%rdi)
.L327:
	movq	8(%rsp), %rax
	xorq	%fs:40, %rax
	jne	.L339
	addq	$16, %rsp
	.cfi_remember_state
	.cfi_def_cfa_offset 16
	movq	%r12, %rax
	popq	%r12
	.cfi_def_cfa_offset 8
	ret
	.p2align 4,,10
	.p2align 3
.L335:
	.cfi_restore_state
	movabsq	$2340011850872286273, %rcx
	movq	%rcx, 16(%rdi)
	movl	$1852141679, 8(%rax)
	movq	$12, 8(%rdi)
	movb	$0, 28(%rdi)
	jmp	.L327
	.p2align 4,,10
	.p2align 3
.L338:
	movq	%rsp, %rsi
	xorl	%edx, %edx
	movq	$57, (%rsp)
	call	_ZNSt7__cxx1112basic_stringIcSt11char_traitsIcESaIcEE9_M_createERmm@PLT
	movq	(%rsp), %rdx
	movdqa	.LC22(%rip), %xmm0
	movabsq	$7310291504967217959, %rsi
	movq	%rax, (%r12)
	movq	%rdx, 16(%r12)
	movups	%xmm0, (%rax)
	movdqa	.LC23(%rip), %xmm0
	movq	%rsi, 48(%rax)
	movups	%xmm0, 16(%rax)
	movdqa	.LC24(%rip), %xmm0
	movb	$116, 56(%rax)
	movups	%xmm0, 32(%rax)
	movq	(%rsp), %rax
	movq	(%r12), %rdx
	movq	%rax, 8(%r12)
	movb	$0, (%rdx,%rax)
	jmp	.L327
	.p2align 4,,10
	.p2align 3
.L336:
	movabsq	$7358994418594246213, %rcx
	movq	%rcx, 16(%rdi)
	movl	$27753, %ecx
	movw	%cx, 8(%rax)
	movb	$101, 10(%rax)
	movq	$11, 8(%rdi)
	movb	$0, 27(%rdi)
	jmp	.L327
	.p2align 4,,10
	.p2align 3
.L337:
	xorl	%edx, %edx
	movq	%rsp, %rsi
	movq	$17, (%rsp)
	call	_ZNSt7__cxx1112basic_stringIcSt11char_traitsIcESaIcEE9_M_createERmm@PLT
	movq	(%rsp), %rdx
	movdqa	.LC21(%rip), %xmm0
	movq	%rax, (%r12)
	movq	%rdx, 16(%r12)
	movb	$100, 16(%rax)
	movups	%xmm0, (%rax)
	movq	(%rsp), %rax
	movq	(%r12), %rdx
	movq	%rax, 8(%r12)
	movb	$0, (%rdx,%rax)
	jmp	.L327
.L339:
	call	__stack_chk_fail@PLT
	.cfi_endproc
.LFE2403:
	.size	_ZNK4asio5error6detail13misc_category7messageB5cxx11Ei, .-_ZNK4asio5error6detail13misc_category7messageB5cxx11Ei
	.section	.text._ZN4asio15system_categoryEv,"axG",@progbits,_ZN4asio15system_categoryEv,comdat
	.p2align 4
	.weak	_ZN4asio15system_categoryEv
	.type	_ZN4asio15system_categoryEv, @function
_ZN4asio15system_categoryEv:
.LFB2354:
	.cfi_startproc
	endbr64
	pushq	%r12
	.cfi_def_cfa_offset 16
	.cfi_offset 12, -16
	pushq	%rbp
	.cfi_def_cfa_offset 24
	.cfi_offset 6, -24
	subq	$8, %rsp
	.cfi_def_cfa_offset 32
	movq	_ZGVZN4asio15system_categoryEvE8instance@GOTPCREL(%rip), %rbp
	movzbl	0(%rbp), %eax
	testb	%al, %al
	je	.L341
.L348:
	movq	_ZZN4asio15system_categoryEvE8instance@GOTPCREL(%rip), %r12
	addq	$8, %rsp
	.cfi_remember_state
	.cfi_def_cfa_offset 24
	popq	%rbp
	.cfi_def_cfa_offset 16
	movq	%r12, %rax
	popq	%r12
	.cfi_def_cfa_offset 8
	ret
	.p2align 4,,10
	.p2align 3
.L341:
	.cfi_restore_state
	movq	%rbp, %rdi
	call	__cxa_guard_acquire@PLT
	testl	%eax, %eax
	je	.L348
	movq	_ZZN4asio15system_categoryEvE8instance@GOTPCREL(%rip), %r12
	movq	_ZN4asio6detail15system_categoryD1Ev@GOTPCREL(%rip), %rdi
	leaq	__dso_handle(%rip), %rdx
	movq	%r12, %rsi
	call	__cxa_atexit@PLT
	movq	%rbp, %rdi
	call	__cxa_guard_release@PLT
	addq	$8, %rsp
	.cfi_def_cfa_offset 24
	movq	%r12, %rax
	popq	%rbp
	.cfi_def_cfa_offset 16
	popq	%r12
	.cfi_def_cfa_offset 8
	ret
	.cfi_endproc
.LFE2354:
	.size	_ZN4asio15system_categoryEv, .-_ZN4asio15system_categoryEv
	.section	.text._ZN7asiopal13SocketChannelD0Ev,"axG",@progbits,_ZN7asiopal13SocketChannelD5Ev,comdat
	.align 2
	.p2align 4
	.weak	_ZN7asiopal13SocketChannelD0Ev
	.type	_ZN7asiopal13SocketChannelD0Ev, @function
_ZN7asiopal13SocketChannelD0Ev:
.LFB9266:
	.cfi_startproc
	.cfi_personality 0x9b,DW.ref.__gxx_personality_v0
	.cfi_lsda 0x1b,.LLSDA9266
	endbr64
	pushq	%r15
	.cfi_def_cfa_offset 16
	.cfi_offset 15, -16
	pushq	%r14
	.cfi_def_cfa_offset 24
	.cfi_offset 14, -24
	pushq	%r13
	.cfi_def_cfa_offset 32
	.cfi_offset 13, -32
	pushq	%r12
	.cfi_def_cfa_offset 40
	.cfi_offset 12, -40
	pushq	%rbp
	.cfi_def_cfa_offset 48
	.cfi_offset 6, -48
	movq	%rdi, %rbp
	pushq	%rbx
	.cfi_def_cfa_offset 56
	.cfi_offset 3, -56
	subq	$56, %rsp
	.cfi_def_cfa_offset 112
	movl	64(%rdi), %r13d
	movq	%fs:40, %rax
	movq	%rax, 40(%rsp)
	xorl	%eax, %eax
	movq	_ZTVN7asiopal13SocketChannelE@GOTPCREL(%rip), %rax
	addq	$16, %rax
	movq	%rax, (%rdi)
	cmpl	$-1, %r13d
	jne	.L486
.L350:
	movq	_ZTVN7asiopal13IAsyncChannelE@GOTPCREL(%rip), %rax
	movq	48(%rbp), %r12
	addq	$16, %rax
	movq	%rax, 0(%rbp)
	testq	%r12, %r12
	je	.L398
	movq	_ZL28__gthrw___pthread_key_createPjPFvPvE@GOTPCREL(%rip), %rbx
	testq	%rbx, %rbx
	je	.L399
	movl	$-1, %eax
	lock xaddl	%eax, 8(%r12)
	cmpl	$1, %eax
	je	.L487
	.p2align 4,,10
	.p2align 3
.L398:
	movq	32(%rbp), %r12
	testq	%r12, %r12
	je	.L405
	movq	_ZL28__gthrw___pthread_key_createPjPFvPvE@GOTPCREL(%rip), %rbx
	testq	%rbx, %rbx
	je	.L406
	movl	$-1, %eax
	lock xaddl	%eax, 8(%r12)
	cmpl	$1, %eax
	je	.L488
	.p2align 4,,10
	.p2align 3
.L405:
	movq	16(%rbp), %rdi
	testq	%rdi, %rdi
	je	.L412
	cmpq	$0, _ZL28__gthrw___pthread_key_createPjPFvPvE@GOTPCREL(%rip)
	je	.L413
	movl	$-1, %eax
	lock xaddl	%eax, 12(%rdi)
	cmpl	$1, %eax
	je	.L489
	.p2align 4,,10
	.p2align 3
.L412:
	movl	$96, %esi
	movq	%rbp, %rdi
	call	_ZdlPvm@PLT
	movq	40(%rsp), %rax
	xorq	%fs:40, %rax
	jne	.L490
	addq	$56, %rsp
	.cfi_remember_state
	.cfi_def_cfa_offset 56
	popq	%rbx
	.cfi_def_cfa_offset 48
	popq	%rbp
	.cfi_def_cfa_offset 40
	popq	%r12
	.cfi_def_cfa_offset 32
	popq	%r13
	.cfi_def_cfa_offset 24
	popq	%r14
	.cfi_def_cfa_offset 16
	popq	%r15
	.cfi_def_cfa_offset 8
	ret
	.p2align 4,,10
	.p2align 3
.L406:
	.cfi_restore_state
	movl	8(%r12), %eax
	leal	-1(%rax), %edx
	movl	%edx, 8(%r12)
	cmpl	$1, %eax
	jne	.L405
.L488:
	movq	(%r12), %rax
	movq	%r12, %rdi
	call	*16(%rax)
	testq	%rbx, %rbx
	je	.L409
	movl	$-1, %eax
	lock xaddl	%eax, 12(%r12)
.L410:
	cmpl	$1, %eax
	jne	.L405
	movq	(%r12), %rax
	movq	%r12, %rdi
	call	*24(%rax)
	jmp	.L405
	.p2align 4,,10
	.p2align 3
.L399:
	movl	8(%r12), %eax
	leal	-1(%rax), %edx
	movl	%edx, 8(%r12)
	cmpl	$1, %eax
	jne	.L398
.L487:
	movq	(%r12), %rax
	movq	%r12, %rdi
	call	*16(%rax)
	testq	%rbx, %rbx
	je	.L402
	movl	$-1, %eax
	lock xaddl	%eax, 12(%r12)
.L403:
	cmpl	$1, %eax
	jne	.L398
	movq	(%r12), %rax
	movq	%r12, %rdi
	call	*24(%rax)
	jmp	.L398
	.p2align 4,,10
	.p2align 3
.L413:
	movl	12(%rdi), %eax
	leal	-1(%rax), %edx
	movl	%edx, 12(%rdi)
	cmpl	$1, %eax
	jne	.L412
.L489:
	movq	(%rdi), %rax
	call	*24(%rax)
	jmp	.L412
	.p2align 4,,10
	.p2align 3
.L486:
	movq	72(%rdi), %r12
	testq	%r12, %r12
	je	.L380
	movq	88(%rdi), %rax
	movzbl	68(%rdi), %ebx
	movq	40(%rax), %rax
	movq	%rax, (%rsp)
	leaq	40(%r12), %rax
	movq	%rax, %rdi
	movq	%rax, 8(%rsp)
	call	pthread_mutex_lock@PLT
	movq	72(%rbp), %rdi
	cmpb	$0, 144(%rdi)
	jne	.L352
	andl	$64, %ebx
	jne	.L491
.L353:
	movl	$96, %ebx
	xorl	%r14d, %r14d
	xorl	%r13d, %r13d
.L363:
	movq	(%rdi,%rbx), %r12
	testq	%r12, %r12
	je	.L354
	movq	_ZGVZN4asio15system_categoryEvE8instance@GOTPCREL(%rip), %r15
	movzbl	(%r15), %eax
	testb	%al, %al
	je	.L492
	.p2align 4,,10
	.p2align 3
.L357:
	movq	72(%rbp), %rdi
	movq	_ZZN4asio15system_categoryEvE8instance@GOTPCREL(%rip), %rax
	movl	$125, 24(%r12)
	leaq	(%rdi,%rbx), %rsi
	movq	%rax, 32(%r12)
	movq	(%rsi), %rdx
	testq	%rdx, %rdx
	je	.L359
	movq	(%rdx), %rax
	movq	%rax, (%rsi)
	testq	%rax, %rax
	je	.L493
	movq	$0, (%rdx)
	movq	$0, (%r12)
	testq	%r14, %r14
	je	.L494
.L416:
	movq	%r12, (%r14)
	testq	%rax, %rax
	je	.L361
.L362:
	movq	%r12, %r14
	movq	%rax, %r12
	movzbl	(%r15), %eax
	testb	%al, %al
	jne	.L357
.L492:
	movq	%r15, %rdi
	call	__cxa_guard_acquire@PLT
	testl	%eax, %eax
	je	.L357
	movq	_ZZN4asio15system_categoryEvE8instance@GOTPCREL(%rip), %rsi
	movq	_ZN4asio6detail15system_categoryD1Ev@GOTPCREL(%rip), %rdi
	leaq	__dso_handle(%rip), %rdx
	call	__cxa_atexit@PLT
	movq	%r15, %rdi
	call	__cxa_guard_release@PLT
	jmp	.L357
	.p2align 4,,10
	.p2align 3
.L352:
	movq	8(%rsp), %rdi
	call	pthread_mutex_unlock@PLT
.L480:
	movl	64(%rbp), %r13d
	cmpl	$-1, %r13d
	je	.L350
.L380:
	call	__errno_location@PLT
	movzbl	68(%rbp), %r12d
	movq	%rax, %rbx
	testb	$8, %r12b
	jne	.L477
	movq	_ZGVZN4asio15system_categoryEvE8instance@GOTPCREL(%rip), %r15
.L382:
	movl	$0, (%rbx)
	movl	%r13d, %edi
	call	close@PLT
	movl	%eax, %r12d
	movzbl	(%r15), %eax
	testb	%al, %al
	je	.L495
.L387:
	testl	%r12d, %r12d
	je	.L350
	movl	(%rbx), %r12d
	movzbl	(%r15), %eax
	testb	%al, %al
	je	.L496
.L391:
	cmpl	$11, %r12d
	je	.L393
.L485:
	movzbl	(%r15), %eax
	testb	%al, %al
	jne	.L350
	movq	%r15, %rdi
	call	__cxa_guard_acquire@PLT
	testl	%eax, %eax
	je	.L350
	movq	_ZZN4asio15system_categoryEvE8instance@GOTPCREL(%rip), %rsi
	movq	_ZN4asio6detail15system_categoryD1Ev@GOTPCREL(%rip), %rdi
	leaq	__dso_handle(%rip), %rdx
	call	__cxa_atexit@PLT
	movq	%r15, %rdi
	call	__cxa_guard_release@PLT
	jmp	.L350
	.p2align 4,,10
	.p2align 3
.L359:
	movq	$0, (%r12)
	testq	%r14, %r14
	je	.L419
	movq	%r12, (%r14)
.L361:
	movq	%r12, %r14
.L354:
	addq	$16, %rbx
	cmpq	$144, %rbx
	jne	.L363
	movl	$-1, 88(%rdi)
	movb	$1, 144(%rdi)
	movq	8(%rsp), %rdi
	call	pthread_mutex_unlock@PLT
	movq	(%rsp), %r15
	movq	72(%rbp), %rbx
	leaq	120(%r15), %r12
	movq	%r12, %rdi
	call	pthread_mutex_lock@PLT
	cmpq	160(%r15), %rbx
	je	.L497
.L364:
	movq	32(%rbx), %rdx
	movq	24(%rbx), %rax
	testq	%rdx, %rdx
	je	.L365
	movq	%rax, 24(%rdx)
	movq	24(%rbx), %rax
.L365:
	testq	%rax, %rax
	je	.L366
	movq	32(%rbx), %rdx
	movq	%rdx, 32(%rax)
.L366:
	movq	(%rsp), %r15
	movq	%r12, %rdi
	movq	168(%r15), %rax
	movq	$0, 32(%rbx)
	movq	%rax, 24(%rbx)
	movq	%rbx, 168(%r15)
	call	pthread_mutex_unlock@PLT
	movq	$0, 72(%rbp)
	testq	%r13, %r13
	je	.L480
	movq	40(%r15), %rbx
	cmpb	$0, 40(%rbx)
	je	.L368
	data16	leaq	_ZN4asio6detail15keyword_tss_ptrINS0_10call_stackINS0_15task_io_serviceENS0_27task_io_service_thread_infoEE7contextEE6value_E@tlsgd(%rip), %rdi
	.value	0x6666
	rex64
	call	__tls_get_addr@PLT
	movq	(%rax), %rax
	testq	%rax, %rax
	jne	.L371
	jmp	.L368
	.p2align 4,,10
	.p2align 3
.L369:
	movq	16(%rax), %rax
	testq	%rax, %rax
	je	.L368
.L371:
	cmpq	(%rax), %rbx
	jne	.L369
	movq	8(%rax), %rax
	testq	%rax, %rax
	je	.L368
	movq	16(%rax), %rdx
	testq	%rdx, %rdx
	je	.L372
	movq	%r13, (%rdx)
.L373:
	movq	%r14, 16(%rax)
	jmp	.L480
	.p2align 4,,10
	.p2align 3
.L493:
	movq	$0, 8(%rsi)
	movq	$0, (%rdx)
	movq	$0, (%r12)
	testq	%r14, %r14
	jne	.L416
	.p2align 4,,10
	.p2align 3
.L419:
	movq	%r12, %r13
	jmp	.L361
	.p2align 4,,10
	.p2align 3
.L494:
	movq	%r12, %r13
	jmp	.L362
	.p2align 4,,10
	.p2align 3
.L495:
	movq	%r15, %rdi
	call	__cxa_guard_acquire@PLT
	testl	%eax, %eax
	je	.L387
	movq	_ZZN4asio15system_categoryEvE8instance@GOTPCREL(%rip), %rsi
	movq	_ZN4asio6detail15system_categoryD1Ev@GOTPCREL(%rip), %rdi
	leaq	__dso_handle(%rip), %rdx
	call	__cxa_atexit@PLT
	movq	%r15, %rdi
	call	__cxa_guard_release@PLT
	jmp	.L387
	.p2align 4,,10
	.p2align 3
.L477:
	orl	$8, %r12d
	leaq	28(%rsp), %rcx
	movl	$8, %r8d
	movl	%r13d, %edi
	movb	%r12b, 68(%rbp)
	movl	$13, %edx
	movl	$1, %esi
	movl	$0, (%rax)
	movq	$0, 28(%rsp)
	call	setsockopt@PLT
	movq	_ZGVZN4asio15system_categoryEvE8instance@GOTPCREL(%rip), %r15
	movzbl	(%r15), %eax
	testb	%al, %al
	jne	.L382
	movq	%r15, %rdi
	call	__cxa_guard_acquire@PLT
	testl	%eax, %eax
	je	.L382
	movq	_ZZN4asio15system_categoryEvE8instance@GOTPCREL(%rip), %rsi
	movq	_ZN4asio6detail15system_categoryD1Ev@GOTPCREL(%rip), %rdi
	leaq	__dso_handle(%rip), %rdx
	call	__cxa_atexit@PLT
	movq	%r15, %rdi
	call	__cxa_guard_release@PLT
	jmp	.L382
	.p2align 4,,10
	.p2align 3
.L402:
	movl	12(%r12), %eax
	leal	-1(%rax), %edx
	movl	%edx, 12(%r12)
	jmp	.L403
	.p2align 4,,10
	.p2align 3
.L409:
	movl	12(%r12), %eax
	leal	-1(%rax), %edx
	movl	%edx, 12(%r12)
	jmp	.L410
	.p2align 4,,10
	.p2align 3
.L368:
	leaq	48(%rbx), %r12
	movq	%r12, %rdi
	call	pthread_mutex_lock@PLT
	movq	200(%rbx), %rax
	testq	%rax, %rax
	je	.L375
	movq	%r13, (%rax)
.L376:
	movq	136(%rbx), %rax
	movq	%r14, 200(%rbx)
	orq	$1, %rax
	movq	%rax, 136(%rbx)
	cmpq	$1, %rax
	je	.L377
	movq	%r12, %rdi
	call	pthread_mutex_unlock@PLT
	leaq	88(%rbx), %rdi
	call	pthread_cond_signal@PLT
	jmp	.L480
	.p2align 4,,10
	.p2align 3
.L377:
	cmpb	$0, 176(%rbx)
	jne	.L379
	movq	144(%rbx), %rax
	testq	%rax, %rax
	je	.L379
	movb	$1, 176(%rbx)
	leaq	88(%rax), %rdx
	leaq	28(%rsp), %rcx
	movl	$3, %esi
	movl	$-2147483639, 28(%rsp)
	movq	%rdx, 32(%rsp)
	movl	88(%rax), %edx
	movl	96(%rax), %edi
	call	epoll_ctl@PLT
.L379:
	movq	%r12, %rdi
	call	pthread_mutex_unlock@PLT
	jmp	.L480
	.p2align 4,,10
	.p2align 3
.L491:
	movq	(%rsp), %rax
	movl	$0, 28(%rsp)
	leaq	28(%rsp), %rcx
	movl	%r13d, %edx
	movq	$0, 32(%rsp)
	movl	$2, %esi
	movl	96(%rax), %edi
	call	epoll_ctl@PLT
	movq	72(%rbp), %rdi
	jmp	.L353
	.p2align 4,,10
	.p2align 3
.L497:
	movq	24(%rbx), %rax
	movq	(%rsp), %rcx
	movq	%rax, 160(%rcx)
	jmp	.L364
	.p2align 4,,10
	.p2align 3
.L496:
	movq	%r15, %rdi
	call	__cxa_guard_acquire@PLT
	testl	%eax, %eax
	je	.L391
	movq	_ZZN4asio15system_categoryEvE8instance@GOTPCREL(%rip), %rsi
	movq	_ZN4asio6detail15system_categoryD1Ev@GOTPCREL(%rip), %rdi
	leaq	__dso_handle(%rip), %rdx
	call	__cxa_atexit@PLT
	movq	%r15, %rdi
	call	__cxa_guard_release@PLT
	jmp	.L391
	.p2align 4,,10
	.p2align 3
.L393:
	movl	%r13d, %edi
	leaq	28(%rsp), %rdx
	movl	$21537, %esi
	xorl	%eax, %eax
	movl	$0, 28(%rsp)
	call	ioctl@PLT
	andb	$-4, 68(%rbp)
	movl	%r13d, %edi
	movl	$0, (%rbx)
	call	close@PLT
	jmp	.L485
	.p2align 4,,10
	.p2align 3
.L375:
	movq	%r13, 192(%rbx)
	jmp	.L376
	.p2align 4,,10
	.p2align 3
.L372:
	movq	%r13, 8(%rax)
	jmp	.L373
.L490:
	call	__stack_chk_fail@PLT
	.cfi_endproc
.LFE9266:
	.section	.gcc_except_table
.LLSDA9266:
	.byte	0xff
	.byte	0xff
	.byte	0x1
	.uleb128 .LLSDACSE9266-.LLSDACSB9266
.LLSDACSB9266:
.LLSDACSE9266:
	.section	.text._ZN7asiopal13SocketChannelD0Ev,"axG",@progbits,_ZN7asiopal13SocketChannelD5Ev,comdat
	.size	_ZN7asiopal13SocketChannelD0Ev, .-_ZN7asiopal13SocketChannelD0Ev
	.text
	.align 2
	.p2align 4
	.globl	_ZN7asiopal13SocketChannel12ShutdownImplEv
	.type	_ZN7asiopal13SocketChannel12ShutdownImplEv, @function
_ZN7asiopal13SocketChannel12ShutdownImplEv:
.LFB6932:
	.cfi_startproc
	endbr64
	pushq	%r15
	.cfi_def_cfa_offset 16
	.cfi_offset 15, -16
	pushq	%r14
	.cfi_def_cfa_offset 24
	.cfi_offset 14, -24
	pushq	%r13
	.cfi_def_cfa_offset 32
	.cfi_offset 13, -32
	pushq	%r12
	.cfi_def_cfa_offset 40
	.cfi_offset 12, -40
	pushq	%rbp
	.cfi_def_cfa_offset 48
	.cfi_offset 6, -48
	pushq	%rbx
	.cfi_def_cfa_offset 56
	.cfi_offset 3, -56
	movq	%rdi, %rbx
	subq	$72, %rsp
	.cfi_def_cfa_offset 128
	movl	64(%rdi), %ebp
	movq	%fs:40, %rax
	movq	%rax, 56(%rsp)
	xorl	%eax, %eax
	cmpl	$-1, %ebp
	je	.L610
	call	__errno_location@PLT
	movl	$2, %esi
	movl	%ebp, %edi
	movl	$0, (%rax)
	call	shutdown@PLT
.L610:
	movq	_ZGVZN4asio15system_categoryEvE8instance@GOTPCREL(%rip), %rbp
	movzbl	0(%rbp), %eax
	testb	%al, %al
	je	.L615
.L501:
	movl	64(%rbx), %r13d
	cmpl	$-1, %r13d
	jne	.L616
.L534:
	movl	$-1, 64(%rbx)
	movb	$0, 68(%rbx)
	movq	56(%rsp), %rax
	xorq	%fs:40, %rax
	jne	.L617
	addq	$72, %rsp
	.cfi_remember_state
	.cfi_def_cfa_offset 56
	popq	%rbx
	.cfi_def_cfa_offset 48
	popq	%rbp
	.cfi_def_cfa_offset 40
	popq	%r12
	.cfi_def_cfa_offset 32
	popq	%r13
	.cfi_def_cfa_offset 24
	popq	%r14
	.cfi_def_cfa_offset 16
	popq	%r15
	.cfi_def_cfa_offset 8
	ret
	.p2align 4,,10
	.p2align 3
.L616:
	.cfi_restore_state
	movq	72(%rbx), %r12
	testq	%r12, %r12
	je	.L505
	movq	88(%rbx), %rax
	movzbl	68(%rbx), %r14d
	movq	40(%rax), %rax
	movq	%rax, 16(%rsp)
	leaq	40(%r12), %rax
	movq	%rax, %rdi
	movq	%rax, 24(%rsp)
	call	pthread_mutex_lock@PLT
	movq	72(%rbx), %rdi
	cmpb	$0, 144(%rdi)
	jne	.L506
	andl	$64, %r14d
	jne	.L618
.L507:
	movq	$0, 8(%rsp)
	movl	$96, %r12d
	xorl	%r15d, %r15d
.L517:
	movq	(%rdi,%r12), %r14
	testq	%r14, %r14
	je	.L508
	movq	_ZZN4asio15system_categoryEvE8instance@GOTPCREL(%rip), %r13
	movzbl	0(%rbp), %eax
	testb	%al, %al
	je	.L619
	.p2align 4,,10
	.p2align 3
.L511:
	movq	72(%rbx), %rdi
	movl	$125, 24(%r14)
	movq	%r13, 32(%r14)
	leaq	(%rdi,%r12), %rsi
	movq	(%rsi), %rdx
	testq	%rdx, %rdx
	je	.L513
	movq	(%rdx), %rax
	movq	%rax, (%rsi)
	testq	%rax, %rax
	je	.L620
	movq	$0, (%rdx)
	movq	$0, (%r14)
	testq	%r15, %r15
	je	.L621
.L545:
	movq	%r14, (%r15)
	testq	%rax, %rax
	je	.L515
.L516:
	movq	%r14, %r15
	movq	%rax, %r14
	movzbl	0(%rbp), %eax
	testb	%al, %al
	jne	.L511
.L619:
	movq	%rbp, %rdi
	call	__cxa_guard_acquire@PLT
	testl	%eax, %eax
	je	.L511
	movq	_ZN4asio6detail15system_categoryD1Ev@GOTPCREL(%rip), %rdi
	leaq	__dso_handle(%rip), %rdx
	movq	%r13, %rsi
	call	__cxa_atexit@PLT
	movq	%rbp, %rdi
	call	__cxa_guard_release@PLT
	jmp	.L511
	.p2align 4,,10
	.p2align 3
.L506:
	movq	24(%rsp), %rdi
	call	pthread_mutex_unlock@PLT
.L607:
	movl	64(%rbx), %r13d
	cmpl	$-1, %r13d
	je	.L534
.L505:
	call	__errno_location@PLT
	movl	%r13d, %edi
	movl	$0, (%rax)
	movq	%rax, %r12
	call	close@PLT
	movl	%eax, %r14d
	movzbl	0(%rbp), %eax
	testb	%al, %al
	je	.L622
.L536:
	testl	%r14d, %r14d
	je	.L534
	movl	(%r12), %r14d
	movzbl	0(%rbp), %eax
	testb	%al, %al
	je	.L623
.L539:
	cmpl	$11, %r14d
	je	.L541
.L614:
	movzbl	0(%rbp), %eax
	testb	%al, %al
	jne	.L534
	movq	%rbp, %rdi
	call	__cxa_guard_acquire@PLT
	testl	%eax, %eax
	je	.L534
	movq	_ZZN4asio15system_categoryEvE8instance@GOTPCREL(%rip), %rsi
	movq	_ZN4asio6detail15system_categoryD1Ev@GOTPCREL(%rip), %rdi
	leaq	__dso_handle(%rip), %rdx
	call	__cxa_atexit@PLT
	movq	%rbp, %rdi
	call	__cxa_guard_release@PLT
	jmp	.L534
	.p2align 4,,10
	.p2align 3
.L615:
	movq	%rbp, %rdi
	call	__cxa_guard_acquire@PLT
	testl	%eax, %eax
	je	.L501
	movq	_ZZN4asio15system_categoryEvE8instance@GOTPCREL(%rip), %r13
	movq	_ZN4asio6detail15system_categoryD1Ev@GOTPCREL(%rip), %rdi
	leaq	__dso_handle(%rip), %rdx
	movq	%r13, %rsi
	call	__cxa_atexit@PLT
	movq	%rbp, %rdi
	call	__cxa_guard_release@PLT
	jmp	.L501
	.p2align 4,,10
	.p2align 3
.L622:
	movq	%rbp, %rdi
	call	__cxa_guard_acquire@PLT
	testl	%eax, %eax
	je	.L536
	movq	_ZZN4asio15system_categoryEvE8instance@GOTPCREL(%rip), %rsi
	movq	_ZN4asio6detail15system_categoryD1Ev@GOTPCREL(%rip), %rdi
	leaq	__dso_handle(%rip), %rdx
	call	__cxa_atexit@PLT
	movq	%rbp, %rdi
	call	__cxa_guard_release@PLT
	jmp	.L536
	.p2align 4,,10
	.p2align 3
.L623:
	movq	%rbp, %rdi
	call	__cxa_guard_acquire@PLT
	testl	%eax, %eax
	je	.L539
	movq	_ZZN4asio15system_categoryEvE8instance@GOTPCREL(%rip), %rsi
	movq	_ZN4asio6detail15system_categoryD1Ev@GOTPCREL(%rip), %rdi
	leaq	__dso_handle(%rip), %rdx
	call	__cxa_atexit@PLT
	movq	%rbp, %rdi
	call	__cxa_guard_release@PLT
	jmp	.L539
	.p2align 4,,10
	.p2align 3
.L513:
	movq	$0, (%r14)
	testq	%r15, %r15
	je	.L548
	movq	%r14, (%r15)
.L515:
	movq	%r14, %r15
.L508:
	addq	$16, %r12
	cmpq	$144, %r12
	jne	.L517
	movl	$-1, 88(%rdi)
	movb	$1, 144(%rdi)
	movq	24(%rsp), %rdi
	call	pthread_mutex_unlock@PLT
	movq	16(%rsp), %r14
	movq	72(%rbx), %r12
	leaq	120(%r14), %r13
	movq	%r13, %rdi
	call	pthread_mutex_lock@PLT
	cmpq	160(%r14), %r12
	je	.L624
.L518:
	movq	32(%r12), %rdx
	movq	24(%r12), %rax
	testq	%rdx, %rdx
	je	.L519
	movq	%rax, 24(%rdx)
	movq	24(%r12), %rax
.L519:
	testq	%rax, %rax
	je	.L520
	movq	32(%r12), %rdx
	movq	%rdx, 32(%rax)
.L520:
	movq	16(%rsp), %r14
	movq	%r13, %rdi
	movq	168(%r14), %rax
	movq	$0, 32(%r12)
	movq	%rax, 24(%r12)
	movq	%r12, 168(%r14)
	call	pthread_mutex_unlock@PLT
	cmpq	$0, 8(%rsp)
	movq	$0, 72(%rbx)
	je	.L607
	movq	40(%r14), %r12
	cmpb	$0, 40(%r12)
	je	.L522
	data16	leaq	_ZN4asio6detail15keyword_tss_ptrINS0_10call_stackINS0_15task_io_serviceENS0_27task_io_service_thread_infoEE7contextEE6value_E@tlsgd(%rip), %rdi
	.value	0x6666
	rex64
	call	__tls_get_addr@PLT
	movq	(%rax), %rax
	testq	%rax, %rax
	jne	.L525
	jmp	.L522
	.p2align 4,,10
	.p2align 3
.L523:
	movq	16(%rax), %rax
	testq	%rax, %rax
	je	.L522
.L525:
	cmpq	(%rax), %r12
	jne	.L523
	movq	8(%rax), %rax
	testq	%rax, %rax
	je	.L522
	movq	16(%rax), %rdx
	movq	8(%rsp), %rcx
	testq	%rdx, %rdx
	je	.L526
	movq	%rcx, (%rdx)
.L527:
	movq	%r15, 16(%rax)
	jmp	.L607
	.p2align 4,,10
	.p2align 3
.L620:
	movq	$0, 8(%rsi)
	movq	$0, (%rdx)
	movq	$0, (%r14)
	testq	%r15, %r15
	jne	.L545
	.p2align 4,,10
	.p2align 3
.L548:
	movq	%r14, 8(%rsp)
	jmp	.L515
	.p2align 4,,10
	.p2align 3
.L621:
	movq	%r14, 8(%rsp)
	jmp	.L516
	.p2align 4,,10
	.p2align 3
.L522:
	leaq	48(%r12), %r13
	movq	%r13, %rdi
	call	pthread_mutex_lock@PLT
	movq	200(%r12), %rax
	testq	%rax, %rax
	je	.L529
	movq	8(%rsp), %rcx
	movq	%rcx, (%rax)
.L530:
	movq	136(%r12), %rax
	movq	%r15, 200(%r12)
	orq	$1, %rax
	movq	%rax, 136(%r12)
	cmpq	$1, %rax
	je	.L531
	movq	%r13, %rdi
	call	pthread_mutex_unlock@PLT
	leaq	88(%r12), %rdi
	call	pthread_cond_signal@PLT
	jmp	.L607
	.p2align 4,,10
	.p2align 3
.L531:
	cmpb	$0, 176(%r12)
	jne	.L533
	movq	144(%r12), %rax
	testq	%rax, %rax
	je	.L533
	leaq	88(%rax), %rdx
	leaq	44(%rsp), %rcx
	movl	$3, %esi
	movb	$1, 176(%r12)
	movl	$-2147483639, 44(%rsp)
	movq	%rdx, 48(%rsp)
	movl	88(%rax), %edx
	movl	96(%rax), %edi
	call	epoll_ctl@PLT
.L533:
	movq	%r13, %rdi
	call	pthread_mutex_unlock@PLT
	jmp	.L607
	.p2align 4,,10
	.p2align 3
.L618:
	movq	16(%rsp), %rax
	movl	$0, 44(%rsp)
	leaq	44(%rsp), %rcx
	movl	%r13d, %edx
	movq	$0, 48(%rsp)
	movl	$2, %esi
	movl	96(%rax), %edi
	call	epoll_ctl@PLT
	movq	72(%rbx), %rdi
	jmp	.L507
	.p2align 4,,10
	.p2align 3
.L624:
	movq	24(%r12), %rax
	movq	16(%rsp), %rcx
	movq	%rax, 160(%rcx)
	jmp	.L518
	.p2align 4,,10
	.p2align 3
.L541:
	movl	%r13d, %edi
	leaq	44(%rsp), %rdx
	movl	$21537, %esi
	xorl	%eax, %eax
	movl	$0, 44(%rsp)
	call	ioctl@PLT
	andb	$-4, 68(%rbx)
	movl	%r13d, %edi
	movl	$0, (%r12)
	call	close@PLT
	jmp	.L614
	.p2align 4,,10
	.p2align 3
.L529:
	movq	8(%rsp), %rax
	movq	%rax, 192(%r12)
	jmp	.L530
	.p2align 4,,10
	.p2align 3
.L526:
	movq	%rcx, 8(%rax)
	jmp	.L527
.L617:
	call	__stack_chk_fail@PLT
	.cfi_endproc
.LFE6932:
	.size	_ZN7asiopal13SocketChannel12ShutdownImplEv, .-_ZN7asiopal13SocketChannel12ShutdownImplEv
	.section	.text._ZN7asiopal13SocketChannelD2Ev,"axG",@progbits,_ZN7asiopal13SocketChannelD5Ev,comdat
	.align 2
	.p2align 4
	.weak	_ZN7asiopal13SocketChannelD2Ev
	.type	_ZN7asiopal13SocketChannelD2Ev, @function
_ZN7asiopal13SocketChannelD2Ev:
.LFB9264:
	.cfi_startproc
	.cfi_personality 0x9b,DW.ref.__gxx_personality_v0
	.cfi_lsda 0x1b,.LLSDA9264
	endbr64
	pushq	%r15
	.cfi_def_cfa_offset 16
	.cfi_offset 15, -16
	pushq	%r14
	.cfi_def_cfa_offset 24
	.cfi_offset 14, -24
	pushq	%r13
	.cfi_def_cfa_offset 32
	.cfi_offset 13, -32
	pushq	%r12
	.cfi_def_cfa_offset 40
	.cfi_offset 12, -40
	pushq	%rbp
	.cfi_def_cfa_offset 48
	.cfi_offset 6, -48
	pushq	%rbx
	.cfi_def_cfa_offset 56
	.cfi_offset 3, -56
	movq	%rdi, %rbx
	subq	$56, %rsp
	.cfi_def_cfa_offset 112
	movl	64(%rdi), %r12d
	movq	%fs:40, %rax
	movq	%rax, 40(%rsp)
	xorl	%eax, %eax
	movq	_ZTVN7asiopal13SocketChannelE@GOTPCREL(%rip), %rax
	addq	$16, %rax
	movq	%rax, (%rdi)
	cmpl	$-1, %r12d
	jne	.L761
.L626:
	movq	_ZTVN7asiopal13IAsyncChannelE@GOTPCREL(%rip), %rax
	movq	48(%rbx), %rbp
	addq	$16, %rax
	movq	%rax, (%rbx)
	testq	%rbp, %rbp
	je	.L674
	movq	_ZL28__gthrw___pthread_key_createPjPFvPvE@GOTPCREL(%rip), %r12
	testq	%r12, %r12
	je	.L675
	movl	$-1, %eax
	lock xaddl	%eax, 8(%rbp)
	cmpl	$1, %eax
	je	.L762
	.p2align 4,,10
	.p2align 3
.L674:
	movq	32(%rbx), %rbp
	testq	%rbp, %rbp
	je	.L681
	movq	_ZL28__gthrw___pthread_key_createPjPFvPvE@GOTPCREL(%rip), %r12
	testq	%r12, %r12
	je	.L682
	movl	$-1, %eax
	lock xaddl	%eax, 8(%rbp)
	cmpl	$1, %eax
	je	.L763
	.p2align 4,,10
	.p2align 3
.L681:
	movq	16(%rbx), %rdi
	testq	%rdi, %rdi
	je	.L625
	cmpq	$0, _ZL28__gthrw___pthread_key_createPjPFvPvE@GOTPCREL(%rip)
	je	.L689
	movl	$-1, %eax
	lock xaddl	%eax, 12(%rdi)
	cmpl	$1, %eax
	je	.L764
	.p2align 4,,10
	.p2align 3
.L625:
	movq	40(%rsp), %rax
	xorq	%fs:40, %rax
	jne	.L765
	addq	$56, %rsp
	.cfi_remember_state
	.cfi_def_cfa_offset 56
	popq	%rbx
	.cfi_def_cfa_offset 48
	popq	%rbp
	.cfi_def_cfa_offset 40
	popq	%r12
	.cfi_def_cfa_offset 32
	popq	%r13
	.cfi_def_cfa_offset 24
	popq	%r14
	.cfi_def_cfa_offset 16
	popq	%r15
	.cfi_def_cfa_offset 8
	ret
	.p2align 4,,10
	.p2align 3
.L682:
	.cfi_restore_state
	movl	8(%rbp), %eax
	leal	-1(%rax), %edx
	movl	%edx, 8(%rbp)
	cmpl	$1, %eax
	jne	.L681
.L763:
	movq	0(%rbp), %rax
	movq	%rbp, %rdi
	call	*16(%rax)
	testq	%r12, %r12
	je	.L685
	movl	$-1, %eax
	lock xaddl	%eax, 12(%rbp)
.L686:
	cmpl	$1, %eax
	jne	.L681
	movq	0(%rbp), %rax
	movq	%rbp, %rdi
	call	*24(%rax)
	jmp	.L681
	.p2align 4,,10
	.p2align 3
.L675:
	movl	8(%rbp), %eax
	leal	-1(%rax), %edx
	movl	%edx, 8(%rbp)
	cmpl	$1, %eax
	jne	.L674
.L762:
	movq	0(%rbp), %rax
	movq	%rbp, %rdi
	call	*16(%rax)
	testq	%r12, %r12
	je	.L678
	movl	$-1, %eax
	lock xaddl	%eax, 12(%rbp)
.L679:
	cmpl	$1, %eax
	jne	.L674
	movq	0(%rbp), %rax
	movq	%rbp, %rdi
	call	*24(%rax)
	jmp	.L674
	.p2align 4,,10
	.p2align 3
.L689:
	movl	12(%rdi), %eax
	leal	-1(%rax), %edx
	movl	%edx, 12(%rdi)
	cmpl	$1, %eax
	jne	.L625
.L764:
	movq	(%rdi), %rax
	call	*24(%rax)
	jmp	.L625
	.p2align 4,,10
	.p2align 3
.L761:
	movq	72(%rdi), %rbp
	testq	%rbp, %rbp
	je	.L656
	movq	88(%rdi), %rax
	movzbl	68(%rdi), %r13d
	movq	40(%rax), %rax
	movq	%rax, (%rsp)
	leaq	40(%rbp), %rax
	movq	%rax, %rdi
	movq	%rax, 8(%rsp)
	call	pthread_mutex_lock@PLT
	movq	72(%rbx), %rdi
	cmpb	$0, 144(%rdi)
	jne	.L628
	andl	$64, %r13d
	jne	.L766
.L629:
	movl	$96, %r12d
	xorl	%r14d, %r14d
	xorl	%r13d, %r13d
.L639:
	movq	(%rdi,%r12), %rbp
	testq	%rbp, %rbp
	je	.L630
	movq	_ZGVZN4asio15system_categoryEvE8instance@GOTPCREL(%rip), %r15
	movzbl	(%r15), %eax
	testb	%al, %al
	je	.L767
	.p2align 4,,10
	.p2align 3
.L633:
	movq	72(%rbx), %rdi
	movq	_ZZN4asio15system_categoryEvE8instance@GOTPCREL(%rip), %rax
	movl	$125, 24(%rbp)
	leaq	(%rdi,%r12), %rsi
	movq	%rax, 32(%rbp)
	movq	(%rsi), %rdx
	testq	%rdx, %rdx
	je	.L635
	movq	(%rdx), %rax
	movq	%rax, (%rsi)
	testq	%rax, %rax
	je	.L768
	movq	$0, (%rdx)
	movq	$0, 0(%rbp)
	testq	%r14, %r14
	je	.L769
.L692:
	movq	%rbp, (%r14)
	testq	%rax, %rax
	je	.L637
.L638:
	movq	%rbp, %r14
	movq	%rax, %rbp
	movzbl	(%r15), %eax
	testb	%al, %al
	jne	.L633
.L767:
	movq	%r15, %rdi
	call	__cxa_guard_acquire@PLT
	testl	%eax, %eax
	je	.L633
	movq	_ZZN4asio15system_categoryEvE8instance@GOTPCREL(%rip), %rsi
	movq	_ZN4asio6detail15system_categoryD1Ev@GOTPCREL(%rip), %rdi
	leaq	__dso_handle(%rip), %rdx
	call	__cxa_atexit@PLT
	movq	%r15, %rdi
	call	__cxa_guard_release@PLT
	jmp	.L633
	.p2align 4,,10
	.p2align 3
.L628:
	movq	8(%rsp), %rdi
	call	pthread_mutex_unlock@PLT
.L755:
	movl	64(%rbx), %r12d
	cmpl	$-1, %r12d
	je	.L626
.L656:
	call	__errno_location@PLT
	movzbl	68(%rbx), %r13d
	movq	%rax, %rbp
	testb	$8, %r13b
	jne	.L753
	movq	_ZGVZN4asio15system_categoryEvE8instance@GOTPCREL(%rip), %r15
.L658:
	movl	$0, 0(%rbp)
	movl	%r12d, %edi
	call	close@PLT
	movl	%eax, %r13d
	movzbl	(%r15), %eax
	testb	%al, %al
	je	.L770
.L663:
	testl	%r13d, %r13d
	je	.L626
	movl	0(%rbp), %r13d
	movzbl	(%r15), %eax
	testb	%al, %al
	je	.L771
.L667:
	cmpl	$11, %r13d
	je	.L669
.L760:
	movzbl	(%r15), %eax
	testb	%al, %al
	jne	.L626
	movq	%r15, %rdi
	call	__cxa_guard_acquire@PLT
	testl	%eax, %eax
	je	.L626
	movq	_ZZN4asio15system_categoryEvE8instance@GOTPCREL(%rip), %rsi
	movq	_ZN4asio6detail15system_categoryD1Ev@GOTPCREL(%rip), %rdi
	leaq	__dso_handle(%rip), %rdx
	call	__cxa_atexit@PLT
	movq	%r15, %rdi
	call	__cxa_guard_release@PLT
	jmp	.L626
	.p2align 4,,10
	.p2align 3
.L635:
	movq	$0, 0(%rbp)
	testq	%r14, %r14
	je	.L695
	movq	%rbp, (%r14)
.L637:
	movq	%rbp, %r14
.L630:
	addq	$16, %r12
	cmpq	$144, %r12
	jne	.L639
	movl	$-1, 88(%rdi)
	movb	$1, 144(%rdi)
	movq	8(%rsp), %rdi
	call	pthread_mutex_unlock@PLT
	movq	(%rsp), %r15
	movq	72(%rbx), %rbp
	leaq	120(%r15), %r12
	movq	%r12, %rdi
	call	pthread_mutex_lock@PLT
	cmpq	160(%r15), %rbp
	je	.L772
.L640:
	movq	32(%rbp), %rdx
	movq	24(%rbp), %rax
	testq	%rdx, %rdx
	je	.L641
	movq	%rax, 24(%rdx)
	movq	24(%rbp), %rax
.L641:
	testq	%rax, %rax
	je	.L642
	movq	32(%rbp), %rdx
	movq	%rdx, 32(%rax)
.L642:
	movq	(%rsp), %r15
	movq	%r12, %rdi
	movq	168(%r15), %rax
	movq	$0, 32(%rbp)
	movq	%rax, 24(%rbp)
	movq	%rbp, 168(%r15)
	call	pthread_mutex_unlock@PLT
	movq	$0, 72(%rbx)
	testq	%r13, %r13
	je	.L755
	movq	40(%r15), %rbp
	cmpb	$0, 40(%rbp)
	je	.L644
	data16	leaq	_ZN4asio6detail15keyword_tss_ptrINS0_10call_stackINS0_15task_io_serviceENS0_27task_io_service_thread_infoEE7contextEE6value_E@tlsgd(%rip), %rdi
	.value	0x6666
	rex64
	call	__tls_get_addr@PLT
	movq	(%rax), %rax
	testq	%rax, %rax
	jne	.L647
	jmp	.L644
	.p2align 4,,10
	.p2align 3
.L645:
	movq	16(%rax), %rax
	testq	%rax, %rax
	je	.L644
.L647:
	cmpq	(%rax), %rbp
	jne	.L645
	movq	8(%rax), %rax
	testq	%rax, %rax
	je	.L644
	movq	16(%rax), %rdx
	testq	%rdx, %rdx
	je	.L648
	movq	%r13, (%rdx)
.L649:
	movq	%r14, 16(%rax)
	jmp	.L755
	.p2align 4,,10
	.p2align 3
.L768:
	movq	$0, 8(%rsi)
	movq	$0, (%rdx)
	movq	$0, 0(%rbp)
	testq	%r14, %r14
	jne	.L692
	.p2align 4,,10
	.p2align 3
.L695:
	movq	%rbp, %r13
	jmp	.L637
	.p2align 4,,10
	.p2align 3
.L769:
	movq	%rbp, %r13
	jmp	.L638
	.p2align 4,,10
	.p2align 3
.L770:
	movq	%r15, %rdi
	call	__cxa_guard_acquire@PLT
	testl	%eax, %eax
	je	.L663
	movq	_ZZN4asio15system_categoryEvE8instance@GOTPCREL(%rip), %rsi
	movq	_ZN4asio6detail15system_categoryD1Ev@GOTPCREL(%rip), %rdi
	leaq	__dso_handle(%rip), %rdx
	call	__cxa_atexit@PLT
	movq	%r15, %rdi
	call	__cxa_guard_release@PLT
	jmp	.L663
	.p2align 4,,10
	.p2align 3
.L753:
	orl	$8, %r13d
	leaq	28(%rsp), %rcx
	movl	$8, %r8d
	movl	%r12d, %edi
	movb	%r13b, 68(%rbx)
	movl	$13, %edx
	movl	$1, %esi
	movl	$0, (%rax)
	movq	$0, 28(%rsp)
	call	setsockopt@PLT
	movq	_ZGVZN4asio15system_categoryEvE8instance@GOTPCREL(%rip), %r15
	movzbl	(%r15), %eax
	testb	%al, %al
	jne	.L658
	movq	%r15, %rdi
	call	__cxa_guard_acquire@PLT
	testl	%eax, %eax
	je	.L658
	movq	_ZZN4asio15system_categoryEvE8instance@GOTPCREL(%rip), %rsi
	movq	_ZN4asio6detail15system_categoryD1Ev@GOTPCREL(%rip), %rdi
	leaq	__dso_handle(%rip), %rdx
	call	__cxa_atexit@PLT
	movq	%r15, %rdi
	call	__cxa_guard_release@PLT
	jmp	.L658
	.p2align 4,,10
	.p2align 3
.L678:
	movl	12(%rbp), %eax
	leal	-1(%rax), %edx
	movl	%edx, 12(%rbp)
	jmp	.L679
	.p2align 4,,10
	.p2align 3
.L685:
	movl	12(%rbp), %eax
	leal	-1(%rax), %edx
	movl	%edx, 12(%rbp)
	jmp	.L686
	.p2align 4,,10
	.p2align 3
.L644:
	leaq	48(%rbp), %r12
	movq	%r12, %rdi
	call	pthread_mutex_lock@PLT
	movq	200(%rbp), %rax
	testq	%rax, %rax
	je	.L651
	movq	%r13, (%rax)
.L652:
	movq	136(%rbp), %rax
	movq	%r14, 200(%rbp)
	orq	$1, %rax
	movq	%rax, 136(%rbp)
	cmpq	$1, %rax
	je	.L653
	movq	%r12, %rdi
	call	pthread_mutex_unlock@PLT
	leaq	88(%rbp), %rdi
	call	pthread_cond_signal@PLT
	jmp	.L755
	.p2align 4,,10
	.p2align 3
.L653:
	cmpb	$0, 176(%rbp)
	jne	.L655
	movq	144(%rbp), %rax
	testq	%rax, %rax
	je	.L655
	movb	$1, 176(%rbp)
	leaq	88(%rax), %rdx
	leaq	28(%rsp), %rcx
	movl	$3, %esi
	movl	$-2147483639, 28(%rsp)
	movq	%rdx, 32(%rsp)
	movl	88(%rax), %edx
	movl	96(%rax), %edi
	call	epoll_ctl@PLT
.L655:
	movq	%r12, %rdi
	call	pthread_mutex_unlock@PLT
	jmp	.L755
	.p2align 4,,10
	.p2align 3
.L766:
	movq	(%rsp), %rax
	movl	$0, 28(%rsp)
	leaq	28(%rsp), %rcx
	movl	%r12d, %edx
	movq	$0, 32(%rsp)
	movl	$2, %esi
	movl	96(%rax), %edi
	call	epoll_ctl@PLT
	movq	72(%rbx), %rdi
	jmp	.L629
	.p2align 4,,10
	.p2align 3
.L772:
	movq	24(%rbp), %rax
	movq	(%rsp), %rcx
	movq	%rax, 160(%rcx)
	jmp	.L640
	.p2align 4,,10
	.p2align 3
.L771:
	movq	%r15, %rdi
	call	__cxa_guard_acquire@PLT
	testl	%eax, %eax
	je	.L667
	movq	_ZZN4asio15system_categoryEvE8instance@GOTPCREL(%rip), %rsi
	movq	_ZN4asio6detail15system_categoryD1Ev@GOTPCREL(%rip), %rdi
	leaq	__dso_handle(%rip), %rdx
	call	__cxa_atexit@PLT
	movq	%r15, %rdi
	call	__cxa_guard_release@PLT
	jmp	.L667
	.p2align 4,,10
	.p2align 3
.L669:
	movl	%r12d, %edi
	leaq	28(%rsp), %rdx
	movl	$21537, %esi
	xorl	%eax, %eax
	movl	$0, 28(%rsp)
	call	ioctl@PLT
	andb	$-4, 68(%rbx)
	movl	%r12d, %edi
	movl	$0, 0(%rbp)
	call	close@PLT
	jmp	.L760
	.p2align 4,,10
	.p2align 3
.L651:
	movq	%r13, 192(%rbp)
	jmp	.L652
	.p2align 4,,10
	.p2align 3
.L648:
	movq	%r13, 8(%rax)
	jmp	.L649
.L765:
	call	__stack_chk_fail@PLT
	.cfi_endproc
.LFE9264:
	.section	.gcc_except_table
.LLSDA9264:
	.byte	0xff
	.byte	0xff
	.byte	0x1
	.uleb128 .LLSDACSE9264-.LLSDACSB9264
.LLSDACSB9264:
.LLSDACSE9264:
	.section	.text._ZN7asiopal13SocketChannelD2Ev,"axG",@progbits,_ZN7asiopal13SocketChannelD5Ev,comdat
	.size	_ZN7asiopal13SocketChannelD2Ev, .-_ZN7asiopal13SocketChannelD2Ev
	.weak	_ZN7asiopal13SocketChannelD1Ev
	.set	_ZN7asiopal13SocketChannelD1Ev,_ZN7asiopal13SocketChannelD2Ev
	.section	.text._ZN4asio6detail15task_io_service25post_immediate_completionEPNS0_25task_io_service_operationEb,"axG",@progbits,_ZN4asio6detail15task_io_service25post_immediate_completionEPNS0_25task_io_service_operationEb,comdat
	.align 2
	.p2align 4
	.weak	_ZN4asio6detail15task_io_service25post_immediate_completionEPNS0_25task_io_service_operationEb
	.type	_ZN4asio6detail15task_io_service25post_immediate_completionEPNS0_25task_io_service_operationEb, @function
_ZN4asio6detail15task_io_service25post_immediate_completionEPNS0_25task_io_service_operationEb:
.LFB3306:
	.cfi_startproc
	endbr64
	pushq	%r12
	.cfi_def_cfa_offset 16
	.cfi_offset 12, -16
	pushq	%rbp
	.cfi_def_cfa_offset 24
	.cfi_offset 6, -24
	movq	%rsi, %rbp
	pushq	%rbx
	.cfi_def_cfa_offset 32
	.cfi_offset 3, -32
	movq	%rdi, %rbx
	subq	$32, %rsp
	.cfi_def_cfa_offset 64
	movq	%fs:40, %rax
	movq	%rax, 24(%rsp)
	xorl	%eax, %eax
	cmpb	$0, 40(%rdi)
	jne	.L787
	testb	%dl, %dl
	je	.L774
.L787:
	data16	leaq	_ZN4asio6detail15keyword_tss_ptrINS0_10call_stackINS0_15task_io_serviceENS0_27task_io_service_thread_infoEE7contextEE6value_E@tlsgd(%rip), %rdi
	.value	0x6666
	rex64
	call	__tls_get_addr@PLT
	movq	(%rax), %rax
	testq	%rax, %rax
	jne	.L778
	jmp	.L774
	.p2align 4,,10
	.p2align 3
.L776:
	movq	16(%rax), %rax
	testq	%rax, %rax
	je	.L774
.L778:
	cmpq	(%rax), %rbx
	jne	.L776
	movq	8(%rax), %rax
	testq	%rax, %rax
	je	.L774
	addq	$1, 24(%rax)
	cmpq	$0, 16(%rax)
	movq	$0, 0(%rbp)
	je	.L779
	movq	16(%rax), %rdx
	movq	%rbp, (%rdx)
	movq	%rbp, 16(%rax)
	jmp	.L773
	.p2align 4,,10
	.p2align 3
.L774:
	lock addq	$1, 184(%rbx)
	leaq	48(%rbx), %r12
	movq	%r12, %rdi
	call	pthread_mutex_lock@PLT
	cmpq	$0, 200(%rbx)
	movq	$0, 0(%rbp)
	je	.L781
	movq	200(%rbx), %rax
	movq	%rbp, (%rax)
	movq	%rbp, 200(%rbx)
.L782:
	movq	136(%rbx), %rax
	orq	$1, %rax
	movq	%rax, 136(%rbx)
	cmpq	$1, %rax
	je	.L783
	movq	%r12, %rdi
	call	pthread_mutex_unlock@PLT
	leaq	88(%rbx), %rdi
	call	pthread_cond_signal@PLT
.L773:
	movq	24(%rsp), %rax
	xorq	%fs:40, %rax
	jne	.L798
	addq	$32, %rsp
	.cfi_remember_state
	.cfi_def_cfa_offset 32
	popq	%rbx
	.cfi_def_cfa_offset 24
	popq	%rbp
	.cfi_def_cfa_offset 16
	popq	%r12
	.cfi_def_cfa_offset 8
	ret
	.p2align 4,,10
	.p2align 3
.L783:
	.cfi_restore_state
	cmpb	$0, 176(%rbx)
	jne	.L785
	movq	144(%rbx), %rax
	testq	%rax, %rax
	je	.L785
	leaq	88(%rax), %rdx
	movb	$1, 176(%rbx)
	movl	96(%rax), %edi
	leaq	12(%rsp), %rcx
	movq	%rdx, 16(%rsp)
	movl	88(%rax), %edx
	movl	$3, %esi
	movl	$-2147483639, 12(%rsp)
	call	epoll_ctl@PLT
.L785:
	movq	%r12, %rdi
	call	pthread_mutex_unlock@PLT
	jmp	.L773
	.p2align 4,,10
	.p2align 3
.L781:
	movq	%rbp, %xmm0
	punpcklqdq	%xmm0, %xmm0
	movups	%xmm0, 192(%rbx)
	jmp	.L782
	.p2align 4,,10
	.p2align 3
.L779:
	movq	%rbp, %xmm0
	punpcklqdq	%xmm0, %xmm0
	movups	%xmm0, 8(%rax)
	jmp	.L773
.L798:
	call	__stack_chk_fail@PLT
	.cfi_endproc
.LFE3306:
	.size	_ZN4asio6detail15task_io_service25post_immediate_completionEPNS0_25task_io_service_operationEb, .-_ZN4asio6detail15task_io_service25post_immediate_completionEPNS0_25task_io_service_operationEb
	.section	.text.unlikely
	.align 2
.LCOLDB25:
	.text
.LHOTB25:
	.align 2
	.p2align 4
	.globl	_ZN7asiopal13SocketChannel13BeginReadImplEN7openpal6WSliceE
	.type	_ZN7asiopal13SocketChannel13BeginReadImplEN7openpal6WSliceE, @function
_ZN7asiopal13SocketChannel13BeginReadImplEN7openpal6WSliceE:
.LFB6922:
	.cfi_startproc
	.cfi_personality 0x9b,DW.ref.__gxx_personality_v0
	.cfi_lsda 0x1b,.LLSDA6922
	endbr64
	pushq	%r15
	.cfi_def_cfa_offset 16
	.cfi_offset 15, -16
	pushq	%r14
	.cfi_def_cfa_offset 24
	.cfi_offset 14, -24
	movq	%rdx, %r14
	pushq	%r13
	.cfi_def_cfa_offset 32
	.cfi_offset 13, -32
	movl	%esi, %r13d
	pushq	%r12
	.cfi_def_cfa_offset 40
	.cfi_offset 12, -40
	pushq	%rbp
	.cfi_def_cfa_offset 48
	.cfi_offset 6, -48
	pushq	%rbx
	.cfi_def_cfa_offset 56
	.cfi_offset 3, -56
	movq	%rdi, %rbx
	subq	$136, %rsp
	.cfi_def_cfa_offset 192
	movq	%fs:40, %rax
	movq	%rax, 120(%rsp)
	xorl	%eax, %eax
	movq	24(%rdi), %rax
	movq	%rdi, 96(%rsp)
	movdqu	40(%rax), %xmm0
	movq	48(%rax), %rbp
	movq	88(%rdi), %rax
	movaps	%xmm0, 80(%rsp)
	movq	%rax, 16(%rsp)
	data16	leaq	_ZN4asio6detail15keyword_tss_ptrINS0_10call_stackINS0_14strand_service11strand_implEhE7contextEE6value_E@tlsgd(%rip), %rdi
	.value	0x6666
	rex64
	call	__tls_get_addr@PLT
	movq	(%rax), %r12
	testq	%r12, %r12
	jne	.L802
	jmp	.L800
	.p2align 4,,10
	.p2align 3
.L801:
	movq	16(%r12), %r12
	testq	%r12, %r12
	je	.L800
.L802:
	cmpq	(%r12), %rbp
	jne	.L801
	movq	8(%r12), %r12
.L800:
	pxor	%xmm0, %xmm0
	leaq	80(%rsp), %rax
	movq	%rax, 48(%rsp)
	movups	%xmm0, 56(%rsp)
	data16	leaq	_ZN4asio6detail15keyword_tss_ptrINS0_10call_stackINS0_15task_io_serviceENS0_27task_io_service_thread_infoEE7contextEE6value_E@tlsgd(%rip), %rdi
	.value	0x6666
	rex64
	call	__tls_get_addr@PLT
	movq	(%rax), %rax
	testq	%rax, %rax
	je	.L803
	movq	8(%rax), %rax
	testq	%rax, %rax
	je	.L803
	movq	(%rax), %rbp
	testq	%rbp, %rbp
	je	.L803
	movq	$0, (%rax)
	movzbl	0(%rbp), %eax
	cmpb	$111, %al
	jbe	.L804
	movb	%al, 112(%rbp)
	jmp	.L805
	.p2align 4,,10
	.p2align 3
.L804:
	movq	%rbp, %rdi
	call	_ZdlPv@PLT
.L803:
	movl	$113, %edi
.LEHB4:
	call	_Znwm@PLT
.LEHE4:
	movb	$112, 112(%rax)
	movq	%rax, %rbp
.L805:
	leaq	_ZN4asio6detail23reactive_socket_recv_opINS_17mutable_buffers_1ENS0_15wrapped_handlerINS_10io_service6strandEZN7asiopal13SocketChannel13BeginReadImplEN7openpal6WSliceEEUlRKSt10error_codemE_NS0_26is_continuation_if_runningEEEE11do_completeEPNS0_15task_io_serviceEPNS0_25task_io_service_operationESC_m(%rip), %rax
	movzbl	68(%rbx), %edx
	movl	64(%rbx), %r15d
	movq	%rbp, 56(%rsp)
	movl	$0, 16(%rbp)
	movq	$0, 0(%rbp)
	movq	%rax, 8(%rbp)
	movl	$0, 24(%rbp)
	movb	%dl, 8(%rsp)
	call	_ZNSt3_V215system_categoryEv@PLT
	movzbl	8(%rsp), %edx
	movdqa	80(%rsp), %xmm1
	movq	$0, 40(%rbp)
	movq	%rax, 32(%rbp)
	movq	%rax, %rcx
	movq	_ZN4asio6detail28reactive_socket_recv_op_baseINS_17mutable_buffers_1EE10do_performEPNS0_10reactor_opE@GOTPCREL(%rip), %rax
	movl	%r15d, 56(%rbp)
	movq	%rax, 48(%rbp)
	movq	96(%rsp), %rax
	movb	%dl, 60(%rbp)
	movq	%r14, 64(%rbp)
	movq	%r13, 72(%rbp)
	movl	$0, 80(%rbp)
	movq	%rax, 104(%rbp)
	movq	%rbp, 64(%rsp)
	movups	%xmm1, 88(%rbp)
	testb	$16, %dl
	je	.L876
	testq	%r13, %r13
	je	.L806
.L876:
	andl	$3, %edx
	jne	.L808
	cmpl	$-1, %r15d
	je	.L973
	movq	%rcx, 8(%rsp)
	call	__errno_location@PLT
	movl	%r15d, %edi
	leaq	36(%rsp), %rdx
	movl	$21537, %esi
	movl	$0, (%rax)
	movq	%rax, %r14
	xorl	%eax, %eax
	movl	$1, 36(%rsp)
	call	ioctl@PLT
	movq	_ZGVZN4asio15system_categoryEvE8instance@GOTPCREL(%rip), %r13
	movl	%eax, %r15d
	movzbl	0(%r13), %eax
	testb	%al, %al
	movq	8(%rsp), %rcx
	je	.L813
.L953:
	movq	_ZZN4asio15system_categoryEvE8instance@GOTPCREL(%rip), %rsi
.L814:
	movl	(%r14), %eax
	movq	%rsi, 32(%rbp)
	movl	%eax, 24(%rbp)
	testl	%r15d, %r15d
	jns	.L974
.L806:
	movq	16(%rsp), %rax
	movq	40(%rax), %rax
	movq	40(%rax), %rbx
	cmpb	$0, 40(%rbx)
	jne	.L880
	testq	%r12, %r12
	je	.L863
.L880:
	data16	leaq	_ZN4asio6detail15keyword_tss_ptrINS0_10call_stackINS0_15task_io_serviceENS0_27task_io_service_thread_infoEE7contextEE6value_E@tlsgd(%rip), %rdi
	.value	0x6666
	rex64
	call	__tls_get_addr@PLT
	movq	(%rax), %rax
	testq	%rax, %rax
	jne	.L867
	jmp	.L863
	.p2align 4,,10
	.p2align 3
.L865:
	movq	16(%rax), %rax
	testq	%rax, %rax
	je	.L863
.L867:
	cmpq	(%rax), %rbx
	jne	.L865
.L972:
	movq	8(%rax), %rax
	testq	%rax, %rax
	je	.L863
	addq	$1, 24(%rax)
	movq	$0, 0(%rbp)
	cmpq	$0, 16(%rax)
	je	.L868
	movq	16(%rax), %rdx
	movq	%rbp, (%rdx)
	movq	%rbp, 16(%rax)
	jmp	.L799
	.p2align 4,,10
	.p2align 3
.L974:
	movl	$0, 24(%rbp)
	movl	64(%rbx), %r15d
	movq	%rcx, 32(%rbp)
	orb	$2, 68(%rbx)
.L808:
	movq	16(%rsp), %rax
	movq	72(%rbx), %r13
	movq	40(%rax), %r14
	testq	%r13, %r13
	je	.L975
	addq	$40, %r13
	movq	%r13, %rdi
	call	pthread_mutex_lock@PLT
	movq	72(%rbx), %rax
	cmpb	$0, 144(%rax)
	jne	.L976
	cmpq	$0, 96(%rax)
	je	.L977
.L846:
	movq	104(%rax), %rdx
	movq	$0, 0(%rbp)
	testq	%rdx, %rdx
	je	.L860
	movq	%rbp, (%rdx)
	movq	%rbp, 104(%rax)
.L861:
	movq	40(%r14), %rax
	lock addq	$1, 184(%rax)
	movq	%r13, %rdi
	call	pthread_mutex_unlock@PLT
	jmp	.L799
	.p2align 4,,10
	.p2align 3
.L975:
	movq	_ZGVZN4asio15system_categoryEvE8instance@GOTPCREL(%rip), %r13
	movzbl	0(%r13), %eax
	testb	%al, %al
	je	.L818
.L954:
	movq	_ZZN4asio15system_categoryEvE8instance@GOTPCREL(%rip), %rsi
.L819:
	movq	40(%r14), %rbx
	movl	$9, 24(%rbp)
	movq	%rsi, 32(%rbp)
	cmpb	$0, 40(%rbx)
	jne	.L877
	testq	%r12, %r12
	jne	.L877
	.p2align 4,,10
	.p2align 3
.L863:
	lock addq	$1, 184(%rbx)
	leaq	48(%rbx), %r12
	movq	%r12, %rdi
	call	pthread_mutex_lock@PLT
	movq	$0, 0(%rbp)
	cmpq	$0, 200(%rbx)
	je	.L869
	movq	200(%rbx), %rax
	movq	%rbp, (%rax)
	movq	%rbp, 200(%rbx)
.L870:
	movq	136(%rbx), %rax
	orq	$1, %rax
	movq	%rax, 136(%rbx)
	cmpq	$1, %rax
	je	.L871
	movq	%r12, %rdi
	call	pthread_mutex_unlock@PLT
	leaq	88(%rbx), %rdi
	call	pthread_cond_signal@PLT
	.p2align 4,,10
	.p2align 3
.L799:
	movq	120(%rsp), %rax
	xorq	%fs:40, %rax
	jne	.L978
	addq	$136, %rsp
	.cfi_remember_state
	.cfi_def_cfa_offset 56
	popq	%rbx
	.cfi_def_cfa_offset 48
	popq	%rbp
	.cfi_def_cfa_offset 40
	popq	%r12
	.cfi_def_cfa_offset 32
	popq	%r13
	.cfi_def_cfa_offset 24
	popq	%r14
	.cfi_def_cfa_offset 16
	popq	%r15
	.cfi_def_cfa_offset 8
	ret
	.p2align 4,,10
	.p2align 3
.L871:
	.cfi_restore_state
	cmpb	$0, 176(%rbx)
	jne	.L873
	movq	144(%rbx), %rax
	testq	%rax, %rax
	je	.L873
	movb	$1, 176(%rbx)
	leaq	88(%rax), %rdx
	leaq	36(%rsp), %rcx
	movl	$3, %esi
	movl	$-2147483639, 36(%rsp)
	movq	%rdx, 40(%rsp)
	movl	88(%rax), %edx
	movl	96(%rax), %edi
	call	epoll_ctl@PLT
.L873:
	movq	%r12, %rdi
	call	pthread_mutex_unlock@PLT
	jmp	.L799
	.p2align 4,,10
	.p2align 3
.L868:
	movq	%rbp, %xmm0
	punpcklqdq	%xmm0, %xmm0
	movups	%xmm0, 8(%rax)
	jmp	.L799
	.p2align 4,,10
	.p2align 3
.L860:
	movq	%rbp, %xmm0
	punpcklqdq	%xmm0, %xmm0
	movups	%xmm0, 96(%rax)
	jmp	.L861
	.p2align 4,,10
	.p2align 3
.L813:
	movq	%r13, %rdi
	movq	%rcx, 8(%rsp)
	call	__cxa_guard_acquire@PLT
	movq	8(%rsp), %rcx
	testl	%eax, %eax
	je	.L953
	movq	_ZZN4asio15system_categoryEvE8instance@GOTPCREL(%rip), %rsi
	movq	_ZN4asio6detail15system_categoryD1Ev@GOTPCREL(%rip), %rdi
	movq	%rcx, 24(%rsp)
	leaq	__dso_handle(%rip), %rdx
	movq	%rsi, 8(%rsp)
	call	__cxa_atexit@PLT
	movq	%r13, %rdi
	call	__cxa_guard_release@PLT
	movq	24(%rsp), %rcx
	movq	8(%rsp), %rsi
	jmp	.L814
	.p2align 4,,10
	.p2align 3
.L869:
	movq	%rbp, %xmm0
	punpcklqdq	%xmm0, %xmm0
	movups	%xmm0, 192(%rbx)
	jmp	.L870
	.p2align 4,,10
	.p2align 3
.L877:
	data16	leaq	_ZN4asio6detail15keyword_tss_ptrINS0_10call_stackINS0_15task_io_serviceENS0_27task_io_service_thread_infoEE7contextEE6value_E@tlsgd(%rip), %rdi
	.value	0x6666
	rex64
	call	__tls_get_addr@PLT
	movq	(%rax), %rax
	testq	%rax, %rax
	jne	.L825
	jmp	.L863
	.p2align 4,,10
	.p2align 3
.L823:
	movq	16(%rax), %rax
	testq	%rax, %rax
	je	.L863
.L825:
	cmpq	(%rax), %rbx
	jne	.L823
	jmp	.L972
	.p2align 4,,10
	.p2align 3
.L976:
	movq	40(%r14), %rbx
	testq	%r12, %r12
	jne	.L878
	cmpb	$0, 40(%rbx)
	je	.L834
.L878:
	data16	leaq	_ZN4asio6detail15keyword_tss_ptrINS0_10call_stackINS0_15task_io_serviceENS0_27task_io_service_thread_infoEE7contextEE6value_E@tlsgd(%rip), %rdi
	.value	0x6666
	rex64
	call	__tls_get_addr@PLT
	movq	(%rax), %rax
	testq	%rax, %rax
	jne	.L838
	jmp	.L834
	.p2align 4,,10
	.p2align 3
.L836:
	movq	16(%rax), %rax
	testq	%rax, %rax
	je	.L834
.L838:
	cmpq	(%rax), %rbx
	jne	.L836
	movq	8(%rax), %rax
	testq	%rax, %rax
	je	.L834
	addq	$1, 24(%rax)
	cmpq	$0, 16(%rax)
	movq	$0, 0(%rbp)
	je	.L839
	movq	16(%rax), %rdx
	movq	%rbp, (%rdx)
	movq	%rbp, 16(%rax)
.L840:
	movq	%r13, %rdi
	call	pthread_mutex_unlock@PLT
	jmp	.L799
	.p2align 4,,10
	.p2align 3
.L973:
	movq	_ZGVZN4asio15system_categoryEvE8instance@GOTPCREL(%rip), %r13
	movzbl	0(%r13), %eax
	testb	%al, %al
	je	.L810
.L952:
	movq	_ZZN4asio15system_categoryEvE8instance@GOTPCREL(%rip), %rsi
.L811:
	movl	$9, 24(%rbp)
	movq	%rsi, 32(%rbp)
	jmp	.L806
	.p2align 4,,10
	.p2align 3
.L977:
	cmpq	$0, 128(%rax)
	je	.L979
	movl	92(%rax), %edx
	movq	%rax, 40(%rsp)
	leaq	36(%rsp), %rcx
	movl	$3, %esi
	movl	%edx, 36(%rsp)
	movl	96(%r14), %edi
	movl	%r15d, %edx
	call	epoll_ctl@PLT
.L955:
	movq	72(%rbx), %rax
	jmp	.L846
	.p2align 4,,10
	.p2align 3
.L818:
	movq	%r13, %rdi
	call	__cxa_guard_acquire@PLT
	testl	%eax, %eax
	je	.L954
	movq	_ZZN4asio15system_categoryEvE8instance@GOTPCREL(%rip), %rsi
	movq	_ZN4asio6detail15system_categoryD1Ev@GOTPCREL(%rip), %rdi
	leaq	__dso_handle(%rip), %rdx
	movq	%rsi, 8(%rsp)
	call	__cxa_atexit@PLT
	movq	%r13, %rdi
	call	__cxa_guard_release@PLT
	movq	8(%rsp), %rsi
	jmp	.L819
	.p2align 4,,10
	.p2align 3
.L810:
	movq	%r13, %rdi
	call	__cxa_guard_acquire@PLT
	testl	%eax, %eax
	je	.L952
	movq	_ZZN4asio15system_categoryEvE8instance@GOTPCREL(%rip), %rsi
	movq	_ZN4asio6detail15system_categoryD1Ev@GOTPCREL(%rip), %rdi
	leaq	__dso_handle(%rip), %rdx
	movq	%rsi, 8(%rsp)
	call	__cxa_atexit@PLT
	movq	%r13, %rdi
	call	__cxa_guard_release@PLT
	movq	8(%rsp), %rsi
	jmp	.L811
	.p2align 4,,10
	.p2align 3
.L834:
	lock addq	$1, 184(%rbx)
	leaq	48(%rbx), %r12
	movq	%r12, %rdi
	call	pthread_mutex_lock@PLT
	cmpq	$0, 200(%rbx)
	movq	$0, 0(%rbp)
	je	.L841
	movq	200(%rbx), %rax
	movq	%rbp, (%rax)
	movq	%rbp, 200(%rbx)
.L842:
	movq	136(%rbx), %rax
	orq	$1, %rax
	movq	%rax, 136(%rbx)
	cmpq	$1, %rax
	je	.L843
	movq	%r12, %rdi
	call	pthread_mutex_unlock@PLT
	leaq	88(%rbx), %rdi
	call	pthread_cond_signal@PLT
	jmp	.L840
	.p2align 4,,10
	.p2align 3
.L843:
	cmpb	$0, 176(%rbx)
	jne	.L845
	movq	144(%rbx), %rax
	testq	%rax, %rax
	je	.L845
	movb	$1, 176(%rbx)
	leaq	88(%rax), %rdx
	leaq	36(%rsp), %rcx
	movl	$3, %esi
	movl	$-2147483639, 36(%rsp)
	movq	%rdx, 40(%rsp)
	movl	88(%rax), %edx
	movl	96(%rax), %edi
	call	epoll_ctl@PLT
.L845:
	movq	%r12, %rdi
	call	pthread_mutex_unlock@PLT
	jmp	.L840
.L979:
	movq	%rbp, %rdi
.LEHB5:
	call	*48(%rbp)
.LEHE5:
	testb	%al, %al
	je	.L955
	movq	%r13, %rdi
	call	pthread_mutex_unlock@PLT
	movq	40(%r14), %rbx
	cmpb	$0, 40(%rbx)
	jne	.L879
	testq	%r12, %r12
	je	.L863
.L879:
	data16	leaq	_ZN4asio6detail15keyword_tss_ptrINS0_10call_stackINS0_15task_io_serviceENS0_27task_io_service_thread_infoEE7contextEE6value_E@tlsgd(%rip), %rdi
	.value	0x6666
	rex64
	call	__tls_get_addr@PLT
	movq	(%rax), %rax
	testq	%rax, %rax
	jne	.L853
	jmp	.L863
	.p2align 4,,10
	.p2align 3
.L851:
	movq	16(%rax), %rax
	testq	%rax, %rax
	je	.L863
.L853:
	cmpq	(%rax), %rbx
	jne	.L851
	jmp	.L972
	.p2align 4,,10
	.p2align 3
.L841:
	movq	%rbp, %xmm0
	punpcklqdq	%xmm0, %xmm0
	movups	%xmm0, 192(%rbx)
	jmp	.L842
.L839:
	movq	%rbp, %xmm0
	punpcklqdq	%xmm0, %xmm0
	movups	%xmm0, 8(%rax)
	jmp	.L840
.L978:
	call	__stack_chk_fail@PLT
.L875:
	endbr64
	movq	%rax, %rbp
	jmp	.L862
	.section	.gcc_except_table
.LLSDA6922:
	.byte	0xff
	.byte	0xff
	.byte	0x1
	.uleb128 .LLSDACSE6922-.LLSDACSB6922
.LLSDACSB6922:
	.uleb128 .LEHB4-.LFB6922
	.uleb128 .LEHE4-.LEHB4
	.uleb128 0
	.uleb128 0
	.uleb128 .LEHB5-.LFB6922
	.uleb128 .LEHE5-.LEHB5
	.uleb128 .L875-.LFB6922
	.uleb128 0
.LLSDACSE6922:
	.text
	.cfi_endproc
	.section	.text.unlikely
	.cfi_startproc
	.cfi_personality 0x9b,DW.ref.__gxx_personality_v0
	.cfi_lsda 0x1b,.LLSDAC6922
	.type	_ZN7asiopal13SocketChannel13BeginReadImplEN7openpal6WSliceE.cold, @function
_ZN7asiopal13SocketChannel13BeginReadImplEN7openpal6WSliceE.cold:
.LFSB6922:
.L862:
	.cfi_def_cfa_offset 192
	.cfi_offset 3, -56
	.cfi_offset 6, -48
	.cfi_offset 12, -40
	.cfi_offset 13, -32
	.cfi_offset 14, -24
	.cfi_offset 15, -16
	movq	%r13, %rdi
	call	pthread_mutex_unlock@PLT
	leaq	56(%rsp), %rdi
	leaq	64(%rsp), %rsi
	call	_ZN4asio6detail23reactive_socket_recv_opINS_17mutable_buffers_1ENS0_15wrapped_handlerINS_10io_service6strandEZN7asiopal13SocketChannel13BeginReadImplEN7openpal6WSliceEEUlRKSt10error_codemE_NS0_26is_continuation_if_runningEEEE3ptr5resetEv.isra.0
	movq	%rbp, %rdi
.LEHB6:
	call	_Unwind_Resume@PLT
.LEHE6:
	.cfi_endproc
.LFE6922:
	.section	.gcc_except_table
.LLSDAC6922:
	.byte	0xff
	.byte	0xff
	.byte	0x1
	.uleb128 .LLSDACSEC6922-.LLSDACSBC6922
.LLSDACSBC6922:
	.uleb128 .LEHB6-.LCOLDB25
	.uleb128 .LEHE6-.LEHB6
	.uleb128 0
	.uleb128 0
.LLSDACSEC6922:
	.section	.text.unlikely
	.text
	.size	_ZN7asiopal13SocketChannel13BeginReadImplEN7openpal6WSliceE, .-_ZN7asiopal13SocketChannel13BeginReadImplEN7openpal6WSliceE
	.section	.text.unlikely
	.size	_ZN7asiopal13SocketChannel13BeginReadImplEN7openpal6WSliceE.cold, .-_ZN7asiopal13SocketChannel13BeginReadImplEN7openpal6WSliceE.cold
.LCOLDE25:
	.text
.LHOTE25:
	.section	.text.unlikely
	.align 2
.LCOLDB26:
	.text
.LHOTB26:
	.align 2
	.p2align 4
	.globl	_ZN7asiopal13SocketChannel14BeginWriteImplERKN7openpal6RSliceE
	.type	_ZN7asiopal13SocketChannel14BeginWriteImplERKN7openpal6RSliceE, @function
_ZN7asiopal13SocketChannel14BeginWriteImplERKN7openpal6RSliceE:
.LFB6927:
	.cfi_startproc
	.cfi_personality 0x9b,DW.ref.__gxx_personality_v0
	.cfi_lsda 0x1b,.LLSDA6927
	endbr64
	pushq	%r15
	.cfi_def_cfa_offset 16
	.cfi_offset 15, -16
	pushq	%r14
	.cfi_def_cfa_offset 24
	.cfi_offset 14, -24
	leaq	64(%rdi), %r14
	pushq	%r13
	.cfi_def_cfa_offset 32
	.cfi_offset 13, -32
	pushq	%r12
	.cfi_def_cfa_offset 40
	.cfi_offset 12, -40
	pushq	%rbp
	.cfi_def_cfa_offset 48
	.cfi_offset 6, -48
	pushq	%rbx
	.cfi_def_cfa_offset 56
	.cfi_offset 3, -56
	movq	%rdi, %rbx
	subq	$184, %rsp
	.cfi_def_cfa_offset 240
	movl	(%rsi), %r12d
	movq	%fs:40, %rax
	movq	%rax, 168(%rsp)
	xorl	%eax, %eax
	movq	24(%rdi), %rax
	movdqu	40(%rax), %xmm0
	movq	48(%rax), %rbp
	movq	8(%rsi), %rax
	movaps	%xmm0, 16(%rsp)
	movq	%rax, 8(%rsp)
	call	_ZNSt3_V215system_categoryEv@PLT
	movdqa	16(%rsp), %xmm0
	movq	%r14, %xmm1
	cmpq	$65536, %r12
	movq	%rax, %r13
	movl	$65536, %eax
	movhps	8(%rsp), %xmm1
	movq	%r12, 112(%rsp)
	cmovbe	%r12, %rax
	movl	$1, 120(%rsp)
	movq	$0, 128(%rsp)
	movq	%rax, 32(%rsp)
	movq	88(%rbx), %rax
	movq	%rbx, 152(%rsp)
	movq	%rax, 40(%rsp)
	movaps	%xmm1, 96(%rsp)
	movups	%xmm0, 136(%rsp)
	data16	leaq	_ZN4asio6detail15keyword_tss_ptrINS0_10call_stackINS0_14strand_service11strand_implEhE7contextEE6value_E@tlsgd(%rip), %rdi
	.value	0x6666
	rex64
	call	__tls_get_addr@PLT
	movq	(%rax), %rax
	testq	%rax, %rax
	jne	.L983
	jmp	.L1057
	.p2align 4,,10
	.p2align 3
.L982:
	movq	16(%rax), %rax
	testq	%rax, %rax
	je	.L1057
.L983:
	cmpq	(%rax), %rbp
	jne	.L982
	cmpq	$0, 8(%rax)
	setne	16(%rsp)
.L981:
	pxor	%xmm0, %xmm0
	leaq	96(%rsp), %rax
	movq	%rax, 64(%rsp)
	movups	%xmm0, 72(%rsp)
	data16	leaq	_ZN4asio6detail15keyword_tss_ptrINS0_10call_stackINS0_15task_io_serviceENS0_27task_io_service_thread_infoEE7contextEE6value_E@tlsgd(%rip), %rdi
	.value	0x6666
	rex64
	call	__tls_get_addr@PLT
	movq	(%rax), %rax
	testq	%rax, %rax
	je	.L984
	movq	8(%rax), %rax
	testq	%rax, %rax
	je	.L984
	movq	(%rax), %rbp
	testq	%rbp, %rbp
	je	.L984
	movq	$0, (%rax)
	movzbl	0(%rbp), %eax
	cmpb	$-105, %al
	jbe	.L985
	movb	%al, 152(%rbp)
	xorl	%edx, %edx
	movl	$1, %ecx
.L986:
	leaq	_ZN4asio6detail23reactive_socket_send_opINS_15const_buffers_1ENS0_8write_opINS_19basic_stream_socketINS_2ip3tcpENS_21stream_socket_serviceIS6_EEEES2_NS0_14transfer_all_tENS0_15wrapped_handlerINS_10io_service6strandEZN7asiopal13SocketChannel14BeginWriteImplERKN7openpal6RSliceEEUlRKSt10error_codemE_NS0_26is_continuation_if_runningEEEEEE11do_completeEPNS0_15task_io_serviceEPNS0_25task_io_service_operationESM_m(%rip), %rax
	movl	64(%rbx), %r15d
	movq	%r13, 32(%rbp)
	movq	%rbp, 72(%rsp)
	movdqu	104(%rsp), %xmm2
	movdqu	136(%rsp), %xmm3
	movq	%rax, 8(%rbp)
	movq	_ZN4asio6detail28reactive_socket_send_op_baseINS_15const_buffers_1EE10do_performEPNS0_10reactor_opE@GOTPCREL(%rip), %rax
	movq	$0, 0(%rbp)
	movl	$0, 16(%rbp)
	movq	%rax, 48(%rbp)
	movq	8(%rsp), %rax
	movl	$0, 24(%rbp)
	movq	%rax, 64(%rbp)
	movq	32(%rsp), %rax
	movq	$0, 40(%rbp)
	movq	%rax, 72(%rbp)
	movq	152(%rsp), %rax
	movl	%r15d, 56(%rbp)
	movl	$0, 80(%rbp)
	movq	%r14, 88(%rbp)
	movl	%ecx, 112(%rbp)
	movq	%rdx, 120(%rbp)
	movq	%rax, 144(%rbp)
	movups	%xmm2, 96(%rbp)
	movups	%xmm3, 128(%rbp)
	movzbl	68(%rbx), %eax
	movq	%rbp, 80(%rsp)
	testb	$16, %al
	je	.L987
	testq	%r12, %r12
	jne	.L987
.L988:
	movq	40(%rsp), %rax
	movq	40(%rax), %rax
	movq	40(%rax), %rbx
	cmpb	$0, 40(%rbx)
	jne	.L1062
	cmpb	$0, 16(%rsp)
	je	.L1045
.L1062:
	data16	leaq	_ZN4asio6detail15keyword_tss_ptrINS0_10call_stackINS0_15task_io_serviceENS0_27task_io_service_thread_infoEE7contextEE6value_E@tlsgd(%rip), %rdi
	.value	0x6666
	rex64
	call	__tls_get_addr@PLT
	movq	(%rax), %rax
	testq	%rax, %rax
	jne	.L1049
	jmp	.L1045
	.p2align 4,,10
	.p2align 3
.L1047:
	movq	16(%rax), %rax
	testq	%rax, %rax
	je	.L1045
.L1049:
	cmpq	(%rax), %rbx
	jne	.L1047
.L1153:
	movq	8(%rax), %rax
	testq	%rax, %rax
	je	.L1045
	addq	$1, 24(%rax)
	movq	$0, 0(%rbp)
	cmpq	$0, 16(%rax)
	je	.L1050
	movq	16(%rax), %rdx
	movq	%rbp, (%rdx)
	movq	%rbp, 16(%rax)
	jmp	.L980
	.p2align 4,,10
	.p2align 3
.L987:
	movzbl	16(%rsp), %r14d
	testb	$3, %al
	jne	.L990
	cmpl	$-1, %r15d
	je	.L1154
	call	__errno_location@PLT
	movl	%r15d, %edi
	leaq	52(%rsp), %rdx
	movl	$21537, %esi
	movl	$0, (%rax)
	movq	%rax, %r12
	xorl	%eax, %eax
	movl	$1, 52(%rsp)
	call	ioctl@PLT
	movl	%eax, %r15d
	movq	_ZGVZN4asio15system_categoryEvE8instance@GOTPCREL(%rip), %rax
	movzbl	(%rax), %eax
	testb	%al, %al
	je	.L995
.L1135:
	movq	_ZZN4asio15system_categoryEvE8instance@GOTPCREL(%rip), %rsi
.L996:
	movl	(%r12), %eax
	movq	%rsi, 32(%rbp)
	movl	%eax, 24(%rbp)
	testl	%r15d, %r15d
	js	.L988
	movl	$0, 24(%rbp)
	movl	64(%rbx), %r15d
	movq	%r13, 32(%rbp)
	orb	$2, 68(%rbx)
.L990:
	movq	40(%rsp), %rax
	movq	72(%rbx), %r12
	movq	40(%rax), %r13
	testq	%r12, %r12
	je	.L1155
	addq	$40, %r12
	movq	%r12, %rdi
	call	pthread_mutex_lock@PLT
	movq	72(%rbx), %rax
	cmpb	$0, 144(%rax)
	jne	.L1156
	cmpq	$0, 112(%rax)
	je	.L1157
.L1028:
	movq	120(%rax), %rdx
	movq	$0, 0(%rbp)
	testq	%rdx, %rdx
	je	.L1042
	movq	%rbp, (%rdx)
	movq	%rbp, 120(%rax)
.L1043:
	movq	40(%r13), %rax
	lock addq	$1, 184(%rax)
	movq	%r12, %rdi
	call	pthread_mutex_unlock@PLT
	jmp	.L980
	.p2align 4,,10
	.p2align 3
.L985:
	movq	%rbp, %rdi
	call	_ZdlPv@PLT
.L984:
	movl	$153, %edi
.LEHB7:
	call	_Znwm@PLT
.LEHE7:
	movq	96(%rsp), %r14
	movl	120(%rsp), %ecx
	movb	$-104, 152(%rax)
	movq	128(%rsp), %rdx
	movq	%rax, %rbp
	jmp	.L986
	.p2align 4,,10
	.p2align 3
.L1155:
	movq	_ZGVZN4asio15system_categoryEvE8instance@GOTPCREL(%rip), %r12
	movzbl	(%r12), %eax
	testb	%al, %al
	je	.L1000
.L1136:
	movq	_ZZN4asio15system_categoryEvE8instance@GOTPCREL(%rip), %rsi
.L1001:
	movq	40(%r13), %rbx
	movl	$9, 24(%rbp)
	movq	%rsi, 32(%rbp)
	cmpb	$0, 40(%rbx)
	jne	.L1059
	cmpb	$0, 16(%rsp)
	jne	.L1059
	.p2align 4,,10
	.p2align 3
.L1045:
	lock addq	$1, 184(%rbx)
	leaq	48(%rbx), %r12
	movq	%r12, %rdi
	call	pthread_mutex_lock@PLT
	movq	$0, 0(%rbp)
	cmpq	$0, 200(%rbx)
	je	.L1051
	movq	200(%rbx), %rax
	movq	%rbp, (%rax)
	movq	%rbp, 200(%rbx)
.L1052:
	movq	136(%rbx), %rax
	orq	$1, %rax
	movq	%rax, 136(%rbx)
	cmpq	$1, %rax
	je	.L1053
	movq	%r12, %rdi
	call	pthread_mutex_unlock@PLT
	leaq	88(%rbx), %rdi
	call	pthread_cond_signal@PLT
	.p2align 4,,10
	.p2align 3
.L980:
	movq	168(%rsp), %rax
	xorq	%fs:40, %rax
	jne	.L1158
	addq	$184, %rsp
	.cfi_remember_state
	.cfi_def_cfa_offset 56
	popq	%rbx
	.cfi_def_cfa_offset 48
	popq	%rbp
	.cfi_def_cfa_offset 40
	popq	%r12
	.cfi_def_cfa_offset 32
	popq	%r13
	.cfi_def_cfa_offset 24
	popq	%r14
	.cfi_def_cfa_offset 16
	popq	%r15
	.cfi_def_cfa_offset 8
	ret
	.p2align 4,,10
	.p2align 3
.L1053:
	.cfi_restore_state
	cmpb	$0, 176(%rbx)
	jne	.L1022
	movq	144(%rbx), %rax
	testq	%rax, %rax
	je	.L1022
	movb	$1, 176(%rbx)
	leaq	88(%rax), %rdx
	leaq	52(%rsp), %rcx
	movl	$3, %esi
	movl	$-2147483639, 52(%rsp)
	movq	%rdx, 56(%rsp)
	movl	88(%rax), %edx
	movl	96(%rax), %edi
	call	epoll_ctl@PLT
.L1022:
	movq	%r12, %rdi
	call	pthread_mutex_unlock@PLT
	jmp	.L980
	.p2align 4,,10
	.p2align 3
.L1057:
	movb	$0, 16(%rsp)
	jmp	.L981
	.p2align 4,,10
	.p2align 3
.L1050:
	movq	%rbp, %xmm0
	punpcklqdq	%xmm0, %xmm0
	movups	%xmm0, 8(%rax)
	jmp	.L980
	.p2align 4,,10
	.p2align 3
.L1042:
	movq	%rbp, %xmm0
	punpcklqdq	%xmm0, %xmm0
	movups	%xmm0, 112(%rax)
	jmp	.L1043
	.p2align 4,,10
	.p2align 3
.L995:
	movq	_ZGVZN4asio15system_categoryEvE8instance@GOTPCREL(%rip), %rdi
	call	__cxa_guard_acquire@PLT
	testl	%eax, %eax
	je	.L1135
	movq	_ZZN4asio15system_categoryEvE8instance@GOTPCREL(%rip), %rsi
	movq	_ZN4asio6detail15system_categoryD1Ev@GOTPCREL(%rip), %rdi
	leaq	__dso_handle(%rip), %rdx
	movq	%rsi, 8(%rsp)
	call	__cxa_atexit@PLT
	movq	_ZGVZN4asio15system_categoryEvE8instance@GOTPCREL(%rip), %rdi
	call	__cxa_guard_release@PLT
	movq	8(%rsp), %rsi
	jmp	.L996
	.p2align 4,,10
	.p2align 3
.L1051:
	movq	%rbp, %xmm0
	punpcklqdq	%xmm0, %xmm0
	movups	%xmm0, 192(%rbx)
	jmp	.L1052
	.p2align 4,,10
	.p2align 3
.L1059:
	data16	leaq	_ZN4asio6detail15keyword_tss_ptrINS0_10call_stackINS0_15task_io_serviceENS0_27task_io_service_thread_infoEE7contextEE6value_E@tlsgd(%rip), %rdi
	.value	0x6666
	rex64
	call	__tls_get_addr@PLT
	movq	(%rax), %rax
	testq	%rax, %rax
	jne	.L1007
	jmp	.L1045
	.p2align 4,,10
	.p2align 3
.L1005:
	movq	16(%rax), %rax
	testq	%rax, %rax
	je	.L1045
.L1007:
	cmpq	(%rax), %rbx
	jne	.L1005
	jmp	.L1153
	.p2align 4,,10
	.p2align 3
.L1156:
	movq	40(%r13), %rbx
	cmpb	$0, 40(%rbx)
	jne	.L1060
	cmpb	$0, 16(%rsp)
	je	.L1016
.L1060:
	data16	leaq	_ZN4asio6detail15keyword_tss_ptrINS0_10call_stackINS0_15task_io_serviceENS0_27task_io_service_thread_infoEE7contextEE6value_E@tlsgd(%rip), %rdi
	.value	0x6666
	rex64
	call	__tls_get_addr@PLT
	movq	(%rax), %rax
	testq	%rax, %rax
	jne	.L1020
	jmp	.L1016
	.p2align 4,,10
	.p2align 3
.L1018:
	movq	16(%rax), %rax
	testq	%rax, %rax
	je	.L1016
.L1020:
	cmpq	(%rax), %rbx
	jne	.L1018
	movq	8(%rax), %rax
	testq	%rax, %rax
	je	.L1016
	addq	$1, 24(%rax)
	cmpq	$0, 16(%rax)
	movq	$0, 0(%rbp)
	je	.L1021
	movq	16(%rax), %rdx
	movq	%rbp, (%rdx)
	movq	%rbp, 16(%rax)
	jmp	.L1022
	.p2align 4,,10
	.p2align 3
.L1154:
	movq	_ZGVZN4asio15system_categoryEvE8instance@GOTPCREL(%rip), %r12
	movzbl	(%r12), %eax
	testb	%al, %al
	je	.L992
.L1134:
	movq	_ZZN4asio15system_categoryEvE8instance@GOTPCREL(%rip), %rsi
.L993:
	movl	$9, 24(%rbp)
	movq	%rsi, 32(%rbp)
	jmp	.L988
	.p2align 4,,10
	.p2align 3
.L1157:
	movq	%rbp, %rdi
.LEHB8:
	call	*48(%rbp)
.LEHE8:
	testb	%al, %al
	jne	.L1159
	movq	72(%rbx), %rax
	movl	92(%rax), %edx
	testb	$4, %dl
	jne	.L1028
	orl	$4, %edx
	movq	%rax, 56(%rsp)
	leaq	52(%rsp), %rcx
	movl	$3, %esi
	movl	%edx, 52(%rsp)
	movl	96(%r13), %edi
	movl	%r15d, %edx
	call	epoll_ctl@PLT
	testl	%eax, %eax
	jne	.L1041
	movq	72(%rbx), %rax
	movl	52(%rsp), %edx
	orl	%edx, 92(%rax)
	jmp	.L1028
	.p2align 4,,10
	.p2align 3
.L1000:
	movq	%r12, %rdi
	call	__cxa_guard_acquire@PLT
	testl	%eax, %eax
	je	.L1136
	movq	_ZZN4asio15system_categoryEvE8instance@GOTPCREL(%rip), %rsi
	movq	_ZN4asio6detail15system_categoryD1Ev@GOTPCREL(%rip), %rdi
	leaq	__dso_handle(%rip), %rdx
	movq	%rsi, 8(%rsp)
	call	__cxa_atexit@PLT
	movq	%r12, %rdi
	call	__cxa_guard_release@PLT
	movq	8(%rsp), %rsi
	jmp	.L1001
	.p2align 4,,10
	.p2align 3
.L992:
	movq	%r12, %rdi
	call	__cxa_guard_acquire@PLT
	testl	%eax, %eax
	je	.L1134
	movq	_ZZN4asio15system_categoryEvE8instance@GOTPCREL(%rip), %rsi
	movq	_ZN4asio6detail15system_categoryD1Ev@GOTPCREL(%rip), %rdi
	leaq	__dso_handle(%rip), %rdx
	movq	%rsi, 8(%rsp)
	call	__cxa_atexit@PLT
	movq	%r12, %rdi
	call	__cxa_guard_release@PLT
	movq	8(%rsp), %rsi
	jmp	.L993
	.p2align 4,,10
	.p2align 3
.L1016:
	lock addq	$1, 184(%rbx)
	leaq	48(%rbx), %r13
	movq	%r13, %rdi
	call	pthread_mutex_lock@PLT
	cmpq	$0, 200(%rbx)
	movq	$0, 0(%rbp)
	je	.L1023
	movq	200(%rbx), %rax
	movq	%rbp, (%rax)
	movq	%rbp, 200(%rbx)
.L1024:
	movq	136(%rbx), %rax
	orq	$1, %rax
	movq	%rax, 136(%rbx)
	cmpq	$1, %rax
	je	.L1025
	movq	%r13, %rdi
	call	pthread_mutex_unlock@PLT
	leaq	88(%rbx), %rdi
	call	pthread_cond_signal@PLT
	jmp	.L1022
	.p2align 4,,10
	.p2align 3
.L1025:
	cmpb	$0, 176(%rbx)
	jne	.L1027
	movq	144(%rbx), %rax
	testq	%rax, %rax
	je	.L1027
	movb	$1, 176(%rbx)
	leaq	88(%rax), %rdx
	leaq	52(%rsp), %rcx
	movl	$3, %esi
	movl	$-2147483639, 52(%rsp)
	movq	%rdx, 56(%rsp)
	movl	88(%rax), %edx
	movl	96(%rax), %edi
	call	epoll_ctl@PLT
.L1027:
	movq	%r13, %rdi
	call	pthread_mutex_unlock@PLT
	jmp	.L1022
	.p2align 4,,10
	.p2align 3
.L1023:
	movq	%rbp, %xmm0
	punpcklqdq	%xmm0, %xmm0
	movups	%xmm0, 192(%rbx)
	jmp	.L1024
.L1021:
	movq	%rbp, %xmm0
	punpcklqdq	%xmm0, %xmm0
	movups	%xmm0, 8(%rax)
	jmp	.L1022
.L1159:
	movq	%r12, %rdi
	call	pthread_mutex_unlock@PLT
	movq	40(%r13), %rbx
	cmpb	$0, 40(%rbx)
	jne	.L1061
	cmpb	$0, 16(%rsp)
	je	.L1045
.L1061:
	data16	leaq	_ZN4asio6detail15keyword_tss_ptrINS0_10call_stackINS0_15task_io_serviceENS0_27task_io_service_thread_infoEE7contextEE6value_E@tlsgd(%rip), %rdi
	.value	0x6666
	rex64
	call	__tls_get_addr@PLT
	movq	(%rax), %rax
	testq	%rax, %rax
	jne	.L1034
	jmp	.L1045
	.p2align 4,,10
	.p2align 3
.L1032:
	movq	16(%rax), %rax
	testq	%rax, %rax
	je	.L1045
.L1034:
	cmpq	(%rax), %rbx
	jne	.L1032
	jmp	.L1153
.L1041:
	call	_ZN4asio15system_categoryEv@PLT
	movq	%rax, %rbx
	call	__errno_location@PLT
	movq	40(%r13), %rdi
	movl	%r14d, %edx
	movq	%rbp, %rsi
	movl	(%rax), %eax
	movq	%rbx, 32(%rbp)
	movl	%eax, 24(%rbp)
	call	_ZN4asio6detail15task_io_service25post_immediate_completionEPNS0_25task_io_service_operationEb@PLT
	jmp	.L1022
.L1158:
	call	__stack_chk_fail@PLT
.L1058:
	endbr64
	movq	%rax, %rbp
	jmp	.L1044
	.section	.gcc_except_table
.LLSDA6927:
	.byte	0xff
	.byte	0xff
	.byte	0x1
	.uleb128 .LLSDACSE6927-.LLSDACSB6927
.LLSDACSB6927:
	.uleb128 .LEHB7-.LFB6927
	.uleb128 .LEHE7-.LEHB7
	.uleb128 0
	.uleb128 0
	.uleb128 .LEHB8-.LFB6927
	.uleb128 .LEHE8-.LEHB8
	.uleb128 .L1058-.LFB6927
	.uleb128 0
.LLSDACSE6927:
	.text
	.cfi_endproc
	.section	.text.unlikely
	.cfi_startproc
	.cfi_personality 0x9b,DW.ref.__gxx_personality_v0
	.cfi_lsda 0x1b,.LLSDAC6927
	.type	_ZN7asiopal13SocketChannel14BeginWriteImplERKN7openpal6RSliceE.cold, @function
_ZN7asiopal13SocketChannel14BeginWriteImplERKN7openpal6RSliceE.cold:
.LFSB6927:
.L1044:
	.cfi_def_cfa_offset 240
	.cfi_offset 3, -56
	.cfi_offset 6, -48
	.cfi_offset 12, -40
	.cfi_offset 13, -32
	.cfi_offset 14, -24
	.cfi_offset 15, -16
	movq	%r12, %rdi
	call	pthread_mutex_unlock@PLT
	leaq	72(%rsp), %rdi
	leaq	80(%rsp), %rsi
	call	_ZN4asio6detail23reactive_socket_send_opINS_15const_buffers_1ENS0_8write_opINS_19basic_stream_socketINS_2ip3tcpENS_21stream_socket_serviceIS6_EEEES2_NS0_14transfer_all_tENS0_15wrapped_handlerINS_10io_service6strandEZN7asiopal13SocketChannel14BeginWriteImplERKN7openpal6RSliceEEUlRKSt10error_codemE_NS0_26is_continuation_if_runningEEEEEE3ptr5resetEv.isra.0
	movq	%rbp, %rdi
.LEHB9:
	call	_Unwind_Resume@PLT
.LEHE9:
	.cfi_endproc
.LFE6927:
	.section	.gcc_except_table
.LLSDAC6927:
	.byte	0xff
	.byte	0xff
	.byte	0x1
	.uleb128 .LLSDACSEC6927-.LLSDACSBC6927
.LLSDACSBC6927:
	.uleb128 .LEHB9-.LCOLDB26
	.uleb128 .LEHE9-.LEHB9
	.uleb128 0
	.uleb128 0
.LLSDACSEC6927:
	.section	.text.unlikely
	.text
	.size	_ZN7asiopal13SocketChannel14BeginWriteImplERKN7openpal6RSliceE, .-_ZN7asiopal13SocketChannel14BeginWriteImplERKN7openpal6RSliceE
	.section	.text.unlikely
	.size	_ZN7asiopal13SocketChannel14BeginWriteImplERKN7openpal6RSliceE.cold, .-_ZN7asiopal13SocketChannel14BeginWriteImplERKN7openpal6RSliceE.cold
.LCOLDE26:
	.text
.LHOTE26:
	.section	.text._ZN4asio6detail14strand_service16on_dispatch_exitD2Ev,"axG",@progbits,_ZN4asio6detail14strand_service16on_dispatch_exitD5Ev,comdat
	.align 2
	.p2align 4
	.weak	_ZN4asio6detail14strand_service16on_dispatch_exitD2Ev
	.type	_ZN4asio6detail14strand_service16on_dispatch_exitD2Ev, @function
_ZN4asio6detail14strand_service16on_dispatch_exitD2Ev:
.LFB6335:
	.cfi_startproc
	endbr64
	pushq	%r12
	.cfi_def_cfa_offset 16
	.cfi_offset 12, -16
	pushq	%rbp
	.cfi_def_cfa_offset 24
	.cfi_offset 6, -24
	pushq	%rbx
	.cfi_def_cfa_offset 32
	.cfi_offset 3, -32
	movq	%rdi, %rbx
	subq	$32, %rsp
	.cfi_def_cfa_offset 64
	movq	%fs:40, %rax
	movq	%rax, 24(%rsp)
	xorl	%eax, %eax
	movq	8(%rdi), %rax
	leaq	24(%rax), %rdi
	call	pthread_mutex_lock@PLT
	movq	8(%rbx), %rdi
	movq	72(%rdi), %rbp
	testq	%rbp, %rbp
	je	.L1190
	movq	96(%rdi), %rax
	testq	%rax, %rax
	je	.L1163
	movq	%rbp, (%rax)
	movq	88(%rdi), %rbp
.L1164:
	movq	80(%rdi), %rax
	pxor	%xmm0, %xmm0
	movups	%xmm0, 72(%rdi)
	movq	%rax, 96(%rdi)
.L1162:
	testq	%rbp, %rbp
	setne	64(%rdi)
	addq	$24, %rdi
	call	pthread_mutex_unlock@PLT
	testq	%rbp, %rbp
	jne	.L1191
.L1160:
	movq	24(%rsp), %rax
	xorq	%fs:40, %rax
	jne	.L1192
	addq	$32, %rsp
	.cfi_remember_state
	.cfi_def_cfa_offset 32
	popq	%rbx
	.cfi_def_cfa_offset 24
	popq	%rbp
	.cfi_def_cfa_offset 16
	popq	%r12
	.cfi_def_cfa_offset 8
	ret
	.p2align 4,,10
	.p2align 3
.L1163:
	.cfi_restore_state
	movq	%rbp, 88(%rdi)
	jmp	.L1164
	.p2align 4,,10
	.p2align 3
.L1191:
	movq	(%rbx), %rbp
	movq	8(%rbx), %rbx
	cmpb	$0, 40(%rbp)
	je	.L1166
	data16	leaq	_ZN4asio6detail15keyword_tss_ptrINS0_10call_stackINS0_15task_io_serviceENS0_27task_io_service_thread_infoEE7contextEE6value_E@tlsgd(%rip), %rdi
	.value	0x6666
	rex64
	call	__tls_get_addr@PLT
	movq	(%rax), %rax
	testq	%rax, %rax
	jne	.L1169
	jmp	.L1166
	.p2align 4,,10
	.p2align 3
.L1167:
	movq	16(%rax), %rax
	testq	%rax, %rax
	je	.L1166
.L1169:
	cmpq	(%rax), %rbp
	jne	.L1167
	movq	8(%rax), %rax
	testq	%rax, %rax
	je	.L1166
	addq	$1, 24(%rax)
	cmpq	$0, 16(%rax)
	movq	$0, (%rbx)
	je	.L1170
	movq	16(%rax), %rdx
	movq	%rbx, (%rdx)
	movq	%rbx, 16(%rax)
	jmp	.L1160
	.p2align 4,,10
	.p2align 3
.L1166:
	lock addq	$1, 184(%rbp)
	leaq	48(%rbp), %r12
	movq	%r12, %rdi
	call	pthread_mutex_lock@PLT
	cmpq	$0, 200(%rbp)
	movq	$0, (%rbx)
	je	.L1171
	movq	200(%rbp), %rax
	movq	%rbx, (%rax)
	movq	%rbx, 200(%rbp)
.L1172:
	movq	136(%rbp), %rax
	orq	$1, %rax
	movq	%rax, 136(%rbp)
	cmpq	$1, %rax
	je	.L1173
	movq	%r12, %rdi
	call	pthread_mutex_unlock@PLT
	leaq	88(%rbp), %rdi
	call	pthread_cond_signal@PLT
	jmp	.L1160
	.p2align 4,,10
	.p2align 3
.L1190:
	movq	88(%rdi), %rbp
	jmp	.L1162
	.p2align 4,,10
	.p2align 3
.L1171:
	movq	%rbx, %xmm0
	punpcklqdq	%xmm0, %xmm0
	movups	%xmm0, 192(%rbp)
	jmp	.L1172
	.p2align 4,,10
	.p2align 3
.L1173:
	cmpb	$0, 176(%rbp)
	jne	.L1175
	movq	144(%rbp), %rax
	testq	%rax, %rax
	je	.L1175
	leaq	88(%rax), %rdx
	movb	$1, 176(%rbp)
	movl	96(%rax), %edi
	leaq	12(%rsp), %rcx
	movq	%rdx, 16(%rsp)
	movl	88(%rax), %edx
	movl	$3, %esi
	movl	$-2147483639, 12(%rsp)
	call	epoll_ctl@PLT
.L1175:
	movq	%r12, %rdi
	call	pthread_mutex_unlock@PLT
	jmp	.L1160
	.p2align 4,,10
	.p2align 3
.L1170:
	movq	%rbx, %xmm0
	punpcklqdq	%xmm0, %xmm0
	movups	%xmm0, 8(%rax)
	jmp	.L1160
.L1192:
	call	__stack_chk_fail@PLT
	.cfi_endproc
.LFE6335:
	.size	_ZN4asio6detail14strand_service16on_dispatch_exitD2Ev, .-_ZN4asio6detail14strand_service16on_dispatch_exitD2Ev
	.weak	_ZN4asio6detail14strand_service16on_dispatch_exitD1Ev
	.set	_ZN4asio6detail14strand_service16on_dispatch_exitD1Ev,_ZN4asio6detail14strand_service16on_dispatch_exitD2Ev
	.section	.text.unlikely
	.align 2
.LCOLDB27:
	.text
.LHOTB27:
	.align 2
	.p2align 4
	.type	_ZN4asio6detail14strand_service8dispatchINS0_7binder2IZN7asiopal13SocketChannel13BeginReadImplEN7openpal6WSliceEEUlRKSt10error_codemE_S8_mEEEEvRPNS1_11strand_implERT_, @function
_ZN4asio6detail14strand_service8dispatchINS0_7binder2IZN7asiopal13SocketChannel13BeginReadImplEN7openpal6WSliceEEUlRKSt10error_codemE_S8_mEEEEvRPNS1_11strand_implERT_:
.LFB9230:
	.cfi_startproc
	.cfi_personality 0x9b,DW.ref.__gxx_personality_v0
	.cfi_lsda 0x1b,.LLSDA9230
	pushq	%r14
	.cfi_def_cfa_offset 16
	.cfi_offset 14, -16
	pushq	%r13
	.cfi_def_cfa_offset 24
	.cfi_offset 13, -24
	movq	%rdi, %r13
	pushq	%r12
	.cfi_def_cfa_offset 32
	.cfi_offset 12, -32
	movq	%rsi, %r12
	pushq	%rbp
	.cfi_def_cfa_offset 40
	.cfi_offset 6, -40
	movq	%rdx, %rbp
	pushq	%rbx
	.cfi_def_cfa_offset 48
	.cfi_offset 3, -48
	subq	$160, %rsp
	.cfi_def_cfa_offset 208
	movq	(%rsi), %rbx
	movq	%fs:40, %rax
	movq	%rax, 152(%rsp)
	xorl	%eax, %eax
	data16	leaq	_ZN4asio6detail15keyword_tss_ptrINS0_10call_stackINS0_14strand_service11strand_implEhE7contextEE6value_E@tlsgd(%rip), %rdi
	.value	0x6666
	rex64
	call	__tls_get_addr@PLT
	movq	(%rax), %rax
	testq	%rax, %rax
	jne	.L1197
	jmp	.L1194
	.p2align 4,,10
	.p2align 3
.L1195:
	movq	16(%rax), %rax
	testq	%rax, %rax
	je	.L1194
.L1197:
	cmpq	(%rax), %rbx
	jne	.L1195
	cmpq	$0, 8(%rax)
	je	.L1194
	lfence
	movq	0(%rbp), %rax
	movq	24(%rbp), %rdx
	movq	40(%rax), %rdi
	movb	$0, 57(%rax)
	testq	%rdi, %rdi
	je	.L1200
	cmpb	$0, 56(%rax)
	jne	.L1200
	movq	(%rdi), %rax
	leaq	8(%rbp), %rsi
.LEHB10:
	call	*16(%rax)
.LEHE10:
.L1200:
	sfence
.L1193:
	movq	152(%rsp), %rax
	xorq	%fs:40, %rax
	jne	.L1328
	addq	$160, %rsp
	.cfi_remember_state
	.cfi_def_cfa_offset 48
	popq	%rbx
	.cfi_def_cfa_offset 40
	popq	%rbp
	.cfi_def_cfa_offset 32
	popq	%r12
	.cfi_def_cfa_offset 24
	popq	%r13
	.cfi_def_cfa_offset 16
	popq	%r14
	.cfi_def_cfa_offset 8
	ret
	.p2align 4,,10
	.p2align 3
.L1194:
	.cfi_restore_state
	pxor	%xmm0, %xmm0
	movq	%rbp, 16(%rsp)
	movups	%xmm0, 24(%rsp)
	data16	leaq	_ZN4asio6detail15keyword_tss_ptrINS0_10call_stackINS0_15task_io_serviceENS0_27task_io_service_thread_infoEE7contextEE6value_E@tlsgd(%rip), %rdi
	.value	0x6666
	rex64
	call	__tls_get_addr@PLT
	movq	(%rax), %rax
	testq	%rax, %rax
	je	.L1201
	movq	8(%rax), %rax
	testq	%rax, %rax
	je	.L1201
	movq	(%rax), %r14
	testq	%r14, %r14
	je	.L1201
	movq	$0, (%rax)
	movzbl	(%r14), %eax
	cmpb	$55, %al
	jbe	.L1202
	movb	%al, 56(%r14)
	jmp	.L1203
.L1202:
	movq	%r14, %rdi
	call	_ZdlPv@PLT
.L1201:
	movl	$57, %edi
.LEHB11:
	call	_Znwm@PLT
.LEHE11:
	movb	$56, 56(%rax)
	movq	%rax, %r14
.L1203:
	leaq	_ZN4asio6detail18completion_handlerINS0_7binder2IZN7asiopal13SocketChannel13BeginReadImplEN7openpal6WSliceEEUlRKSt10error_codemE_S7_mEEE11do_completeEPNS0_15task_io_serviceEPNS0_25task_io_service_operationES9_m(%rip), %rax
	movq	%r14, 24(%rsp)
	movdqa	0(%rbp), %xmm1
	movdqa	16(%rbp), %xmm2
	movq	40(%r13), %rbx
	movq	$0, (%r14)
	movq	%rax, 8(%r14)
	movl	$0, 16(%r14)
	movups	%xmm1, 24(%r14)
	movups	%xmm2, 40(%r14)
	movq	%r14, 32(%rsp)
	data16	leaq	_ZN4asio6detail15keyword_tss_ptrINS0_10call_stackINS0_15task_io_serviceENS0_27task_io_service_thread_infoEE7contextEE6value_E@tlsgd(%rip), %rdi
	.value	0x6666
	rex64
	call	__tls_get_addr@PLT
	movq	(%rax), %rax
	testq	%rax, %rax
	jne	.L1208
	jmp	.L1204
	.p2align 4,,10
	.p2align 3
.L1205:
	movq	16(%rax), %rax
	testq	%rax, %rax
	je	.L1204
.L1208:
	cmpq	(%rax), %rbx
	jne	.L1205
	movq	8(%rax), %rbx
	movq	(%r12), %rax
	leaq	24(%rax), %rdi
	call	pthread_mutex_lock@PLT
	testq	%rbx, %rbx
	je	.L1207
	movq	(%r12), %rax
	cmpb	$0, 64(%rax)
	leaq	24(%rax), %rdi
	je	.L1329
.L1209:
	cmpq	$0, 80(%rax)
	movq	$0, (%r14)
	je	.L1213
	movq	80(%rax), %rdx
	movq	%r14, (%rdx)
	movq	%r14, 80(%rax)
.L1327:
	call	pthread_mutex_unlock@PLT
	jmp	.L1193
.L1329:
	movb	$1, 64(%rax)
	call	pthread_mutex_unlock@PLT
	movq	(%r12), %r12
	pxor	%xmm0, %xmm0
	movq	32(%rsp), %rbp
	movups	%xmm0, 24(%rsp)
	movq	%r12, 48(%rsp)
	data16	leaq	_ZN4asio6detail15keyword_tss_ptrINS0_10call_stackINS0_14strand_service11strand_implEhE7contextEE6value_E@tlsgd(%rip), %rdi
	.value	0x6666
	rex64
	call	__tls_get_addr@PLT
	movdqu	24(%rbp), %xmm4
	movq	40(%r13), %rbx
	movq	%r12, %xmm3
	leaq	112(%rsp), %r12
	movq	%rbp, 88(%rsp)
	movaps	%xmm4, 112(%rsp)
	movq	%rbx, %xmm0
	movdqu	40(%rbp), %xmm5
	punpcklqdq	%xmm3, %xmm0
	movq	%r12, 80(%rsp)
	movq	$0, 96(%rsp)
	movaps	%xmm0, (%rsp)
	movq	(%rax), %rdx
	movaps	%xmm5, 128(%rsp)
	movq	%rdx, 64(%rsp)
	leaq	48(%rsp), %rdx
	movq	%rdx, (%rax)
	movq	%rdx, 56(%rsp)
	data16	leaq	_ZN4asio6detail15keyword_tss_ptrINS0_10call_stackINS0_15task_io_serviceENS0_27task_io_service_thread_infoEE7contextEE6value_E@tlsgd(%rip), %rdi
	.value	0x6666
	rex64
	call	__tls_get_addr@PLT
	movq	(%rax), %rax
	testq	%rax, %rax
	je	.L1211
	movq	8(%rax), %rax
	testq	%rax, %rax
	je	.L1211
	cmpq	$0, (%rax)
	je	.L1330
.L1211:
	movq	%rbp, %rdi
	call	_ZdlPv@PLT
.L1228:
	movq	$0, 88(%rsp)
	testq	%rbx, %rbx
	je	.L1229
	movq	112(%rsp), %rax
	movq	136(%rsp), %rdx
	movq	40(%rax), %rdi
	movb	$0, 57(%rax)
	testq	%rdi, %rdi
	je	.L1233
	cmpb	$0, 56(%rax)
	je	.L1331
.L1233:
	sfence
	cmpq	$0, 96(%rsp)
	je	.L1332
	movq	$0, 96(%rsp)
	movq	88(%rsp), %rbp
.L1234:
	testq	%rbp, %rbp
	je	.L1229
	data16	leaq	_ZN4asio6detail15keyword_tss_ptrINS0_10call_stackINS0_15task_io_serviceENS0_27task_io_service_thread_infoEE7contextEE6value_E@tlsgd(%rip), %rdi
	.value	0x6666
	rex64
	call	__tls_get_addr@PLT
	movq	(%rax), %rax
	testq	%rax, %rax
	je	.L1235
	movq	8(%rax), %rax
	testq	%rax, %rax
	je	.L1235
	cmpq	$0, (%rax)
	je	.L1333
.L1235:
	movq	%rbp, %rdi
	call	_ZdlPv@PLT
.L1229:
	movq	8(%rsp), %rax
	leaq	24(%rax), %rdi
	call	pthread_mutex_lock@PLT
	movq	8(%rsp), %rdi
	movq	72(%rdi), %rbx
	testq	%rbx, %rbx
	je	.L1334
	movq	96(%rdi), %rax
	testq	%rax, %rax
	je	.L1239
	movq	%rbx, (%rax)
	movq	88(%rdi), %rbx
.L1240:
	movq	80(%rdi), %rax
	pxor	%xmm0, %xmm0
	movups	%xmm0, 72(%rdi)
	movq	%rax, 96(%rdi)
.L1237:
	testq	%rbx, %rbx
	setne	64(%rdi)
	addq	$24, %rdi
	call	pthread_mutex_unlock@PLT
	testq	%rbx, %rbx
	jne	.L1335
.L1241:
	data16	leaq	_ZN4asio6detail15keyword_tss_ptrINS0_10call_stackINS0_14strand_service11strand_implEhE7contextEE6value_E@tlsgd(%rip), %rdi
	.value	0x6666
	rex64
	call	__tls_get_addr@PLT
	movq	64(%rsp), %rdx
	cmpq	$0, 32(%rsp)
	movq	24(%rsp), %rbp
	movq	%rdx, (%rax)
	je	.L1252
	movq	$0, 32(%rsp)
.L1252:
	testq	%rbp, %rbp
	je	.L1193
	data16	leaq	_ZN4asio6detail15keyword_tss_ptrINS0_10call_stackINS0_15task_io_serviceENS0_27task_io_service_thread_infoEE7contextEE6value_E@tlsgd(%rip), %rdi
	.value	0x6666
	rex64
	call	__tls_get_addr@PLT
	movq	(%rax), %rax
	testq	%rax, %rax
	je	.L1254
	movq	8(%rax), %rax
	testq	%rax, %rax
	je	.L1254
	cmpq	$0, (%rax)
	je	.L1336
.L1254:
	movq	%rbp, %rdi
	call	_ZdlPv@PLT
	jmp	.L1193
	.p2align 4,,10
	.p2align 3
.L1204:
	movq	(%r12), %rax
	leaq	24(%rax), %rdi
	call	pthread_mutex_lock@PLT
.L1207:
	movq	(%r12), %rax
	cmpb	$0, 64(%rax)
	leaq	24(%rax), %rdi
	jne	.L1209
	movb	$1, 64(%rax)
	call	pthread_mutex_unlock@PLT
	movq	(%r12), %rbp
	movq	$0, (%r14)
	cmpq	$0, 96(%rbp)
	je	.L1216
	movq	96(%rbp), %rax
	movq	%r14, (%rax)
	movq	%r14, 96(%rbp)
.L1217:
	movq	40(%r13), %rbx
	cmpb	$0, 40(%rbx)
	je	.L1218
	data16	leaq	_ZN4asio6detail15keyword_tss_ptrINS0_10call_stackINS0_15task_io_serviceENS0_27task_io_service_thread_infoEE7contextEE6value_E@tlsgd(%rip), %rdi
	.value	0x6666
	rex64
	call	__tls_get_addr@PLT
	movq	(%rax), %rax
	testq	%rax, %rax
	jne	.L1221
	jmp	.L1218
	.p2align 4,,10
	.p2align 3
.L1219:
	movq	16(%rax), %rax
	testq	%rax, %rax
	je	.L1218
.L1221:
	cmpq	(%rax), %rbx
	jne	.L1219
	movq	8(%rax), %rax
	testq	%rax, %rax
	je	.L1218
	addq	$1, 24(%rax)
	cmpq	$0, 16(%rax)
	movq	$0, 0(%rbp)
	je	.L1222
	movq	16(%rax), %rdx
	movq	%rbp, (%rdx)
	movq	%rbp, 16(%rax)
	jmp	.L1193
.L1218:
	lock addq	$1, 184(%rbx)
	leaq	48(%rbx), %r12
	movq	%r12, %rdi
	call	pthread_mutex_lock@PLT
	cmpq	$0, 200(%rbx)
	movq	$0, 0(%rbp)
	je	.L1223
	movq	200(%rbx), %rax
	movq	%rbp, (%rax)
	movq	%rbp, 200(%rbx)
.L1224:
	movq	136(%rbx), %rax
	orq	$1, %rax
	movq	%rax, 136(%rbx)
	cmpq	$1, %rax
	je	.L1225
	movq	%r12, %rdi
	call	pthread_mutex_unlock@PLT
	leaq	88(%rbx), %rdi
	call	pthread_cond_signal@PLT
	jmp	.L1193
.L1213:
	movq	%r14, %xmm0
	punpcklqdq	%xmm0, %xmm0
	movups	%xmm0, 72(%rax)
	jmp	.L1327
.L1331:
	movq	(%rdi), %rax
	leaq	120(%rsp), %rsi
.LEHB12:
	call	*16(%rax)
.LEHE12:
	jmp	.L1233
.L1223:
	movq	%rbp, %xmm0
	punpcklqdq	%xmm0, %xmm0
	movups	%xmm0, 192(%rbx)
	jmp	.L1224
.L1335:
	movq	(%rsp), %rbx
	movq	8(%rsp), %rbp
	cmpb	$0, 40(%rbx)
	je	.L1242
	data16	leaq	_ZN4asio6detail15keyword_tss_ptrINS0_10call_stackINS0_15task_io_serviceENS0_27task_io_service_thread_infoEE7contextEE6value_E@tlsgd(%rip), %rdi
	.value	0x6666
	rex64
	call	__tls_get_addr@PLT
	movq	(%rax), %rax
	testq	%rax, %rax
	jne	.L1245
	jmp	.L1242
	.p2align 4,,10
	.p2align 3
.L1243:
	movq	16(%rax), %rax
	testq	%rax, %rax
	je	.L1242
.L1245:
	cmpq	(%rax), %rbx
	jne	.L1243
	movq	8(%rax), %rax
	testq	%rax, %rax
	je	.L1242
	addq	$1, 24(%rax)
	cmpq	$0, 16(%rax)
	movq	$0, 0(%rbp)
	je	.L1246
	movq	16(%rax), %rdx
	movq	%rbp, (%rdx)
	movq	%rbp, 16(%rax)
	jmp	.L1241
.L1225:
	cmpb	$0, 176(%rbx)
	jne	.L1227
	movq	144(%rbx), %rax
	testq	%rax, %rax
	je	.L1227
	movb	$1, 176(%rbx)
	leaq	88(%rax), %rdx
	leaq	112(%rsp), %rcx
	movl	$3, %esi
	movl	$-2147483639, 112(%rsp)
	movq	%rdx, 116(%rsp)
	movl	88(%rax), %edx
	movl	96(%rax), %edi
	call	epoll_ctl@PLT
.L1227:
	movq	%r12, %rdi
	jmp	.L1327
.L1334:
	movq	88(%rdi), %rbx
	jmp	.L1237
.L1332:
	movq	88(%rsp), %rbp
	jmp	.L1234
.L1242:
	lock addq	$1, 184(%rbx)
	leaq	48(%rbx), %r13
	movq	%r13, %rdi
	call	pthread_mutex_lock@PLT
	cmpq	$0, 200(%rbx)
	movq	$0, 0(%rbp)
	je	.L1247
	movq	200(%rbx), %rax
	movq	%rbp, (%rax)
	movq	%rbp, 200(%rbx)
.L1248:
	movq	136(%rbx), %rax
	orq	$1, %rax
	movq	%rax, 136(%rbx)
	cmpq	$1, %rax
	je	.L1249
	movq	%r13, %rdi
	call	pthread_mutex_unlock@PLT
	leaq	88(%rbx), %rdi
	call	pthread_cond_signal@PLT
	jmp	.L1241
.L1239:
	movq	%rbx, 88(%rdi)
	jmp	.L1240
.L1249:
	cmpb	$0, 176(%rbx)
	jne	.L1251
	movq	144(%rbx), %rax
	testq	%rax, %rax
	je	.L1251
	movb	$1, 176(%rbx)
	leaq	88(%rax), %rdx
	movq	%r12, %rcx
	movl	$3, %esi
	movl	$-2147483639, 112(%rsp)
	movq	%rdx, 116(%rsp)
	movl	88(%rax), %edx
	movl	96(%rax), %edi
	call	epoll_ctl@PLT
.L1251:
	movq	%r13, %rdi
	call	pthread_mutex_unlock@PLT
	jmp	.L1241
.L1336:
	movzbl	56(%rbp), %edx
	movb	%dl, 0(%rbp)
	movq	%rbp, (%rax)
	jmp	.L1193
.L1216:
	movq	%r14, %xmm0
	punpcklqdq	%xmm0, %xmm0
	movups	%xmm0, 88(%rbp)
	jmp	.L1217
.L1333:
	movzbl	56(%rbp), %edx
	movb	%dl, 0(%rbp)
	movq	%rbp, (%rax)
	jmp	.L1229
.L1330:
	movzbl	56(%rbp), %edx
	movb	%dl, 0(%rbp)
	movq	%rbp, (%rax)
	jmp	.L1228
.L1247:
	movq	%rbp, %xmm0
	punpcklqdq	%xmm0, %xmm0
	movups	%xmm0, 192(%rbx)
	jmp	.L1248
.L1222:
	movq	%rbp, %xmm0
	punpcklqdq	%xmm0, %xmm0
	movups	%xmm0, 8(%rax)
	jmp	.L1193
.L1246:
	movq	%rbp, %xmm0
	punpcklqdq	%xmm0, %xmm0
	movups	%xmm0, 8(%rax)
	jmp	.L1241
.L1328:
	call	__stack_chk_fail@PLT
.L1257:
	endbr64
	movq	%rax, %rdi
	jmp	.L1255
.L1258:
	endbr64
	movq	%rax, %rbp
	jmp	.L1238
	.section	.gcc_except_table
.LLSDA9230:
	.byte	0xff
	.byte	0xff
	.byte	0x1
	.uleb128 .LLSDACSE9230-.LLSDACSB9230
.LLSDACSB9230:
	.uleb128 .LEHB10-.LFB9230
	.uleb128 .LEHE10-.LEHB10
	.uleb128 .L1257-.LFB9230
	.uleb128 0
	.uleb128 .LEHB11-.LFB9230
	.uleb128 .LEHE11-.LEHB11
	.uleb128 0
	.uleb128 0
	.uleb128 .LEHB12-.LFB9230
	.uleb128 .LEHE12-.LEHB12
	.uleb128 .L1258-.LFB9230
	.uleb128 0
.LLSDACSE9230:
	.text
	.cfi_endproc
	.section	.text.unlikely
	.cfi_startproc
	.cfi_personality 0x9b,DW.ref.__gxx_personality_v0
	.cfi_lsda 0x1b,.LLSDAC9230
	.type	_ZN4asio6detail14strand_service8dispatchINS0_7binder2IZN7asiopal13SocketChannel13BeginReadImplEN7openpal6WSliceEEUlRKSt10error_codemE_S8_mEEEEvRPNS1_11strand_implERT_.cold, @function
_ZN4asio6detail14strand_service8dispatchINS0_7binder2IZN7asiopal13SocketChannel13BeginReadImplEN7openpal6WSliceEEUlRKSt10error_codemE_S8_mEEEEvRPNS1_11strand_implERT_.cold:
.LFSB9230:
.L1255:
	.cfi_def_cfa_offset 208
	.cfi_offset 3, -48
	.cfi_offset 6, -40
	.cfi_offset 12, -32
	.cfi_offset 13, -24
	.cfi_offset 14, -16
	sfence
.LEHB13:
	call	_Unwind_Resume@PLT
.L1238:
	sfence
	leaq	96(%rsp), %rsi
	leaq	88(%rsp), %rdi
	call	_ZN4asio6detail18completion_handlerINS0_7binder2IZN7asiopal13SocketChannel13BeginReadImplEN7openpal6WSliceEEUlRKSt10error_codemE_S7_mEEE3ptr5resetEv.isra.0
	movq	%rsp, %rdi
	call	_ZN4asio6detail14strand_service16on_dispatch_exitD1Ev@PLT
	data16	leaq	_ZN4asio6detail15keyword_tss_ptrINS0_10call_stackINS0_14strand_service11strand_implEhE7contextEE6value_E@tlsgd(%rip), %rdi
	.value	0x6666
	rex64
	call	__tls_get_addr@PLT
	movq	64(%rsp), %rdx
	leaq	24(%rsp), %rdi
	leaq	32(%rsp), %rsi
	movq	%rdx, (%rax)
	call	_ZN4asio6detail18completion_handlerINS0_7binder2IZN7asiopal13SocketChannel13BeginReadImplEN7openpal6WSliceEEUlRKSt10error_codemE_S7_mEEE3ptr5resetEv.isra.0
	movq	%rbp, %rdi
	call	_Unwind_Resume@PLT
.LEHE13:
	.cfi_endproc
.LFE9230:
	.section	.gcc_except_table
.LLSDAC9230:
	.byte	0xff
	.byte	0xff
	.byte	0x1
	.uleb128 .LLSDACSEC9230-.LLSDACSBC9230
.LLSDACSBC9230:
	.uleb128 .LEHB13-.LCOLDB27
	.uleb128 .LEHE13-.LEHB13
	.uleb128 0
	.uleb128 0
.LLSDACSEC9230:
	.section	.text.unlikely
	.text
	.size	_ZN4asio6detail14strand_service8dispatchINS0_7binder2IZN7asiopal13SocketChannel13BeginReadImplEN7openpal6WSliceEEUlRKSt10error_codemE_S8_mEEEEvRPNS1_11strand_implERT_, .-_ZN4asio6detail14strand_service8dispatchINS0_7binder2IZN7asiopal13SocketChannel13BeginReadImplEN7openpal6WSliceEEUlRKSt10error_codemE_S8_mEEEEvRPNS1_11strand_implERT_
	.section	.text.unlikely
	.size	_ZN4asio6detail14strand_service8dispatchINS0_7binder2IZN7asiopal13SocketChannel13BeginReadImplEN7openpal6WSliceEEUlRKSt10error_codemE_S8_mEEEEvRPNS1_11strand_implERT_.cold, .-_ZN4asio6detail14strand_service8dispatchINS0_7binder2IZN7asiopal13SocketChannel13BeginReadImplEN7openpal6WSliceEEUlRKSt10error_codemE_S8_mEEEEvRPNS1_11strand_implERT_.cold
.LCOLDE27:
	.text
.LHOTE27:
	.section	.text.unlikely
.LCOLDB28:
	.text
.LHOTB28:
	.p2align 4
	.type	_ZN4asio6detail18completion_handlerINS0_17rewrapped_handlerINS0_7binder2INS0_15wrapped_handlerINS_10io_service6strandEZN7asiopal13SocketChannel13BeginReadImplEN7openpal6WSliceEEUlRKSt10error_codemE_NS0_26is_continuation_if_runningEEESB_mEESE_EEE11do_completeEPNS0_15task_io_serviceEPNS0_25task_io_service_operationESD_m, @function
_ZN4asio6detail18completion_handlerINS0_17rewrapped_handlerINS0_7binder2INS0_15wrapped_handlerINS_10io_service6strandEZN7asiopal13SocketChannel13BeginReadImplEN7openpal6WSliceEEUlRKSt10error_codemE_NS0_26is_continuation_if_runningEEESB_mEESE_EEE11do_completeEPNS0_15task_io_serviceEPNS0_25task_io_service_operationESD_m:
.LFB9156:
	.cfi_startproc
	.cfi_personality 0x9b,DW.ref.__gxx_personality_v0
	.cfi_lsda 0x1b,.LLSDA9156
	endbr64
	pushq	%rbp
	.cfi_def_cfa_offset 16
	.cfi_offset 6, -16
	movq	%rsi, %rbp
	pushq	%rbx
	.cfi_def_cfa_offset 24
	.cfi_offset 3, -24
	movq	%rdi, %rbx
	subq	$152, %rsp
	.cfi_def_cfa_offset 176
	movdqu	32(%rsi), %xmm0
	movdqu	56(%rsi), %xmm1
	movq	%fs:40, %rax
	movq	%rax, 136(%rsp)
	xorl	%eax, %eax
	movq	24(%rsi), %rax
	movq	%rsi, 8(%rsp)
	movq	$0, 16(%rsp)
	movq	%rax, 80(%rsp)
	movq	48(%rsi), %rax
	movups	%xmm0, 88(%rsp)
	movq	%rax, 104(%rsp)
	movq	72(%rsi), %rax
	movaps	%xmm1, 112(%rsp)
	movq	%rax, 128(%rsp)
	leaq	80(%rsp), %rax
	movq	%rax, (%rsp)
	data16	leaq	_ZN4asio6detail15keyword_tss_ptrINS0_10call_stackINS0_15task_io_serviceENS0_27task_io_service_thread_infoEE7contextEE6value_E@tlsgd(%rip), %rdi
	.value	0x6666
	rex64
	call	__tls_get_addr@PLT
	movq	(%rax), %rax
	testq	%rax, %rax
	je	.L1338
	movq	8(%rax), %rax
	testq	%rax, %rax
	je	.L1338
	cmpq	$0, (%rax)
	je	.L1366
.L1338:
	movq	%rbp, %rdi
	call	_ZdlPv@PLT
.L1339:
	movq	$0, 8(%rsp)
	testq	%rbx, %rbx
	je	.L1337
	movq	104(%rsp), %rax
	movq	88(%rsp), %rdi
	leaq	32(%rsp), %rdx
	leaq	96(%rsp), %rsi
	movq	%rax, 32(%rsp)
	movl	112(%rsp), %eax
	movl	%eax, 40(%rsp)
	movq	120(%rsp), %rax
	movq	%rax, 48(%rsp)
	movq	128(%rsp), %rax
	movq	%rax, 56(%rsp)
.LEHB14:
	call	_ZN4asio6detail14strand_service8dispatchINS0_7binder2IZN7asiopal13SocketChannel13BeginReadImplEN7openpal6WSliceEEUlRKSt10error_codemE_S8_mEEEEvRPNS1_11strand_implERT_
.LEHE14:
	sfence
	cmpq	$0, 16(%rsp)
	movq	8(%rsp), %rbp
	je	.L1341
	movq	$0, 16(%rsp)
.L1341:
	testq	%rbp, %rbp
	je	.L1337
	data16	leaq	_ZN4asio6detail15keyword_tss_ptrINS0_10call_stackINS0_15task_io_serviceENS0_27task_io_service_thread_infoEE7contextEE6value_E@tlsgd(%rip), %rdi
	.value	0x6666
	rex64
	call	__tls_get_addr@PLT
	movq	(%rax), %rax
	testq	%rax, %rax
	je	.L1343
	movq	8(%rax), %rax
	testq	%rax, %rax
	je	.L1343
	cmpq	$0, (%rax)
	je	.L1367
.L1343:
	movq	%rbp, %rdi
	call	_ZdlPv@PLT
.L1337:
	movq	136(%rsp), %rax
	xorq	%fs:40, %rax
	jne	.L1368
	addq	$152, %rsp
	.cfi_remember_state
	.cfi_def_cfa_offset 24
	popq	%rbx
	.cfi_def_cfa_offset 16
	popq	%rbp
	.cfi_def_cfa_offset 8
	ret
	.p2align 4,,10
	.p2align 3
.L1366:
	.cfi_restore_state
	movzbl	80(%rbp), %edx
	movb	%dl, 0(%rbp)
	movq	%rbp, (%rax)
	jmp	.L1339
	.p2align 4,,10
	.p2align 3
.L1367:
	movzbl	80(%rbp), %edx
	movb	%dl, 0(%rbp)
	movq	%rbp, (%rax)
	jmp	.L1337
.L1368:
	call	__stack_chk_fail@PLT
.L1346:
	endbr64
	movq	%rax, %rbp
	jmp	.L1344
	.section	.gcc_except_table
.LLSDA9156:
	.byte	0xff
	.byte	0xff
	.byte	0x1
	.uleb128 .LLSDACSE9156-.LLSDACSB9156
.LLSDACSB9156:
	.uleb128 .LEHB14-.LFB9156
	.uleb128 .LEHE14-.LEHB14
	.uleb128 .L1346-.LFB9156
	.uleb128 0
.LLSDACSE9156:
	.text
	.cfi_endproc
	.section	.text.unlikely
	.cfi_startproc
	.cfi_personality 0x9b,DW.ref.__gxx_personality_v0
	.cfi_lsda 0x1b,.LLSDAC9156
	.type	_ZN4asio6detail18completion_handlerINS0_17rewrapped_handlerINS0_7binder2INS0_15wrapped_handlerINS_10io_service6strandEZN7asiopal13SocketChannel13BeginReadImplEN7openpal6WSliceEEUlRKSt10error_codemE_NS0_26is_continuation_if_runningEEESB_mEESE_EEE11do_completeEPNS0_15task_io_serviceEPNS0_25task_io_service_operationESD_m.cold, @function
_ZN4asio6detail18completion_handlerINS0_17rewrapped_handlerINS0_7binder2INS0_15wrapped_handlerINS_10io_service6strandEZN7asiopal13SocketChannel13BeginReadImplEN7openpal6WSliceEEUlRKSt10error_codemE_NS0_26is_continuation_if_runningEEESB_mEESE_EEE11do_completeEPNS0_15task_io_serviceEPNS0_25task_io_service_operationESD_m.cold:
.LFSB9156:
.L1344:
	.cfi_def_cfa_offset 176
	.cfi_offset 3, -24
	.cfi_offset 6, -16
	sfence
	leaq	8(%rsp), %rdi
	leaq	16(%rsp), %rsi
	call	_ZN4asio6detail18completion_handlerINS0_17rewrapped_handlerINS0_7binder2INS0_15wrapped_handlerINS_10io_service6strandEZN7asiopal13SocketChannel13BeginReadImplEN7openpal6WSliceEEUlRKSt10error_codemE_NS0_26is_continuation_if_runningEEESB_mEESE_EEE3ptr5resetEv.isra.0
	movq	%rbp, %rdi
.LEHB15:
	call	_Unwind_Resume@PLT
.LEHE15:
	.cfi_endproc
.LFE9156:
	.section	.gcc_except_table
.LLSDAC9156:
	.byte	0xff
	.byte	0xff
	.byte	0x1
	.uleb128 .LLSDACSEC9156-.LLSDACSBC9156
.LLSDACSBC9156:
	.uleb128 .LEHB15-.LCOLDB28
	.uleb128 .LEHE15-.LEHB15
	.uleb128 0
	.uleb128 0
.LLSDACSEC9156:
	.section	.text.unlikely
	.text
	.size	_ZN4asio6detail18completion_handlerINS0_17rewrapped_handlerINS0_7binder2INS0_15wrapped_handlerINS_10io_service6strandEZN7asiopal13SocketChannel13BeginReadImplEN7openpal6WSliceEEUlRKSt10error_codemE_NS0_26is_continuation_if_runningEEESB_mEESE_EEE11do_completeEPNS0_15task_io_serviceEPNS0_25task_io_service_operationESD_m, .-_ZN4asio6detail18completion_handlerINS0_17rewrapped_handlerINS0_7binder2INS0_15wrapped_handlerINS_10io_service6strandEZN7asiopal13SocketChannel13BeginReadImplEN7openpal6WSliceEEUlRKSt10error_codemE_NS0_26is_continuation_if_runningEEESB_mEESE_EEE11do_completeEPNS0_15task_io_serviceEPNS0_25task_io_service_operationESD_m
	.section	.text.unlikely
	.size	_ZN4asio6detail18completion_handlerINS0_17rewrapped_handlerINS0_7binder2INS0_15wrapped_handlerINS_10io_service6strandEZN7asiopal13SocketChannel13BeginReadImplEN7openpal6WSliceEEUlRKSt10error_codemE_NS0_26is_continuation_if_runningEEESB_mEESE_EEE11do_completeEPNS0_15task_io_serviceEPNS0_25task_io_service_operationESD_m.cold, .-_ZN4asio6detail18completion_handlerINS0_17rewrapped_handlerINS0_7binder2INS0_15wrapped_handlerINS_10io_service6strandEZN7asiopal13SocketChannel13BeginReadImplEN7openpal6WSliceEEUlRKSt10error_codemE_NS0_26is_continuation_if_runningEEESB_mEESE_EEE11do_completeEPNS0_15task_io_serviceEPNS0_25task_io_service_operationESD_m.cold
.LCOLDE28:
	.text
.LHOTE28:
	.section	.text.unlikely
.LCOLDB29:
	.text
.LHOTB29:
	.p2align 4
	.type	_ZN4asio6detail23reactive_socket_recv_opINS_17mutable_buffers_1ENS0_15wrapped_handlerINS_10io_service6strandEZN7asiopal13SocketChannel13BeginReadImplEN7openpal6WSliceEEUlRKSt10error_codemE_NS0_26is_continuation_if_runningEEEE11do_completeEPNS0_15task_io_serviceEPNS0_25task_io_service_operationESC_m, @function
_ZN4asio6detail23reactive_socket_recv_opINS_17mutable_buffers_1ENS0_15wrapped_handlerINS_10io_service6strandEZN7asiopal13SocketChannel13BeginReadImplEN7openpal6WSliceEEUlRKSt10error_codemE_NS0_26is_continuation_if_runningEEEE11do_completeEPNS0_15task_io_serviceEPNS0_25task_io_service_operationESC_m:
.LFB8685:
	.cfi_startproc
	.cfi_personality 0x9b,DW.ref.__gxx_personality_v0
	.cfi_lsda 0x1b,.LLSDA8685
	endbr64
	pushq	%r13
	.cfi_def_cfa_offset 16
	.cfi_offset 13, -16
	pushq	%r12
	.cfi_def_cfa_offset 24
	.cfi_offset 12, -24
	pushq	%rbp
	.cfi_def_cfa_offset 32
	.cfi_offset 6, -32
	movq	%rsi, %rbp
	pushq	%rbx
	.cfi_def_cfa_offset 40
	.cfi_offset 3, -40
	movq	%rdi, %rbx
	subq	$456, %rsp
	.cfi_def_cfa_offset 496
	movl	24(%rsi), %ecx
	movq	32(%rsi), %rdx
	movq	%fs:40, %rax
	movq	%rax, 440(%rsp)
	xorl	%eax, %eax
	movq	40(%rsi), %rax
	movdqu	88(%rsi), %xmm2
	movq	%rsi, 24(%rsp)
	movq	104(%rsi), %rsi
	movl	%ecx, 216(%rsp)
	movq	%rax, 232(%rsp)
	leaq	192(%rsp), %rax
	movq	%rsi, 208(%rsp)
	movq	%rdx, 224(%rsp)
	movq	%rax, 16(%rsp)
	movq	$0, 32(%rsp)
	movaps	%xmm2, 192(%rsp)
	data16	leaq	_ZN4asio6detail15keyword_tss_ptrINS0_10call_stackINS0_15task_io_serviceENS0_27task_io_service_thread_infoEE7contextEE6value_E@tlsgd(%rip), %rdi
	.value	0x6666
	rex64
	call	__tls_get_addr@PLT
	movq	(%rax), %rax
	testq	%rax, %rax
	je	.L1370
	movq	8(%rax), %rax
	testq	%rax, %rax
	je	.L1370
	cmpq	$0, (%rax)
	je	.L1525
.L1370:
	movq	%rbp, %rdi
	call	_ZdlPv@PLT
.L1371:
	movq	$0, 24(%rsp)
	testq	%rbx, %rbx
	je	.L1369
	movq	208(%rsp), %rax
	movq	200(%rsp), %rbx
	movdqa	192(%rsp), %xmm1
	movdqu	216(%rsp), %xmm0
	movq	%rax, 264(%rsp)
	movq	%rax, 368(%rsp)
	movq	%rax, 392(%rsp)
	movq	232(%rsp), %rax
	movups	%xmm1, 248(%rsp)
	movq	%rax, 416(%rsp)
	movaps	%xmm0, 272(%rsp)
	movups	%xmm1, 376(%rsp)
	movaps	%xmm0, 400(%rsp)
	data16	leaq	_ZN4asio6detail15keyword_tss_ptrINS0_10call_stackINS0_14strand_service11strand_implEhE7contextEE6value_E@tlsgd(%rip), %rdi
	.value	0x6666
	rex64
	call	__tls_get_addr@PLT
	movq	(%rax), %rax
	testq	%rax, %rax
	jne	.L1376
	jmp	.L1373
	.p2align 4,,10
	.p2align 3
.L1374:
	movq	16(%rax), %rax
	testq	%rax, %rax
	je	.L1373
.L1376:
	cmpq	(%rax), %rbx
	jne	.L1374
	cmpq	$0, 8(%rax)
	je	.L1373
	lfence
	movq	392(%rsp), %rax
	leaq	304(%rsp), %rdx
	leaq	384(%rsp), %rsi
	movq	376(%rsp), %rdi
	movq	%rax, 304(%rsp)
	movl	400(%rsp), %eax
	movl	%eax, 312(%rsp)
	movq	408(%rsp), %rax
	movq	%rax, 320(%rsp)
	movq	416(%rsp), %rax
	movq	%rax, 328(%rsp)
.LEHB16:
	call	_ZN4asio6detail14strand_service8dispatchINS0_7binder2IZN7asiopal13SocketChannel13BeginReadImplEN7openpal6WSliceEEUlRKSt10error_codemE_S8_mEEEEvRPNS1_11strand_implERT_
.LEHE16:
	sfence
.L1377:
	sfence
	cmpq	$0, 32(%rsp)
	movq	24(%rsp), %rbp
	je	.L1431
	movq	$0, 32(%rsp)
.L1431:
	testq	%rbp, %rbp
	je	.L1369
	data16	leaq	_ZN4asio6detail15keyword_tss_ptrINS0_10call_stackINS0_15task_io_serviceENS0_27task_io_service_thread_infoEE7contextEE6value_E@tlsgd(%rip), %rdi
	.value	0x6666
	rex64
	call	__tls_get_addr@PLT
	movq	(%rax), %rax
	testq	%rax, %rax
	je	.L1434
	movq	8(%rax), %rax
	testq	%rax, %rax
	je	.L1434
	cmpq	$0, (%rax)
	je	.L1526
.L1434:
	movq	%rbp, %rdi
	call	_ZdlPv@PLT
.L1369:
	movq	440(%rsp), %rax
	xorq	%fs:40, %rax
	jne	.L1527
	addq	$456, %rsp
	.cfi_remember_state
	.cfi_def_cfa_offset 40
	popq	%rbx
	.cfi_def_cfa_offset 32
	popq	%rbp
	.cfi_def_cfa_offset 24
	popq	%r12
	.cfi_def_cfa_offset 16
	popq	%r13
	.cfi_def_cfa_offset 8
	ret
	.p2align 4,,10
	.p2align 3
.L1373:
	.cfi_restore_state
	pxor	%xmm0, %xmm0
	leaq	368(%rsp), %rax
	movq	192(%rsp), %r12
	movq	%rax, 48(%rsp)
	movups	%xmm0, 56(%rsp)
	data16	leaq	_ZN4asio6detail15keyword_tss_ptrINS0_10call_stackINS0_15task_io_serviceENS0_27task_io_service_thread_infoEE7contextEE6value_E@tlsgd(%rip), %rdi
	.value	0x6666
	rex64
	call	__tls_get_addr@PLT
	movq	(%rax), %rax
	testq	%rax, %rax
	je	.L1378
	movq	8(%rax), %rax
	testq	%rax, %rax
	je	.L1378
	movq	(%rax), %rbp
	testq	%rbp, %rbp
	je	.L1378
	movq	$0, (%rax)
	movzbl	0(%rbp), %eax
	cmpb	$79, %al
	jbe	.L1379
	movb	%al, 80(%rbp)
	jmp	.L1380
	.p2align 4,,10
	.p2align 3
.L1379:
	movq	%rbp, %rdi
	call	_ZdlPv@PLT
.L1378:
	movl	$81, %edi
.LEHB17:
	call	_Znwm@PLT
.LEHE17:
	movb	$80, 80(%rax)
	movq	%rax, %rbp
.L1380:
	leaq	_ZN4asio6detail18completion_handlerINS0_17rewrapped_handlerINS0_7binder2INS0_15wrapped_handlerINS_10io_service6strandEZN7asiopal13SocketChannel13BeginReadImplEN7openpal6WSliceEEUlRKSt10error_codemE_NS0_26is_continuation_if_runningEEESB_mEESE_EEE11do_completeEPNS0_15task_io_serviceEPNS0_25task_io_service_operationESD_m(%rip), %rax
	movq	%rbp, 56(%rsp)
	movdqu	376(%rsp), %xmm3
	movq	%rax, 8(%rbp)
	movq	40(%r12), %rbx
	movq	368(%rsp), %rax
	movl	$0, 16(%rbp)
	movdqa	400(%rsp), %xmm4
	movq	$0, 0(%rbp)
	movq	%rax, 24(%rbp)
	movq	392(%rsp), %rax
	movups	%xmm3, 32(%rbp)
	movq	%rax, 48(%rbp)
	movq	416(%rsp), %rax
	movups	%xmm4, 56(%rbp)
	movq	%rax, 72(%rbp)
	movq	%rbp, 64(%rsp)
	data16	leaq	_ZN4asio6detail15keyword_tss_ptrINS0_10call_stackINS0_15task_io_serviceENS0_27task_io_service_thread_infoEE7contextEE6value_E@tlsgd(%rip), %rdi
	.value	0x6666
	rex64
	call	__tls_get_addr@PLT
	movq	(%rax), %rax
	testq	%rax, %rax
	jne	.L1385
	jmp	.L1381
	.p2align 4,,10
	.p2align 3
.L1382:
	movq	16(%rax), %rax
	testq	%rax, %rax
	je	.L1381
.L1385:
	cmpq	(%rax), %rbx
	jne	.L1382
	movq	8(%rax), %rbx
	movq	200(%rsp), %rax
	leaq	24(%rax), %rdi
	call	pthread_mutex_lock@PLT
	testq	%rbx, %rbx
	je	.L1384
	movq	200(%rsp), %rax
	cmpb	$0, 64(%rax)
	leaq	24(%rax), %rdi
	je	.L1528
.L1386:
	cmpq	$0, 80(%rax)
	movq	$0, 0(%rbp)
	je	.L1390
	movq	80(%rax), %rdx
	movq	%rbp, (%rdx)
	movq	%rbp, 80(%rax)
.L1524:
	call	pthread_mutex_unlock@PLT
	jmp	.L1377
	.p2align 4,,10
	.p2align 3
.L1528:
	movb	$1, 64(%rax)
	call	pthread_mutex_unlock@PLT
	pxor	%xmm0, %xmm0
	movq	64(%rsp), %rbp
	movq	200(%rsp), %r13
	movups	%xmm0, 56(%rsp)
	movq	%r13, 80(%rsp)
	data16	leaq	_ZN4asio6detail15keyword_tss_ptrINS0_10call_stackINS0_14strand_service11strand_implEhE7contextEE6value_E@tlsgd(%rip), %rdi
	.value	0x6666
	rex64
	call	__tls_get_addr@PLT
	movq	40(%r12), %rbx
	movdqu	32(%rbp), %xmm6
	movq	%r13, %xmm5
	movdqu	56(%rbp), %xmm7
	leaq	304(%rsp), %r12
	movq	%rbp, 120(%rsp)
	movq	%rbx, %xmm0
	movq	%r12, 112(%rsp)
	movq	$0, 128(%rsp)
	punpcklqdq	%xmm5, %xmm0
	movaps	%xmm0, (%rsp)
	movq	(%rax), %rdx
	movq	%rdx, 96(%rsp)
	leaq	80(%rsp), %rdx
	movq	%rdx, (%rax)
	movq	24(%rbp), %rax
	movq	%rdx, 88(%rsp)
	movq	%rax, 304(%rsp)
	movq	48(%rbp), %rax
	movups	%xmm6, 312(%rsp)
	movq	%rax, 328(%rsp)
	movq	72(%rbp), %rax
	movaps	%xmm7, 336(%rsp)
	movq	%rax, 352(%rsp)
	data16	leaq	_ZN4asio6detail15keyword_tss_ptrINS0_10call_stackINS0_15task_io_serviceENS0_27task_io_service_thread_infoEE7contextEE6value_E@tlsgd(%rip), %rdi
	.value	0x6666
	rex64
	call	__tls_get_addr@PLT
	movq	(%rax), %rax
	testq	%rax, %rax
	je	.L1388
	movq	8(%rax), %rax
	testq	%rax, %rax
	je	.L1388
	cmpq	$0, (%rax)
	je	.L1529
.L1388:
	movq	%rbp, %rdi
	call	_ZdlPv@PLT
.L1405:
	movq	$0, 120(%rsp)
	testq	%rbx, %rbx
	je	.L1408
	movq	328(%rsp), %rax
	movq	312(%rsp), %rdi
	leaq	144(%rsp), %rdx
	leaq	320(%rsp), %rsi
	movq	%rax, 144(%rsp)
	movl	336(%rsp), %eax
	movl	%eax, 152(%rsp)
	movq	344(%rsp), %rax
	movq	%rax, 160(%rsp)
	movq	352(%rsp), %rax
	movq	%rax, 168(%rsp)
.LEHB18:
	call	_ZN4asio6detail14strand_service8dispatchINS0_7binder2IZN7asiopal13SocketChannel13BeginReadImplEN7openpal6WSliceEEUlRKSt10error_codemE_S8_mEEEEvRPNS1_11strand_implERT_
.LEHE18:
	sfence
	movq	120(%rsp), %rbp
	cmpq	$0, 128(%rsp)
	je	.L1407
	movq	$0, 128(%rsp)
.L1407:
	testq	%rbp, %rbp
	je	.L1408
	data16	leaq	_ZN4asio6detail15keyword_tss_ptrINS0_10call_stackINS0_15task_io_serviceENS0_27task_io_service_thread_infoEE7contextEE6value_E@tlsgd(%rip), %rdi
	.value	0x6666
	rex64
	call	__tls_get_addr@PLT
	movq	(%rax), %rax
	testq	%rax, %rax
	je	.L1409
	movq	8(%rax), %rax
	testq	%rax, %rax
	je	.L1409
	cmpq	$0, (%rax)
	je	.L1530
.L1409:
	movq	%rbp, %rdi
	call	_ZdlPv@PLT
.L1408:
	movq	8(%rsp), %rax
	leaq	24(%rax), %rdi
	call	pthread_mutex_lock@PLT
	movq	8(%rsp), %rdi
	movq	72(%rdi), %rbx
	testq	%rbx, %rbx
	je	.L1531
	movq	96(%rdi), %rax
	testq	%rax, %rax
	je	.L1414
	movq	%rbx, (%rax)
	movq	88(%rdi), %rbx
.L1415:
	movq	80(%rdi), %rax
	pxor	%xmm0, %xmm0
	movups	%xmm0, 72(%rdi)
	movq	%rax, 96(%rdi)
.L1411:
	testq	%rbx, %rbx
	setne	64(%rdi)
	addq	$24, %rdi
	call	pthread_mutex_unlock@PLT
	testq	%rbx, %rbx
	jne	.L1532
.L1416:
	data16	leaq	_ZN4asio6detail15keyword_tss_ptrINS0_10call_stackINS0_14strand_service11strand_implEhE7contextEE6value_E@tlsgd(%rip), %rdi
	.value	0x6666
	rex64
	call	__tls_get_addr@PLT
	movq	96(%rsp), %rdx
	cmpq	$0, 64(%rsp)
	movq	56(%rsp), %rbp
	movq	%rdx, (%rax)
	je	.L1427
	movq	$0, 64(%rsp)
.L1427:
	testq	%rbp, %rbp
	je	.L1377
	data16	leaq	_ZN4asio6detail15keyword_tss_ptrINS0_10call_stackINS0_15task_io_serviceENS0_27task_io_service_thread_infoEE7contextEE6value_E@tlsgd(%rip), %rdi
	.value	0x6666
	rex64
	call	__tls_get_addr@PLT
	movq	(%rax), %rax
	testq	%rax, %rax
	je	.L1429
	movq	8(%rax), %rax
	testq	%rax, %rax
	je	.L1429
	cmpq	$0, (%rax)
	je	.L1533
.L1429:
	movq	%rbp, %rdi
	call	_ZdlPv@PLT
	jmp	.L1377
	.p2align 4,,10
	.p2align 3
.L1525:
	movzbl	112(%rbp), %edx
	movb	%dl, 0(%rbp)
	movq	%rbp, (%rax)
	jmp	.L1371
	.p2align 4,,10
	.p2align 3
.L1390:
	movq	%rbp, %xmm0
	punpcklqdq	%xmm0, %xmm0
	movups	%xmm0, 72(%rax)
	jmp	.L1524
	.p2align 4,,10
	.p2align 3
.L1381:
	movq	200(%rsp), %rax
	leaq	24(%rax), %rdi
	call	pthread_mutex_lock@PLT
.L1384:
	movq	200(%rsp), %rax
	cmpb	$0, 64(%rax)
	leaq	24(%rax), %rdi
	jne	.L1386
	movb	$1, 64(%rax)
	call	pthread_mutex_unlock@PLT
	movq	200(%rsp), %r13
	movq	$0, 0(%rbp)
	cmpq	$0, 96(%r13)
	je	.L1393
	movq	96(%r13), %rax
	movq	%rbp, (%rax)
	movq	%rbp, 96(%r13)
.L1394:
	movq	40(%r12), %rbx
	cmpb	$0, 40(%rbx)
	je	.L1395
	data16	leaq	_ZN4asio6detail15keyword_tss_ptrINS0_10call_stackINS0_15task_io_serviceENS0_27task_io_service_thread_infoEE7contextEE6value_E@tlsgd(%rip), %rdi
	.value	0x6666
	rex64
	call	__tls_get_addr@PLT
	movq	(%rax), %rax
	testq	%rax, %rax
	jne	.L1398
	jmp	.L1395
	.p2align 4,,10
	.p2align 3
.L1396:
	movq	16(%rax), %rax
	testq	%rax, %rax
	je	.L1395
.L1398:
	cmpq	(%rax), %rbx
	jne	.L1396
	movq	8(%rax), %rax
	testq	%rax, %rax
	je	.L1395
	addq	$1, 24(%rax)
	cmpq	$0, 16(%rax)
	movq	$0, 0(%r13)
	je	.L1399
	movq	16(%rax), %rdx
	movq	%r13, (%rdx)
	movq	%r13, 16(%rax)
	jmp	.L1377
	.p2align 4,,10
	.p2align 3
.L1395:
	lock addq	$1, 184(%rbx)
	leaq	48(%rbx), %rbp
	movq	%rbp, %rdi
	call	pthread_mutex_lock@PLT
	cmpq	$0, 200(%rbx)
	movq	$0, 0(%r13)
	je	.L1400
	movq	200(%rbx), %rax
	movq	%r13, (%rax)
	movq	%r13, 200(%rbx)
.L1401:
	movq	136(%rbx), %rax
	orq	$1, %rax
	movq	%rax, 136(%rbx)
	cmpq	$1, %rax
	je	.L1402
	movq	%rbp, %rdi
	call	pthread_mutex_unlock@PLT
	leaq	88(%rbx), %rdi
	call	pthread_cond_signal@PLT
	jmp	.L1377
	.p2align 4,,10
	.p2align 3
.L1402:
	cmpb	$0, 176(%rbx)
	jne	.L1404
	movq	144(%rbx), %rax
	testq	%rax, %rax
	je	.L1404
	movb	$1, 176(%rbx)
	leaq	88(%rax), %rdx
	movl	$3, %esi
	leaq	304(%rsp), %rcx
	movl	$-2147483639, 304(%rsp)
	movq	%rdx, 308(%rsp)
	movl	88(%rax), %edx
	movl	96(%rax), %edi
	call	epoll_ctl@PLT
.L1404:
	movq	%rbp, %rdi
	jmp	.L1524
	.p2align 4,,10
	.p2align 3
.L1526:
	movzbl	112(%rbp), %edx
	movb	%dl, 0(%rbp)
	movq	%rbp, (%rax)
	jmp	.L1369
	.p2align 4,,10
	.p2align 3
.L1532:
	movq	(%rsp), %rbx
	movq	8(%rsp), %rbp
	cmpb	$0, 40(%rbx)
	je	.L1417
	data16	leaq	_ZN4asio6detail15keyword_tss_ptrINS0_10call_stackINS0_15task_io_serviceENS0_27task_io_service_thread_infoEE7contextEE6value_E@tlsgd(%rip), %rdi
	.value	0x6666
	rex64
	call	__tls_get_addr@PLT
	movq	(%rax), %rax
	testq	%rax, %rax
	jne	.L1420
	jmp	.L1417
	.p2align 4,,10
	.p2align 3
.L1418:
	movq	16(%rax), %rax
	testq	%rax, %rax
	je	.L1417
.L1420:
	cmpq	(%rax), %rbx
	jne	.L1418
	movq	8(%rax), %rax
	testq	%rax, %rax
	je	.L1417
	addq	$1, 24(%rax)
	cmpq	$0, 16(%rax)
	movq	$0, 0(%rbp)
	je	.L1421
	movq	16(%rax), %rdx
	movq	%rbp, (%rdx)
	movq	%rbp, 16(%rax)
	jmp	.L1416
	.p2align 4,,10
	.p2align 3
.L1417:
	lock addq	$1, 184(%rbx)
	leaq	48(%rbx), %r13
	movq	%r13, %rdi
	call	pthread_mutex_lock@PLT
	cmpq	$0, 200(%rbx)
	movq	$0, 0(%rbp)
	je	.L1422
	movq	200(%rbx), %rax
	movq	%rbp, (%rax)
	movq	%rbp, 200(%rbx)
.L1423:
	movq	136(%rbx), %rax
	orq	$1, %rax
	movq	%rax, 136(%rbx)
	cmpq	$1, %rax
	je	.L1424
	movq	%r13, %rdi
	call	pthread_mutex_unlock@PLT
	leaq	88(%rbx), %rdi
	call	pthread_cond_signal@PLT
	jmp	.L1416
	.p2align 4,,10
	.p2align 3
.L1531:
	movq	88(%rdi), %rbx
	jmp	.L1411
	.p2align 4,,10
	.p2align 3
.L1422:
	movq	%rbp, %xmm0
	punpcklqdq	%xmm0, %xmm0
	movups	%xmm0, 192(%rbx)
	jmp	.L1423
	.p2align 4,,10
	.p2align 3
.L1414:
	movq	%rbx, 88(%rdi)
	jmp	.L1415
	.p2align 4,,10
	.p2align 3
.L1424:
	cmpb	$0, 176(%rbx)
	jne	.L1426
	movq	144(%rbx), %rax
	testq	%rax, %rax
	je	.L1426
	movb	$1, 176(%rbx)
	leaq	88(%rax), %rdx
	movq	%r12, %rcx
	movl	$3, %esi
	movl	$-2147483639, 304(%rsp)
	movq	%rdx, 308(%rsp)
	movl	88(%rax), %edx
	movl	96(%rax), %edi
	call	epoll_ctl@PLT
.L1426:
	movq	%r13, %rdi
	call	pthread_mutex_unlock@PLT
	jmp	.L1416
	.p2align 4,,10
	.p2align 3
.L1533:
	movzbl	80(%rbp), %edx
	movb	%dl, 0(%rbp)
	movq	%rbp, (%rax)
	jmp	.L1377
	.p2align 4,,10
	.p2align 3
.L1393:
	movq	%rbp, %xmm0
	punpcklqdq	%xmm0, %xmm0
	movups	%xmm0, 88(%r13)
	jmp	.L1394
	.p2align 4,,10
	.p2align 3
.L1400:
	movq	%r13, %xmm0
	punpcklqdq	%xmm0, %xmm0
	movups	%xmm0, 192(%rbx)
	jmp	.L1401
	.p2align 4,,10
	.p2align 3
.L1530:
	movzbl	80(%rbp), %edx
	movb	%dl, 0(%rbp)
	movq	%rbp, (%rax)
	jmp	.L1408
	.p2align 4,,10
	.p2align 3
.L1529:
	movzbl	80(%rbp), %edx
	movb	%dl, 0(%rbp)
	movq	%rbp, (%rax)
	jmp	.L1405
	.p2align 4,,10
	.p2align 3
.L1399:
	movq	%r13, %xmm0
	punpcklqdq	%xmm0, %xmm0
	movups	%xmm0, 8(%rax)
	jmp	.L1377
.L1421:
	movq	%rbp, %xmm0
	punpcklqdq	%xmm0, %xmm0
	movups	%xmm0, 8(%rax)
	jmp	.L1416
.L1527:
	call	__stack_chk_fail@PLT
.L1437:
	endbr64
	movq	%rax, %rbp
	jmp	.L1432
.L1438:
	endbr64
	movq	%rax, %rbp
	jmp	.L1412
.L1436:
	endbr64
	movq	%rax, %rbp
	jmp	.L1413
	.section	.gcc_except_table
.LLSDA8685:
	.byte	0xff
	.byte	0xff
	.byte	0x1
	.uleb128 .LLSDACSE8685-.LLSDACSB8685
.LLSDACSB8685:
	.uleb128 .LEHB16-.LFB8685
	.uleb128 .LEHE16-.LEHB16
	.uleb128 .L1437-.LFB8685
	.uleb128 0
	.uleb128 .LEHB17-.LFB8685
	.uleb128 .LEHE17-.LEHB17
	.uleb128 .L1436-.LFB8685
	.uleb128 0
	.uleb128 .LEHB18-.LFB8685
	.uleb128 .LEHE18-.LEHB18
	.uleb128 .L1438-.LFB8685
	.uleb128 0
.LLSDACSE8685:
	.text
	.cfi_endproc
	.section	.text.unlikely
	.cfi_startproc
	.cfi_personality 0x9b,DW.ref.__gxx_personality_v0
	.cfi_lsda 0x1b,.LLSDAC8685
	.type	_ZN4asio6detail23reactive_socket_recv_opINS_17mutable_buffers_1ENS0_15wrapped_handlerINS_10io_service6strandEZN7asiopal13SocketChannel13BeginReadImplEN7openpal6WSliceEEUlRKSt10error_codemE_NS0_26is_continuation_if_runningEEEE11do_completeEPNS0_15task_io_serviceEPNS0_25task_io_service_operationESC_m.cold, @function
_ZN4asio6detail23reactive_socket_recv_opINS_17mutable_buffers_1ENS0_15wrapped_handlerINS_10io_service6strandEZN7asiopal13SocketChannel13BeginReadImplEN7openpal6WSliceEEUlRKSt10error_codemE_NS0_26is_continuation_if_runningEEEE11do_completeEPNS0_15task_io_serviceEPNS0_25task_io_service_operationESC_m.cold:
.LFSB8685:
.L1432:
	.cfi_def_cfa_offset 496
	.cfi_offset 3, -40
	.cfi_offset 6, -32
	.cfi_offset 12, -24
	.cfi_offset 13, -16
	sfence
	jmp	.L1413
.L1412:
	sfence
	leaq	128(%rsp), %rsi
	leaq	120(%rsp), %rdi
	call	_ZN4asio6detail18completion_handlerINS0_17rewrapped_handlerINS0_7binder2INS0_15wrapped_handlerINS_10io_service6strandEZN7asiopal13SocketChannel13BeginReadImplEN7openpal6WSliceEEUlRKSt10error_codemE_NS0_26is_continuation_if_runningEEESB_mEESE_EEE3ptr5resetEv.isra.0
	movq	%rsp, %rdi
	call	_ZN4asio6detail14strand_service16on_dispatch_exitD1Ev@PLT
	data16	leaq	_ZN4asio6detail15keyword_tss_ptrINS0_10call_stackINS0_14strand_service11strand_implEhE7contextEE6value_E@tlsgd(%rip), %rdi
	.value	0x6666
	rex64
	call	__tls_get_addr@PLT
	movq	96(%rsp), %rdx
	leaq	64(%rsp), %rsi
	leaq	56(%rsp), %rdi
	movq	%rdx, (%rax)
	call	_ZN4asio6detail18completion_handlerINS0_17rewrapped_handlerINS0_7binder2INS0_15wrapped_handlerINS_10io_service6strandEZN7asiopal13SocketChannel13BeginReadImplEN7openpal6WSliceEEUlRKSt10error_codemE_NS0_26is_continuation_if_runningEEESB_mEESE_EEE3ptr5resetEv.isra.0
.L1413:
	sfence
	leaq	24(%rsp), %rdi
	leaq	32(%rsp), %rsi
	call	_ZN4asio6detail23reactive_socket_recv_opINS_17mutable_buffers_1ENS0_15wrapped_handlerINS_10io_service6strandEZN7asiopal13SocketChannel13BeginReadImplEN7openpal6WSliceEEUlRKSt10error_codemE_NS0_26is_continuation_if_runningEEEE3ptr5resetEv.isra.0
	movq	%rbp, %rdi
.LEHB19:
	call	_Unwind_Resume@PLT
.LEHE19:
	.cfi_endproc
.LFE8685:
	.section	.gcc_except_table
.LLSDAC8685:
	.byte	0xff
	.byte	0xff
	.byte	0x1
	.uleb128 .LLSDACSEC8685-.LLSDACSBC8685
.LLSDACSBC8685:
	.uleb128 .LEHB19-.LCOLDB29
	.uleb128 .LEHE19-.LEHB19
	.uleb128 0
	.uleb128 0
.LLSDACSEC8685:
	.section	.text.unlikely
	.text
	.size	_ZN4asio6detail23reactive_socket_recv_opINS_17mutable_buffers_1ENS0_15wrapped_handlerINS_10io_service6strandEZN7asiopal13SocketChannel13BeginReadImplEN7openpal6WSliceEEUlRKSt10error_codemE_NS0_26is_continuation_if_runningEEEE11do_completeEPNS0_15task_io_serviceEPNS0_25task_io_service_operationESC_m, .-_ZN4asio6detail23reactive_socket_recv_opINS_17mutable_buffers_1ENS0_15wrapped_handlerINS_10io_service6strandEZN7asiopal13SocketChannel13BeginReadImplEN7openpal6WSliceEEUlRKSt10error_codemE_NS0_26is_continuation_if_runningEEEE11do_completeEPNS0_15task_io_serviceEPNS0_25task_io_service_operationESC_m
	.section	.text.unlikely
	.size	_ZN4asio6detail23reactive_socket_recv_opINS_17mutable_buffers_1ENS0_15wrapped_handlerINS_10io_service6strandEZN7asiopal13SocketChannel13BeginReadImplEN7openpal6WSliceEEUlRKSt10error_codemE_NS0_26is_continuation_if_runningEEEE11do_completeEPNS0_15task_io_serviceEPNS0_25task_io_service_operationESC_m.cold, .-_ZN4asio6detail23reactive_socket_recv_opINS_17mutable_buffers_1ENS0_15wrapped_handlerINS_10io_service6strandEZN7asiopal13SocketChannel13BeginReadImplEN7openpal6WSliceEEUlRKSt10error_codemE_NS0_26is_continuation_if_runningEEEE11do_completeEPNS0_15task_io_serviceEPNS0_25task_io_service_operationESC_m.cold
.LCOLDE29:
	.text
.LHOTE29:
	.section	.text.unlikely
	.align 2
.LCOLDB30:
	.text
.LHOTB30:
	.align 2
	.p2align 4
	.type	_ZN4asio6detail8write_opINS_19basic_stream_socketINS_2ip3tcpENS_21stream_socket_serviceIS4_EEEENS_15const_buffers_1ENS0_14transfer_all_tENS0_15wrapped_handlerINS_10io_service6strandEZN7asiopal13SocketChannel14BeginWriteImplERKN7openpal6RSliceEEUlRKSt10error_codemE_NS0_26is_continuation_if_runningEEEEclESL_mi, @function
_ZN4asio6detail8write_opINS_19basic_stream_socketINS_2ip3tcpENS_21stream_socket_serviceIS4_EEEENS_15const_buffers_1ENS0_14transfer_all_tENS0_15wrapped_handlerINS_10io_service6strandEZN7asiopal13SocketChannel14BeginWriteImplERKN7openpal6RSliceEEUlRKSt10error_codemE_NS0_26is_continuation_if_runningEEEEclESL_mi:
.LFB8132:
	.cfi_startproc
	.cfi_personality 0x9b,DW.ref.__gxx_personality_v0
	.cfi_lsda 0x1b,.LLSDA8132
	pushq	%r15
	.cfi_def_cfa_offset 16
	.cfi_offset 15, -16
	pushq	%r14
	.cfi_def_cfa_offset 24
	.cfi_offset 14, -24
	movl	%ecx, %r14d
	pushq	%r13
	.cfi_def_cfa_offset 32
	.cfi_offset 13, -32
	pushq	%r12
	.cfi_def_cfa_offset 40
	.cfi_offset 12, -40
	pushq	%rbp
	.cfi_def_cfa_offset 48
	.cfi_offset 6, -48
	movq	%rdi, %rbp
	pushq	%rbx
	.cfi_def_cfa_offset 56
	.cfi_offset 3, -56
	subq	$264, %rsp
	.cfi_def_cfa_offset 320
	movq	32(%rdi), %r15
	movq	%fs:40, %rax
	movq	%rax, 248(%rsp)
	xorl	%eax, %eax
	movl	%ecx, 24(%rdi)
	cmpl	$1, %ecx
	je	.L1858
	addq	%rdx, %r15
	movl	(%rsi), %eax
	movq	%r15, 32(%rdi)
	testq	%rdx, %rdx
	je	.L1614
	testl	%eax, %eax
	je	.L1859
.L1614:
	movq	56(%rbp), %rcx
	movq	8(%rsi), %rdx
	movl	%eax, 184(%rsp)
	movq	%r15, 200(%rsp)
	movq	48(%rbp), %rbx
	movq	%rcx, 176(%rsp)
	movq	%rdx, 192(%rsp)
	data16	leaq	_ZN4asio6detail15keyword_tss_ptrINS0_10call_stackINS0_14strand_service11strand_implEhE7contextEE6value_E@tlsgd(%rip), %rdi
	.value	0x6666
	rex64
	call	__tls_get_addr@PLT
	movq	(%rax), %rax
	testq	%rax, %rax
	jne	.L1619
	jmp	.L1616
	.p2align 4,,10
	.p2align 3
.L1617:
	movq	16(%rax), %rax
	testq	%rax, %rax
	je	.L1616
.L1619:
	cmpq	(%rax), %rbx
	jne	.L1617
	cmpq	$0, 8(%rax)
	je	.L1616
	lfence
	movq	176(%rsp), %rax
	movq	200(%rsp), %rdx
	movq	40(%rax), %rdi
	movb	$0, 58(%rax)
	testq	%rdi, %rdi
	je	.L1622
	cmpb	$0, 56(%rax)
	je	.L1860
.L1622:
	sfence
.L1534:
	movq	248(%rsp), %rax
	xorq	%fs:40, %rax
	jne	.L1861
	addq	$264, %rsp
	.cfi_remember_state
	.cfi_def_cfa_offset 56
	popq	%rbx
	.cfi_def_cfa_offset 48
	popq	%rbp
	.cfi_def_cfa_offset 40
	popq	%r12
	.cfi_def_cfa_offset 32
	popq	%r13
	.cfi_def_cfa_offset 24
	popq	%r14
	.cfi_def_cfa_offset 16
	popq	%r15
	.cfi_def_cfa_offset 8
	ret
	.p2align 4,,10
	.p2align 3
.L1858:
	.cfi_restore_state
	movl	(%rsi), %edx
	xorl	%eax, %eax
	movq	16(%rdi), %r12
	movq	(%rdi), %rbx
	testl	%edx, %edx
	sete	%al
	salq	$16, %rax
	cmpq	%r15, %r12
	jnb	.L1680
	movq	24(%rbx), %rax
	movdqu	8(%rdi), %xmm5
	xorl	%r12d, %r12d
	movq	%rbx, 176(%rsp)
	movdqu	40(%rdi), %xmm6
	movl	$1, 200(%rsp)
	movq	%rax, 24(%rsp)
	movq	56(%rdi), %rax
	movq	%r15, 208(%rsp)
	movq	%rax, 232(%rsp)
	movq	$0, 8(%rsp)
	movups	%xmm5, 184(%rsp)
	movups	%xmm6, 216(%rsp)
.L1678:
	data16	leaq	_ZN4asio6detail15keyword_tss_ptrINS0_10call_stackINS0_14strand_service11strand_implEhE7contextEE6value_E@tlsgd(%rip), %rdi
	.value	0x6666
	rex64
	call	__tls_get_addr@PLT
	movq	224(%rsp), %rbp
	movq	(%rax), %rax
	testq	%rax, %rax
	jne	.L1540
	jmp	.L1685
	.p2align 4,,10
	.p2align 3
.L1539:
	movq	16(%rax), %rax
	testq	%rax, %rax
	je	.L1685
.L1540:
	cmpq	(%rax), %rbp
	jne	.L1539
	cmpq	$0, 8(%rax)
	setne	7(%rsp)
.L1538:
	pxor	%xmm0, %xmm0
	leaq	176(%rsp), %rax
	movq	%rax, 144(%rsp)
	movups	%xmm0, 152(%rsp)
	data16	leaq	_ZN4asio6detail15keyword_tss_ptrINS0_10call_stackINS0_15task_io_serviceENS0_27task_io_service_thread_infoEE7contextEE6value_E@tlsgd(%rip), %rdi
	.value	0x6666
	rex64
	call	__tls_get_addr@PLT
	movq	(%rax), %rax
	testq	%rax, %rax
	je	.L1541
	movq	8(%rax), %rax
	testq	%rax, %rax
	je	.L1541
	movq	(%rax), %rbp
	testq	%rbp, %rbp
	je	.L1541
	movq	$0, (%rax)
	movzbl	0(%rbp), %eax
	cmpb	$-105, %al
	jbe	.L1542
	movb	%al, 152(%rbp)
	movq	%rbx, %rdx
	jmp	.L1543
	.p2align 4,,10
	.p2align 3
.L1680:
	movq	8(%rbp), %rcx
	subq	%r15, %r12
	movdqu	8(%rbp), %xmm3
	movb	$1, 7(%rsp)
	movdqu	40(%rbp), %xmm4
	addq	%r15, %rcx
	cmpq	%rax, %r12
	cmova	%rax, %r12
	movq	24(%rbx), %rax
	movq	%rcx, 8(%rsp)
	movq	%rbx, 176(%rsp)
	movq	%rax, 24(%rsp)
	movq	56(%rbp), %rax
	movl	%r14d, 200(%rsp)
	movq	%r15, 208(%rsp)
	movq	%rax, 232(%rsp)
	movups	%xmm3, 184(%rsp)
	movups	%xmm4, 216(%rsp)
	testl	%r14d, %r14d
	je	.L1538
	jmp	.L1678
	.p2align 4,,10
	.p2align 3
.L1542:
	movq	%rbp, %rdi
	call	_ZdlPv@PLT
.L1541:
	movl	$153, %edi
.LEHB20:
	call	_Znwm@PLT
.LEHE20:
	movq	176(%rsp), %rdx
	movl	200(%rsp), %r14d
	movb	$-104, 152(%rax)
	movq	208(%rsp), %r15
	movq	%rax, %rbp
.L1543:
	leaq	_ZN4asio6detail23reactive_socket_send_opINS_15const_buffers_1ENS0_8write_opINS_19basic_stream_socketINS_2ip3tcpENS_21stream_socket_serviceIS6_EEEES2_NS0_14transfer_all_tENS0_15wrapped_handlerINS_10io_service6strandEZN7asiopal13SocketChannel14BeginWriteImplERKN7openpal6RSliceEEUlRKSt10error_codemE_NS0_26is_continuation_if_runningEEEEEE11do_completeEPNS0_15task_io_serviceEPNS0_25task_io_service_operationESM_m(%rip), %rax
	movl	(%rbx), %r13d
	movq	%rdx, 16(%rsp)
	movq	%rbp, 152(%rsp)
	movq	$0, 0(%rbp)
	movq	%rax, 8(%rbp)
	movl	$0, 16(%rbp)
	movl	$0, 24(%rbp)
	call	_ZNSt3_V215system_categoryEv@PLT
	movq	16(%rsp), %rdx
	movl	%r13d, 56(%rbp)
	movdqu	184(%rsp), %xmm1
	movq	%rax, 32(%rbp)
	movq	%rax, %r8
	movq	_ZN4asio6detail28reactive_socket_send_op_baseINS_15const_buffers_1EE10do_performEPNS0_10reactor_opE@GOTPCREL(%rip), %rax
	movq	$0, 40(%rbp)
	movdqu	216(%rsp), %xmm2
	movq	%r12, 72(%rbp)
	movq	%rax, 48(%rbp)
	movq	8(%rsp), %rax
	movl	$0, 80(%rbp)
	movq	%rax, 64(%rbp)
	movq	232(%rsp), %rax
	movq	%rdx, 88(%rbp)
	movl	%r14d, 112(%rbp)
	movq	%r15, 120(%rbp)
	movq	%rax, 144(%rbp)
	movups	%xmm1, 96(%rbp)
	movups	%xmm2, 128(%rbp)
	movq	%rbp, 160(%rsp)
	movzbl	4(%rbx), %eax
	testb	$16, %al
	je	.L1544
	testq	%r12, %r12
	je	.L1545
.L1544:
	movzbl	7(%rsp), %r14d
	testb	$3, %al
	jne	.L1547
	cmpl	$-1, %r13d
	je	.L1862
	movq	%r8, 8(%rsp)
	call	__errno_location@PLT
	movl	%r13d, %edi
	leaq	112(%rsp), %rdx
	movl	$21537, %esi
	movl	$0, (%rax)
	movq	%rax, %r15
	xorl	%eax, %eax
	movl	$1, 112(%rsp)
	call	ioctl@PLT
	movq	_ZGVZN4asio15system_categoryEvE8instance@GOTPCREL(%rip), %r12
	movl	%eax, %r13d
	movzbl	(%r12), %eax
	testb	%al, %al
	movq	8(%rsp), %r8
	je	.L1552
.L1833:
	movq	_ZZN4asio15system_categoryEvE8instance@GOTPCREL(%rip), %rcx
.L1553:
	movl	(%r15), %eax
	movq	%rcx, 32(%rbp)
	movl	%eax, 24(%rbp)
	testl	%r13d, %r13d
	js	.L1545
	movl	$0, 24(%rbp)
	movl	(%rbx), %r13d
	movq	%r8, 32(%rbp)
	orb	$2, 4(%rbx)
.L1547:
	movq	24(%rsp), %rax
	movq	8(%rbx), %r12
	movq	40(%rax), %r15
	testq	%r12, %r12
	je	.L1863
	addq	$40, %r12
	movq	%r12, %rdi
	call	pthread_mutex_lock@PLT
	movq	8(%rbx), %rax
	cmpb	$0, 144(%rax)
	jne	.L1864
	cmpq	$0, 112(%rax)
	je	.L1865
.L1585:
	movq	120(%rax), %rdx
	movq	$0, 0(%rbp)
	testq	%rdx, %rdx
	je	.L1599
	movq	%rbp, (%rdx)
	movq	%rbp, 120(%rax)
.L1600:
	movq	40(%r15), %rax
	lock addq	$1, 184(%rax)
	movq	%r12, %rdi
	call	pthread_mutex_unlock@PLT
	jmp	.L1534
	.p2align 4,,10
	.p2align 3
.L1862:
	movq	_ZGVZN4asio15system_categoryEvE8instance@GOTPCREL(%rip), %r12
	movzbl	(%r12), %eax
	testb	%al, %al
	je	.L1549
.L1832:
	movq	_ZZN4asio15system_categoryEvE8instance@GOTPCREL(%rip), %rcx
.L1550:
	movl	$9, 24(%rbp)
	movq	%rcx, 32(%rbp)
	.p2align 4,,10
	.p2align 3
.L1545:
	movq	24(%rsp), %rax
	movq	40(%rax), %rax
	movq	40(%rax), %rbx
	cmpb	$0, 40(%rbx)
	jne	.L1692
	cmpb	$0, 7(%rsp)
	jne	.L1692
.L1602:
	lock addq	$1, 184(%rbx)
	leaq	48(%rbx), %r12
	movq	%r12, %rdi
	call	pthread_mutex_lock@PLT
	movq	$0, 0(%rbp)
	cmpq	$0, 200(%rbx)
	je	.L1608
	movq	200(%rbx), %rax
	movq	%rbp, (%rax)
	movq	%rbp, 200(%rbx)
.L1609:
	movq	136(%rbx), %rax
	orq	$1, %rax
	movq	%rax, 136(%rbx)
	cmpq	$1, %rax
	je	.L1610
.L1839:
	movq	%r12, %rdi
	call	pthread_mutex_unlock@PLT
	leaq	88(%rbx), %rdi
	call	pthread_cond_signal@PLT
	jmp	.L1534
	.p2align 4,,10
	.p2align 3
.L1692:
	data16	leaq	_ZN4asio6detail15keyword_tss_ptrINS0_10call_stackINS0_15task_io_serviceENS0_27task_io_service_thread_infoEE7contextEE6value_E@tlsgd(%rip), %rdi
	.value	0x6666
	rex64
	call	__tls_get_addr@PLT
	movq	(%rax), %rax
	testq	%rax, %rax
	jne	.L1606
	jmp	.L1602
	.p2align 4,,10
	.p2align 3
.L1604:
	movq	16(%rax), %rax
	testq	%rax, %rax
	je	.L1602
.L1606:
	cmpq	(%rax), %rbx
	jne	.L1604
.L1856:
	movq	8(%rax), %rax
	testq	%rax, %rax
	je	.L1602
.L1642:
	addq	$1, 24(%rax)
	movq	$0, 0(%rbp)
	cmpq	$0, 16(%rax)
	je	.L1644
	movq	16(%rax), %rdx
	movq	%rbp, (%rdx)
	movq	%rbp, 16(%rax)
	jmp	.L1534
	.p2align 4,,10
	.p2align 3
.L1859:
	movq	16(%rdi), %r12
	cmpq	%r12, %r15
	je	.L1614
	movq	(%rdi), %rbx
	movl	$65536, %eax
	jbe	.L1680
	movq	24(%rbx), %rax
	movdqu	8(%rbp), %xmm4
	xorl	%r12d, %r12d
	movq	%rbx, 176(%rsp)
	movdqu	40(%rbp), %xmm5
	movb	$1, 7(%rsp)
	movq	%rax, 24(%rsp)
	movq	56(%rbp), %rax
	movl	$0, 200(%rsp)
	movq	%r15, 208(%rsp)
	movq	%rax, 232(%rsp)
	movq	$0, 8(%rsp)
	movups	%xmm4, 184(%rsp)
	movups	%xmm5, 216(%rsp)
	jmp	.L1538
	.p2align 4,,10
	.p2align 3
.L1860:
	movq	(%rdi), %rax
	leaq	184(%rsp), %rsi
.LEHB21:
	call	*24(%rax)
.LEHE21:
	jmp	.L1622
	.p2align 4,,10
	.p2align 3
.L1616:
	pxor	%xmm0, %xmm0
	leaq	176(%rsp), %rax
	movq	40(%rbp), %r13
	movq	%rax, 48(%rsp)
	movups	%xmm0, 56(%rsp)
	data16	leaq	_ZN4asio6detail15keyword_tss_ptrINS0_10call_stackINS0_15task_io_serviceENS0_27task_io_service_thread_infoEE7contextEE6value_E@tlsgd(%rip), %rdi
	.value	0x6666
	rex64
	call	__tls_get_addr@PLT
	movq	(%rax), %rax
	testq	%rax, %rax
	je	.L1623
	movq	8(%rax), %rax
	testq	%rax, %rax
	je	.L1623
	movq	(%rax), %r12
	testq	%r12, %r12
	je	.L1623
	movq	$0, (%rax)
	movzbl	(%r12), %eax
	cmpb	$55, %al
	jbe	.L1624
	movb	%al, 56(%r12)
	jmp	.L1625
	.p2align 4,,10
	.p2align 3
.L1610:
	cmpb	$0, 176(%rbx)
	jne	.L1579
	movq	144(%rbx), %rax
	testq	%rax, %rax
	je	.L1579
	movb	$1, 176(%rbx)
	leaq	88(%rax), %rdx
	leaq	112(%rsp), %rcx
	movl	$3, %esi
	movl	$-2147483639, 112(%rsp)
	movq	%rdx, 116(%rsp)
	movl	88(%rax), %edx
	movl	96(%rax), %edi
	call	epoll_ctl@PLT
	.p2align 4,,10
	.p2align 3
.L1579:
	movq	%r12, %rdi
.L1838:
	call	pthread_mutex_unlock@PLT
	jmp	.L1534
	.p2align 4,,10
	.p2align 3
.L1685:
	movb	$0, 7(%rsp)
	jmp	.L1538
	.p2align 4,,10
	.p2align 3
.L1624:
	movq	%r12, %rdi
	call	_ZdlPv@PLT
.L1623:
	movl	$57, %edi
.LEHB22:
	call	_Znwm@PLT
.LEHE22:
	movb	$56, 56(%rax)
	movq	%rax, %r12
.L1625:
	leaq	_ZN4asio6detail18completion_handlerINS0_7binder2IZN7asiopal13SocketChannel14BeginWriteImplERKN7openpal6RSliceEEUlRKSt10error_codemE_S9_mEEE11do_completeEPNS0_15task_io_serviceEPNS0_25task_io_service_operationESB_m(%rip), %rax
	movq	%r12, 56(%rsp)
	movdqa	176(%rsp), %xmm7
	movq	$0, (%r12)
	movq	40(%r13), %rbx
	movq	%rax, 8(%r12)
	movl	$0, 16(%r12)
	movups	%xmm7, 24(%r12)
	movdqa	192(%rsp), %xmm7
	movq	%r12, 64(%rsp)
	movups	%xmm7, 40(%r12)
	data16	leaq	_ZN4asio6detail15keyword_tss_ptrINS0_10call_stackINS0_15task_io_serviceENS0_27task_io_service_thread_infoEE7contextEE6value_E@tlsgd(%rip), %rdi
	.value	0x6666
	rex64
	call	__tls_get_addr@PLT
	movq	(%rax), %rax
	testq	%rax, %rax
	jne	.L1630
	jmp	.L1626
	.p2align 4,,10
	.p2align 3
.L1627:
	movq	16(%rax), %rax
	testq	%rax, %rax
	je	.L1626
.L1630:
	cmpq	(%rax), %rbx
	jne	.L1627
	movq	8(%rax), %rbx
	movq	48(%rbp), %rax
	leaq	24(%rax), %rdi
	call	pthread_mutex_lock@PLT
	testq	%rbx, %rbx
	je	.L1629
	movq	48(%rbp), %rax
	cmpb	$0, 64(%rax)
	leaq	24(%rax), %rdi
	je	.L1866
.L1631:
	cmpq	$0, 80(%rax)
	movq	$0, (%r12)
	je	.L1635
	movq	80(%rax), %rdx
	movq	%r12, (%rdx)
	movq	%r12, 80(%rax)
	jmp	.L1838
	.p2align 4,,10
	.p2align 3
.L1866:
	movb	$1, 64(%rax)
	call	pthread_mutex_unlock@PLT
	movq	48(%rbp), %rbp
	pxor	%xmm0, %xmm0
	movq	64(%rsp), %r12
	movups	%xmm0, 56(%rsp)
	movq	%rbp, 80(%rsp)
	data16	leaq	_ZN4asio6detail15keyword_tss_ptrINS0_10call_stackINS0_14strand_service11strand_implEhE7contextEE6value_E@tlsgd(%rip), %rdi
	.value	0x6666
	rex64
	call	__tls_get_addr@PLT
	movq	40(%r13), %rbx
	movq	%rbp, %xmm5
	movdqu	24(%r12), %xmm6
	leaq	144(%rsp), %r13
	movq	%r12, 120(%rsp)
	movaps	%xmm6, 144(%rsp)
	movq	%rbx, %xmm0
	movdqu	40(%r12), %xmm3
	punpcklqdq	%xmm5, %xmm0
	movq	%r13, 112(%rsp)
	movq	$0, 128(%rsp)
	movaps	%xmm0, 32(%rsp)
	movq	(%rax), %rdx
	movaps	%xmm3, 160(%rsp)
	movq	%rdx, 96(%rsp)
	leaq	80(%rsp), %rdx
	movq	%rdx, (%rax)
	movq	%rdx, 88(%rsp)
	data16	leaq	_ZN4asio6detail15keyword_tss_ptrINS0_10call_stackINS0_15task_io_serviceENS0_27task_io_service_thread_infoEE7contextEE6value_E@tlsgd(%rip), %rdi
	.value	0x6666
	rex64
	call	__tls_get_addr@PLT
	movq	(%rax), %rax
	testq	%rax, %rax
	je	.L1633
	movq	8(%rax), %rax
	testq	%rax, %rax
	je	.L1633
	cmpq	$0, (%rax)
	jne	.L1633
	movzbl	56(%r12), %edx
	movb	%dl, (%r12)
	movq	%r12, (%rax)
	jmp	.L1650
	.p2align 4,,10
	.p2align 3
.L1633:
	movq	%r12, %rdi
	call	_ZdlPv@PLT
.L1650:
	movq	$0, 120(%rsp)
	testq	%rbx, %rbx
	je	.L1651
	movq	144(%rsp), %rax
	movq	168(%rsp), %rdx
	movq	40(%rax), %rdi
	movb	$0, 58(%rax)
	testq	%rdi, %rdi
	je	.L1655
	cmpb	$0, 56(%rax)
	jne	.L1655
	movq	(%rdi), %rax
	leaq	152(%rsp), %rsi
.LEHB23:
	call	*24(%rax)
.LEHE23:
.L1655:
	sfence
	cmpq	$0, 128(%rsp)
	je	.L1867
	movq	$0, 128(%rsp)
	movq	120(%rsp), %rbp
.L1656:
	testq	%rbp, %rbp
	je	.L1651
	data16	leaq	_ZN4asio6detail15keyword_tss_ptrINS0_10call_stackINS0_15task_io_serviceENS0_27task_io_service_thread_infoEE7contextEE6value_E@tlsgd(%rip), %rdi
	.value	0x6666
	rex64
	call	__tls_get_addr@PLT
	movq	(%rax), %rax
	testq	%rax, %rax
	je	.L1657
	movq	8(%rax), %rax
	testq	%rax, %rax
	je	.L1657
	cmpq	$0, (%rax)
	je	.L1868
.L1657:
	movq	%rbp, %rdi
	call	_ZdlPv@PLT
.L1651:
	movq	40(%rsp), %rax
	leaq	24(%rax), %rdi
	call	pthread_mutex_lock@PLT
	movq	40(%rsp), %rdi
	movq	72(%rdi), %rbx
	testq	%rbx, %rbx
	je	.L1869
	movq	96(%rdi), %rax
	testq	%rax, %rax
	je	.L1661
	movq	%rbx, (%rax)
	movq	88(%rdi), %rbx
.L1662:
	movq	80(%rdi), %rax
	pxor	%xmm0, %xmm0
	movups	%xmm0, 72(%rdi)
	movq	%rax, 96(%rdi)
.L1659:
	testq	%rbx, %rbx
	setne	64(%rdi)
	addq	$24, %rdi
	call	pthread_mutex_unlock@PLT
	testq	%rbx, %rbx
	jne	.L1870
.L1663:
	data16	leaq	_ZN4asio6detail15keyword_tss_ptrINS0_10call_stackINS0_14strand_service11strand_implEhE7contextEE6value_E@tlsgd(%rip), %rdi
	.value	0x6666
	rex64
	call	__tls_get_addr@PLT
	movq	96(%rsp), %rdx
	cmpq	$0, 64(%rsp)
	movq	56(%rsp), %rbp
	movq	%rdx, (%rax)
	je	.L1674
	movq	$0, 64(%rsp)
.L1674:
	testq	%rbp, %rbp
	je	.L1534
	data16	leaq	_ZN4asio6detail15keyword_tss_ptrINS0_10call_stackINS0_15task_io_serviceENS0_27task_io_service_thread_infoEE7contextEE6value_E@tlsgd(%rip), %rdi
	.value	0x6666
	rex64
	call	__tls_get_addr@PLT
	movq	(%rax), %rax
	testq	%rax, %rax
	je	.L1676
	movq	8(%rax), %rax
	testq	%rax, %rax
	je	.L1676
	cmpq	$0, (%rax)
	je	.L1871
.L1676:
	movq	%rbp, %rdi
	call	_ZdlPv@PLT
	jmp	.L1534
	.p2align 4,,10
	.p2align 3
.L1552:
	movq	%r12, %rdi
	movq	%r8, 8(%rsp)
	call	__cxa_guard_acquire@PLT
	movq	8(%rsp), %r8
	testl	%eax, %eax
	je	.L1833
	movq	_ZZN4asio15system_categoryEvE8instance@GOTPCREL(%rip), %rcx
	movq	_ZN4asio6detail15system_categoryD1Ev@GOTPCREL(%rip), %rdi
	movq	%r8, 16(%rsp)
	leaq	__dso_handle(%rip), %rdx
	movq	%rcx, %rsi
	movq	%rcx, 8(%rsp)
	call	__cxa_atexit@PLT
	movq	%r12, %rdi
	call	__cxa_guard_release@PLT
	movq	16(%rsp), %r8
	movq	8(%rsp), %rcx
	jmp	.L1553
	.p2align 4,,10
	.p2align 3
.L1608:
	movq	%rbp, %xmm0
	punpcklqdq	%xmm0, %xmm0
	movups	%xmm0, 192(%rbx)
	jmp	.L1609
	.p2align 4,,10
	.p2align 3
.L1867:
	movq	120(%rsp), %rbp
	jmp	.L1656
	.p2align 4,,10
	.p2align 3
.L1661:
	movq	%rbx, 88(%rdi)
	jmp	.L1662
	.p2align 4,,10
	.p2align 3
.L1626:
	movq	48(%rbp), %rax
	leaq	24(%rax), %rdi
	call	pthread_mutex_lock@PLT
.L1629:
	movq	48(%rbp), %rax
	cmpb	$0, 64(%rax)
	leaq	24(%rax), %rdi
	jne	.L1631
	movb	$1, 64(%rax)
	call	pthread_mutex_unlock@PLT
	movq	48(%rbp), %rbp
	movq	$0, (%r12)
	cmpq	$0, 96(%rbp)
	je	.L1638
	movq	96(%rbp), %rax
	movq	%r12, (%rax)
	movq	%r12, 96(%rbp)
.L1639:
	movq	40(%r13), %rbx
	cmpb	$0, 40(%rbx)
	je	.L1640
	data16	leaq	_ZN4asio6detail15keyword_tss_ptrINS0_10call_stackINS0_15task_io_serviceENS0_27task_io_service_thread_infoEE7contextEE6value_E@tlsgd(%rip), %rdi
	.value	0x6666
	rex64
	call	__tls_get_addr@PLT
	movq	(%rax), %rax
	testq	%rax, %rax
	jne	.L1643
	jmp	.L1640
	.p2align 4,,10
	.p2align 3
.L1641:
	movq	16(%rax), %rax
	testq	%rax, %rax
	je	.L1640
.L1643:
	cmpq	(%rax), %rbx
	jne	.L1641
	movq	8(%rax), %rax
	testq	%rax, %rax
	jne	.L1642
	.p2align 4,,10
	.p2align 3
.L1640:
	lock addq	$1, 184(%rbx)
	leaq	48(%rbx), %r12
	movq	%r12, %rdi
	call	pthread_mutex_lock@PLT
	cmpq	$0, 200(%rbx)
	movq	$0, 0(%rbp)
	je	.L1645
	movq	200(%rbx), %rax
	movq	%rbp, (%rax)
	movq	%rbp, 200(%rbx)
.L1646:
	movq	136(%rbx), %rax
	orq	$1, %rax
	movq	%rax, 136(%rbx)
	cmpq	$1, %rax
	jne	.L1839
	cmpb	$0, 176(%rbx)
	jne	.L1579
	movq	144(%rbx), %rax
	testq	%rax, %rax
	je	.L1579
	movb	$1, 176(%rbx)
	leaq	88(%rax), %rdx
	movl	$3, %esi
	leaq	144(%rsp), %rcx
	movl	$-2147483639, 144(%rsp)
	movq	%rdx, 148(%rsp)
	movl	88(%rax), %edx
	movl	96(%rax), %edi
	call	epoll_ctl@PLT
	jmp	.L1579
	.p2align 4,,10
	.p2align 3
.L1644:
	movq	%rbp, %xmm0
	punpcklqdq	%xmm0, %xmm0
	movups	%xmm0, 8(%rax)
	jmp	.L1534
	.p2align 4,,10
	.p2align 3
.L1599:
	movq	%rbp, %xmm0
	punpcklqdq	%xmm0, %xmm0
	movups	%xmm0, 112(%rax)
	jmp	.L1600
	.p2align 4,,10
	.p2align 3
.L1863:
	movq	_ZGVZN4asio15system_categoryEvE8instance@GOTPCREL(%rip), %r12
	movzbl	(%r12), %eax
	testb	%al, %al
	je	.L1557
.L1834:
	movq	_ZZN4asio15system_categoryEvE8instance@GOTPCREL(%rip), %rcx
.L1558:
	movq	40(%r15), %rbx
	movl	$9, 24(%rbp)
	movq	%rcx, 32(%rbp)
	cmpb	$0, 40(%rbx)
	jne	.L1689
	cmpb	$0, 7(%rsp)
	je	.L1602
.L1689:
	data16	leaq	_ZN4asio6detail15keyword_tss_ptrINS0_10call_stackINS0_15task_io_serviceENS0_27task_io_service_thread_infoEE7contextEE6value_E@tlsgd(%rip), %rdi
	.value	0x6666
	rex64
	call	__tls_get_addr@PLT
	movq	(%rax), %rax
	testq	%rax, %rax
	jne	.L1564
	jmp	.L1602
	.p2align 4,,10
	.p2align 3
.L1562:
	movq	16(%rax), %rax
	testq	%rax, %rax
	je	.L1602
.L1564:
	cmpq	(%rax), %rbx
	jne	.L1562
	jmp	.L1856
	.p2align 4,,10
	.p2align 3
.L1864:
	movq	40(%r15), %rbx
	cmpb	$0, 40(%rbx)
	jne	.L1690
	cmpb	$0, 7(%rsp)
	je	.L1573
.L1690:
	data16	leaq	_ZN4asio6detail15keyword_tss_ptrINS0_10call_stackINS0_15task_io_serviceENS0_27task_io_service_thread_infoEE7contextEE6value_E@tlsgd(%rip), %rdi
	.value	0x6666
	rex64
	call	__tls_get_addr@PLT
	movq	(%rax), %rax
	testq	%rax, %rax
	jne	.L1577
	jmp	.L1573
	.p2align 4,,10
	.p2align 3
.L1575:
	movq	16(%rax), %rax
	testq	%rax, %rax
	je	.L1573
.L1577:
	cmpq	(%rax), %rbx
	jne	.L1575
	movq	8(%rax), %rax
	testq	%rax, %rax
	je	.L1573
	addq	$1, 24(%rax)
	cmpq	$0, 16(%rax)
	movq	$0, 0(%rbp)
	je	.L1578
	movq	16(%rax), %rdx
	movq	%rbp, (%rdx)
	movq	%rbp, 16(%rax)
	jmp	.L1579
	.p2align 4,,10
	.p2align 3
.L1635:
	movq	%r12, %xmm0
	punpcklqdq	%xmm0, %xmm0
	movups	%xmm0, 72(%rax)
	jmp	.L1838
	.p2align 4,,10
	.p2align 3
.L1870:
	movq	32(%rsp), %rbx
	movq	40(%rsp), %rbp
	cmpb	$0, 40(%rbx)
	je	.L1664
	data16	leaq	_ZN4asio6detail15keyword_tss_ptrINS0_10call_stackINS0_15task_io_serviceENS0_27task_io_service_thread_infoEE7contextEE6value_E@tlsgd(%rip), %rdi
	.value	0x6666
	rex64
	call	__tls_get_addr@PLT
	movq	(%rax), %rax
	testq	%rax, %rax
	jne	.L1667
	jmp	.L1664
	.p2align 4,,10
	.p2align 3
.L1665:
	movq	16(%rax), %rax
	testq	%rax, %rax
	je	.L1664
.L1667:
	cmpq	(%rax), %rbx
	jne	.L1665
	movq	8(%rax), %rax
	testq	%rax, %rax
	je	.L1664
	addq	$1, 24(%rax)
	cmpq	$0, 16(%rax)
	movq	$0, 0(%rbp)
	je	.L1668
	movq	16(%rax), %rdx
	movq	%rbp, (%rdx)
	movq	%rbp, 16(%rax)
	jmp	.L1663
	.p2align 4,,10
	.p2align 3
.L1869:
	movq	88(%rdi), %rbx
	jmp	.L1659
	.p2align 4,,10
	.p2align 3
.L1664:
	lock addq	$1, 184(%rbx)
	leaq	48(%rbx), %r12
	movq	%r12, %rdi
	call	pthread_mutex_lock@PLT
	cmpq	$0, 200(%rbx)
	movq	$0, 0(%rbp)
	je	.L1669
	movq	200(%rbx), %rax
	movq	%rbp, (%rax)
	movq	%rbp, 200(%rbx)
.L1670:
	movq	136(%rbx), %rax
	orq	$1, %rax
	movq	%rax, 136(%rbx)
	cmpq	$1, %rax
	je	.L1671
	movq	%r12, %rdi
	call	pthread_mutex_unlock@PLT
	leaq	88(%rbx), %rdi
	call	pthread_cond_signal@PLT
	jmp	.L1663
	.p2align 4,,10
	.p2align 3
.L1573:
	lock addq	$1, 184(%rbx)
	leaq	48(%rbx), %r13
	movq	%r13, %rdi
	call	pthread_mutex_lock@PLT
	cmpq	$0, 200(%rbx)
	movq	$0, 0(%rbp)
	je	.L1580
	movq	200(%rbx), %rax
	movq	%rbp, (%rax)
	movq	%rbp, 200(%rbx)
.L1581:
	movq	136(%rbx), %rax
	orq	$1, %rax
	movq	%rax, 136(%rbx)
	cmpq	$1, %rax
	je	.L1582
	movq	%r13, %rdi
	call	pthread_mutex_unlock@PLT
	leaq	88(%rbx), %rdi
	call	pthread_cond_signal@PLT
	jmp	.L1579
	.p2align 4,,10
	.p2align 3
.L1865:
	movq	%rbp, %rdi
.LEHB24:
	call	*48(%rbp)
.LEHE24:
	testb	%al, %al
	jne	.L1872
	movq	8(%rbx), %rax
	movl	92(%rax), %edx
	testb	$4, %dl
	jne	.L1585
	orl	$4, %edx
	movq	%rax, 116(%rsp)
	leaq	112(%rsp), %rcx
	movl	$3, %esi
	movl	%edx, 112(%rsp)
	movl	96(%r15), %edi
	movl	%r13d, %edx
	call	epoll_ctl@PLT
	testl	%eax, %eax
	jne	.L1598
	movq	8(%rbx), %rax
	movl	112(%rsp), %edx
	orl	%edx, 92(%rax)
	movq	8(%rbx), %rax
	jmp	.L1585
.L1671:
	cmpb	$0, 176(%rbx)
	jne	.L1673
	movq	144(%rbx), %rax
	testq	%rax, %rax
	je	.L1673
	movb	$1, 176(%rbx)
	leaq	88(%rax), %rdx
	movq	%r13, %rcx
	movl	$3, %esi
	movl	$-2147483639, 144(%rsp)
	movq	%rdx, 148(%rsp)
	movl	88(%rax), %edx
	movl	96(%rax), %edi
	call	epoll_ctl@PLT
.L1673:
	movq	%r12, %rdi
	call	pthread_mutex_unlock@PLT
	jmp	.L1663
	.p2align 4,,10
	.p2align 3
.L1871:
	movzbl	56(%rbp), %edx
	movb	%dl, 0(%rbp)
	movq	%rbp, (%rax)
	jmp	.L1534
	.p2align 4,,10
	.p2align 3
.L1638:
	movq	%r12, %xmm0
	punpcklqdq	%xmm0, %xmm0
	movups	%xmm0, 88(%rbp)
	jmp	.L1639
.L1582:
	cmpb	$0, 176(%rbx)
	jne	.L1584
	movq	144(%rbx), %rax
	testq	%rax, %rax
	je	.L1584
	movb	$1, 176(%rbx)
	leaq	88(%rax), %rdx
	leaq	112(%rsp), %rcx
	movl	$3, %esi
	movl	$-2147483639, 112(%rsp)
	movq	%rdx, 116(%rsp)
	movl	88(%rax), %edx
	movl	96(%rax), %edi
	call	epoll_ctl@PLT
.L1584:
	movq	%r13, %rdi
	call	pthread_mutex_unlock@PLT
	jmp	.L1579
	.p2align 4,,10
	.p2align 3
.L1557:
	movq	%r12, %rdi
	call	__cxa_guard_acquire@PLT
	testl	%eax, %eax
	je	.L1834
	movq	_ZZN4asio15system_categoryEvE8instance@GOTPCREL(%rip), %rcx
	movq	_ZN4asio6detail15system_categoryD1Ev@GOTPCREL(%rip), %rdi
	leaq	__dso_handle(%rip), %rdx
	movq	%rcx, %rsi
	movq	%rcx, 8(%rsp)
	call	__cxa_atexit@PLT
	movq	%r12, %rdi
	call	__cxa_guard_release@PLT
	movq	8(%rsp), %rcx
	jmp	.L1558
	.p2align 4,,10
	.p2align 3
.L1645:
	movq	%rbp, %xmm0
	punpcklqdq	%xmm0, %xmm0
	movups	%xmm0, 192(%rbx)
	jmp	.L1646
.L1549:
	movq	%r12, %rdi
	call	__cxa_guard_acquire@PLT
	testl	%eax, %eax
	je	.L1832
	movq	_ZZN4asio15system_categoryEvE8instance@GOTPCREL(%rip), %rcx
	movq	_ZN4asio6detail15system_categoryD1Ev@GOTPCREL(%rip), %rdi
	leaq	__dso_handle(%rip), %rdx
	movq	%rcx, %rsi
	movq	%rcx, 8(%rsp)
	call	__cxa_atexit@PLT
	movq	%r12, %rdi
	call	__cxa_guard_release@PLT
	movq	8(%rsp), %rcx
	jmp	.L1550
.L1868:
	movzbl	56(%rbp), %edx
	movb	%dl, 0(%rbp)
	movq	%rbp, (%rax)
	jmp	.L1651
.L1669:
	movq	%rbp, %xmm0
	punpcklqdq	%xmm0, %xmm0
	movups	%xmm0, 192(%rbx)
	jmp	.L1670
.L1580:
	movq	%rbp, %xmm0
	punpcklqdq	%xmm0, %xmm0
	movups	%xmm0, 192(%rbx)
	jmp	.L1581
.L1578:
	movq	%rbp, %xmm0
	punpcklqdq	%xmm0, %xmm0
	movups	%xmm0, 8(%rax)
	jmp	.L1579
.L1872:
	movq	%r12, %rdi
	call	pthread_mutex_unlock@PLT
	movq	40(%r15), %rbx
	cmpb	$0, 40(%rbx)
	jne	.L1691
	cmpb	$0, 7(%rsp)
	je	.L1602
.L1691:
	data16	leaq	_ZN4asio6detail15keyword_tss_ptrINS0_10call_stackINS0_15task_io_serviceENS0_27task_io_service_thread_infoEE7contextEE6value_E@tlsgd(%rip), %rdi
	.value	0x6666
	rex64
	call	__tls_get_addr@PLT
	movq	(%rax), %rax
	testq	%rax, %rax
	jne	.L1591
	jmp	.L1602
	.p2align 4,,10
	.p2align 3
.L1589:
	movq	16(%rax), %rax
	testq	%rax, %rax
	je	.L1602
.L1591:
	cmpq	(%rax), %rbx
	jne	.L1589
	jmp	.L1856
.L1668:
	movq	%rbp, %xmm0
	punpcklqdq	%xmm0, %xmm0
	movups	%xmm0, 8(%rax)
	jmp	.L1663
.L1598:
	call	_ZN4asio15system_categoryEv@PLT
	movq	%rax, %rbx
	call	__errno_location@PLT
	movq	40(%r15), %rdi
	movl	%r14d, %edx
	movq	%rbp, %rsi
	movl	(%rax), %eax
	movq	%rbx, 32(%rbp)
	movl	%eax, 24(%rbp)
	call	_ZN4asio6detail15task_io_service25post_immediate_completionEPNS0_25task_io_service_operationEb@PLT
	jmp	.L1579
.L1861:
	call	__stack_chk_fail@PLT
.L1686:
	endbr64
	movq	%rax, %rbp
	jmp	.L1601
.L1688:
	endbr64
	movq	%rax, %rbp
	jmp	.L1660
.L1687:
	endbr64
	movq	%rax, %rdi
	jmp	.L1677
	.section	.gcc_except_table
.LLSDA8132:
	.byte	0xff
	.byte	0xff
	.byte	0x1
	.uleb128 .LLSDACSE8132-.LLSDACSB8132
.LLSDACSB8132:
	.uleb128 .LEHB20-.LFB8132
	.uleb128 .LEHE20-.LEHB20
	.uleb128 0
	.uleb128 0
	.uleb128 .LEHB21-.LFB8132
	.uleb128 .LEHE21-.LEHB21
	.uleb128 .L1687-.LFB8132
	.uleb128 0
	.uleb128 .LEHB22-.LFB8132
	.uleb128 .LEHE22-.LEHB22
	.uleb128 0
	.uleb128 0
	.uleb128 .LEHB23-.LFB8132
	.uleb128 .LEHE23-.LEHB23
	.uleb128 .L1688-.LFB8132
	.uleb128 0
	.uleb128 .LEHB24-.LFB8132
	.uleb128 .LEHE24-.LEHB24
	.uleb128 .L1686-.LFB8132
	.uleb128 0
.LLSDACSE8132:
	.text
	.cfi_endproc
	.section	.text.unlikely
	.cfi_startproc
	.cfi_personality 0x9b,DW.ref.__gxx_personality_v0
	.cfi_lsda 0x1b,.LLSDAC8132
	.type	_ZN4asio6detail8write_opINS_19basic_stream_socketINS_2ip3tcpENS_21stream_socket_serviceIS4_EEEENS_15const_buffers_1ENS0_14transfer_all_tENS0_15wrapped_handlerINS_10io_service6strandEZN7asiopal13SocketChannel14BeginWriteImplERKN7openpal6RSliceEEUlRKSt10error_codemE_NS0_26is_continuation_if_runningEEEEclESL_mi.cold, @function
_ZN4asio6detail8write_opINS_19basic_stream_socketINS_2ip3tcpENS_21stream_socket_serviceIS4_EEEENS_15const_buffers_1ENS0_14transfer_all_tENS0_15wrapped_handlerINS_10io_service6strandEZN7asiopal13SocketChannel14BeginWriteImplERKN7openpal6RSliceEEUlRKSt10error_codemE_NS0_26is_continuation_if_runningEEEEclESL_mi.cold:
.LFSB8132:
.L1601:
	.cfi_def_cfa_offset 320
	.cfi_offset 3, -56
	.cfi_offset 6, -48
	.cfi_offset 12, -40
	.cfi_offset 13, -32
	.cfi_offset 14, -24
	.cfi_offset 15, -16
	movq	%r12, %rdi
	call	pthread_mutex_unlock@PLT
	leaq	152(%rsp), %rdi
	leaq	160(%rsp), %rsi
	call	_ZN4asio6detail23reactive_socket_send_opINS_15const_buffers_1ENS0_8write_opINS_19basic_stream_socketINS_2ip3tcpENS_21stream_socket_serviceIS6_EEEES2_NS0_14transfer_all_tENS0_15wrapped_handlerINS_10io_service6strandEZN7asiopal13SocketChannel14BeginWriteImplERKN7openpal6RSliceEEUlRKSt10error_codemE_NS0_26is_continuation_if_runningEEEEEE3ptr5resetEv.isra.0
	movq	%rbp, %rdi
.LEHB25:
	call	_Unwind_Resume@PLT
.L1660:
	sfence
	leaq	128(%rsp), %rsi
	leaq	120(%rsp), %rdi
	call	_ZN4asio6detail18completion_handlerINS0_7binder2IZN7asiopal13SocketChannel14BeginWriteImplERKN7openpal6RSliceEEUlRKSt10error_codemE_S9_mEEE3ptr5resetEv.isra.0
	leaq	32(%rsp), %rdi
	call	_ZN4asio6detail14strand_service16on_dispatch_exitD1Ev@PLT
	data16	leaq	_ZN4asio6detail15keyword_tss_ptrINS0_10call_stackINS0_14strand_service11strand_implEhE7contextEE6value_E@tlsgd(%rip), %rdi
	.value	0x6666
	rex64
	call	__tls_get_addr@PLT
	movq	96(%rsp), %rdx
	leaq	56(%rsp), %rdi
	leaq	64(%rsp), %rsi
	movq	%rdx, (%rax)
	call	_ZN4asio6detail18completion_handlerINS0_7binder2IZN7asiopal13SocketChannel14BeginWriteImplERKN7openpal6RSliceEEUlRKSt10error_codemE_S9_mEEE3ptr5resetEv.isra.0
	movq	%rbp, %rdi
	call	_Unwind_Resume@PLT
.L1677:
	sfence
	call	_Unwind_Resume@PLT
.LEHE25:
	.cfi_endproc
.LFE8132:
	.section	.gcc_except_table
.LLSDAC8132:
	.byte	0xff
	.byte	0xff
	.byte	0x1
	.uleb128 .LLSDACSEC8132-.LLSDACSBC8132
.LLSDACSBC8132:
	.uleb128 .LEHB25-.LCOLDB30
	.uleb128 .LEHE25-.LEHB25
	.uleb128 0
	.uleb128 0
.LLSDACSEC8132:
	.section	.text.unlikely
	.text
	.size	_ZN4asio6detail8write_opINS_19basic_stream_socketINS_2ip3tcpENS_21stream_socket_serviceIS4_EEEENS_15const_buffers_1ENS0_14transfer_all_tENS0_15wrapped_handlerINS_10io_service6strandEZN7asiopal13SocketChannel14BeginWriteImplERKN7openpal6RSliceEEUlRKSt10error_codemE_NS0_26is_continuation_if_runningEEEEclESL_mi, .-_ZN4asio6detail8write_opINS_19basic_stream_socketINS_2ip3tcpENS_21stream_socket_serviceIS4_EEEENS_15const_buffers_1ENS0_14transfer_all_tENS0_15wrapped_handlerINS_10io_service6strandEZN7asiopal13SocketChannel14BeginWriteImplERKN7openpal6RSliceEEUlRKSt10error_codemE_NS0_26is_continuation_if_runningEEEEclESL_mi
	.section	.text.unlikely
	.size	_ZN4asio6detail8write_opINS_19basic_stream_socketINS_2ip3tcpENS_21stream_socket_serviceIS4_EEEENS_15const_buffers_1ENS0_14transfer_all_tENS0_15wrapped_handlerINS_10io_service6strandEZN7asiopal13SocketChannel14BeginWriteImplERKN7openpal6RSliceEEUlRKSt10error_codemE_NS0_26is_continuation_if_runningEEEEclESL_mi.cold, .-_ZN4asio6detail8write_opINS_19basic_stream_socketINS_2ip3tcpENS_21stream_socket_serviceIS4_EEEENS_15const_buffers_1ENS0_14transfer_all_tENS0_15wrapped_handlerINS_10io_service6strandEZN7asiopal13SocketChannel14BeginWriteImplERKN7openpal6RSliceEEUlRKSt10error_codemE_NS0_26is_continuation_if_runningEEEEclESL_mi.cold
.LCOLDE30:
	.text
.LHOTE30:
	.section	.text.unlikely
.LCOLDB31:
	.text
.LHOTB31:
	.p2align 4
	.type	_ZN4asio6detail18completion_handlerINS0_17rewrapped_handlerINS0_7binder2INS0_8write_opINS_19basic_stream_socketINS_2ip3tcpENS_21stream_socket_serviceIS7_EEEENS_15const_buffers_1ENS0_14transfer_all_tENS0_15wrapped_handlerINS_10io_service6strandEZN7asiopal13SocketChannel14BeginWriteImplERKN7openpal6RSliceEEUlRKSt10error_codemE_NS0_26is_continuation_if_runningEEEEESM_mEESP_EEE11do_completeEPNS0_15task_io_serviceEPNS0_25task_io_service_operationESO_m, @function
_ZN4asio6detail18completion_handlerINS0_17rewrapped_handlerINS0_7binder2INS0_8write_opINS_19basic_stream_socketINS_2ip3tcpENS_21stream_socket_serviceIS7_EEEENS_15const_buffers_1ENS0_14transfer_all_tENS0_15wrapped_handlerINS_10io_service6strandEZN7asiopal13SocketChannel14BeginWriteImplERKN7openpal6RSliceEEUlRKSt10error_codemE_NS0_26is_continuation_if_runningEEEEESM_mEESP_EEE11do_completeEPNS0_15task_io_serviceEPNS0_25task_io_service_operationESO_m:
.LFB9209:
	.cfi_startproc
	.cfi_personality 0x9b,DW.ref.__gxx_personality_v0
	.cfi_lsda 0x1b,.LLSDA9209
	endbr64
	pushq	%rbp
	.cfi_def_cfa_offset 16
	.cfi_offset 6, -16
	movq	%rsi, %rbp
	pushq	%rbx
	.cfi_def_cfa_offset 24
	.cfi_offset 3, -24
	movq	%rdi, %rbx
	subq	$152, %rsp
	.cfi_def_cfa_offset 176
	movdqu	40(%rsi), %xmm0
	movdqu	72(%rsi), %xmm1
	movq	%fs:40, %rax
	movq	%rax, 136(%rsp)
	xorl	%eax, %eax
	movq	24(%rsi), %rax
	movdqu	96(%rsi), %xmm2
	movq	%rsi, 8(%rsp)
	movq	$0, 16(%rsp)
	movq	%rax, 32(%rsp)
	movq	32(%rsi), %rax
	movaps	%xmm0, 48(%rsp)
	movq	%rax, 40(%rsp)
	movl	56(%rsi), %eax
	movaps	%xmm1, 80(%rsp)
	movl	%eax, 64(%rsp)
	movq	64(%rsi), %rax
	movups	%xmm2, 104(%rsp)
	movq	%rax, 72(%rsp)
	movq	88(%rsi), %rax
	movq	%rax, 96(%rsp)
	movq	112(%rsi), %rax
	movq	%rax, 120(%rsp)
	leaq	32(%rsp), %rax
	movq	%rax, (%rsp)
	data16	leaq	_ZN4asio6detail15keyword_tss_ptrINS0_10call_stackINS0_15task_io_serviceENS0_27task_io_service_thread_infoEE7contextEE6value_E@tlsgd(%rip), %rdi
	.value	0x6666
	rex64
	call	__tls_get_addr@PLT
	movq	(%rax), %rax
	testq	%rax, %rax
	je	.L1874
	movq	8(%rax), %rax
	testq	%rax, %rax
	je	.L1874
	cmpq	$0, (%rax)
	je	.L1902
.L1874:
	movq	%rbp, %rdi
	call	_ZdlPv@PLT
.L1875:
	movq	$0, 8(%rsp)
	testq	%rbx, %rbx
	je	.L1873
	movq	120(%rsp), %rdx
	leaq	104(%rsp), %rsi
	leaq	40(%rsp), %rdi
	xorl	%ecx, %ecx
.LEHB26:
	call	_ZN4asio6detail8write_opINS_19basic_stream_socketINS_2ip3tcpENS_21stream_socket_serviceIS4_EEEENS_15const_buffers_1ENS0_14transfer_all_tENS0_15wrapped_handlerINS_10io_service6strandEZN7asiopal13SocketChannel14BeginWriteImplERKN7openpal6RSliceEEUlRKSt10error_codemE_NS0_26is_continuation_if_runningEEEEclESL_mi
.LEHE26:
	sfence
	cmpq	$0, 16(%rsp)
	movq	8(%rsp), %rbp
	je	.L1877
	movq	$0, 16(%rsp)
.L1877:
	testq	%rbp, %rbp
	je	.L1873
	data16	leaq	_ZN4asio6detail15keyword_tss_ptrINS0_10call_stackINS0_15task_io_serviceENS0_27task_io_service_thread_infoEE7contextEE6value_E@tlsgd(%rip), %rdi
	.value	0x6666
	rex64
	call	__tls_get_addr@PLT
	movq	(%rax), %rax
	testq	%rax, %rax
	je	.L1879
	movq	8(%rax), %rax
	testq	%rax, %rax
	je	.L1879
	cmpq	$0, (%rax)
	je	.L1903
.L1879:
	movq	%rbp, %rdi
	call	_ZdlPv@PLT
.L1873:
	movq	136(%rsp), %rax
	xorq	%fs:40, %rax
	jne	.L1904
	addq	$152, %rsp
	.cfi_remember_state
	.cfi_def_cfa_offset 24
	popq	%rbx
	.cfi_def_cfa_offset 16
	popq	%rbp
	.cfi_def_cfa_offset 8
	ret
	.p2align 4,,10
	.p2align 3
.L1902:
	.cfi_restore_state
	movzbl	120(%rbp), %edx
	movb	%dl, 0(%rbp)
	movq	%rbp, (%rax)
	jmp	.L1875
	.p2align 4,,10
	.p2align 3
.L1903:
	movzbl	120(%rbp), %edx
	movb	%dl, 0(%rbp)
	movq	%rbp, (%rax)
	jmp	.L1873
.L1904:
	call	__stack_chk_fail@PLT
.L1882:
	endbr64
	movq	%rax, %rbp
	jmp	.L1880
	.section	.gcc_except_table
.LLSDA9209:
	.byte	0xff
	.byte	0xff
	.byte	0x1
	.uleb128 .LLSDACSE9209-.LLSDACSB9209
.LLSDACSB9209:
	.uleb128 .LEHB26-.LFB9209
	.uleb128 .LEHE26-.LEHB26
	.uleb128 .L1882-.LFB9209
	.uleb128 0
.LLSDACSE9209:
	.text
	.cfi_endproc
	.section	.text.unlikely
	.cfi_startproc
	.cfi_personality 0x9b,DW.ref.__gxx_personality_v0
	.cfi_lsda 0x1b,.LLSDAC9209
	.type	_ZN4asio6detail18completion_handlerINS0_17rewrapped_handlerINS0_7binder2INS0_8write_opINS_19basic_stream_socketINS_2ip3tcpENS_21stream_socket_serviceIS7_EEEENS_15const_buffers_1ENS0_14transfer_all_tENS0_15wrapped_handlerINS_10io_service6strandEZN7asiopal13SocketChannel14BeginWriteImplERKN7openpal6RSliceEEUlRKSt10error_codemE_NS0_26is_continuation_if_runningEEEEESM_mEESP_EEE11do_completeEPNS0_15task_io_serviceEPNS0_25task_io_service_operationESO_m.cold, @function
_ZN4asio6detail18completion_handlerINS0_17rewrapped_handlerINS0_7binder2INS0_8write_opINS_19basic_stream_socketINS_2ip3tcpENS_21stream_socket_serviceIS7_EEEENS_15const_buffers_1ENS0_14transfer_all_tENS0_15wrapped_handlerINS_10io_service6strandEZN7asiopal13SocketChannel14BeginWriteImplERKN7openpal6RSliceEEUlRKSt10error_codemE_NS0_26is_continuation_if_runningEEEEESM_mEESP_EEE11do_completeEPNS0_15task_io_serviceEPNS0_25task_io_service_operationESO_m.cold:
.LFSB9209:
.L1880:
	.cfi_def_cfa_offset 176
	.cfi_offset 3, -24
	.cfi_offset 6, -16
	sfence
	leaq	8(%rsp), %rdi
	leaq	16(%rsp), %rsi
	call	_ZN4asio6detail18completion_handlerINS0_17rewrapped_handlerINS0_7binder2INS0_8write_opINS_19basic_stream_socketINS_2ip3tcpENS_21stream_socket_serviceIS7_EEEENS_15const_buffers_1ENS0_14transfer_all_tENS0_15wrapped_handlerINS_10io_service6strandEZN7asiopal13SocketChannel14BeginWriteImplERKN7openpal6RSliceEEUlRKSt10error_codemE_NS0_26is_continuation_if_runningEEEEESM_mEESP_EEE3ptr5resetEv.isra.0
	movq	%rbp, %rdi
.LEHB27:
	call	_Unwind_Resume@PLT
.LEHE27:
	.cfi_endproc
.LFE9209:
	.section	.gcc_except_table
.LLSDAC9209:
	.byte	0xff
	.byte	0xff
	.byte	0x1
	.uleb128 .LLSDACSEC9209-.LLSDACSBC9209
.LLSDACSBC9209:
	.uleb128 .LEHB27-.LCOLDB31
	.uleb128 .LEHE27-.LEHB27
	.uleb128 0
	.uleb128 0
.LLSDACSEC9209:
	.section	.text.unlikely
	.text
	.size	_ZN4asio6detail18completion_handlerINS0_17rewrapped_handlerINS0_7binder2INS0_8write_opINS_19basic_stream_socketINS_2ip3tcpENS_21stream_socket_serviceIS7_EEEENS_15const_buffers_1ENS0_14transfer_all_tENS0_15wrapped_handlerINS_10io_service6strandEZN7asiopal13SocketChannel14BeginWriteImplERKN7openpal6RSliceEEUlRKSt10error_codemE_NS0_26is_continuation_if_runningEEEEESM_mEESP_EEE11do_completeEPNS0_15task_io_serviceEPNS0_25task_io_service_operationESO_m, .-_ZN4asio6detail18completion_handlerINS0_17rewrapped_handlerINS0_7binder2INS0_8write_opINS_19basic_stream_socketINS_2ip3tcpENS_21stream_socket_serviceIS7_EEEENS_15const_buffers_1ENS0_14transfer_all_tENS0_15wrapped_handlerINS_10io_service6strandEZN7asiopal13SocketChannel14BeginWriteImplERKN7openpal6RSliceEEUlRKSt10error_codemE_NS0_26is_continuation_if_runningEEEEESM_mEESP_EEE11do_completeEPNS0_15task_io_serviceEPNS0_25task_io_service_operationESO_m
	.section	.text.unlikely
	.size	_ZN4asio6detail18completion_handlerINS0_17rewrapped_handlerINS0_7binder2INS0_8write_opINS_19basic_stream_socketINS_2ip3tcpENS_21stream_socket_serviceIS7_EEEENS_15const_buffers_1ENS0_14transfer_all_tENS0_15wrapped_handlerINS_10io_service6strandEZN7asiopal13SocketChannel14BeginWriteImplERKN7openpal6RSliceEEUlRKSt10error_codemE_NS0_26is_continuation_if_runningEEEEESM_mEESP_EEE11do_completeEPNS0_15task_io_serviceEPNS0_25task_io_service_operationESO_m.cold, .-_ZN4asio6detail18completion_handlerINS0_17rewrapped_handlerINS0_7binder2INS0_8write_opINS_19basic_stream_socketINS_2ip3tcpENS_21stream_socket_serviceIS7_EEEENS_15const_buffers_1ENS0_14transfer_all_tENS0_15wrapped_handlerINS_10io_service6strandEZN7asiopal13SocketChannel14BeginWriteImplERKN7openpal6RSliceEEUlRKSt10error_codemE_NS0_26is_continuation_if_runningEEEEESM_mEESP_EEE11do_completeEPNS0_15task_io_serviceEPNS0_25task_io_service_operationESO_m.cold
.LCOLDE31:
	.text
.LHOTE31:
	.section	.text.unlikely
.LCOLDB32:
	.text
.LHOTB32:
	.p2align 4
	.type	_ZN4asio6detail23reactive_socket_send_opINS_15const_buffers_1ENS0_8write_opINS_19basic_stream_socketINS_2ip3tcpENS_21stream_socket_serviceIS6_EEEES2_NS0_14transfer_all_tENS0_15wrapped_handlerINS_10io_service6strandEZN7asiopal13SocketChannel14BeginWriteImplERKN7openpal6RSliceEEUlRKSt10error_codemE_NS0_26is_continuation_if_runningEEEEEE11do_completeEPNS0_15task_io_serviceEPNS0_25task_io_service_operationESM_m, @function
_ZN4asio6detail23reactive_socket_send_opINS_15const_buffers_1ENS0_8write_opINS_19basic_stream_socketINS_2ip3tcpENS_21stream_socket_serviceIS6_EEEES2_NS0_14transfer_all_tENS0_15wrapped_handlerINS_10io_service6strandEZN7asiopal13SocketChannel14BeginWriteImplERKN7openpal6RSliceEEUlRKSt10error_codemE_NS0_26is_continuation_if_runningEEEEEE11do_completeEPNS0_15task_io_serviceEPNS0_25task_io_service_operationESM_m:
.LFB9033:
	.cfi_startproc
	.cfi_personality 0x9b,DW.ref.__gxx_personality_v0
	.cfi_lsda 0x1b,.LLSDA9033
	endbr64
	pushq	%r13
	.cfi_def_cfa_offset 16
	.cfi_offset 13, -16
	pushq	%r12
	.cfi_def_cfa_offset 24
	.cfi_offset 12, -24
	pushq	%rbp
	.cfi_def_cfa_offset 32
	.cfi_offset 6, -32
	movq	%rsi, %rbp
	pushq	%rbx
	.cfi_def_cfa_offset 40
	.cfi_offset 3, -40
	movq	%rdi, %rbx
	subq	$552, %rsp
	.cfi_def_cfa_offset 592
	movq	88(%rsi), %rcx
	movl	24(%rsi), %edx
	movq	%fs:40, %rax
	movq	%rax, 536(%rsp)
	xorl	%eax, %eax
	movq	32(%rsi), %rax
	movdqu	96(%rsi), %xmm4
	movq	%rsi, 24(%rsp)
	movq	%rcx, 144(%rsp)
	movl	112(%rsi), %ecx
	movq	%rax, 216(%rsp)
	movq	40(%rsi), %rax
	movl	%ecx, 168(%rsp)
	movq	120(%rsi), %rcx
	movdqu	128(%rsi), %xmm5
	movl	%edx, 208(%rsp)
	movq	%rcx, 176(%rsp)
	movq	144(%rsi), %rcx
	movq	%rax, 224(%rsp)
	leaq	144(%rsp), %rax
	movq	%rcx, 200(%rsp)
	movq	%rax, 16(%rsp)
	movq	$0, 32(%rsp)
	movups	%xmm4, 152(%rsp)
	movups	%xmm5, 184(%rsp)
	data16	leaq	_ZN4asio6detail15keyword_tss_ptrINS0_10call_stackINS0_15task_io_serviceENS0_27task_io_service_thread_infoEE7contextEE6value_E@tlsgd(%rip), %rdi
	.value	0x6666
	rex64
	call	__tls_get_addr@PLT
	movq	(%rax), %rax
	testq	%rax, %rax
	je	.L1906
	movq	8(%rax), %rax
	testq	%rax, %rax
	je	.L1906
	cmpq	$0, (%rax)
	je	.L2061
.L1906:
	movq	%rbp, %rdi
	call	_ZdlPv@PLT
.L1907:
	movq	$0, 24(%rsp)
	testq	%rbx, %rbx
	je	.L1905
	movq	200(%rsp), %rax
	movl	168(%rsp), %edx
	movq	144(%rsp), %rbx
	movdqu	152(%rsp), %xmm2
	movdqu	184(%rsp), %xmm1
	movq	%rax, 304(%rsp)
	movq	%rax, %xmm3
	movdqa	208(%rsp), %xmm0
	movl	%edx, 464(%rsp)
	movq	%rbx, %xmm6
	movq	%rax, 496(%rsp)
	movq	176(%rsp), %rdx
	punpcklqdq	%xmm6, %xmm3
	movq	224(%rsp), %rax
	movaps	%xmm2, 256(%rsp)
	movq	192(%rsp), %rbp
	movq	%rdx, 472(%rsp)
	movq	%rax, 520(%rsp)
	movaps	%xmm1, 288(%rsp)
	movups	%xmm0, 312(%rsp)
	movaps	%xmm3, 432(%rsp)
	movaps	%xmm2, 448(%rsp)
	movaps	%xmm1, 480(%rsp)
	movups	%xmm0, 504(%rsp)
	data16	leaq	_ZN4asio6detail15keyword_tss_ptrINS0_10call_stackINS0_14strand_service11strand_implEhE7contextEE6value_E@tlsgd(%rip), %rdi
	.value	0x6666
	rex64
	call	__tls_get_addr@PLT
	movq	(%rax), %rax
	testq	%rax, %rax
	jne	.L1912
	jmp	.L1909
	.p2align 4,,10
	.p2align 3
.L1910:
	movq	16(%rax), %rax
	testq	%rax, %rax
	je	.L1909
.L1912:
	cmpq	(%rax), %rbp
	jne	.L1910
	cmpq	$0, 8(%rax)
	je	.L1909
	lfence
	movq	520(%rsp), %rdx
	leaq	504(%rsp), %rsi
	xorl	%ecx, %ecx
	leaq	440(%rsp), %rdi
.LEHB28:
	call	_ZN4asio6detail8write_opINS_19basic_stream_socketINS_2ip3tcpENS_21stream_socket_serviceIS4_EEEENS_15const_buffers_1ENS0_14transfer_all_tENS0_15wrapped_handlerINS_10io_service6strandEZN7asiopal13SocketChannel14BeginWriteImplERKN7openpal6RSliceEEUlRKSt10error_codemE_NS0_26is_continuation_if_runningEEEEclESL_mi
.LEHE28:
	sfence
.L1913:
	sfence
	cmpq	$0, 32(%rsp)
	movq	24(%rsp), %rbp
	je	.L1967
	movq	$0, 32(%rsp)
.L1967:
	testq	%rbp, %rbp
	je	.L1905
	data16	leaq	_ZN4asio6detail15keyword_tss_ptrINS0_10call_stackINS0_15task_io_serviceENS0_27task_io_service_thread_infoEE7contextEE6value_E@tlsgd(%rip), %rdi
	.value	0x6666
	rex64
	call	__tls_get_addr@PLT
	movq	(%rax), %rax
	testq	%rax, %rax
	je	.L1970
	movq	8(%rax), %rax
	testq	%rax, %rax
	je	.L1970
	cmpq	$0, (%rax)
	je	.L2062
.L1970:
	movq	%rbp, %rdi
	call	_ZdlPv@PLT
.L1905:
	movq	536(%rsp), %rax
	xorq	%fs:40, %rax
	jne	.L2063
	addq	$552, %rsp
	.cfi_remember_state
	.cfi_def_cfa_offset 40
	popq	%rbx
	.cfi_def_cfa_offset 32
	popq	%rbp
	.cfi_def_cfa_offset 24
	popq	%r12
	.cfi_def_cfa_offset 16
	popq	%r13
	.cfi_def_cfa_offset 8
	ret
	.p2align 4,,10
	.p2align 3
.L1909:
	.cfi_restore_state
	pxor	%xmm0, %xmm0
	leaq	432(%rsp), %rax
	movq	184(%rsp), %r12
	movq	%rax, 48(%rsp)
	movups	%xmm0, 56(%rsp)
	data16	leaq	_ZN4asio6detail15keyword_tss_ptrINS0_10call_stackINS0_15task_io_serviceENS0_27task_io_service_thread_infoEE7contextEE6value_E@tlsgd(%rip), %rdi
	.value	0x6666
	rex64
	call	__tls_get_addr@PLT
	movq	(%rax), %rax
	testq	%rax, %rax
	je	.L1914
	movq	8(%rax), %rax
	testq	%rax, %rax
	je	.L1914
	movq	(%rax), %rbp
	testq	%rbp, %rbp
	je	.L1914
	movq	$0, (%rax)
	movzbl	0(%rbp), %eax
	cmpb	$119, %al
	jbe	.L1915
	movb	%al, 120(%rbp)
	jmp	.L1916
	.p2align 4,,10
	.p2align 3
.L1915:
	movq	%rbp, %rdi
	call	_ZdlPv@PLT
.L1914:
	movl	$121, %edi
.LEHB29:
	call	_Znwm@PLT
.LEHE29:
	movb	$120, 120(%rax)
	movq	440(%rsp), %rbx
	movq	%rax, %rbp
.L1916:
	leaq	_ZN4asio6detail18completion_handlerINS0_17rewrapped_handlerINS0_7binder2INS0_8write_opINS_19basic_stream_socketINS_2ip3tcpENS_21stream_socket_serviceIS7_EEEENS_15const_buffers_1ENS0_14transfer_all_tENS0_15wrapped_handlerINS_10io_service6strandEZN7asiopal13SocketChannel14BeginWriteImplERKN7openpal6RSliceEEUlRKSt10error_codemE_NS0_26is_continuation_if_runningEEEEESM_mEESP_EEE11do_completeEPNS0_15task_io_serviceEPNS0_25task_io_service_operationESO_m(%rip), %rax
	movq	%rbp, 56(%rsp)
	movdqa	448(%rsp), %xmm7
	movq	%rax, 8(%rbp)
	movq	432(%rsp), %rax
	movups	%xmm7, 40(%rbp)
	movdqa	480(%rsp), %xmm7
	movq	%rax, 24(%rbp)
	movl	464(%rsp), %eax
	movq	$0, 0(%rbp)
	movl	%eax, 56(%rbp)
	movq	472(%rsp), %rax
	movdqu	504(%rsp), %xmm6
	movl	$0, 16(%rbp)
	movq	%rax, 64(%rbp)
	movq	496(%rsp), %rax
	movq	%rbx, 32(%rbp)
	movq	40(%r12), %rbx
	movq	%rax, 88(%rbp)
	movq	520(%rsp), %rax
	movups	%xmm7, 72(%rbp)
	movq	%rax, 112(%rbp)
	movups	%xmm6, 96(%rbp)
	movq	%rbp, 64(%rsp)
	data16	leaq	_ZN4asio6detail15keyword_tss_ptrINS0_10call_stackINS0_15task_io_serviceENS0_27task_io_service_thread_infoEE7contextEE6value_E@tlsgd(%rip), %rdi
	.value	0x6666
	rex64
	call	__tls_get_addr@PLT
	movq	(%rax), %rax
	testq	%rax, %rax
	jne	.L1921
	jmp	.L1917
	.p2align 4,,10
	.p2align 3
.L1918:
	movq	16(%rax), %rax
	testq	%rax, %rax
	je	.L1917
.L1921:
	cmpq	(%rax), %rbx
	jne	.L1918
	movq	8(%rax), %rbx
	movq	192(%rsp), %rax
	leaq	24(%rax), %rdi
	call	pthread_mutex_lock@PLT
	testq	%rbx, %rbx
	je	.L1920
	movq	192(%rsp), %rax
	cmpb	$0, 64(%rax)
	leaq	24(%rax), %rdi
	je	.L2064
.L1922:
	cmpq	$0, 80(%rax)
	movq	$0, 0(%rbp)
	je	.L1926
	movq	80(%rax), %rdx
	movq	%rbp, (%rdx)
	movq	%rbp, 80(%rax)
.L2060:
	call	pthread_mutex_unlock@PLT
	jmp	.L1913
	.p2align 4,,10
	.p2align 3
.L2064:
	movb	$1, 64(%rax)
	call	pthread_mutex_unlock@PLT
	pxor	%xmm0, %xmm0
	movq	64(%rsp), %rbp
	movq	192(%rsp), %r13
	movups	%xmm0, 56(%rsp)
	movq	%r13, 80(%rsp)
	data16	leaq	_ZN4asio6detail15keyword_tss_ptrINS0_10call_stackINS0_14strand_service11strand_implEhE7contextEE6value_E@tlsgd(%rip), %rdi
	.value	0x6666
	rex64
	call	__tls_get_addr@PLT
	movq	40(%r12), %rbx
	movdqu	40(%rbp), %xmm4
	movq	%r13, %xmm7
	movdqu	72(%rbp), %xmm5
	movdqu	96(%rbp), %xmm1
	movq	%rbp, 120(%rsp)
	leaq	336(%rsp), %r12
	movq	%rbx, %xmm0
	movq	%r12, 112(%rsp)
	movq	$0, 128(%rsp)
	punpcklqdq	%xmm7, %xmm0
	movaps	%xmm0, (%rsp)
	movq	(%rax), %rdx
	movq	%rdx, 96(%rsp)
	leaq	80(%rsp), %rdx
	movq	%rdx, (%rax)
	movq	24(%rbp), %rax
	movq	%rdx, 88(%rsp)
	movq	%rax, 336(%rsp)
	movq	32(%rbp), %rax
	movaps	%xmm4, 352(%rsp)
	movq	%rax, 344(%rsp)
	movl	56(%rbp), %eax
	movl	%eax, 368(%rsp)
	movq	64(%rbp), %rax
	movaps	%xmm5, 384(%rsp)
	movq	%rax, 376(%rsp)
	movq	88(%rbp), %rax
	movups	%xmm1, 408(%rsp)
	movq	%rax, 400(%rsp)
	movq	112(%rbp), %rax
	movq	%rax, 424(%rsp)
	data16	leaq	_ZN4asio6detail15keyword_tss_ptrINS0_10call_stackINS0_15task_io_serviceENS0_27task_io_service_thread_infoEE7contextEE6value_E@tlsgd(%rip), %rdi
	.value	0x6666
	rex64
	call	__tls_get_addr@PLT
	movq	(%rax), %rax
	testq	%rax, %rax
	je	.L1924
	movq	8(%rax), %rax
	testq	%rax, %rax
	je	.L1924
	cmpq	$0, (%rax)
	je	.L2065
.L1924:
	movq	%rbp, %rdi
	call	_ZdlPv@PLT
.L1941:
	movq	$0, 120(%rsp)
	testq	%rbx, %rbx
	je	.L1944
	movq	424(%rsp), %rdx
	leaq	408(%rsp), %rsi
	leaq	344(%rsp), %rdi
	xorl	%ecx, %ecx
.LEHB30:
	call	_ZN4asio6detail8write_opINS_19basic_stream_socketINS_2ip3tcpENS_21stream_socket_serviceIS4_EEEENS_15const_buffers_1ENS0_14transfer_all_tENS0_15wrapped_handlerINS_10io_service6strandEZN7asiopal13SocketChannel14BeginWriteImplERKN7openpal6RSliceEEUlRKSt10error_codemE_NS0_26is_continuation_if_runningEEEEclESL_mi
.LEHE30:
	sfence
	movq	120(%rsp), %rbp
	cmpq	$0, 128(%rsp)
	je	.L1943
	movq	$0, 128(%rsp)
.L1943:
	testq	%rbp, %rbp
	je	.L1944
	data16	leaq	_ZN4asio6detail15keyword_tss_ptrINS0_10call_stackINS0_15task_io_serviceENS0_27task_io_service_thread_infoEE7contextEE6value_E@tlsgd(%rip), %rdi
	.value	0x6666
	rex64
	call	__tls_get_addr@PLT
	movq	(%rax), %rax
	testq	%rax, %rax
	je	.L1945
	movq	8(%rax), %rax
	testq	%rax, %rax
	je	.L1945
	cmpq	$0, (%rax)
	je	.L2066
.L1945:
	movq	%rbp, %rdi
	call	_ZdlPv@PLT
.L1944:
	movq	8(%rsp), %rax
	leaq	24(%rax), %rdi
	call	pthread_mutex_lock@PLT
	movq	8(%rsp), %rdi
	movq	72(%rdi), %rbx
	testq	%rbx, %rbx
	je	.L2067
	movq	96(%rdi), %rax
	testq	%rax, %rax
	je	.L1950
	movq	%rbx, (%rax)
	movq	88(%rdi), %rbx
.L1951:
	movq	80(%rdi), %rax
	pxor	%xmm0, %xmm0
	movups	%xmm0, 72(%rdi)
	movq	%rax, 96(%rdi)
.L1947:
	testq	%rbx, %rbx
	setne	64(%rdi)
	addq	$24, %rdi
	call	pthread_mutex_unlock@PLT
	testq	%rbx, %rbx
	jne	.L2068
.L1952:
	data16	leaq	_ZN4asio6detail15keyword_tss_ptrINS0_10call_stackINS0_14strand_service11strand_implEhE7contextEE6value_E@tlsgd(%rip), %rdi
	.value	0x6666
	rex64
	call	__tls_get_addr@PLT
	movq	96(%rsp), %rdx
	cmpq	$0, 64(%rsp)
	movq	56(%rsp), %rbp
	movq	%rdx, (%rax)
	je	.L1963
	movq	$0, 64(%rsp)
.L1963:
	testq	%rbp, %rbp
	je	.L1913
	data16	leaq	_ZN4asio6detail15keyword_tss_ptrINS0_10call_stackINS0_15task_io_serviceENS0_27task_io_service_thread_infoEE7contextEE6value_E@tlsgd(%rip), %rdi
	.value	0x6666
	rex64
	call	__tls_get_addr@PLT
	movq	(%rax), %rax
	testq	%rax, %rax
	je	.L1965
	movq	8(%rax), %rax
	testq	%rax, %rax
	je	.L1965
	cmpq	$0, (%rax)
	je	.L2069
.L1965:
	movq	%rbp, %rdi
	call	_ZdlPv@PLT
	jmp	.L1913
	.p2align 4,,10
	.p2align 3
.L2061:
	movzbl	152(%rbp), %edx
	movb	%dl, 0(%rbp)
	movq	%rbp, (%rax)
	jmp	.L1907
	.p2align 4,,10
	.p2align 3
.L1926:
	movq	%rbp, %xmm0
	punpcklqdq	%xmm0, %xmm0
	movups	%xmm0, 72(%rax)
	jmp	.L2060
	.p2align 4,,10
	.p2align 3
.L1917:
	movq	192(%rsp), %rax
	leaq	24(%rax), %rdi
	call	pthread_mutex_lock@PLT
.L1920:
	movq	192(%rsp), %rax
	cmpb	$0, 64(%rax)
	leaq	24(%rax), %rdi
	jne	.L1922
	movb	$1, 64(%rax)
	call	pthread_mutex_unlock@PLT
	movq	192(%rsp), %r13
	movq	$0, 0(%rbp)
	cmpq	$0, 96(%r13)
	je	.L1929
	movq	96(%r13), %rax
	movq	%rbp, (%rax)
	movq	%rbp, 96(%r13)
.L1930:
	movq	40(%r12), %rbx
	cmpb	$0, 40(%rbx)
	je	.L1931
	data16	leaq	_ZN4asio6detail15keyword_tss_ptrINS0_10call_stackINS0_15task_io_serviceENS0_27task_io_service_thread_infoEE7contextEE6value_E@tlsgd(%rip), %rdi
	.value	0x6666
	rex64
	call	__tls_get_addr@PLT
	movq	(%rax), %rax
	testq	%rax, %rax
	jne	.L1934
	jmp	.L1931
	.p2align 4,,10
	.p2align 3
.L1932:
	movq	16(%rax), %rax
	testq	%rax, %rax
	je	.L1931
.L1934:
	cmpq	(%rax), %rbx
	jne	.L1932
	movq	8(%rax), %rax
	testq	%rax, %rax
	je	.L1931
	addq	$1, 24(%rax)
	cmpq	$0, 16(%rax)
	movq	$0, 0(%r13)
	je	.L1935
	movq	16(%rax), %rdx
	movq	%r13, (%rdx)
	movq	%r13, 16(%rax)
	jmp	.L1913
	.p2align 4,,10
	.p2align 3
.L1931:
	lock addq	$1, 184(%rbx)
	leaq	48(%rbx), %rbp
	movq	%rbp, %rdi
	call	pthread_mutex_lock@PLT
	cmpq	$0, 200(%rbx)
	movq	$0, 0(%r13)
	je	.L1936
	movq	200(%rbx), %rax
	movq	%r13, (%rax)
	movq	%r13, 200(%rbx)
.L1937:
	movq	136(%rbx), %rax
	orq	$1, %rax
	movq	%rax, 136(%rbx)
	cmpq	$1, %rax
	je	.L1938
	movq	%rbp, %rdi
	call	pthread_mutex_unlock@PLT
	leaq	88(%rbx), %rdi
	call	pthread_cond_signal@PLT
	jmp	.L1913
	.p2align 4,,10
	.p2align 3
.L1938:
	cmpb	$0, 176(%rbx)
	jne	.L1940
	movq	144(%rbx), %rax
	testq	%rax, %rax
	je	.L1940
	movb	$1, 176(%rbx)
	leaq	88(%rax), %rdx
	movl	$3, %esi
	leaq	336(%rsp), %rcx
	movl	$-2147483639, 336(%rsp)
	movq	%rdx, 340(%rsp)
	movl	88(%rax), %edx
	movl	96(%rax), %edi
	call	epoll_ctl@PLT
.L1940:
	movq	%rbp, %rdi
	jmp	.L2060
	.p2align 4,,10
	.p2align 3
.L2062:
	movzbl	152(%rbp), %edx
	movb	%dl, 0(%rbp)
	movq	%rbp, (%rax)
	jmp	.L1905
	.p2align 4,,10
	.p2align 3
.L2068:
	movq	(%rsp), %rbx
	movq	8(%rsp), %rbp
	cmpb	$0, 40(%rbx)
	je	.L1953
	data16	leaq	_ZN4asio6detail15keyword_tss_ptrINS0_10call_stackINS0_15task_io_serviceENS0_27task_io_service_thread_infoEE7contextEE6value_E@tlsgd(%rip), %rdi
	.value	0x6666
	rex64
	call	__tls_get_addr@PLT
	movq	(%rax), %rax
	testq	%rax, %rax
	jne	.L1956
	jmp	.L1953
	.p2align 4,,10
	.p2align 3
.L1954:
	movq	16(%rax), %rax
	testq	%rax, %rax
	je	.L1953
.L1956:
	cmpq	(%rax), %rbx
	jne	.L1954
	movq	8(%rax), %rax
	testq	%rax, %rax
	je	.L1953
	addq	$1, 24(%rax)
	cmpq	$0, 16(%rax)
	movq	$0, 0(%rbp)
	je	.L1957
	movq	16(%rax), %rdx
	movq	%rbp, (%rdx)
	movq	%rbp, 16(%rax)
	jmp	.L1952
	.p2align 4,,10
	.p2align 3
.L1953:
	lock addq	$1, 184(%rbx)
	leaq	48(%rbx), %r13
	movq	%r13, %rdi
	call	pthread_mutex_lock@PLT
	cmpq	$0, 200(%rbx)
	movq	$0, 0(%rbp)
	je	.L1958
	movq	200(%rbx), %rax
	movq	%rbp, (%rax)
	movq	%rbp, 200(%rbx)
.L1959:
	movq	136(%rbx), %rax
	orq	$1, %rax
	movq	%rax, 136(%rbx)
	cmpq	$1, %rax
	je	.L1960
	movq	%r13, %rdi
	call	pthread_mutex_unlock@PLT
	leaq	88(%rbx), %rdi
	call	pthread_cond_signal@PLT
	jmp	.L1952
	.p2align 4,,10
	.p2align 3
.L2067:
	movq	88(%rdi), %rbx
	jmp	.L1947
	.p2align 4,,10
	.p2align 3
.L1958:
	movq	%rbp, %xmm0
	punpcklqdq	%xmm0, %xmm0
	movups	%xmm0, 192(%rbx)
	jmp	.L1959
	.p2align 4,,10
	.p2align 3
.L1950:
	movq	%rbx, 88(%rdi)
	jmp	.L1951
	.p2align 4,,10
	.p2align 3
.L1960:
	cmpb	$0, 176(%rbx)
	jne	.L1962
	movq	144(%rbx), %rax
	testq	%rax, %rax
	je	.L1962
	movb	$1, 176(%rbx)
	leaq	88(%rax), %rdx
	movq	%r12, %rcx
	movl	$3, %esi
	movl	$-2147483639, 336(%rsp)
	movq	%rdx, 340(%rsp)
	movl	88(%rax), %edx
	movl	96(%rax), %edi
	call	epoll_ctl@PLT
.L1962:
	movq	%r13, %rdi
	call	pthread_mutex_unlock@PLT
	jmp	.L1952
	.p2align 4,,10
	.p2align 3
.L2069:
	movzbl	120(%rbp), %edx
	movb	%dl, 0(%rbp)
	movq	%rbp, (%rax)
	jmp	.L1913
	.p2align 4,,10
	.p2align 3
.L1929:
	movq	%rbp, %xmm0
	punpcklqdq	%xmm0, %xmm0
	movups	%xmm0, 88(%r13)
	jmp	.L1930
	.p2align 4,,10
	.p2align 3
.L1936:
	movq	%r13, %xmm0
	punpcklqdq	%xmm0, %xmm0
	movups	%xmm0, 192(%rbx)
	jmp	.L1937
	.p2align 4,,10
	.p2align 3
.L2066:
	movzbl	120(%rbp), %edx
	movb	%dl, 0(%rbp)
	movq	%rbp, (%rax)
	jmp	.L1944
	.p2align 4,,10
	.p2align 3
.L2065:
	movzbl	120(%rbp), %edx
	movb	%dl, 0(%rbp)
	movq	%rbp, (%rax)
	jmp	.L1941
	.p2align 4,,10
	.p2align 3
.L1935:
	movq	%r13, %xmm0
	punpcklqdq	%xmm0, %xmm0
	movups	%xmm0, 8(%rax)
	jmp	.L1913
.L1957:
	movq	%rbp, %xmm0
	punpcklqdq	%xmm0, %xmm0
	movups	%xmm0, 8(%rax)
	jmp	.L1952
.L2063:
	call	__stack_chk_fail@PLT
.L1973:
	endbr64
	movq	%rax, %rbp
	jmp	.L1968
.L1974:
	endbr64
	movq	%rax, %rbp
	jmp	.L1948
.L1972:
	endbr64
	movq	%rax, %rbp
	jmp	.L1949
	.section	.gcc_except_table
.LLSDA9033:
	.byte	0xff
	.byte	0xff
	.byte	0x1
	.uleb128 .LLSDACSE9033-.LLSDACSB9033
.LLSDACSB9033:
	.uleb128 .LEHB28-.LFB9033
	.uleb128 .LEHE28-.LEHB28
	.uleb128 .L1973-.LFB9033
	.uleb128 0
	.uleb128 .LEHB29-.LFB9033
	.uleb128 .LEHE29-.LEHB29
	.uleb128 .L1972-.LFB9033
	.uleb128 0
	.uleb128 .LEHB30-.LFB9033
	.uleb128 .LEHE30-.LEHB30
	.uleb128 .L1974-.LFB9033
	.uleb128 0
.LLSDACSE9033:
	.text
	.cfi_endproc
	.section	.text.unlikely
	.cfi_startproc
	.cfi_personality 0x9b,DW.ref.__gxx_personality_v0
	.cfi_lsda 0x1b,.LLSDAC9033
	.type	_ZN4asio6detail23reactive_socket_send_opINS_15const_buffers_1ENS0_8write_opINS_19basic_stream_socketINS_2ip3tcpENS_21stream_socket_serviceIS6_EEEES2_NS0_14transfer_all_tENS0_15wrapped_handlerINS_10io_service6strandEZN7asiopal13SocketChannel14BeginWriteImplERKN7openpal6RSliceEEUlRKSt10error_codemE_NS0_26is_continuation_if_runningEEEEEE11do_completeEPNS0_15task_io_serviceEPNS0_25task_io_service_operationESM_m.cold, @function
_ZN4asio6detail23reactive_socket_send_opINS_15const_buffers_1ENS0_8write_opINS_19basic_stream_socketINS_2ip3tcpENS_21stream_socket_serviceIS6_EEEES2_NS0_14transfer_all_tENS0_15wrapped_handlerINS_10io_service6strandEZN7asiopal13SocketChannel14BeginWriteImplERKN7openpal6RSliceEEUlRKSt10error_codemE_NS0_26is_continuation_if_runningEEEEEE11do_completeEPNS0_15task_io_serviceEPNS0_25task_io_service_operationESM_m.cold:
.LFSB9033:
.L1968:
	.cfi_def_cfa_offset 592
	.cfi_offset 3, -40
	.cfi_offset 6, -32
	.cfi_offset 12, -24
	.cfi_offset 13, -16
	sfence
	jmp	.L1949
.L1948:
	sfence
	leaq	128(%rsp), %rsi
	leaq	120(%rsp), %rdi
	call	_ZN4asio6detail18completion_handlerINS0_17rewrapped_handlerINS0_7binder2INS0_8write_opINS_19basic_stream_socketINS_2ip3tcpENS_21stream_socket_serviceIS7_EEEENS_15const_buffers_1ENS0_14transfer_all_tENS0_15wrapped_handlerINS_10io_service6strandEZN7asiopal13SocketChannel14BeginWriteImplERKN7openpal6RSliceEEUlRKSt10error_codemE_NS0_26is_continuation_if_runningEEEEESM_mEESP_EEE3ptr5resetEv.isra.0
	movq	%rsp, %rdi
	call	_ZN4asio6detail14strand_service16on_dispatch_exitD1Ev@PLT
	data16	leaq	_ZN4asio6detail15keyword_tss_ptrINS0_10call_stackINS0_14strand_service11strand_implEhE7contextEE6value_E@tlsgd(%rip), %rdi
	.value	0x6666
	rex64
	call	__tls_get_addr@PLT
	movq	96(%rsp), %rdx
	leaq	64(%rsp), %rsi
	leaq	56(%rsp), %rdi
	movq	%rdx, (%rax)
	call	_ZN4asio6detail18completion_handlerINS0_17rewrapped_handlerINS0_7binder2INS0_8write_opINS_19basic_stream_socketINS_2ip3tcpENS_21stream_socket_serviceIS7_EEEENS_15const_buffers_1ENS0_14transfer_all_tENS0_15wrapped_handlerINS_10io_service6strandEZN7asiopal13SocketChannel14BeginWriteImplERKN7openpal6RSliceEEUlRKSt10error_codemE_NS0_26is_continuation_if_runningEEEEESM_mEESP_EEE3ptr5resetEv.isra.0
.L1949:
	sfence
	leaq	24(%rsp), %rdi
	leaq	32(%rsp), %rsi
	call	_ZN4asio6detail23reactive_socket_send_opINS_15const_buffers_1ENS0_8write_opINS_19basic_stream_socketINS_2ip3tcpENS_21stream_socket_serviceIS6_EEEES2_NS0_14transfer_all_tENS0_15wrapped_handlerINS_10io_service6strandEZN7asiopal13SocketChannel14BeginWriteImplERKN7openpal6RSliceEEUlRKSt10error_codemE_NS0_26is_continuation_if_runningEEEEEE3ptr5resetEv.isra.0
	movq	%rbp, %rdi
.LEHB31:
	call	_Unwind_Resume@PLT
.LEHE31:
	.cfi_endproc
.LFE9033:
	.section	.gcc_except_table
.LLSDAC9033:
	.byte	0xff
	.byte	0xff
	.byte	0x1
	.uleb128 .LLSDACSEC9033-.LLSDACSBC9033
.LLSDACSBC9033:
	.uleb128 .LEHB31-.LCOLDB32
	.uleb128 .LEHE31-.LEHB31
	.uleb128 0
	.uleb128 0
.LLSDACSEC9033:
	.section	.text.unlikely
	.text
	.size	_ZN4asio6detail23reactive_socket_send_opINS_15const_buffers_1ENS0_8write_opINS_19basic_stream_socketINS_2ip3tcpENS_21stream_socket_serviceIS6_EEEES2_NS0_14transfer_all_tENS0_15wrapped_handlerINS_10io_service6strandEZN7asiopal13SocketChannel14BeginWriteImplERKN7openpal6RSliceEEUlRKSt10error_codemE_NS0_26is_continuation_if_runningEEEEEE11do_completeEPNS0_15task_io_serviceEPNS0_25task_io_service_operationESM_m, .-_ZN4asio6detail23reactive_socket_send_opINS_15const_buffers_1ENS0_8write_opINS_19basic_stream_socketINS_2ip3tcpENS_21stream_socket_serviceIS6_EEEES2_NS0_14transfer_all_tENS0_15wrapped_handlerINS_10io_service6strandEZN7asiopal13SocketChannel14BeginWriteImplERKN7openpal6RSliceEEUlRKSt10error_codemE_NS0_26is_continuation_if_runningEEEEEE11do_completeEPNS0_15task_io_serviceEPNS0_25task_io_service_operationESM_m
	.section	.text.unlikely
	.size	_ZN4asio6detail23reactive_socket_send_opINS_15const_buffers_1ENS0_8write_opINS_19basic_stream_socketINS_2ip3tcpENS_21stream_socket_serviceIS6_EEEES2_NS0_14transfer_all_tENS0_15wrapped_handlerINS_10io_service6strandEZN7asiopal13SocketChannel14BeginWriteImplERKN7openpal6RSliceEEUlRKSt10error_codemE_NS0_26is_continuation_if_runningEEEEEE11do_completeEPNS0_15task_io_serviceEPNS0_25task_io_service_operationESM_m.cold, .-_ZN4asio6detail23reactive_socket_send_opINS_15const_buffers_1ENS0_8write_opINS_19basic_stream_socketINS_2ip3tcpENS_21stream_socket_serviceIS6_EEEES2_NS0_14transfer_all_tENS0_15wrapped_handlerINS_10io_service6strandEZN7asiopal13SocketChannel14BeginWriteImplERKN7openpal6RSliceEEUlRKSt10error_codemE_NS0_26is_continuation_if_runningEEEEEE11do_completeEPNS0_15task_io_serviceEPNS0_25task_io_service_operationESM_m.cold
.LCOLDE32:
	.text
.LHOTE32:
	.align 2
	.p2align 4
	.globl	_ZN7asiopal13SocketChannelC2ESt10shared_ptrINS_8ExecutorEEN4asio19basic_stream_socketINS4_2ip3tcpENS4_21stream_socket_serviceIS7_EEEE
	.type	_ZN7asiopal13SocketChannelC2ESt10shared_ptrINS_8ExecutorEEN4asio19basic_stream_socketINS4_2ip3tcpENS4_21stream_socket_serviceIS7_EEEE, @function
_ZN7asiopal13SocketChannelC2ESt10shared_ptrINS_8ExecutorEEN4asio19basic_stream_socketINS4_2ip3tcpENS4_21stream_socket_serviceIS7_EEEE:
.LFB6920:
	.cfi_startproc
	endbr64
	movq	_ZTVN7asiopal13IAsyncChannelE@GOTPCREL(%rip), %rax
	movq	$0, 8(%rdi)
	movq	$0, 16(%rdi)
	addq	$16, %rax
	movq	%rax, (%rdi)
	movq	(%rsi), %rax
	movq	%rax, 24(%rdi)
	movq	8(%rsi), %rax
	movq	%rax, 32(%rdi)
	testq	%rax, %rax
	je	.L2071
	cmpq	$0, _ZL28__gthrw___pthread_key_createPjPFvPvE@GOTPCREL(%rip)
	je	.L2072
	lock addl	$1, 8(%rax)
.L2071:
	xorl	%eax, %eax
	pxor	%xmm0, %xmm0
	movb	$0, 58(%rdi)
	movw	%ax, 56(%rdi)
	movq	_ZTVN7asiopal13SocketChannelE@GOTPCREL(%rip), %rax
	movups	%xmm0, 40(%rdi)
	addq	$16, %rax
	movq	%rax, (%rdi)
	movq	24(%rdx), %rax
	movq	%rax, 88(%rdi)
	movl	(%rdx), %eax
	movl	$-1, (%rdx)
	movl	%eax, 64(%rdi)
	movzbl	4(%rdx), %eax
	movb	$0, 4(%rdx)
	movb	%al, 68(%rdi)
	movq	8(%rdx), %rax
	movq	$0, 8(%rdx)
	movq	%rax, 72(%rdi)
	movl	16(%rdx), %eax
	movl	$2, 16(%rdx)
	movl	%eax, 80(%rdi)
	ret
	.p2align 4,,10
	.p2align 3
.L2072:
	addl	$1, 8(%rax)
	jmp	.L2071
	.cfi_endproc
.LFE6920:
	.size	_ZN7asiopal13SocketChannelC2ESt10shared_ptrINS_8ExecutorEEN4asio19basic_stream_socketINS4_2ip3tcpENS4_21stream_socket_serviceIS7_EEEE, .-_ZN7asiopal13SocketChannelC2ESt10shared_ptrINS_8ExecutorEEN4asio19basic_stream_socketINS4_2ip3tcpENS4_21stream_socket_serviceIS7_EEEE
	.globl	_ZN7asiopal13SocketChannelC1ESt10shared_ptrINS_8ExecutorEEN4asio19basic_stream_socketINS4_2ip3tcpENS4_21stream_socket_serviceIS7_EEEE
	.set	_ZN7asiopal13SocketChannelC1ESt10shared_ptrINS_8ExecutorEEN4asio19basic_stream_socketINS4_2ip3tcpENS4_21stream_socket_serviceIS7_EEEE,_ZN7asiopal13SocketChannelC2ESt10shared_ptrINS_8ExecutorEEN4asio19basic_stream_socketINS4_2ip3tcpENS4_21stream_socket_serviceIS7_EEEE
	.section	.text.startup,"ax",@progbits
	.p2align 4
	.type	_GLOBAL__sub_I_SocketChannel.cpp, @function
_GLOBAL__sub_I_SocketChannel.cpp:
.LFB9427:
	.cfi_startproc
	endbr64
	pushq	%rbp
	.cfi_def_cfa_offset 16
	.cfi_offset 6, -16
	call	_ZN4asio15system_categoryEv@PLT
	movq	_ZGVZN4asio5error18get_netdb_categoryEvE8instance@GOTPCREL(%rip), %rbp
	movzbl	0(%rbp), %eax
	testb	%al, %al
	je	.L2101
.L2078:
	movq	_ZGVZN4asio5error21get_addrinfo_categoryEvE8instance@GOTPCREL(%rip), %rbp
	movzbl	0(%rbp), %eax
	testb	%al, %al
	je	.L2102
.L2081:
	movq	_ZGVZN4asio5error17get_misc_categoryEvE8instance@GOTPCREL(%rip), %rbp
	movzbl	0(%rbp), %eax
	testb	%al, %al
	je	.L2103
.L2084:
	movq	_ZGVN4asio6detail10call_stackINS0_15task_io_serviceENS0_27task_io_service_thread_infoEE4top_E@GOTPCREL(%rip), %rax
	cmpb	$0, (%rax)
	je	.L2104
.L2086:
	movq	_ZGVN4asio6detail12service_baseINS0_13epoll_reactorEE2idE@GOTPCREL(%rip), %rax
	cmpb	$0, (%rax)
	je	.L2105
.L2087:
	movq	_ZGVN4asio6detail12service_baseINS0_15task_io_serviceEE2idE@GOTPCREL(%rip), %rax
	cmpb	$0, (%rax)
	je	.L2106
.L2088:
	movq	_ZGVN4asio6detail10call_stackINS0_14strand_service11strand_implEhE4top_E@GOTPCREL(%rip), %rax
	cmpb	$0, (%rax)
	je	.L2107
.L2089:
	movq	_ZGVN4asio6detail12service_baseINS0_14strand_serviceEE2idE@GOTPCREL(%rip), %rax
	cmpb	$0, (%rax)
	je	.L2108
	popq	%rbp
	.cfi_remember_state
	.cfi_def_cfa_offset 8
	ret
.L2101:
	.cfi_restore_state
	movq	%rbp, %rdi
	call	__cxa_guard_acquire@PLT
	testl	%eax, %eax
	je	.L2078
	movq	_ZZN4asio5error18get_netdb_categoryEvE8instance@GOTPCREL(%rip), %rsi
	movq	_ZN4asio5error6detail14netdb_categoryD1Ev@GOTPCREL(%rip), %rdi
	leaq	__dso_handle(%rip), %rdx
	call	__cxa_atexit@PLT
	movq	%rbp, %rdi
	call	__cxa_guard_release@PLT
	jmp	.L2078
.L2108:
	movb	$1, (%rax)
	leaq	__dso_handle(%rip), %rdx
	movq	_ZN4asio6detail12service_baseINS0_14strand_serviceEE2idE@GOTPCREL(%rip), %rsi
	movq	_ZN4asio6detail10service_idINS0_14strand_serviceEED1Ev@GOTPCREL(%rip), %rdi
	popq	%rbp
	.cfi_remember_state
	.cfi_def_cfa_offset 8
	jmp	__cxa_atexit@PLT
.L2107:
	.cfi_restore_state
	movb	$1, (%rax)
	movq	_ZN4asio6detail10call_stackINS0_14strand_service11strand_implEhE4top_E@GOTPCREL(%rip), %rsi
	leaq	__dso_handle(%rip), %rdx
	movq	_ZN4asio6detail7tss_ptrINS0_10call_stackINS0_14strand_service11strand_implEhE7contextEED1Ev@GOTPCREL(%rip), %rdi
	call	__cxa_atexit@PLT
	jmp	.L2089
.L2106:
	movb	$1, (%rax)
	movq	_ZN4asio6detail12service_baseINS0_15task_io_serviceEE2idE@GOTPCREL(%rip), %rsi
	leaq	__dso_handle(%rip), %rdx
	movq	_ZN4asio6detail10service_idINS0_15task_io_serviceEED1Ev@GOTPCREL(%rip), %rdi
	call	__cxa_atexit@PLT
	jmp	.L2088
.L2105:
	movb	$1, (%rax)
	movq	_ZN4asio6detail12service_baseINS0_13epoll_reactorEE2idE@GOTPCREL(%rip), %rsi
	leaq	__dso_handle(%rip), %rdx
	movq	_ZN4asio6detail10service_idINS0_13epoll_reactorEED1Ev@GOTPCREL(%rip), %rdi
	call	__cxa_atexit@PLT
	jmp	.L2087
.L2104:
	movb	$1, (%rax)
	movq	_ZN4asio6detail10call_stackINS0_15task_io_serviceENS0_27task_io_service_thread_infoEE4top_E@GOTPCREL(%rip), %rsi
	leaq	__dso_handle(%rip), %rdx
	movq	_ZN4asio6detail7tss_ptrINS0_10call_stackINS0_15task_io_serviceENS0_27task_io_service_thread_infoEE7contextEED1Ev@GOTPCREL(%rip), %rdi
	call	__cxa_atexit@PLT
	jmp	.L2086
.L2103:
	movq	%rbp, %rdi
	call	__cxa_guard_acquire@PLT
	testl	%eax, %eax
	je	.L2084
	movq	_ZZN4asio5error17get_misc_categoryEvE8instance@GOTPCREL(%rip), %rsi
	movq	_ZN4asio5error6detail13misc_categoryD1Ev@GOTPCREL(%rip), %rdi
	leaq	__dso_handle(%rip), %rdx
	call	__cxa_atexit@PLT
	movq	%rbp, %rdi
	call	__cxa_guard_release@PLT
	jmp	.L2084
.L2102:
	movq	%rbp, %rdi
	call	__cxa_guard_acquire@PLT
	testl	%eax, %eax
	je	.L2081
	movq	_ZZN4asio5error21get_addrinfo_categoryEvE8instance@GOTPCREL(%rip), %rsi
	movq	_ZN4asio5error6detail17addrinfo_categoryD1Ev@GOTPCREL(%rip), %rdi
	leaq	__dso_handle(%rip), %rdx
	call	__cxa_atexit@PLT
	movq	%rbp, %rdi
	call	__cxa_guard_release@PLT
	jmp	.L2081
	.cfi_endproc
.LFE9427:
	.size	_GLOBAL__sub_I_SocketChannel.cpp, .-_GLOBAL__sub_I_SocketChannel.cpp
	.section	.init_array,"aw"
	.align 8
	.quad	_GLOBAL__sub_I_SocketChannel.cpp
	.weak	_ZTSN7openpal10UncopyableE
	.section	.rodata._ZTSN7openpal10UncopyableE,"aG",@progbits,_ZTSN7openpal10UncopyableE,comdat
	.align 16
	.type	_ZTSN7openpal10UncopyableE, @object
	.size	_ZTSN7openpal10UncopyableE, 23
_ZTSN7openpal10UncopyableE:
	.string	"N7openpal10UncopyableE"
	.weak	_ZTIN7openpal10UncopyableE
	.section	.data.rel.ro._ZTIN7openpal10UncopyableE,"awG",@progbits,_ZTIN7openpal10UncopyableE,comdat
	.align 8
	.type	_ZTIN7openpal10UncopyableE, @object
	.size	_ZTIN7openpal10UncopyableE, 16
_ZTIN7openpal10UncopyableE:
	.quad	_ZTVN10__cxxabiv117__class_type_infoE+16
	.quad	_ZTSN7openpal10UncopyableE
	.weak	_ZTSSt23enable_shared_from_thisIN7asiopal13IAsyncChannelEE
	.section	.rodata._ZTSSt23enable_shared_from_thisIN7asiopal13IAsyncChannelEE,"aG",@progbits,_ZTSSt23enable_shared_from_thisIN7asiopal13IAsyncChannelEE,comdat
	.align 32
	.type	_ZTSSt23enable_shared_from_thisIN7asiopal13IAsyncChannelEE, @object
	.size	_ZTSSt23enable_shared_from_thisIN7asiopal13IAsyncChannelEE, 55
_ZTSSt23enable_shared_from_thisIN7asiopal13IAsyncChannelEE:
	.string	"St23enable_shared_from_thisIN7asiopal13IAsyncChannelEE"
	.weak	_ZTISt23enable_shared_from_thisIN7asiopal13IAsyncChannelEE
	.section	.data.rel.ro._ZTISt23enable_shared_from_thisIN7asiopal13IAsyncChannelEE,"awG",@progbits,_ZTISt23enable_shared_from_thisIN7asiopal13IAsyncChannelEE,comdat
	.align 8
	.type	_ZTISt23enable_shared_from_thisIN7asiopal13IAsyncChannelEE, @object
	.size	_ZTISt23enable_shared_from_thisIN7asiopal13IAsyncChannelEE, 16
_ZTISt23enable_shared_from_thisIN7asiopal13IAsyncChannelEE:
	.quad	_ZTVN10__cxxabiv117__class_type_infoE+16
	.quad	_ZTSSt23enable_shared_from_thisIN7asiopal13IAsyncChannelEE
	.weak	_ZGVN4asio6detail12service_baseINS0_14strand_serviceEE2idE
	.section	.bss._ZGVN4asio6detail12service_baseINS0_14strand_serviceEE2idE,"awG",@nobits,_ZGVN4asio6detail12service_baseINS0_14strand_serviceEE2idE,comdat
	.align 8
	.type	_ZGVN4asio6detail12service_baseINS0_14strand_serviceEE2idE, @gnu_unique_object
	.size	_ZGVN4asio6detail12service_baseINS0_14strand_serviceEE2idE, 8
_ZGVN4asio6detail12service_baseINS0_14strand_serviceEE2idE:
	.zero	8
	.weak	_ZGVN4asio6detail10call_stackINS0_14strand_service11strand_implEhE4top_E
	.section	.bss._ZGVN4asio6detail10call_stackINS0_14strand_service11strand_implEhE4top_E,"awG",@nobits,_ZGVN4asio6detail10call_stackINS0_14strand_service11strand_implEhE4top_E,comdat
	.align 8
	.type	_ZGVN4asio6detail10call_stackINS0_14strand_service11strand_implEhE4top_E, @gnu_unique_object
	.size	_ZGVN4asio6detail10call_stackINS0_14strand_service11strand_implEhE4top_E, 8
_ZGVN4asio6detail10call_stackINS0_14strand_service11strand_implEhE4top_E:
	.zero	8
	.weak	_ZGVN4asio6detail12service_baseINS0_15task_io_serviceEE2idE
	.section	.bss._ZGVN4asio6detail12service_baseINS0_15task_io_serviceEE2idE,"awG",@nobits,_ZGVN4asio6detail12service_baseINS0_15task_io_serviceEE2idE,comdat
	.align 8
	.type	_ZGVN4asio6detail12service_baseINS0_15task_io_serviceEE2idE, @gnu_unique_object
	.size	_ZGVN4asio6detail12service_baseINS0_15task_io_serviceEE2idE, 8
_ZGVN4asio6detail12service_baseINS0_15task_io_serviceEE2idE:
	.zero	8
	.weak	_ZGVN4asio6detail12service_baseINS0_13epoll_reactorEE2idE
	.section	.bss._ZGVN4asio6detail12service_baseINS0_13epoll_reactorEE2idE,"awG",@nobits,_ZGVN4asio6detail12service_baseINS0_13epoll_reactorEE2idE,comdat
	.align 8
	.type	_ZGVN4asio6detail12service_baseINS0_13epoll_reactorEE2idE, @gnu_unique_object
	.size	_ZGVN4asio6detail12service_baseINS0_13epoll_reactorEE2idE, 8
_ZGVN4asio6detail12service_baseINS0_13epoll_reactorEE2idE:
	.zero	8
	.weak	_ZGVN4asio6detail10call_stackINS0_15task_io_serviceENS0_27task_io_service_thread_infoEE4top_E
	.section	.bss._ZGVN4asio6detail10call_stackINS0_15task_io_serviceENS0_27task_io_service_thread_infoEE4top_E,"awG",@nobits,_ZGVN4asio6detail10call_stackINS0_15task_io_serviceENS0_27task_io_service_thread_infoEE4top_E,comdat
	.align 8
	.type	_ZGVN4asio6detail10call_stackINS0_15task_io_serviceENS0_27task_io_service_thread_infoEE4top_E, @gnu_unique_object
	.size	_ZGVN4asio6detail10call_stackINS0_15task_io_serviceENS0_27task_io_service_thread_infoEE4top_E, 8
_ZGVN4asio6detail10call_stackINS0_15task_io_serviceENS0_27task_io_service_thread_infoEE4top_E:
	.zero	8
	.weak	_ZN4asio6detail12service_baseINS0_14strand_serviceEE2idE
	.section	.bss._ZN4asio6detail12service_baseINS0_14strand_serviceEE2idE,"awG",@nobits,_ZN4asio6detail12service_baseINS0_14strand_serviceEE2idE,comdat
	.type	_ZN4asio6detail12service_baseINS0_14strand_serviceEE2idE, @gnu_unique_object
	.size	_ZN4asio6detail12service_baseINS0_14strand_serviceEE2idE, 1
_ZN4asio6detail12service_baseINS0_14strand_serviceEE2idE:
	.zero	1
	.weak	_ZN4asio6detail10call_stackINS0_14strand_service11strand_implEhE4top_E
	.section	.bss._ZN4asio6detail10call_stackINS0_14strand_service11strand_implEhE4top_E,"awG",@nobits,_ZN4asio6detail10call_stackINS0_14strand_service11strand_implEhE4top_E,comdat
	.type	_ZN4asio6detail10call_stackINS0_14strand_service11strand_implEhE4top_E, @gnu_unique_object
	.size	_ZN4asio6detail10call_stackINS0_14strand_service11strand_implEhE4top_E, 1
_ZN4asio6detail10call_stackINS0_14strand_service11strand_implEhE4top_E:
	.zero	1
	.weak	_ZN4asio6detail12service_baseINS0_15task_io_serviceEE2idE
	.section	.bss._ZN4asio6detail12service_baseINS0_15task_io_serviceEE2idE,"awG",@nobits,_ZN4asio6detail12service_baseINS0_15task_io_serviceEE2idE,comdat
	.type	_ZN4asio6detail12service_baseINS0_15task_io_serviceEE2idE, @gnu_unique_object
	.size	_ZN4asio6detail12service_baseINS0_15task_io_serviceEE2idE, 1
_ZN4asio6detail12service_baseINS0_15task_io_serviceEE2idE:
	.zero	1
	.weak	_ZN4asio6detail12service_baseINS0_13epoll_reactorEE2idE
	.section	.bss._ZN4asio6detail12service_baseINS0_13epoll_reactorEE2idE,"awG",@nobits,_ZN4asio6detail12service_baseINS0_13epoll_reactorEE2idE,comdat
	.type	_ZN4asio6detail12service_baseINS0_13epoll_reactorEE2idE, @gnu_unique_object
	.size	_ZN4asio6detail12service_baseINS0_13epoll_reactorEE2idE, 1
_ZN4asio6detail12service_baseINS0_13epoll_reactorEE2idE:
	.zero	1
	.weak	_ZN4asio6detail10call_stackINS0_15task_io_serviceENS0_27task_io_service_thread_infoEE4top_E
	.section	.bss._ZN4asio6detail10call_stackINS0_15task_io_serviceENS0_27task_io_service_thread_infoEE4top_E,"awG",@nobits,_ZN4asio6detail10call_stackINS0_15task_io_serviceENS0_27task_io_service_thread_infoEE4top_E,comdat
	.type	_ZN4asio6detail10call_stackINS0_15task_io_serviceENS0_27task_io_service_thread_infoEE4top_E, @gnu_unique_object
	.size	_ZN4asio6detail10call_stackINS0_15task_io_serviceENS0_27task_io_service_thread_infoEE4top_E, 1
_ZN4asio6detail10call_stackINS0_15task_io_serviceENS0_27task_io_service_thread_infoEE4top_E:
	.zero	1
	.weak	_ZTSN4asio6detail15system_categoryE
	.section	.rodata._ZTSN4asio6detail15system_categoryE,"aG",@progbits,_ZTSN4asio6detail15system_categoryE,comdat
	.align 32
	.type	_ZTSN4asio6detail15system_categoryE, @object
	.size	_ZTSN4asio6detail15system_categoryE, 32
_ZTSN4asio6detail15system_categoryE:
	.string	"N4asio6detail15system_categoryE"
	.weak	_ZTIN4asio6detail15system_categoryE
	.section	.data.rel.ro._ZTIN4asio6detail15system_categoryE,"awG",@progbits,_ZTIN4asio6detail15system_categoryE,comdat
	.align 8
	.type	_ZTIN4asio6detail15system_categoryE, @object
	.size	_ZTIN4asio6detail15system_categoryE, 24
_ZTIN4asio6detail15system_categoryE:
	.quad	_ZTVN10__cxxabiv120__si_class_type_infoE+16
	.quad	_ZTSN4asio6detail15system_categoryE
	.quad	_ZTINSt3_V214error_categoryE
	.weak	_ZTSN4asio5error6detail14netdb_categoryE
	.section	.rodata._ZTSN4asio5error6detail14netdb_categoryE,"aG",@progbits,_ZTSN4asio5error6detail14netdb_categoryE,comdat
	.align 32
	.type	_ZTSN4asio5error6detail14netdb_categoryE, @object
	.size	_ZTSN4asio5error6detail14netdb_categoryE, 37
_ZTSN4asio5error6detail14netdb_categoryE:
	.string	"N4asio5error6detail14netdb_categoryE"
	.weak	_ZTIN4asio5error6detail14netdb_categoryE
	.section	.data.rel.ro._ZTIN4asio5error6detail14netdb_categoryE,"awG",@progbits,_ZTIN4asio5error6detail14netdb_categoryE,comdat
	.align 8
	.type	_ZTIN4asio5error6detail14netdb_categoryE, @object
	.size	_ZTIN4asio5error6detail14netdb_categoryE, 24
_ZTIN4asio5error6detail14netdb_categoryE:
	.quad	_ZTVN10__cxxabiv120__si_class_type_infoE+16
	.quad	_ZTSN4asio5error6detail14netdb_categoryE
	.quad	_ZTINSt3_V214error_categoryE
	.weak	_ZTSN4asio5error6detail17addrinfo_categoryE
	.section	.rodata._ZTSN4asio5error6detail17addrinfo_categoryE,"aG",@progbits,_ZTSN4asio5error6detail17addrinfo_categoryE,comdat
	.align 32
	.type	_ZTSN4asio5error6detail17addrinfo_categoryE, @object
	.size	_ZTSN4asio5error6detail17addrinfo_categoryE, 40
_ZTSN4asio5error6detail17addrinfo_categoryE:
	.string	"N4asio5error6detail17addrinfo_categoryE"
	.weak	_ZTIN4asio5error6detail17addrinfo_categoryE
	.section	.data.rel.ro._ZTIN4asio5error6detail17addrinfo_categoryE,"awG",@progbits,_ZTIN4asio5error6detail17addrinfo_categoryE,comdat
	.align 8
	.type	_ZTIN4asio5error6detail17addrinfo_categoryE, @object
	.size	_ZTIN4asio5error6detail17addrinfo_categoryE, 24
_ZTIN4asio5error6detail17addrinfo_categoryE:
	.quad	_ZTVN10__cxxabiv120__si_class_type_infoE+16
	.quad	_ZTSN4asio5error6detail17addrinfo_categoryE
	.quad	_ZTINSt3_V214error_categoryE
	.weak	_ZTSN4asio5error6detail13misc_categoryE
	.section	.rodata._ZTSN4asio5error6detail13misc_categoryE,"aG",@progbits,_ZTSN4asio5error6detail13misc_categoryE,comdat
	.align 32
	.type	_ZTSN4asio5error6detail13misc_categoryE, @object
	.size	_ZTSN4asio5error6detail13misc_categoryE, 36
_ZTSN4asio5error6detail13misc_categoryE:
	.string	"N4asio5error6detail13misc_categoryE"
	.weak	_ZTIN4asio5error6detail13misc_categoryE
	.section	.data.rel.ro._ZTIN4asio5error6detail13misc_categoryE,"awG",@progbits,_ZTIN4asio5error6detail13misc_categoryE,comdat
	.align 8
	.type	_ZTIN4asio5error6detail13misc_categoryE, @object
	.size	_ZTIN4asio5error6detail13misc_categoryE, 24
_ZTIN4asio5error6detail13misc_categoryE:
	.quad	_ZTVN10__cxxabiv120__si_class_type_infoE+16
	.quad	_ZTSN4asio5error6detail13misc_categoryE
	.quad	_ZTINSt3_V214error_categoryE
	.weak	_ZTSN7asiopal13IAsyncChannelE
	.section	.rodata._ZTSN7asiopal13IAsyncChannelE,"aG",@progbits,_ZTSN7asiopal13IAsyncChannelE,comdat
	.align 16
	.type	_ZTSN7asiopal13IAsyncChannelE, @object
	.size	_ZTSN7asiopal13IAsyncChannelE, 26
_ZTSN7asiopal13IAsyncChannelE:
	.string	"N7asiopal13IAsyncChannelE"
	.weak	_ZTIN7asiopal13IAsyncChannelE
	.section	.data.rel.ro._ZTIN7asiopal13IAsyncChannelE,"awG",@progbits,_ZTIN7asiopal13IAsyncChannelE,comdat
	.align 8
	.type	_ZTIN7asiopal13IAsyncChannelE, @object
	.size	_ZTIN7asiopal13IAsyncChannelE, 56
_ZTIN7asiopal13IAsyncChannelE:
	.quad	_ZTVN10__cxxabiv121__vmi_class_type_infoE+16
	.quad	_ZTSN7asiopal13IAsyncChannelE
	.long	0
	.long	2
	.quad	_ZTISt23enable_shared_from_thisIN7asiopal13IAsyncChannelEE
	.quad	2050
	.quad	_ZTIN7openpal10UncopyableE
	.quad	0
	.weak	_ZTSN7asiopal13SocketChannelE
	.section	.rodata._ZTSN7asiopal13SocketChannelE,"aG",@progbits,_ZTSN7asiopal13SocketChannelE,comdat
	.align 16
	.type	_ZTSN7asiopal13SocketChannelE, @object
	.size	_ZTSN7asiopal13SocketChannelE, 26
_ZTSN7asiopal13SocketChannelE:
	.string	"N7asiopal13SocketChannelE"
	.weak	_ZTIN7asiopal13SocketChannelE
	.section	.data.rel.ro._ZTIN7asiopal13SocketChannelE,"awG",@progbits,_ZTIN7asiopal13SocketChannelE,comdat
	.align 8
	.type	_ZTIN7asiopal13SocketChannelE, @object
	.size	_ZTIN7asiopal13SocketChannelE, 24
_ZTIN7asiopal13SocketChannelE:
	.quad	_ZTVN10__cxxabiv120__si_class_type_infoE+16
	.quad	_ZTSN7asiopal13SocketChannelE
	.quad	_ZTIN7asiopal13IAsyncChannelE
	.weak	_ZTVN4asio6detail15system_categoryE
	.section	.data.rel.ro._ZTVN4asio6detail15system_categoryE,"awG",@progbits,_ZTVN4asio6detail15system_categoryE,comdat
	.align 8
	.type	_ZTVN4asio6detail15system_categoryE, @object
	.size	_ZTVN4asio6detail15system_categoryE, 80
_ZTVN4asio6detail15system_categoryE:
	.quad	0
	.quad	_ZTIN4asio6detail15system_categoryE
	.quad	_ZN4asio6detail15system_categoryD1Ev
	.quad	_ZN4asio6detail15system_categoryD0Ev
	.quad	_ZNK4asio6detail15system_category4nameEv
	.quad	_ZNKSt3_V214error_category10_M_messageB5cxx11Ei
	.quad	_ZNK4asio6detail15system_category7messageB5cxx11Ei
	.quad	_ZNKSt3_V214error_category23default_error_conditionEi
	.quad	_ZNKSt3_V214error_category10equivalentEiRKSt15error_condition
	.quad	_ZNKSt3_V214error_category10equivalentERKSt10error_codei
	.weak	_ZTVN4asio5error6detail14netdb_categoryE
	.section	.data.rel.ro._ZTVN4asio5error6detail14netdb_categoryE,"awG",@progbits,_ZTVN4asio5error6detail14netdb_categoryE,comdat
	.align 8
	.type	_ZTVN4asio5error6detail14netdb_categoryE, @object
	.size	_ZTVN4asio5error6detail14netdb_categoryE, 80
_ZTVN4asio5error6detail14netdb_categoryE:
	.quad	0
	.quad	_ZTIN4asio5error6detail14netdb_categoryE
	.quad	_ZN4asio5error6detail14netdb_categoryD1Ev
	.quad	_ZN4asio5error6detail14netdb_categoryD0Ev
	.quad	_ZNK4asio5error6detail14netdb_category4nameEv
	.quad	_ZNKSt3_V214error_category10_M_messageB5cxx11Ei
	.quad	_ZNK4asio5error6detail14netdb_category7messageB5cxx11Ei
	.quad	_ZNKSt3_V214error_category23default_error_conditionEi
	.quad	_ZNKSt3_V214error_category10equivalentEiRKSt15error_condition
	.quad	_ZNKSt3_V214error_category10equivalentERKSt10error_codei
	.weak	_ZTVN4asio5error6detail17addrinfo_categoryE
	.section	.data.rel.ro._ZTVN4asio5error6detail17addrinfo_categoryE,"awG",@progbits,_ZTVN4asio5error6detail17addrinfo_categoryE,comdat
	.align 8
	.type	_ZTVN4asio5error6detail17addrinfo_categoryE, @object
	.size	_ZTVN4asio5error6detail17addrinfo_categoryE, 80
_ZTVN4asio5error6detail17addrinfo_categoryE:
	.quad	0
	.quad	_ZTIN4asio5error6detail17addrinfo_categoryE
	.quad	_ZN4asio5error6detail17addrinfo_categoryD1Ev
	.quad	_ZN4asio5error6detail17addrinfo_categoryD0Ev
	.quad	_ZNK4asio5error6detail17addrinfo_category4nameEv
	.quad	_ZNKSt3_V214error_category10_M_messageB5cxx11Ei
	.quad	_ZNK4asio5error6detail17addrinfo_category7messageB5cxx11Ei
	.quad	_ZNKSt3_V214error_category23default_error_conditionEi
	.quad	_ZNKSt3_V214error_category10equivalentEiRKSt15error_condition
	.quad	_ZNKSt3_V214error_category10equivalentERKSt10error_codei
	.weak	_ZTVN4asio5error6detail13misc_categoryE
	.section	.data.rel.ro._ZTVN4asio5error6detail13misc_categoryE,"awG",@progbits,_ZTVN4asio5error6detail13misc_categoryE,comdat
	.align 8
	.type	_ZTVN4asio5error6detail13misc_categoryE, @object
	.size	_ZTVN4asio5error6detail13misc_categoryE, 80
_ZTVN4asio5error6detail13misc_categoryE:
	.quad	0
	.quad	_ZTIN4asio5error6detail13misc_categoryE
	.quad	_ZN4asio5error6detail13misc_categoryD1Ev
	.quad	_ZN4asio5error6detail13misc_categoryD0Ev
	.quad	_ZNK4asio5error6detail13misc_category4nameEv
	.quad	_ZNKSt3_V214error_category10_M_messageB5cxx11Ei
	.quad	_ZNK4asio5error6detail13misc_category7messageB5cxx11Ei
	.quad	_ZNKSt3_V214error_category23default_error_conditionEi
	.quad	_ZNKSt3_V214error_category10equivalentEiRKSt15error_condition
	.quad	_ZNKSt3_V214error_category10equivalentERKSt10error_codei
	.weak	_ZTVN7asiopal13IAsyncChannelE
	.section	.data.rel.ro._ZTVN7asiopal13IAsyncChannelE,"awG",@progbits,_ZTVN7asiopal13IAsyncChannelE,comdat
	.align 8
	.type	_ZTVN7asiopal13IAsyncChannelE, @object
	.size	_ZTVN7asiopal13IAsyncChannelE, 56
_ZTVN7asiopal13IAsyncChannelE:
	.quad	0
	.quad	_ZTIN7asiopal13IAsyncChannelE
	.quad	0
	.quad	0
	.quad	__cxa_pure_virtual
	.quad	__cxa_pure_virtual
	.quad	__cxa_pure_virtual
	.weak	_ZTVN7asiopal13SocketChannelE
	.section	.data.rel.ro._ZTVN7asiopal13SocketChannelE,"awG",@progbits,_ZTVN7asiopal13SocketChannelE,comdat
	.align 8
	.type	_ZTVN7asiopal13SocketChannelE, @object
	.size	_ZTVN7asiopal13SocketChannelE, 56
_ZTVN7asiopal13SocketChannelE:
	.quad	0
	.quad	_ZTIN7asiopal13SocketChannelE
	.quad	_ZN7asiopal13SocketChannelD1Ev
	.quad	_ZN7asiopal13SocketChannelD0Ev
	.quad	_ZN7asiopal13SocketChannel13BeginReadImplEN7openpal6WSliceE
	.quad	_ZN7asiopal13SocketChannel14BeginWriteImplERKN7openpal6RSliceE
	.quad	_ZN7asiopal13SocketChannel12ShutdownImplEv
	.weak	_ZN4asio6detail15keyword_tss_ptrINS0_10call_stackINS0_14strand_service11strand_implEhE7contextEE6value_E
	.section	.tbss._ZN4asio6detail15keyword_tss_ptrINS0_10call_stackINS0_14strand_service11strand_implEhE7contextEE6value_E,"awTG",@nobits,_ZN4asio6detail15keyword_tss_ptrINS0_10call_stackINS0_14strand_service11strand_implEhE7contextEE6value_E,comdat
	.align 8
	.type	_ZN4asio6detail15keyword_tss_ptrINS0_10call_stackINS0_14strand_service11strand_implEhE7contextEE6value_E, @gnu_unique_object
	.size	_ZN4asio6detail15keyword_tss_ptrINS0_10call_stackINS0_14strand_service11strand_implEhE7contextEE6value_E, 8
_ZN4asio6detail15keyword_tss_ptrINS0_10call_stackINS0_14strand_service11strand_implEhE7contextEE6value_E:
	.zero	8
	.weak	_ZGVZN4asio5error17get_misc_categoryEvE8instance
	.section	.bss._ZGVZN4asio5error17get_misc_categoryEvE8instance,"awG",@nobits,_ZGVZN4asio5error17get_misc_categoryEvE8instance,comdat
	.align 8
	.type	_ZGVZN4asio5error17get_misc_categoryEvE8instance, @gnu_unique_object
	.size	_ZGVZN4asio5error17get_misc_categoryEvE8instance, 8
_ZGVZN4asio5error17get_misc_categoryEvE8instance:
	.zero	8
	.weak	_ZZN4asio5error17get_misc_categoryEvE8instance
	.section	.data.rel._ZZN4asio5error17get_misc_categoryEvE8instance,"awG",@progbits,_ZZN4asio5error17get_misc_categoryEvE8instance,comdat
	.align 8
	.type	_ZZN4asio5error17get_misc_categoryEvE8instance, @gnu_unique_object
	.size	_ZZN4asio5error17get_misc_categoryEvE8instance, 8
_ZZN4asio5error17get_misc_categoryEvE8instance:
	.quad	_ZTVN4asio5error6detail13misc_categoryE+16
	.weak	_ZGVZN4asio5error21get_addrinfo_categoryEvE8instance
	.section	.bss._ZGVZN4asio5error21get_addrinfo_categoryEvE8instance,"awG",@nobits,_ZGVZN4asio5error21get_addrinfo_categoryEvE8instance,comdat
	.align 8
	.type	_ZGVZN4asio5error21get_addrinfo_categoryEvE8instance, @gnu_unique_object
	.size	_ZGVZN4asio5error21get_addrinfo_categoryEvE8instance, 8
_ZGVZN4asio5error21get_addrinfo_categoryEvE8instance:
	.zero	8
	.weak	_ZZN4asio5error21get_addrinfo_categoryEvE8instance
	.section	.data.rel._ZZN4asio5error21get_addrinfo_categoryEvE8instance,"awG",@progbits,_ZZN4asio5error21get_addrinfo_categoryEvE8instance,comdat
	.align 8
	.type	_ZZN4asio5error21get_addrinfo_categoryEvE8instance, @gnu_unique_object
	.size	_ZZN4asio5error21get_addrinfo_categoryEvE8instance, 8
_ZZN4asio5error21get_addrinfo_categoryEvE8instance:
	.quad	_ZTVN4asio5error6detail17addrinfo_categoryE+16
	.weak	_ZGVZN4asio5error18get_netdb_categoryEvE8instance
	.section	.bss._ZGVZN4asio5error18get_netdb_categoryEvE8instance,"awG",@nobits,_ZGVZN4asio5error18get_netdb_categoryEvE8instance,comdat
	.align 8
	.type	_ZGVZN4asio5error18get_netdb_categoryEvE8instance, @gnu_unique_object
	.size	_ZGVZN4asio5error18get_netdb_categoryEvE8instance, 8
_ZGVZN4asio5error18get_netdb_categoryEvE8instance:
	.zero	8
	.weak	_ZZN4asio5error18get_netdb_categoryEvE8instance
	.section	.data.rel._ZZN4asio5error18get_netdb_categoryEvE8instance,"awG",@progbits,_ZZN4asio5error18get_netdb_categoryEvE8instance,comdat
	.align 8
	.type	_ZZN4asio5error18get_netdb_categoryEvE8instance, @gnu_unique_object
	.size	_ZZN4asio5error18get_netdb_categoryEvE8instance, 8
_ZZN4asio5error18get_netdb_categoryEvE8instance:
	.quad	_ZTVN4asio5error6detail14netdb_categoryE+16
	.weak	_ZGVZN4asio15system_categoryEvE8instance
	.section	.bss._ZGVZN4asio15system_categoryEvE8instance,"awG",@nobits,_ZGVZN4asio15system_categoryEvE8instance,comdat
	.align 8
	.type	_ZGVZN4asio15system_categoryEvE8instance, @gnu_unique_object
	.size	_ZGVZN4asio15system_categoryEvE8instance, 8
_ZGVZN4asio15system_categoryEvE8instance:
	.zero	8
	.weak	_ZZN4asio15system_categoryEvE8instance
	.section	.data.rel._ZZN4asio15system_categoryEvE8instance,"awG",@progbits,_ZZN4asio15system_categoryEvE8instance,comdat
	.align 8
	.type	_ZZN4asio15system_categoryEvE8instance, @gnu_unique_object
	.size	_ZZN4asio15system_categoryEvE8instance, 8
_ZZN4asio15system_categoryEvE8instance:
	.quad	_ZTVN4asio6detail15system_categoryE+16
	.weak	_ZN4asio6detail15keyword_tss_ptrINS0_10call_stackINS0_15task_io_serviceENS0_27task_io_service_thread_infoEE7contextEE6value_E
	.section	.tbss._ZN4asio6detail15keyword_tss_ptrINS0_10call_stackINS0_15task_io_serviceENS0_27task_io_service_thread_infoEE7contextEE6value_E,"awTG",@nobits,_ZN4asio6detail15keyword_tss_ptrINS0_10call_stackINS0_15task_io_serviceENS0_27task_io_service_thread_infoEE7contextEE6value_E,comdat
	.align 8
	.type	_ZN4asio6detail15keyword_tss_ptrINS0_10call_stackINS0_15task_io_serviceENS0_27task_io_service_thread_infoEE7contextEE6value_E, @gnu_unique_object
	.size	_ZN4asio6detail15keyword_tss_ptrINS0_10call_stackINS0_15task_io_serviceENS0_27task_io_service_thread_infoEE7contextEE6value_E, 8
_ZN4asio6detail15keyword_tss_ptrINS0_10call_stackINS0_15task_io_serviceENS0_27task_io_service_thread_infoEE7contextEE6value_E:
	.zero	8
	.weakref	_ZL28__gthrw___pthread_key_createPjPFvPvE,__pthread_key_create
	.section	.rodata.cst16,"aM",@progbits,16
	.align 16
.LC7:
	.quad	8028075772644520015
	.quad	7310593917846626414
	.align 16
.LC8:
	.quad	2334381286471394643
	.quad	7959390400869068654
	.align 16
.LC9:
	.quad	8367816086596579155
	.quad	2338616625292734585
	.align 16
.LC10:
	.quad	7234013753529430881
	.quad	8243030355803531634
	.align 16
.LC11:
	.quad	8390045716486254408
	.quad	2891421386351273504
	.align 16
.LC12:
	.quad	7526769937477431150
	.quad	8532478930943832687
	.align 16
.LC13:
	.quad	2340027324477221221
	.quad	7020021577750243169
	.align 16
.LC14:
	.quad	8243123821706831956
	.quad	7809653110584451193
	.align 16
.LC15:
	.quad	2338623170819155049
	.quad	2338324160631043177
	.align 16
.LC16:
	.quad	7311138144931573614
	.quad	7019250824563089696
	.align 16
.LC17:
	.quad	7309955097514876993
	.quad	7809911847770287971
	.align 16
.LC18:
	.quad	2338053693894893669
	.quad	7234314212361855855
	.align 16
.LC19:
	.quad	2334956330985808928
	.quad	7310293695322153316
	.align 16
.LC20:
	.quad	8387231026764149601
	.quad	8245935278387126884
	.align 16
.LC21:
	.quad	2338615488418245701
	.quad	7959390400869068654
	.align 16
.LC22:
	.quad	7166182912791242836
	.quad	7214892426067994994
	.align 16
.LC23:
	.quad	2338616625293649263
	.quad	8031165433303558502
	.align 16
.LC24:
	.quad	7810775711721485344
	.quad	7812726531955123045
	.hidden	DW.ref.__gxx_personality_v0
	.weak	DW.ref.__gxx_personality_v0
	.section	.data.rel.local.DW.ref.__gxx_personality_v0,"awG",@progbits,DW.ref.__gxx_personality_v0,comdat
	.align 8
	.type	DW.ref.__gxx_personality_v0, @object
	.size	DW.ref.__gxx_personality_v0, 8
DW.ref.__gxx_personality_v0:
	.quad	__gxx_personality_v0
	.hidden	__dso_handle
	.ident	"GCC: (Ubuntu 9.4.0-1ubuntu1~20.04.1) 9.4.0"
	.section	.note.GNU-stack,"",@progbits
	.section	.note.gnu.property,"a"
	.align 8
	.long	 1f - 0f
	.long	 4f - 1f
	.long	 5
0:
	.string	 "GNU"
1:
	.align 8
	.long	 0xc0000002
	.long	 3f - 2f
2:
	.long	 0x3
3:
	.align 8
4:
