	.file	"TCPClient.cpp"
	.text
	.section	.rodata._ZNK4asio6detail15system_category4nameEv.str1.1,"aMS",@progbits,1
.LC0:
	.string	"asio.system"
	.section	.text._ZNK4asio6detail15system_category4nameEv,"axG",@progbits,_ZNK4asio6detail15system_category4nameEv,comdat
	.align 2
	.p2align 4
	.weak	_ZNK4asio6detail15system_category4nameEv
	.type	_ZNK4asio6detail15system_category4nameEv, @function
_ZNK4asio6detail15system_category4nameEv:
.LFB2343:
	.cfi_startproc
	endbr64
	leaq	.LC0(%rip), %rax
	ret
	.cfi_endproc
.LFE2343:
	.size	_ZNK4asio6detail15system_category4nameEv, .-_ZNK4asio6detail15system_category4nameEv
	.section	.rodata._ZNK4asio5error6detail14netdb_category4nameEv.str1.1,"aMS",@progbits,1
.LC1:
	.string	"asio.netdb"
	.section	.text._ZNK4asio5error6detail14netdb_category4nameEv,"axG",@progbits,_ZNK4asio5error6detail14netdb_category4nameEv,comdat
	.align 2
	.p2align 4
	.weak	_ZNK4asio5error6detail14netdb_category4nameEv
	.type	_ZNK4asio5error6detail14netdb_category4nameEv, @function
_ZNK4asio5error6detail14netdb_category4nameEv:
.LFB2383:
	.cfi_startproc
	endbr64
	leaq	.LC1(%rip), %rax
	ret
	.cfi_endproc
.LFE2383:
	.size	_ZNK4asio5error6detail14netdb_category4nameEv, .-_ZNK4asio5error6detail14netdb_category4nameEv
	.section	.rodata._ZNK4asio5error6detail17addrinfo_category4nameEv.str1.1,"aMS",@progbits,1
.LC2:
	.string	"asio.addrinfo"
	.section	.text._ZNK4asio5error6detail17addrinfo_category4nameEv,"axG",@progbits,_ZNK4asio5error6detail17addrinfo_category4nameEv,comdat
	.align 2
	.p2align 4
	.weak	_ZNK4asio5error6detail17addrinfo_category4nameEv
	.type	_ZNK4asio5error6detail17addrinfo_category4nameEv, @function
_ZNK4asio5error6detail17addrinfo_category4nameEv:
.LFB2389:
	.cfi_startproc
	endbr64
	leaq	.LC2(%rip), %rax
	ret
	.cfi_endproc
.LFE2389:
	.size	_ZNK4asio5error6detail17addrinfo_category4nameEv, .-_ZNK4asio5error6detail17addrinfo_category4nameEv
	.section	.rodata._ZNK4asio5error6detail13misc_category4nameEv.str1.1,"aMS",@progbits,1
.LC3:
	.string	"asio.misc"
	.section	.text._ZNK4asio5error6detail13misc_category4nameEv,"axG",@progbits,_ZNK4asio5error6detail13misc_category4nameEv,comdat
	.align 2
	.p2align 4
	.weak	_ZNK4asio5error6detail13misc_category4nameEv
	.type	_ZNK4asio5error6detail13misc_category4nameEv, @function
_ZNK4asio5error6detail13misc_category4nameEv:
.LFB2395:
	.cfi_startproc
	endbr64
	leaq	.LC3(%rip), %rax
	ret
	.cfi_endproc
.LFE2395:
	.size	_ZNK4asio5error6detail13misc_category4nameEv, .-_ZNK4asio5error6detail13misc_category4nameEv
	.section	.text._ZN4asio10io_service7service12fork_serviceENS0_10fork_eventE,"axG",@progbits,_ZN4asio10io_service7service12fork_serviceENS0_10fork_eventE,comdat
	.align 2
	.p2align 4
	.weak	_ZN4asio10io_service7service12fork_serviceENS0_10fork_eventE
	.type	_ZN4asio10io_service7service12fork_serviceENS0_10fork_eventE, @function
_ZN4asio10io_service7service12fork_serviceENS0_10fork_eventE:
.LFB3356:
	.cfi_startproc
	endbr64
	ret
	.cfi_endproc
.LFE3356:
	.size	_ZN4asio10io_service7service12fork_serviceENS0_10fork_eventE, .-_ZN4asio10io_service7service12fork_serviceENS0_10fork_eventE
	.section	.text._ZNSt15_Sp_counted_ptrIPSt6vectorIN4asio2ip20basic_resolver_entryINS2_3tcpEEESaIS5_EELN9__gnu_cxx12_Lock_policyE2EED2Ev,"axG",@progbits,_ZNSt15_Sp_counted_ptrIPSt6vectorIN4asio2ip20basic_resolver_entryINS2_3tcpEEESaIS5_EELN9__gnu_cxx12_Lock_policyE2EED5Ev,comdat
	.align 2
	.p2align 4
	.weak	_ZNSt15_Sp_counted_ptrIPSt6vectorIN4asio2ip20basic_resolver_entryINS2_3tcpEEESaIS5_EELN9__gnu_cxx12_Lock_policyE2EED2Ev
	.type	_ZNSt15_Sp_counted_ptrIPSt6vectorIN4asio2ip20basic_resolver_entryINS2_3tcpEEESaIS5_EELN9__gnu_cxx12_Lock_policyE2EED2Ev, @function
_ZNSt15_Sp_counted_ptrIPSt6vectorIN4asio2ip20basic_resolver_entryINS2_3tcpEEESaIS5_EELN9__gnu_cxx12_Lock_policyE2EED2Ev:
.LFB9946:
	.cfi_startproc
	endbr64
	ret
	.cfi_endproc
.LFE9946:
	.size	_ZNSt15_Sp_counted_ptrIPSt6vectorIN4asio2ip20basic_resolver_entryINS2_3tcpEEESaIS5_EELN9__gnu_cxx12_Lock_policyE2EED2Ev, .-_ZNSt15_Sp_counted_ptrIPSt6vectorIN4asio2ip20basic_resolver_entryINS2_3tcpEEESaIS5_EELN9__gnu_cxx12_Lock_policyE2EED2Ev
	.weak	_ZNSt15_Sp_counted_ptrIPSt6vectorIN4asio2ip20basic_resolver_entryINS2_3tcpEEESaIS5_EELN9__gnu_cxx12_Lock_policyE2EED1Ev
	.set	_ZNSt15_Sp_counted_ptrIPSt6vectorIN4asio2ip20basic_resolver_entryINS2_3tcpEEESaIS5_EELN9__gnu_cxx12_Lock_policyE2EED1Ev,_ZNSt15_Sp_counted_ptrIPSt6vectorIN4asio2ip20basic_resolver_entryINS2_3tcpEEESaIS5_EELN9__gnu_cxx12_Lock_policyE2EED2Ev
	.section	.text._ZN4asio6detail12posix_thread4funcINS0_21resolver_service_base22work_io_service_runnerEED2Ev,"axG",@progbits,_ZN4asio6detail12posix_thread4funcINS0_21resolver_service_base22work_io_service_runnerEED5Ev,comdat
	.align 2
	.p2align 4
	.weak	_ZN4asio6detail12posix_thread4funcINS0_21resolver_service_base22work_io_service_runnerEED2Ev
	.type	_ZN4asio6detail12posix_thread4funcINS0_21resolver_service_base22work_io_service_runnerEED2Ev, @function
_ZN4asio6detail12posix_thread4funcINS0_21resolver_service_base22work_io_service_runnerEED2Ev:
.LFB9950:
	.cfi_startproc
	endbr64
	ret
	.cfi_endproc
.LFE9950:
	.size	_ZN4asio6detail12posix_thread4funcINS0_21resolver_service_base22work_io_service_runnerEED2Ev, .-_ZN4asio6detail12posix_thread4funcINS0_21resolver_service_base22work_io_service_runnerEED2Ev
	.weak	_ZN4asio6detail12posix_thread4funcINS0_21resolver_service_base22work_io_service_runnerEED1Ev
	.set	_ZN4asio6detail12posix_thread4funcINS0_21resolver_service_base22work_io_service_runnerEED1Ev,_ZN4asio6detail12posix_thread4funcINS0_21resolver_service_base22work_io_service_runnerEED2Ev
	.section	.text._ZN4asio21stream_socket_serviceINS_2ip3tcpEED2Ev,"axG",@progbits,_ZN4asio21stream_socket_serviceINS_2ip3tcpEED5Ev,comdat
	.align 2
	.p2align 4
	.weak	_ZN4asio21stream_socket_serviceINS_2ip3tcpEED2Ev
	.type	_ZN4asio21stream_socket_serviceINS_2ip3tcpEED2Ev, @function
_ZN4asio21stream_socket_serviceINS_2ip3tcpEED2Ev:
.LFB9954:
	.cfi_startproc
	endbr64
	ret
	.cfi_endproc
.LFE9954:
	.size	_ZN4asio21stream_socket_serviceINS_2ip3tcpEED2Ev, .-_ZN4asio21stream_socket_serviceINS_2ip3tcpEED2Ev
	.weak	_ZN4asio21stream_socket_serviceINS_2ip3tcpEED1Ev
	.set	_ZN4asio21stream_socket_serviceINS_2ip3tcpEED1Ev,_ZN4asio21stream_socket_serviceINS_2ip3tcpEED2Ev
	.section	.text._ZN4asio6detail7tss_ptrINS0_10call_stackINS0_15task_io_serviceENS0_27task_io_service_thread_infoEE7contextEED2Ev,"axG",@progbits,_ZN4asio6detail7tss_ptrINS0_10call_stackINS0_15task_io_serviceENS0_27task_io_service_thread_infoEE7contextEED5Ev,comdat
	.align 2
	.p2align 4
	.weak	_ZN4asio6detail7tss_ptrINS0_10call_stackINS0_15task_io_serviceENS0_27task_io_service_thread_infoEE7contextEED2Ev
	.type	_ZN4asio6detail7tss_ptrINS0_10call_stackINS0_15task_io_serviceENS0_27task_io_service_thread_infoEE7contextEED2Ev, @function
_ZN4asio6detail7tss_ptrINS0_10call_stackINS0_15task_io_serviceENS0_27task_io_service_thread_infoEE7contextEED2Ev:
.LFB10031:
	.cfi_startproc
	endbr64
	ret
	.cfi_endproc
.LFE10031:
	.size	_ZN4asio6detail7tss_ptrINS0_10call_stackINS0_15task_io_serviceENS0_27task_io_service_thread_infoEE7contextEED2Ev, .-_ZN4asio6detail7tss_ptrINS0_10call_stackINS0_15task_io_serviceENS0_27task_io_service_thread_infoEE7contextEED2Ev
	.weak	_ZN4asio6detail7tss_ptrINS0_10call_stackINS0_15task_io_serviceENS0_27task_io_service_thread_infoEE7contextEED1Ev
	.set	_ZN4asio6detail7tss_ptrINS0_10call_stackINS0_15task_io_serviceENS0_27task_io_service_thread_infoEE7contextEED1Ev,_ZN4asio6detail7tss_ptrINS0_10call_stackINS0_15task_io_serviceENS0_27task_io_service_thread_infoEE7contextEED2Ev
	.section	.text._ZN4asio6detail10service_idINS0_13epoll_reactorEED2Ev,"axG",@progbits,_ZN4asio6detail10service_idINS0_13epoll_reactorEED5Ev,comdat
	.align 2
	.p2align 4
	.weak	_ZN4asio6detail10service_idINS0_13epoll_reactorEED2Ev
	.type	_ZN4asio6detail10service_idINS0_13epoll_reactorEED2Ev, @function
_ZN4asio6detail10service_idINS0_13epoll_reactorEED2Ev:
.LFB10034:
	.cfi_startproc
	endbr64
	ret
	.cfi_endproc
.LFE10034:
	.size	_ZN4asio6detail10service_idINS0_13epoll_reactorEED2Ev, .-_ZN4asio6detail10service_idINS0_13epoll_reactorEED2Ev
	.weak	_ZN4asio6detail10service_idINS0_13epoll_reactorEED1Ev
	.set	_ZN4asio6detail10service_idINS0_13epoll_reactorEED1Ev,_ZN4asio6detail10service_idINS0_13epoll_reactorEED2Ev
	.section	.text._ZN4asio6detail10service_idINS0_15task_io_serviceEED2Ev,"axG",@progbits,_ZN4asio6detail10service_idINS0_15task_io_serviceEED5Ev,comdat
	.align 2
	.p2align 4
	.weak	_ZN4asio6detail10service_idINS0_15task_io_serviceEED2Ev
	.type	_ZN4asio6detail10service_idINS0_15task_io_serviceEED2Ev, @function
_ZN4asio6detail10service_idINS0_15task_io_serviceEED2Ev:
.LFB10037:
	.cfi_startproc
	endbr64
	ret
	.cfi_endproc
.LFE10037:
	.size	_ZN4asio6detail10service_idINS0_15task_io_serviceEED2Ev, .-_ZN4asio6detail10service_idINS0_15task_io_serviceEED2Ev
	.weak	_ZN4asio6detail10service_idINS0_15task_io_serviceEED1Ev
	.set	_ZN4asio6detail10service_idINS0_15task_io_serviceEED1Ev,_ZN4asio6detail10service_idINS0_15task_io_serviceEED2Ev
	.section	.text._ZN4asio6detail7tss_ptrINS0_10call_stackINS0_14strand_service11strand_implEhE7contextEED2Ev,"axG",@progbits,_ZN4asio6detail7tss_ptrINS0_10call_stackINS0_14strand_service11strand_implEhE7contextEED5Ev,comdat
	.align 2
	.p2align 4
	.weak	_ZN4asio6detail7tss_ptrINS0_10call_stackINS0_14strand_service11strand_implEhE7contextEED2Ev
	.type	_ZN4asio6detail7tss_ptrINS0_10call_stackINS0_14strand_service11strand_implEhE7contextEED2Ev, @function
_ZN4asio6detail7tss_ptrINS0_10call_stackINS0_14strand_service11strand_implEhE7contextEED2Ev:
.LFB10040:
	.cfi_startproc
	endbr64
	ret
	.cfi_endproc
.LFE10040:
	.size	_ZN4asio6detail7tss_ptrINS0_10call_stackINS0_14strand_service11strand_implEhE7contextEED2Ev, .-_ZN4asio6detail7tss_ptrINS0_10call_stackINS0_14strand_service11strand_implEhE7contextEED2Ev
	.weak	_ZN4asio6detail7tss_ptrINS0_10call_stackINS0_14strand_service11strand_implEhE7contextEED1Ev
	.set	_ZN4asio6detail7tss_ptrINS0_10call_stackINS0_14strand_service11strand_implEhE7contextEED1Ev,_ZN4asio6detail7tss_ptrINS0_10call_stackINS0_14strand_service11strand_implEhE7contextEED2Ev
	.section	.text._ZN4asio6detail10service_idINS0_14strand_serviceEED2Ev,"axG",@progbits,_ZN4asio6detail10service_idINS0_14strand_serviceEED5Ev,comdat
	.align 2
	.p2align 4
	.weak	_ZN4asio6detail10service_idINS0_14strand_serviceEED2Ev
	.type	_ZN4asio6detail10service_idINS0_14strand_serviceEED2Ev, @function
_ZN4asio6detail10service_idINS0_14strand_serviceEED2Ev:
.LFB10043:
	.cfi_startproc
	endbr64
	ret
	.cfi_endproc
.LFE10043:
	.size	_ZN4asio6detail10service_idINS0_14strand_serviceEED2Ev, .-_ZN4asio6detail10service_idINS0_14strand_serviceEED2Ev
	.weak	_ZN4asio6detail10service_idINS0_14strand_serviceEED1Ev
	.set	_ZN4asio6detail10service_idINS0_14strand_serviceEED1Ev,_ZN4asio6detail10service_idINS0_14strand_serviceEED2Ev
	.section	.text._ZN4asio6detail10service_idINS_2ip16resolver_serviceINS2_3tcpEEEED2Ev,"axG",@progbits,_ZN4asio6detail10service_idINS_2ip16resolver_serviceINS2_3tcpEEEED5Ev,comdat
	.align 2
	.p2align 4
	.weak	_ZN4asio6detail10service_idINS_2ip16resolver_serviceINS2_3tcpEEEED2Ev
	.type	_ZN4asio6detail10service_idINS_2ip16resolver_serviceINS2_3tcpEEEED2Ev, @function
_ZN4asio6detail10service_idINS_2ip16resolver_serviceINS2_3tcpEEEED2Ev:
.LFB10046:
	.cfi_startproc
	endbr64
	ret
	.cfi_endproc
.LFE10046:
	.size	_ZN4asio6detail10service_idINS_2ip16resolver_serviceINS2_3tcpEEEED2Ev, .-_ZN4asio6detail10service_idINS_2ip16resolver_serviceINS2_3tcpEEEED2Ev
	.weak	_ZN4asio6detail10service_idINS_2ip16resolver_serviceINS2_3tcpEEEED1Ev
	.set	_ZN4asio6detail10service_idINS_2ip16resolver_serviceINS2_3tcpEEEED1Ev,_ZN4asio6detail10service_idINS_2ip16resolver_serviceINS2_3tcpEEEED2Ev
	.section	.text._ZN4asio6detail10service_idINS_21stream_socket_serviceINS_2ip3tcpEEEED2Ev,"axG",@progbits,_ZN4asio6detail10service_idINS_21stream_socket_serviceINS_2ip3tcpEEEED5Ev,comdat
	.align 2
	.p2align 4
	.weak	_ZN4asio6detail10service_idINS_21stream_socket_serviceINS_2ip3tcpEEEED2Ev
	.type	_ZN4asio6detail10service_idINS_21stream_socket_serviceINS_2ip3tcpEEEED2Ev, @function
_ZN4asio6detail10service_idINS_21stream_socket_serviceINS_2ip3tcpEEEED2Ev:
.LFB10049:
	.cfi_startproc
	endbr64
	ret
	.cfi_endproc
.LFE10049:
	.size	_ZN4asio6detail10service_idINS_21stream_socket_serviceINS_2ip3tcpEEEED2Ev, .-_ZN4asio6detail10service_idINS_21stream_socket_serviceINS_2ip3tcpEEEED2Ev
	.weak	_ZN4asio6detail10service_idINS_21stream_socket_serviceINS_2ip3tcpEEEED1Ev
	.set	_ZN4asio6detail10service_idINS_21stream_socket_serviceINS_2ip3tcpEEEED1Ev,_ZN4asio6detail10service_idINS_21stream_socket_serviceINS_2ip3tcpEEEED2Ev
	.section	.text._ZNSt15_Sp_counted_ptrIPSt6vectorIN4asio2ip20basic_resolver_entryINS2_3tcpEEESaIS5_EELN9__gnu_cxx12_Lock_policyE2EE14_M_get_deleterERKSt9type_info,"axG",@progbits,_ZNSt15_Sp_counted_ptrIPSt6vectorIN4asio2ip20basic_resolver_entryINS2_3tcpEEESaIS5_EELN9__gnu_cxx12_Lock_policyE2EE14_M_get_deleterERKSt9type_info,comdat
	.align 2
	.p2align 4
	.weak	_ZNSt15_Sp_counted_ptrIPSt6vectorIN4asio2ip20basic_resolver_entryINS2_3tcpEEESaIS5_EELN9__gnu_cxx12_Lock_policyE2EE14_M_get_deleterERKSt9type_info
	.type	_ZNSt15_Sp_counted_ptrIPSt6vectorIN4asio2ip20basic_resolver_entryINS2_3tcpEEESaIS5_EELN9__gnu_cxx12_Lock_policyE2EE14_M_get_deleterERKSt9type_info, @function
_ZNSt15_Sp_counted_ptrIPSt6vectorIN4asio2ip20basic_resolver_entryINS2_3tcpEEESaIS5_EELN9__gnu_cxx12_Lock_policyE2EE14_M_get_deleterERKSt9type_info:
.LFB10053:
	.cfi_startproc
	endbr64
	xorl	%eax, %eax
	ret
	.cfi_endproc
.LFE10053:
	.size	_ZNSt15_Sp_counted_ptrIPSt6vectorIN4asio2ip20basic_resolver_entryINS2_3tcpEEESaIS5_EELN9__gnu_cxx12_Lock_policyE2EE14_M_get_deleterERKSt9type_info, .-_ZNSt15_Sp_counted_ptrIPSt6vectorIN4asio2ip20basic_resolver_entryINS2_3tcpEEESaIS5_EELN9__gnu_cxx12_Lock_policyE2EE14_M_get_deleterERKSt9type_info
	.section	.text._ZNSt19_Sp_counted_deleterIPvN4asio6detail10socket_ops12noop_deleterESaIvELN9__gnu_cxx12_Lock_policyE2EED2Ev,"axG",@progbits,_ZNSt19_Sp_counted_deleterIPvN4asio6detail10socket_ops12noop_deleterESaIvELN9__gnu_cxx12_Lock_policyE2EED5Ev,comdat
	.align 2
	.p2align 4
	.weak	_ZNSt19_Sp_counted_deleterIPvN4asio6detail10socket_ops12noop_deleterESaIvELN9__gnu_cxx12_Lock_policyE2EED2Ev
	.type	_ZNSt19_Sp_counted_deleterIPvN4asio6detail10socket_ops12noop_deleterESaIvELN9__gnu_cxx12_Lock_policyE2EED2Ev, @function
_ZNSt19_Sp_counted_deleterIPvN4asio6detail10socket_ops12noop_deleterESaIvELN9__gnu_cxx12_Lock_policyE2EED2Ev:
.LFB10090:
	.cfi_startproc
	endbr64
	ret
	.cfi_endproc
.LFE10090:
	.size	_ZNSt19_Sp_counted_deleterIPvN4asio6detail10socket_ops12noop_deleterESaIvELN9__gnu_cxx12_Lock_policyE2EED2Ev, .-_ZNSt19_Sp_counted_deleterIPvN4asio6detail10socket_ops12noop_deleterESaIvELN9__gnu_cxx12_Lock_policyE2EED2Ev
	.weak	_ZNSt19_Sp_counted_deleterIPvN4asio6detail10socket_ops12noop_deleterESaIvELN9__gnu_cxx12_Lock_policyE2EED1Ev
	.set	_ZNSt19_Sp_counted_deleterIPvN4asio6detail10socket_ops12noop_deleterESaIvELN9__gnu_cxx12_Lock_policyE2EED1Ev,_ZNSt19_Sp_counted_deleterIPvN4asio6detail10socket_ops12noop_deleterESaIvELN9__gnu_cxx12_Lock_policyE2EED2Ev
	.section	.text._ZNSt19_Sp_counted_deleterIPvN4asio6detail10socket_ops12noop_deleterESaIvELN9__gnu_cxx12_Lock_policyE2EE10_M_disposeEv,"axG",@progbits,_ZNSt19_Sp_counted_deleterIPvN4asio6detail10socket_ops12noop_deleterESaIvELN9__gnu_cxx12_Lock_policyE2EE10_M_disposeEv,comdat
	.align 2
	.p2align 4
	.weak	_ZNSt19_Sp_counted_deleterIPvN4asio6detail10socket_ops12noop_deleterESaIvELN9__gnu_cxx12_Lock_policyE2EE10_M_disposeEv
	.type	_ZNSt19_Sp_counted_deleterIPvN4asio6detail10socket_ops12noop_deleterESaIvELN9__gnu_cxx12_Lock_policyE2EE10_M_disposeEv, @function
_ZNSt19_Sp_counted_deleterIPvN4asio6detail10socket_ops12noop_deleterESaIvELN9__gnu_cxx12_Lock_policyE2EE10_M_disposeEv:
.LFB10093:
	.cfi_startproc
	endbr64
	ret
	.cfi_endproc
.LFE10093:
	.size	_ZNSt19_Sp_counted_deleterIPvN4asio6detail10socket_ops12noop_deleterESaIvELN9__gnu_cxx12_Lock_policyE2EE10_M_disposeEv, .-_ZNSt19_Sp_counted_deleterIPvN4asio6detail10socket_ops12noop_deleterESaIvELN9__gnu_cxx12_Lock_policyE2EE10_M_disposeEv
	.section	.text._ZN4asio21stream_socket_serviceINS_2ip3tcpEE16shutdown_serviceEv,"axG",@progbits,_ZN4asio21stream_socket_serviceINS_2ip3tcpEE16shutdown_serviceEv,comdat
	.align 2
	.p2align 4
	.weak	_ZN4asio21stream_socket_serviceINS_2ip3tcpEE16shutdown_serviceEv
	.type	_ZN4asio21stream_socket_serviceINS_2ip3tcpEE16shutdown_serviceEv, @function
_ZN4asio21stream_socket_serviceINS_2ip3tcpEE16shutdown_serviceEv:
.LFB10097:
	.cfi_startproc
	endbr64
	ret
	.cfi_endproc
.LFE10097:
	.size	_ZN4asio21stream_socket_serviceINS_2ip3tcpEE16shutdown_serviceEv, .-_ZN4asio21stream_socket_serviceINS_2ip3tcpEE16shutdown_serviceEv
	.section	.text._ZN4asio6detail12posix_thread4funcINS0_21resolver_service_base22work_io_service_runnerEED0Ev,"axG",@progbits,_ZN4asio6detail12posix_thread4funcINS0_21resolver_service_base22work_io_service_runnerEED5Ev,comdat
	.align 2
	.p2align 4
	.weak	_ZN4asio6detail12posix_thread4funcINS0_21resolver_service_base22work_io_service_runnerEED0Ev
	.type	_ZN4asio6detail12posix_thread4funcINS0_21resolver_service_base22work_io_service_runnerEED0Ev, @function
_ZN4asio6detail12posix_thread4funcINS0_21resolver_service_base22work_io_service_runnerEED0Ev:
.LFB9952:
	.cfi_startproc
	endbr64
	movl	$16, %esi
	jmp	_ZdlPvm@PLT
	.cfi_endproc
.LFE9952:
	.size	_ZN4asio6detail12posix_thread4funcINS0_21resolver_service_base22work_io_service_runnerEED0Ev, .-_ZN4asio6detail12posix_thread4funcINS0_21resolver_service_base22work_io_service_runnerEED0Ev
	.section	.text._ZNSt15_Sp_counted_ptrIPSt6vectorIN4asio2ip20basic_resolver_entryINS2_3tcpEEESaIS5_EELN9__gnu_cxx12_Lock_policyE2EED0Ev,"axG",@progbits,_ZNSt15_Sp_counted_ptrIPSt6vectorIN4asio2ip20basic_resolver_entryINS2_3tcpEEESaIS5_EELN9__gnu_cxx12_Lock_policyE2EED5Ev,comdat
	.align 2
	.p2align 4
	.weak	_ZNSt15_Sp_counted_ptrIPSt6vectorIN4asio2ip20basic_resolver_entryINS2_3tcpEEESaIS5_EELN9__gnu_cxx12_Lock_policyE2EED0Ev
	.type	_ZNSt15_Sp_counted_ptrIPSt6vectorIN4asio2ip20basic_resolver_entryINS2_3tcpEEESaIS5_EELN9__gnu_cxx12_Lock_policyE2EED0Ev, @function
_ZNSt15_Sp_counted_ptrIPSt6vectorIN4asio2ip20basic_resolver_entryINS2_3tcpEEESaIS5_EELN9__gnu_cxx12_Lock_policyE2EED0Ev:
.LFB9948:
	.cfi_startproc
	endbr64
	movl	$24, %esi
	jmp	_ZdlPvm@PLT
	.cfi_endproc
.LFE9948:
	.size	_ZNSt15_Sp_counted_ptrIPSt6vectorIN4asio2ip20basic_resolver_entryINS2_3tcpEEESaIS5_EELN9__gnu_cxx12_Lock_policyE2EED0Ev, .-_ZNSt15_Sp_counted_ptrIPSt6vectorIN4asio2ip20basic_resolver_entryINS2_3tcpEEESaIS5_EELN9__gnu_cxx12_Lock_policyE2EED0Ev
	.section	.text._ZNSt15_Sp_counted_ptrIPSt6vectorIN4asio2ip20basic_resolver_entryINS2_3tcpEEESaIS5_EELN9__gnu_cxx12_Lock_policyE2EE10_M_destroyEv,"axG",@progbits,_ZNSt15_Sp_counted_ptrIPSt6vectorIN4asio2ip20basic_resolver_entryINS2_3tcpEEESaIS5_EELN9__gnu_cxx12_Lock_policyE2EE10_M_destroyEv,comdat
	.align 2
	.p2align 4
	.weak	_ZNSt15_Sp_counted_ptrIPSt6vectorIN4asio2ip20basic_resolver_entryINS2_3tcpEEESaIS5_EELN9__gnu_cxx12_Lock_policyE2EE10_M_destroyEv
	.type	_ZNSt15_Sp_counted_ptrIPSt6vectorIN4asio2ip20basic_resolver_entryINS2_3tcpEEESaIS5_EELN9__gnu_cxx12_Lock_policyE2EE10_M_destroyEv, @function
_ZNSt15_Sp_counted_ptrIPSt6vectorIN4asio2ip20basic_resolver_entryINS2_3tcpEEESaIS5_EELN9__gnu_cxx12_Lock_policyE2EE10_M_destroyEv:
.LFB10052:
	.cfi_startproc
	endbr64
	movl	$24, %esi
	jmp	_ZdlPvm@PLT
	.cfi_endproc
.LFE10052:
	.size	_ZNSt15_Sp_counted_ptrIPSt6vectorIN4asio2ip20basic_resolver_entryINS2_3tcpEEESaIS5_EELN9__gnu_cxx12_Lock_policyE2EE10_M_destroyEv, .-_ZNSt15_Sp_counted_ptrIPSt6vectorIN4asio2ip20basic_resolver_entryINS2_3tcpEEESaIS5_EELN9__gnu_cxx12_Lock_policyE2EE10_M_destroyEv
	.section	.text._ZNSt19_Sp_counted_deleterIPvN4asio6detail10socket_ops12noop_deleterESaIvELN9__gnu_cxx12_Lock_policyE2EED0Ev,"axG",@progbits,_ZNSt19_Sp_counted_deleterIPvN4asio6detail10socket_ops12noop_deleterESaIvELN9__gnu_cxx12_Lock_policyE2EED5Ev,comdat
	.align 2
	.p2align 4
	.weak	_ZNSt19_Sp_counted_deleterIPvN4asio6detail10socket_ops12noop_deleterESaIvELN9__gnu_cxx12_Lock_policyE2EED0Ev
	.type	_ZNSt19_Sp_counted_deleterIPvN4asio6detail10socket_ops12noop_deleterESaIvELN9__gnu_cxx12_Lock_policyE2EED0Ev, @function
_ZNSt19_Sp_counted_deleterIPvN4asio6detail10socket_ops12noop_deleterESaIvELN9__gnu_cxx12_Lock_policyE2EED0Ev:
.LFB10092:
	.cfi_startproc
	endbr64
	movl	$24, %esi
	jmp	_ZdlPvm@PLT
	.cfi_endproc
.LFE10092:
	.size	_ZNSt19_Sp_counted_deleterIPvN4asio6detail10socket_ops12noop_deleterESaIvELN9__gnu_cxx12_Lock_policyE2EED0Ev, .-_ZNSt19_Sp_counted_deleterIPvN4asio6detail10socket_ops12noop_deleterESaIvELN9__gnu_cxx12_Lock_policyE2EED0Ev
	.section	.text._ZN4asio21stream_socket_serviceINS_2ip3tcpEED0Ev,"axG",@progbits,_ZN4asio21stream_socket_serviceINS_2ip3tcpEED5Ev,comdat
	.align 2
	.p2align 4
	.weak	_ZN4asio21stream_socket_serviceINS_2ip3tcpEED0Ev
	.type	_ZN4asio21stream_socket_serviceINS_2ip3tcpEED0Ev, @function
_ZN4asio21stream_socket_serviceINS_2ip3tcpEED0Ev:
.LFB9956:
	.cfi_startproc
	endbr64
	movl	$48, %esi
	jmp	_ZdlPvm@PLT
	.cfi_endproc
.LFE9956:
	.size	_ZN4asio21stream_socket_serviceINS_2ip3tcpEED0Ev, .-_ZN4asio21stream_socket_serviceINS_2ip3tcpEED0Ev
	.section	.text._ZNSt19_Sp_counted_deleterIPvN4asio6detail10socket_ops12noop_deleterESaIvELN9__gnu_cxx12_Lock_policyE2EE10_M_destroyEv,"axG",@progbits,_ZNSt19_Sp_counted_deleterIPvN4asio6detail10socket_ops12noop_deleterESaIvELN9__gnu_cxx12_Lock_policyE2EE10_M_destroyEv,comdat
	.align 2
	.p2align 4
	.weak	_ZNSt19_Sp_counted_deleterIPvN4asio6detail10socket_ops12noop_deleterESaIvELN9__gnu_cxx12_Lock_policyE2EE10_M_destroyEv
	.type	_ZNSt19_Sp_counted_deleterIPvN4asio6detail10socket_ops12noop_deleterESaIvELN9__gnu_cxx12_Lock_policyE2EE10_M_destroyEv, @function
_ZNSt19_Sp_counted_deleterIPvN4asio6detail10socket_ops12noop_deleterESaIvELN9__gnu_cxx12_Lock_policyE2EE10_M_destroyEv:
.LFB10094:
	.cfi_startproc
	endbr64
	jmp	_ZdlPv@PLT
	.cfi_endproc
.LFE10094:
	.size	_ZNSt19_Sp_counted_deleterIPvN4asio6detail10socket_ops12noop_deleterESaIvELN9__gnu_cxx12_Lock_policyE2EE10_M_destroyEv, .-_ZNSt19_Sp_counted_deleterIPvN4asio6detail10socket_ops12noop_deleterESaIvELN9__gnu_cxx12_Lock_policyE2EE10_M_destroyEv
	.section	.text._ZNSt19_Sp_counted_deleterIPvN4asio6detail10socket_ops12noop_deleterESaIvELN9__gnu_cxx12_Lock_policyE2EE14_M_get_deleterERKSt9type_info,"axG",@progbits,_ZNSt19_Sp_counted_deleterIPvN4asio6detail10socket_ops12noop_deleterESaIvELN9__gnu_cxx12_Lock_policyE2EE14_M_get_deleterERKSt9type_info,comdat
	.align 2
	.p2align 4
	.weak	_ZNSt19_Sp_counted_deleterIPvN4asio6detail10socket_ops12noop_deleterESaIvELN9__gnu_cxx12_Lock_policyE2EE14_M_get_deleterERKSt9type_info
	.type	_ZNSt19_Sp_counted_deleterIPvN4asio6detail10socket_ops12noop_deleterESaIvELN9__gnu_cxx12_Lock_policyE2EE14_M_get_deleterERKSt9type_info, @function
_ZNSt19_Sp_counted_deleterIPvN4asio6detail10socket_ops12noop_deleterESaIvELN9__gnu_cxx12_Lock_policyE2EE14_M_get_deleterERKSt9type_info:
.LFB10095:
	.cfi_startproc
	endbr64
	pushq	%r12
	.cfi_def_cfa_offset 16
	.cfi_offset 12, -16
	pushq	%rbx
	.cfi_def_cfa_offset 24
	.cfi_offset 3, -24
	movq	%rdi, %rbx
	subq	$8, %rsp
	.cfi_def_cfa_offset 32
	movq	8(%rsi), %rdi
	movq	_ZTSN4asio6detail10socket_ops12noop_deleterE@GOTPCREL(%rip), %rsi
	cmpq	%rsi, %rdi
	je	.L28
	xorl	%r12d, %r12d
	cmpb	$42, (%rdi)
	je	.L27
	call	strcmp@PLT
	testl	%eax, %eax
	jne	.L27
.L28:
	leaq	16(%rbx), %r12
.L27:
	addq	$8, %rsp
	.cfi_def_cfa_offset 24
	movq	%r12, %rax
	popq	%rbx
	.cfi_def_cfa_offset 16
	popq	%r12
	.cfi_def_cfa_offset 8
	ret
	.cfi_endproc
.LFE10095:
	.size	_ZNSt19_Sp_counted_deleterIPvN4asio6detail10socket_ops12noop_deleterESaIvELN9__gnu_cxx12_Lock_policyE2EE14_M_get_deleterERKSt9type_info, .-_ZNSt19_Sp_counted_deleterIPvN4asio6detail10socket_ops12noop_deleterESaIvELN9__gnu_cxx12_Lock_policyE2EE14_M_get_deleterERKSt9type_info
	.section	.text._ZN4asio6detail15system_categoryD2Ev,"axG",@progbits,_ZN4asio6detail15system_categoryD5Ev,comdat
	.align 2
	.p2align 4
	.weak	_ZN4asio6detail15system_categoryD2Ev
	.type	_ZN4asio6detail15system_categoryD2Ev, @function
_ZN4asio6detail15system_categoryD2Ev:
.LFB10010:
	.cfi_startproc
	endbr64
	movq	_ZTVN4asio6detail15system_categoryE@GOTPCREL(%rip), %rax
	addq	$16, %rax
	movq	%rax, (%rdi)
	jmp	_ZNSt3_V214error_categoryD2Ev@PLT
	.cfi_endproc
.LFE10010:
	.size	_ZN4asio6detail15system_categoryD2Ev, .-_ZN4asio6detail15system_categoryD2Ev
	.weak	_ZN4asio6detail15system_categoryD1Ev
	.set	_ZN4asio6detail15system_categoryD1Ev,_ZN4asio6detail15system_categoryD2Ev
	.section	.text._ZN4asio6detail15system_categoryD0Ev,"axG",@progbits,_ZN4asio6detail15system_categoryD5Ev,comdat
	.align 2
	.p2align 4
	.weak	_ZN4asio6detail15system_categoryD0Ev
	.type	_ZN4asio6detail15system_categoryD0Ev, @function
_ZN4asio6detail15system_categoryD0Ev:
.LFB10012:
	.cfi_startproc
	endbr64
	movq	_ZTVN4asio6detail15system_categoryE@GOTPCREL(%rip), %rax
	pushq	%rbp
	.cfi_def_cfa_offset 16
	.cfi_offset 6, -16
	movq	%rdi, %rbp
	addq	$16, %rax
	movq	%rax, (%rdi)
	call	_ZNSt3_V214error_categoryD2Ev@PLT
	movq	%rbp, %rdi
	movl	$8, %esi
	popq	%rbp
	.cfi_def_cfa_offset 8
	jmp	_ZdlPvm@PLT
	.cfi_endproc
.LFE10012:
	.size	_ZN4asio6detail15system_categoryD0Ev, .-_ZN4asio6detail15system_categoryD0Ev
	.section	.text._ZN4asio5error6detail13misc_categoryD2Ev,"axG",@progbits,_ZN4asio5error6detail13misc_categoryD5Ev,comdat
	.align 2
	.p2align 4
	.weak	_ZN4asio5error6detail13misc_categoryD2Ev
	.type	_ZN4asio5error6detail13misc_categoryD2Ev, @function
_ZN4asio5error6detail13misc_categoryD2Ev:
.LFB9990:
	.cfi_startproc
	endbr64
	movq	_ZTVN4asio5error6detail13misc_categoryE@GOTPCREL(%rip), %rax
	addq	$16, %rax
	movq	%rax, (%rdi)
	jmp	_ZNSt3_V214error_categoryD2Ev@PLT
	.cfi_endproc
.LFE9990:
	.size	_ZN4asio5error6detail13misc_categoryD2Ev, .-_ZN4asio5error6detail13misc_categoryD2Ev
	.weak	_ZN4asio5error6detail13misc_categoryD1Ev
	.set	_ZN4asio5error6detail13misc_categoryD1Ev,_ZN4asio5error6detail13misc_categoryD2Ev
	.section	.text._ZN4asio5error6detail13misc_categoryD0Ev,"axG",@progbits,_ZN4asio5error6detail13misc_categoryD5Ev,comdat
	.align 2
	.p2align 4
	.weak	_ZN4asio5error6detail13misc_categoryD0Ev
	.type	_ZN4asio5error6detail13misc_categoryD0Ev, @function
_ZN4asio5error6detail13misc_categoryD0Ev:
.LFB9992:
	.cfi_startproc
	endbr64
	movq	_ZTVN4asio5error6detail13misc_categoryE@GOTPCREL(%rip), %rax
	pushq	%rbp
	.cfi_def_cfa_offset 16
	.cfi_offset 6, -16
	movq	%rdi, %rbp
	addq	$16, %rax
	movq	%rax, (%rdi)
	call	_ZNSt3_V214error_categoryD2Ev@PLT
	movq	%rbp, %rdi
	movl	$8, %esi
	popq	%rbp
	.cfi_def_cfa_offset 8
	jmp	_ZdlPvm@PLT
	.cfi_endproc
.LFE9992:
	.size	_ZN4asio5error6detail13misc_categoryD0Ev, .-_ZN4asio5error6detail13misc_categoryD0Ev
	.section	.text._ZN4asio5error6detail14netdb_categoryD2Ev,"axG",@progbits,_ZN4asio5error6detail14netdb_categoryD5Ev,comdat
	.align 2
	.p2align 4
	.weak	_ZN4asio5error6detail14netdb_categoryD2Ev
	.type	_ZN4asio5error6detail14netdb_categoryD2Ev, @function
_ZN4asio5error6detail14netdb_categoryD2Ev:
.LFB9998:
	.cfi_startproc
	endbr64
	movq	_ZTVN4asio5error6detail14netdb_categoryE@GOTPCREL(%rip), %rax
	addq	$16, %rax
	movq	%rax, (%rdi)
	jmp	_ZNSt3_V214error_categoryD2Ev@PLT
	.cfi_endproc
.LFE9998:
	.size	_ZN4asio5error6detail14netdb_categoryD2Ev, .-_ZN4asio5error6detail14netdb_categoryD2Ev
	.weak	_ZN4asio5error6detail14netdb_categoryD1Ev
	.set	_ZN4asio5error6detail14netdb_categoryD1Ev,_ZN4asio5error6detail14netdb_categoryD2Ev
	.section	.text._ZN4asio5error6detail14netdb_categoryD0Ev,"axG",@progbits,_ZN4asio5error6detail14netdb_categoryD5Ev,comdat
	.align 2
	.p2align 4
	.weak	_ZN4asio5error6detail14netdb_categoryD0Ev
	.type	_ZN4asio5error6detail14netdb_categoryD0Ev, @function
_ZN4asio5error6detail14netdb_categoryD0Ev:
.LFB10000:
	.cfi_startproc
	endbr64
	movq	_ZTVN4asio5error6detail14netdb_categoryE@GOTPCREL(%rip), %rax
	pushq	%rbp
	.cfi_def_cfa_offset 16
	.cfi_offset 6, -16
	movq	%rdi, %rbp
	addq	$16, %rax
	movq	%rax, (%rdi)
	call	_ZNSt3_V214error_categoryD2Ev@PLT
	movq	%rbp, %rdi
	movl	$8, %esi
	popq	%rbp
	.cfi_def_cfa_offset 8
	jmp	_ZdlPvm@PLT
	.cfi_endproc
.LFE10000:
	.size	_ZN4asio5error6detail14netdb_categoryD0Ev, .-_ZN4asio5error6detail14netdb_categoryD0Ev
	.section	.text._ZN4asio5error6detail17addrinfo_categoryD2Ev,"axG",@progbits,_ZN4asio5error6detail17addrinfo_categoryD5Ev,comdat
	.align 2
	.p2align 4
	.weak	_ZN4asio5error6detail17addrinfo_categoryD2Ev
	.type	_ZN4asio5error6detail17addrinfo_categoryD2Ev, @function
_ZN4asio5error6detail17addrinfo_categoryD2Ev:
.LFB9994:
	.cfi_startproc
	endbr64
	movq	_ZTVN4asio5error6detail17addrinfo_categoryE@GOTPCREL(%rip), %rax
	addq	$16, %rax
	movq	%rax, (%rdi)
	jmp	_ZNSt3_V214error_categoryD2Ev@PLT
	.cfi_endproc
.LFE9994:
	.size	_ZN4asio5error6detail17addrinfo_categoryD2Ev, .-_ZN4asio5error6detail17addrinfo_categoryD2Ev
	.weak	_ZN4asio5error6detail17addrinfo_categoryD1Ev
	.set	_ZN4asio5error6detail17addrinfo_categoryD1Ev,_ZN4asio5error6detail17addrinfo_categoryD2Ev
	.section	.text._ZN4asio5error6detail17addrinfo_categoryD0Ev,"axG",@progbits,_ZN4asio5error6detail17addrinfo_categoryD5Ev,comdat
	.align 2
	.p2align 4
	.weak	_ZN4asio5error6detail17addrinfo_categoryD0Ev
	.type	_ZN4asio5error6detail17addrinfo_categoryD0Ev, @function
_ZN4asio5error6detail17addrinfo_categoryD0Ev:
.LFB9996:
	.cfi_startproc
	endbr64
	movq	_ZTVN4asio5error6detail17addrinfo_categoryE@GOTPCREL(%rip), %rax
	pushq	%rbp
	.cfi_def_cfa_offset 16
	.cfi_offset 6, -16
	movq	%rdi, %rbp
	addq	$16, %rax
	movq	%rax, (%rdi)
	call	_ZNSt3_V214error_categoryD2Ev@PLT
	movq	%rbp, %rdi
	movl	$8, %esi
	popq	%rbp
	.cfi_def_cfa_offset 8
	jmp	_ZdlPvm@PLT
	.cfi_endproc
.LFE9996:
	.size	_ZN4asio5error6detail17addrinfo_categoryD0Ev, .-_ZN4asio5error6detail17addrinfo_categoryD0Ev
	.section	.text._ZN4asio6detail15task_io_service16shutdown_serviceEv,"axG",@progbits,_ZN4asio6detail15task_io_service16shutdown_serviceEv,comdat
	.align 2
	.p2align 4
	.weak	_ZN4asio6detail15task_io_service16shutdown_serviceEv
	.type	_ZN4asio6detail15task_io_service16shutdown_serviceEv, @function
_ZN4asio6detail15task_io_service16shutdown_serviceEv:
.LFB3284:
	.cfi_startproc
	endbr64
	pushq	%r13
	.cfi_def_cfa_offset 16
	.cfi_offset 13, -16
	pushq	%r12
	.cfi_def_cfa_offset 24
	.cfi_offset 12, -24
	pushq	%rbp
	.cfi_def_cfa_offset 32
	.cfi_offset 6, -32
	leaq	48(%rdi), %rbp
	pushq	%rbx
	.cfi_def_cfa_offset 40
	.cfi_offset 3, -40
	movq	%rdi, %rbx
	movq	%rbp, %rdi
	leaq	152(%rbx), %r12
	subq	$40, %rsp
	.cfi_def_cfa_offset 80
	movq	%fs:40, %rax
	movq	%rax, 24(%rsp)
	xorl	%eax, %eax
	call	pthread_mutex_lock@PLT
	movb	$1, 209(%rbx)
	movq	%rbp, %rdi
	call	pthread_mutex_unlock@PLT
	.p2align 4,,10
	.p2align 3
.L50:
	movq	192(%rbx), %rbp
	testq	%rbp, %rbp
	je	.L46
.L55:
	movq	0(%rbp), %rax
	movq	%rax, 192(%rbx)
	testq	%rax, %rax
	je	.L54
	movq	$0, 0(%rbp)
	cmpq	%r12, %rbp
	je	.L50
.L48:
	movl	$0, (%rsp)
	movq	8(%rbp), %r13
	call	_ZNSt3_V215system_categoryEv@PLT
	movq	%rbp, %rsi
	movq	%rsp, %rdx
	xorl	%ecx, %ecx
	movq	%rax, 8(%rsp)
	xorl	%edi, %edi
	call	*%r13
	movq	192(%rbx), %rbp
	testq	%rbp, %rbp
	jne	.L55
	.p2align 4,,10
	.p2align 3
.L46:
	movq	$0, 144(%rbx)
	movq	24(%rsp), %rax
	xorq	%fs:40, %rax
	jne	.L56
	addq	$40, %rsp
	.cfi_remember_state
	.cfi_def_cfa_offset 40
	popq	%rbx
	.cfi_def_cfa_offset 32
	popq	%rbp
	.cfi_def_cfa_offset 24
	popq	%r12
	.cfi_def_cfa_offset 16
	popq	%r13
	.cfi_def_cfa_offset 8
	ret
	.p2align 4,,10
	.p2align 3
.L54:
	.cfi_restore_state
	movq	$0, 200(%rbx)
	movq	$0, 0(%rbp)
	cmpq	%r12, %rbp
	je	.L50
	jmp	.L48
.L56:
	call	__stack_chk_fail@PLT
	.cfi_endproc
.LFE3284:
	.size	_ZN4asio6detail15task_io_service16shutdown_serviceEv, .-_ZN4asio6detail15task_io_service16shutdown_serviceEv
	.section	.text.unlikely,"ax",@progbits
	.type	_ZN4asio6detail15throw_exceptionISt8bad_castEEvRKT_.isra.0, @function
_ZN4asio6detail15throw_exceptionISt8bad_castEEvRKT_.isra.0:
.LFB10261:
	.cfi_startproc
	pushq	%rax
	.cfi_def_cfa_offset 16
	popq	%rax
	.cfi_def_cfa_offset 8
	movl	$8, %edi
	pushq	%rax
	.cfi_def_cfa_offset 16
	call	__cxa_allocate_exception@PLT
	movq	_ZNSt8bad_castD1Ev@GOTPCREL(%rip), %rdx
	movq	_ZTISt8bad_cast@GOTPCREL(%rip), %rsi
	movq	%rax, %rdi
	movq	_ZTVSt8bad_cast@GOTPCREL(%rip), %rax
	addq	$16, %rax
	movq	%rax, (%rdi)
	call	__cxa_throw@PLT
	.cfi_endproc
.LFE10261:
	.size	_ZN4asio6detail15throw_exceptionISt8bad_castEEvRKT_.isra.0, .-_ZN4asio6detail15throw_exceptionISt8bad_castEEvRKT_.isra.0
	.section	.rodata.str1.8,"aMS",@progbits,1
	.align 8
.LC4:
	.string	"basic_string::_M_construct null not valid"
	.text
	.align 2
	.p2align 4
	.type	_ZNSt7__cxx1112basic_stringIcSt11char_traitsIcESaIcEE12_M_constructIPcEEvT_S7_St20forward_iterator_tag.constprop.0, @function
_ZNSt7__cxx1112basic_stringIcSt11char_traitsIcESaIcEE12_M_constructIPcEEvT_S7_St20forward_iterator_tag.constprop.0:
.LFB10523:
	.cfi_startproc
	pushq	%r12
	.cfi_def_cfa_offset 16
	.cfi_offset 12, -16
	movq	%rdx, %r12
	pushq	%rbp
	.cfi_def_cfa_offset 24
	.cfi_offset 6, -24
	movq	%rsi, %rbp
	pushq	%rbx
	.cfi_def_cfa_offset 32
	.cfi_offset 3, -32
	movq	%rdi, %rbx
	subq	$16, %rsp
	.cfi_def_cfa_offset 48
	movq	%fs:40, %rax
	movq	%rax, 8(%rsp)
	xorl	%eax, %eax
	testq	%rdx, %rdx
	je	.L60
	testq	%rsi, %rsi
	je	.L76
.L60:
	subq	%rbp, %r12
	movq	%r12, (%rsp)
	cmpq	$15, %r12
	ja	.L77
	movq	(%rbx), %rdi
	cmpq	$1, %r12
	jne	.L63
	movzbl	0(%rbp), %eax
	movb	%al, (%rdi)
	movq	(%rsp), %r12
	movq	(%rbx), %rdi
.L64:
	movq	%r12, 8(%rbx)
	movb	$0, (%rdi,%r12)
	movq	8(%rsp), %rax
	xorq	%fs:40, %rax
	jne	.L78
	addq	$16, %rsp
	.cfi_remember_state
	.cfi_def_cfa_offset 32
	popq	%rbx
	.cfi_def_cfa_offset 24
	popq	%rbp
	.cfi_def_cfa_offset 16
	popq	%r12
	.cfi_def_cfa_offset 8
	ret
	.p2align 4,,10
	.p2align 3
.L63:
	.cfi_restore_state
	testq	%r12, %r12
	je	.L64
	jmp	.L62
	.p2align 4,,10
	.p2align 3
.L77:
	movq	%rbx, %rdi
	movq	%rsp, %rsi
	xorl	%edx, %edx
	call	_ZNSt7__cxx1112basic_stringIcSt11char_traitsIcESaIcEE9_M_createERmm@PLT
	movq	%rax, (%rbx)
	movq	%rax, %rdi
	movq	(%rsp), %rax
	movq	%rax, 16(%rbx)
.L62:
	movq	%r12, %rdx
	movq	%rbp, %rsi
	call	memcpy@PLT
	movq	(%rsp), %r12
	movq	(%rbx), %rdi
	jmp	.L64
.L76:
	leaq	.LC4(%rip), %rdi
	call	_ZSt19__throw_logic_errorPKc@PLT
.L78:
	call	__stack_chk_fail@PLT
	.cfi_endproc
.LFE10523:
	.size	_ZNSt7__cxx1112basic_stringIcSt11char_traitsIcESaIcEE12_M_constructIPcEEvT_S7_St20forward_iterator_tag.constprop.0, .-_ZNSt7__cxx1112basic_stringIcSt11char_traitsIcESaIcEE12_M_constructIPcEEvT_S7_St20forward_iterator_tag.constprop.0
	.align 2
	.p2align 4
	.type	_ZNSt7__cxx1112basic_stringIcSt11char_traitsIcESaIcEEC2EPKcRKS3_.isra.0, @function
_ZNSt7__cxx1112basic_stringIcSt11char_traitsIcESaIcEEC2EPKcRKS3_.isra.0:
.LFB10430:
	.cfi_startproc
	pushq	%r13
	.cfi_def_cfa_offset 16
	.cfi_offset 13, -16
	leaq	16(%rdi), %r13
	pushq	%r12
	.cfi_def_cfa_offset 24
	.cfi_offset 12, -24
	pushq	%rbp
	.cfi_def_cfa_offset 32
	.cfi_offset 6, -32
	pushq	%rbx
	.cfi_def_cfa_offset 40
	.cfi_offset 3, -40
	subq	$24, %rsp
	.cfi_def_cfa_offset 64
	movq	%fs:40, %rax
	movq	%rax, 8(%rsp)
	xorl	%eax, %eax
	movq	%r13, (%rdi)
	testq	%rsi, %rsi
	je	.L90
	movq	%rdi, %rbx
	movq	%rsi, %rdi
	movq	%rsi, %rbp
	call	strlen@PLT
	movq	%rax, (%rsp)
	movq	%rax, %r12
	cmpq	$15, %rax
	ja	.L91
	cmpq	$1, %rax
	jne	.L83
	movzbl	0(%rbp), %edx
	movb	%dl, 16(%rbx)
.L84:
	movq	%rax, 8(%rbx)
	movb	$0, 0(%r13,%rax)
	movq	8(%rsp), %rax
	xorq	%fs:40, %rax
	jne	.L92
	addq	$24, %rsp
	.cfi_remember_state
	.cfi_def_cfa_offset 40
	popq	%rbx
	.cfi_def_cfa_offset 32
	popq	%rbp
	.cfi_def_cfa_offset 24
	popq	%r12
	.cfi_def_cfa_offset 16
	popq	%r13
	.cfi_def_cfa_offset 8
	ret
	.p2align 4,,10
	.p2align 3
.L83:
	.cfi_restore_state
	testq	%rax, %rax
	je	.L84
	jmp	.L82
	.p2align 4,,10
	.p2align 3
.L91:
	movq	%rsp, %rsi
	xorl	%edx, %edx
	movq	%rbx, %rdi
	call	_ZNSt7__cxx1112basic_stringIcSt11char_traitsIcESaIcEE9_M_createERmm@PLT
	movq	%rax, (%rbx)
	movq	%rax, %r13
	movq	(%rsp), %rax
	movq	%rax, 16(%rbx)
.L82:
	movq	%r13, %rdi
	movq	%r12, %rdx
	movq	%rbp, %rsi
	call	memcpy@PLT
	movq	(%rsp), %rax
	movq	(%rbx), %r13
	jmp	.L84
	.p2align 4,,10
	.p2align 3
.L90:
	leaq	.LC4(%rip), %rdi
	call	_ZSt19__throw_logic_errorPKc@PLT
.L92:
	call	__stack_chk_fail@PLT
	.cfi_endproc
.LFE10430:
	.size	_ZNSt7__cxx1112basic_stringIcSt11char_traitsIcESaIcEEC2EPKcRKS3_.isra.0, .-_ZNSt7__cxx1112basic_stringIcSt11char_traitsIcESaIcEEC2EPKcRKS3_.isra.0
	.section	.text._ZNSt15_Sp_counted_ptrIPSt6vectorIN4asio2ip20basic_resolver_entryINS2_3tcpEEESaIS5_EELN9__gnu_cxx12_Lock_policyE2EE10_M_disposeEv,"axG",@progbits,_ZNSt15_Sp_counted_ptrIPSt6vectorIN4asio2ip20basic_resolver_entryINS2_3tcpEEESaIS5_EELN9__gnu_cxx12_Lock_policyE2EE10_M_disposeEv,comdat
	.align 2
	.p2align 4
	.weak	_ZNSt15_Sp_counted_ptrIPSt6vectorIN4asio2ip20basic_resolver_entryINS2_3tcpEEESaIS5_EELN9__gnu_cxx12_Lock_policyE2EE10_M_disposeEv
	.type	_ZNSt15_Sp_counted_ptrIPSt6vectorIN4asio2ip20basic_resolver_entryINS2_3tcpEEESaIS5_EELN9__gnu_cxx12_Lock_policyE2EE10_M_disposeEv, @function
_ZNSt15_Sp_counted_ptrIPSt6vectorIN4asio2ip20basic_resolver_entryINS2_3tcpEEESaIS5_EELN9__gnu_cxx12_Lock_policyE2EE10_M_disposeEv:
.LFB10051:
	.cfi_startproc
	endbr64
	pushq	%r12
	.cfi_def_cfa_offset 16
	.cfi_offset 12, -16
	pushq	%rbp
	.cfi_def_cfa_offset 24
	.cfi_offset 6, -24
	pushq	%rbx
	.cfi_def_cfa_offset 32
	.cfi_offset 3, -32
	movq	16(%rdi), %r12
	testq	%r12, %r12
	je	.L93
	movq	8(%r12), %rbx
	movq	(%r12), %rbp
	cmpq	%rbp, %rbx
	je	.L95
	.p2align 4,,10
	.p2align 3
.L100:
	movq	64(%rbp), %rdi
	leaq	80(%rbp), %rax
	cmpq	%rax, %rdi
	je	.L96
	call	_ZdlPv@PLT
.L96:
	movq	32(%rbp), %rdi
	leaq	48(%rbp), %rax
	cmpq	%rax, %rdi
	je	.L97
	call	_ZdlPv@PLT
	addq	$96, %rbp
	cmpq	%rbp, %rbx
	jne	.L100
	movq	(%r12), %rbp
.L95:
	testq	%rbp, %rbp
	je	.L101
	movq	%rbp, %rdi
	call	_ZdlPv@PLT
.L101:
	popq	%rbx
	.cfi_remember_state
	.cfi_def_cfa_offset 24
	movq	%r12, %rdi
	popq	%rbp
	.cfi_def_cfa_offset 16
	movl	$24, %esi
	popq	%r12
	.cfi_def_cfa_offset 8
	jmp	_ZdlPvm@PLT
	.p2align 4,,10
	.p2align 3
.L97:
	.cfi_restore_state
	addq	$96, %rbp
	cmpq	%rbp, %rbx
	jne	.L100
	movq	(%r12), %rbp
	jmp	.L95
	.p2align 4,,10
	.p2align 3
.L93:
	popq	%rbx
	.cfi_def_cfa_offset 24
	popq	%rbp
	.cfi_def_cfa_offset 16
	popq	%r12
	.cfi_def_cfa_offset 8
	ret
	.cfi_endproc
.LFE10051:
	.size	_ZNSt15_Sp_counted_ptrIPSt6vectorIN4asio2ip20basic_resolver_entryINS2_3tcpEEESaIS5_EELN9__gnu_cxx12_Lock_policyE2EE10_M_disposeEv, .-_ZNSt15_Sp_counted_ptrIPSt6vectorIN4asio2ip20basic_resolver_entryINS2_3tcpEEESaIS5_EELN9__gnu_cxx12_Lock_policyE2EE10_M_disposeEv
	.section	.text._ZN4asio6detail13epoll_reactorD2Ev,"axG",@progbits,_ZN4asio6detail13epoll_reactorD5Ev,comdat
	.align 2
	.p2align 4
	.weak	_ZN4asio6detail13epoll_reactorD2Ev
	.type	_ZN4asio6detail13epoll_reactorD2Ev, @function
_ZN4asio6detail13epoll_reactorD2Ev:
.LFB3233:
	.cfi_startproc
	.cfi_personality 0x9b,DW.ref.__gxx_personality_v0
	.cfi_lsda 0x1b,.LLSDA3233
	endbr64
	pushq	%r15
	.cfi_def_cfa_offset 16
	.cfi_offset 15, -16
	pushq	%r14
	.cfi_def_cfa_offset 24
	.cfi_offset 14, -24
	pushq	%r13
	.cfi_def_cfa_offset 32
	.cfi_offset 13, -32
	pushq	%r12
	.cfi_def_cfa_offset 40
	.cfi_offset 12, -40
	pushq	%rbp
	.cfi_def_cfa_offset 48
	.cfi_offset 6, -48
	pushq	%rbx
	.cfi_def_cfa_offset 56
	.cfi_offset 3, -56
	movq	%rdi, %rbx
	subq	$56, %rsp
	.cfi_def_cfa_offset 112
	movq	%fs:40, %rax
	movq	%rax, 40(%rsp)
	xorl	%eax, %eax
	movq	_ZTVN4asio6detail13epoll_reactorE@GOTPCREL(%rip), %rax
	addq	$16, %rax
	movq	%rax, (%rdi)
	movl	96(%rdi), %edi
	cmpl	$-1, %edi
	je	.L107
	call	close@PLT
.L107:
	movl	100(%rbx), %edi
	cmpl	$-1, %edi
	je	.L108
	call	close@PLT
.L108:
	movq	160(%rbx), %rbp
	leaq	16(%rsp), %r14
	testq	%rbp, %rbp
	je	.L119
	.p2align 4,,10
	.p2align 3
.L109:
	movq	%rbp, %r12
	movq	24(%rbp), %rbp
	leaq	80(%r12), %rax
	leaq	128(%r12), %r15
	movq	%rax, (%rsp)
.L114:
	movq	(%r15), %rsi
	testq	%rsi, %rsi
	je	.L116
	movq	%rsi, 8(%rsp)
	call	_ZNSt3_V215system_categoryEv@PLT
	movq	8(%rsp), %rsi
	movq	%rax, %r13
	jmp	.L118
	.p2align 4,,10
	.p2align 3
.L115:
	movq	$0, (%rsi)
	movq	8(%rsi), %rax
	xorl	%ecx, %ecx
	movq	%r14, %rdx
	movl	$0, 16(%rsp)
	xorl	%edi, %edi
	movq	%r13, 24(%rsp)
	call	*%rax
	movq	(%r15), %rsi
	testq	%rsi, %rsi
	je	.L116
.L118:
	movq	(%rsi), %rax
	movq	%rax, (%r15)
	testq	%rax, %rax
	jne	.L115
	movq	$0, 8(%r15)
	jmp	.L115
	.p2align 4,,10
	.p2align 3
.L116:
	subq	$16, %r15
	cmpq	(%rsp), %r15
	jne	.L114
	leaq	40(%r12), %rdi
	call	pthread_mutex_destroy@PLT
	movl	$152, %esi
	movq	%r12, %rdi
	call	_ZdlPvm@PLT
	testq	%rbp, %rbp
	jne	.L109
.L119:
	movq	168(%rbx), %rbp
	testq	%rbp, %rbp
	je	.L110
	leaq	16(%rsp), %r14
	.p2align 4,,10
	.p2align 3
.L111:
	movq	%rbp, %r12
	movq	24(%rbp), %rbp
	leaq	80(%r12), %rax
	leaq	128(%r12), %r15
	movq	%rax, (%rsp)
.L124:
	movq	(%r15), %rsi
	testq	%rsi, %rsi
	je	.L126
	movq	%rsi, 8(%rsp)
	call	_ZNSt3_V215system_categoryEv@PLT
	movq	8(%rsp), %rsi
	movq	%rax, %r13
	jmp	.L128
	.p2align 4,,10
	.p2align 3
.L125:
	movq	$0, (%rsi)
	movq	8(%rsi), %rax
	xorl	%ecx, %ecx
	movq	%r14, %rdx
	movl	$0, 16(%rsp)
	xorl	%edi, %edi
	movq	%r13, 24(%rsp)
	call	*%rax
	movq	(%r15), %rsi
	testq	%rsi, %rsi
	je	.L126
.L128:
	movq	(%rsi), %rax
	movq	%rax, (%r15)
	testq	%rax, %rax
	jne	.L125
	movq	$0, 8(%r15)
	jmp	.L125
	.p2align 4,,10
	.p2align 3
.L126:
	subq	$16, %r15
	cmpq	(%rsp), %r15
	jne	.L124
	leaq	40(%r12), %rdi
	call	pthread_mutex_destroy@PLT
	movl	$152, %esi
	movq	%r12, %rdi
	call	_ZdlPvm@PLT
	testq	%rbp, %rbp
	jne	.L111
.L110:
	leaq	120(%rbx), %rdi
	call	pthread_mutex_destroy@PLT
	movl	92(%rbx), %r8d
	cmpl	$-1, %r8d
	je	.L168
	movl	88(%rbx), %edi
	cmpl	%edi, %r8d
	jne	.L169
.L130:
	call	close@PLT
	jmp	.L131
	.p2align 4,,10
	.p2align 3
.L169:
	movl	%r8d, %edi
	call	close@PLT
.L168:
	movl	88(%rbx), %edi
	cmpl	$-1, %edi
	jne	.L130
.L131:
	leaq	48(%rbx), %rdi
	call	pthread_mutex_destroy@PLT
	movq	40(%rsp), %rax
	xorq	%fs:40, %rax
	jne	.L170
	addq	$56, %rsp
	.cfi_remember_state
	.cfi_def_cfa_offset 56
	popq	%rbx
	.cfi_def_cfa_offset 48
	popq	%rbp
	.cfi_def_cfa_offset 40
	popq	%r12
	.cfi_def_cfa_offset 32
	popq	%r13
	.cfi_def_cfa_offset 24
	popq	%r14
	.cfi_def_cfa_offset 16
	popq	%r15
	.cfi_def_cfa_offset 8
	ret
.L170:
	.cfi_restore_state
	call	__stack_chk_fail@PLT
	.cfi_endproc
.LFE3233:
	.globl	__gxx_personality_v0
	.section	.gcc_except_table._ZN4asio6detail13epoll_reactorD2Ev,"aG",@progbits,_ZN4asio6detail13epoll_reactorD5Ev,comdat
.LLSDA3233:
	.byte	0xff
	.byte	0xff
	.byte	0x1
	.uleb128 .LLSDACSE3233-.LLSDACSB3233
.LLSDACSB3233:
.LLSDACSE3233:
	.section	.text._ZN4asio6detail13epoll_reactorD2Ev,"axG",@progbits,_ZN4asio6detail13epoll_reactorD5Ev,comdat
	.size	_ZN4asio6detail13epoll_reactorD2Ev, .-_ZN4asio6detail13epoll_reactorD2Ev
	.weak	_ZN4asio6detail13epoll_reactorD1Ev
	.set	_ZN4asio6detail13epoll_reactorD1Ev,_ZN4asio6detail13epoll_reactorD2Ev
	.section	.text._ZN4asio2ip16resolver_serviceINS0_3tcpEED0Ev,"axG",@progbits,_ZN4asio2ip16resolver_serviceINS0_3tcpEED5Ev,comdat
	.align 2
	.p2align 4
	.weak	_ZN4asio2ip16resolver_serviceINS0_3tcpEED0Ev
	.type	_ZN4asio2ip16resolver_serviceINS0_3tcpEED0Ev, @function
_ZN4asio2ip16resolver_serviceINS0_3tcpEED0Ev:
.LFB9960:
	.cfi_startproc
	.cfi_personality 0x9b,DW.ref.__gxx_personality_v0
	.cfi_lsda 0x1b,.LLSDA9960
	endbr64
	pushq	%r13
	.cfi_def_cfa_offset 16
	.cfi_offset 13, -16
	pushq	%r12
	.cfi_def_cfa_offset 24
	.cfi_offset 12, -24
	pushq	%rbp
	.cfi_def_cfa_offset 32
	.cfi_offset 6, -32
	movq	%rdi, %rbp
	pushq	%rbx
	.cfi_def_cfa_offset 40
	.cfi_offset 3, -40
	subq	$40, %rsp
	.cfi_def_cfa_offset 80
	movq	104(%rdi), %r12
	movq	%fs:40, %rax
	movq	%rax, 24(%rsp)
	xorl	%eax, %eax
	movq	_ZTVN4asio2ip16resolver_serviceINS0_3tcpEEE@GOTPCREL(%rip), %rax
	addq	$16, %rax
	movq	%rax, (%rdi)
	testq	%r12, %r12
	je	.L172
	movq	(%r12), %rbx
	lock subq	$1, 184(%rbx)
	je	.L244
.L173:
	movl	$8, %esi
	movq	%r12, %rdi
	call	_ZdlPvm@PLT
.L172:
	movq	88(%rbp), %rax
	movq	$0, 104(%rbp)
	testq	%rax, %rax
	je	.L245
	movq	8(%rax), %rbx
	leaq	48(%rbx), %r12
	movq	%r12, %rdi
	call	pthread_mutex_lock@PLT
	movb	$1, 208(%rbx)
	leaq	88(%rbx), %rdi
	orq	$1, 136(%rbx)
	call	pthread_cond_broadcast@PLT
	cmpb	$0, 176(%rbx)
	jne	.L177
	movq	144(%rbx), %rax
	testq	%rax, %rax
	je	.L177
	movb	$1, 176(%rbx)
	leaq	88(%rax), %rdx
	leaq	12(%rsp), %rcx
	movl	$3, %esi
	movl	$-2147483639, 12(%rsp)
	movq	%rdx, 16(%rsp)
	movl	88(%rax), %edx
	movl	96(%rax), %edi
	call	epoll_ctl@PLT
.L177:
	movq	%r12, %rdi
	call	pthread_mutex_unlock@PLT
	movq	112(%rbp), %r12
	testq	%r12, %r12
	je	.L178
	cmpb	$0, 8(%r12)
	je	.L246
.L179:
	movl	$16, %esi
	movq	%r12, %rdi
	call	_ZdlPvm@PLT
.L180:
	movq	88(%rbp), %r13
	movq	$0, 112(%rbp)
	testq	%r13, %r13
	je	.L182
.L181:
	movq	0(%r13), %r12
	testq	%r12, %r12
	je	.L183
	movq	56(%r12), %rbx
	testq	%rbx, %rbx
	je	.L185
	.p2align 4,,10
	.p2align 3
.L184:
	movq	(%rbx), %rax
	movq	%rbx, %rdi
	call	*16(%rax)
	movq	32(%rbx), %rbx
	testq	%rbx, %rbx
	jne	.L184
	movq	56(%r12), %rbx
	testq	%rbx, %rbx
	je	.L185
	.p2align 4,,10
	.p2align 3
.L186:
	movq	%rbx, %rdi
	movq	32(%rbx), %rbx
	movq	(%rdi), %rax
	call	*8(%rax)
	movq	%rbx, 56(%r12)
	testq	%rbx, %rbx
	jne	.L186
.L185:
	leaq	8(%r12), %rdi
	call	pthread_mutex_destroy@PLT
	movl	$64, %esi
	movq	%r12, %rdi
	call	_ZdlPvm@PLT
.L183:
	movl	$16, %esi
	movq	%r13, %rdi
	call	_ZdlPvm@PLT
	movq	$0, 88(%rbp)
	movq	112(%rbp), %r12
.L176:
	testq	%r12, %r12
	je	.L182
	cmpb	$0, 8(%r12)
	je	.L247
.L188:
	movl	$16, %esi
	movq	%r12, %rdi
	call	_ZdlPvm@PLT
.L182:
	movq	104(%rbp), %r12
	testq	%r12, %r12
	je	.L189
	movq	(%r12), %rbx
	lock subq	$1, 184(%rbx)
	je	.L248
.L190:
	movl	$8, %esi
	movq	%r12, %rdi
	call	_ZdlPvm@PLT
.L189:
	movq	88(%rbp), %r13
	testq	%r13, %r13
	je	.L192
	movq	0(%r13), %r12
	testq	%r12, %r12
	je	.L193
	movq	56(%r12), %rbx
	testq	%rbx, %rbx
	je	.L195
	.p2align 4,,10
	.p2align 3
.L194:
	movq	(%rbx), %rax
	movq	%rbx, %rdi
	call	*16(%rax)
	movq	32(%rbx), %rbx
	testq	%rbx, %rbx
	jne	.L194
	movq	56(%r12), %rbx
	testq	%rbx, %rbx
	je	.L195
	.p2align 4,,10
	.p2align 3
.L196:
	movq	%rbx, %rdi
	movq	32(%rbx), %rbx
	movq	(%rdi), %rax
	call	*8(%rax)
	movq	%rbx, 56(%r12)
	testq	%rbx, %rbx
	jne	.L196
.L195:
	leaq	8(%r12), %rdi
	call	pthread_mutex_destroy@PLT
	movl	$64, %esi
	movq	%r12, %rdi
	call	_ZdlPvm@PLT
.L193:
	movl	$16, %esi
	movq	%r13, %rdi
	call	_ZdlPvm@PLT
.L192:
	leaq	48(%rbp), %rdi
	call	pthread_mutex_destroy@PLT
	movl	$120, %esi
	movq	%rbp, %rdi
	call	_ZdlPvm@PLT
	movq	24(%rsp), %rax
	xorq	%fs:40, %rax
	jne	.L249
	addq	$40, %rsp
	.cfi_remember_state
	.cfi_def_cfa_offset 40
	popq	%rbx
	.cfi_def_cfa_offset 32
	popq	%rbp
	.cfi_def_cfa_offset 24
	popq	%r12
	.cfi_def_cfa_offset 16
	popq	%r13
	.cfi_def_cfa_offset 8
	ret
	.p2align 4,,10
	.p2align 3
.L245:
	.cfi_restore_state
	movq	112(%rbp), %r12
	jmp	.L176
	.p2align 4,,10
	.p2align 3
.L247:
	movq	(%r12), %rdi
	call	pthread_detach@PLT
	jmp	.L188
	.p2align 4,,10
	.p2align 3
.L244:
	leaq	48(%rbx), %r13
	movq	%r13, %rdi
	call	pthread_mutex_lock@PLT
	movb	$1, 208(%rbx)
	leaq	88(%rbx), %rdi
	orq	$1, 136(%rbx)
	call	pthread_cond_broadcast@PLT
	cmpb	$0, 176(%rbx)
	jne	.L174
	movq	144(%rbx), %rax
	testq	%rax, %rax
	je	.L174
	movb	$1, 176(%rbx)
	leaq	88(%rax), %rdx
	leaq	12(%rsp), %rcx
	movl	$3, %esi
	movl	$-2147483639, 12(%rsp)
	movq	%rdx, 16(%rsp)
	movl	88(%rax), %edx
	movl	96(%rax), %edi
	call	epoll_ctl@PLT
.L174:
	movq	%r13, %rdi
	call	pthread_mutex_unlock@PLT
	jmp	.L173
	.p2align 4,,10
	.p2align 3
.L178:
	movq	88(%rbp), %r13
	testq	%r13, %r13
	jne	.L181
	jmp	.L182
	.p2align 4,,10
	.p2align 3
.L248:
	leaq	48(%rbx), %r13
	movq	%r13, %rdi
	call	pthread_mutex_lock@PLT
	movb	$1, 208(%rbx)
	leaq	88(%rbx), %rdi
	orq	$1, 136(%rbx)
	call	pthread_cond_broadcast@PLT
	cmpb	$0, 176(%rbx)
	jne	.L191
	movq	144(%rbx), %rax
	testq	%rax, %rax
	je	.L191
	movb	$1, 176(%rbx)
	leaq	88(%rax), %rdx
	leaq	12(%rsp), %rcx
	movl	$3, %esi
	movl	$-2147483639, 12(%rsp)
	movq	%rdx, 16(%rsp)
	movl	88(%rax), %edx
	movl	96(%rax), %edi
	call	epoll_ctl@PLT
.L191:
	movq	%r13, %rdi
	call	pthread_mutex_unlock@PLT
	jmp	.L190
	.p2align 4,,10
	.p2align 3
.L246:
	movq	(%r12), %rdi
	xorl	%esi, %esi
	call	pthread_join@PLT
	movb	$1, 8(%r12)
	movq	112(%rbp), %r12
	testq	%r12, %r12
	je	.L180
	cmpb	$0, 8(%r12)
	jne	.L179
	movq	(%r12), %rdi
	call	pthread_detach@PLT
	jmp	.L179
.L249:
	call	__stack_chk_fail@PLT
	.cfi_endproc
.LFE9960:
	.section	.gcc_except_table._ZN4asio2ip16resolver_serviceINS0_3tcpEED0Ev,"aG",@progbits,_ZN4asio2ip16resolver_serviceINS0_3tcpEED5Ev,comdat
.LLSDA9960:
	.byte	0xff
	.byte	0xff
	.byte	0x1
	.uleb128 .LLSDACSE9960-.LLSDACSB9960
.LLSDACSB9960:
.LLSDACSE9960:
	.section	.text._ZN4asio2ip16resolver_serviceINS0_3tcpEED0Ev,"axG",@progbits,_ZN4asio2ip16resolver_serviceINS0_3tcpEED5Ev,comdat
	.size	_ZN4asio2ip16resolver_serviceINS0_3tcpEED0Ev, .-_ZN4asio2ip16resolver_serviceINS0_3tcpEED0Ev
	.section	.text._ZN4asio6detail15task_io_serviceD0Ev,"axG",@progbits,_ZN4asio6detail15task_io_serviceD5Ev,comdat
	.align 2
	.p2align 4
	.weak	_ZN4asio6detail15task_io_serviceD0Ev
	.type	_ZN4asio6detail15task_io_serviceD0Ev, @function
_ZN4asio6detail15task_io_serviceD0Ev:
.LFB9988:
	.cfi_startproc
	.cfi_personality 0x9b,DW.ref.__gxx_personality_v0
	.cfi_lsda 0x1b,.LLSDA9988
	endbr64
	pushq	%r13
	.cfi_def_cfa_offset 16
	.cfi_offset 13, -16
	pushq	%r12
	.cfi_def_cfa_offset 24
	.cfi_offset 12, -24
	movq	%rdi, %r12
	pushq	%rbp
	.cfi_def_cfa_offset 32
	.cfi_offset 6, -32
	pushq	%rbx
	.cfi_def_cfa_offset 40
	.cfi_offset 3, -40
	subq	$40, %rsp
	.cfi_def_cfa_offset 80
	movq	192(%rdi), %rbp
	movq	%fs:40, %rax
	movq	%rax, 24(%rsp)
	xorl	%eax, %eax
	movq	_ZTVN4asio6detail15task_io_serviceE@GOTPCREL(%rip), %rax
	addq	$16, %rax
	movq	%rax, (%rdi)
	testq	%rbp, %rbp
	je	.L251
	call	_ZNSt3_V215system_categoryEv@PLT
	movq	%rsp, %rbx
	movq	%rax, %r13
	jmp	.L254
	.p2align 4,,10
	.p2align 3
.L252:
	movq	$0, 0(%rbp)
	movq	8(%rbp), %rax
	xorl	%ecx, %ecx
	xorl	%edi, %edi
	movq	%rbp, %rsi
	movl	$0, (%rsp)
	movq	%rbx, %rdx
	movq	%r13, 8(%rsp)
	call	*%rax
	movq	192(%r12), %rbp
	testq	%rbp, %rbp
	je	.L251
.L254:
	movq	0(%rbp), %rax
	movq	%rax, 192(%r12)
	testq	%rax, %rax
	jne	.L252
	movq	$0, 200(%r12)
	jmp	.L252
	.p2align 4,,10
	.p2align 3
.L251:
	leaq	88(%r12), %rdi
	call	pthread_cond_destroy@PLT
	leaq	48(%r12), %rdi
	call	pthread_mutex_destroy@PLT
	movl	$216, %esi
	movq	%r12, %rdi
	call	_ZdlPvm@PLT
	movq	24(%rsp), %rax
	xorq	%fs:40, %rax
	jne	.L267
	addq	$40, %rsp
	.cfi_remember_state
	.cfi_def_cfa_offset 40
	popq	%rbx
	.cfi_def_cfa_offset 32
	popq	%rbp
	.cfi_def_cfa_offset 24
	popq	%r12
	.cfi_def_cfa_offset 16
	popq	%r13
	.cfi_def_cfa_offset 8
	ret
.L267:
	.cfi_restore_state
	call	__stack_chk_fail@PLT
	.cfi_endproc
.LFE9988:
	.section	.gcc_except_table._ZN4asio6detail15task_io_serviceD0Ev,"aG",@progbits,_ZN4asio6detail15task_io_serviceD5Ev,comdat
.LLSDA9988:
	.byte	0xff
	.byte	0xff
	.byte	0x1
	.uleb128 .LLSDACSE9988-.LLSDACSB9988
.LLSDACSB9988:
.LLSDACSE9988:
	.section	.text._ZN4asio6detail15task_io_serviceD0Ev,"axG",@progbits,_ZN4asio6detail15task_io_serviceD5Ev,comdat
	.size	_ZN4asio6detail15task_io_serviceD0Ev, .-_ZN4asio6detail15task_io_serviceD0Ev
	.section	.text._ZN4asio6detail15task_io_serviceD2Ev,"axG",@progbits,_ZN4asio6detail15task_io_serviceD5Ev,comdat
	.align 2
	.p2align 4
	.weak	_ZN4asio6detail15task_io_serviceD2Ev
	.type	_ZN4asio6detail15task_io_serviceD2Ev, @function
_ZN4asio6detail15task_io_serviceD2Ev:
.LFB9986:
	.cfi_startproc
	.cfi_personality 0x9b,DW.ref.__gxx_personality_v0
	.cfi_lsda 0x1b,.LLSDA9986
	endbr64
	pushq	%r13
	.cfi_def_cfa_offset 16
	.cfi_offset 13, -16
	pushq	%r12
	.cfi_def_cfa_offset 24
	.cfi_offset 12, -24
	pushq	%rbp
	.cfi_def_cfa_offset 32
	.cfi_offset 6, -32
	pushq	%rbx
	.cfi_def_cfa_offset 40
	.cfi_offset 3, -40
	movq	%rdi, %rbx
	subq	$40, %rsp
	.cfi_def_cfa_offset 80
	movq	192(%rdi), %rbp
	movq	%fs:40, %rax
	movq	%rax, 24(%rsp)
	xorl	%eax, %eax
	movq	_ZTVN4asio6detail15task_io_serviceE@GOTPCREL(%rip), %rax
	addq	$16, %rax
	movq	%rax, (%rdi)
	testq	%rbp, %rbp
	je	.L269
	call	_ZNSt3_V215system_categoryEv@PLT
	movq	%rsp, %r12
	movq	%rax, %r13
	jmp	.L272
	.p2align 4,,10
	.p2align 3
.L270:
	movq	$0, 0(%rbp)
	movq	8(%rbp), %rax
	xorl	%ecx, %ecx
	xorl	%edi, %edi
	movq	%rbp, %rsi
	movl	$0, (%rsp)
	movq	%r12, %rdx
	movq	%r13, 8(%rsp)
	call	*%rax
	movq	192(%rbx), %rbp
	testq	%rbp, %rbp
	je	.L269
.L272:
	movq	0(%rbp), %rax
	movq	%rax, 192(%rbx)
	testq	%rax, %rax
	jne	.L270
	movq	$0, 200(%rbx)
	jmp	.L270
	.p2align 4,,10
	.p2align 3
.L269:
	leaq	88(%rbx), %rdi
	call	pthread_cond_destroy@PLT
	leaq	48(%rbx), %rdi
	call	pthread_mutex_destroy@PLT
	movq	24(%rsp), %rax
	xorq	%fs:40, %rax
	jne	.L285
	addq	$40, %rsp
	.cfi_remember_state
	.cfi_def_cfa_offset 40
	popq	%rbx
	.cfi_def_cfa_offset 32
	popq	%rbp
	.cfi_def_cfa_offset 24
	popq	%r12
	.cfi_def_cfa_offset 16
	popq	%r13
	.cfi_def_cfa_offset 8
	ret
.L285:
	.cfi_restore_state
	call	__stack_chk_fail@PLT
	.cfi_endproc
.LFE9986:
	.section	.gcc_except_table._ZN4asio6detail15task_io_serviceD2Ev,"aG",@progbits,_ZN4asio6detail15task_io_serviceD5Ev,comdat
.LLSDA9986:
	.byte	0xff
	.byte	0xff
	.byte	0x1
	.uleb128 .LLSDACSE9986-.LLSDACSB9986
.LLSDACSB9986:
.LLSDACSE9986:
	.section	.text._ZN4asio6detail15task_io_serviceD2Ev,"axG",@progbits,_ZN4asio6detail15task_io_serviceD5Ev,comdat
	.size	_ZN4asio6detail15task_io_serviceD2Ev, .-_ZN4asio6detail15task_io_serviceD2Ev
	.weak	_ZN4asio6detail15task_io_serviceD1Ev
	.set	_ZN4asio6detail15task_io_serviceD1Ev,_ZN4asio6detail15task_io_serviceD2Ev
	.section	.text._ZN4asio6detail13epoll_reactorD0Ev,"axG",@progbits,_ZN4asio6detail13epoll_reactorD5Ev,comdat
	.align 2
	.p2align 4
	.weak	_ZN4asio6detail13epoll_reactorD0Ev
	.type	_ZN4asio6detail13epoll_reactorD0Ev, @function
_ZN4asio6detail13epoll_reactorD0Ev:
.LFB3235:
	.cfi_startproc
	.cfi_personality 0x9b,DW.ref.__gxx_personality_v0
	.cfi_lsda 0x1b,.LLSDA3235
	endbr64
	pushq	%r15
	.cfi_def_cfa_offset 16
	.cfi_offset 15, -16
	pushq	%r14
	.cfi_def_cfa_offset 24
	.cfi_offset 14, -24
	pushq	%r13
	.cfi_def_cfa_offset 32
	.cfi_offset 13, -32
	pushq	%r12
	.cfi_def_cfa_offset 40
	.cfi_offset 12, -40
	pushq	%rbp
	.cfi_def_cfa_offset 48
	.cfi_offset 6, -48
	movq	%rdi, %rbp
	pushq	%rbx
	.cfi_def_cfa_offset 56
	.cfi_offset 3, -56
	subq	$56, %rsp
	.cfi_def_cfa_offset 112
	movq	%fs:40, %rax
	movq	%rax, 40(%rsp)
	xorl	%eax, %eax
	movq	_ZTVN4asio6detail13epoll_reactorE@GOTPCREL(%rip), %rax
	addq	$16, %rax
	movq	%rax, (%rdi)
	movl	96(%rdi), %edi
	cmpl	$-1, %edi
	je	.L287
	call	close@PLT
.L287:
	movl	100(%rbp), %edi
	cmpl	$-1, %edi
	je	.L288
	call	close@PLT
.L288:
	movq	160(%rbp), %rbx
	leaq	16(%rsp), %r14
	testq	%rbx, %rbx
	je	.L299
	.p2align 4,,10
	.p2align 3
.L289:
	movq	%rbx, %r12
	movq	24(%rbx), %rbx
	leaq	96(%r12), %rax
	leaq	144(%r12), %r15
	movq	%rax, (%rsp)
.L294:
	movq	-16(%r15), %rsi
	subq	$16, %r15
	testq	%rsi, %rsi
	je	.L296
	movq	%rsi, 8(%rsp)
	call	_ZNSt3_V215system_categoryEv@PLT
	movq	8(%rsp), %rsi
	movq	%rax, %r13
	jmp	.L298
	.p2align 4,,10
	.p2align 3
.L295:
	movq	$0, (%rsi)
	movq	8(%rsi), %rax
	xorl	%ecx, %ecx
	movq	%r14, %rdx
	movl	$0, 16(%rsp)
	xorl	%edi, %edi
	movq	%r13, 24(%rsp)
	call	*%rax
	movq	(%r15), %rsi
	testq	%rsi, %rsi
	je	.L296
.L298:
	movq	(%rsi), %rax
	movq	%rax, (%r15)
	testq	%rax, %rax
	jne	.L295
	movq	$0, 8(%r15)
	jmp	.L295
	.p2align 4,,10
	.p2align 3
.L296:
	cmpq	(%rsp), %r15
	jne	.L294
	leaq	40(%r12), %rdi
	call	pthread_mutex_destroy@PLT
	movl	$152, %esi
	movq	%r12, %rdi
	call	_ZdlPvm@PLT
	testq	%rbx, %rbx
	jne	.L289
.L299:
	movq	168(%rbp), %rbx
	testq	%rbx, %rbx
	je	.L290
	leaq	16(%rsp), %r14
	.p2align 4,,10
	.p2align 3
.L291:
	movq	%rbx, %r12
	movq	24(%rbx), %rbx
	leaq	80(%r12), %rax
	leaq	128(%r12), %r15
	movq	%rax, (%rsp)
.L304:
	movq	(%r15), %rsi
	testq	%rsi, %rsi
	je	.L306
	movq	%rsi, 8(%rsp)
	call	_ZNSt3_V215system_categoryEv@PLT
	movq	8(%rsp), %rsi
	movq	%rax, %r13
	jmp	.L308
	.p2align 4,,10
	.p2align 3
.L305:
	movq	$0, (%rsi)
	movq	8(%rsi), %rax
	xorl	%ecx, %ecx
	movq	%r14, %rdx
	movl	$0, 16(%rsp)
	xorl	%edi, %edi
	movq	%r13, 24(%rsp)
	call	*%rax
	movq	(%r15), %rsi
	testq	%rsi, %rsi
	je	.L306
.L308:
	movq	(%rsi), %rax
	movq	%rax, (%r15)
	testq	%rax, %rax
	jne	.L305
	movq	$0, 8(%r15)
	jmp	.L305
	.p2align 4,,10
	.p2align 3
.L306:
	subq	$16, %r15
	cmpq	(%rsp), %r15
	jne	.L304
	leaq	40(%r12), %rdi
	call	pthread_mutex_destroy@PLT
	movl	$152, %esi
	movq	%r12, %rdi
	call	_ZdlPvm@PLT
	testq	%rbx, %rbx
	jne	.L291
.L290:
	leaq	120(%rbp), %rdi
	call	pthread_mutex_destroy@PLT
	movl	92(%rbp), %r8d
	cmpl	$-1, %r8d
	je	.L348
	movl	88(%rbp), %edi
	cmpl	%edi, %r8d
	jne	.L349
.L310:
	call	close@PLT
	jmp	.L311
	.p2align 4,,10
	.p2align 3
.L349:
	movl	%r8d, %edi
	call	close@PLT
.L348:
	movl	88(%rbp), %edi
	cmpl	$-1, %edi
	jne	.L310
.L311:
	leaq	48(%rbp), %rdi
	call	pthread_mutex_destroy@PLT
	movl	$176, %esi
	movq	%rbp, %rdi
	call	_ZdlPvm@PLT
	movq	40(%rsp), %rax
	xorq	%fs:40, %rax
	jne	.L350
	addq	$56, %rsp
	.cfi_remember_state
	.cfi_def_cfa_offset 56
	popq	%rbx
	.cfi_def_cfa_offset 48
	popq	%rbp
	.cfi_def_cfa_offset 40
	popq	%r12
	.cfi_def_cfa_offset 32
	popq	%r13
	.cfi_def_cfa_offset 24
	popq	%r14
	.cfi_def_cfa_offset 16
	popq	%r15
	.cfi_def_cfa_offset 8
	ret
.L350:
	.cfi_restore_state
	call	__stack_chk_fail@PLT
	.cfi_endproc
.LFE3235:
	.section	.gcc_except_table._ZN4asio6detail13epoll_reactorD0Ev,"aG",@progbits,_ZN4asio6detail13epoll_reactorD5Ev,comdat
.LLSDA3235:
	.byte	0xff
	.byte	0xff
	.byte	0x1
	.uleb128 .LLSDACSE3235-.LLSDACSB3235
.LLSDACSB3235:
.LLSDACSE3235:
	.section	.text._ZN4asio6detail13epoll_reactorD0Ev,"axG",@progbits,_ZN4asio6detail13epoll_reactorD5Ev,comdat
	.size	_ZN4asio6detail13epoll_reactorD0Ev, .-_ZN4asio6detail13epoll_reactorD0Ev
	.section	.text._ZN4asio6detail13epoll_reactor16shutdown_serviceEv,"axG",@progbits,_ZN4asio6detail13epoll_reactor16shutdown_serviceEv,comdat
	.align 2
	.p2align 4
	.weak	_ZN4asio6detail13epoll_reactor16shutdown_serviceEv
	.type	_ZN4asio6detail13epoll_reactor16shutdown_serviceEv, @function
_ZN4asio6detail13epoll_reactor16shutdown_serviceEv:
.LFB3236:
	.cfi_startproc
	.cfi_personality 0x9b,DW.ref.__gxx_personality_v0
	.cfi_lsda 0x1b,.LLSDA3236
	endbr64
	pushq	%r13
	.cfi_def_cfa_offset 16
	.cfi_offset 13, -16
	pushq	%r12
	.cfi_def_cfa_offset 24
	.cfi_offset 12, -24
	pushq	%rbp
	.cfi_def_cfa_offset 32
	.cfi_offset 6, -32
	leaq	48(%rdi), %rbp
	pushq	%rbx
	.cfi_def_cfa_offset 40
	.cfi_offset 3, -40
	movq	%rdi, %rbx
	movq	%rbp, %rdi
	subq	$72, %rsp
	.cfi_def_cfa_offset 112
	movq	%fs:40, %rax
	movq	%rax, 56(%rsp)
	xorl	%eax, %eax
	call	pthread_mutex_lock@PLT
	movb	$1, 112(%rbx)
	movq	%rbp, %rdi
	call	pthread_mutex_unlock@PLT
	movq	160(%rbx), %rax
	pxor	%xmm0, %xmm0
	movaps	%xmm0, 16(%rsp)
	testq	%rax, %rax
	je	.L427
	xorl	%esi, %esi
	xorl	%edx, %edx
	xorl	%r9d, %r9d
	xorl	%r8d, %r8d
	pxor	%xmm0, %xmm0
	jmp	.L352
	.p2align 4,,10
	.p2align 3
.L356:
	movq	%rcx, (%rdx)
.L357:
	movq	104(%rax), %rdx
	movl	$1, %esi
	movups	%xmm0, 96(%rax)
.L355:
	movq	112(%rax), %rcx
	testq	%rcx, %rcx
	je	.L358
	testq	%rdx, %rdx
	je	.L428
	movq	%rcx, (%rdx)
.L360:
	movq	120(%rax), %rdx
	movl	$1, %esi
	movups	%xmm0, 112(%rax)
.L358:
	movq	128(%rax), %rcx
	testq	%rcx, %rcx
	je	.L361
	testq	%rdx, %rdx
	je	.L429
	movq	%rcx, (%rdx)
.L363:
	movq	136(%rax), %rdx
	movl	$1, %esi
	movups	%xmm0, 128(%rax)
.L361:
	movq	24(%rax), %rcx
	movb	$1, 144(%rax)
	movq	%rcx, 160(%rbx)
	movq	32(%rax), %rcx
	testq	%rcx, %rcx
	je	.L364
	movq	24(%rax), %rdi
	movq	%rdi, 24(%rcx)
.L364:
	movq	24(%rax), %rcx
	testq	%rcx, %rcx
	je	.L365
	movq	32(%rax), %rdi
	movq	%rdi, 32(%rcx)
.L365:
	movq	168(%rbx), %rcx
	movq	$0, 32(%rax)
	movq	%rcx, 24(%rax)
	movq	%rax, 168(%rbx)
	movq	160(%rbx), %rax
	testq	%rax, %rax
	je	.L430
.L352:
	movq	96(%rax), %rcx
	testq	%rcx, %rcx
	je	.L355
	testq	%rdx, %rdx
	jne	.L356
	movq	%rcx, %r8
	movl	$1, %r9d
	jmp	.L357
	.p2align 4,,10
	.p2align 3
.L429:
	movq	%rcx, %r8
	movl	$1, %r9d
	jmp	.L363
	.p2align 4,,10
	.p2align 3
.L428:
	movq	%rcx, %r8
	movl	$1, %r9d
	jmp	.L360
	.p2align 4,,10
	.p2align 3
.L430:
	xorl	%ebp, %ebp
	testb	%r9b, %r9b
	je	.L368
	movq	%r8, 16(%rsp)
	movq	%r8, %rbp
.L368:
	testb	%sil, %sil
	je	.L369
	movq	%rdx, 24(%rsp)
.L369:
	movq	104(%rbx), %rbx
	testq	%rbx, %rbx
	je	.L370
.L354:
	leaq	16(%rsp), %rbp
	.p2align 4,,10
	.p2align 3
.L371:
	movq	(%rbx), %rax
	movq	%rbp, %rsi
	movq	%rbx, %rdi
.LEHB0:
	call	*48(%rax)
.LEHE0:
	movq	8(%rbx), %rbx
	testq	%rbx, %rbx
	jne	.L371
	movq	16(%rsp), %rbp
.L370:
	testq	%rbp, %rbp
	je	.L351
	pxor	%xmm0, %xmm0
	leaq	32(%rsp), %rbx
	movaps	%xmm0, 16(%rsp)
	call	_ZNSt3_V215system_categoryEv@PLT
	movq	%rax, %r12
	.p2align 4,,10
	.p2align 3
.L372:
	movq	%rbp, %rsi
	movq	0(%rbp), %rbp
	xorl	%ecx, %ecx
	xorl	%edi, %edi
	movq	$0, (%rsi)
	movq	8(%rsi), %rax
	movq	%rbx, %rdx
	movl	$0, 32(%rsp)
	movq	%r12, 40(%rsp)
	call	*%rax
	testq	%rbp, %rbp
	jne	.L372
	movq	16(%rsp), %rsi
	testq	%rsi, %rsi
	movq	%rsi, 8(%rsp)
	je	.L351
	call	_ZNSt3_V215system_categoryEv@PLT
	movq	8(%rsp), %rsi
	movq	%rax, %rbp
	jmp	.L377
	.p2align 4,,10
	.p2align 3
.L374:
	movq	$0, (%rsi)
	movq	8(%rsi), %rax
	xorl	%ecx, %ecx
	movq	%rbx, %rdx
	movl	$0, 32(%rsp)
	xorl	%edi, %edi
	movq	%rbp, 40(%rsp)
	call	*%rax
	movq	16(%rsp), %rsi
	testq	%rsi, %rsi
	je	.L351
.L377:
	movq	(%rsi), %rax
	movq	%rax, 16(%rsp)
	testq	%rax, %rax
	jne	.L374
	movq	$0, 24(%rsp)
	jmp	.L374
.L427:
	movq	104(%rbx), %rbx
	testq	%rbx, %rbx
	jne	.L354
	.p2align 4,,10
	.p2align 3
.L351:
	movq	56(%rsp), %rax
	xorq	%fs:40, %rax
	jne	.L431
	addq	$72, %rsp
	.cfi_remember_state
	.cfi_def_cfa_offset 40
	popq	%rbx
	.cfi_def_cfa_offset 32
	popq	%rbp
	.cfi_def_cfa_offset 24
	popq	%r12
	.cfi_def_cfa_offset 16
	popq	%r13
	.cfi_def_cfa_offset 8
	ret
.L431:
	.cfi_restore_state
	call	__stack_chk_fail@PLT
.L384:
	endbr64
	movq	%rax, %r12
	leaq	32(%rsp), %rbx
.L378:
	movq	16(%rsp), %rbp
	testq	%rbp, %rbp
	jne	.L432
	movq	%r12, %rdi
.LEHB1:
	call	_Unwind_Resume@PLT
.LEHE1:
.L432:
	movq	0(%rbp), %rax
	movq	%rax, 16(%rsp)
	testq	%rax, %rax
	jne	.L380
	movq	$0, 24(%rsp)
.L380:
	movq	$0, 0(%rbp)
	movq	8(%rbp), %r13
	movl	$0, 32(%rsp)
	call	_ZNSt3_V215system_categoryEv@PLT
	xorl	%ecx, %ecx
	movq	%rbx, %rdx
	movq	%rbp, %rsi
	movq	%rax, 40(%rsp)
	xorl	%edi, %edi
	call	*%r13
	jmp	.L378
	.cfi_endproc
.LFE3236:
	.section	.gcc_except_table._ZN4asio6detail13epoll_reactor16shutdown_serviceEv,"aG",@progbits,_ZN4asio6detail13epoll_reactor16shutdown_serviceEv,comdat
.LLSDA3236:
	.byte	0xff
	.byte	0xff
	.byte	0x1
	.uleb128 .LLSDACSE3236-.LLSDACSB3236
.LLSDACSB3236:
	.uleb128 .LEHB0-.LFB3236
	.uleb128 .LEHE0-.LEHB0
	.uleb128 .L384-.LFB3236
	.uleb128 0
	.uleb128 .LEHB1-.LFB3236
	.uleb128 .LEHE1-.LEHB1
	.uleb128 0
	.uleb128 0
.LLSDACSE3236:
	.section	.text._ZN4asio6detail13epoll_reactor16shutdown_serviceEv,"axG",@progbits,_ZN4asio6detail13epoll_reactor16shutdown_serviceEv,comdat
	.size	_ZN4asio6detail13epoll_reactor16shutdown_serviceEv, .-_ZN4asio6detail13epoll_reactor16shutdown_serviceEv
	.section	.text._ZN4asio2ip16resolver_serviceINS0_3tcpEE16shutdown_serviceEv,"axG",@progbits,_ZN4asio2ip16resolver_serviceINS0_3tcpEE16shutdown_serviceEv,comdat
	.align 2
	.p2align 4
	.weak	_ZN4asio2ip16resolver_serviceINS0_3tcpEE16shutdown_serviceEv
	.type	_ZN4asio2ip16resolver_serviceINS0_3tcpEE16shutdown_serviceEv, @function
_ZN4asio2ip16resolver_serviceINS0_3tcpEE16shutdown_serviceEv:
.LFB10098:
	.cfi_startproc
	.cfi_personality 0x9b,DW.ref.__gxx_personality_v0
	.cfi_lsda 0x1b,.LLSDA10098
	endbr64
	pushq	%r13
	.cfi_def_cfa_offset 16
	.cfi_offset 13, -16
	pushq	%r12
	.cfi_def_cfa_offset 24
	.cfi_offset 12, -24
	pushq	%rbp
	.cfi_def_cfa_offset 32
	.cfi_offset 6, -32
	pushq	%rbx
	.cfi_def_cfa_offset 40
	.cfi_offset 3, -40
	movq	%rdi, %rbx
	subq	$40, %rsp
	.cfi_def_cfa_offset 80
	movq	104(%rdi), %r12
	movq	%fs:40, %rax
	movq	%rax, 24(%rsp)
	xorl	%eax, %eax
	testq	%r12, %r12
	je	.L434
	movq	(%r12), %rbp
	lock subq	$1, 184(%rbp)
	je	.L481
.L435:
	movl	$8, %esi
	movq	%r12, %rdi
	call	_ZdlPvm@PLT
.L434:
	movq	88(%rbx), %rax
	movq	$0, 104(%rbx)
	testq	%rax, %rax
	je	.L433
	movq	8(%rax), %rbp
	leaq	48(%rbp), %r12
	movq	%r12, %rdi
	call	pthread_mutex_lock@PLT
	movb	$1, 208(%rbp)
	leaq	88(%rbp), %rdi
	orq	$1, 136(%rbp)
	call	pthread_cond_broadcast@PLT
	cmpb	$0, 176(%rbp)
	jne	.L438
	movq	144(%rbp), %rax
	testq	%rax, %rax
	je	.L438
	movb	$1, 176(%rbp)
	leaq	88(%rax), %rdx
	leaq	12(%rsp), %rcx
	movl	$3, %esi
	movl	$-2147483639, 12(%rsp)
	movq	%rdx, 16(%rsp)
	movl	88(%rax), %edx
	movl	96(%rax), %edi
	call	epoll_ctl@PLT
.L438:
	movq	%r12, %rdi
	call	pthread_mutex_unlock@PLT
	movq	112(%rbx), %rbp
	testq	%rbp, %rbp
	je	.L439
	cmpb	$0, 8(%rbp)
	je	.L482
.L440:
	movl	$16, %esi
	movq	%rbp, %rdi
	call	_ZdlPvm@PLT
.L441:
	movq	$0, 112(%rbx)
.L439:
	movq	88(%rbx), %r13
	testq	%r13, %r13
	je	.L442
	movq	0(%r13), %r12
	testq	%r12, %r12
	je	.L443
	movq	56(%r12), %rbp
	testq	%rbp, %rbp
	je	.L445
	.p2align 4,,10
	.p2align 3
.L444:
	movq	0(%rbp), %rax
	movq	%rbp, %rdi
	call	*16(%rax)
	movq	32(%rbp), %rbp
	testq	%rbp, %rbp
	jne	.L444
	movq	56(%r12), %rbp
	testq	%rbp, %rbp
	je	.L445
	.p2align 4,,10
	.p2align 3
.L446:
	movq	%rbp, %rdi
	movq	32(%rbp), %rbp
	movq	(%rdi), %rax
	call	*8(%rax)
	movq	%rbp, 56(%r12)
	testq	%rbp, %rbp
	jne	.L446
.L445:
	leaq	8(%r12), %rdi
	call	pthread_mutex_destroy@PLT
	movl	$64, %esi
	movq	%r12, %rdi
	call	_ZdlPvm@PLT
.L443:
	movl	$16, %esi
	movq	%r13, %rdi
	call	_ZdlPvm@PLT
.L442:
	movq	$0, 88(%rbx)
.L433:
	movq	24(%rsp), %rax
	xorq	%fs:40, %rax
	jne	.L483
	addq	$40, %rsp
	.cfi_remember_state
	.cfi_def_cfa_offset 40
	popq	%rbx
	.cfi_def_cfa_offset 32
	popq	%rbp
	.cfi_def_cfa_offset 24
	popq	%r12
	.cfi_def_cfa_offset 16
	popq	%r13
	.cfi_def_cfa_offset 8
	ret
	.p2align 4,,10
	.p2align 3
.L481:
	.cfi_restore_state
	leaq	48(%rbp), %r13
	movq	%r13, %rdi
	call	pthread_mutex_lock@PLT
	movb	$1, 208(%rbp)
	leaq	88(%rbp), %rdi
	orq	$1, 136(%rbp)
	call	pthread_cond_broadcast@PLT
	cmpb	$0, 176(%rbp)
	jne	.L436
	movq	144(%rbp), %rax
	testq	%rax, %rax
	je	.L436
	movb	$1, 176(%rbp)
	leaq	88(%rax), %rdx
	leaq	12(%rsp), %rcx
	movl	$3, %esi
	movl	$-2147483639, 12(%rsp)
	movq	%rdx, 16(%rsp)
	movl	88(%rax), %edx
	movl	96(%rax), %edi
	call	epoll_ctl@PLT
.L436:
	movq	%r13, %rdi
	call	pthread_mutex_unlock@PLT
	jmp	.L435
	.p2align 4,,10
	.p2align 3
.L482:
	movq	0(%rbp), %rdi
	xorl	%esi, %esi
.LEHB2:
	call	pthread_join@PLT
.LEHE2:
	movb	$1, 8(%rbp)
	movq	112(%rbx), %rbp
	testq	%rbp, %rbp
	je	.L441
	cmpb	$0, 8(%rbp)
	jne	.L440
	movq	0(%rbp), %rdi
	call	pthread_detach@PLT
	jmp	.L440
.L483:
	call	__stack_chk_fail@PLT
	.cfi_endproc
.LFE10098:
	.section	.gcc_except_table._ZN4asio2ip16resolver_serviceINS0_3tcpEE16shutdown_serviceEv,"aG",@progbits,_ZN4asio2ip16resolver_serviceINS0_3tcpEE16shutdown_serviceEv,comdat
.LLSDA10098:
	.byte	0xff
	.byte	0xff
	.byte	0x1
	.uleb128 .LLSDACSE10098-.LLSDACSB10098
.LLSDACSB10098:
	.uleb128 .LEHB2-.LFB10098
	.uleb128 .LEHE2-.LEHB2
	.uleb128 0
	.uleb128 0
.LLSDACSE10098:
	.section	.text._ZN4asio2ip16resolver_serviceINS0_3tcpEE16shutdown_serviceEv,"axG",@progbits,_ZN4asio2ip16resolver_serviceINS0_3tcpEE16shutdown_serviceEv,comdat
	.size	_ZN4asio2ip16resolver_serviceINS0_3tcpEE16shutdown_serviceEv, .-_ZN4asio2ip16resolver_serviceINS0_3tcpEE16shutdown_serviceEv
	.section	.text._ZN4asio2ip16resolver_serviceINS0_3tcpEED2Ev,"axG",@progbits,_ZN4asio2ip16resolver_serviceINS0_3tcpEED5Ev,comdat
	.align 2
	.p2align 4
	.weak	_ZN4asio2ip16resolver_serviceINS0_3tcpEED2Ev
	.type	_ZN4asio2ip16resolver_serviceINS0_3tcpEED2Ev, @function
_ZN4asio2ip16resolver_serviceINS0_3tcpEED2Ev:
.LFB9958:
	.cfi_startproc
	.cfi_personality 0x9b,DW.ref.__gxx_personality_v0
	.cfi_lsda 0x1b,.LLSDA9958
	endbr64
	pushq	%r13
	.cfi_def_cfa_offset 16
	.cfi_offset 13, -16
	pushq	%r12
	.cfi_def_cfa_offset 24
	.cfi_offset 12, -24
	pushq	%rbp
	.cfi_def_cfa_offset 32
	.cfi_offset 6, -32
	pushq	%rbx
	.cfi_def_cfa_offset 40
	.cfi_offset 3, -40
	movq	%rdi, %rbx
	subq	$40, %rsp
	.cfi_def_cfa_offset 80
	movq	104(%rdi), %r12
	movq	%fs:40, %rax
	movq	%rax, 24(%rsp)
	xorl	%eax, %eax
	movq	_ZTVN4asio2ip16resolver_serviceINS0_3tcpEEE@GOTPCREL(%rip), %rax
	addq	$16, %rax
	movq	%rax, (%rdi)
	testq	%r12, %r12
	je	.L485
	movq	(%r12), %rbp
	lock subq	$1, 184(%rbp)
	je	.L557
.L486:
	movl	$8, %esi
	movq	%r12, %rdi
	call	_ZdlPvm@PLT
.L485:
	movq	88(%rbx), %rax
	movq	$0, 104(%rbx)
	testq	%rax, %rax
	je	.L558
	movq	8(%rax), %rbp
	leaq	48(%rbp), %r12
	movq	%r12, %rdi
	call	pthread_mutex_lock@PLT
	movb	$1, 208(%rbp)
	leaq	88(%rbp), %rdi
	orq	$1, 136(%rbp)
	call	pthread_cond_broadcast@PLT
	cmpb	$0, 176(%rbp)
	jne	.L490
	movq	144(%rbp), %rax
	testq	%rax, %rax
	je	.L490
	movb	$1, 176(%rbp)
	leaq	88(%rax), %rdx
	leaq	12(%rsp), %rcx
	movl	$3, %esi
	movl	$-2147483639, 12(%rsp)
	movq	%rdx, 16(%rsp)
	movl	88(%rax), %edx
	movl	96(%rax), %edi
	call	epoll_ctl@PLT
.L490:
	movq	%r12, %rdi
	call	pthread_mutex_unlock@PLT
	movq	112(%rbx), %rbp
	testq	%rbp, %rbp
	je	.L491
	cmpb	$0, 8(%rbp)
	je	.L559
.L492:
	movl	$16, %esi
	movq	%rbp, %rdi
	call	_ZdlPvm@PLT
.L493:
	movq	88(%rbx), %r13
	movq	$0, 112(%rbx)
	testq	%r13, %r13
	je	.L495
.L494:
	movq	0(%r13), %r12
	testq	%r12, %r12
	je	.L496
	movq	56(%r12), %rbp
	testq	%rbp, %rbp
	je	.L498
	.p2align 4,,10
	.p2align 3
.L497:
	movq	0(%rbp), %rax
	movq	%rbp, %rdi
	call	*16(%rax)
	movq	32(%rbp), %rbp
	testq	%rbp, %rbp
	jne	.L497
	movq	56(%r12), %rbp
	testq	%rbp, %rbp
	je	.L498
	.p2align 4,,10
	.p2align 3
.L499:
	movq	%rbp, %rdi
	movq	32(%rbp), %rbp
	movq	(%rdi), %rax
	call	*8(%rax)
	movq	%rbp, 56(%r12)
	testq	%rbp, %rbp
	jne	.L499
.L498:
	leaq	8(%r12), %rdi
	call	pthread_mutex_destroy@PLT
	movl	$64, %esi
	movq	%r12, %rdi
	call	_ZdlPvm@PLT
.L496:
	movl	$16, %esi
	movq	%r13, %rdi
	call	_ZdlPvm@PLT
	movq	$0, 88(%rbx)
	movq	112(%rbx), %rbp
.L489:
	testq	%rbp, %rbp
	je	.L495
	cmpb	$0, 8(%rbp)
	je	.L560
.L501:
	movl	$16, %esi
	movq	%rbp, %rdi
	call	_ZdlPvm@PLT
.L495:
	movq	104(%rbx), %r12
	testq	%r12, %r12
	je	.L502
	movq	(%r12), %rbp
	lock subq	$1, 184(%rbp)
	je	.L561
.L503:
	movl	$8, %esi
	movq	%r12, %rdi
	call	_ZdlPvm@PLT
.L502:
	movq	88(%rbx), %r13
	testq	%r13, %r13
	je	.L505
	movq	0(%r13), %r12
	testq	%r12, %r12
	je	.L506
	movq	56(%r12), %rbp
	testq	%rbp, %rbp
	je	.L508
	.p2align 4,,10
	.p2align 3
.L507:
	movq	0(%rbp), %rax
	movq	%rbp, %rdi
	call	*16(%rax)
	movq	32(%rbp), %rbp
	testq	%rbp, %rbp
	jne	.L507
	movq	56(%r12), %rbp
	testq	%rbp, %rbp
	je	.L508
	.p2align 4,,10
	.p2align 3
.L509:
	movq	%rbp, %rdi
	movq	32(%rbp), %rbp
	movq	(%rdi), %rax
	call	*8(%rax)
	movq	%rbp, 56(%r12)
	testq	%rbp, %rbp
	jne	.L509
.L508:
	leaq	8(%r12), %rdi
	call	pthread_mutex_destroy@PLT
	movl	$64, %esi
	movq	%r12, %rdi
	call	_ZdlPvm@PLT
.L506:
	movl	$16, %esi
	movq	%r13, %rdi
	call	_ZdlPvm@PLT
.L505:
	leaq	48(%rbx), %rdi
	call	pthread_mutex_destroy@PLT
	movq	24(%rsp), %rax
	xorq	%fs:40, %rax
	jne	.L562
	addq	$40, %rsp
	.cfi_remember_state
	.cfi_def_cfa_offset 40
	popq	%rbx
	.cfi_def_cfa_offset 32
	popq	%rbp
	.cfi_def_cfa_offset 24
	popq	%r12
	.cfi_def_cfa_offset 16
	popq	%r13
	.cfi_def_cfa_offset 8
	ret
	.p2align 4,,10
	.p2align 3
.L558:
	.cfi_restore_state
	movq	112(%rbx), %rbp
	jmp	.L489
	.p2align 4,,10
	.p2align 3
.L560:
	movq	0(%rbp), %rdi
	call	pthread_detach@PLT
	jmp	.L501
	.p2align 4,,10
	.p2align 3
.L557:
	leaq	48(%rbp), %r13
	movq	%r13, %rdi
	call	pthread_mutex_lock@PLT
	movb	$1, 208(%rbp)
	leaq	88(%rbp), %rdi
	orq	$1, 136(%rbp)
	call	pthread_cond_broadcast@PLT
	cmpb	$0, 176(%rbp)
	jne	.L487
	movq	144(%rbp), %rax
	testq	%rax, %rax
	je	.L487
	movb	$1, 176(%rbp)
	leaq	88(%rax), %rdx
	leaq	12(%rsp), %rcx
	movl	$3, %esi
	movl	$-2147483639, 12(%rsp)
	movq	%rdx, 16(%rsp)
	movl	88(%rax), %edx
	movl	96(%rax), %edi
	call	epoll_ctl@PLT
.L487:
	movq	%r13, %rdi
	call	pthread_mutex_unlock@PLT
	jmp	.L486
	.p2align 4,,10
	.p2align 3
.L491:
	movq	88(%rbx), %r13
	testq	%r13, %r13
	jne	.L494
	jmp	.L495
	.p2align 4,,10
	.p2align 3
.L561:
	leaq	48(%rbp), %r13
	movq	%r13, %rdi
	call	pthread_mutex_lock@PLT
	movb	$1, 208(%rbp)
	leaq	88(%rbp), %rdi
	orq	$1, 136(%rbp)
	call	pthread_cond_broadcast@PLT
	cmpb	$0, 176(%rbp)
	jne	.L504
	movq	144(%rbp), %rax
	testq	%rax, %rax
	je	.L504
	movb	$1, 176(%rbp)
	leaq	88(%rax), %rdx
	leaq	12(%rsp), %rcx
	movl	$3, %esi
	movl	$-2147483639, 12(%rsp)
	movq	%rdx, 16(%rsp)
	movl	88(%rax), %edx
	movl	96(%rax), %edi
	call	epoll_ctl@PLT
.L504:
	movq	%r13, %rdi
	call	pthread_mutex_unlock@PLT
	jmp	.L503
	.p2align 4,,10
	.p2align 3
.L559:
	movq	0(%rbp), %rdi
	xorl	%esi, %esi
	call	pthread_join@PLT
	movb	$1, 8(%rbp)
	movq	112(%rbx), %rbp
	testq	%rbp, %rbp
	je	.L493
	cmpb	$0, 8(%rbp)
	jne	.L492
	movq	0(%rbp), %rdi
	call	pthread_detach@PLT
	jmp	.L492
.L562:
	call	__stack_chk_fail@PLT
	.cfi_endproc
.LFE9958:
	.section	.gcc_except_table._ZN4asio2ip16resolver_serviceINS0_3tcpEED2Ev,"aG",@progbits,_ZN4asio2ip16resolver_serviceINS0_3tcpEED5Ev,comdat
.LLSDA9958:
	.byte	0xff
	.byte	0xff
	.byte	0x1
	.uleb128 .LLSDACSE9958-.LLSDACSB9958
.LLSDACSB9958:
.LLSDACSE9958:
	.section	.text._ZN4asio2ip16resolver_serviceINS0_3tcpEED2Ev,"axG",@progbits,_ZN4asio2ip16resolver_serviceINS0_3tcpEED5Ev,comdat
	.size	_ZN4asio2ip16resolver_serviceINS0_3tcpEED2Ev, .-_ZN4asio2ip16resolver_serviceINS0_3tcpEED2Ev
	.weak	_ZN4asio2ip16resolver_serviceINS0_3tcpEED1Ev
	.set	_ZN4asio2ip16resolver_serviceINS0_3tcpEED1Ev,_ZN4asio2ip16resolver_serviceINS0_3tcpEED2Ev
	.section	.text.unlikely
	.align 2
	.type	_ZN4asio6detail7binder2IZN7asiopal9TCPClient19HandleResolveResultERKSt8functionIFvRKSt10shared_ptrINS2_8ExecutorEENS_19basic_stream_socketINS_2ip3tcpENS_21stream_socket_serviceISC_EEEERKSt10error_codeEERKNSB_23basic_resolver_iteratorISC_EESI_EUlSI_SO_E_SG_SO_ED2Ev, @function
_ZN4asio6detail7binder2IZN7asiopal9TCPClient19HandleResolveResultERKSt8functionIFvRKSt10shared_ptrINS2_8ExecutorEENS_19basic_stream_socketINS_2ip3tcpENS_21stream_socket_serviceISC_EEEERKSt10error_codeEERKNSB_23basic_resolver_iteratorISC_EESI_EUlSI_SO_E_SG_SO_ED2Ev:
.LFB8677:
	.cfi_startproc
	.cfi_personality 0x9b,DW.ref.__gxx_personality_v0
	.cfi_lsda 0x1b,.LLSDA8677
	pushq	%r12
	.cfi_def_cfa_offset 16
	.cfi_offset 12, -16
	pushq	%rbp
	.cfi_def_cfa_offset 24
	.cfi_offset 6, -24
	pushq	%rbx
	.cfi_def_cfa_offset 32
	.cfi_offset 3, -32
	movq	72(%rdi), %rbp
	movq	%rdi, %rbx
	testq	%rbp, %rbp
	je	.L565
	movq	_ZL28__gthrw___pthread_key_createPjPFvPvE@GOTPCREL(%rip), %r12
	testq	%r12, %r12
	je	.L566
	orl	$-1, %eax
	lock xaddl	%eax, 8(%rbp)
	jmp	.L567
.L566:
	movl	8(%rbp), %eax
	leal	-1(%rax), %edx
	movl	%edx, 8(%rbp)
.L567:
	decl	%eax
	jne	.L565
	movq	0(%rbp), %rax
	movq	%rbp, %rdi
	call	*16(%rax)
	testq	%r12, %r12
	je	.L569
	orl	$-1, %eax
	lock xaddl	%eax, 12(%rbp)
	jmp	.L570
.L569:
	movl	12(%rbp), %eax
	leal	-1(%rax), %edx
	movl	%edx, 12(%rbp)
.L570:
	decl	%eax
	jne	.L565
	movq	0(%rbp), %rax
	movq	%rbp, %rdi
	call	*24(%rax)
.L565:
	movq	32(%rbx), %rax
	testq	%rax, %rax
	je	.L571
	leaq	16(%rbx), %rdi
	movl	$3, %edx
	movq	%rdi, %rsi
	call	*%rax
.L571:
	movq	8(%rbx), %rbp
	testq	%rbp, %rbp
	je	.L563
	movq	_ZL28__gthrw___pthread_key_createPjPFvPvE@GOTPCREL(%rip), %rbx
	testq	%rbx, %rbx
	je	.L574
	orl	$-1, %eax
	lock xaddl	%eax, 8(%rbp)
	jmp	.L575
.L574:
	movl	8(%rbp), %eax
	leal	-1(%rax), %edx
	movl	%edx, 8(%rbp)
.L575:
	decl	%eax
	jne	.L563
	movq	0(%rbp), %rax
	movq	%rbp, %rdi
	call	*16(%rax)
	testq	%rbx, %rbx
	je	.L577
	orl	$-1, %eax
	lock xaddl	%eax, 12(%rbp)
	jmp	.L578
.L577:
	movl	12(%rbp), %eax
	leal	-1(%rax), %edx
	movl	%edx, 12(%rbp)
.L578:
	decl	%eax
	jne	.L563
	movq	0(%rbp), %rax
	popq	%rbx
	.cfi_remember_state
	.cfi_def_cfa_offset 24
	movq	%rbp, %rdi
	popq	%rbp
	.cfi_def_cfa_offset 16
	popq	%r12
	.cfi_def_cfa_offset 8
	movq	24(%rax), %rax
	jmp	*%rax
.L563:
	.cfi_restore_state
	popq	%rbx
	.cfi_def_cfa_offset 24
	popq	%rbp
	.cfi_def_cfa_offset 16
	popq	%r12
	.cfi_def_cfa_offset 8
	ret
	.cfi_endproc
.LFE8677:
	.section	.gcc_except_table,"a",@progbits
.LLSDA8677:
	.byte	0xff
	.byte	0xff
	.byte	0x1
	.uleb128 .LLSDACSE8677-.LLSDACSB8677
.LLSDACSB8677:
.LLSDACSE8677:
	.section	.text.unlikely
	.size	_ZN4asio6detail7binder2IZN7asiopal9TCPClient19HandleResolveResultERKSt8functionIFvRKSt10shared_ptrINS2_8ExecutorEENS_19basic_stream_socketINS_2ip3tcpENS_21stream_socket_serviceISC_EEEERKSt10error_codeEERKNSB_23basic_resolver_iteratorISC_EESI_EUlSI_SO_E_SG_SO_ED2Ev, .-_ZN4asio6detail7binder2IZN7asiopal9TCPClient19HandleResolveResultERKSt8functionIFvRKSt10shared_ptrINS2_8ExecutorEENS_19basic_stream_socketINS_2ip3tcpENS_21stream_socket_serviceISC_EEEERKSt10error_codeEERKNSB_23basic_resolver_iteratorISC_EESI_EUlSI_SO_E_SG_SO_ED2Ev
	.set	_ZN4asio6detail7binder2IZN7asiopal9TCPClient19HandleResolveResultERKSt8functionIFvRKSt10shared_ptrINS2_8ExecutorEENS_19basic_stream_socketINS_2ip3tcpENS_21stream_socket_serviceISC_EEEERKSt10error_codeEERKNSB_23basic_resolver_iteratorISC_EESI_EUlSI_SO_E_SG_SO_ED1Ev,_ZN4asio6detail7binder2IZN7asiopal9TCPClient19HandleResolveResultERKSt8functionIFvRKSt10shared_ptrINS2_8ExecutorEENS_19basic_stream_socketINS_2ip3tcpENS_21stream_socket_serviceISC_EEEERKSt10error_codeEERKNSB_23basic_resolver_iteratorISC_EESI_EUlSI_SO_E_SG_SO_ED2Ev
	.align 2
	.type	_ZN4asio6detail7binder2IZN7asiopal9TCPClient12BeginConnectERKSt8functionIFvRKSt10shared_ptrINS2_8ExecutorEENS_19basic_stream_socketINS_2ip3tcpENS_21stream_socket_serviceISC_EEEERKSt10error_codeEEEUlSI_NSB_23basic_resolver_iteratorISC_EEE_SG_SO_ED2Ev, @function
_ZN4asio6detail7binder2IZN7asiopal9TCPClient12BeginConnectERKSt8functionIFvRKSt10shared_ptrINS2_8ExecutorEENS_19basic_stream_socketINS_2ip3tcpENS_21stream_socket_serviceISC_EEEERKSt10error_codeEEEUlSI_NSB_23basic_resolver_iteratorISC_EEE_SG_SO_ED2Ev:
.LFB9843:
	.cfi_startproc
	.cfi_personality 0x9b,DW.ref.__gxx_personality_v0
	.cfi_lsda 0x1b,.LLSDA9843
	pushq	%r12
	.cfi_def_cfa_offset 16
	.cfi_offset 12, -16
	pushq	%rbp
	.cfi_def_cfa_offset 24
	.cfi_offset 6, -24
	pushq	%rbx
	.cfi_def_cfa_offset 32
	.cfi_offset 3, -32
	movq	72(%rdi), %rbp
	movq	%rdi, %rbx
	testq	%rbp, %rbp
	je	.L585
	movq	_ZL28__gthrw___pthread_key_createPjPFvPvE@GOTPCREL(%rip), %r12
	testq	%r12, %r12
	je	.L586
	orl	$-1, %eax
	lock xaddl	%eax, 8(%rbp)
	jmp	.L587
.L586:
	movl	8(%rbp), %eax
	leal	-1(%rax), %edx
	movl	%edx, 8(%rbp)
.L587:
	decl	%eax
	jne	.L585
	movq	0(%rbp), %rax
	movq	%rbp, %rdi
	call	*16(%rax)
	testq	%r12, %r12
	je	.L589
	orl	$-1, %eax
	lock xaddl	%eax, 12(%rbp)
	jmp	.L590
.L589:
	movl	12(%rbp), %eax
	leal	-1(%rax), %edx
	movl	%edx, 12(%rbp)
.L590:
	decl	%eax
	jne	.L585
	movq	0(%rbp), %rax
	movq	%rbp, %rdi
	call	*24(%rax)
.L585:
	movq	32(%rbx), %rax
	testq	%rax, %rax
	je	.L591
	leaq	16(%rbx), %rdi
	movl	$3, %edx
	movq	%rdi, %rsi
	call	*%rax
.L591:
	movq	8(%rbx), %rbp
	testq	%rbp, %rbp
	je	.L583
	movq	_ZL28__gthrw___pthread_key_createPjPFvPvE@GOTPCREL(%rip), %rbx
	testq	%rbx, %rbx
	je	.L594
	orl	$-1, %eax
	lock xaddl	%eax, 8(%rbp)
	jmp	.L595
.L594:
	movl	8(%rbp), %eax
	leal	-1(%rax), %edx
	movl	%edx, 8(%rbp)
.L595:
	decl	%eax
	jne	.L583
	movq	0(%rbp), %rax
	movq	%rbp, %rdi
	call	*16(%rax)
	testq	%rbx, %rbx
	je	.L597
	orl	$-1, %eax
	lock xaddl	%eax, 12(%rbp)
	jmp	.L598
.L597:
	movl	12(%rbp), %eax
	leal	-1(%rax), %edx
	movl	%edx, 12(%rbp)
.L598:
	decl	%eax
	jne	.L583
	movq	0(%rbp), %rax
	popq	%rbx
	.cfi_remember_state
	.cfi_def_cfa_offset 24
	movq	%rbp, %rdi
	popq	%rbp
	.cfi_def_cfa_offset 16
	popq	%r12
	.cfi_def_cfa_offset 8
	movq	24(%rax), %rax
	jmp	*%rax
.L583:
	.cfi_restore_state
	popq	%rbx
	.cfi_def_cfa_offset 24
	popq	%rbp
	.cfi_def_cfa_offset 16
	popq	%r12
	.cfi_def_cfa_offset 8
	ret
	.cfi_endproc
.LFE9843:
	.section	.gcc_except_table
.LLSDA9843:
	.byte	0xff
	.byte	0xff
	.byte	0x1
	.uleb128 .LLSDACSE9843-.LLSDACSB9843
.LLSDACSB9843:
.LLSDACSE9843:
	.section	.text.unlikely
	.size	_ZN4asio6detail7binder2IZN7asiopal9TCPClient12BeginConnectERKSt8functionIFvRKSt10shared_ptrINS2_8ExecutorEENS_19basic_stream_socketINS_2ip3tcpENS_21stream_socket_serviceISC_EEEERKSt10error_codeEEEUlSI_NSB_23basic_resolver_iteratorISC_EEE_SG_SO_ED2Ev, .-_ZN4asio6detail7binder2IZN7asiopal9TCPClient12BeginConnectERKSt8functionIFvRKSt10shared_ptrINS2_8ExecutorEENS_19basic_stream_socketINS_2ip3tcpENS_21stream_socket_serviceISC_EEEERKSt10error_codeEEEUlSI_NSB_23basic_resolver_iteratorISC_EEE_SG_SO_ED2Ev
	.set	_ZN4asio6detail7binder2IZN7asiopal9TCPClient12BeginConnectERKSt8functionIFvRKSt10shared_ptrINS2_8ExecutorEENS_19basic_stream_socketINS_2ip3tcpENS_21stream_socket_serviceISC_EEEERKSt10error_codeEEEUlSI_NSB_23basic_resolver_iteratorISC_EEE_SG_SO_ED1Ev,_ZN4asio6detail7binder2IZN7asiopal9TCPClient12BeginConnectERKSt8functionIFvRKSt10shared_ptrINS2_8ExecutorEENS_19basic_stream_socketINS_2ip3tcpENS_21stream_socket_serviceISC_EEEERKSt10error_codeEEEUlSI_NSB_23basic_resolver_iteratorISC_EEE_SG_SO_ED2Ev
	.align 2
	.type	_ZN4asio6detail7binder2INS0_15wrapped_handlerINS_10io_service6strandEZN7asiopal9TCPClient12BeginConnectERKSt8functionIFvRKSt10shared_ptrINS5_8ExecutorEENS_19basic_stream_socketINS_2ip3tcpENS_21stream_socket_serviceISF_EEEERKSt10error_codeEEEUlSL_NSE_23basic_resolver_iteratorISF_EEE_NS0_26is_continuation_if_runningEEESJ_SR_ED2Ev, @function
_ZN4asio6detail7binder2INS0_15wrapped_handlerINS_10io_service6strandEZN7asiopal9TCPClient12BeginConnectERKSt8functionIFvRKSt10shared_ptrINS5_8ExecutorEENS_19basic_stream_socketINS_2ip3tcpENS_21stream_socket_serviceISF_EEEERKSt10error_codeEEEUlSL_NSE_23basic_resolver_iteratorISF_EEE_NS0_26is_continuation_if_runningEEESJ_SR_ED2Ev:
.LFB9033:
	.cfi_startproc
	.cfi_personality 0x9b,DW.ref.__gxx_personality_v0
	.cfi_lsda 0x1b,.LLSDA9033
	pushq	%r12
	.cfi_def_cfa_offset 16
	.cfi_offset 12, -16
	pushq	%rbp
	.cfi_def_cfa_offset 24
	.cfi_offset 6, -24
	pushq	%rbx
	.cfi_def_cfa_offset 32
	.cfi_offset 3, -32
	movq	88(%rdi), %rbp
	movq	%rdi, %rbx
	testq	%rbp, %rbp
	je	.L605
	movq	_ZL28__gthrw___pthread_key_createPjPFvPvE@GOTPCREL(%rip), %r12
	testq	%r12, %r12
	je	.L606
	orl	$-1, %eax
	lock xaddl	%eax, 8(%rbp)
	jmp	.L607
.L606:
	movl	8(%rbp), %eax
	leal	-1(%rax), %edx
	movl	%edx, 8(%rbp)
.L607:
	decl	%eax
	jne	.L605
	movq	0(%rbp), %rax
	movq	%rbp, %rdi
	call	*16(%rax)
	testq	%r12, %r12
	je	.L609
	orl	$-1, %eax
	lock xaddl	%eax, 12(%rbp)
	jmp	.L610
.L609:
	movl	12(%rbp), %eax
	leal	-1(%rax), %edx
	movl	%edx, 12(%rbp)
.L610:
	decl	%eax
	jne	.L605
	movq	0(%rbp), %rax
	movq	%rbp, %rdi
	call	*24(%rax)
.L605:
	movq	48(%rbx), %rax
	testq	%rax, %rax
	je	.L611
	leaq	32(%rbx), %rdi
	movl	$3, %edx
	movq	%rdi, %rsi
	call	*%rax
.L611:
	movq	24(%rbx), %rbp
	testq	%rbp, %rbp
	je	.L603
	movq	_ZL28__gthrw___pthread_key_createPjPFvPvE@GOTPCREL(%rip), %rbx
	testq	%rbx, %rbx
	je	.L614
	orl	$-1, %eax
	lock xaddl	%eax, 8(%rbp)
	jmp	.L615
.L614:
	movl	8(%rbp), %eax
	leal	-1(%rax), %edx
	movl	%edx, 8(%rbp)
.L615:
	decl	%eax
	jne	.L603
	movq	0(%rbp), %rax
	movq	%rbp, %rdi
	call	*16(%rax)
	testq	%rbx, %rbx
	je	.L617
	orl	$-1, %eax
	lock xaddl	%eax, 12(%rbp)
	jmp	.L618
.L617:
	movl	12(%rbp), %eax
	leal	-1(%rax), %edx
	movl	%edx, 12(%rbp)
.L618:
	decl	%eax
	jne	.L603
	movq	0(%rbp), %rax
	popq	%rbx
	.cfi_remember_state
	.cfi_def_cfa_offset 24
	movq	%rbp, %rdi
	popq	%rbp
	.cfi_def_cfa_offset 16
	popq	%r12
	.cfi_def_cfa_offset 8
	movq	24(%rax), %rax
	jmp	*%rax
.L603:
	.cfi_restore_state
	popq	%rbx
	.cfi_def_cfa_offset 24
	popq	%rbp
	.cfi_def_cfa_offset 16
	popq	%r12
	.cfi_def_cfa_offset 8
	ret
	.cfi_endproc
.LFE9033:
	.section	.gcc_except_table
.LLSDA9033:
	.byte	0xff
	.byte	0xff
	.byte	0x1
	.uleb128 .LLSDACSE9033-.LLSDACSB9033
.LLSDACSB9033:
.LLSDACSE9033:
	.section	.text.unlikely
	.size	_ZN4asio6detail7binder2INS0_15wrapped_handlerINS_10io_service6strandEZN7asiopal9TCPClient12BeginConnectERKSt8functionIFvRKSt10shared_ptrINS5_8ExecutorEENS_19basic_stream_socketINS_2ip3tcpENS_21stream_socket_serviceISF_EEEERKSt10error_codeEEEUlSL_NSE_23basic_resolver_iteratorISF_EEE_NS0_26is_continuation_if_runningEEESJ_SR_ED2Ev, .-_ZN4asio6detail7binder2INS0_15wrapped_handlerINS_10io_service6strandEZN7asiopal9TCPClient12BeginConnectERKSt8functionIFvRKSt10shared_ptrINS5_8ExecutorEENS_19basic_stream_socketINS_2ip3tcpENS_21stream_socket_serviceISF_EEEERKSt10error_codeEEEUlSL_NSE_23basic_resolver_iteratorISF_EEE_NS0_26is_continuation_if_runningEEESJ_SR_ED2Ev
	.set	_ZN4asio6detail7binder2INS0_15wrapped_handlerINS_10io_service6strandEZN7asiopal9TCPClient12BeginConnectERKSt8functionIFvRKSt10shared_ptrINS5_8ExecutorEENS_19basic_stream_socketINS_2ip3tcpENS_21stream_socket_serviceISF_EEEERKSt10error_codeEEEUlSL_NSE_23basic_resolver_iteratorISF_EEE_NS0_26is_continuation_if_runningEEESJ_SR_ED1Ev,_ZN4asio6detail7binder2INS0_15wrapped_handlerINS_10io_service6strandEZN7asiopal9TCPClient12BeginConnectERKSt8functionIFvRKSt10shared_ptrINS5_8ExecutorEENS_19basic_stream_socketINS_2ip3tcpENS_21stream_socket_serviceISF_EEEERKSt10error_codeEEEUlSL_NSE_23basic_resolver_iteratorISF_EEE_NS0_26is_continuation_if_runningEEESJ_SR_ED2Ev
	.section	.text._ZNK4asio6detail15system_category7messageB5cxx11Ei,"axG",@progbits,_ZNK4asio6detail15system_category7messageB5cxx11Ei,comdat
	.align 2
	.p2align 4
	.weak	_ZNK4asio6detail15system_category7messageB5cxx11Ei
	.type	_ZNK4asio6detail15system_category7messageB5cxx11Ei, @function
_ZNK4asio6detail15system_category7messageB5cxx11Ei:
.LFB2344:
	.cfi_startproc
	endbr64
	pushq	%r14
	.cfi_def_cfa_offset 16
	.cfi_offset 14, -16
	pushq	%r13
	.cfi_def_cfa_offset 24
	.cfi_offset 13, -24
	pushq	%r12
	.cfi_def_cfa_offset 32
	.cfi_offset 12, -32
	movq	%rdi, %r12
	pushq	%rbp
	.cfi_def_cfa_offset 40
	.cfi_offset 6, -40
	leaq	16(%rdi), %rbp
	subq	$296, %rsp
	.cfi_def_cfa_offset 336
	movq	%fs:40, %rax
	movq	%rax, 280(%rsp)
	xorl	%eax, %eax
	cmpl	$125, %edx
	je	.L636
	pxor	%xmm0, %xmm0
	movl	%edx, %edi
	leaq	16(%rsp), %rsi
	movl	$256, %edx
	movaps	%xmm0, 16(%rsp)
	movaps	%xmm0, 32(%rsp)
	movaps	%xmm0, 48(%rsp)
	movaps	%xmm0, 64(%rsp)
	movaps	%xmm0, 80(%rsp)
	movaps	%xmm0, 96(%rsp)
	movaps	%xmm0, 112(%rsp)
	movaps	%xmm0, 128(%rsp)
	movaps	%xmm0, 144(%rsp)
	movaps	%xmm0, 160(%rsp)
	movaps	%xmm0, 176(%rsp)
	movaps	%xmm0, 192(%rsp)
	movaps	%xmm0, 208(%rsp)
	movaps	%xmm0, 224(%rsp)
	movaps	%xmm0, 240(%rsp)
	movaps	%xmm0, 256(%rsp)
	call	strerror_r@PLT
	movq	%rbp, (%r12)
	movq	%rax, %r14
	testq	%rax, %rax
	je	.L637
	movq	%rax, %rdi
	call	strlen@PLT
	movq	%rax, 8(%rsp)
	movq	%rax, %r13
	cmpq	$15, %rax
	ja	.L638
	cmpq	$1, %rax
	jne	.L629
	movzbl	(%r14), %edx
	movb	%dl, 16(%r12)
.L630:
	movq	%rax, 8(%r12)
	movb	$0, 0(%rbp,%rax)
.L623:
	movq	280(%rsp), %rax
	xorq	%fs:40, %rax
	jne	.L639
	addq	$296, %rsp
	.cfi_remember_state
	.cfi_def_cfa_offset 40
	movq	%r12, %rax
	popq	%rbp
	.cfi_def_cfa_offset 32
	popq	%r12
	.cfi_def_cfa_offset 24
	popq	%r13
	.cfi_def_cfa_offset 16
	popq	%r14
	.cfi_def_cfa_offset 8
	ret
	.p2align 4,,10
	.p2align 3
.L638:
	.cfi_restore_state
	leaq	8(%rsp), %rsi
	xorl	%edx, %edx
	movq	%r12, %rdi
	call	_ZNSt7__cxx1112basic_stringIcSt11char_traitsIcESaIcEE9_M_createERmm@PLT
	movq	%rax, (%r12)
	movq	%rax, %rbp
	movq	8(%rsp), %rax
	movq	%rax, 16(%r12)
.L628:
	movq	%rbp, %rdi
	movq	%r13, %rdx
	movq	%r14, %rsi
	call	memcpy@PLT
	movq	8(%rsp), %rax
	movq	(%r12), %rbp
	jmp	.L630
	.p2align 4,,10
	.p2align 3
.L636:
	movq	%rbp, (%rdi)
	xorl	%edx, %edx
	leaq	8(%rsp), %rsi
	movq	$18, 8(%rsp)
	call	_ZNSt7__cxx1112basic_stringIcSt11char_traitsIcESaIcEE9_M_createERmm@PLT
	movq	8(%rsp), %rdx
	movdqa	.LC5(%rip), %xmm0
	movq	%rax, (%r12)
	movq	%rdx, 16(%r12)
	movl	$11876, %edx
	movw	%dx, 16(%rax)
	movups	%xmm0, (%rax)
	movq	8(%rsp), %rax
	movq	(%r12), %rdx
	movq	%rax, 8(%r12)
	movb	$0, (%rdx,%rax)
	jmp	.L623
	.p2align 4,,10
	.p2align 3
.L629:
	testq	%rax, %rax
	je	.L630
	jmp	.L628
	.p2align 4,,10
	.p2align 3
.L637:
	leaq	.LC4(%rip), %rdi
	call	_ZSt19__throw_logic_errorPKc@PLT
.L639:
	call	__stack_chk_fail@PLT
	.cfi_endproc
.LFE2344:
	.size	_ZNK4asio6detail15system_category7messageB5cxx11Ei, .-_ZNK4asio6detail15system_category7messageB5cxx11Ei
	.section	.text._ZNK4asio5error6detail17addrinfo_category7messageB5cxx11Ei,"axG",@progbits,_ZNK4asio5error6detail17addrinfo_category7messageB5cxx11Ei,comdat
	.align 2
	.p2align 4
	.weak	_ZNK4asio5error6detail17addrinfo_category7messageB5cxx11Ei
	.type	_ZNK4asio5error6detail17addrinfo_category7messageB5cxx11Ei, @function
_ZNK4asio5error6detail17addrinfo_category7messageB5cxx11Ei:
.LFB2390:
	.cfi_startproc
	endbr64
	pushq	%r12
	.cfi_def_cfa_offset 16
	.cfi_offset 12, -16
	movq	%rdi, %r12
	subq	$16, %rsp
	.cfi_def_cfa_offset 32
	movq	%fs:40, %rax
	movq	%rax, 8(%rsp)
	xorl	%eax, %eax
	leaq	16(%rdi), %rax
	movq	%rax, (%rdi)
	cmpl	$-8, %edx
	je	.L646
	cmpl	$-7, %edx
	je	.L647
	xorl	%edx, %edx
	movq	%rsp, %rsi
	movq	$19, (%rsp)
	call	_ZNSt7__cxx1112basic_stringIcSt11char_traitsIcESaIcEE9_M_createERmm@PLT
	movq	(%rsp), %rdx
	movdqa	.LC8(%rip), %xmm0
	movq	%rax, (%r12)
	movq	%rdx, 16(%r12)
	movl	$28530, %edx
	movw	%dx, 16(%rax)
	movb	$114, 18(%rax)
	movups	%xmm0, (%rax)
	movq	(%rsp), %rax
	movq	(%r12), %rdx
	movq	%rax, 8(%r12)
	movb	$0, (%rdx,%rax)
.L640:
	movq	8(%rsp), %rax
	xorq	%fs:40, %rax
	jne	.L648
	addq	$16, %rsp
	.cfi_remember_state
	.cfi_def_cfa_offset 16
	movq	%r12, %rax
	popq	%r12
	.cfi_def_cfa_offset 8
	ret
	.p2align 4,,10
	.p2align 3
.L647:
	.cfi_restore_state
	xorl	%edx, %edx
	movq	%rsp, %rsi
	movq	$25, (%rsp)
	call	_ZNSt7__cxx1112basic_stringIcSt11char_traitsIcESaIcEE9_M_createERmm@PLT
	movq	(%rsp), %rdx
	movdqa	.LC7(%rip), %xmm0
	movabsq	$7310593918082512243, %rcx
	movq	%rax, (%r12)
	movq	%rdx, 16(%r12)
	movq	%rcx, 16(%rax)
	movb	$100, 24(%rax)
	movups	%xmm0, (%rax)
	movq	(%rsp), %rax
	movq	(%r12), %rdx
	movq	%rax, 8(%r12)
	movb	$0, (%rdx,%rax)
	jmp	.L640
	.p2align 4,,10
	.p2align 3
.L646:
	xorl	%edx, %edx
	movq	%rsp, %rsi
	movq	$17, (%rsp)
	call	_ZNSt7__cxx1112basic_stringIcSt11char_traitsIcESaIcEE9_M_createERmm@PLT
	movq	(%rsp), %rdx
	movdqa	.LC6(%rip), %xmm0
	movq	%rax, (%r12)
	movq	%rdx, 16(%r12)
	movb	$100, 16(%rax)
	movups	%xmm0, (%rax)
	movq	(%rsp), %rax
	movq	(%r12), %rdx
	movq	%rax, 8(%r12)
	movb	$0, (%rdx,%rax)
	jmp	.L640
.L648:
	call	__stack_chk_fail@PLT
	.cfi_endproc
.LFE2390:
	.size	_ZNK4asio5error6detail17addrinfo_category7messageB5cxx11Ei, .-_ZNK4asio5error6detail17addrinfo_category7messageB5cxx11Ei
	.section	.rodata._ZNK4asio5error6detail14netdb_category7messageB5cxx11Ei.str1.8,"aMS",@progbits,1
	.align 8
.LC9:
	.string	"Host not found (non-authoritative), try again later"
	.align 8
.LC10:
	.string	"The query is valid, but it does not have associated data"
	.align 8
.LC11:
	.string	"A non-recoverable error occurred during database lookup"
	.section	.text._ZNK4asio5error6detail14netdb_category7messageB5cxx11Ei,"axG",@progbits,_ZNK4asio5error6detail14netdb_category7messageB5cxx11Ei,comdat
	.align 2
	.p2align 4
	.weak	_ZNK4asio5error6detail14netdb_category7messageB5cxx11Ei
	.type	_ZNK4asio5error6detail14netdb_category7messageB5cxx11Ei, @function
_ZNK4asio5error6detail14netdb_category7messageB5cxx11Ei:
.LFB2384:
	.cfi_startproc
	endbr64
	pushq	%r12
	.cfi_def_cfa_offset 16
	.cfi_offset 12, -16
	movq	%rdi, %r12
	subq	$16, %rsp
	.cfi_def_cfa_offset 32
	movq	%fs:40, %rax
	movq	%rax, 8(%rsp)
	xorl	%eax, %eax
	cmpl	$1, %edx
	je	.L657
	cmpl	$2, %edx
	je	.L658
	cmpl	$4, %edx
	je	.L659
	cmpl	$3, %edx
	je	.L660
	leaq	16(%rdi), %rax
	xorl	%edx, %edx
	movq	%rsp, %rsi
	movq	$16, (%rsp)
	movq	%rax, (%rdi)
	call	_ZNSt7__cxx1112basic_stringIcSt11char_traitsIcESaIcEE9_M_createERmm@PLT
	movq	(%rsp), %rdx
	movdqa	.LC13(%rip), %xmm0
	movq	%rax, (%r12)
	movq	%rdx, 16(%r12)
	movups	%xmm0, (%rax)
	movq	(%rsp), %rax
	movq	(%r12), %rdx
	movq	%rax, 8(%r12)
	movb	$0, (%rdx,%rax)
.L649:
	movq	8(%rsp), %rax
	xorq	%fs:40, %rax
	jne	.L661
	addq	$16, %rsp
	.cfi_remember_state
	.cfi_def_cfa_offset 16
	movq	%r12, %rax
	popq	%r12
	.cfi_def_cfa_offset 8
	ret
	.p2align 4,,10
	.p2align 3
.L657:
	.cfi_restore_state
	leaq	16(%rdi), %rax
	xorl	%edx, %edx
	movq	%rsp, %rsi
	movq	$30, (%rsp)
	movq	%rax, (%rdi)
	call	_ZNSt7__cxx1112basic_stringIcSt11char_traitsIcESaIcEE9_M_createERmm@PLT
	movq	(%rsp), %rdx
	movdqa	.LC12(%rip), %xmm0
	movabsq	$8388361603773658465, %rcx
	movq	%rax, (%r12)
	movq	%rdx, 16(%r12)
	movl	$10597, %edx
	movq	%rcx, 16(%rax)
	movl	$1986622561, 24(%rax)
	movw	%dx, 28(%rax)
	movups	%xmm0, (%rax)
	movq	(%rsp), %rax
	movq	(%r12), %rdx
	movq	%rax, 8(%r12)
	movb	$0, (%rdx,%rax)
	jmp	.L649
	.p2align 4,,10
	.p2align 3
.L660:
	leaq	.LC11(%rip), %rsi
	call	_ZNSt7__cxx1112basic_stringIcSt11char_traitsIcESaIcEEC2EPKcRKS3_.isra.0
	jmp	.L649
	.p2align 4,,10
	.p2align 3
.L658:
	leaq	.LC9(%rip), %rsi
	call	_ZNSt7__cxx1112basic_stringIcSt11char_traitsIcESaIcEEC2EPKcRKS3_.isra.0
	jmp	.L649
	.p2align 4,,10
	.p2align 3
.L659:
	leaq	.LC10(%rip), %rsi
	call	_ZNSt7__cxx1112basic_stringIcSt11char_traitsIcESaIcEEC2EPKcRKS3_.isra.0
	jmp	.L649
.L661:
	call	__stack_chk_fail@PLT
	.cfi_endproc
.LFE2384:
	.size	_ZNK4asio5error6detail14netdb_category7messageB5cxx11Ei, .-_ZNK4asio5error6detail14netdb_category7messageB5cxx11Ei
	.section	.rodata._ZNK4asio5error6detail13misc_category7messageB5cxx11Ei.str1.1,"aMS",@progbits,1
.LC14:
	.string	"End of file"
.LC15:
	.string	"Element not found"
	.section	.rodata._ZNK4asio5error6detail13misc_category7messageB5cxx11Ei.str1.8,"aMS",@progbits,1
	.align 8
.LC16:
	.string	"The descriptor does not fit into the select call's fd_set"
	.section	.text._ZNK4asio5error6detail13misc_category7messageB5cxx11Ei,"axG",@progbits,_ZNK4asio5error6detail13misc_category7messageB5cxx11Ei,comdat
	.align 2
	.p2align 4
	.weak	_ZNK4asio5error6detail13misc_category7messageB5cxx11Ei
	.type	_ZNK4asio5error6detail13misc_category7messageB5cxx11Ei, @function
_ZNK4asio5error6detail13misc_category7messageB5cxx11Ei:
.LFB2396:
	.cfi_startproc
	endbr64
	pushq	%r12
	.cfi_def_cfa_offset 16
	.cfi_offset 12, -16
	movq	%rdi, %r12
	cmpl	$1, %edx
	je	.L669
	cmpl	$2, %edx
	je	.L670
	cmpl	$3, %edx
	je	.L671
	cmpl	$4, %edx
	je	.L672
	leaq	16(%rdi), %rax
	movl	$1919230051, 24(%rdi)
	movabsq	$8316298233121436513, %rcx
	movq	%rax, (%rdi)
	movl	$28530, %eax
	movw	%ax, 28(%rdi)
	movq	%r12, %rax
	popq	%r12
	.cfi_remember_state
	.cfi_def_cfa_offset 8
	movq	%rcx, 16(%rdi)
	movb	$114, 30(%rdi)
	movq	$15, 8(%rdi)
	movb	$0, 31(%rdi)
	ret
	.p2align 4,,10
	.p2align 3
.L669:
	.cfi_restore_state
	leaq	16(%rdi), %rax
	movl	$1852141679, 24(%rdi)
	movabsq	$2340011850872286273, %rsi
	movq	%rax, (%rdi)
	movq	%r12, %rax
	popq	%r12
	.cfi_remember_state
	.cfi_def_cfa_offset 8
	movq	%rsi, 16(%rdi)
	movq	$12, 8(%rdi)
	movb	$0, 28(%rdi)
	ret
	.p2align 4,,10
	.p2align 3
.L672:
	.cfi_restore_state
	leaq	.LC16(%rip), %rsi
	call	_ZNSt7__cxx1112basic_stringIcSt11char_traitsIcESaIcEEC2EPKcRKS3_.isra.0
	movq	%r12, %rax
	popq	%r12
	.cfi_remember_state
	.cfi_def_cfa_offset 8
	ret
	.p2align 4,,10
	.p2align 3
.L670:
	.cfi_restore_state
	leaq	.LC14(%rip), %rsi
	call	_ZNSt7__cxx1112basic_stringIcSt11char_traitsIcESaIcEEC2EPKcRKS3_.isra.0
	movq	%r12, %rax
	popq	%r12
	.cfi_remember_state
	.cfi_def_cfa_offset 8
	ret
	.p2align 4,,10
	.p2align 3
.L671:
	.cfi_restore_state
	leaq	.LC15(%rip), %rsi
	call	_ZNSt7__cxx1112basic_stringIcSt11char_traitsIcESaIcEEC2EPKcRKS3_.isra.0
	movq	%r12, %rax
	popq	%r12
	.cfi_def_cfa_offset 8
	ret
	.cfi_endproc
.LFE2396:
	.size	_ZNK4asio5error6detail13misc_category7messageB5cxx11Ei, .-_ZNK4asio5error6detail13misc_category7messageB5cxx11Ei
	.section	.text.unlikely._ZSt20__throw_bad_weak_ptrv,"axG",@progbits,_ZSt20__throw_bad_weak_ptrv,comdat
	.weak	_ZSt20__throw_bad_weak_ptrv
	.type	_ZSt20__throw_bad_weak_ptrv, @function
_ZSt20__throw_bad_weak_ptrv:
.LFB1706:
	.cfi_startproc
	endbr64
	pushq	%rax
	.cfi_def_cfa_offset 16
	popq	%rax
	.cfi_def_cfa_offset 8
	movl	$8, %edi
	pushq	%rax
	.cfi_def_cfa_offset 16
	call	__cxa_allocate_exception@PLT
	movq	_ZNSt12bad_weak_ptrD1Ev@GOTPCREL(%rip), %rdx
	movq	_ZTISt12bad_weak_ptr@GOTPCREL(%rip), %rsi
	movq	%rax, %rdi
	movq	_ZTVSt12bad_weak_ptr@GOTPCREL(%rip), %rax
	addq	$16, %rax
	movq	%rax, (%rdi)
	call	__cxa_throw@PLT
	.cfi_endproc
.LFE1706:
	.size	_ZSt20__throw_bad_weak_ptrv, .-_ZSt20__throw_bad_weak_ptrv
	.section	.text._ZN4asio6detail16thread_info_base8allocateEPS1_m,"axG",@progbits,_ZN4asio6detail16thread_info_base8allocateEPS1_m,comdat
	.p2align 4
	.weak	_ZN4asio6detail16thread_info_base8allocateEPS1_m
	.type	_ZN4asio6detail16thread_info_base8allocateEPS1_m, @function
_ZN4asio6detail16thread_info_base8allocateEPS1_m:
.LFB2137:
	.cfi_startproc
	endbr64
	pushq	%rbx
	.cfi_def_cfa_offset 16
	.cfi_offset 3, -16
	movq	%rsi, %rbx
	testq	%rdi, %rdi
	je	.L676
	movq	(%rdi), %rax
	testq	%rax, %rax
	je	.L676
	movq	$0, (%rdi)
	movzbl	(%rax), %ecx
	movq	%rcx, %rdx
	cmpq	%rsi, %rcx
	jb	.L677
	movb	%dl, (%rax,%rbx)
	popq	%rbx
	.cfi_remember_state
	.cfi_def_cfa_offset 8
	ret
	.p2align 4,,10
	.p2align 3
.L677:
	.cfi_restore_state
	movq	%rax, %rdi
	call	_ZdlPv@PLT
.L676:
	leaq	1(%rbx), %rdi
	call	_Znwm@PLT
	cmpq	$256, %rbx
	movl	$0, %edx
	cmovb	%rbx, %rdx
	movb	%dl, (%rax,%rbx)
	popq	%rbx
	.cfi_def_cfa_offset 8
	ret
	.cfi_endproc
.LFE2137:
	.size	_ZN4asio6detail16thread_info_base8allocateEPS1_m, .-_ZN4asio6detail16thread_info_base8allocateEPS1_m
	.section	.text._ZN4asio28asio_handler_is_continuationEz,"axG",@progbits,_ZN4asio28asio_handler_is_continuationEz,comdat
	.p2align 4
	.weak	_ZN4asio28asio_handler_is_continuationEz
	.type	_ZN4asio28asio_handler_is_continuationEz, @function
_ZN4asio28asio_handler_is_continuationEz:
.LFB2143:
	.cfi_startproc
	endbr64
	xorl	%eax, %eax
	ret
	.cfi_endproc
.LFE2143:
	.size	_ZN4asio28asio_handler_is_continuationEz, .-_ZN4asio28asio_handler_is_continuationEz
	.section	.rodata._ZNSt12system_errorC2ESt10error_codePKc.str1.1,"aMS",@progbits,1
.LC17:
	.string	": "
	.section	.text._ZNSt12system_errorC2ESt10error_codePKc,"axG",@progbits,_ZNSt12system_errorC5ESt10error_codePKc,comdat
	.align 2
	.p2align 4
	.weak	_ZNSt12system_errorC2ESt10error_codePKc
	.type	_ZNSt12system_errorC2ESt10error_codePKc, @function
_ZNSt12system_errorC2ESt10error_codePKc:
.LFB2284:
	.cfi_startproc
	.cfi_personality 0x9b,DW.ref.__gxx_personality_v0
	.cfi_lsda 0x1b,.LLSDA2284
	endbr64
	pushq	%r14
	.cfi_def_cfa_offset 16
	.cfi_offset 14, -16
	movl	%esi, %r8d
	movq	%rcx, %r14
	pushq	%r13
	.cfi_def_cfa_offset 24
	.cfi_offset 13, -24
	movq	%r8, %r13
	pushq	%r12
	.cfi_def_cfa_offset 32
	.cfi_offset 12, -32
	pushq	%rbp
	.cfi_def_cfa_offset 40
	.cfi_offset 6, -40
	movq	%rdx, %rbp
	pushq	%rbx
	.cfi_def_cfa_offset 48
	.cfi_offset 3, -48
	movq	%rdi, %rbx
	subq	$112, %rsp
	.cfi_def_cfa_offset 160
	movq	%fs:40, %rax
	movq	%rax, 104(%rsp)
	xorl	%eax, %eax
	movq	(%rdx), %rax
	leaq	64(%rsp), %r12
	movl	%esi, %edx
	movq	%r12, %rdi
	movq	%rbp, %rsi
.LEHB3:
	call	*32(%rax)
.LEHE3:
	movl	$2, %r8d
	xorl	%edx, %edx
	xorl	%esi, %esi
	leaq	.LC17(%rip), %rcx
	movq	%r12, %rdi
.LEHB4:
	call	_ZNSt7__cxx1112basic_stringIcSt11char_traitsIcESaIcEE10_M_replaceEmmPKcm@PLT
.LEHE4:
	leaq	48(%rsp), %r12
	leaq	16(%rax), %rdx
	movq	%r12, 32(%rsp)
	movq	(%rax), %rcx
	cmpq	%rdx, %rcx
	je	.L710
	movq	%rcx, 32(%rsp)
	movq	16(%rax), %rcx
	movq	%rcx, 48(%rsp)
.L692:
	movq	8(%rax), %rcx
	movb	$0, 16(%rax)
	movq	%r14, %rdi
	movq	%rcx, 40(%rsp)
	movq	%rdx, (%rax)
	movq	$0, 8(%rax)
	call	strlen@PLT
	leaq	32(%rsp), %rdi
	movq	%r14, %rcx
	xorl	%edx, %edx
	movq	%rax, %r8
	xorl	%esi, %esi
.LEHB5:
	call	_ZNSt7__cxx1112basic_stringIcSt11char_traitsIcESaIcEE10_M_replaceEmmPKcm@PLT
.LEHE5:
	leaq	16(%rsp), %r14
	leaq	16(%rax), %rdx
	movq	%r14, (%rsp)
	movq	(%rax), %rcx
	cmpq	%rdx, %rcx
	je	.L711
	movq	%rcx, (%rsp)
	movq	16(%rax), %rcx
	movq	%rcx, 16(%rsp)
.L694:
	movq	8(%rax), %rcx
	movb	$0, 16(%rax)
	movq	%rsp, %rsi
	movq	%rbx, %rdi
	movq	%rcx, 8(%rsp)
	movq	%rdx, (%rax)
	movq	$0, 8(%rax)
.LEHB6:
	call	_ZNSt13runtime_errorC2ERKNSt7__cxx1112basic_stringIcSt11char_traitsIcESaIcEEE@PLT
.LEHE6:
	movq	(%rsp), %rdi
	cmpq	%r14, %rdi
	je	.L695
	call	_ZdlPv@PLT
.L695:
	movq	32(%rsp), %rdi
	cmpq	%r12, %rdi
	je	.L696
	call	_ZdlPv@PLT
.L696:
	movq	64(%rsp), %rdi
	leaq	80(%rsp), %rax
	cmpq	%rax, %rdi
	je	.L697
	call	_ZdlPv@PLT
.L697:
	movq	_ZTVSt12system_error@GOTPCREL(%rip), %rax
	movq	%r13, 16(%rbx)
	movq	%rbp, 24(%rbx)
	addq	$16, %rax
	movq	%rax, (%rbx)
	movq	104(%rsp), %rax
	xorq	%fs:40, %rax
	jne	.L712
	addq	$112, %rsp
	.cfi_remember_state
	.cfi_def_cfa_offset 48
	popq	%rbx
	.cfi_def_cfa_offset 40
	popq	%rbp
	.cfi_def_cfa_offset 32
	popq	%r12
	.cfi_def_cfa_offset 24
	popq	%r13
	.cfi_def_cfa_offset 16
	popq	%r14
	.cfi_def_cfa_offset 8
	ret
	.p2align 4,,10
	.p2align 3
.L710:
	.cfi_restore_state
	movdqu	16(%rax), %xmm0
	movaps	%xmm0, 48(%rsp)
	jmp	.L692
	.p2align 4,,10
	.p2align 3
.L711:
	movdqu	16(%rax), %xmm1
	movaps	%xmm1, 16(%rsp)
	jmp	.L694
.L712:
	call	__stack_chk_fail@PLT
.L707:
	endbr64
	movq	%rax, %rbp
	jmp	.L698
.L705:
	endbr64
	movq	%rax, %rbp
	jmp	.L702
.L706:
	endbr64
	movq	%rax, %rbp
	jmp	.L700
.L698:
	movq	(%rsp), %rdi
	cmpq	%r14, %rdi
	je	.L700
	call	_ZdlPv@PLT
.L700:
	movq	32(%rsp), %rdi
	cmpq	%r12, %rdi
	je	.L702
	call	_ZdlPv@PLT
.L702:
	movq	64(%rsp), %rdi
	leaq	80(%rsp), %rax
	cmpq	%rax, %rdi
	je	.L703
	call	_ZdlPv@PLT
.L703:
	movq	%rbp, %rdi
.LEHB7:
	call	_Unwind_Resume@PLT
.LEHE7:
	.cfi_endproc
.LFE2284:
	.section	.gcc_except_table
.LLSDA2284:
	.byte	0xff
	.byte	0xff
	.byte	0x1
	.uleb128 .LLSDACSE2284-.LLSDACSB2284
.LLSDACSB2284:
	.uleb128 .LEHB3-.LFB2284
	.uleb128 .LEHE3-.LEHB3
	.uleb128 0
	.uleb128 0
	.uleb128 .LEHB4-.LFB2284
	.uleb128 .LEHE4-.LEHB4
	.uleb128 .L705-.LFB2284
	.uleb128 0
	.uleb128 .LEHB5-.LFB2284
	.uleb128 .LEHE5-.LEHB5
	.uleb128 .L706-.LFB2284
	.uleb128 0
	.uleb128 .LEHB6-.LFB2284
	.uleb128 .LEHE6-.LEHB6
	.uleb128 .L707-.LFB2284
	.uleb128 0
	.uleb128 .LEHB7-.LFB2284
	.uleb128 .LEHE7-.LEHB7
	.uleb128 0
	.uleb128 0
.LLSDACSE2284:
	.section	.text._ZNSt12system_errorC2ESt10error_codePKc,"axG",@progbits,_ZNSt12system_errorC5ESt10error_codePKc,comdat
	.size	_ZNSt12system_errorC2ESt10error_codePKc, .-_ZNSt12system_errorC2ESt10error_codePKc
	.weak	_ZNSt12system_errorC1ESt10error_codePKc
	.set	_ZNSt12system_errorC1ESt10error_codePKc,_ZNSt12system_errorC2ESt10error_codePKc
	.section	.text._ZN4asio15system_categoryEv,"axG",@progbits,_ZN4asio15system_categoryEv,comdat
	.p2align 4
	.weak	_ZN4asio15system_categoryEv
	.type	_ZN4asio15system_categoryEv, @function
_ZN4asio15system_categoryEv:
.LFB2347:
	.cfi_startproc
	endbr64
	pushq	%r12
	.cfi_def_cfa_offset 16
	.cfi_offset 12, -16
	pushq	%rbp
	.cfi_def_cfa_offset 24
	.cfi_offset 6, -24
	subq	$8, %rsp
	.cfi_def_cfa_offset 32
	movq	_ZGVZN4asio15system_categoryEvE8instance@GOTPCREL(%rip), %rbp
	movzbl	0(%rbp), %eax
	testb	%al, %al
	je	.L714
.L721:
	movq	_ZZN4asio15system_categoryEvE8instance@GOTPCREL(%rip), %r12
	addq	$8, %rsp
	.cfi_remember_state
	.cfi_def_cfa_offset 24
	popq	%rbp
	.cfi_def_cfa_offset 16
	movq	%r12, %rax
	popq	%r12
	.cfi_def_cfa_offset 8
	ret
	.p2align 4,,10
	.p2align 3
.L714:
	.cfi_restore_state
	movq	%rbp, %rdi
	call	__cxa_guard_acquire@PLT
	testl	%eax, %eax
	je	.L721
	movq	_ZZN4asio15system_categoryEvE8instance@GOTPCREL(%rip), %r12
	movq	_ZN4asio6detail15system_categoryD1Ev@GOTPCREL(%rip), %rdi
	leaq	__dso_handle(%rip), %rdx
	movq	%r12, %rsi
	call	__cxa_atexit@PLT
	movq	%rbp, %rdi
	call	__cxa_guard_release@PLT
	addq	$8, %rsp
	.cfi_def_cfa_offset 24
	movq	%r12, %rax
	popq	%rbp
	.cfi_def_cfa_offset 16
	popq	%r12
	.cfi_def_cfa_offset 8
	ret
	.cfi_endproc
.LFE2347:
	.size	_ZN4asio15system_categoryEv, .-_ZN4asio15system_categoryEv
	.section	.text._ZN4asio6detail31reactive_socket_connect_op_base10do_performEPNS0_10reactor_opE,"axG",@progbits,_ZN4asio6detail31reactive_socket_connect_op_base10do_performEPNS0_10reactor_opE,comdat
	.p2align 4
	.weak	_ZN4asio6detail31reactive_socket_connect_op_base10do_performEPNS0_10reactor_opE
	.type	_ZN4asio6detail31reactive_socket_connect_op_base10do_performEPNS0_10reactor_opE, @function
_ZN4asio6detail31reactive_socket_connect_op_base10do_performEPNS0_10reactor_opE:
.LFB3734:
	.cfi_startproc
	endbr64
	pushq	%r12
	.cfi_def_cfa_offset 16
	.cfi_offset 12, -16
	xorl	%edx, %edx
	movl	$1, %esi
	pushq	%rbp
	.cfi_def_cfa_offset 24
	.cfi_offset 6, -24
	pushq	%rbx
	.cfi_def_cfa_offset 32
	.cfi_offset 3, -32
	movq	%rdi, %rbx
	subq	$32, %rsp
	.cfi_def_cfa_offset 64
	movl	56(%rdi), %ebp
	movq	%fs:40, %rax
	movq	%rax, 24(%rsp)
	xorl	%eax, %eax
	leaq	16(%rsp), %rdi
	movl	$4, 20(%rsp)
	movl	%ebp, 16(%rsp)
	call	poll@PLT
	movl	%eax, %r8d
	xorl	%eax, %eax
	testl	%r8d, %r8d
	jne	.L733
.L722:
	movq	24(%rsp), %rcx
	xorq	%fs:40, %rcx
	jne	.L734
	addq	$32, %rsp
	.cfi_remember_state
	.cfi_def_cfa_offset 32
	popq	%rbx
	.cfi_def_cfa_offset 24
	popq	%rbp
	.cfi_def_cfa_offset 16
	popq	%r12
	.cfi_def_cfa_offset 8
	ret
	.p2align 4,,10
	.p2align 3
.L733:
	.cfi_restore_state
	movl	$0, 8(%rsp)
	cmpl	$-1, %ebp
	je	.L735
	call	__errno_location@PLT
	movl	$4, %edx
	movl	%ebp, %edi
	leaq	8(%rsp), %rcx
	movl	$0, (%rax)
	leaq	12(%rsp), %r8
	movl	$1, %esi
	movq	%rax, %r12
	movl	$4, 12(%rsp)
	call	getsockopt@PLT
	movl	%eax, %ebp
	call	_ZN4asio15system_categoryEv@PLT
	movl	(%r12), %edx
	movq	%rax, 32(%rbx)
	movl	%edx, 24(%rbx)
	testl	%ebp, %ebp
	jne	.L725
	call	_ZNSt3_V215system_categoryEv@PLT
	movl	$0, 24(%rbx)
	movq	%rax, 32(%rbx)
	movl	8(%rsp), %eax
	testl	%eax, %eax
	jne	.L736
.L725:
	movl	$1, %eax
	jmp	.L722
	.p2align 4,,10
	.p2align 3
.L736:
	call	_ZN4asio15system_categoryEv@PLT
	movl	8(%rsp), %edx
	movq	%rax, 32(%rbx)
	movl	%edx, 24(%rbx)
	jmp	.L725
.L735:
	call	_ZN4asio15system_categoryEv@PLT
	movl	$9, 24(%rbx)
	movq	%rax, 32(%rbx)
	jmp	.L725
.L734:
	call	__stack_chk_fail@PLT
	.cfi_endproc
.LFE3734:
	.size	_ZN4asio6detail31reactive_socket_connect_op_base10do_performEPNS0_10reactor_opE, .-_ZN4asio6detail31reactive_socket_connect_op_base10do_performEPNS0_10reactor_opE
	.section	.text._ZN4asio6detail16service_registry14do_use_serviceERKNS_10io_service7service3keyEPFPS3_RS2_E,"axG",@progbits,_ZN4asio6detail16service_registry14do_use_serviceERKNS_10io_service7service3keyEPFPS3_RS2_E,comdat
	.align 2
	.p2align 4
	.weak	_ZN4asio6detail16service_registry14do_use_serviceERKNS_10io_service7service3keyEPFPS3_RS2_E
	.type	_ZN4asio6detail16service_registry14do_use_serviceERKNS_10io_service7service3keyEPFPS3_RS2_E, @function
_ZN4asio6detail16service_registry14do_use_serviceERKNS_10io_service7service3keyEPFPS3_RS2_E:
.LFB2730:
	.cfi_startproc
	endbr64
	pushq	%r15
	.cfi_def_cfa_offset 16
	.cfi_offset 15, -16
	pushq	%r14
	.cfi_def_cfa_offset 24
	.cfi_offset 14, -24
	movq	%rdx, %r14
	pushq	%r13
	.cfi_def_cfa_offset 32
	.cfi_offset 13, -32
	leaq	8(%rdi), %r13
	pushq	%r12
	.cfi_def_cfa_offset 40
	.cfi_offset 12, -40
	pushq	%rbp
	.cfi_def_cfa_offset 48
	.cfi_offset 6, -48
	movq	%rdi, %rbp
	movq	%r13, %rdi
	pushq	%rbx
	.cfi_def_cfa_offset 56
	.cfi_offset 3, -56
	movq	%rsi, %rbx
	subq	$8, %rsp
	.cfi_def_cfa_offset 64
	call	pthread_mutex_lock@PLT
	movq	56(%rbp), %r12
	testq	%r12, %r12
	je	.L738
	.p2align 4,,10
	.p2align 3
.L743:
	movq	16(%r12), %rax
	testq	%rax, %rax
	je	.L739
	movq	8(%rbx), %rdx
	cmpq	%rdx, %rax
	jne	.L739
	testq	%rdx, %rdx
	jne	.L740
.L739:
	movq	8(%r12), %rax
	testq	%rax, %rax
	je	.L742
	movq	(%rbx), %rdx
	testq	%rdx, %rdx
	je	.L742
	movq	8(%rax), %rdi
	movq	8(%rdx), %rsi
	cmpq	%rsi, %rdi
	je	.L740
	cmpb	$42, (%rdi)
	je	.L742
	call	strcmp@PLT
	testl	%eax, %eax
	jne	.L742
.L740:
	movq	%r13, %rdi
	call	pthread_mutex_unlock@PLT
	addq	$8, %rsp
	.cfi_remember_state
	.cfi_def_cfa_offset 56
	movq	%r12, %rax
	popq	%rbx
	.cfi_def_cfa_offset 48
	popq	%rbp
	.cfi_def_cfa_offset 40
	popq	%r12
	.cfi_def_cfa_offset 32
	popq	%r13
	.cfi_def_cfa_offset 24
	popq	%r14
	.cfi_def_cfa_offset 16
	popq	%r15
	.cfi_def_cfa_offset 8
	ret
	.p2align 4,,10
	.p2align 3
.L742:
	.cfi_restore_state
	movq	32(%r12), %r12
	testq	%r12, %r12
	jne	.L743
.L738:
	movq	%r13, %rdi
	call	pthread_mutex_unlock@PLT
	movq	48(%rbp), %rdi
	call	*%r14
	movdqu	(%rbx), %xmm0
	movq	%r13, %rdi
	movq	%rax, %r15
	movups	%xmm0, 8(%rax)
	call	pthread_mutex_lock@PLT
	movq	56(%rbp), %r14
	testq	%r14, %r14
	je	.L744
	movq	%r14, %r12
	.p2align 4,,10
	.p2align 3
.L749:
	movq	16(%r12), %rax
	testq	%rax, %rax
	je	.L745
	movq	8(%rbx), %rdx
	cmpq	%rdx, %rax
	jne	.L745
	testq	%rdx, %rdx
	jne	.L746
.L745:
	movq	8(%r12), %rax
	testq	%rax, %rax
	je	.L748
	movq	(%rbx), %rdx
	testq	%rdx, %rdx
	je	.L748
	movq	8(%rax), %rdi
	movq	8(%rdx), %rsi
	cmpq	%rsi, %rdi
	je	.L746
	cmpb	$42, (%rdi)
	je	.L748
	call	strcmp@PLT
	testl	%eax, %eax
	jne	.L748
.L746:
	movq	(%r15), %rax
	movq	%r15, %rdi
	call	*8(%rax)
	jmp	.L740
	.p2align 4,,10
	.p2align 3
.L748:
	movq	32(%r12), %r12
	testq	%r12, %r12
	jne	.L749
.L744:
	movq	%r14, 32(%r15)
	movq	%r15, %r12
	movq	%r15, 56(%rbp)
	jmp	.L740
	.cfi_endproc
.LFE2730:
	.size	_ZN4asio6detail16service_registry14do_use_serviceERKNS_10io_service7service3keyEPFPS3_RS2_E, .-_ZN4asio6detail16service_registry14do_use_serviceERKNS_10io_service7service3keyEPFPS3_RS2_E
	.section	.text._ZN4asio6detail13epoll_reactor3runEbRNS0_8op_queueINS0_25task_io_service_operationEEE,"axG",@progbits,_ZN4asio6detail13epoll_reactor3runEbRNS0_8op_queueINS0_25task_io_service_operationEEE,comdat
	.align 2
	.p2align 4
	.weak	_ZN4asio6detail13epoll_reactor3runEbRNS0_8op_queueINS0_25task_io_service_operationEEE
	.type	_ZN4asio6detail13epoll_reactor3runEbRNS0_8op_queueINS0_25task_io_service_operationEEE, @function
_ZN4asio6detail13epoll_reactor3runEbRNS0_8op_queueINS0_25task_io_service_operationEEE:
.LFB3246:
	.cfi_startproc
	.cfi_personality 0x9b,DW.ref.__gxx_personality_v0
	.cfi_lsda 0x1b,.LLSDA3246
	endbr64
	pushq	%r13
	.cfi_def_cfa_offset 16
	.cfi_offset 13, -16
	pushq	%r12
	.cfi_def_cfa_offset 24
	.cfi_offset 12, -24
	movq	%rdi, %r12
	pushq	%rbp
	.cfi_def_cfa_offset 32
	.cfi_offset 6, -32
	movq	%rdx, %rbp
	pushq	%rbx
	.cfi_def_cfa_offset 40
	.cfi_offset 3, -40
	movl	%esi, %ebx
	subq	$1640, %rsp
	.cfi_def_cfa_offset 1680
	movq	%fs:40, %rax
	movq	%rax, 1624(%rsp)
	xorl	%eax, %eax
	cmpl	$-1, 100(%rdi)
	je	.L791
	movzbl	%sil, %esi
	movl	%esi, %ecx
	negl	%ecx
.L792:
	movl	96(%r12), %edi
	leaq	80(%rsp), %rbx
	movl	$128, %edx
	movq	%rbx, %rsi
.LEHB8:
	call	epoll_wait@PLT
.LEHE8:
	cmpl	$-1, 100(%r12)
	sete	%dil
	testl	%eax, %eax
	jle	.L796
	subl	$1, %eax
	leaq	88(%r12), %rsi
	leaq	100(%r12), %r9
	movq	%rbx, %rdx
	leaq	(%rax,%rax,2), %rax
	movl	$1, %r10d
	leaq	92(%rsp,%rax,4), %rcx
	jmp	.L800
	.p2align 4,,10
	.p2align 3
.L797:
	cmpq	%r9, %rax
	je	.L816
	movl	(%rdx), %r8d
	cmpq	$0, 8(%rbp)
	movq	$0, (%rax)
	movl	%r8d, 16(%rax)
	je	.L799
	movq	8(%rbp), %r8
	movq	%rax, (%r8)
	movq	%rax, 8(%rbp)
.L798:
	addq	$12, %rdx
	cmpq	%rdx, %rcx
	je	.L796
.L800:
	movq	4(%rdx), %rax
	cmpq	%rsi, %rax
	jne	.L797
	cmpl	$-1, 100(%r12)
	cmove	%r10d, %edi
	addq	$12, %rdx
	cmpq	%rdx, %rcx
	jne	.L800
.L796:
	testb	%dil, %dil
	jne	.L832
.L790:
	movq	1624(%rsp), %rax
	xorq	%fs:40, %rax
	jne	.L833
	addq	$1640, %rsp
	.cfi_remember_state
	.cfi_def_cfa_offset 40
	popq	%rbx
	.cfi_def_cfa_offset 32
	popq	%rbp
	.cfi_def_cfa_offset 24
	popq	%r12
	.cfi_def_cfa_offset 16
	popq	%r13
	.cfi_def_cfa_offset 8
	ret
	.p2align 4,,10
	.p2align 3
.L816:
	.cfi_restore_state
	movl	$1, %edi
	jmp	.L798
	.p2align 4,,10
	.p2align 3
.L799:
	movq	%rax, %xmm0
	punpcklqdq	%xmm0, %xmm0
	movups	%xmm0, 0(%rbp)
	jmp	.L798
	.p2align 4,,10
	.p2align 3
.L832:
	leaq	48(%r12), %r13
	movq	%r13, %rdi
	call	pthread_mutex_lock@PLT
	movq	104(%r12), %rbx
	testq	%rbx, %rbx
	je	.L805
	.p2align 4,,10
	.p2align 3
.L802:
	movq	(%rbx), %rax
	movq	%rbp, %rsi
	movq	%rbx, %rdi
.LEHB9:
	call	*40(%rax)
	movq	8(%rbx), %rbx
	testq	%rbx, %rbx
	jne	.L802
.L805:
	movl	100(%r12), %edi
	cmpl	$-1, %edi
	je	.L804
	movq	104(%r12), %rbx
	pxor	%xmm0, %xmm0
	movaps	%xmm0, 16(%rsp)
	testq	%rbx, %rbx
	je	.L806
	movl	$300000000, %esi
	.p2align 4,,10
	.p2align 3
.L808:
	movq	(%rbx), %rax
	movq	%rbx, %rdi
	call	*32(%rax)
.LEHE9:
	movq	8(%rbx), %rbx
	movq	%rax, %rsi
	testq	%rbx, %rbx
	jne	.L808
	movabsq	$4835703278458516699, %rdx
	xorl	%r8d, %r8d
	movl	100(%r12), %edi
	imulq	%rdx
	movq	%rsi, %rax
	sarq	$63, %rax
	sarq	$18, %rdx
	subq	%rax, %rdx
	testq	%rsi, %rsi
	movl	$1, %eax
	movq	%rdx, 32(%rsp)
	sete	%r8b
	je	.L810
	imulq	$1000000, %rdx, %rdx
	subq	%rdx, %rsi
	imulq	$1000, %rsi, %rax
.L810:
	leaq	48(%rsp), %rcx
	leaq	16(%rsp), %rdx
	movl	%r8d, %esi
	movq	%rax, 40(%rsp)
	call	timerfd_settime@PLT
.L804:
	movq	%r13, %rdi
	call	pthread_mutex_unlock@PLT
	jmp	.L790
	.p2align 4,,10
	.p2align 3
.L791:
	leaq	48(%rdi), %r13
	movq	%r13, %rdi
	call	pthread_mutex_lock@PLT
	testb	%bl, %bl
	je	.L814
	movq	104(%r12), %rbx
	testq	%rbx, %rbx
	je	.L815
	movl	$300000, %esi
	.p2align 4,,10
	.p2align 3
.L795:
	movq	(%rbx), %rax
	movq	%rbx, %rdi
.LEHB10:
	call	*24(%rax)
.LEHE10:
	movq	8(%rbx), %rbx
	movq	%rax, %rsi
	testq	%rbx, %rbx
	jne	.L795
	movl	%eax, %ecx
.L793:
	movq	%r13, %rdi
	movl	%ecx, 12(%rsp)
	call	pthread_mutex_unlock@PLT
	movl	12(%rsp), %ecx
	jmp	.L792
.L814:
	xorl	%ecx, %ecx
	jmp	.L793
.L806:
	movq	$300, 32(%rsp)
	xorl	%r8d, %r8d
	xorl	%eax, %eax
	jmp	.L810
.L815:
	movl	$300000, %ecx
	jmp	.L793
.L833:
	call	__stack_chk_fail@PLT
.L818:
	endbr64
.L831:
	movq	%rax, %rbp
	jmp	.L812
.L819:
	endbr64
	jmp	.L831
.L812:
	movq	%r13, %rdi
	call	pthread_mutex_unlock@PLT
	movq	%rbp, %rdi
.LEHB11:
	call	_Unwind_Resume@PLT
.LEHE11:
	.cfi_endproc
.LFE3246:
	.section	.gcc_except_table
.LLSDA3246:
	.byte	0xff
	.byte	0xff
	.byte	0x1
	.uleb128 .LLSDACSE3246-.LLSDACSB3246
.LLSDACSB3246:
	.uleb128 .LEHB8-.LFB3246
	.uleb128 .LEHE8-.LEHB8
	.uleb128 0
	.uleb128 0
	.uleb128 .LEHB9-.LFB3246
	.uleb128 .LEHE9-.LEHB9
	.uleb128 .L819-.LFB3246
	.uleb128 0
	.uleb128 .LEHB10-.LFB3246
	.uleb128 .LEHE10-.LEHB10
	.uleb128 .L818-.LFB3246
	.uleb128 0
	.uleb128 .LEHB11-.LFB3246
	.uleb128 .LEHE11-.LEHB11
	.uleb128 0
	.uleb128 0
.LLSDACSE3246:
	.section	.text._ZN4asio6detail13epoll_reactor3runEbRNS0_8op_queueINS0_25task_io_service_operationEEE,"axG",@progbits,_ZN4asio6detail13epoll_reactor3runEbRNS0_8op_queueINS0_25task_io_service_operationEEE,comdat
	.size	_ZN4asio6detail13epoll_reactor3runEbRNS0_8op_queueINS0_25task_io_service_operationEEE, .-_ZN4asio6detail13epoll_reactor3runEbRNS0_8op_queueINS0_25task_io_service_operationEEE
	.section	.text._ZN4asio6detail15task_io_service12task_cleanupD2Ev,"axG",@progbits,_ZN4asio6detail15task_io_service12task_cleanupD5Ev,comdat
	.align 2
	.p2align 4
	.weak	_ZN4asio6detail15task_io_service12task_cleanupD2Ev
	.type	_ZN4asio6detail15task_io_service12task_cleanupD2Ev, @function
_ZN4asio6detail15task_io_service12task_cleanupD2Ev:
.LFB3269:
	.cfi_startproc
	endbr64
	pushq	%rbp
	.cfi_def_cfa_offset 16
	.cfi_offset 6, -16
	pushq	%rbx
	.cfi_def_cfa_offset 24
	.cfi_offset 3, -24
	movq	%rdi, %rbx
	subq	$8, %rsp
	.cfi_def_cfa_offset 32
	movq	16(%rdi), %rdx
	movq	24(%rdx), %rax
	testq	%rax, %rax
	jle	.L835
	movq	(%rdi), %rdx
	lock addq	%rax, 184(%rdx)
	movq	16(%rdi), %rdx
.L835:
	movq	8(%rbx), %rbp
	movq	$0, 24(%rdx)
	cmpb	$0, 8(%rbp)
	je	.L846
.L836:
	movq	(%rbx), %rax
	movq	8(%rdx), %rsi
	movb	$1, 176(%rax)
	movq	200(%rax), %rcx
	testq	%rsi, %rsi
	je	.L837
	testq	%rcx, %rcx
	je	.L838
	movq	%rsi, (%rcx)
.L839:
	movq	16(%rdx), %rcx
	pxor	%xmm0, %xmm0
	movq	%rcx, 200(%rax)
	movups	%xmm0, 8(%rdx)
	movq	200(%rax), %rcx
.L837:
	movq	$0, 152(%rax)
	leaq	152(%rax), %rdx
	testq	%rcx, %rcx
	je	.L840
	movq	%rdx, (%rcx)
	movq	%rdx, 200(%rax)
	addq	$8, %rsp
	.cfi_remember_state
	.cfi_def_cfa_offset 24
	popq	%rbx
	.cfi_def_cfa_offset 16
	popq	%rbp
	.cfi_def_cfa_offset 8
	ret
	.p2align 4,,10
	.p2align 3
.L838:
	.cfi_restore_state
	movq	%rsi, 192(%rax)
	jmp	.L839
	.p2align 4,,10
	.p2align 3
.L846:
	movq	0(%rbp), %rdi
	call	pthread_mutex_lock@PLT
	movb	$1, 8(%rbp)
	movq	16(%rbx), %rdx
	jmp	.L836
	.p2align 4,,10
	.p2align 3
.L840:
	movq	%rdx, %xmm0
	punpcklqdq	%xmm0, %xmm0
	movups	%xmm0, 192(%rax)
	addq	$8, %rsp
	.cfi_def_cfa_offset 24
	popq	%rbx
	.cfi_def_cfa_offset 16
	popq	%rbp
	.cfi_def_cfa_offset 8
	ret
	.cfi_endproc
.LFE3269:
	.size	_ZN4asio6detail15task_io_service12task_cleanupD2Ev, .-_ZN4asio6detail15task_io_service12task_cleanupD2Ev
	.weak	_ZN4asio6detail15task_io_service12task_cleanupD1Ev
	.set	_ZN4asio6detail15task_io_service12task_cleanupD1Ev,_ZN4asio6detail15task_io_service12task_cleanupD2Ev
	.section	.text._ZN4asio6detail15task_io_service12work_cleanupD2Ev,"axG",@progbits,_ZN4asio6detail15task_io_service12work_cleanupD5Ev,comdat
	.align 2
	.p2align 4
	.weak	_ZN4asio6detail15task_io_service12work_cleanupD2Ev
	.type	_ZN4asio6detail15task_io_service12work_cleanupD2Ev, @function
_ZN4asio6detail15task_io_service12work_cleanupD2Ev:
.LFB3272:
	.cfi_startproc
	endbr64
	pushq	%r12
	.cfi_def_cfa_offset 16
	.cfi_offset 12, -16
	pushq	%rbp
	.cfi_def_cfa_offset 24
	.cfi_offset 6, -24
	pushq	%rbx
	.cfi_def_cfa_offset 32
	.cfi_offset 3, -32
	movq	%rdi, %rbx
	subq	$32, %rsp
	.cfi_def_cfa_offset 64
	movq	%fs:40, %rax
	movq	%rax, 24(%rsp)
	xorl	%eax, %eax
	movq	16(%rdi), %rax
	movq	24(%rax), %rdx
	cmpq	$1, %rdx
	jg	.L872
	jne	.L873
.L849:
	movq	8(%rax), %rdx
	movq	$0, 24(%rax)
	testq	%rdx, %rdx
	je	.L847
	movq	8(%rbx), %rbp
	cmpb	$0, 8(%rbp)
	je	.L874
.L871:
	movq	(%rbx), %rcx
	movq	200(%rcx), %rsi
	testq	%rsi, %rsi
	je	.L856
	movq	%rdx, (%rsi)
.L857:
	movq	16(%rax), %rdx
	pxor	%xmm0, %xmm0
	movq	%rdx, 200(%rcx)
	movups	%xmm0, 8(%rax)
.L847:
	movq	24(%rsp), %rax
	xorq	%fs:40, %rax
	jne	.L875
	addq	$32, %rsp
	.cfi_remember_state
	.cfi_def_cfa_offset 32
	popq	%rbx
	.cfi_def_cfa_offset 24
	popq	%rbp
	.cfi_def_cfa_offset 16
	popq	%r12
	.cfi_def_cfa_offset 8
	ret
	.p2align 4,,10
	.p2align 3
.L873:
	.cfi_restore_state
	movq	(%rdi), %rbp
	lock subq	$1, 184(%rbp)
	je	.L850
.L870:
	movq	16(%rbx), %rax
	jmp	.L849
	.p2align 4,,10
	.p2align 3
.L874:
	movq	0(%rbp), %rdi
	call	pthread_mutex_lock@PLT
	movq	16(%rbx), %rax
	movb	$1, 8(%rbp)
	movq	8(%rax), %rdx
	testq	%rdx, %rdx
	je	.L847
	jmp	.L871
	.p2align 4,,10
	.p2align 3
.L872:
	movq	(%rdi), %rax
	subq	$1, %rdx
	lock addq	%rdx, 184(%rax)
	movq	16(%rdi), %rax
	jmp	.L849
	.p2align 4,,10
	.p2align 3
.L850:
	leaq	48(%rbp), %r12
	movq	%r12, %rdi
	call	pthread_mutex_lock@PLT
	movb	$1, 208(%rbp)
	leaq	88(%rbp), %rdi
	orq	$1, 136(%rbp)
	call	pthread_cond_broadcast@PLT
	cmpb	$0, 176(%rbp)
	jne	.L851
	movq	144(%rbp), %rax
	testq	%rax, %rax
	je	.L851
	leaq	88(%rax), %rdx
	movb	$1, 176(%rbp)
	movl	96(%rax), %edi
	leaq	12(%rsp), %rcx
	movq	%rdx, 16(%rsp)
	movl	88(%rax), %edx
	movl	$3, %esi
	movl	$-2147483639, 12(%rsp)
	call	epoll_ctl@PLT
.L851:
	movq	%r12, %rdi
	call	pthread_mutex_unlock@PLT
	jmp	.L870
	.p2align 4,,10
	.p2align 3
.L856:
	movq	%rdx, 192(%rcx)
	jmp	.L857
.L875:
	call	__stack_chk_fail@PLT
	.cfi_endproc
.LFE3272:
	.size	_ZN4asio6detail15task_io_service12work_cleanupD2Ev, .-_ZN4asio6detail15task_io_service12work_cleanupD2Ev
	.weak	_ZN4asio6detail15task_io_service12work_cleanupD1Ev
	.set	_ZN4asio6detail15task_io_service12work_cleanupD1Ev,_ZN4asio6detail15task_io_service12work_cleanupD2Ev
	.section	.text._ZN4asio6detail15task_io_service3runERSt10error_code,"axG",@progbits,_ZN4asio6detail15task_io_service3runERSt10error_code,comdat
	.align 2
	.p2align 4
	.weak	_ZN4asio6detail15task_io_service3runERSt10error_code
	.type	_ZN4asio6detail15task_io_service3runERSt10error_code, @function
_ZN4asio6detail15task_io_service3runERSt10error_code:
.LFB3286:
	.cfi_startproc
	.cfi_personality 0x9b,DW.ref.__gxx_personality_v0
	.cfi_lsda 0x1b,.LLSDA3286
	endbr64
	pushq	%r15
	.cfi_def_cfa_offset 16
	.cfi_offset 15, -16
	movq	%rsi, %r15
	pushq	%r14
	.cfi_def_cfa_offset 24
	.cfi_offset 14, -24
	pushq	%r13
	.cfi_def_cfa_offset 32
	.cfi_offset 13, -32
	pushq	%r12
	.cfi_def_cfa_offset 40
	.cfi_offset 12, -40
	pushq	%rbp
	.cfi_def_cfa_offset 48
	.cfi_offset 6, -48
	pushq	%rbx
	.cfi_def_cfa_offset 56
	.cfi_offset 3, -56
	movq	%rdi, %rbx
	leaq	48(%rbx), %rbp
	subq	$184, %rsp
	.cfi_def_cfa_offset 240
	movq	%fs:40, %rax
	movq	%rax, 168(%rsp)
	xorl	%eax, %eax
	call	_ZNSt3_V215system_categoryEv@PLT
	movl	$0, (%r15)
	movq	%rax, 16(%rsp)
	movq	%rax, 8(%r15)
	movq	184(%rbx), %r12
	testq	%r12, %r12
	je	.L986
	pxor	%xmm0, %xmm0
	movq	%rbx, 64(%rsp)
	xorl	%r12d, %r12d
	leaq	88(%rbx), %r13
	leaq	128(%rsp), %r14
	movaps	%xmm0, 128(%rsp)
	movq	$0, 144(%rsp)
	movq	$0, 152(%rsp)
	movq	%r14, 72(%rsp)
	data16	leaq	_ZN4asio6detail15keyword_tss_ptrINS0_10call_stackINS0_15task_io_serviceENS0_27task_io_service_thread_infoEE7contextEE6value_E@tlsgd(%rip), %rdi
	.value	0x6666
	rex64
	call	__tls_get_addr@PLT
	movq	%rbp, %rdi
	movq	%rbp, 48(%rsp)
	movq	(%rax), %rdx
	movq	%rdx, 80(%rsp)
	leaq	64(%rsp), %rdx
	movq	%rdx, (%rax)
	call	pthread_mutex_lock@PLT
	movb	$1, 56(%rsp)
	.p2align 4,,10
	.p2align 3
.L898:
	cmpb	$0, 208(%rbx)
	jne	.L881
.L991:
	movq	192(%rbx), %r8
	testq	%r8, %r8
	je	.L883
	movq	(%r8), %rax
	movq	%rax, 192(%rbx)
	testq	%rax, %rax
	je	.L987
.L884:
	movq	$0, (%r8)
	movq	192(%rbx), %rax
	leaq	152(%rbx), %rcx
	testq	%rax, %rax
	sete	%bpl
	setne	%dl
	cmpq	%rcx, %r8
	jne	.L885
	movq	48(%rsp), %rdi
	movzbl	56(%rsp), %ecx
	movb	%dl, 176(%rbx)
	testq	%rax, %rax
	je	.L886
	cmpb	$0, 40(%rbx)
	je	.L988
.L886:
	testb	%cl, %cl
	jne	.L989
.L889:
	movq	144(%rbx), %rdi
	leaq	48(%rsp), %rax
	movzbl	%bpl, %esi
	leaq	136(%rsp), %rdx
	movq	%rbx, 96(%rsp)
	movq	%rax, 104(%rsp)
	movq	%r14, 112(%rsp)
.LEHB12:
	call	_ZN4asio6detail13epoll_reactor3runEbRNS0_8op_queueINS0_25task_io_service_operationEEE@PLT
.LEHE12:
	movq	112(%rsp), %rdx
	movq	24(%rdx), %rcx
	testq	%rcx, %rcx
	jle	.L891
	movq	96(%rsp), %rax
	lock addq	%rcx, 184(%rax)
	movq	112(%rsp), %rdx
.L891:
	movq	104(%rsp), %rbp
	movq	$0, 24(%rdx)
	cmpb	$0, 8(%rbp)
	je	.L990
.L892:
	movq	96(%rsp), %rax
	movq	8(%rdx), %rsi
	movb	$1, 176(%rax)
	movq	200(%rax), %rcx
	testq	%rsi, %rsi
	je	.L893
	testq	%rcx, %rcx
	je	.L894
	movq	%rsi, (%rcx)
.L895:
	movq	16(%rdx), %rcx
	pxor	%xmm0, %xmm0
	movq	%rcx, 200(%rax)
	movups	%xmm0, 8(%rdx)
	movq	200(%rax), %rcx
.L893:
	movq	$0, 152(%rax)
	leaq	152(%rax), %rdx
	testq	%rcx, %rcx
	je	.L896
	cmpb	$0, 208(%rbx)
	movq	%rdx, (%rcx)
	movq	%rdx, 200(%rax)
	je	.L991
.L881:
	cmpb	$0, 56(%rsp)
	jne	.L992
.L920:
	data16	leaq	_ZN4asio6detail15keyword_tss_ptrINS0_10call_stackINS0_15task_io_serviceENS0_27task_io_service_thread_infoEE7contextEE6value_E@tlsgd(%rip), %rdi
	.value	0x6666
	rex64
	call	__tls_get_addr@PLT
	movq	80(%rsp), %rdx
	leaq	96(%rsp), %rbp
	movq	136(%rsp), %rsi
	movq	%rdx, (%rax)
	testq	%rsi, %rsi
	jne	.L925
	jmp	.L929
	.p2align 4,,10
	.p2align 3
.L928:
	movq	16(%rsp), %rdi
	movq	8(%rsi), %rax
	xorl	%ecx, %ecx
	movq	%rbp, %rdx
	movq	$0, (%rsi)
	movq	%rdi, 104(%rsp)
	xorl	%edi, %edi
	movl	$0, 96(%rsp)
	call	*%rax
	movq	136(%rsp), %rsi
	testq	%rsi, %rsi
	je	.L929
.L925:
	movq	(%rsi), %rax
	movq	%rax, 136(%rsp)
	testq	%rax, %rax
	jne	.L928
	movq	$0, 144(%rsp)
	jmp	.L928
	.p2align 4,,10
	.p2align 3
.L896:
	movq	%rdx, %xmm0
	punpcklqdq	%xmm0, %xmm0
	movups	%xmm0, 192(%rax)
	jmp	.L898
	.p2align 4,,10
	.p2align 3
.L990:
	movq	0(%rbp), %rdi
	call	pthread_mutex_lock@PLT
	movb	$1, 8(%rbp)
	movq	112(%rsp), %rdx
	jmp	.L892
	.p2align 4,,10
	.p2align 3
.L894:
	movq	%rsi, 192(%rax)
	jmp	.L895
	.p2align 4,,10
	.p2align 3
.L989:
	call	pthread_mutex_unlock@PLT
	movb	$0, 56(%rsp)
	jmp	.L889
	.p2align 4,,10
	.p2align 3
.L987:
	movq	$0, 200(%rbx)
	jmp	.L884
	.p2align 4,,10
	.p2align 3
.L988:
	movq	136(%rbx), %rdx
	orq	$1, %rdx
	movq	%rdx, 136(%rbx)
	testb	%cl, %cl
	jne	.L993
.L887:
	cmpq	$1, %rdx
	je	.L889
	movq	%r13, %rdi
	call	pthread_cond_signal@PLT
	jmp	.L889
	.p2align 4,,10
	.p2align 3
.L883:
	movq	136(%rbx), %rax
	andq	$-2, %rax
	.p2align 4,,10
	.p2align 3
.L918:
	addq	$2, %rax
	movq	48(%rsp), %rsi
	movq	%r13, %rdi
	movq	%rax, 136(%rbx)
.LEHB13:
	call	pthread_cond_wait@PLT
.LEHE13:
	movq	136(%rbx), %rax
	subq	$2, %rax
	movq	%rax, 136(%rbx)
	testb	$1, %al
	je	.L918
	jmp	.L898
	.p2align 4,,10
	.p2align 3
.L993:
	movq	%rdx, 8(%rsp)
	call	pthread_mutex_unlock@PLT
	movb	$0, 56(%rsp)
	movq	8(%rsp), %rdx
	jmp	.L887
	.p2align 4,,10
	.p2align 3
.L885:
	movl	16(%r8), %r9d
	testq	%rax, %rax
	je	.L899
	cmpb	$0, 40(%rbx)
	je	.L994
.L899:
	cmpb	$0, 56(%rsp)
	jne	.L995
.L902:
	leaq	48(%rsp), %rax
	movq	%rbx, 96(%rsp)
	movq	%r9, %rcx
	movq	%r15, %rdx
	movq	%rax, 104(%rsp)
	movq	%r8, %rsi
	movq	%rbx, %rdi
	movq	%r14, 112(%rsp)
.LEHB14:
	call	*8(%r8)
.LEHE14:
	movq	112(%rsp), %rax
	movq	24(%rax), %rdx
	cmpq	$1, %rdx
	jg	.L996
	je	.L907
	movq	96(%rsp), %rbp
	lock subq	$1, 184(%rbp)
	je	.L908
.L984:
	movq	112(%rsp), %rax
.L907:
	movq	8(%rax), %rdx
	movq	$0, 24(%rax)
	testq	%rdx, %rdx
	je	.L911
	movq	104(%rsp), %rbp
	movq	96(%rsp), %rcx
	cmpb	$0, 8(%rbp)
	je	.L997
.L936:
	movq	200(%rcx), %rsi
	testq	%rsi, %rsi
	je	.L914
	movq	%rdx, (%rsi)
.L915:
	movq	16(%rax), %rdx
	pxor	%xmm0, %xmm0
	movq	%rdx, 200(%rcx)
	movups	%xmm0, 8(%rax)
.L911:
	xorl	%eax, %eax
	cmpq	$-1, %r12
	setne	%al
	addq	%rax, %r12
	cmpb	$0, 56(%rsp)
	jne	.L898
	movq	48(%rsp), %rdi
	call	pthread_mutex_lock@PLT
	movb	$1, 56(%rsp)
	jmp	.L898
	.p2align 4,,10
	.p2align 3
.L996:
	movq	96(%rsp), %rax
	subq	$1, %rdx
	lock addq	%rdx, 184(%rax)
	movq	112(%rsp), %rax
	jmp	.L907
	.p2align 4,,10
	.p2align 3
.L995:
	movq	48(%rsp), %rdi
	movq	%r9, 24(%rsp)
	movq	%r8, 8(%rsp)
	call	pthread_mutex_unlock@PLT
	movb	$0, 56(%rsp)
	movq	24(%rsp), %r9
	movq	8(%rsp), %r8
	jmp	.L902
	.p2align 4,,10
	.p2align 3
.L929:
	movq	128(%rsp), %rdi
	testq	%rdi, %rdi
	je	.L876
	call	_ZdlPv@PLT
.L876:
	movq	168(%rsp), %rax
	xorq	%fs:40, %rax
	jne	.L998
	addq	$184, %rsp
	.cfi_remember_state
	.cfi_def_cfa_offset 56
	movq	%r12, %rax
	popq	%rbx
	.cfi_def_cfa_offset 48
	popq	%rbp
	.cfi_def_cfa_offset 40
	popq	%r12
	.cfi_def_cfa_offset 32
	popq	%r13
	.cfi_def_cfa_offset 24
	popq	%r14
	.cfi_def_cfa_offset 16
	popq	%r15
	.cfi_def_cfa_offset 8
	ret
	.p2align 4,,10
	.p2align 3
.L997:
	.cfi_restore_state
	movq	0(%rbp), %rdi
	call	pthread_mutex_lock@PLT
	movq	112(%rsp), %rax
	movb	$1, 8(%rbp)
	movq	8(%rax), %rdx
	testq	%rdx, %rdx
	je	.L911
	movq	96(%rsp), %rcx
	jmp	.L936
	.p2align 4,,10
	.p2align 3
.L994:
	movq	136(%rbx), %rax
	orq	$1, %rax
	movq	%rax, 136(%rbx)
	cmpq	$1, %rax
	je	.L900
	cmpb	$0, 56(%rsp)
	jne	.L999
.L901:
	movq	%r13, %rdi
	movq	%r9, 24(%rsp)
	movq	%r8, 8(%rsp)
	call	pthread_cond_signal@PLT
	movq	8(%rsp), %r8
	movq	24(%rsp), %r9
	jmp	.L902
	.p2align 4,,10
	.p2align 3
.L900:
	cmpb	$0, 176(%rbx)
	jne	.L903
	movq	144(%rbx), %rax
	testq	%rax, %rax
	je	.L903
	leaq	88(%rax), %rdx
	leaq	96(%rsp), %rbp
	movl	$3, %esi
	movb	$1, 176(%rbx)
	movl	$-2147483639, 96(%rsp)
	movq	%rbp, %rcx
	movq	%rdx, 100(%rsp)
	movl	88(%rax), %edx
	movl	96(%rax), %edi
	movq	%r9, 24(%rsp)
	movq	%r8, 8(%rsp)
	call	epoll_ctl@PLT
	movq	24(%rsp), %r9
	movq	8(%rsp), %r8
.L903:
	cmpb	$0, 56(%rsp)
	je	.L902
	movq	48(%rsp), %rdi
	movq	%r9, 24(%rsp)
	movq	%r8, 8(%rsp)
	call	pthread_mutex_unlock@PLT
	movb	$0, 56(%rsp)
	movq	8(%rsp), %r8
	movq	24(%rsp), %r9
	jmp	.L902
	.p2align 4,,10
	.p2align 3
.L914:
	movq	%rdx, 192(%rcx)
	jmp	.L915
	.p2align 4,,10
	.p2align 3
.L986:
	movq	%rbp, %rdi
	call	pthread_mutex_lock@PLT
	movb	$1, 208(%rbx)
	leaq	88(%rbx), %rdi
	orq	$1, 136(%rbx)
	call	pthread_cond_broadcast@PLT
	cmpb	$0, 176(%rbx)
	jne	.L878
	movq	144(%rbx), %rax
	testq	%rax, %rax
	je	.L878
	leaq	88(%rax), %rdx
	movb	$1, 176(%rbx)
	leaq	128(%rsp), %rcx
	movl	$3, %esi
	movl	$-2147483639, 128(%rsp)
	movq	%rdx, 132(%rsp)
	movl	88(%rax), %edx
	movl	96(%rax), %edi
	call	epoll_ctl@PLT
.L878:
	movq	%rbp, %rdi
	call	pthread_mutex_unlock@PLT
	jmp	.L876
	.p2align 4,,10
	.p2align 3
.L908:
	leaq	48(%rbp), %r8
	movq	%r8, %rdi
	movq	%r8, 8(%rsp)
	call	pthread_mutex_lock@PLT
	movb	$1, 208(%rbp)
	leaq	88(%rbp), %rdi
	orq	$1, 136(%rbp)
	call	pthread_cond_broadcast@PLT
	cmpb	$0, 176(%rbp)
	movq	8(%rsp), %r8
	jne	.L909
	movq	144(%rbp), %rax
	testq	%rax, %rax
	je	.L909
	leaq	88(%rax), %rdx
	movb	$1, 176(%rbp)
	movl	96(%rax), %edi
	leaq	36(%rsp), %rcx
	movq	%rdx, 40(%rsp)
	movl	88(%rax), %edx
	movl	$3, %esi
	movl	$-2147483639, 36(%rsp)
	call	epoll_ctl@PLT
	movq	8(%rsp), %r8
.L909:
	movq	%r8, %rdi
	call	pthread_mutex_unlock@PLT
	jmp	.L984
	.p2align 4,,10
	.p2align 3
.L992:
	movq	48(%rsp), %rdi
	call	pthread_mutex_unlock@PLT
	jmp	.L920
	.p2align 4,,10
	.p2align 3
.L999:
	movq	48(%rsp), %rdi
	movq	%r9, 24(%rsp)
	movq	%r8, 8(%rsp)
	call	pthread_mutex_unlock@PLT
	movb	$0, 56(%rsp)
	movq	24(%rsp), %r9
	movq	8(%rsp), %r8
	jmp	.L901
.L998:
	call	__stack_chk_fail@PLT
.L940:
	endbr64
	movq	%rax, %rbp
	jmp	.L921
.L939:
	endbr64
	movq	%rax, %rbp
	jmp	.L923
.L938:
	endbr64
	movq	%rax, %rbp
	jmp	.L922
.L921:
	leaq	96(%rsp), %rdi
	call	_ZN4asio6detail15task_io_service12task_cleanupD1Ev@PLT
.L922:
	cmpb	$0, 56(%rsp)
	je	.L931
	movq	48(%rsp), %rdi
	call	pthread_mutex_unlock@PLT
.L931:
	data16	leaq	_ZN4asio6detail15keyword_tss_ptrINS0_10call_stackINS0_15task_io_serviceENS0_27task_io_service_thread_infoEE7contextEE6value_E@tlsgd(%rip), %rdi
	.value	0x6666
	rex64
	call	__tls_get_addr@PLT
	movq	80(%rsp), %rdx
	leaq	96(%rsp), %rbx
	movq	%rdx, (%rax)
.L934:
	movq	136(%rsp), %rsi
	testq	%rsi, %rsi
	jne	.L1000
	movq	128(%rsp), %rdi
	testq	%rdi, %rdi
	je	.L935
	call	_ZdlPv@PLT
.L935:
	movq	%rbp, %rdi
.LEHB15:
	call	_Unwind_Resume@PLT
.LEHE15:
.L923:
	leaq	96(%rsp), %rdi
	call	_ZN4asio6detail15task_io_service12work_cleanupD1Ev@PLT
	jmp	.L922
.L1000:
	movq	(%rsi), %rax
	movq	%rax, 136(%rsp)
	testq	%rax, %rax
	jne	.L933
	movq	$0, 144(%rsp)
.L933:
	movq	16(%rsp), %rdi
	movq	8(%rsi), %rax
	xorl	%ecx, %ecx
	movq	%rbx, %rdx
	movq	$0, (%rsi)
	movq	%rdi, 104(%rsp)
	xorl	%edi, %edi
	movl	$0, 96(%rsp)
	call	*%rax
	jmp	.L934
	.cfi_endproc
.LFE3286:
	.section	.gcc_except_table
.LLSDA3286:
	.byte	0xff
	.byte	0xff
	.byte	0x1
	.uleb128 .LLSDACSE3286-.LLSDACSB3286
.LLSDACSB3286:
	.uleb128 .LEHB12-.LFB3286
	.uleb128 .LEHE12-.LEHB12
	.uleb128 .L940-.LFB3286
	.uleb128 0
	.uleb128 .LEHB13-.LFB3286
	.uleb128 .LEHE13-.LEHB13
	.uleb128 .L938-.LFB3286
	.uleb128 0
	.uleb128 .LEHB14-.LFB3286
	.uleb128 .LEHE14-.LEHB14
	.uleb128 .L939-.LFB3286
	.uleb128 0
	.uleb128 .LEHB15-.LFB3286
	.uleb128 .LEHE15-.LEHB15
	.uleb128 0
	.uleb128 0
.LLSDACSE3286:
	.section	.text._ZN4asio6detail15task_io_service3runERSt10error_code,"axG",@progbits,_ZN4asio6detail15task_io_service3runERSt10error_code,comdat
	.size	_ZN4asio6detail15task_io_service3runERSt10error_code, .-_ZN4asio6detail15task_io_service3runERSt10error_code
	.section	.text._ZN4asio6detail15task_io_service25post_immediate_completionEPNS0_25task_io_service_operationEb,"axG",@progbits,_ZN4asio6detail15task_io_service25post_immediate_completionEPNS0_25task_io_service_operationEb,comdat
	.align 2
	.p2align 4
	.weak	_ZN4asio6detail15task_io_service25post_immediate_completionEPNS0_25task_io_service_operationEb
	.type	_ZN4asio6detail15task_io_service25post_immediate_completionEPNS0_25task_io_service_operationEb, @function
_ZN4asio6detail15task_io_service25post_immediate_completionEPNS0_25task_io_service_operationEb:
.LFB3299:
	.cfi_startproc
	endbr64
	pushq	%r12
	.cfi_def_cfa_offset 16
	.cfi_offset 12, -16
	pushq	%rbp
	.cfi_def_cfa_offset 24
	.cfi_offset 6, -24
	movq	%rsi, %rbp
	pushq	%rbx
	.cfi_def_cfa_offset 32
	.cfi_offset 3, -32
	movq	%rdi, %rbx
	subq	$32, %rsp
	.cfi_def_cfa_offset 64
	movq	%fs:40, %rax
	movq	%rax, 24(%rsp)
	xorl	%eax, %eax
	cmpb	$0, 40(%rdi)
	jne	.L1015
	testb	%dl, %dl
	je	.L1002
.L1015:
	data16	leaq	_ZN4asio6detail15keyword_tss_ptrINS0_10call_stackINS0_15task_io_serviceENS0_27task_io_service_thread_infoEE7contextEE6value_E@tlsgd(%rip), %rdi
	.value	0x6666
	rex64
	call	__tls_get_addr@PLT
	movq	(%rax), %rax
	testq	%rax, %rax
	jne	.L1006
	jmp	.L1002
	.p2align 4,,10
	.p2align 3
.L1004:
	movq	16(%rax), %rax
	testq	%rax, %rax
	je	.L1002
.L1006:
	cmpq	(%rax), %rbx
	jne	.L1004
	movq	8(%rax), %rax
	testq	%rax, %rax
	je	.L1002
	addq	$1, 24(%rax)
	cmpq	$0, 16(%rax)
	movq	$0, 0(%rbp)
	je	.L1007
	movq	16(%rax), %rdx
	movq	%rbp, (%rdx)
	movq	%rbp, 16(%rax)
	jmp	.L1001
	.p2align 4,,10
	.p2align 3
.L1002:
	lock addq	$1, 184(%rbx)
	leaq	48(%rbx), %r12
	movq	%r12, %rdi
	call	pthread_mutex_lock@PLT
	cmpq	$0, 200(%rbx)
	movq	$0, 0(%rbp)
	je	.L1009
	movq	200(%rbx), %rax
	movq	%rbp, (%rax)
	movq	%rbp, 200(%rbx)
.L1010:
	movq	136(%rbx), %rax
	orq	$1, %rax
	movq	%rax, 136(%rbx)
	cmpq	$1, %rax
	je	.L1011
	movq	%r12, %rdi
	call	pthread_mutex_unlock@PLT
	leaq	88(%rbx), %rdi
	call	pthread_cond_signal@PLT
.L1001:
	movq	24(%rsp), %rax
	xorq	%fs:40, %rax
	jne	.L1026
	addq	$32, %rsp
	.cfi_remember_state
	.cfi_def_cfa_offset 32
	popq	%rbx
	.cfi_def_cfa_offset 24
	popq	%rbp
	.cfi_def_cfa_offset 16
	popq	%r12
	.cfi_def_cfa_offset 8
	ret
	.p2align 4,,10
	.p2align 3
.L1011:
	.cfi_restore_state
	cmpb	$0, 176(%rbx)
	jne	.L1013
	movq	144(%rbx), %rax
	testq	%rax, %rax
	je	.L1013
	leaq	88(%rax), %rdx
	movb	$1, 176(%rbx)
	movl	96(%rax), %edi
	leaq	12(%rsp), %rcx
	movq	%rdx, 16(%rsp)
	movl	88(%rax), %edx
	movl	$3, %esi
	movl	$-2147483639, 12(%rsp)
	call	epoll_ctl@PLT
.L1013:
	movq	%r12, %rdi
	call	pthread_mutex_unlock@PLT
	jmp	.L1001
	.p2align 4,,10
	.p2align 3
.L1009:
	movq	%rbp, %xmm0
	punpcklqdq	%xmm0, %xmm0
	movups	%xmm0, 192(%rbx)
	jmp	.L1010
	.p2align 4,,10
	.p2align 3
.L1007:
	movq	%rbp, %xmm0
	punpcklqdq	%xmm0, %xmm0
	movups	%xmm0, 8(%rax)
	jmp	.L1001
.L1026:
	call	__stack_chk_fail@PLT
	.cfi_endproc
.LFE3299:
	.size	_ZN4asio6detail15task_io_service25post_immediate_completionEPNS0_25task_io_service_operationEb, .-_ZN4asio6detail15task_io_service25post_immediate_completionEPNS0_25task_io_service_operationEb
	.section	.text._ZN4asio6detail15task_io_service26wake_one_thread_and_unlockERNS0_11scoped_lockINS0_11posix_mutexEEE,"axG",@progbits,_ZN4asio6detail15task_io_service26wake_one_thread_and_unlockERNS0_11scoped_lockINS0_11posix_mutexEEE,comdat
	.align 2
	.p2align 4
	.weak	_ZN4asio6detail15task_io_service26wake_one_thread_and_unlockERNS0_11scoped_lockINS0_11posix_mutexEEE
	.type	_ZN4asio6detail15task_io_service26wake_one_thread_and_unlockERNS0_11scoped_lockINS0_11posix_mutexEEE, @function
_ZN4asio6detail15task_io_service26wake_one_thread_and_unlockERNS0_11scoped_lockINS0_11posix_mutexEEE:
.LFB3307:
	.cfi_startproc
	endbr64
	pushq	%rbp
	.cfi_def_cfa_offset 16
	.cfi_offset 6, -16
	movq	%rsi, %rbp
	pushq	%rbx
	.cfi_def_cfa_offset 24
	.cfi_offset 3, -24
	movq	%rdi, %rbx
	subq	$40, %rsp
	.cfi_def_cfa_offset 64
	movq	%fs:40, %rax
	movq	%rax, 24(%rsp)
	xorl	%eax, %eax
	movq	136(%rdi), %rax
	orq	$1, %rax
	movq	%rax, 136(%rdi)
	cmpq	$1, %rax
	je	.L1028
	cmpb	$0, 8(%rsi)
	jne	.L1037
	leaq	88(%rbx), %rdi
	call	pthread_cond_signal@PLT
	jmp	.L1027
	.p2align 4,,10
	.p2align 3
.L1028:
	cmpb	$0, 176(%rdi)
	je	.L1038
.L1031:
	cmpb	$0, 8(%rbp)
	jne	.L1039
.L1027:
	movq	24(%rsp), %rax
	xorq	%fs:40, %rax
	jne	.L1040
	addq	$40, %rsp
	.cfi_remember_state
	.cfi_def_cfa_offset 24
	popq	%rbx
	.cfi_def_cfa_offset 16
	popq	%rbp
	.cfi_def_cfa_offset 8
	ret
	.p2align 4,,10
	.p2align 3
.L1038:
	.cfi_restore_state
	movq	144(%rdi), %rax
	testq	%rax, %rax
	je	.L1031
	leaq	88(%rax), %rdx
	leaq	12(%rsp), %rcx
	movb	$1, 176(%rdi)
	movl	96(%rax), %edi
	movq	%rdx, 16(%rsp)
	movl	88(%rax), %edx
	movl	$3, %esi
	movl	$-2147483639, 12(%rsp)
	call	epoll_ctl@PLT
	cmpb	$0, 8(%rbp)
	je	.L1027
.L1039:
	movq	0(%rbp), %rdi
	call	pthread_mutex_unlock@PLT
	movb	$0, 8(%rbp)
	jmp	.L1027
	.p2align 4,,10
	.p2align 3
.L1037:
	movq	(%rsi), %rdi
	call	pthread_mutex_unlock@PLT
	movb	$0, 8(%rbp)
	leaq	88(%rbx), %rdi
	call	pthread_cond_signal@PLT
	jmp	.L1027
.L1040:
	call	__stack_chk_fail@PLT
	.cfi_endproc
.LFE3307:
	.size	_ZN4asio6detail15task_io_service26wake_one_thread_and_unlockERNS0_11scoped_lockINS0_11posix_mutexEEE, .-_ZN4asio6detail15task_io_service26wake_one_thread_and_unlockERNS0_11scoped_lockINS0_11posix_mutexEEE
	.section	.text._ZN4asio6detail13epoll_reactor32perform_io_cleanup_on_block_exitD2Ev,"axG",@progbits,_ZN4asio6detail13epoll_reactor32perform_io_cleanup_on_block_exitD5Ev,comdat
	.align 2
	.p2align 4
	.weak	_ZN4asio6detail13epoll_reactor32perform_io_cleanup_on_block_exitD2Ev
	.type	_ZN4asio6detail13epoll_reactor32perform_io_cleanup_on_block_exitD2Ev, @function
_ZN4asio6detail13epoll_reactor32perform_io_cleanup_on_block_exitD2Ev:
.LFB3261:
	.cfi_startproc
	.cfi_personality 0x9b,DW.ref.__gxx_personality_v0
	.cfi_lsda 0x1b,.LLSDA3261
	endbr64
	pushq	%r13
	.cfi_def_cfa_offset 16
	.cfi_offset 13, -16
	pushq	%r12
	.cfi_def_cfa_offset 24
	.cfi_offset 12, -24
	pushq	%rbp
	.cfi_def_cfa_offset 32
	.cfi_offset 6, -32
	pushq	%rbx
	.cfi_def_cfa_offset 40
	.cfi_offset 3, -40
	movq	%rdi, %rbx
	subq	$40, %rsp
	.cfi_def_cfa_offset 80
	movq	%fs:40, %rax
	movq	%rax, 24(%rsp)
	xorl	%eax, %eax
	cmpq	$0, 24(%rdi)
	je	.L1042
	movq	8(%rdi), %r12
	testq	%r12, %r12
	je	.L1041
	movq	(%rdi), %rax
	movq	40(%rax), %rbp
	cmpb	$0, 40(%rbp)
	je	.L1044
	data16	leaq	_ZN4asio6detail15keyword_tss_ptrINS0_10call_stackINS0_15task_io_serviceENS0_27task_io_service_thread_infoEE7contextEE6value_E@tlsgd(%rip), %rdi
	.value	0x6666
	rex64
	call	__tls_get_addr@PLT
	movq	(%rax), %rax
	testq	%rax, %rax
	jne	.L1047
	.p2align 4,,10
	.p2align 3
.L1044:
	leaq	48(%rbp), %rdi
	movq	%rdi, (%rsp)
	call	pthread_mutex_lock@PLT
	movq	8(%rbx), %rax
	movb	$1, 8(%rsp)
	testq	%rax, %rax
	je	.L1050
	movq	200(%rbp), %rdx
	testq	%rdx, %rdx
	je	.L1051
	movq	%rax, (%rdx)
.L1052:
	movq	16(%rbx), %rax
	pxor	%xmm0, %xmm0
	movq	%rax, 200(%rbp)
	movups	%xmm0, 8(%rbx)
.L1050:
	movq	%rsp, %r12
	movq	%rbp, %rdi
	movq	%r12, %rsi
	call	_ZN4asio6detail15task_io_service26wake_one_thread_and_unlockERNS0_11scoped_lockINS0_11posix_mutexEEE@PLT
	cmpb	$0, 8(%rsp)
	jne	.L1080
.L1053:
	movq	8(%rbx), %rbp
.L1055:
	testq	%rbp, %rbp
	je	.L1041
	call	_ZNSt3_V215system_categoryEv@PLT
	movq	%rsp, %r12
	movq	%rax, %r13
	jmp	.L1058
	.p2align 4,,10
	.p2align 3
.L1056:
	movq	$0, 0(%rbp)
	movq	8(%rbp), %rax
	xorl	%ecx, %ecx
	xorl	%edi, %edi
	movq	%rbp, %rsi
	movl	$0, (%rsp)
	movq	%r12, %rdx
	movq	%r13, 8(%rsp)
	call	*%rax
	movq	8(%rbx), %rbp
	testq	%rbp, %rbp
	je	.L1041
.L1058:
	movq	0(%rbp), %rax
	movq	%rax, 8(%rbx)
	testq	%rax, %rax
	jne	.L1056
	movq	$0, 16(%rbx)
	jmp	.L1056
	.p2align 4,,10
	.p2align 3
.L1045:
	movq	16(%rax), %rax
	testq	%rax, %rax
	je	.L1044
.L1047:
	cmpq	(%rax), %rbp
	jne	.L1045
	movq	8(%rax), %rax
	testq	%rax, %rax
	je	.L1044
	movq	16(%rax), %rdx
	testq	%rdx, %rdx
	je	.L1048
	movq	%r12, (%rdx)
.L1049:
	movq	16(%rbx), %rdx
	pxor	%xmm0, %xmm0
	movq	%rdx, 16(%rax)
	movups	%xmm0, 8(%rbx)
	.p2align 4,,10
	.p2align 3
.L1041:
	movq	24(%rsp), %rax
	xorq	%fs:40, %rax
	jne	.L1081
	addq	$40, %rsp
	.cfi_remember_state
	.cfi_def_cfa_offset 40
	popq	%rbx
	.cfi_def_cfa_offset 32
	popq	%rbp
	.cfi_def_cfa_offset 24
	popq	%r12
	.cfi_def_cfa_offset 16
	popq	%r13
	.cfi_def_cfa_offset 8
	ret
	.p2align 4,,10
	.p2align 3
.L1042:
	.cfi_restore_state
	movq	(%rdi), %rax
	movq	40(%rax), %rax
	lock addq	$1, 184(%rax)
	movq	8(%rdi), %rbp
	jmp	.L1055
	.p2align 4,,10
	.p2align 3
.L1080:
	movq	(%rsp), %rdi
	call	pthread_mutex_unlock@PLT
	jmp	.L1053
	.p2align 4,,10
	.p2align 3
.L1051:
	movq	%rax, 192(%rbp)
	jmp	.L1052
	.p2align 4,,10
	.p2align 3
.L1048:
	movq	%r12, 8(%rax)
	jmp	.L1049
.L1081:
	call	__stack_chk_fail@PLT
	.cfi_endproc
.LFE3261:
	.section	.gcc_except_table
.LLSDA3261:
	.byte	0xff
	.byte	0xff
	.byte	0x1
	.uleb128 .LLSDACSE3261-.LLSDACSB3261
.LLSDACSB3261:
.LLSDACSE3261:
	.section	.text._ZN4asio6detail13epoll_reactor32perform_io_cleanup_on_block_exitD2Ev,"axG",@progbits,_ZN4asio6detail13epoll_reactor32perform_io_cleanup_on_block_exitD5Ev,comdat
	.size	_ZN4asio6detail13epoll_reactor32perform_io_cleanup_on_block_exitD2Ev, .-_ZN4asio6detail13epoll_reactor32perform_io_cleanup_on_block_exitD2Ev
	.weak	_ZN4asio6detail13epoll_reactor32perform_io_cleanup_on_block_exitD1Ev
	.set	_ZN4asio6detail13epoll_reactor32perform_io_cleanup_on_block_exitD1Ev,_ZN4asio6detail13epoll_reactor32perform_io_cleanup_on_block_exitD2Ev
	.section	.text._ZN4asio6detail13epoll_reactor16descriptor_state11do_completeEPNS0_15task_io_serviceEPNS0_25task_io_service_operationERKSt10error_codem,"axG",@progbits,_ZN4asio6detail13epoll_reactor16descriptor_state11do_completeEPNS0_15task_io_serviceEPNS0_25task_io_service_operationERKSt10error_codem,comdat
	.align 2
	.p2align 4
	.weak	_ZN4asio6detail13epoll_reactor16descriptor_state11do_completeEPNS0_15task_io_serviceEPNS0_25task_io_service_operationERKSt10error_codem
	.type	_ZN4asio6detail13epoll_reactor16descriptor_state11do_completeEPNS0_15task_io_serviceEPNS0_25task_io_service_operationERKSt10error_codem, @function
_ZN4asio6detail13epoll_reactor16descriptor_state11do_completeEPNS0_15task_io_serviceEPNS0_25task_io_service_operationERKSt10error_codem:
.LFB3267:
	.cfi_startproc
	.cfi_personality 0x9b,DW.ref.__gxx_personality_v0
	.cfi_lsda 0x1b,.LLSDA3267
	endbr64
	pushq	%r15
	.cfi_def_cfa_offset 16
	.cfi_offset 15, -16
	pushq	%r14
	.cfi_def_cfa_offset 24
	.cfi_offset 14, -24
	pushq	%r13
	.cfi_def_cfa_offset 32
	.cfi_offset 13, -32
	pushq	%r12
	.cfi_def_cfa_offset 40
	.cfi_offset 12, -40
	pushq	%rbp
	.cfi_def_cfa_offset 48
	.cfi_offset 6, -48
	pushq	%rbx
	.cfi_def_cfa_offset 56
	.cfi_offset 3, -56
	subq	$88, %rsp
	.cfi_def_cfa_offset 144
	movq	%fs:40, %rax
	movq	%rax, 72(%rsp)
	xorl	%eax, %eax
	testq	%rdi, %rdi
	je	.L1082
	leaq	40(%rsi), %r15
	movq	%rsi, %rbx
	movq	%rdi, %r13
	movl	%ecx, (%rsp)
	movq	%r15, %rdi
	movq	%rdx, %r14
	subq	$-128, %rbx
	call	pthread_mutex_lock@PLT
	movq	-48(%rbx), %rax
	movq	_ZZN4asio6detail13epoll_reactor16descriptor_state10perform_ioEjE4flag@GOTPCREL(%rip), %r12
	movq	$0, 40(%rsp)
	movq	$0, 48(%rsp)
	movq	%rax, 32(%rsp)
	leaq	-12(%r12), %rax
	movq	$0, 56(%rsp)
	movq	%rax, 8(%rsp)
.L1091:
	movl	8(%r12), %eax
	orl	$24, %eax
	testl	%eax, (%rsp)
	jne	.L1157
.L1085:
	subq	$4, %r12
	subq	$16, %rbx
	cmpq	%r12, 8(%rsp)
	jne	.L1091
	movq	40(%rsp), %rbx
	movq	%rbx, 56(%rsp)
	testq	%rbx, %rbx
	je	.L1092
	movq	(%rbx), %rax
	movq	%rax, 40(%rsp)
	testq	%rax, %rax
	je	.L1158
.L1093:
	movq	$0, (%rbx)
.L1092:
	movq	%r15, %rdi
	call	pthread_mutex_unlock@PLT
	cmpq	$0, 56(%rsp)
	je	.L1094
	movq	40(%rsp), %r12
	testq	%r12, %r12
	je	.L1095
	movq	32(%rsp), %rax
	movq	40(%rax), %rbp
	cmpb	$0, 40(%rbp)
	je	.L1096
	data16	leaq	_ZN4asio6detail15keyword_tss_ptrINS0_10call_stackINS0_15task_io_serviceENS0_27task_io_service_thread_infoEE7contextEE6value_E@tlsgd(%rip), %rdi
	.value	0x6666
	rex64
	call	__tls_get_addr@PLT
	movq	(%rax), %rax
	testq	%rax, %rax
	jne	.L1099
	jmp	.L1096
	.p2align 4,,10
	.p2align 3
.L1097:
	movq	16(%rax), %rax
	testq	%rax, %rax
	je	.L1096
.L1099:
	cmpq	(%rax), %rbp
	jne	.L1097
	movq	8(%rax), %rax
	testq	%rax, %rax
	je	.L1096
	movq	16(%rax), %rdx
	testq	%rdx, %rdx
	je	.L1100
	movq	%r12, (%rdx)
.L1101:
	movq	48(%rsp), %rdx
	movq	%rdx, 16(%rax)
	.p2align 4,,10
	.p2align 3
.L1095:
	testq	%rbx, %rbx
	je	.L1082
	xorl	%ecx, %ecx
	movq	%r14, %rdx
	movq	%rbx, %rsi
	movq	%r13, %rdi
.LEHB16:
	call	*8(%rbx)
.LEHE16:
.L1082:
	movq	72(%rsp), %rax
	xorq	%fs:40, %rax
	jne	.L1159
	addq	$88, %rsp
	.cfi_remember_state
	.cfi_def_cfa_offset 56
	popq	%rbx
	.cfi_def_cfa_offset 48
	popq	%rbp
	.cfi_def_cfa_offset 40
	popq	%r12
	.cfi_def_cfa_offset 32
	popq	%r13
	.cfi_def_cfa_offset 24
	popq	%r14
	.cfi_def_cfa_offset 16
	popq	%r15
	.cfi_def_cfa_offset 8
	ret
	.p2align 4,,10
	.p2align 3
.L1157:
	.cfi_restore_state
	movq	(%rbx), %rbp
	testq	%rbp, %rbp
	jne	.L1086
	jmp	.L1085
	.p2align 4,,10
	.p2align 3
.L1161:
	movq	%rbp, (%rdx)
	movq	%rbp, 48(%rsp)
.L1090:
	testq	%rax, %rax
	je	.L1085
	movq	%rax, %rbp
.L1086:
	movq	%rbp, %rdi
.LEHB17:
	call	*48(%rbp)
.LEHE17:
	testb	%al, %al
	je	.L1085
	movq	(%rbx), %rax
	testq	%rax, %rax
	je	.L1087
	movq	(%rax), %rdx
	movq	%rdx, (%rbx)
	testq	%rdx, %rdx
	je	.L1160
.L1088:
	movq	$0, (%rax)
	movq	%rdx, %rax
.L1087:
	movq	48(%rsp), %rdx
	movq	$0, 0(%rbp)
	testq	%rdx, %rdx
	jne	.L1161
	movq	%rbp, %xmm0
	punpcklqdq	%xmm0, %xmm0
	movups	%xmm0, 40(%rsp)
	jmp	.L1090
	.p2align 4,,10
	.p2align 3
.L1160:
	movq	$0, 8(%rbx)
	jmp	.L1088
	.p2align 4,,10
	.p2align 3
.L1094:
	movq	32(%rsp), %rax
	movq	40(%rax), %rax
	lock addq	$1, 184(%rax)
.L1106:
	movq	40(%rsp), %rsi
	testq	%rsi, %rsi
	movq	%rsi, (%rsp)
	je	.L1095
	call	_ZNSt3_V215system_categoryEv@PLT
	leaq	16(%rsp), %r12
	movq	(%rsp), %rsi
	movq	%rax, %rbp
	jmp	.L1109
	.p2align 4,,10
	.p2align 3
.L1107:
	movq	$0, (%rsi)
	movq	8(%rsi), %rax
	xorl	%ecx, %ecx
	movq	%r12, %rdx
	movl	$0, 16(%rsp)
	xorl	%edi, %edi
	movq	%rbp, 24(%rsp)
	call	*%rax
	movq	40(%rsp), %rsi
	testq	%rsi, %rsi
	je	.L1095
.L1109:
	movq	(%rsi), %rax
	movq	%rax, 40(%rsp)
	testq	%rax, %rax
	jne	.L1107
	movq	$0, 48(%rsp)
	jmp	.L1107
	.p2align 4,,10
	.p2align 3
.L1096:
	leaq	48(%rbp), %rdi
	movq	%rdi, 16(%rsp)
	call	pthread_mutex_lock@PLT
	movq	40(%rsp), %rax
	movb	$1, 24(%rsp)
	testq	%rax, %rax
	je	.L1102
	movq	200(%rbp), %rdx
	testq	%rdx, %rdx
	je	.L1103
	movq	%rax, (%rdx)
.L1104:
	movq	48(%rsp), %rax
	pxor	%xmm0, %xmm0
	movups	%xmm0, 40(%rsp)
	movq	%rax, 200(%rbp)
.L1102:
	leaq	16(%rsp), %r12
	movq	%rbp, %rdi
	movq	%r12, %rsi
	call	_ZN4asio6detail15task_io_service26wake_one_thread_and_unlockERNS0_11scoped_lockINS0_11posix_mutexEEE@PLT
	cmpb	$0, 24(%rsp)
	je	.L1106
	movq	16(%rsp), %rdi
	call	pthread_mutex_unlock@PLT
	jmp	.L1106
	.p2align 4,,10
	.p2align 3
.L1158:
	movq	$0, 48(%rsp)
	jmp	.L1093
	.p2align 4,,10
	.p2align 3
.L1100:
	movq	%r12, 8(%rax)
	jmp	.L1101
	.p2align 4,,10
	.p2align 3
.L1103:
	movq	%rax, 192(%rbp)
	jmp	.L1104
.L1159:
	call	__stack_chk_fail@PLT
.L1114:
	endbr64
	movq	%rax, %rbp
.L1110:
	movq	%r15, %rdi
	call	pthread_mutex_unlock@PLT
	leaq	32(%rsp), %rdi
	call	_ZN4asio6detail13epoll_reactor32perform_io_cleanup_on_block_exitD1Ev@PLT
	movq	%rbp, %rdi
.LEHB18:
	call	_Unwind_Resume@PLT
.LEHE18:
	.cfi_endproc
.LFE3267:
	.section	.gcc_except_table
.LLSDA3267:
	.byte	0xff
	.byte	0xff
	.byte	0x1
	.uleb128 .LLSDACSE3267-.LLSDACSB3267
.LLSDACSB3267:
	.uleb128 .LEHB16-.LFB3267
	.uleb128 .LEHE16-.LEHB16
	.uleb128 0
	.uleb128 0
	.uleb128 .LEHB17-.LFB3267
	.uleb128 .LEHE17-.LEHB17
	.uleb128 .L1114-.LFB3267
	.uleb128 0
	.uleb128 .LEHB18-.LFB3267
	.uleb128 .LEHE18-.LEHB18
	.uleb128 0
	.uleb128 0
.LLSDACSE3267:
	.section	.text._ZN4asio6detail13epoll_reactor16descriptor_state11do_completeEPNS0_15task_io_serviceEPNS0_25task_io_service_operationERKSt10error_codem,"axG",@progbits,_ZN4asio6detail13epoll_reactor16descriptor_state11do_completeEPNS0_15task_io_serviceEPNS0_25task_io_service_operationERKSt10error_codem,comdat
	.size	_ZN4asio6detail13epoll_reactor16descriptor_state11do_completeEPNS0_15task_io_serviceEPNS0_25task_io_service_operationERKSt10error_codem, .-_ZN4asio6detail13epoll_reactor16descriptor_state11do_completeEPNS0_15task_io_serviceEPNS0_25task_io_service_operationERKSt10error_codem
	.section	.text._ZN4asio6detail13epoll_reactor21deregister_descriptorEiRPNS1_16descriptor_stateEb,"axG",@progbits,_ZN4asio6detail13epoll_reactor21deregister_descriptorEiRPNS1_16descriptor_stateEb,comdat
	.align 2
	.p2align 4
	.weak	_ZN4asio6detail13epoll_reactor21deregister_descriptorEiRPNS1_16descriptor_stateEb
	.type	_ZN4asio6detail13epoll_reactor21deregister_descriptorEiRPNS1_16descriptor_stateEb, @function
_ZN4asio6detail13epoll_reactor21deregister_descriptorEiRPNS1_16descriptor_stateEb:
.LFB3244:
	.cfi_startproc
	endbr64
	pushq	%r15
	.cfi_def_cfa_offset 16
	.cfi_offset 15, -16
	pushq	%r14
	.cfi_def_cfa_offset 24
	.cfi_offset 14, -24
	pushq	%r13
	.cfi_def_cfa_offset 32
	.cfi_offset 13, -32
	pushq	%r12
	.cfi_def_cfa_offset 40
	.cfi_offset 12, -40
	pushq	%rbp
	.cfi_def_cfa_offset 48
	.cfi_offset 6, -48
	pushq	%rbx
	.cfi_def_cfa_offset 56
	.cfi_offset 3, -56
	subq	$72, %rsp
	.cfi_def_cfa_offset 128
	movq	(%rdx), %r12
	movq	%rdi, 16(%rsp)
	movq	%fs:40, %rax
	movq	%rax, 56(%rsp)
	xorl	%eax, %eax
	testq	%r12, %r12
	je	.L1162
	leaq	40(%r12), %rax
	movq	%rdx, %r14
	movl	%esi, %r13d
	movl	%ecx, %ebx
	movq	%rax, %rdi
	movq	%rax, 24(%rsp)
	call	pthread_mutex_lock@PLT
	movq	(%r14), %r10
	cmpb	$0, 144(%r10)
	jne	.L1164
	testb	%bl, %bl
	je	.L1222
.L1165:
	movq	$0, 8(%rsp)
	movl	$96, %r12d
	xorl	%r15d, %r15d
.L1175:
	movq	(%r10,%r12), %rbx
	testq	%rbx, %rbx
	je	.L1166
	movq	_ZGVZN4asio15system_categoryEvE8instance@GOTPCREL(%rip), %r13
	movq	_ZZN4asio15system_categoryEvE8instance@GOTPCREL(%rip), %rbp
	movzbl	0(%r13), %eax
	testb	%al, %al
	je	.L1223
	.p2align 4,,10
	.p2align 3
.L1169:
	movq	(%r14), %r10
	movl	$125, 24(%rbx)
	movq	%rbp, 32(%rbx)
	leaq	(%r10,%r12), %rdi
	movq	(%rdi), %rax
	testq	%rax, %rax
	je	.L1171
	movq	(%rax), %rdx
	movq	%rdx, (%rdi)
	testq	%rdx, %rdx
	je	.L1224
	movq	$0, (%rax)
	movq	$0, (%rbx)
	testq	%r15, %r15
	je	.L1225
.L1189:
	movq	%rbx, (%r15)
	testq	%rdx, %rdx
	je	.L1173
.L1174:
	movzbl	0(%r13), %eax
	movq	%rbx, %r15
	movq	%rdx, %rbx
	testb	%al, %al
	jne	.L1169
.L1223:
	movq	%r13, %rdi
	call	__cxa_guard_acquire@PLT
	testl	%eax, %eax
	je	.L1169
	movq	_ZN4asio6detail15system_categoryD1Ev@GOTPCREL(%rip), %rdi
	leaq	__dso_handle(%rip), %rdx
	movq	%rbp, %rsi
	call	__cxa_atexit@PLT
	movq	%r13, %rdi
	call	__cxa_guard_release@PLT
	jmp	.L1169
	.p2align 4,,10
	.p2align 3
.L1171:
	movq	$0, (%rbx)
	testq	%r15, %r15
	je	.L1192
	movq	%rbx, (%r15)
.L1173:
	movq	%rbx, %r15
.L1166:
	addq	$16, %r12
	cmpq	$144, %r12
	jne	.L1175
	movl	$-1, 88(%r10)
	movq	24(%rsp), %rdi
	movb	$1, 144(%r10)
	call	pthread_mutex_unlock@PLT
	movq	16(%rsp), %rbp
	movq	(%r14), %rbx
	leaq	120(%rbp), %r12
	movq	%r12, %rdi
	call	pthread_mutex_lock@PLT
	cmpq	160(%rbp), %rbx
	je	.L1226
.L1176:
	movq	32(%rbx), %rdx
	movq	24(%rbx), %rax
	testq	%rdx, %rdx
	je	.L1177
	movq	%rax, 24(%rdx)
	movq	24(%rbx), %rax
.L1177:
	testq	%rax, %rax
	je	.L1178
	movq	32(%rbx), %rdx
	movq	%rdx, 32(%rax)
.L1178:
	movq	16(%rsp), %rbp
	movq	%r12, %rdi
	movq	168(%rbp), %rax
	movq	$0, 32(%rbx)
	movq	%rax, 24(%rbx)
	movq	%rbx, 168(%rbp)
	call	pthread_mutex_unlock@PLT
	cmpq	$0, 8(%rsp)
	movq	$0, (%r14)
	je	.L1162
	movq	40(%rbp), %rbp
	cmpb	$0, 40(%rbp)
	jne	.L1227
.L1180:
	leaq	48(%rbp), %rdi
	movq	%rdi, 32(%rsp)
	call	pthread_mutex_lock@PLT
	movq	200(%rbp), %rax
	movb	$1, 40(%rsp)
	testq	%rax, %rax
	je	.L1186
	movq	8(%rsp), %rcx
	movq	%rcx, (%rax)
.L1187:
	movq	%r15, 200(%rbp)
	leaq	32(%rsp), %rsi
	movq	%rbp, %rdi
	call	_ZN4asio6detail15task_io_service26wake_one_thread_and_unlockERNS0_11scoped_lockINS0_11posix_mutexEEE@PLT
	cmpb	$0, 40(%rsp)
	je	.L1162
	movq	32(%rsp), %rdi
	call	pthread_mutex_unlock@PLT
	.p2align 4,,10
	.p2align 3
.L1162:
	movq	56(%rsp), %rax
	xorq	%fs:40, %rax
	jne	.L1228
	addq	$72, %rsp
	.cfi_remember_state
	.cfi_def_cfa_offset 56
	popq	%rbx
	.cfi_def_cfa_offset 48
	popq	%rbp
	.cfi_def_cfa_offset 40
	popq	%r12
	.cfi_def_cfa_offset 32
	popq	%r13
	.cfi_def_cfa_offset 24
	popq	%r14
	.cfi_def_cfa_offset 16
	popq	%r15
	.cfi_def_cfa_offset 8
	ret
	.p2align 4,,10
	.p2align 3
.L1164:
	.cfi_restore_state
	movq	24(%rsp), %rdi
	call	pthread_mutex_unlock@PLT
	jmp	.L1162
	.p2align 4,,10
	.p2align 3
.L1224:
	movq	$0, 8(%rdi)
	movq	$0, (%rax)
	movq	$0, (%rbx)
	testq	%r15, %r15
	jne	.L1189
	.p2align 4,,10
	.p2align 3
.L1192:
	movq	%rbx, 8(%rsp)
	jmp	.L1173
	.p2align 4,,10
	.p2align 3
.L1225:
	movq	%rbx, 8(%rsp)
	jmp	.L1174
	.p2align 4,,10
	.p2align 3
.L1227:
	data16	leaq	_ZN4asio6detail15keyword_tss_ptrINS0_10call_stackINS0_15task_io_serviceENS0_27task_io_service_thread_infoEE7contextEE6value_E@tlsgd(%rip), %rdi
	.value	0x6666
	rex64
	call	__tls_get_addr@PLT
	movq	(%rax), %rax
	testq	%rax, %rax
	jne	.L1183
	jmp	.L1180
	.p2align 4,,10
	.p2align 3
.L1181:
	movq	16(%rax), %rax
	testq	%rax, %rax
	je	.L1180
.L1183:
	cmpq	(%rax), %rbp
	jne	.L1181
	movq	8(%rax), %rax
	testq	%rax, %rax
	je	.L1180
	movq	16(%rax), %rdx
	movq	8(%rsp), %rcx
	testq	%rdx, %rdx
	je	.L1184
	movq	%rcx, (%rdx)
.L1185:
	movq	%r15, 16(%rax)
	jmp	.L1162
	.p2align 4,,10
	.p2align 3
.L1222:
	movq	16(%rsp), %rax
	leaq	32(%rsp), %rcx
	movl	%r13d, %edx
	movl	$2, %esi
	movl	$0, 32(%rsp)
	movq	$0, 36(%rsp)
	movl	96(%rax), %edi
	call	epoll_ctl@PLT
	movq	(%r14), %r10
	jmp	.L1165
	.p2align 4,,10
	.p2align 3
.L1226:
	movq	24(%rbx), %rax
	movq	16(%rsp), %rcx
	movq	%rax, 160(%rcx)
	jmp	.L1176
.L1186:
	movq	8(%rsp), %rax
	movq	%rax, 192(%rbp)
	jmp	.L1187
.L1184:
	movq	%rcx, 8(%rax)
	jmp	.L1185
.L1228:
	call	__stack_chk_fail@PLT
	.cfi_endproc
.LFE3244:
	.size	_ZN4asio6detail13epoll_reactor21deregister_descriptorEiRPNS1_16descriptor_stateEb, .-_ZN4asio6detail13epoll_reactor21deregister_descriptorEiRPNS1_16descriptor_stateEb
	.section	.text._ZN4asio6detail10socket_ops5closeEiRhbRSt10error_code,"axG",@progbits,_ZN4asio6detail10socket_ops5closeEiRhbRSt10error_code,comdat
	.p2align 4
	.weak	_ZN4asio6detail10socket_ops5closeEiRhbRSt10error_code
	.type	_ZN4asio6detail10socket_ops5closeEiRhbRSt10error_code, @function
_ZN4asio6detail10socket_ops5closeEiRhbRSt10error_code:
.LFB3646:
	.cfi_startproc
	endbr64
	pushq	%r14
	.cfi_def_cfa_offset 16
	.cfi_offset 14, -16
	pushq	%r13
	.cfi_def_cfa_offset 24
	.cfi_offset 13, -24
	pushq	%r12
	.cfi_def_cfa_offset 32
	.cfi_offset 12, -32
	pushq	%rbp
	.cfi_def_cfa_offset 40
	.cfi_offset 6, -40
	pushq	%rbx
	.cfi_def_cfa_offset 48
	.cfi_offset 3, -48
	movq	%rcx, %rbx
	subq	$16, %rsp
	.cfi_def_cfa_offset 64
	movq	%fs:40, %rax
	movq	%rax, 8(%rsp)
	xorl	%eax, %eax
	cmpl	$-1, %edi
	je	.L1233
	movl	%edi, %ebp
	movq	%rsi, %r13
	movl	%edx, %r12d
	call	__errno_location@PLT
	movq	%rax, %r14
	testb	%r12b, %r12b
	je	.L1232
	movzbl	0(%r13), %eax
	testb	$8, %al
	jne	.L1247
.L1232:
	movl	$0, (%r14)
	movl	%ebp, %edi
	call	close@PLT
	movl	%eax, %r12d
	call	_ZN4asio15system_categoryEv@PLT
	movl	(%r14), %edx
	movq	%rax, 8(%rbx)
	movl	%edx, (%rbx)
	testl	%r12d, %r12d
	jne	.L1248
.L1233:
	call	_ZNSt3_V215system_categoryEv@PLT
	movl	$0, (%rbx)
	xorl	%r12d, %r12d
	movq	%rax, 8(%rbx)
.L1229:
	movq	8(%rsp), %rax
	xorq	%fs:40, %rax
	jne	.L1249
	addq	$16, %rsp
	.cfi_remember_state
	.cfi_def_cfa_offset 48
	movl	%r12d, %eax
	popq	%rbx
	.cfi_def_cfa_offset 40
	popq	%rbp
	.cfi_def_cfa_offset 32
	popq	%r12
	.cfi_def_cfa_offset 24
	popq	%r13
	.cfi_def_cfa_offset 16
	popq	%r14
	.cfi_def_cfa_offset 8
	ret
	.p2align 4,,10
	.p2align 3
.L1248:
	.cfi_restore_state
	call	_ZN4asio15system_categoryEv@PLT
	cmpq	%rax, 8(%rbx)
	je	.L1250
.L1234:
	call	_ZN4asio15system_categoryEv@PLT
	cmpq	%rax, 8(%rbx)
	jne	.L1229
	cmpl	$11, (%rbx)
	jne	.L1229
.L1235:
	movq	%rsp, %rdx
	movl	$21537, %esi
	movl	%ebp, %edi
	xorl	%eax, %eax
	movl	$0, (%rsp)
	call	ioctl@PLT
	andb	$-4, 0(%r13)
	movl	%ebp, %edi
	movl	$0, (%r14)
	call	close@PLT
	movl	%eax, %r12d
	call	_ZN4asio15system_categoryEv@PLT
	movl	(%r14), %edx
	movq	%rax, 8(%rbx)
	movl	%edx, (%rbx)
	testl	%r12d, %r12d
	jne	.L1229
	jmp	.L1233
	.p2align 4,,10
	.p2align 3
.L1247:
	orl	$8, %eax
	movq	%rsp, %rcx
	movl	$8, %r8d
	movl	%ebp, %edi
	movb	%al, 0(%r13)
	movl	$13, %edx
	movl	$1, %esi
	movl	$0, (%r14)
	movq	$0, (%rsp)
	call	setsockopt@PLT
	call	_ZN4asio15system_categoryEv@PLT
	jmp	.L1232
	.p2align 4,,10
	.p2align 3
.L1250:
	cmpl	$11, (%rbx)
	jne	.L1234
	jmp	.L1235
.L1249:
	call	__stack_chk_fail@PLT
	.cfi_endproc
.LFE3646:
	.size	_ZN4asio6detail10socket_ops5closeEiRhbRSt10error_code, .-_ZN4asio6detail10socket_ops5closeEiRhbRSt10error_code
	.text
	.align 2
	.p2align 4
	.type	_ZN4asio6detail28reactive_socket_service_base7destroyERNS1_24base_implementation_typeE.isra.0, @function
_ZN4asio6detail28reactive_socket_service_base7destroyERNS1_24base_implementation_typeE.isra.0:
.LFB10346:
	.cfi_startproc
	pushq	%rbx
	.cfi_def_cfa_offset 16
	.cfi_offset 3, -16
	movq	%rsi, %rbx
	subq	$32, %rsp
	.cfi_def_cfa_offset 48
	movl	(%rsi), %esi
	movq	%fs:40, %rax
	movq	%rax, 24(%rsp)
	xorl	%eax, %eax
	cmpl	$-1, %esi
	je	.L1251
	movzbl	4(%rbx), %ecx
	movq	(%rdi), %rdi
	leaq	8(%rbx), %rdx
	shrb	$6, %cl
	xorl	$1, %ecx
	andl	$1, %ecx
	call	_ZN4asio6detail13epoll_reactor21deregister_descriptorEiRPNS1_16descriptor_stateEb@PLT
	movl	$0, (%rsp)
	call	_ZNSt3_V215system_categoryEv@PLT
	movl	(%rbx), %edi
	movq	%rsp, %rcx
	leaq	4(%rbx), %rsi
	movl	$1, %edx
	movq	%rax, 8(%rsp)
	call	_ZN4asio6detail10socket_ops5closeEiRhbRSt10error_code@PLT
.L1251:
	movq	24(%rsp), %rax
	xorq	%fs:40, %rax
	jne	.L1258
	addq	$32, %rsp
	.cfi_remember_state
	.cfi_def_cfa_offset 16
	popq	%rbx
	.cfi_def_cfa_offset 8
	ret
.L1258:
	.cfi_restore_state
	call	__stack_chk_fail@PLT
	.cfi_endproc
.LFE10346:
	.size	_ZN4asio6detail28reactive_socket_service_base7destroyERNS1_24base_implementation_typeE.isra.0, .-_ZN4asio6detail28reactive_socket_service_base7destroyERNS1_24base_implementation_typeE.isra.0
	.section	.text._ZN4asio6detail13socket_holderD2Ev,"axG",@progbits,_ZN4asio6detail13socket_holderD5Ev,comdat
	.align 2
	.p2align 4
	.weak	_ZN4asio6detail13socket_holderD2Ev
	.type	_ZN4asio6detail13socket_holderD2Ev, @function
_ZN4asio6detail13socket_holderD2Ev:
.LFB3716:
	.cfi_startproc
	.cfi_personality 0x9b,DW.ref.__gxx_personality_v0
	.cfi_lsda 0x1b,.LLSDA3716
	endbr64
	pushq	%rbp
	.cfi_def_cfa_offset 16
	.cfi_offset 6, -16
	subq	$48, %rsp
	.cfi_def_cfa_offset 64
	movl	(%rdi), %ebp
	movq	%fs:40, %rax
	movq	%rax, 40(%rsp)
	xorl	%eax, %eax
	cmpl	$-1, %ebp
	je	.L1259
	movl	$0, 16(%rsp)
	call	_ZNSt3_V215system_categoryEv@PLT
	leaq	16(%rsp), %rcx
	leaq	15(%rsp), %rsi
	movl	%ebp, %edi
	movl	$1, %edx
	movq	%rax, 24(%rsp)
	movb	$0, 15(%rsp)
	call	_ZN4asio6detail10socket_ops5closeEiRhbRSt10error_code@PLT
.L1259:
	movq	40(%rsp), %rax
	xorq	%fs:40, %rax
	jne	.L1266
	addq	$48, %rsp
	.cfi_remember_state
	.cfi_def_cfa_offset 16
	popq	%rbp
	.cfi_def_cfa_offset 8
	ret
.L1266:
	.cfi_restore_state
	call	__stack_chk_fail@PLT
	.cfi_endproc
.LFE3716:
	.section	.gcc_except_table
.LLSDA3716:
	.byte	0xff
	.byte	0xff
	.byte	0x1
	.uleb128 .LLSDACSE3716-.LLSDACSB3716
.LLSDACSB3716:
.LLSDACSE3716:
	.section	.text._ZN4asio6detail13socket_holderD2Ev,"axG",@progbits,_ZN4asio6detail13socket_holderD5Ev,comdat
	.size	_ZN4asio6detail13socket_holderD2Ev, .-_ZN4asio6detail13socket_holderD2Ev
	.weak	_ZN4asio6detail13socket_holderD1Ev
	.set	_ZN4asio6detail13socket_holderD1Ev,_ZN4asio6detail13socket_holderD2Ev
	.section	.text._ZN4asio6detail28reactive_socket_service_base16start_connect_opERNS1_24base_implementation_typeEPNS0_10reactor_opEbPK8sockaddrm,"axG",@progbits,_ZN4asio6detail28reactive_socket_service_base16start_connect_opERNS1_24base_implementation_typeEPNS0_10reactor_opEbPK8sockaddrm,comdat
	.align 2
	.p2align 4
	.weak	_ZN4asio6detail28reactive_socket_service_base16start_connect_opERNS1_24base_implementation_typeEPNS0_10reactor_opEbPK8sockaddrm
	.type	_ZN4asio6detail28reactive_socket_service_base16start_connect_opERNS1_24base_implementation_typeEPNS0_10reactor_opEbPK8sockaddrm, @function
_ZN4asio6detail28reactive_socket_service_base16start_connect_opERNS1_24base_implementation_typeEPNS0_10reactor_opEbPK8sockaddrm:
.LFB3806:
	.cfi_startproc
	endbr64
	pushq	%r15
	.cfi_def_cfa_offset 16
	.cfi_offset 15, -16
	pushq	%r14
	.cfi_def_cfa_offset 24
	.cfi_offset 14, -24
	movq	%r8, %r14
	pushq	%r13
	.cfi_def_cfa_offset 32
	.cfi_offset 13, -32
	movq	%rdi, %r13
	pushq	%r12
	.cfi_def_cfa_offset 40
	.cfi_offset 12, -40
	movq	%rsi, %r12
	pushq	%rbp
	.cfi_def_cfa_offset 48
	.cfi_offset 6, -48
	movq	%rdx, %rbp
	pushq	%rbx
	.cfi_def_cfa_offset 56
	.cfi_offset 3, -56
	movl	%ecx, %ebx
	subq	$56, %rsp
	.cfi_def_cfa_offset 112
	movl	(%rsi), %r15d
	movq	%r9, (%rsp)
	movq	%fs:40, %rax
	movq	%rax, 40(%rsp)
	xorl	%eax, %eax
	testb	$3, 4(%rsi)
	jne	.L1268
	cmpl	$-1, %r15d
	je	.L1287
	call	__errno_location@PLT
	movl	%r15d, %edi
	leaq	28(%rsp), %rdx
	movl	$21537, %esi
	movl	$0, (%rax)
	movq	%rax, 8(%rsp)
	xorl	%eax, %eax
	movl	$1, 28(%rsp)
	call	ioctl@PLT
	movl	%eax, %r15d
	call	_ZN4asio15system_categoryEv@PLT
	movq	8(%rsp), %rcx
	movl	(%rcx), %ecx
	movq	%rax, 32(%rbp)
	movl	%ecx, 24(%rbp)
	testl	%r15d, %r15d
	js	.L1270
	call	_ZNSt3_V215system_categoryEv@PLT
	movl	$0, 24(%rbp)
	movl	(%r12), %r15d
	movq	%rax, 32(%rbp)
	orb	$2, 4(%r12)
.L1268:
	cmpl	$-1, %r15d
	je	.L1288
	call	__errno_location@PLT
	movl	(%rsp), %edx
	movq	%r14, %rsi
	movl	%r15d, %edi
	movl	$0, (%rax)
	movq	%rax, 8(%rsp)
	call	connect@PLT
	movl	%eax, %r14d
	call	_ZN4asio15system_categoryEv@PLT
	movq	8(%rsp), %rcx
	movl	(%rcx), %edx
	movq	%rax, 32(%rbp)
	movl	%edx, 24(%rbp)
	testl	%r14d, %r14d
	jne	.L1274
	call	_ZNSt3_V215system_categoryEv@PLT
	movl	$0, 24(%rbp)
	movq	%rax, 32(%rbp)
.L1270:
	movq	0(%r13), %rax
	movzbl	%bl, %edx
	movq	%rbp, %rsi
	movq	40(%rax), %rdi
	call	_ZN4asio6detail15task_io_service25post_immediate_completionEPNS0_25task_io_service_operationEb@PLT
.L1267:
	movq	40(%rsp), %rax
	xorq	%fs:40, %rax
	jne	.L1289
	addq	$56, %rsp
	.cfi_remember_state
	.cfi_def_cfa_offset 56
	popq	%rbx
	.cfi_def_cfa_offset 48
	popq	%rbp
	.cfi_def_cfa_offset 40
	popq	%r12
	.cfi_def_cfa_offset 32
	popq	%r13
	.cfi_def_cfa_offset 24
	popq	%r14
	.cfi_def_cfa_offset 16
	popq	%r15
	.cfi_def_cfa_offset 8
	ret
	.p2align 4,,10
	.p2align 3
.L1274:
	.cfi_restore_state
	call	_ZN4asio15system_categoryEv@PLT
	cmpq	%rax, 32(%rbp)
	je	.L1290
.L1273:
	call	_ZN4asio15system_categoryEv@PLT
	cmpq	%rax, 32(%rbp)
	je	.L1291
.L1275:
	call	_ZN4asio15system_categoryEv@PLT
	cmpq	%rax, 32(%rbp)
	jne	.L1270
	cmpl	$11, 24(%rbp)
	jne	.L1270
.L1278:
	call	_ZNSt3_V215system_categoryEv@PLT
	movzbl	%bl, %r14d
	movl	$0, 24(%rbp)
	movq	0(%r13), %r13
	movq	%rax, 32(%rbp)
	movq	8(%r12), %rax
	testq	%rax, %rax
	je	.L1292
	leaq	40(%rax), %rbx
	movl	(%r12), %r15d
	movq	%rbx, %rdi
	call	pthread_mutex_lock@PLT
	movq	8(%r12), %rax
	cmpb	$0, 144(%rax)
	jne	.L1293
	cmpq	$0, 112(%rax)
	je	.L1294
.L1281:
	movq	120(%rax), %rdx
	movq	$0, 0(%rbp)
	testq	%rdx, %rdx
	je	.L1282
	movq	%rbp, (%rdx)
	movq	%rbp, 120(%rax)
.L1283:
	movq	40(%r13), %rax
	lock addq	$1, 184(%rax)
	movq	%rbx, %rdi
	call	pthread_mutex_unlock@PLT
	jmp	.L1267
	.p2align 4,,10
	.p2align 3
.L1291:
	cmpl	$115, 24(%rbp)
	jne	.L1275
	jmp	.L1278
	.p2align 4,,10
	.p2align 3
.L1290:
	cmpl	$11, 24(%rbp)
	jne	.L1273
	call	_ZN4asio15system_categoryEv@PLT
	movl	$105, 24(%rbp)
	movq	%rax, 32(%rbp)
	jmp	.L1273
	.p2align 4,,10
	.p2align 3
.L1287:
	call	_ZN4asio15system_categoryEv@PLT
	movl	$9, 24(%rbp)
	movq	%rax, 32(%rbp)
	jmp	.L1270
.L1282:
	movq	%rbp, %xmm0
	punpcklqdq	%xmm0, %xmm0
	movups	%xmm0, 112(%rax)
	jmp	.L1283
.L1294:
	movl	92(%rax), %edx
	leaq	28(%rsp), %rcx
	movl	$3, %esi
	orl	$4, %edx
	movl	%edx, 92(%rax)
	movl	%edx, 28(%rsp)
	movl	%r15d, %edx
	movq	%rax, 32(%rsp)
	movl	96(%r13), %edi
	call	epoll_ctl@PLT
	movq	8(%r12), %rax
	jmp	.L1281
.L1292:
	call	_ZN4asio15system_categoryEv@PLT
	movq	40(%r13), %rdi
	movl	%r14d, %edx
	movq	%rbp, %rsi
	movl	$9, 24(%rbp)
	movq	%rax, 32(%rbp)
	call	_ZN4asio6detail15task_io_service25post_immediate_completionEPNS0_25task_io_service_operationEb@PLT
	jmp	.L1267
.L1293:
	movq	40(%r13), %rdi
	movl	%r14d, %edx
	movq	%rbp, %rsi
	call	_ZN4asio6detail15task_io_service25post_immediate_completionEPNS0_25task_io_service_operationEb@PLT
	movq	%rbx, %rdi
	call	pthread_mutex_unlock@PLT
	jmp	.L1267
.L1288:
	call	_ZN4asio15system_categoryEv@PLT
	movl	$9, 24(%rbp)
	movq	%rax, 32(%rbp)
	jmp	.L1273
.L1289:
	call	__stack_chk_fail@PLT
	.cfi_endproc
.LFE3806:
	.size	_ZN4asio6detail28reactive_socket_service_base16start_connect_opERNS1_24base_implementation_typeEPNS0_10reactor_opEbPK8sockaddrm, .-_ZN4asio6detail28reactive_socket_service_base16start_connect_opERNS1_24base_implementation_typeEPNS0_10reactor_opEbPK8sockaddrm
	.section	.text._ZN4asio2ip7address11from_stringEPKcRSt10error_code,"axG",@progbits,_ZN4asio2ip7address11from_stringEPKcRSt10error_code,comdat
	.align 2
	.p2align 4
	.weak	_ZN4asio2ip7address11from_stringEPKcRSt10error_code
	.type	_ZN4asio2ip7address11from_stringEPKcRSt10error_code, @function
_ZN4asio2ip7address11from_stringEPKcRSt10error_code:
.LFB5780:
	.cfi_startproc
	endbr64
	pushq	%r15
	.cfi_def_cfa_offset 16
	.cfi_offset 15, -16
	pxor	%xmm0, %xmm0
	pushq	%r14
	.cfi_def_cfa_offset 24
	.cfi_offset 14, -24
	pushq	%r13
	.cfi_def_cfa_offset 32
	.cfi_offset 13, -32
	pushq	%r12
	.cfi_def_cfa_offset 40
	.cfi_offset 12, -40
	movq	%rdi, %r12
	pushq	%rbp
	.cfi_def_cfa_offset 48
	.cfi_offset 6, -48
	movq	%rsi, %rbp
	pushq	%rbx
	.cfi_def_cfa_offset 56
	.cfi_offset 3, -56
	movq	%rdx, %rbx
	subq	$184, %rsp
	.cfi_def_cfa_offset 240
	movq	%fs:40, %rax
	movq	%rax, 168(%rsp)
	xorl	%eax, %eax
	movaps	%xmm0, 64(%rsp)
	movq	$0, 80(%rsp)
	call	__errno_location@PLT
	movl	$37, %esi
	movq	%rbp, %rdi
	movl	$0, (%rax)
	movq	%rax, %r14
	call	strchr@PLT
	movq	%rax, %r13
	testq	%rax, %rax
	je	.L1317
	movq	%rax, %r15
	subq	%rbp, %r15
	cmpq	$63, %r15
	jg	.L1334
	movq	%rbp, %rsi
	leaq	96(%rsp), %rdi
	movl	$64, %ecx
	movq	%r15, %rdx
	call	__memcpy_chk@PLT
	movb	$0, 96(%rsp,%r15)
	movq	%rax, %rsi
.L1296:
	leaq	64(%rsp), %rdx
	movl	$10, %edi
	call	inet_pton@PLT
	movl	%eax, %r15d
	movq	_ZGVZN4asio15system_categoryEvE8instance@GOTPCREL(%rip), %rax
	movzbl	(%rax), %eax
	testb	%al, %al
	je	.L1299
.L1332:
	movq	_ZZN4asio15system_categoryEvE8instance@GOTPCREL(%rip), %rsi
.L1300:
	movl	(%r14), %edx
	movq	%rsi, 8(%rbx)
	movl	%edx, (%rbx)
	testl	%r15d, %r15d
	jle	.L1335
	movq	$0, 80(%rsp)
	xorl	%eax, %eax
	testq	%r13, %r13
	je	.L1306
	movzbl	64(%rsp), %eax
	cmpb	$-2, %al
	je	.L1336
	cmpb	$-1, %al
	jne	.L1333
	movzbl	65(%rsp), %eax
	leaq	1(%r13), %r15
	andl	$15, %eax
	cmpb	$2, %al
	je	.L1305
.L1307:
	movl	$10, %edx
	xorl	%esi, %esi
	movq	%r15, %rdi
	call	strtol@PLT
	movl	(%rbx), %edx
	cltq
.L1306:
	movdqa	64(%rsp), %xmm0
	movaps	%xmm0, 32(%rsp)
	testl	%edx, %edx
	jne	.L1298
	movq	$1, (%r12)
	movq	%rax, 24(%r12)
	movups	%xmm0, 72(%rsp)
	movups	%xmm0, 8(%r12)
.L1295:
	movq	168(%rsp), %rax
	xorq	%fs:40, %rax
	jne	.L1337
	addq	$184, %rsp
	.cfi_remember_state
	.cfi_def_cfa_offset 56
	movq	%r12, %rax
	popq	%rbx
	.cfi_def_cfa_offset 48
	popq	%rbp
	.cfi_def_cfa_offset 40
	popq	%r12
	.cfi_def_cfa_offset 32
	popq	%r13
	.cfi_def_cfa_offset 24
	popq	%r14
	.cfi_def_cfa_offset 16
	popq	%r15
	.cfi_def_cfa_offset 8
	ret
	.p2align 4,,10
	.p2align 3
.L1335:
	.cfi_restore_state
	testl	%edx, %edx
	jne	.L1298
.L1334:
	call	_ZN4asio15system_categoryEv@PLT
	movl	$22, (%rbx)
	movq	%rax, 8(%rbx)
.L1298:
	movl	$0, (%r14)
	movq	%rbp, %rsi
	leaq	28(%rsp), %rdx
	movl	$2, %edi
	movl	$0, 28(%rsp)
	call	inet_pton@PLT
	movl	%eax, %ebp
	call	_ZN4asio15system_categoryEv@PLT
	movq	%rax, %r8
	movl	(%r14), %eax
	movq	%r8, 8(%rbx)
	movl	%eax, (%rbx)
	testl	%ebp, %ebp
	jle	.L1338
	movl	28(%rsp), %edx
	testl	%eax, %eax
	jne	.L1312
	pxor	%xmm0, %xmm0
	movl	%edx, 4(%r12)
	movl	$0, (%r12)
	movq	$0, 24(%r12)
	movups	%xmm0, 72(%rsp)
	movups	%xmm0, 8(%r12)
	jmp	.L1295
	.p2align 4,,10
	.p2align 3
.L1317:
	movq	%rbp, %rsi
	jmp	.L1296
	.p2align 4,,10
	.p2align 3
.L1299:
	movq	_ZGVZN4asio15system_categoryEvE8instance@GOTPCREL(%rip), %rdi
	call	__cxa_guard_acquire@PLT
	testl	%eax, %eax
	je	.L1332
	movq	_ZZN4asio15system_categoryEvE8instance@GOTPCREL(%rip), %rsi
	movq	_ZN4asio6detail15system_categoryD1Ev@GOTPCREL(%rip), %rdi
	leaq	__dso_handle(%rip), %rdx
	movq	%rsi, 8(%rsp)
	call	__cxa_atexit@PLT
	movq	_ZGVZN4asio15system_categoryEvE8instance@GOTPCREL(%rip), %rdi
	call	__cxa_guard_release@PLT
	movq	8(%rsp), %rsi
	jmp	.L1300
	.p2align 4,,10
	.p2align 3
.L1338:
	testl	%eax, %eax
	je	.L1339
.L1312:
	pxor	%xmm0, %xmm0
	movq	$0, (%r12)
	movq	$0, 24(%r12)
	movups	%xmm0, 8(%r12)
	jmp	.L1295
	.p2align 4,,10
	.p2align 3
.L1336:
	movzbl	65(%rsp), %eax
	andl	$-64, %eax
	cmpb	$-128, %al
	je	.L1305
.L1333:
	leaq	1(%r13), %r15
	jmp	.L1307
	.p2align 4,,10
	.p2align 3
.L1305:
	leaq	1(%r13), %r15
	movq	%r15, %rdi
	call	if_nametoindex@PLT
	movl	%eax, %eax
	movq	%rax, 80(%rsp)
	testq	%rax, %rax
	je	.L1307
	movl	(%rbx), %edx
	jmp	.L1306
	.p2align 4,,10
	.p2align 3
.L1339:
	call	_ZN4asio15system_categoryEv@PLT
	movl	$22, (%rbx)
	movq	%rax, 8(%rbx)
	jmp	.L1312
.L1337:
	call	__stack_chk_fail@PLT
	.cfi_endproc
.LFE5780:
	.size	_ZN4asio2ip7address11from_stringEPKcRSt10error_code, .-_ZN4asio2ip7address11from_stringEPKcRSt10error_code
	.section	.text._ZN4asio2ip6detail8endpointC2Eit,"axG",@progbits,_ZN4asio2ip6detail8endpointC5Eit,comdat
	.align 2
	.p2align 4
	.weak	_ZN4asio2ip6detail8endpointC2Eit
	.type	_ZN4asio2ip6detail8endpointC2Eit, @function
_ZN4asio2ip6detail8endpointC2Eit:
.LFB5857:
	.cfi_startproc
	endbr64
	pxor	%xmm0, %xmm0
	movq	$0, 16(%rdi)
	rolw	$8, %dx
	movl	$0, 24(%rdi)
	movups	%xmm0, (%rdi)
	cmpl	$2, %esi
	je	.L1343
	movl	$10, %eax
	pxor	%xmm0, %xmm0
	movw	%dx, 2(%rdi)
	movw	%ax, (%rdi)
	movl	$0, 4(%rdi)
	movups	%xmm0, 8(%rdi)
	ret
	.p2align 4,,10
	.p2align 3
.L1343:
	movl	$2, %ecx
	movw	%dx, 2(%rdi)
	movw	%cx, (%rdi)
	movl	$0, 4(%rdi)
	ret
	.cfi_endproc
.LFE5857:
	.size	_ZN4asio2ip6detail8endpointC2Eit, .-_ZN4asio2ip6detail8endpointC2Eit
	.weak	_ZN4asio2ip6detail8endpointC1Eit
	.set	_ZN4asio2ip6detail8endpointC1Eit,_ZN4asio2ip6detail8endpointC2Eit
	.section	.text._ZN4asio2ip6detail8endpointC2ERKNS0_7addressEt,"axG",@progbits,_ZN4asio2ip6detail8endpointC5ERKNS0_7addressEt,comdat
	.align 2
	.p2align 4
	.weak	_ZN4asio2ip6detail8endpointC2ERKNS0_7addressEt
	.type	_ZN4asio2ip6detail8endpointC2ERKNS0_7addressEt, @function
_ZN4asio2ip6detail8endpointC2ERKNS0_7addressEt:
.LFB5860:
	.cfi_startproc
	.cfi_personality 0x9b,DW.ref.__gxx_personality_v0
	.cfi_lsda 0x1b,.LLSDA5860
	endbr64
	pushq	%rbp
	.cfi_def_cfa_offset 16
	.cfi_offset 6, -16
	pxor	%xmm0, %xmm0
	rolw	$8, %dx
	subq	$16, %rsp
	.cfi_def_cfa_offset 32
	movl	(%rsi), %r8d
	movq	%fs:40, %rax
	movq	%rax, 8(%rsp)
	xorl	%eax, %eax
	movq	$0, 16(%rdi)
	movl	$0, 24(%rdi)
	movups	%xmm0, (%rdi)
	testl	%r8d, %r8d
	jne	.L1345
	movl	4(%rsi), %eax
	movl	$2, %ecx
	movw	%dx, 2(%rdi)
	movw	%cx, (%rdi)
	movl	%eax, 4(%rdi)
.L1344:
	movq	8(%rsp), %rax
	xorq	%fs:40, %rax
	jne	.L1352
	addq	$16, %rsp
	.cfi_remember_state
	.cfi_def_cfa_offset 16
	popq	%rbp
	.cfi_def_cfa_offset 8
	ret
	.p2align 4,,10
	.p2align 3
.L1345:
	.cfi_restore_state
	movl	$10, %eax
	movw	%dx, 2(%rdi)
	movw	%ax, (%rdi)
	movl	$0, 4(%rdi)
	cmpl	$1, (%rsi)
	jne	.L1353
	movq	24(%rsi), %rax
	movdqu	8(%rsi), %xmm1
	movl	%eax, 24(%rdi)
	movups	%xmm1, 8(%rdi)
	jmp	.L1344
.L1352:
	call	__stack_chk_fail@PLT
.L1353:
	movq	_ZTVSt8bad_cast@GOTPCREL(%rip), %rax
	addq	$16, %rax
	movq	%rax, (%rsp)
.LEHB19:
	call	_ZN4asio6detail15throw_exceptionISt8bad_castEEvRKT_.isra.0
.LEHE19:
.L1350:
	endbr64
	movq	%rax, %rbp
.L1348:
	movq	%rsp, %rdi
	call	_ZNSt8bad_castD1Ev@PLT
	movq	%rbp, %rdi
.LEHB20:
	call	_Unwind_Resume@PLT
.LEHE20:
	.cfi_endproc
.LFE5860:
	.section	.gcc_except_table
.LLSDA5860:
	.byte	0xff
	.byte	0xff
	.byte	0x1
	.uleb128 .LLSDACSE5860-.LLSDACSB5860
.LLSDACSB5860:
	.uleb128 .LEHB19-.LFB5860
	.uleb128 .LEHE19-.LEHB19
	.uleb128 .L1350-.LFB5860
	.uleb128 0
	.uleb128 .LEHB20-.LFB5860
	.uleb128 .LEHE20-.LEHB20
	.uleb128 0
	.uleb128 0
.LLSDACSE5860:
	.section	.text._ZN4asio2ip6detail8endpointC2ERKNS0_7addressEt,"axG",@progbits,_ZN4asio2ip6detail8endpointC5ERKNS0_7addressEt,comdat
	.size	_ZN4asio2ip6detail8endpointC2ERKNS0_7addressEt, .-_ZN4asio2ip6detail8endpointC2ERKNS0_7addressEt
	.weak	_ZN4asio2ip6detail8endpointC1ERKNS0_7addressEt
	.set	_ZN4asio2ip6detail8endpointC1ERKNS0_7addressEt,_ZN4asio2ip6detail8endpointC2ERKNS0_7addressEt
	.section	.text._ZN4asio6detail14strand_service16on_dispatch_exitD2Ev,"axG",@progbits,_ZN4asio6detail14strand_service16on_dispatch_exitD5Ev,comdat
	.align 2
	.p2align 4
	.weak	_ZN4asio6detail14strand_service16on_dispatch_exitD2Ev
	.type	_ZN4asio6detail14strand_service16on_dispatch_exitD2Ev, @function
_ZN4asio6detail14strand_service16on_dispatch_exitD2Ev:
.LFB6328:
	.cfi_startproc
	endbr64
	pushq	%rbp
	.cfi_def_cfa_offset 16
	.cfi_offset 6, -16
	pushq	%rbx
	.cfi_def_cfa_offset 24
	.cfi_offset 3, -24
	movq	%rdi, %rbx
	subq	$8, %rsp
	.cfi_def_cfa_offset 32
	movq	8(%rdi), %rax
	leaq	24(%rax), %rdi
	call	pthread_mutex_lock@PLT
	movq	8(%rbx), %rdi
	movq	72(%rdi), %rbp
	testq	%rbp, %rbp
	je	.L1361
	movq	96(%rdi), %rax
	testq	%rax, %rax
	je	.L1357
	movq	%rbp, (%rax)
	movq	88(%rdi), %rbp
.L1358:
	movq	80(%rdi), %rax
	pxor	%xmm0, %xmm0
	movups	%xmm0, 72(%rdi)
	movq	%rax, 96(%rdi)
.L1356:
	testq	%rbp, %rbp
	setne	64(%rdi)
	addq	$24, %rdi
	call	pthread_mutex_unlock@PLT
	testq	%rbp, %rbp
	jne	.L1362
	addq	$8, %rsp
	.cfi_remember_state
	.cfi_def_cfa_offset 24
	popq	%rbx
	.cfi_def_cfa_offset 16
	popq	%rbp
	.cfi_def_cfa_offset 8
	ret
	.p2align 4,,10
	.p2align 3
.L1357:
	.cfi_restore_state
	movq	%rbp, 88(%rdi)
	jmp	.L1358
	.p2align 4,,10
	.p2align 3
.L1362:
	movq	8(%rbx), %rsi
	movq	(%rbx), %rdi
	addq	$8, %rsp
	.cfi_remember_state
	.cfi_def_cfa_offset 24
	xorl	%edx, %edx
	popq	%rbx
	.cfi_def_cfa_offset 16
	popq	%rbp
	.cfi_def_cfa_offset 8
	jmp	_ZN4asio6detail15task_io_service25post_immediate_completionEPNS0_25task_io_service_operationEb@PLT
	.p2align 4,,10
	.p2align 3
.L1361:
	.cfi_restore_state
	movq	88(%rdi), %rbp
	jmp	.L1356
	.cfi_endproc
.LFE6328:
	.size	_ZN4asio6detail14strand_service16on_dispatch_exitD2Ev, .-_ZN4asio6detail14strand_service16on_dispatch_exitD2Ev
	.weak	_ZN4asio6detail14strand_service16on_dispatch_exitD1Ev
	.set	_ZN4asio6detail14strand_service16on_dispatch_exitD1Ev,_ZN4asio6detail14strand_service16on_dispatch_exitD2Ev
	.section	.text._ZN4asio6detail14strand_service11do_dispatchERPNS1_11strand_implEPNS0_25task_io_service_operationE,"axG",@progbits,_ZN4asio6detail14strand_service11do_dispatchERPNS1_11strand_implEPNS0_25task_io_service_operationE,comdat
	.align 2
	.p2align 4
	.weak	_ZN4asio6detail14strand_service11do_dispatchERPNS1_11strand_implEPNS0_25task_io_service_operationE
	.type	_ZN4asio6detail14strand_service11do_dispatchERPNS1_11strand_implEPNS0_25task_io_service_operationE, @function
_ZN4asio6detail14strand_service11do_dispatchERPNS1_11strand_implEPNS0_25task_io_service_operationE:
.LFB6345:
	.cfi_startproc
	endbr64
	pushq	%r14
	.cfi_def_cfa_offset 16
	.cfi_offset 14, -16
	pushq	%r13
	.cfi_def_cfa_offset 24
	.cfi_offset 13, -24
	movq	%rdi, %r13
	pushq	%r12
	.cfi_def_cfa_offset 32
	.cfi_offset 12, -32
	movq	%rsi, %r12
	pushq	%rbp
	.cfi_def_cfa_offset 40
	.cfi_offset 6, -40
	movq	%rdx, %rbp
	pushq	%rbx
	.cfi_def_cfa_offset 48
	.cfi_offset 3, -48
	movq	40(%rdi), %rbx
	data16	leaq	_ZN4asio6detail15keyword_tss_ptrINS0_10call_stackINS0_15task_io_serviceENS0_27task_io_service_thread_infoEE7contextEE6value_E@tlsgd(%rip), %rdi
	.value	0x6666
	rex64
	call	__tls_get_addr@PLT
	movq	(%rax), %rax
	testq	%rax, %rax
	jne	.L1368
	jmp	.L1364
	.p2align 4,,10
	.p2align 3
.L1365:
	movq	16(%rax), %rax
	testq	%rax, %rax
	je	.L1364
.L1368:
	cmpq	(%rax), %rbx
	jne	.L1365
	movq	8(%rax), %rbx
	movq	(%r12), %rax
	leaq	24(%rax), %rdi
	call	pthread_mutex_lock@PLT
	testq	%rbx, %rbx
	je	.L1367
	movq	(%r12), %rax
	cmpb	$0, 64(%rax)
	leaq	24(%rax), %rdi
	je	.L1383
.L1369:
	cmpq	$0, 80(%rax)
	movq	$0, 0(%rbp)
	je	.L1372
	movq	80(%rax), %rdx
	movq	%rbp, (%rdx)
	movq	%rbp, 80(%rax)
.L1373:
	call	pthread_mutex_unlock@PLT
	xorl	%r14d, %r14d
	popq	%rbx
	.cfi_remember_state
	.cfi_def_cfa_offset 40
	popq	%rbp
	.cfi_def_cfa_offset 32
	movl	%r14d, %eax
	popq	%r12
	.cfi_def_cfa_offset 24
	popq	%r13
	.cfi_def_cfa_offset 16
	popq	%r14
	.cfi_def_cfa_offset 8
	ret
	.p2align 4,,10
	.p2align 3
.L1364:
	.cfi_restore_state
	movq	(%r12), %rax
	leaq	24(%rax), %rdi
	call	pthread_mutex_lock@PLT
.L1367:
	movq	(%r12), %rax
	movzbl	64(%rax), %r14d
	leaq	24(%rax), %rdi
	testb	%r14b, %r14b
	jne	.L1369
	movb	$1, 64(%rax)
	call	pthread_mutex_unlock@PLT
	movq	(%r12), %rsi
	movq	$0, 0(%rbp)
	cmpq	$0, 96(%rsi)
	je	.L1374
	movq	96(%rsi), %rax
	movq	%rbp, (%rax)
	movq	%rbp, 96(%rsi)
.L1375:
	movq	40(%r13), %rdi
	xorl	%edx, %edx
	call	_ZN4asio6detail15task_io_service25post_immediate_completionEPNS0_25task_io_service_operationEb@PLT
	popq	%rbx
	.cfi_remember_state
	.cfi_def_cfa_offset 40
	movl	%r14d, %eax
	popq	%rbp
	.cfi_def_cfa_offset 32
	popq	%r12
	.cfi_def_cfa_offset 24
	popq	%r13
	.cfi_def_cfa_offset 16
	popq	%r14
	.cfi_def_cfa_offset 8
	ret
	.p2align 4,,10
	.p2align 3
.L1372:
	.cfi_restore_state
	movq	%rbp, %xmm0
	punpcklqdq	%xmm0, %xmm0
	movups	%xmm0, 72(%rax)
	jmp	.L1373
.L1374:
	movq	%rbp, %xmm0
	punpcklqdq	%xmm0, %xmm0
	movups	%xmm0, 88(%rsi)
	jmp	.L1375
	.p2align 4,,10
	.p2align 3
.L1383:
	movb	$1, 64(%rax)
	movl	$1, %r14d
	call	pthread_mutex_unlock@PLT
	popq	%rbx
	.cfi_def_cfa_offset 40
	movl	%r14d, %eax
	popq	%rbp
	.cfi_def_cfa_offset 32
	popq	%r12
	.cfi_def_cfa_offset 24
	popq	%r13
	.cfi_def_cfa_offset 16
	popq	%r14
	.cfi_def_cfa_offset 8
	ret
	.cfi_endproc
.LFE6345:
	.size	_ZN4asio6detail14strand_service11do_dispatchERPNS1_11strand_implEPNS0_25task_io_service_operationE, .-_ZN4asio6detail14strand_service11do_dispatchERPNS1_11strand_implEPNS0_25task_io_service_operationE
	.section	.text._ZN7openpal6LoggerD2Ev,"axG",@progbits,_ZN7openpal6LoggerD5Ev,comdat
	.align 2
	.p2align 4
	.weak	_ZN7openpal6LoggerD2Ev
	.type	_ZN7openpal6LoggerD2Ev, @function
_ZN7openpal6LoggerD2Ev:
.LFB6870:
	.cfi_startproc
	endbr64
	pushq	%r12
	.cfi_def_cfa_offset 16
	.cfi_offset 12, -16
	pushq	%rbp
	.cfi_def_cfa_offset 24
	.cfi_offset 6, -24
	pushq	%rbx
	.cfi_def_cfa_offset 32
	.cfi_offset 3, -32
	movq	24(%rdi), %rbp
	movq	%rdi, %rbx
	testq	%rbp, %rbp
	je	.L1386
	movq	_ZL28__gthrw___pthread_key_createPjPFvPvE@GOTPCREL(%rip), %r12
	testq	%r12, %r12
	je	.L1387
	movl	$-1, %eax
	lock xaddl	%eax, 8(%rbp)
	cmpl	$1, %eax
	je	.L1400
	.p2align 4,,10
	.p2align 3
.L1386:
	movq	8(%rbx), %rbp
	testq	%rbp, %rbp
	je	.L1384
	movq	_ZL28__gthrw___pthread_key_createPjPFvPvE@GOTPCREL(%rip), %r12
	testq	%r12, %r12
	je	.L1394
	movl	$-1, %eax
	lock xaddl	%eax, 8(%rbp)
	cmpl	$1, %eax
	je	.L1401
.L1384:
	popq	%rbx
	.cfi_remember_state
	.cfi_def_cfa_offset 24
	popq	%rbp
	.cfi_def_cfa_offset 16
	popq	%r12
	.cfi_def_cfa_offset 8
	ret
	.p2align 4,,10
	.p2align 3
.L1387:
	.cfi_restore_state
	movl	8(%rbp), %eax
	leal	-1(%rax), %edx
	movl	%edx, 8(%rbp)
	cmpl	$1, %eax
	jne	.L1386
.L1400:
	movq	0(%rbp), %rax
	movq	%rbp, %rdi
	call	*16(%rax)
	testq	%r12, %r12
	je	.L1390
	movl	$-1, %eax
	lock xaddl	%eax, 12(%rbp)
.L1391:
	cmpl	$1, %eax
	jne	.L1386
	movq	0(%rbp), %rax
	movq	%rbp, %rdi
	call	*24(%rax)
	jmp	.L1386
	.p2align 4,,10
	.p2align 3
.L1394:
	movl	8(%rbp), %eax
	leal	-1(%rax), %edx
	movl	%edx, 8(%rbp)
	cmpl	$1, %eax
	jne	.L1384
.L1401:
	movq	0(%rbp), %rax
	movq	%rbp, %rdi
	call	*16(%rax)
	testq	%r12, %r12
	je	.L1397
	movl	$-1, %eax
	lock xaddl	%eax, 12(%rbp)
.L1398:
	cmpl	$1, %eax
	jne	.L1384
	movq	0(%rbp), %rax
	popq	%rbx
	.cfi_remember_state
	.cfi_def_cfa_offset 24
	movq	%rbp, %rdi
	popq	%rbp
	.cfi_def_cfa_offset 16
	popq	%r12
	.cfi_def_cfa_offset 8
	movq	24(%rax), %rax
	jmp	*%rax
	.p2align 4,,10
	.p2align 3
.L1390:
	.cfi_restore_state
	movl	12(%rbp), %eax
	leal	-1(%rax), %edx
	movl	%edx, 12(%rbp)
	jmp	.L1391
	.p2align 4,,10
	.p2align 3
.L1397:
	movl	12(%rbp), %eax
	leal	-1(%rax), %edx
	movl	%edx, 12(%rbp)
	jmp	.L1398
	.cfi_endproc
.LFE6870:
	.size	_ZN7openpal6LoggerD2Ev, .-_ZN7openpal6LoggerD2Ev
	.weak	_ZN7openpal6LoggerD1Ev
	.set	_ZN7openpal6LoggerD1Ev,_ZN7openpal6LoggerD2Ev
	.section	.text._ZN4asio2ip20basic_resolver_queryINS0_3tcpEED2Ev,"axG",@progbits,_ZN4asio2ip20basic_resolver_queryINS0_3tcpEED5Ev,comdat
	.align 2
	.p2align 4
	.weak	_ZN4asio2ip20basic_resolver_queryINS0_3tcpEED2Ev
	.type	_ZN4asio2ip20basic_resolver_queryINS0_3tcpEED2Ev, @function
_ZN4asio2ip20basic_resolver_queryINS0_3tcpEED2Ev:
.LFB6960:
	.cfi_startproc
	endbr64
	pushq	%rbx
	.cfi_def_cfa_offset 16
	.cfi_offset 3, -16
	movq	%rdi, %rbx
	movq	80(%rdi), %rdi
	leaq	96(%rbx), %rax
	cmpq	%rax, %rdi
	je	.L1403
	call	_ZdlPv@PLT
.L1403:
	movq	48(%rbx), %rdi
	addq	$64, %rbx
	cmpq	%rbx, %rdi
	je	.L1402
	popq	%rbx
	.cfi_remember_state
	.cfi_def_cfa_offset 8
	jmp	_ZdlPv@PLT
	.p2align 4,,10
	.p2align 3
.L1402:
	.cfi_restore_state
	popq	%rbx
	.cfi_def_cfa_offset 8
	ret
	.cfi_endproc
.LFE6960:
	.size	_ZN4asio2ip20basic_resolver_queryINS0_3tcpEED2Ev, .-_ZN4asio2ip20basic_resolver_queryINS0_3tcpEED2Ev
	.weak	_ZN4asio2ip20basic_resolver_queryINS0_3tcpEED1Ev
	.set	_ZN4asio2ip20basic_resolver_queryINS0_3tcpEED1Ev,_ZN4asio2ip20basic_resolver_queryINS0_3tcpEED2Ev
	.section	.text._ZNSt12__shared_ptrISt6vectorIN4asio2ip20basic_resolver_entryINS2_3tcpEEESaIS5_EELN9__gnu_cxx12_Lock_policyE2EEC2ERKSA_,"axG",@progbits,_ZNSt12__shared_ptrISt6vectorIN4asio2ip20basic_resolver_entryINS2_3tcpEEESaIS5_EELN9__gnu_cxx12_Lock_policyE2EEC5ERKSA_,comdat
	.align 2
	.p2align 4
	.weak	_ZNSt12__shared_ptrISt6vectorIN4asio2ip20basic_resolver_entryINS2_3tcpEEESaIS5_EELN9__gnu_cxx12_Lock_policyE2EEC2ERKSA_
	.type	_ZNSt12__shared_ptrISt6vectorIN4asio2ip20basic_resolver_entryINS2_3tcpEEESaIS5_EELN9__gnu_cxx12_Lock_policyE2EEC2ERKSA_, @function
_ZNSt12__shared_ptrISt6vectorIN4asio2ip20basic_resolver_entryINS2_3tcpEEESaIS5_EELN9__gnu_cxx12_Lock_policyE2EEC2ERKSA_:
.LFB6998:
	.cfi_startproc
	endbr64
	movq	(%rsi), %rax
	movq	%rax, (%rdi)
	movq	8(%rsi), %rax
	movq	%rax, 8(%rdi)
	testq	%rax, %rax
	je	.L1406
	cmpq	$0, _ZL28__gthrw___pthread_key_createPjPFvPvE@GOTPCREL(%rip)
	je	.L1408
	lock addl	$1, 8(%rax)
	ret
	.p2align 4,,10
	.p2align 3
.L1408:
	addl	$1, 8(%rax)
.L1406:
	ret
	.cfi_endproc
.LFE6998:
	.size	_ZNSt12__shared_ptrISt6vectorIN4asio2ip20basic_resolver_entryINS2_3tcpEEESaIS5_EELN9__gnu_cxx12_Lock_policyE2EEC2ERKSA_, .-_ZNSt12__shared_ptrISt6vectorIN4asio2ip20basic_resolver_entryINS2_3tcpEEESaIS5_EELN9__gnu_cxx12_Lock_policyE2EEC2ERKSA_
	.weak	_ZNSt12__shared_ptrISt6vectorIN4asio2ip20basic_resolver_entryINS2_3tcpEEESaIS5_EELN9__gnu_cxx12_Lock_policyE2EEC1ERKSA_
	.set	_ZNSt12__shared_ptrISt6vectorIN4asio2ip20basic_resolver_entryINS2_3tcpEEESaIS5_EELN9__gnu_cxx12_Lock_policyE2EEC1ERKSA_,_ZNSt12__shared_ptrISt6vectorIN4asio2ip20basic_resolver_entryINS2_3tcpEEESaIS5_EELN9__gnu_cxx12_Lock_policyE2EEC2ERKSA_
	.section	.text.unlikely._ZN4asio6detail15throw_exceptionISt12system_errorEEvRKT_,"axG",@progbits,_ZN4asio6detail15throw_exceptionISt12system_errorEEvRKT_,comdat
	.weak	_ZN4asio6detail15throw_exceptionISt12system_errorEEvRKT_
	.type	_ZN4asio6detail15throw_exceptionISt12system_errorEEvRKT_, @function
_ZN4asio6detail15throw_exceptionISt12system_errorEEvRKT_:
.LFB7268:
	.cfi_startproc
	endbr64
	pushq	%rbp
	.cfi_def_cfa_offset 16
	.cfi_offset 6, -16
	pushq	%rbx
	.cfi_def_cfa_offset 24
	.cfi_offset 3, -24
	movq	%rdi, %rbx
	movl	$32, %edi
	pushq	%rax
	.cfi_def_cfa_offset 32
	call	__cxa_allocate_exception@PLT
	movq	%rbx, %rsi
	movq	%rax, %rdi
	movq	%rax, %rbp
	call	_ZNSt13runtime_errorC2ERKS_@PLT
	movq	_ZTVSt12system_error@GOTPCREL(%rip), %rax
	movups	16(%rbx), %xmm0
	movq	%rbp, %rdi
	movq	_ZNSt12system_errorD1Ev@GOTPCREL(%rip), %rdx
	movq	_ZTISt12system_error@GOTPCREL(%rip), %rsi
	addq	$16, %rax
	movups	%xmm0, 16(%rbp)
	movq	%rax, 0(%rbp)
	call	__cxa_throw@PLT
	.cfi_endproc
.LFE7268:
	.size	_ZN4asio6detail15throw_exceptionISt12system_errorEEvRKT_, .-_ZN4asio6detail15throw_exceptionISt12system_errorEEvRKT_
	.section	.text.unlikely
.LCOLDB18:
	.text
.LHOTB18:
	.p2align 4
	.type	_ZN4asio6detail14do_throw_errorERKSt10error_code.isra.0, @function
_ZN4asio6detail14do_throw_errorERKSt10error_code.isra.0:
.LFB10417:
	.cfi_startproc
	.cfi_personality 0x9b,DW.ref.__gxx_personality_v0
	.cfi_lsda 0x1b,.LLSDA10417
	pushq	%r13
	.cfi_def_cfa_offset 16
	.cfi_offset 13, -16
	movl	%edi, %edx
	pushq	%r12
	.cfi_def_cfa_offset 24
	.cfi_offset 12, -24
	pushq	%rbp
	.cfi_def_cfa_offset 32
	.cfi_offset 6, -32
	movl	%edi, %ebp
	pushq	%rbx
	.cfi_def_cfa_offset 40
	.cfi_offset 3, -40
	movq	%rsi, %rbx
	subq	$88, %rsp
	.cfi_def_cfa_offset 128
	movq	%fs:40, %rax
	movq	%rax, 72(%rsp)
	xorl	%eax, %eax
	movq	(%rsi), %rax
	leaq	32(%rsp), %r12
	movq	%rsp, %r13
	movq	%r12, %rdi
.LEHB21:
	call	*32(%rax)
.LEHE21:
	movq	%r12, %rsi
	movq	%r13, %rdi
.LEHB22:
	call	_ZNSt13runtime_errorC2ERKNSt7__cxx1112basic_stringIcSt11char_traitsIcESaIcEEE@PLT
.LEHE22:
	movq	32(%rsp), %rdi
	leaq	48(%rsp), %rax
	cmpq	%rax, %rdi
	je	.L1415
	call	_ZdlPv@PLT
	jmp	.L1415
.L1421:
	endbr64
	movq	%rax, %rbp
	jmp	.L1416
	.section	.gcc_except_table
.LLSDA10417:
	.byte	0xff
	.byte	0xff
	.byte	0x1
	.uleb128 .LLSDACSE10417-.LLSDACSB10417
.LLSDACSB10417:
	.uleb128 .LEHB21-.LFB10417
	.uleb128 .LEHE21-.LEHB21
	.uleb128 0
	.uleb128 0
	.uleb128 .LEHB22-.LFB10417
	.uleb128 .LEHE22-.LEHB22
	.uleb128 .L1421-.LFB10417
	.uleb128 0
.LLSDACSE10417:
	.text
	.cfi_endproc
	.section	.text.unlikely
	.cfi_startproc
	.cfi_personality 0x9b,DW.ref.__gxx_personality_v0
	.cfi_lsda 0x1b,.LLSDAC10417
	.type	_ZN4asio6detail14do_throw_errorERKSt10error_code.isra.0.cold, @function
_ZN4asio6detail14do_throw_errorERKSt10error_code.isra.0.cold:
.LFSB10417:
.L1415:
	.cfi_def_cfa_offset 128
	.cfi_offset 3, -40
	.cfi_offset 6, -32
	.cfi_offset 12, -24
	.cfi_offset 13, -16
	movq	_ZTVSt12system_error@GOTPCREL(%rip), %rax
	movq	%r13, %rdi
	movl	%ebp, 16(%rsp)
	movq	%rbx, 24(%rsp)
	addq	$16, %rax
	movq	%rax, (%rsp)
.LEHB23:
	call	_ZN4asio6detail15throw_exceptionISt12system_errorEEvRKT_@PLT
.LEHE23:
.L1416:
	movq	32(%rsp), %rdi
	leaq	48(%rsp), %rax
	cmpq	%rax, %rdi
	je	.L1423
	call	_ZdlPv@PLT
	jmp	.L1423
.L1420:
	endbr64
	movq	%r13, %rdi
	movq	%rax, %rbp
	call	_ZNSt12system_errorD1Ev@PLT
.L1423:
	movq	%rbp, %rdi
.LEHB24:
	call	_Unwind_Resume@PLT
.LEHE24:
	.cfi_endproc
.LFE10417:
	.section	.gcc_except_table
.LLSDAC10417:
	.byte	0xff
	.byte	0xff
	.byte	0x1
	.uleb128 .LLSDACSEC10417-.LLSDACSBC10417
.LLSDACSBC10417:
	.uleb128 .LEHB23-.LCOLDB18
	.uleb128 .LEHE23-.LEHB23
	.uleb128 .L1420-.LCOLDB18
	.uleb128 0
	.uleb128 .LEHB24-.LCOLDB18
	.uleb128 .LEHE24-.LEHB24
	.uleb128 0
	.uleb128 0
.LLSDACSEC10417:
	.section	.text.unlikely
	.text
	.size	_ZN4asio6detail14do_throw_errorERKSt10error_code.isra.0, .-_ZN4asio6detail14do_throw_errorERKSt10error_code.isra.0
	.section	.text.unlikely
	.size	_ZN4asio6detail14do_throw_errorERKSt10error_code.isra.0.cold, .-_ZN4asio6detail14do_throw_errorERKSt10error_code.isra.0.cold
.LCOLDE18:
	.text
.LHOTE18:
	.section	.text._ZN4asio6detail12posix_thread4funcINS0_21resolver_service_base22work_io_service_runnerEE3runEv,"axG",@progbits,_ZN4asio6detail12posix_thread4funcINS0_21resolver_service_base22work_io_service_runnerEE3runEv,comdat
	.align 2
	.p2align 4
	.weak	_ZN4asio6detail12posix_thread4funcINS0_21resolver_service_base22work_io_service_runnerEE3runEv
	.type	_ZN4asio6detail12posix_thread4funcINS0_21resolver_service_base22work_io_service_runnerEE3runEv, @function
_ZN4asio6detail12posix_thread4funcINS0_21resolver_service_base22work_io_service_runnerEE3runEv:
.LFB10096:
	.cfi_startproc
	endbr64
	pushq	%rbp
	.cfi_def_cfa_offset 16
	.cfi_offset 6, -16
	subq	$32, %rsp
	.cfi_def_cfa_offset 48
	movq	%fs:40, %rax
	movq	%rax, 24(%rsp)
	xorl	%eax, %eax
	movq	8(%rdi), %rax
	movl	$0, (%rsp)
	movq	8(%rax), %rbp
	call	_ZNSt3_V215system_categoryEv@PLT
	movq	%rsp, %rsi
	movq	%rbp, %rdi
	movq	%rax, 8(%rsp)
	call	_ZN4asio6detail15task_io_service3runERSt10error_code@PLT
	movl	(%rsp), %eax
	testl	%eax, %eax
	jne	.L1428
	movq	24(%rsp), %rax
	xorq	%fs:40, %rax
	jne	.L1429
	addq	$32, %rsp
	.cfi_remember_state
	.cfi_def_cfa_offset 16
	popq	%rbp
	.cfi_def_cfa_offset 8
	ret
.L1428:
	.cfi_restore_state
	movl	(%rsp), %edi
	movq	8(%rsp), %rsi
	call	_ZN4asio6detail14do_throw_errorERKSt10error_code.isra.0
.L1429:
	call	__stack_chk_fail@PLT
	.cfi_endproc
.LFE10096:
	.size	_ZN4asio6detail12posix_thread4funcINS0_21resolver_service_base22work_io_service_runnerEE3runEv, .-_ZN4asio6detail12posix_thread4funcINS0_21resolver_service_base22work_io_service_runnerEE3runEv
	.section	.text.asio_detail_posix_thread_function,"axG",@progbits,asio_detail_posix_thread_function,comdat
	.p2align 4
	.weak	asio_detail_posix_thread_function
	.type	asio_detail_posix_thread_function, @function
asio_detail_posix_thread_function:
.LFB5954:
	.cfi_startproc
	.cfi_personality 0x9b,DW.ref.__gxx_personality_v0
	.cfi_lsda 0x1b,.LLSDA5954
	endbr64
	pushq	%r12
	.cfi_def_cfa_offset 16
	.cfi_offset 12, -16
	pushq	%rbp
	.cfi_def_cfa_offset 24
	.cfi_offset 6, -24
	movq	%rdi, %rbp
	subq	$40, %rsp
	.cfi_def_cfa_offset 64
	movq	%fs:40, %rax
	movq	%rax, 24(%rsp)
	xorl	%eax, %eax
	movq	(%rdi), %rax
	movq	16(%rax), %rax
	cmpq	_ZN4asio6detail12posix_thread4funcINS0_21resolver_service_base22work_io_service_runnerEE3runEv@GOTPCREL(%rip), %rax
	jne	.L1431
	movq	8(%rdi), %rax
	movl	$0, (%rsp)
	movq	8(%rax), %r12
	call	_ZNSt3_V215system_categoryEv@PLT
	movq	%rsp, %rsi
	movq	%r12, %rdi
	movq	%rax, 8(%rsp)
.LEHB25:
	call	_ZN4asio6detail15task_io_service3runERSt10error_code@PLT
	movl	(%rsp), %eax
	testl	%eax, %eax
	jne	.L1439
.L1433:
	movq	0(%rbp), %rax
	movq	%rbp, %rdi
	call	*8(%rax)
	movq	24(%rsp), %rax
	xorq	%fs:40, %rax
	jne	.L1440
	addq	$40, %rsp
	.cfi_remember_state
	.cfi_def_cfa_offset 24
	xorl	%eax, %eax
	popq	%rbp
	.cfi_def_cfa_offset 16
	popq	%r12
	.cfi_def_cfa_offset 8
	ret
	.p2align 4,,10
	.p2align 3
.L1431:
	.cfi_restore_state
	call	*%rax
	jmp	.L1433
.L1440:
	call	__stack_chk_fail@PLT
.L1439:
	movl	(%rsp), %edi
	movq	8(%rsp), %rsi
	call	_ZN4asio6detail14do_throw_errorERKSt10error_code.isra.0
.LEHE25:
.L1436:
	endbr64
	movq	%rax, %r12
.L1434:
	movq	0(%rbp), %rax
	movq	%rbp, %rdi
	call	*8(%rax)
	movq	%r12, %rdi
.LEHB26:
	call	_Unwind_Resume@PLT
.LEHE26:
	.cfi_endproc
.LFE5954:
	.section	.gcc_except_table
.LLSDA5954:
	.byte	0xff
	.byte	0xff
	.byte	0x1
	.uleb128 .LLSDACSE5954-.LLSDACSB5954
.LLSDACSB5954:
	.uleb128 .LEHB25-.LFB5954
	.uleb128 .LEHE25-.LEHB25
	.uleb128 .L1436-.LFB5954
	.uleb128 0
	.uleb128 .LEHB26-.LFB5954
	.uleb128 .LEHE26-.LEHB26
	.uleb128 0
	.uleb128 0
.LLSDACSE5954:
	.section	.text.asio_detail_posix_thread_function,"axG",@progbits,asio_detail_posix_thread_function,comdat
	.size	asio_detail_posix_thread_function, .-asio_detail_posix_thread_function
	.section	.text.unlikely
.LCOLDB19:
	.text
.LHOTB19:
	.p2align 4
	.type	_ZN4asio6detail14do_throw_errorERKSt10error_codePKc.isra.0, @function
_ZN4asio6detail14do_throw_errorERKSt10error_codePKc.isra.0:
.LFB10422:
	.cfi_startproc
	.cfi_personality 0x9b,DW.ref.__gxx_personality_v0
	.cfi_lsda 0x1b,.LLSDA10422
	pushq	%r12
	.cfi_def_cfa_offset 16
	.cfi_offset 12, -16
	movq	%rsi, %r8
	movq	%rdx, %rcx
	movl	%edi, %esi
	pushq	%rbp
	.cfi_def_cfa_offset 24
	.cfi_offset 6, -24
	movq	%r8, %rdx
	subq	$56, %rsp
	.cfi_def_cfa_offset 80
	movq	%fs:40, %rax
	movq	%rax, 40(%rsp)
	xorl	%eax, %eax
	movq	%rsp, %rbp
	movq	%rbp, %rdi
.LEHB27:
	call	_ZNSt12system_errorC1ESt10error_codePKc@PLT
.LEHE27:
	movq	%rbp, %rdi
.LEHB28:
	call	_ZN4asio6detail15throw_exceptionISt12system_errorEEvRKT_@PLT
.LEHE28:
.L1444:
	endbr64
	movq	%rax, %r12
	jmp	.L1442
	.section	.gcc_except_table
.LLSDA10422:
	.byte	0xff
	.byte	0xff
	.byte	0x1
	.uleb128 .LLSDACSE10422-.LLSDACSB10422
.LLSDACSB10422:
	.uleb128 .LEHB27-.LFB10422
	.uleb128 .LEHE27-.LEHB27
	.uleb128 0
	.uleb128 0
	.uleb128 .LEHB28-.LFB10422
	.uleb128 .LEHE28-.LEHB28
	.uleb128 .L1444-.LFB10422
	.uleb128 0
.LLSDACSE10422:
	.text
	.cfi_endproc
	.section	.text.unlikely
	.cfi_startproc
	.cfi_personality 0x9b,DW.ref.__gxx_personality_v0
	.cfi_lsda 0x1b,.LLSDAC10422
	.type	_ZN4asio6detail14do_throw_errorERKSt10error_codePKc.isra.0.cold, @function
_ZN4asio6detail14do_throw_errorERKSt10error_codePKc.isra.0.cold:
.LFSB10422:
.L1442:
	.cfi_def_cfa_offset 80
	.cfi_offset 6, -24
	.cfi_offset 12, -16
	movq	%rbp, %rdi
	call	_ZNSt12system_errorD1Ev@PLT
	movq	%r12, %rdi
.LEHB29:
	call	_Unwind_Resume@PLT
.LEHE29:
	.cfi_endproc
.LFE10422:
	.section	.gcc_except_table
.LLSDAC10422:
	.byte	0xff
	.byte	0xff
	.byte	0x1
	.uleb128 .LLSDACSEC10422-.LLSDACSBC10422
.LLSDACSBC10422:
	.uleb128 .LEHB29-.LCOLDB19
	.uleb128 .LEHE29-.LEHB29
	.uleb128 0
	.uleb128 0
.LLSDACSEC10422:
	.section	.text.unlikely
	.text
	.size	_ZN4asio6detail14do_throw_errorERKSt10error_codePKc.isra.0, .-_ZN4asio6detail14do_throw_errorERKSt10error_codePKc.isra.0
	.section	.text.unlikely
	.size	_ZN4asio6detail14do_throw_errorERKSt10error_codePKc.isra.0.cold, .-_ZN4asio6detail14do_throw_errorERKSt10error_codePKc.isra.0.cold
.LCOLDE19:
	.text
.LHOTE19:
	.section	.rodata._ZN4asio6detail13epoll_reactor12fork_serviceENS_10io_service10fork_eventE.str1.1,"aMS",@progbits,1
.LC20:
	.string	"epoll"
.LC21:
	.string	"eventfd_select_interrupter"
.LC22:
	.string	"epoll re-registration"
	.section	.text._ZN4asio6detail13epoll_reactor12fork_serviceENS_10io_service10fork_eventE,"axG",@progbits,_ZN4asio6detail13epoll_reactor12fork_serviceENS_10io_service10fork_eventE,comdat
	.align 2
	.p2align 4
	.weak	_ZN4asio6detail13epoll_reactor12fork_serviceENS_10io_service10fork_eventE
	.type	_ZN4asio6detail13epoll_reactor12fork_serviceENS_10io_service10fork_eventE, @function
_ZN4asio6detail13epoll_reactor12fork_serviceENS_10io_service10fork_eventE:
.LFB3237:
	.cfi_startproc
	.cfi_personality 0x9b,DW.ref.__gxx_personality_v0
	.cfi_lsda 0x1b,.LLSDA3237
	endbr64
	pushq	%r15
	.cfi_def_cfa_offset 16
	.cfi_offset 15, -16
	pushq	%r14
	.cfi_def_cfa_offset 24
	.cfi_offset 14, -24
	pushq	%r13
	.cfi_def_cfa_offset 32
	.cfi_offset 13, -32
	pushq	%r12
	.cfi_def_cfa_offset 40
	.cfi_offset 12, -40
	pushq	%rbp
	.cfi_def_cfa_offset 48
	.cfi_offset 6, -48
	pushq	%rbx
	.cfi_def_cfa_offset 56
	.cfi_offset 3, -56
	subq	$104, %rsp
	.cfi_def_cfa_offset 160
	movq	%fs:40, %rax
	movq	%rax, 88(%rsp)
	xorl	%eax, %eax
	cmpl	$2, %esi
	je	.L1532
.L1446:
	movq	88(%rsp), %rax
	xorq	%fs:40, %rax
	jne	.L1533
	addq	$104, %rsp
	.cfi_remember_state
	.cfi_def_cfa_offset 56
	popq	%rbx
	.cfi_def_cfa_offset 48
	popq	%rbp
	.cfi_def_cfa_offset 40
	popq	%r12
	.cfi_def_cfa_offset 32
	popq	%r13
	.cfi_def_cfa_offset 24
	popq	%r14
	.cfi_def_cfa_offset 16
	popq	%r15
	.cfi_def_cfa_offset 8
	ret
	.p2align 4,,10
	.p2align 3
.L1532:
	.cfi_restore_state
	movq	%rdi, %rbx
	movl	96(%rdi), %edi
	cmpl	$-1, %edi
	jne	.L1534
.L1448:
	movl	$-1, 96(%rbx)
	movl	$524288, %edi
	call	epoll_create1@PLT
	movl	%eax, %ebp
	cmpl	$-1, %eax
	je	.L1535
.L1449:
	movl	100(%rbx), %edi
	movl	%ebp, 96(%rbx)
	cmpl	$-1, %edi
	jne	.L1536
.L1452:
	movl	$-1, 100(%rbx)
	movl	$524288, %esi
	movl	$1, %edi
	call	timerfd_create@PLT
	movl	%eax, %ebp
	cmpl	$-1, %eax
	je	.L1537
.L1453:
	movl	92(%rbx), %r8d
	movl	88(%rbx), %edi
	movl	%ebp, 100(%rbx)
	leaq	88(%rbx), %r12
	cmpl	$-1, %r8d
	je	.L1454
	cmpl	%edi, %r8d
	jne	.L1538
.L1455:
.LEHB30:
	call	close@PLT
.L1456:
	movq	$-1, 88(%rbx)
	movl	$526336, %esi
	xorl	%edi, %edi
	call	eventfd@PLT
	movl	%eax, 88(%rbx)
	movl	%eax, %edx
	movl	%eax, 92(%rbx)
	cmpl	$-1, %eax
	je	.L1539
.L1457:
	movl	96(%rbx), %edi
	leaq	4(%rsp), %rbp
	movl	$1, %esi
	movl	$-2147483639, 4(%rsp)
	movq	%rbp, %rcx
	movq	%r12, 8(%rsp)
	leaq	48(%rsp), %r13
	call	epoll_ctl@PLT
	movl	92(%rbx), %edi
	movl	$8, %edx
	movq	%r13, %rsi
	movq	$1, 48(%rsp)
	call	write@PLT
.LEHE30:
	movl	100(%rbx), %edx
	cmpl	$-1, %edx
	jne	.L1540
.L1462:
	movl	88(%rbx), %edx
	movl	96(%rbx), %edi
	movq	%r13, %rcx
	movl	$3, %esi
	movl	$-2147483639, 48(%rsp)
	movq	%r12, 52(%rsp)
	call	epoll_ctl@PLT
.L1468:
	leaq	120(%rbx), %r14
	movq	%r14, %rdi
	call	pthread_mutex_lock@PLT
	movq	160(%rbx), %r15
	testq	%r15, %r15
	jne	.L1469
	jmp	.L1475
	.p2align 4,,10
	.p2align 3
.L1470:
	movq	24(%r15), %r15
	testq	%r15, %r15
	je	.L1475
.L1469:
	movl	92(%r15), %eax
	movl	88(%r15), %edx
	movq	%rbp, %rcx
	movl	$1, %esi
	movl	96(%rbx), %edi
	movq	%r15, 8(%rsp)
	movl	%eax, 4(%rsp)
	call	epoll_ctl@PLT
	testl	%eax, %eax
	je	.L1470
	movq	_ZGVZN4asio15system_categoryEvE8instance@GOTPCREL(%rip), %r12
	movzbl	(%r12), %eax
	testb	%al, %al
	je	.L1471
.L1531:
	movq	_ZZN4asio15system_categoryEvE8instance@GOTPCREL(%rip), %r13
.L1472:
	call	__errno_location@PLT
	movl	(%rax), %eax
	testl	%eax, %eax
	je	.L1470
	leaq	.LC22(%rip), %rdx
	movl	%eax, %edi
	movq	%r13, %rsi
.LEHB31:
	call	_ZN4asio6detail14do_throw_errorERKSt10error_codePKc.isra.0
.LEHE31:
	.p2align 4,,10
	.p2align 3
.L1538:
	movl	%r8d, %edi
.LEHB32:
	call	close@PLT
	movl	88(%rbx), %edi
.L1454:
	cmpl	$-1, %edi
	je	.L1456
	jmp	.L1455
	.p2align 4,,10
	.p2align 3
.L1540:
	movl	96(%rbx), %edi
	leaq	100(%rbx), %rax
	movq	%rbp, %rcx
	movl	$1, %esi
	movl	$9, 4(%rsp)
	movq	%rax, 8(%rsp)
	call	epoll_ctl@PLT
	movl	100(%rbx), %edi
	cmpl	$-1, %edi
	je	.L1462
	movq	104(%rbx), %r12
	pxor	%xmm0, %xmm0
	movaps	%xmm0, 16(%rsp)
	testq	%r12, %r12
	je	.L1463
	movl	$300000000, %esi
	.p2align 4,,10
	.p2align 3
.L1465:
	movq	(%r12), %rax
	movq	%r12, %rdi
	call	*32(%rax)
	movq	8(%r12), %r12
	movq	%rax, %rsi
	testq	%r12, %r12
	jne	.L1465
	movabsq	$4835703278458516699, %rdx
	xorl	%r8d, %r8d
	movl	100(%rbx), %edi
	imulq	%rdx
	movq	%rsi, %rax
	sarq	$63, %rax
	sarq	$18, %rdx
	subq	%rax, %rdx
	testq	%rsi, %rsi
	movl	$1, %eax
	movq	%rdx, 32(%rsp)
	sete	%r8b
	je	.L1467
	imulq	$1000000, %rdx, %rdx
	subq	%rdx, %rsi
	imulq	$1000, %rsi, %rax
.L1467:
	leaq	16(%rsp), %rdx
	movq	%r13, %rcx
	movl	%r8d, %esi
	movq	%rax, 40(%rsp)
	call	timerfd_settime@PLT
	jmp	.L1468
	.p2align 4,,10
	.p2align 3
.L1536:
	call	close@PLT
	jmp	.L1452
	.p2align 4,,10
	.p2align 3
.L1534:
	call	close@PLT
	jmp	.L1448
	.p2align 4,,10
	.p2align 3
.L1471:
	movq	%r12, %rdi
	call	__cxa_guard_acquire@PLT
	testl	%eax, %eax
	je	.L1531
	movq	_ZZN4asio15system_categoryEvE8instance@GOTPCREL(%rip), %r13
	movq	_ZN4asio6detail15system_categoryD1Ev@GOTPCREL(%rip), %rdi
	leaq	__dso_handle(%rip), %rdx
	movq	%r13, %rsi
	call	__cxa_atexit@PLT
	movq	%r12, %rdi
	call	__cxa_guard_release@PLT
	jmp	.L1472
	.p2align 4,,10
	.p2align 3
.L1475:
	movq	%r14, %rdi
	call	pthread_mutex_unlock@PLT
	jmp	.L1446
	.p2align 4,,10
	.p2align 3
.L1539:
	call	__errno_location@PLT
	cmpl	$22, (%rax)
	movq	%rax, %rbp
	je	.L1541
.L1459:
	leaq	80(%rsp), %rdi
	call	pipe@PLT
	testl	%eax, %eax
	je	.L1477
	call	_ZN4asio15system_categoryEv@PLT
	movl	0(%rbp), %edx
	testl	%edx, %edx
	jne	.L1542
.L1460:
	movl	88(%rbx), %edx
	jmp	.L1457
	.p2align 4,,10
	.p2align 3
.L1537:
	call	__errno_location@PLT
	cmpl	$22, (%rax)
	jne	.L1453
	xorl	%esi, %esi
	movl	$1, %edi
	call	timerfd_create@PLT
	movl	%eax, %ebp
	cmpl	$-1, %eax
	je	.L1453
	movl	%eax, %edi
	movl	$1, %edx
	movl	$2, %esi
	xorl	%eax, %eax
	call	fcntl@PLT
	jmp	.L1453
	.p2align 4,,10
	.p2align 3
.L1535:
	call	__errno_location@PLT
	movq	%rax, %r13
	movl	(%rax), %eax
	subl	$22, %eax
	andl	$-17, %eax
	jne	.L1450
	movl	$20000, %edi
	call	epoll_create@PLT
	movl	%eax, %r12d
	cmpl	$-1, %eax
	je	.L1450
	movl	%eax, %edi
	movl	$1, %edx
	movl	$2, %esi
	xorl	%eax, %eax
	call	fcntl@PLT
	movl	%r12d, %ebp
	jmp	.L1449
.L1450:
	call	_ZN4asio15system_categoryEv@PLT
	movl	0(%r13), %edx
	testl	%edx, %edx
	je	.L1449
	movl	%edx, %edi
	movq	%rax, %rsi
	leaq	.LC20(%rip), %rdx
	call	_ZN4asio6detail14do_throw_errorERKSt10error_codePKc.isra.0
	.p2align 4,,10
	.p2align 3
.L1477:
	movl	80(%rsp), %edi
	movl	$2048, %edx
	movl	$4, %esi
	xorl	%eax, %eax
	movl	%edi, 88(%rbx)
	call	fcntl@PLT
	movl	88(%rbx), %edi
	movl	$1, %edx
	xorl	%eax, %eax
	movl	$2, %esi
	call	fcntl@PLT
	movl	84(%rsp), %edi
	movl	$2048, %edx
	xorl	%eax, %eax
	movl	$4, %esi
	movl	%edi, 92(%rbx)
	call	fcntl@PLT
	movl	92(%rbx), %edi
	movl	$1, %edx
	xorl	%eax, %eax
	movl	$2, %esi
	call	fcntl@PLT
	jmp	.L1460
.L1541:
	xorl	%edi, %edi
	xorl	%esi, %esi
	call	eventfd@PLT
	movl	%eax, 88(%rbx)
	movl	%eax, %edi
	movl	%eax, 92(%rbx)
	cmpl	$-1, %eax
	je	.L1459
	movl	$2048, %edx
	movl	$4, %esi
	xorl	%eax, %eax
	call	fcntl@PLT
	movl	88(%rbx), %edi
	movl	$1, %edx
	xorl	%eax, %eax
	movl	$2, %esi
	call	fcntl@PLT
	movl	88(%rbx), %edx
	cmpl	$-1, %edx
	jne	.L1457
	jmp	.L1459
	.p2align 4,,10
	.p2align 3
.L1463:
	movq	$300, 32(%rsp)
	xorl	%r8d, %r8d
	xorl	%eax, %eax
	jmp	.L1467
.L1533:
	call	__stack_chk_fail@PLT
.L1542:
	movl	%edx, %edi
	movq	%rax, %rsi
	leaq	.LC21(%rip), %rdx
	call	_ZN4asio6detail14do_throw_errorERKSt10error_codePKc.isra.0
.L1481:
	endbr64
	movq	%rax, %rbp
.L1476:
	movq	%r14, %rdi
	call	pthread_mutex_unlock@PLT
	movq	%rbp, %rdi
	call	_Unwind_Resume@PLT
.LEHE32:
	.cfi_endproc
.LFE3237:
	.section	.gcc_except_table
.LLSDA3237:
	.byte	0xff
	.byte	0xff
	.byte	0x1
	.uleb128 .LLSDACSE3237-.LLSDACSB3237
.LLSDACSB3237:
	.uleb128 .LEHB30-.LFB3237
	.uleb128 .LEHE30-.LEHB30
	.uleb128 0
	.uleb128 0
	.uleb128 .LEHB31-.LFB3237
	.uleb128 .LEHE31-.LEHB31
	.uleb128 .L1481-.LFB3237
	.uleb128 0
	.uleb128 .LEHB32-.LFB3237
	.uleb128 .LEHE32-.LEHB32
	.uleb128 0
	.uleb128 0
.LLSDACSE3237:
	.section	.text._ZN4asio6detail13epoll_reactor12fork_serviceENS_10io_service10fork_eventE,"axG",@progbits,_ZN4asio6detail13epoll_reactor12fork_serviceENS_10io_service10fork_eventE,comdat
	.size	_ZN4asio6detail13epoll_reactor12fork_serviceENS_10io_service10fork_eventE, .-_ZN4asio6detail13epoll_reactor12fork_serviceENS_10io_service10fork_eventE
	.section	.rodata._ZN4asio6detail11posix_mutexC2Ev.str1.1,"aMS",@progbits,1
.LC23:
	.string	"mutex"
	.section	.text._ZN4asio6detail11posix_mutexC2Ev,"axG",@progbits,_ZN4asio6detail11posix_mutexC5Ev,comdat
	.align 2
	.p2align 4
	.weak	_ZN4asio6detail11posix_mutexC2Ev
	.type	_ZN4asio6detail11posix_mutexC2Ev, @function
_ZN4asio6detail11posix_mutexC2Ev:
.LFB2402:
	.cfi_startproc
	endbr64
	pushq	%r12
	.cfi_def_cfa_offset 16
	.cfi_offset 12, -16
	xorl	%esi, %esi
	pushq	%rbp
	.cfi_def_cfa_offset 24
	.cfi_offset 6, -24
	pushq	%rbx
	.cfi_def_cfa_offset 32
	.cfi_offset 3, -32
	call	pthread_mutex_init@PLT
	movq	_ZGVZN4asio15system_categoryEvE8instance@GOTPCREL(%rip), %rbp
	movl	%eax, %ebx
	movzbl	0(%rbp), %eax
	testb	%al, %al
	je	.L1544
.L1552:
	movq	_ZZN4asio15system_categoryEvE8instance@GOTPCREL(%rip), %r12
.L1545:
	testl	%ebx, %ebx
	jne	.L1553
	popq	%rbx
	.cfi_remember_state
	.cfi_def_cfa_offset 24
	popq	%rbp
	.cfi_def_cfa_offset 16
	popq	%r12
	.cfi_def_cfa_offset 8
	ret
	.p2align 4,,10
	.p2align 3
.L1544:
	.cfi_restore_state
	movq	%rbp, %rdi
	call	__cxa_guard_acquire@PLT
	testl	%eax, %eax
	je	.L1552
	movq	_ZZN4asio15system_categoryEvE8instance@GOTPCREL(%rip), %r12
	movq	_ZN4asio6detail15system_categoryD1Ev@GOTPCREL(%rip), %rdi
	leaq	__dso_handle(%rip), %rdx
	movq	%r12, %rsi
	call	__cxa_atexit@PLT
	movq	%rbp, %rdi
	call	__cxa_guard_release@PLT
	jmp	.L1545
.L1553:
	movl	%ebx, %edi
	leaq	.LC23(%rip), %rdx
	movq	%r12, %rsi
	call	_ZN4asio6detail14do_throw_errorERKSt10error_codePKc.isra.0
	.cfi_endproc
.LFE2402:
	.size	_ZN4asio6detail11posix_mutexC2Ev, .-_ZN4asio6detail11posix_mutexC2Ev
	.weak	_ZN4asio6detail11posix_mutexC1Ev
	.set	_ZN4asio6detail11posix_mutexC1Ev,_ZN4asio6detail11posix_mutexC2Ev
	.section	.rodata._ZN4asio2ip16resolver_serviceINS0_3tcpEE12fork_serviceENS_10io_service10fork_eventE.str1.1,"aMS",@progbits,1
.LC24:
	.string	"thread"
	.section	.text._ZN4asio2ip16resolver_serviceINS0_3tcpEE12fork_serviceENS_10io_service10fork_eventE,"axG",@progbits,_ZN4asio2ip16resolver_serviceINS0_3tcpEE12fork_serviceENS_10io_service10fork_eventE,comdat
	.align 2
	.p2align 4
	.weak	_ZN4asio2ip16resolver_serviceINS0_3tcpEE12fork_serviceENS_10io_service10fork_eventE
	.type	_ZN4asio2ip16resolver_serviceINS0_3tcpEE12fork_serviceENS_10io_service10fork_eventE, @function
_ZN4asio2ip16resolver_serviceINS0_3tcpEE12fork_serviceENS_10io_service10fork_eventE:
.LFB10099:
	.cfi_startproc
	.cfi_personality 0x9b,DW.ref.__gxx_personality_v0
	.cfi_lsda 0x1b,.LLSDA10099
	endbr64
	pushq	%r13
	.cfi_def_cfa_offset 16
	.cfi_offset 13, -16
	pushq	%r12
	.cfi_def_cfa_offset 24
	.cfi_offset 12, -24
	pushq	%rbp
	.cfi_def_cfa_offset 32
	.cfi_offset 6, -32
	pushq	%rbx
	.cfi_def_cfa_offset 40
	.cfi_offset 3, -40
	subq	$40, %rsp
	.cfi_def_cfa_offset 80
	movq	%fs:40, %rax
	movq	%rax, 24(%rsp)
	xorl	%eax, %eax
	cmpq	$0, 112(%rdi)
	je	.L1554
	movq	88(%rdi), %rax
	movq	%rdi, %rbx
	movq	8(%rax), %rbp
	leaq	48(%rbp), %r12
	movq	%r12, %rdi
	testl	%esi, %esi
	je	.L1573
	call	pthread_mutex_lock@PLT
	movb	$0, 208(%rbp)
	movq	%r12, %rdi
	call	pthread_mutex_unlock@PLT
	movl	$16, %edi
	movq	88(%rbx), %r13
.LEHB33:
	call	_Znwm@PLT
.LEHE33:
	movl	$16, %edi
	movb	$0, 8(%rax)
	movq	%rax, %r12
.LEHB34:
	call	_Znwm@PLT
.LEHE34:
	movq	%rax, %rbp
	movq	_ZTVN4asio6detail12posix_thread4funcINS0_21resolver_service_base22work_io_service_runnerEEE@GOTPCREL(%rip), %rax
	xorl	%esi, %esi
	movq	%r12, %rdi
	movq	%r13, 8(%rbp)
	movq	asio_detail_posix_thread_function@GOTPCREL(%rip), %rdx
	movq	%rbp, %rcx
	addq	$16, %rax
	movq	%rax, 0(%rbp)
	call	pthread_create@PLT
	movl	%eax, %r13d
	testl	%eax, %eax
	jne	.L1574
	movq	112(%rbx), %rbp
	testq	%rbp, %rbp
	je	.L1562
	cmpb	$0, 8(%rbp)
	je	.L1575
.L1563:
	movl	$16, %esi
	movq	%rbp, %rdi
	call	_ZdlPvm@PLT
.L1562:
	movq	%r12, 112(%rbx)
.L1554:
	movq	24(%rsp), %rax
	xorq	%fs:40, %rax
	jne	.L1576
	addq	$40, %rsp
	.cfi_remember_state
	.cfi_def_cfa_offset 40
	popq	%rbx
	.cfi_def_cfa_offset 32
	popq	%rbp
	.cfi_def_cfa_offset 24
	popq	%r12
	.cfi_def_cfa_offset 16
	popq	%r13
	.cfi_def_cfa_offset 8
	ret
	.p2align 4,,10
	.p2align 3
.L1573:
	.cfi_restore_state
	call	pthread_mutex_lock@PLT
	movb	$1, 208(%rbp)
	leaq	88(%rbp), %rdi
	orq	$1, 136(%rbp)
	call	pthread_cond_broadcast@PLT
	cmpb	$0, 176(%rbp)
	jne	.L1558
	movq	144(%rbp), %rax
	testq	%rax, %rax
	je	.L1558
	leaq	88(%rax), %rdx
	movb	$1, 176(%rbp)
	movl	96(%rax), %edi
	leaq	12(%rsp), %rcx
	movq	%rdx, 16(%rsp)
	movl	88(%rax), %edx
	movl	$3, %esi
	movl	$-2147483639, 12(%rsp)
	call	epoll_ctl@PLT
.L1558:
	movq	%r12, %rdi
	call	pthread_mutex_unlock@PLT
	movq	112(%rbx), %rbx
	cmpb	$0, 8(%rbx)
	jne	.L1554
	movq	(%rbx), %rdi
	xorl	%esi, %esi
.LEHB35:
	call	pthread_join@PLT
.LEHE35:
	movb	$1, 8(%rbx)
	jmp	.L1554
	.p2align 4,,10
	.p2align 3
.L1575:
	movq	0(%rbp), %rdi
	call	pthread_detach@PLT
	jmp	.L1563
.L1576:
	call	__stack_chk_fail@PLT
.L1574:
	movq	%rbp, %rdi
	call	_ZN4asio6detail12posix_thread4funcINS0_21resolver_service_base22work_io_service_runnerEED0Ev@PLT
	call	_ZN4asio15system_categoryEv@PLT
	movl	%r13d, %edi
	leaq	.LC24(%rip), %rdx
	movq	%rax, %rsi
.LEHB36:
	call	_ZN4asio6detail14do_throw_errorERKSt10error_codePKc.isra.0
.LEHE36:
.L1565:
	endbr64
	movq	%rax, %rbp
.L1561:
	movq	%r12, %rdi
	movl	$16, %esi
	call	_ZdlPvm@PLT
	movq	%rbp, %rdi
.LEHB37:
	call	_Unwind_Resume@PLT
.LEHE37:
	.cfi_endproc
.LFE10099:
	.section	.gcc_except_table
.LLSDA10099:
	.byte	0xff
	.byte	0xff
	.byte	0x1
	.uleb128 .LLSDACSE10099-.LLSDACSB10099
.LLSDACSB10099:
	.uleb128 .LEHB33-.LFB10099
	.uleb128 .LEHE33-.LEHB33
	.uleb128 0
	.uleb128 0
	.uleb128 .LEHB34-.LFB10099
	.uleb128 .LEHE34-.LEHB34
	.uleb128 .L1565-.LFB10099
	.uleb128 0
	.uleb128 .LEHB35-.LFB10099
	.uleb128 .LEHE35-.LEHB35
	.uleb128 0
	.uleb128 0
	.uleb128 .LEHB36-.LFB10099
	.uleb128 .LEHE36-.LEHB36
	.uleb128 .L1565-.LFB10099
	.uleb128 0
	.uleb128 .LEHB37-.LFB10099
	.uleb128 .LEHE37-.LEHB37
	.uleb128 0
	.uleb128 0
.LLSDACSE10099:
	.section	.text._ZN4asio2ip16resolver_serviceINS0_3tcpEE12fork_serviceENS_10io_service10fork_eventE,"axG",@progbits,_ZN4asio2ip16resolver_serviceINS0_3tcpEE12fork_serviceENS_10io_service10fork_eventE,comdat
	.size	_ZN4asio2ip16resolver_serviceINS0_3tcpEE12fork_serviceENS_10io_service10fork_eventE, .-_ZN4asio2ip16resolver_serviceINS0_3tcpEE12fork_serviceENS_10io_service10fork_eventE
	.section	.text._ZN4asio6detail11object_poolINS0_13epoll_reactor16descriptor_stateEED2Ev,"axG",@progbits,_ZN4asio6detail11object_poolINS0_13epoll_reactor16descriptor_stateEED5Ev,comdat
	.align 2
	.p2align 4
	.weak	_ZN4asio6detail11object_poolINS0_13epoll_reactor16descriptor_stateEED2Ev
	.type	_ZN4asio6detail11object_poolINS0_13epoll_reactor16descriptor_stateEED2Ev, @function
_ZN4asio6detail11object_poolINS0_13epoll_reactor16descriptor_stateEED2Ev:
.LFB7332:
	.cfi_startproc
	.cfi_personality 0x9b,DW.ref.__gxx_personality_v0
	.cfi_lsda 0x1b,.LLSDA7332
	endbr64
	pushq	%r15
	.cfi_def_cfa_offset 16
	.cfi_offset 15, -16
	pushq	%r14
	.cfi_def_cfa_offset 24
	.cfi_offset 14, -24
	pushq	%r13
	.cfi_def_cfa_offset 32
	.cfi_offset 13, -32
	pushq	%r12
	.cfi_def_cfa_offset 40
	.cfi_offset 12, -40
	pushq	%rbp
	.cfi_def_cfa_offset 48
	.cfi_offset 6, -48
	pushq	%rbx
	.cfi_def_cfa_offset 56
	.cfi_offset 3, -56
	subq	$56, %rsp
	.cfi_def_cfa_offset 112
	movq	(%rdi), %rbx
	movq	%rdi, 8(%rsp)
	movq	%fs:40, %rdx
	movq	%rdx, 40(%rsp)
	xorl	%edx, %edx
	testq	%rbx, %rbx
	je	.L1578
	leaq	16(%rsp), %r13
	.p2align 4,,10
	.p2align 3
.L1584:
	movq	%rbx, %r12
	movq	24(%rbx), %rbx
	leaq	128(%r12), %r15
	leaq	80(%r12), %r14
.L1583:
	movq	(%r15), %rsi
	testq	%rsi, %rsi
	movq	%rsi, (%rsp)
	je	.L1579
	call	_ZNSt3_V215system_categoryEv@PLT
	movq	(%rsp), %rsi
	movq	%rax, %rbp
	jmp	.L1582
	.p2align 4,,10
	.p2align 3
.L1580:
	movq	$0, (%rsi)
	movq	8(%rsi), %rax
	xorl	%ecx, %ecx
	movq	%r13, %rdx
	movl	$0, 16(%rsp)
	xorl	%edi, %edi
	movq	%rbp, 24(%rsp)
	call	*%rax
	movq	(%r15), %rsi
	testq	%rsi, %rsi
	je	.L1579
.L1582:
	movq	(%rsi), %rax
	movq	%rax, (%r15)
	testq	%rax, %rax
	jne	.L1580
	movq	$0, 8(%r15)
	jmp	.L1580
	.p2align 4,,10
	.p2align 3
.L1579:
	subq	$16, %r15
	cmpq	%r14, %r15
	jne	.L1583
	leaq	40(%r12), %rdi
	call	pthread_mutex_destroy@PLT
	movl	$152, %esi
	movq	%r12, %rdi
	call	_ZdlPvm@PLT
	testq	%rbx, %rbx
	jne	.L1584
.L1578:
	movq	8(%rsp), %rax
	movq	8(%rax), %r13
	testq	%r13, %r13
	je	.L1577
	leaq	16(%rsp), %r14
	.p2align 4,,10
	.p2align 3
.L1591:
	movq	%r13, %r12
	movq	24(%r13), %r13
	leaq	80(%r12), %rax
	leaq	128(%r12), %r15
	movq	%rax, (%rsp)
.L1590:
	movq	(%r15), %rbp
	testq	%rbp, %rbp
	je	.L1586
	call	_ZNSt3_V215system_categoryEv@PLT
	movq	%rax, %rbx
	jmp	.L1589
	.p2align 4,,10
	.p2align 3
.L1587:
	movq	$0, 0(%rbp)
	movq	8(%rbp), %rax
	xorl	%ecx, %ecx
	xorl	%edi, %edi
	movq	%rbp, %rsi
	movl	$0, 16(%rsp)
	movq	%r14, %rdx
	movq	%rbx, 24(%rsp)
	call	*%rax
	movq	(%r15), %rbp
	testq	%rbp, %rbp
	je	.L1586
.L1589:
	movq	0(%rbp), %rax
	movq	%rax, (%r15)
	testq	%rax, %rax
	jne	.L1587
	movq	$0, 8(%r15)
	jmp	.L1587
	.p2align 4,,10
	.p2align 3
.L1586:
	subq	$16, %r15
	cmpq	(%rsp), %r15
	jne	.L1590
	leaq	40(%r12), %rdi
	call	pthread_mutex_destroy@PLT
	movl	$152, %esi
	movq	%r12, %rdi
	call	_ZdlPvm@PLT
	testq	%r13, %r13
	jne	.L1591
.L1577:
	movq	40(%rsp), %rax
	xorq	%fs:40, %rax
	jne	.L1624
	addq	$56, %rsp
	.cfi_remember_state
	.cfi_def_cfa_offset 56
	popq	%rbx
	.cfi_def_cfa_offset 48
	popq	%rbp
	.cfi_def_cfa_offset 40
	popq	%r12
	.cfi_def_cfa_offset 32
	popq	%r13
	.cfi_def_cfa_offset 24
	popq	%r14
	.cfi_def_cfa_offset 16
	popq	%r15
	.cfi_def_cfa_offset 8
	ret
.L1624:
	.cfi_restore_state
	call	__stack_chk_fail@PLT
	.cfi_endproc
.LFE7332:
	.section	.gcc_except_table
.LLSDA7332:
	.byte	0xff
	.byte	0xff
	.byte	0x1
	.uleb128 .LLSDACSE7332-.LLSDACSB7332
.LLSDACSB7332:
.LLSDACSE7332:
	.section	.text._ZN4asio6detail11object_poolINS0_13epoll_reactor16descriptor_stateEED2Ev,"axG",@progbits,_ZN4asio6detail11object_poolINS0_13epoll_reactor16descriptor_stateEED5Ev,comdat
	.size	_ZN4asio6detail11object_poolINS0_13epoll_reactor16descriptor_stateEED2Ev, .-_ZN4asio6detail11object_poolINS0_13epoll_reactor16descriptor_stateEED2Ev
	.weak	_ZN4asio6detail11object_poolINS0_13epoll_reactor16descriptor_stateEED1Ev
	.set	_ZN4asio6detail11object_poolINS0_13epoll_reactor16descriptor_stateEED1Ev,_ZN4asio6detail11object_poolINS0_13epoll_reactor16descriptor_stateEED2Ev
	.section	.text._ZN4asio6detail16service_registry6createINS0_13epoll_reactorEEEPNS_10io_service7serviceERS4_,"axG",@progbits,_ZN4asio6detail16service_registry6createINS0_13epoll_reactorEEEPNS_10io_service7serviceERS4_,comdat
	.align 2
	.p2align 4
	.weak	_ZN4asio6detail16service_registry6createINS0_13epoll_reactorEEEPNS_10io_service7serviceERS4_
	.type	_ZN4asio6detail16service_registry6createINS0_13epoll_reactorEEEPNS_10io_service7serviceERS4_, @function
_ZN4asio6detail16service_registry6createINS0_13epoll_reactorEEEPNS_10io_service7serviceERS4_:
.LFB8381:
	.cfi_startproc
	.cfi_personality 0x9b,DW.ref.__gxx_personality_v0
	.cfi_lsda 0x1b,.LLSDA8381
	endbr64
	pushq	%r15
	.cfi_def_cfa_offset 16
	.cfi_offset 15, -16
	pushq	%r14
	.cfi_def_cfa_offset 24
	.cfi_offset 14, -24
	pushq	%r13
	.cfi_def_cfa_offset 32
	.cfi_offset 13, -32
	pushq	%r12
	.cfi_def_cfa_offset 40
	.cfi_offset 12, -40
	pushq	%rbp
	.cfi_def_cfa_offset 48
	.cfi_offset 6, -48
	pushq	%rbx
	.cfi_def_cfa_offset 56
	.cfi_offset 3, -56
	movq	%rdi, %rbx
	movl	$176, %edi
	subq	$72, %rsp
	.cfi_def_cfa_offset 128
	movq	%fs:40, %rax
	movq	%rax, 56(%rsp)
	xorl	%eax, %eax
.LEHB38:
	call	_Znwm@PLT
.LEHE38:
	xorl	%esi, %esi
	movq	%rbx, 24(%rax)
	movq	%rax, %r12
	movq	$0, 8(%rax)
	leaq	48(%r12), %r13
	movq	$0, 16(%rax)
	movq	%r13, %rdi
	movq	$0, 32(%rax)
	movq	_ZTVN4asio6detail13epoll_reactorE@GOTPCREL(%rip), %rax
	addq	$16, %rax
	movq	%rax, (%r12)
	movq	8(%rbx), %rax
	movq	%rax, 40(%r12)
	call	pthread_mutex_init@PLT
	movq	_ZGVZN4asio15system_categoryEvE8instance@GOTPCREL(%rip), %rbp
	movl	%eax, %ebx
	movzbl	0(%rbp), %eax
	testb	%al, %al
	je	.L1626
.L1701:
	movq	_ZZN4asio15system_categoryEvE8instance@GOTPCREL(%rip), %r14
.L1627:
	testl	%ebx, %ebx
	jne	.L1702
	movl	$526336, %esi
	xorl	%edi, %edi
	leaq	88(%r12), %rbx
	call	eventfd@PLT
	movl	%eax, 88(%r12)
	movl	%eax, 92(%r12)
	cmpl	$-1, %eax
	je	.L1703
.L1631:
	movl	$524288, %edi
	call	epoll_create1@PLT
	movl	%eax, %r15d
	cmpl	$-1, %eax
	je	.L1704
.L1637:
	movl	$524288, %esi
	movl	$1, %edi
	movl	%r15d, 96(%r12)
	call	timerfd_create@PLT
	movl	%eax, %r15d
	cmpl	$-1, %eax
	je	.L1705
.L1643:
	movl	%r15d, 100(%r12)
	leaq	120(%r12), %r15
	xorl	%esi, %esi
	movq	%r15, %rdi
	movb	$0, 112(%r12)
	movq	$0, 104(%r12)
	call	pthread_mutex_init@PLT
	movl	%eax, %ecx
	movzbl	0(%rbp), %eax
	testb	%al, %al
	je	.L1706
.L1647:
	testl	%ecx, %ecx
	jne	.L1707
	movl	88(%r12), %edx
	movl	96(%r12), %edi
	leaq	36(%rsp), %r14
	pxor	%xmm0, %xmm0
	movl	$1, %esi
	movq	%r14, %rcx
	movq	%rbx, 40(%rsp)
	movl	$-2147483639, 36(%rsp)
	movups	%xmm0, 160(%r12)
	call	epoll_ctl@PLT
	movl	92(%r12), %edi
	leaq	24(%rsp), %rsi
	movl	$8, %edx
	movq	$1, 24(%rsp)
.LEHB39:
	call	write@PLT
.LEHE39:
	movl	100(%r12), %edx
	cmpl	$-1, %edx
	je	.L1625
	movl	96(%r12), %edi
	leaq	100(%r12), %rax
	movq	%r14, %rcx
	movl	$1, %esi
	movl	$9, 36(%rsp)
	movq	%rax, 40(%rsp)
	call	epoll_ctl@PLT
.L1625:
	movq	56(%rsp), %rax
	xorq	%fs:40, %rax
	jne	.L1708
	addq	$72, %rsp
	.cfi_remember_state
	.cfi_def_cfa_offset 56
	movq	%r12, %rax
	popq	%rbx
	.cfi_def_cfa_offset 48
	popq	%rbp
	.cfi_def_cfa_offset 40
	popq	%r12
	.cfi_def_cfa_offset 32
	popq	%r13
	.cfi_def_cfa_offset 24
	popq	%r14
	.cfi_def_cfa_offset 16
	popq	%r15
	.cfi_def_cfa_offset 8
	ret
	.p2align 4,,10
	.p2align 3
.L1704:
	.cfi_restore_state
	call	__errno_location@PLT
	movq	%rax, %r8
	movl	(%rax), %eax
	subl	$22, %eax
	andl	$-17, %eax
	jne	.L1638
	movl	$20000, %edi
	movq	%r8, (%rsp)
	call	epoll_create@PLT
	movq	(%rsp), %r8
	cmpl	$-1, %eax
	movl	%eax, 12(%rsp)
	movl	%eax, %edi
	jne	.L1709
.L1638:
	movzbl	0(%rbp), %eax
	testb	%al, %al
	je	.L1710
.L1640:
	movl	(%r8), %eax
	testl	%eax, %eax
	je	.L1637
	leaq	.LC20(%rip), %rdx
	movl	%eax, %edi
	movq	%r14, %rsi
.LEHB40:
	call	_ZN4asio6detail14do_throw_errorERKSt10error_codePKc.isra.0
.LEHE40:
	.p2align 4,,10
	.p2align 3
.L1703:
	call	__errno_location@PLT
	cmpl	$22, (%rax)
	movq	%rax, %r15
	je	.L1711
.L1633:
	leaq	48(%rsp), %rdi
	call	pipe@PLT
	testl	%eax, %eax
	jne	.L1712
	movl	48(%rsp), %edi
	movl	$2048, %edx
	movl	$4, %esi
	xorl	%eax, %eax
	movl	%edi, 88(%r12)
.LEHB41:
	call	fcntl@PLT
	movl	88(%r12), %edi
	movl	$1, %edx
	movl	$2, %esi
	xorl	%eax, %eax
	call	fcntl@PLT
	movl	52(%rsp), %edi
	movl	$2048, %edx
	movl	$4, %esi
	xorl	%eax, %eax
	movl	%edi, 92(%r12)
	call	fcntl@PLT
	movl	92(%r12), %edi
	movl	$1, %edx
	movl	$2, %esi
	xorl	%eax, %eax
	call	fcntl@PLT
.LEHE41:
	jmp	.L1631
	.p2align 4,,10
	.p2align 3
.L1705:
	call	__errno_location@PLT
	cmpl	$22, (%rax)
	jne	.L1643
	xorl	%esi, %esi
	movl	$1, %edi
	call	timerfd_create@PLT
	cmpl	$-1, %eax
	je	.L1643
	movl	%eax, %r15d
	movl	%eax, %edi
	movl	$1, %edx
	movl	$2, %esi
	xorl	%eax, %eax
.LEHB42:
	call	fcntl@PLT
	jmp	.L1643
	.p2align 4,,10
	.p2align 3
.L1626:
	movq	%rbp, %rdi
	call	__cxa_guard_acquire@PLT
	testl	%eax, %eax
	je	.L1701
	movq	_ZZN4asio15system_categoryEvE8instance@GOTPCREL(%rip), %r14
	movq	_ZN4asio6detail15system_categoryD1Ev@GOTPCREL(%rip), %rdi
	leaq	__dso_handle(%rip), %rdx
	movq	%r14, %rsi
	call	__cxa_atexit@PLT
	movq	%rbp, %rdi
	call	__cxa_guard_release@PLT
	jmp	.L1627
	.p2align 4,,10
	.p2align 3
.L1706:
	movq	%rbp, %rdi
	movl	%ecx, (%rsp)
	call	__cxa_guard_acquire@PLT
	movl	(%rsp), %ecx
	testl	%eax, %eax
	je	.L1647
	movq	_ZN4asio6detail15system_categoryD1Ev@GOTPCREL(%rip), %rdi
	leaq	__dso_handle(%rip), %rdx
	movq	%r14, %rsi
	call	__cxa_atexit@PLT
	movq	%rbp, %rdi
	call	__cxa_guard_release@PLT
	movl	(%rsp), %ecx
	jmp	.L1647
	.p2align 4,,10
	.p2align 3
.L1709:
	movl	$1, %edx
	movl	$2, %esi
	xorl	%eax, %eax
	call	fcntl@PLT
.LEHE42:
	movl	12(%rsp), %r15d
	jmp	.L1637
	.p2align 4,,10
	.p2align 3
.L1712:
	call	_ZN4asio15system_categoryEv@PLT
	movl	(%r15), %edx
	testl	%edx, %edx
	je	.L1631
	movl	%edx, %edi
	movq	%rax, %rsi
	leaq	.LC21(%rip), %rdx
.LEHB43:
	call	_ZN4asio6detail14do_throw_errorERKSt10error_codePKc.isra.0
	.p2align 4,,10
	.p2align 3
.L1710:
	movq	%rbp, %rdi
	movq	%r8, (%rsp)
	call	__cxa_guard_acquire@PLT
	movq	(%rsp), %r8
	testl	%eax, %eax
	je	.L1640
	movq	_ZN4asio6detail15system_categoryD1Ev@GOTPCREL(%rip), %rdi
	leaq	__dso_handle(%rip), %rdx
	movq	%r14, %rsi
	call	__cxa_atexit@PLT
	movq	%rbp, %rdi
	call	__cxa_guard_release@PLT
	movq	(%rsp), %r8
	jmp	.L1640
	.p2align 4,,10
	.p2align 3
.L1711:
	xorl	%edi, %edi
	xorl	%esi, %esi
	call	eventfd@PLT
	movl	%eax, 88(%r12)
	movl	%eax, %edi
	movl	%eax, 92(%r12)
	cmpl	$-1, %eax
	je	.L1633
	movl	$2048, %edx
	movl	$4, %esi
	xorl	%eax, %eax
	call	fcntl@PLT
	movl	88(%r12), %edi
	movl	$1, %edx
	movl	$2, %esi
	xorl	%eax, %eax
	call	fcntl@PLT
.LEHE43:
	cmpl	$-1, 88(%r12)
	jne	.L1631
	jmp	.L1633
.L1702:
	movl	%ebx, %edi
	leaq	.LC23(%rip), %rdx
	movq	%r14, %rsi
.LEHB44:
	call	_ZN4asio6detail14do_throw_errorERKSt10error_codePKc.isra.0
.LEHE44:
.L1708:
	call	__stack_chk_fail@PLT
.L1707:
	leaq	.LC23(%rip), %rdx
	movl	%ecx, %edi
	movq	%r14, %rsi
.LEHB45:
	call	_ZN4asio6detail14do_throw_errorERKSt10error_codePKc.isra.0
.LEHE45:
.L1661:
	endbr64
	movq	%rax, %rbp
	jmp	.L1656
.L1663:
	endbr64
	movq	%rax, %rbx
	jmp	.L1652
.L1651:
	leaq	160(%r12), %rdi
	call	_ZN4asio6detail11object_poolINS0_13epoll_reactor16descriptor_stateEED1Ev@PLT
	movq	%r15, %rdi
	call	pthread_mutex_destroy@PLT
.L1652:
	movl	92(%r12), %r8d
	movl	88(%r12), %edi
	cmpl	$-1, %r8d
	je	.L1653
	cmpl	%edi, %r8d
	je	.L1653
	movl	%r8d, %edi
	call	close@PLT
	movl	88(%r12), %edi
.L1653:
	cmpl	$-1, %edi
	je	.L1655
	call	close@PLT
.L1655:
	movq	%r13, %rdi
	movq	%rbx, %rbp
	call	pthread_mutex_destroy@PLT
.L1656:
	movq	%r12, %rdi
	movl	$176, %esi
	call	_ZdlPvm@PLT
	movq	%rbp, %rdi
.LEHB46:
	call	_Unwind_Resume@PLT
.LEHE46:
.L1662:
	endbr64
	movq	%rax, %rbx
	jmp	.L1655
.L1664:
	endbr64
	movq	%rax, %rbx
	jmp	.L1651
	.cfi_endproc
.LFE8381:
	.section	.gcc_except_table
.LLSDA8381:
	.byte	0xff
	.byte	0xff
	.byte	0x1
	.uleb128 .LLSDACSE8381-.LLSDACSB8381
.LLSDACSB8381:
	.uleb128 .LEHB38-.LFB8381
	.uleb128 .LEHE38-.LEHB38
	.uleb128 0
	.uleb128 0
	.uleb128 .LEHB39-.LFB8381
	.uleb128 .LEHE39-.LEHB39
	.uleb128 .L1664-.LFB8381
	.uleb128 0
	.uleb128 .LEHB40-.LFB8381
	.uleb128 .LEHE40-.LEHB40
	.uleb128 .L1663-.LFB8381
	.uleb128 0
	.uleb128 .LEHB41-.LFB8381
	.uleb128 .LEHE41-.LEHB41
	.uleb128 .L1662-.LFB8381
	.uleb128 0
	.uleb128 .LEHB42-.LFB8381
	.uleb128 .LEHE42-.LEHB42
	.uleb128 .L1663-.LFB8381
	.uleb128 0
	.uleb128 .LEHB43-.LFB8381
	.uleb128 .LEHE43-.LEHB43
	.uleb128 .L1662-.LFB8381
	.uleb128 0
	.uleb128 .LEHB44-.LFB8381
	.uleb128 .LEHE44-.LEHB44
	.uleb128 .L1661-.LFB8381
	.uleb128 0
	.uleb128 .LEHB45-.LFB8381
	.uleb128 .LEHE45-.LEHB45
	.uleb128 .L1663-.LFB8381
	.uleb128 0
	.uleb128 .LEHB46-.LFB8381
	.uleb128 .LEHE46-.LEHB46
	.uleb128 0
	.uleb128 0
.LLSDACSE8381:
	.section	.text._ZN4asio6detail16service_registry6createINS0_13epoll_reactorEEEPNS_10io_service7serviceERS4_,"axG",@progbits,_ZN4asio6detail16service_registry6createINS0_13epoll_reactorEEEPNS_10io_service7serviceERS4_,comdat
	.size	_ZN4asio6detail16service_registry6createINS0_13epoll_reactorEEEPNS_10io_service7serviceERS4_, .-_ZN4asio6detail16service_registry6createINS0_13epoll_reactorEEEPNS_10io_service7serviceERS4_
	.section	.text._ZN4asio6detail10scoped_ptrINS_10io_serviceEED2Ev,"axG",@progbits,_ZN4asio6detail10scoped_ptrINS_10io_serviceEED5Ev,comdat
	.align 2
	.p2align 4
	.weak	_ZN4asio6detail10scoped_ptrINS_10io_serviceEED2Ev
	.type	_ZN4asio6detail10scoped_ptrINS_10io_serviceEED2Ev, @function
_ZN4asio6detail10scoped_ptrINS_10io_serviceEED2Ev:
.LFB7519:
	.cfi_startproc
	.cfi_personality 0x9b,DW.ref.__gxx_personality_v0
	.cfi_lsda 0x1b,.LLSDA7519
	endbr64
	pushq	%r12
	.cfi_def_cfa_offset 16
	.cfi_offset 12, -16
	pushq	%rbp
	.cfi_def_cfa_offset 24
	.cfi_offset 6, -24
	pushq	%rbx
	.cfi_def_cfa_offset 32
	.cfi_offset 3, -32
	movq	(%rdi), %r12
	testq	%r12, %r12
	je	.L1713
	movq	(%r12), %rbp
	testq	%rbp, %rbp
	je	.L1715
	movq	56(%rbp), %rbx
	testq	%rbx, %rbx
	je	.L1716
	.p2align 4,,10
	.p2align 3
.L1717:
	movq	(%rbx), %rax
	movq	%rbx, %rdi
	call	*16(%rax)
	movq	32(%rbx), %rbx
	testq	%rbx, %rbx
	jne	.L1717
	movq	56(%rbp), %rbx
	testq	%rbx, %rbx
	je	.L1716
	.p2align 4,,10
	.p2align 3
.L1718:
	movq	%rbx, %rdi
	movq	32(%rbx), %rbx
	movq	(%rdi), %rax
	call	*8(%rax)
	movq	%rbx, 56(%rbp)
	testq	%rbx, %rbx
	jne	.L1718
.L1716:
	leaq	8(%rbp), %rdi
	call	pthread_mutex_destroy@PLT
	movl	$64, %esi
	movq	%rbp, %rdi
	call	_ZdlPvm@PLT
.L1715:
	popq	%rbx
	.cfi_remember_state
	.cfi_def_cfa_offset 24
	movq	%r12, %rdi
	popq	%rbp
	.cfi_def_cfa_offset 16
	movl	$16, %esi
	popq	%r12
	.cfi_def_cfa_offset 8
	jmp	_ZdlPvm@PLT
	.p2align 4,,10
	.p2align 3
.L1713:
	.cfi_restore_state
	popq	%rbx
	.cfi_def_cfa_offset 24
	popq	%rbp
	.cfi_def_cfa_offset 16
	popq	%r12
	.cfi_def_cfa_offset 8
	ret
	.cfi_endproc
.LFE7519:
	.section	.gcc_except_table
.LLSDA7519:
	.byte	0xff
	.byte	0xff
	.byte	0x1
	.uleb128 .LLSDACSE7519-.LLSDACSB7519
.LLSDACSB7519:
.LLSDACSE7519:
	.section	.text._ZN4asio6detail10scoped_ptrINS_10io_serviceEED2Ev,"axG",@progbits,_ZN4asio6detail10scoped_ptrINS_10io_serviceEED5Ev,comdat
	.size	_ZN4asio6detail10scoped_ptrINS_10io_serviceEED2Ev, .-_ZN4asio6detail10scoped_ptrINS_10io_serviceEED2Ev
	.weak	_ZN4asio6detail10scoped_ptrINS_10io_serviceEED1Ev
	.set	_ZN4asio6detail10scoped_ptrINS_10io_serviceEED1Ev,_ZN4asio6detail10scoped_ptrINS_10io_serviceEED2Ev
	.section	.text._ZNSt8functionIFvRKSt10shared_ptrIN7asiopal8ExecutorEEN4asio19basic_stream_socketINS6_2ip3tcpENS6_21stream_socket_serviceIS9_EEEERKSt10error_codeEEC2ERKSH_,"axG",@progbits,_ZNSt8functionIFvRKSt10shared_ptrIN7asiopal8ExecutorEEN4asio19basic_stream_socketINS6_2ip3tcpENS6_21stream_socket_serviceIS9_EEEERKSt10error_codeEEC5ERKSH_,comdat
	.align 2
	.p2align 4
	.weak	_ZNSt8functionIFvRKSt10shared_ptrIN7asiopal8ExecutorEEN4asio19basic_stream_socketINS6_2ip3tcpENS6_21stream_socket_serviceIS9_EEEERKSt10error_codeEEC2ERKSH_
	.type	_ZNSt8functionIFvRKSt10shared_ptrIN7asiopal8ExecutorEEN4asio19basic_stream_socketINS6_2ip3tcpENS6_21stream_socket_serviceIS9_EEEERKSt10error_codeEEC2ERKSH_, @function
_ZNSt8functionIFvRKSt10shared_ptrIN7asiopal8ExecutorEEN4asio19basic_stream_socketINS6_2ip3tcpENS6_21stream_socket_serviceIS9_EEEERKSt10error_codeEEC2ERKSH_:
.LFB7824:
	.cfi_startproc
	.cfi_personality 0x9b,DW.ref.__gxx_personality_v0
	.cfi_lsda 0x1b,.LLSDA7824
	endbr64
	movq	$0, 16(%rdi)
	movq	16(%rsi), %rax
	testq	%rax, %rax
	je	.L1743
	pushq	%r12
	.cfi_def_cfa_offset 16
	.cfi_offset 12, -16
	movl	$2, %edx
	pushq	%rbp
	.cfi_def_cfa_offset 24
	.cfi_offset 6, -24
	movq	%rdi, %rbp
	pushq	%rbx
	.cfi_def_cfa_offset 32
	.cfi_offset 3, -32
	movq	%rsi, %rbx
.LEHB47:
	call	*%rax
.LEHE47:
	movdqu	16(%rbx), %xmm0
	movups	%xmm0, 16(%rbp)
	popq	%rbx
	.cfi_def_cfa_offset 24
	popq	%rbp
	.cfi_def_cfa_offset 16
	popq	%r12
	.cfi_def_cfa_offset 8
	ret
	.p2align 4,,10
	.p2align 3
.L1743:
	.cfi_restore 3
	.cfi_restore 6
	.cfi_restore 12
	ret
.L1735:
	.cfi_def_cfa_offset 32
	.cfi_offset 3, -32
	.cfi_offset 6, -24
	.cfi_offset 12, -16
	endbr64
	movq	%rax, %r12
.L1733:
	movq	16(%rbp), %rax
	testq	%rax, %rax
	je	.L1734
	movl	$3, %edx
	movq	%rbp, %rsi
	movq	%rbp, %rdi
	call	*%rax
.L1734:
	movq	%r12, %rdi
.LEHB48:
	call	_Unwind_Resume@PLT
.LEHE48:
	.cfi_endproc
.LFE7824:
	.section	.gcc_except_table
.LLSDA7824:
	.byte	0xff
	.byte	0xff
	.byte	0x1
	.uleb128 .LLSDACSE7824-.LLSDACSB7824
.LLSDACSB7824:
	.uleb128 .LEHB47-.LFB7824
	.uleb128 .LEHE47-.LEHB47
	.uleb128 .L1735-.LFB7824
	.uleb128 0
	.uleb128 .LEHB48-.LFB7824
	.uleb128 .LEHE48-.LEHB48
	.uleb128 0
	.uleb128 0
.LLSDACSE7824:
	.section	.text._ZNSt8functionIFvRKSt10shared_ptrIN7asiopal8ExecutorEEN4asio19basic_stream_socketINS6_2ip3tcpENS6_21stream_socket_serviceIS9_EEEERKSt10error_codeEEC2ERKSH_,"axG",@progbits,_ZNSt8functionIFvRKSt10shared_ptrIN7asiopal8ExecutorEEN4asio19basic_stream_socketINS6_2ip3tcpENS6_21stream_socket_serviceIS9_EEEERKSt10error_codeEEC5ERKSH_,comdat
	.size	_ZNSt8functionIFvRKSt10shared_ptrIN7asiopal8ExecutorEEN4asio19basic_stream_socketINS6_2ip3tcpENS6_21stream_socket_serviceIS9_EEEERKSt10error_codeEEC2ERKSH_, .-_ZNSt8functionIFvRKSt10shared_ptrIN7asiopal8ExecutorEEN4asio19basic_stream_socketINS6_2ip3tcpENS6_21stream_socket_serviceIS9_EEEERKSt10error_codeEEC2ERKSH_
	.weak	_ZNSt8functionIFvRKSt10shared_ptrIN7asiopal8ExecutorEEN4asio19basic_stream_socketINS6_2ip3tcpENS6_21stream_socket_serviceIS9_EEEERKSt10error_codeEEC1ERKSH_
	.set	_ZNSt8functionIFvRKSt10shared_ptrIN7asiopal8ExecutorEEN4asio19basic_stream_socketINS6_2ip3tcpENS6_21stream_socket_serviceIS9_EEEERKSt10error_codeEEC1ERKSH_,_ZNSt8functionIFvRKSt10shared_ptrIN7asiopal8ExecutorEEN4asio19basic_stream_socketINS6_2ip3tcpENS6_21stream_socket_serviceIS9_EEEERKSt10error_codeEEC2ERKSH_
	.section	.text._ZNSt16_Sp_counted_baseILN9__gnu_cxx12_Lock_policyE2EE10_M_releaseEv,"axG",@progbits,_ZNSt16_Sp_counted_baseILN9__gnu_cxx12_Lock_policyE2EE10_M_releaseEv,comdat
	.align 2
	.p2align 4
	.weak	_ZNSt16_Sp_counted_baseILN9__gnu_cxx12_Lock_policyE2EE10_M_releaseEv
	.type	_ZNSt16_Sp_counted_baseILN9__gnu_cxx12_Lock_policyE2EE10_M_releaseEv, @function
_ZNSt16_Sp_counted_baseILN9__gnu_cxx12_Lock_policyE2EE10_M_releaseEv:
.LFB8106:
	.cfi_startproc
	endbr64
	pushq	%rbp
	.cfi_def_cfa_offset 16
	.cfi_offset 6, -16
	movq	%rdi, %rbp
	pushq	%rbx
	.cfi_def_cfa_offset 24
	.cfi_offset 3, -24
	subq	$8, %rsp
	.cfi_def_cfa_offset 32
	movq	_ZL28__gthrw___pthread_key_createPjPFvPvE@GOTPCREL(%rip), %rbx
	testq	%rbx, %rbx
	je	.L1747
	movl	$-1, %eax
	lock xaddl	%eax, 8(%rdi)
	cmpl	$1, %eax
	je	.L1755
.L1746:
	addq	$8, %rsp
	.cfi_remember_state
	.cfi_def_cfa_offset 24
	popq	%rbx
	.cfi_def_cfa_offset 16
	popq	%rbp
	.cfi_def_cfa_offset 8
	ret
	.p2align 4,,10
	.p2align 3
.L1747:
	.cfi_restore_state
	movl	8(%rdi), %eax
	leal	-1(%rax), %edx
	movl	%edx, 8(%rdi)
	cmpl	$1, %eax
	jne	.L1746
.L1755:
	movq	0(%rbp), %rax
	movq	%rbp, %rdi
	call	*16(%rax)
	testq	%rbx, %rbx
	je	.L1751
	movl	$-1, %eax
	lock xaddl	%eax, 12(%rbp)
.L1752:
	cmpl	$1, %eax
	jne	.L1746
	movq	0(%rbp), %rax
	movq	%rbp, %rdi
	movq	24(%rax), %rax
	addq	$8, %rsp
	.cfi_remember_state
	.cfi_def_cfa_offset 24
	popq	%rbx
	.cfi_def_cfa_offset 16
	popq	%rbp
	.cfi_def_cfa_offset 8
	jmp	*%rax
	.p2align 4,,10
	.p2align 3
.L1751:
	.cfi_restore_state
	movl	12(%rbp), %eax
	leal	-1(%rax), %edx
	movl	%edx, 12(%rbp)
	jmp	.L1752
	.cfi_endproc
.LFE8106:
	.size	_ZNSt16_Sp_counted_baseILN9__gnu_cxx12_Lock_policyE2EE10_M_releaseEv, .-_ZNSt16_Sp_counted_baseILN9__gnu_cxx12_Lock_policyE2EE10_M_releaseEv
	.text
	.align 2
	.p2align 4
	.type	_ZZN7asiopal9TCPClient12BeginConnectERKSt8functionIFvRKSt10shared_ptrINS_8ExecutorEEN4asio19basic_stream_socketINS7_2ip3tcpENS7_21stream_socket_serviceISA_EEEERKSt10error_codeEEENUlSG_NS9_23basic_resolver_iteratorISA_EEE_D2Ev, @function
_ZZN7asiopal9TCPClient12BeginConnectERKSt8functionIFvRKSt10shared_ptrINS_8ExecutorEEN4asio19basic_stream_socketINS7_2ip3tcpENS7_21stream_socket_serviceISA_EEEERKSt10error_codeEEENUlSG_NS9_23basic_resolver_iteratorISA_EEE_D2Ev:
.LFB6954:
	.cfi_startproc
	.cfi_personality 0x9b,DW.ref.__gxx_personality_v0
	.cfi_lsda 0x1b,.LLSDA6954
	pushq	%rbx
	.cfi_def_cfa_offset 16
	.cfi_offset 3, -16
	movq	32(%rdi), %rax
	movq	%rdi, %rbx
	testq	%rax, %rax
	je	.L1757
	leaq	16(%rdi), %rdi
	movl	$3, %edx
	movq	%rdi, %rsi
	call	*%rax
.L1757:
	movq	8(%rbx), %rdi
	testq	%rdi, %rdi
	je	.L1756
	popq	%rbx
	.cfi_remember_state
	.cfi_def_cfa_offset 8
	jmp	_ZNSt16_Sp_counted_baseILN9__gnu_cxx12_Lock_policyE2EE10_M_releaseEv@PLT
	.p2align 4,,10
	.p2align 3
.L1756:
	.cfi_restore_state
	popq	%rbx
	.cfi_def_cfa_offset 8
	ret
	.cfi_endproc
.LFE6954:
	.section	.gcc_except_table
.LLSDA6954:
	.byte	0xff
	.byte	0xff
	.byte	0x1
	.uleb128 .LLSDACSE6954-.LLSDACSB6954
.LLSDACSB6954:
.LLSDACSE6954:
	.text
	.size	_ZZN7asiopal9TCPClient12BeginConnectERKSt8functionIFvRKSt10shared_ptrINS_8ExecutorEEN4asio19basic_stream_socketINS7_2ip3tcpENS7_21stream_socket_serviceISA_EEEERKSt10error_codeEEENUlSG_NS9_23basic_resolver_iteratorISA_EEE_D2Ev, .-_ZZN7asiopal9TCPClient12BeginConnectERKSt8functionIFvRKSt10shared_ptrINS_8ExecutorEEN4asio19basic_stream_socketINS7_2ip3tcpENS7_21stream_socket_serviceISA_EEEERKSt10error_codeEEENUlSG_NS9_23basic_resolver_iteratorISA_EEE_D2Ev
	.set	_ZZN7asiopal9TCPClient12BeginConnectERKSt8functionIFvRKSt10shared_ptrINS_8ExecutorEEN4asio19basic_stream_socketINS7_2ip3tcpENS7_21stream_socket_serviceISA_EEEERKSt10error_codeEEENUlSG_NS9_23basic_resolver_iteratorISA_EEE_D1Ev,_ZZN7asiopal9TCPClient12BeginConnectERKSt8functionIFvRKSt10shared_ptrINS_8ExecutorEEN4asio19basic_stream_socketINS7_2ip3tcpENS7_21stream_socket_serviceISA_EEEERKSt10error_codeEEENUlSG_NS9_23basic_resolver_iteratorISA_EEE_D2Ev
	.align 2
	.p2align 4
	.type	_ZZN7asiopal9TCPClient12BeginConnectERKSt8functionIFvRKSt10shared_ptrINS_8ExecutorEEN4asio19basic_stream_socketINS7_2ip3tcpENS7_21stream_socket_serviceISA_EEEERKSt10error_codeEEENUlSG_E0_D2Ev, @function
_ZZN7asiopal9TCPClient12BeginConnectERKSt8functionIFvRKSt10shared_ptrINS_8ExecutorEEN4asio19basic_stream_socketINS7_2ip3tcpENS7_21stream_socket_serviceISA_EEEERKSt10error_codeEEENUlSG_E0_D2Ev:
.LFB6970:
	.cfi_startproc
	.cfi_personality 0x9b,DW.ref.__gxx_personality_v0
	.cfi_lsda 0x1b,.LLSDA6970
	pushq	%rbx
	.cfi_def_cfa_offset 16
	.cfi_offset 3, -16
	movq	32(%rdi), %rax
	movq	%rdi, %rbx
	testq	%rax, %rax
	je	.L1764
	leaq	16(%rdi), %rdi
	movl	$3, %edx
	movq	%rdi, %rsi
	call	*%rax
.L1764:
	movq	8(%rbx), %rdi
	testq	%rdi, %rdi
	je	.L1763
	popq	%rbx
	.cfi_remember_state
	.cfi_def_cfa_offset 8
	jmp	_ZNSt16_Sp_counted_baseILN9__gnu_cxx12_Lock_policyE2EE10_M_releaseEv@PLT
	.p2align 4,,10
	.p2align 3
.L1763:
	.cfi_restore_state
	popq	%rbx
	.cfi_def_cfa_offset 8
	ret
	.cfi_endproc
.LFE6970:
	.section	.gcc_except_table
.LLSDA6970:
	.byte	0xff
	.byte	0xff
	.byte	0x1
	.uleb128 .LLSDACSE6970-.LLSDACSB6970
.LLSDACSB6970:
.LLSDACSE6970:
	.text
	.size	_ZZN7asiopal9TCPClient12BeginConnectERKSt8functionIFvRKSt10shared_ptrINS_8ExecutorEEN4asio19basic_stream_socketINS7_2ip3tcpENS7_21stream_socket_serviceISA_EEEERKSt10error_codeEEENUlSG_E0_D2Ev, .-_ZZN7asiopal9TCPClient12BeginConnectERKSt8functionIFvRKSt10shared_ptrINS_8ExecutorEEN4asio19basic_stream_socketINS7_2ip3tcpENS7_21stream_socket_serviceISA_EEEERKSt10error_codeEEENUlSG_E0_D2Ev
	.set	_ZZN7asiopal9TCPClient12BeginConnectERKSt8functionIFvRKSt10shared_ptrINS_8ExecutorEEN4asio19basic_stream_socketINS7_2ip3tcpENS7_21stream_socket_serviceISA_EEEERKSt10error_codeEEENUlSG_E0_D1Ev,_ZZN7asiopal9TCPClient12BeginConnectERKSt8functionIFvRKSt10shared_ptrINS_8ExecutorEEN4asio19basic_stream_socketINS7_2ip3tcpENS7_21stream_socket_serviceISA_EEEERKSt10error_codeEEENUlSG_E0_D2Ev
	.align 2
	.p2align 4
	.type	_ZZN7asiopal9TCPClient19HandleResolveResultERKSt8functionIFvRKSt10shared_ptrINS_8ExecutorEEN4asio19basic_stream_socketINS7_2ip3tcpENS7_21stream_socket_serviceISA_EEEERKSt10error_codeEERKNS9_23basic_resolver_iteratorISA_EESG_ENUlSG_SM_E_D2Ev, @function
_ZZN7asiopal9TCPClient19HandleResolveResultERKSt8functionIFvRKSt10shared_ptrINS_8ExecutorEEN4asio19basic_stream_socketINS7_2ip3tcpENS7_21stream_socket_serviceISA_EEEERKSt10error_codeEERKNS9_23basic_resolver_iteratorISA_EESG_ENUlSG_SM_E_D2Ev:
.LFB6984:
	.cfi_startproc
	.cfi_personality 0x9b,DW.ref.__gxx_personality_v0
	.cfi_lsda 0x1b,.LLSDA6984
	pushq	%rbx
	.cfi_def_cfa_offset 16
	.cfi_offset 3, -16
	movq	32(%rdi), %rax
	movq	%rdi, %rbx
	testq	%rax, %rax
	je	.L1771
	leaq	16(%rdi), %rdi
	movl	$3, %edx
	movq	%rdi, %rsi
	call	*%rax
.L1771:
	movq	8(%rbx), %rdi
	testq	%rdi, %rdi
	je	.L1770
	popq	%rbx
	.cfi_remember_state
	.cfi_def_cfa_offset 8
	jmp	_ZNSt16_Sp_counted_baseILN9__gnu_cxx12_Lock_policyE2EE10_M_releaseEv@PLT
	.p2align 4,,10
	.p2align 3
.L1770:
	.cfi_restore_state
	popq	%rbx
	.cfi_def_cfa_offset 8
	ret
	.cfi_endproc
.LFE6984:
	.section	.gcc_except_table
.LLSDA6984:
	.byte	0xff
	.byte	0xff
	.byte	0x1
	.uleb128 .LLSDACSE6984-.LLSDACSB6984
.LLSDACSB6984:
.LLSDACSE6984:
	.text
	.size	_ZZN7asiopal9TCPClient19HandleResolveResultERKSt8functionIFvRKSt10shared_ptrINS_8ExecutorEEN4asio19basic_stream_socketINS7_2ip3tcpENS7_21stream_socket_serviceISA_EEEERKSt10error_codeEERKNS9_23basic_resolver_iteratorISA_EESG_ENUlSG_SM_E_D2Ev, .-_ZZN7asiopal9TCPClient19HandleResolveResultERKSt8functionIFvRKSt10shared_ptrINS_8ExecutorEEN4asio19basic_stream_socketINS7_2ip3tcpENS7_21stream_socket_serviceISA_EEEERKSt10error_codeEERKNS9_23basic_resolver_iteratorISA_EESG_ENUlSG_SM_E_D2Ev
	.set	_ZZN7asiopal9TCPClient19HandleResolveResultERKSt8functionIFvRKSt10shared_ptrINS_8ExecutorEEN4asio19basic_stream_socketINS7_2ip3tcpENS7_21stream_socket_serviceISA_EEEERKSt10error_codeEERKNS9_23basic_resolver_iteratorISA_EESG_ENUlSG_SM_E_D1Ev,_ZZN7asiopal9TCPClient19HandleResolveResultERKSt8functionIFvRKSt10shared_ptrINS_8ExecutorEEN4asio19basic_stream_socketINS7_2ip3tcpENS7_21stream_socket_serviceISA_EEEERKSt10error_codeEERKNS9_23basic_resolver_iteratorISA_EESG_ENUlSG_SM_E_D2Ev
	.section	.text.unlikely
	.align 2
	.type	_ZZN7asiopal9TCPClient16PostConnectErrorERKSt8functionIFvRKSt10shared_ptrINS_8ExecutorEEN4asio19basic_stream_socketINS7_2ip3tcpENS7_21stream_socket_serviceISA_EEEERKSt10error_codeEESG_ENUlvE_D2Ev, @function
_ZZN7asiopal9TCPClient16PostConnectErrorERKSt8functionIFvRKSt10shared_ptrINS_8ExecutorEEN4asio19basic_stream_socketINS7_2ip3tcpENS7_21stream_socket_serviceISA_EEEERKSt10error_codeEESG_ENUlvE_D2Ev:
.LFB7019:
	.cfi_startproc
	.cfi_personality 0x9b,DW.ref.__gxx_personality_v0
	.cfi_lsda 0x1b,.LLSDA7019
	pushq	%rbx
	.cfi_def_cfa_offset 16
	.cfi_offset 3, -16
	movq	48(%rdi), %rax
	movq	%rdi, %rbx
	testq	%rax, %rax
	je	.L1778
	leaq	32(%rdi), %rdi
	movl	$3, %edx
	movq	%rdi, %rsi
	call	*%rax
.L1778:
	movq	8(%rbx), %rdi
	testq	%rdi, %rdi
	je	.L1777
	popq	%rbx
	.cfi_remember_state
	.cfi_def_cfa_offset 8
	jmp	_ZNSt16_Sp_counted_baseILN9__gnu_cxx12_Lock_policyE2EE10_M_releaseEv@PLT
.L1777:
	.cfi_restore_state
	popq	%rbx
	.cfi_def_cfa_offset 8
	ret
	.cfi_endproc
.LFE7019:
	.section	.gcc_except_table
.LLSDA7019:
	.byte	0xff
	.byte	0xff
	.byte	0x1
	.uleb128 .LLSDACSE7019-.LLSDACSB7019
.LLSDACSB7019:
.LLSDACSE7019:
	.section	.text.unlikely
	.size	_ZZN7asiopal9TCPClient16PostConnectErrorERKSt8functionIFvRKSt10shared_ptrINS_8ExecutorEEN4asio19basic_stream_socketINS7_2ip3tcpENS7_21stream_socket_serviceISA_EEEERKSt10error_codeEESG_ENUlvE_D2Ev, .-_ZZN7asiopal9TCPClient16PostConnectErrorERKSt8functionIFvRKSt10shared_ptrINS_8ExecutorEEN4asio19basic_stream_socketINS7_2ip3tcpENS7_21stream_socket_serviceISA_EEEERKSt10error_codeEESG_ENUlvE_D2Ev
	.set	_ZZN7asiopal9TCPClient16PostConnectErrorERKSt8functionIFvRKSt10shared_ptrINS_8ExecutorEEN4asio19basic_stream_socketINS7_2ip3tcpENS7_21stream_socket_serviceISA_EEEERKSt10error_codeEESG_ENUlvE_D1Ev,_ZZN7asiopal9TCPClient16PostConnectErrorERKSt8functionIFvRKSt10shared_ptrINS_8ExecutorEEN4asio19basic_stream_socketINS7_2ip3tcpENS7_21stream_socket_serviceISA_EEEERKSt10error_codeEESG_ENUlvE_D2Ev
	.align 2
.LCOLDB25:
	.text
.LHOTB25:
	.align 2
	.p2align 4
	.type	_ZZN7asiopal9TCPClient12BeginConnectERKSt8functionIFvRKSt10shared_ptrINS_8ExecutorEEN4asio19basic_stream_socketINS7_2ip3tcpENS7_21stream_socket_serviceISA_EEEERKSt10error_codeEEENUlSG_NS9_23basic_resolver_iteratorISA_EEE_C2EOSN_, @function
_ZZN7asiopal9TCPClient12BeginConnectERKSt8functionIFvRKSt10shared_ptrINS_8ExecutorEEN4asio19basic_stream_socketINS7_2ip3tcpENS7_21stream_socket_serviceISA_EEEERKSt10error_codeEEENUlSG_NS9_23basic_resolver_iteratorISA_EEE_C2EOSN_:
.LFB6957:
	.cfi_startproc
	.cfi_personality 0x9b,DW.ref.__gxx_personality_v0
	.cfi_lsda 0x1b,.LLSDA6957
	pushq	%rbp
	.cfi_def_cfa_offset 16
	.cfi_offset 6, -16
	pxor	%xmm0, %xmm0
	addq	$16, %rsi
	pushq	%rbx
	.cfi_def_cfa_offset 24
	.cfi_offset 3, -24
	movq	%rdi, %rbx
	leaq	16(%rdi), %rdi
	subq	$8, %rsp
	.cfi_def_cfa_offset 32
	movq	-16(%rsi), %rax
	movq	$0, -8(%rdi)
	movq	%rax, -16(%rdi)
	movq	-8(%rsi), %rax
	movups	%xmm0, -16(%rsi)
	movq	%rax, -8(%rdi)
.LEHB49:
	call	_ZNSt8functionIFvRKSt10shared_ptrIN7asiopal8ExecutorEEN4asio19basic_stream_socketINS6_2ip3tcpENS6_21stream_socket_serviceIS9_EEEERKSt10error_codeEEC1ERKSH_@PLT
.LEHE49:
	addq	$8, %rsp
	.cfi_remember_state
	.cfi_def_cfa_offset 24
	popq	%rbx
	.cfi_def_cfa_offset 16
	popq	%rbp
	.cfi_def_cfa_offset 8
	ret
.L1787:
	.cfi_restore_state
	endbr64
	movq	%rax, %rbp
	jmp	.L1785
	.section	.gcc_except_table
.LLSDA6957:
	.byte	0xff
	.byte	0xff
	.byte	0x1
	.uleb128 .LLSDACSE6957-.LLSDACSB6957
.LLSDACSB6957:
	.uleb128 .LEHB49-.LFB6957
	.uleb128 .LEHE49-.LEHB49
	.uleb128 .L1787-.LFB6957
	.uleb128 0
.LLSDACSE6957:
	.text
	.cfi_endproc
	.section	.text.unlikely
	.cfi_startproc
	.cfi_personality 0x9b,DW.ref.__gxx_personality_v0
	.cfi_lsda 0x1b,.LLSDAC6957
	.type	_ZZN7asiopal9TCPClient12BeginConnectERKSt8functionIFvRKSt10shared_ptrINS_8ExecutorEEN4asio19basic_stream_socketINS7_2ip3tcpENS7_21stream_socket_serviceISA_EEEERKSt10error_codeEEENUlSG_NS9_23basic_resolver_iteratorISA_EEE_C2EOSN_.cold, @function
_ZZN7asiopal9TCPClient12BeginConnectERKSt8functionIFvRKSt10shared_ptrINS_8ExecutorEEN4asio19basic_stream_socketINS7_2ip3tcpENS7_21stream_socket_serviceISA_EEEERKSt10error_codeEEENUlSG_NS9_23basic_resolver_iteratorISA_EEE_C2EOSN_.cold:
.LFSB6957:
.L1785:
	.cfi_def_cfa_offset 32
	.cfi_offset 3, -24
	.cfi_offset 6, -16
	movq	8(%rbx), %rdi
	testq	%rdi, %rdi
	je	.L1786
	call	_ZNSt16_Sp_counted_baseILN9__gnu_cxx12_Lock_policyE2EE10_M_releaseEv@PLT
.L1786:
	movq	%rbp, %rdi
.LEHB50:
	call	_Unwind_Resume@PLT
.LEHE50:
	.cfi_endproc
.LFE6957:
	.section	.gcc_except_table
.LLSDAC6957:
	.byte	0xff
	.byte	0xff
	.byte	0x1
	.uleb128 .LLSDACSEC6957-.LLSDACSBC6957
.LLSDACSBC6957:
	.uleb128 .LEHB50-.LCOLDB25
	.uleb128 .LEHE50-.LEHB50
	.uleb128 0
	.uleb128 0
.LLSDACSEC6957:
	.section	.text.unlikely
	.text
	.size	_ZZN7asiopal9TCPClient12BeginConnectERKSt8functionIFvRKSt10shared_ptrINS_8ExecutorEEN4asio19basic_stream_socketINS7_2ip3tcpENS7_21stream_socket_serviceISA_EEEERKSt10error_codeEEENUlSG_NS9_23basic_resolver_iteratorISA_EEE_C2EOSN_, .-_ZZN7asiopal9TCPClient12BeginConnectERKSt8functionIFvRKSt10shared_ptrINS_8ExecutorEEN4asio19basic_stream_socketINS7_2ip3tcpENS7_21stream_socket_serviceISA_EEEERKSt10error_codeEEENUlSG_NS9_23basic_resolver_iteratorISA_EEE_C2EOSN_
	.section	.text.unlikely
	.size	_ZZN7asiopal9TCPClient12BeginConnectERKSt8functionIFvRKSt10shared_ptrINS_8ExecutorEEN4asio19basic_stream_socketINS7_2ip3tcpENS7_21stream_socket_serviceISA_EEEERKSt10error_codeEEENUlSG_NS9_23basic_resolver_iteratorISA_EEE_C2EOSN_.cold, .-_ZZN7asiopal9TCPClient12BeginConnectERKSt8functionIFvRKSt10shared_ptrINS_8ExecutorEEN4asio19basic_stream_socketINS7_2ip3tcpENS7_21stream_socket_serviceISA_EEEERKSt10error_codeEEENUlSG_NS9_23basic_resolver_iteratorISA_EEE_C2EOSN_.cold
.LCOLDE25:
	.text
.LHOTE25:
	.set	_ZZN7asiopal9TCPClient12BeginConnectERKSt8functionIFvRKSt10shared_ptrINS_8ExecutorEEN4asio19basic_stream_socketINS7_2ip3tcpENS7_21stream_socket_serviceISA_EEEERKSt10error_codeEEENUlSG_NS9_23basic_resolver_iteratorISA_EEE_C1EOSN_,_ZZN7asiopal9TCPClient12BeginConnectERKSt8functionIFvRKSt10shared_ptrINS_8ExecutorEEN4asio19basic_stream_socketINS7_2ip3tcpENS7_21stream_socket_serviceISA_EEEERKSt10error_codeEEENUlSG_NS9_23basic_resolver_iteratorISA_EEE_C2EOSN_
	.section	.text.unlikely
	.align 2
.LCOLDB26:
	.text
.LHOTB26:
	.align 2
	.p2align 4
	.type	_ZZN7asiopal9TCPClient12BeginConnectERKSt8functionIFvRKSt10shared_ptrINS_8ExecutorEEN4asio19basic_stream_socketINS7_2ip3tcpENS7_21stream_socket_serviceISA_EEEERKSt10error_codeEEENUlSG_E0_C2EOSL_, @function
_ZZN7asiopal9TCPClient12BeginConnectERKSt8functionIFvRKSt10shared_ptrINS_8ExecutorEEN4asio19basic_stream_socketINS7_2ip3tcpENS7_21stream_socket_serviceISA_EEEERKSt10error_codeEEENUlSG_E0_C2EOSL_:
.LFB6973:
	.cfi_startproc
	.cfi_personality 0x9b,DW.ref.__gxx_personality_v0
	.cfi_lsda 0x1b,.LLSDA6973
	pushq	%rbp
	.cfi_def_cfa_offset 16
	.cfi_offset 6, -16
	pxor	%xmm0, %xmm0
	addq	$16, %rsi
	pushq	%rbx
	.cfi_def_cfa_offset 24
	.cfi_offset 3, -24
	movq	%rdi, %rbx
	leaq	16(%rdi), %rdi
	subq	$8, %rsp
	.cfi_def_cfa_offset 32
	movq	-16(%rsi), %rax
	movq	$0, -8(%rdi)
	movq	%rax, -16(%rdi)
	movq	-8(%rsi), %rax
	movups	%xmm0, -16(%rsi)
	movq	%rax, -8(%rdi)
.LEHB51:
	call	_ZNSt8functionIFvRKSt10shared_ptrIN7asiopal8ExecutorEEN4asio19basic_stream_socketINS6_2ip3tcpENS6_21stream_socket_serviceIS9_EEEERKSt10error_codeEEC1ERKSH_@PLT
.LEHE51:
	addq	$8, %rsp
	.cfi_remember_state
	.cfi_def_cfa_offset 24
	popq	%rbx
	.cfi_def_cfa_offset 16
	popq	%rbp
	.cfi_def_cfa_offset 8
	ret
.L1796:
	.cfi_restore_state
	endbr64
	movq	%rax, %rbp
	jmp	.L1794
	.section	.gcc_except_table
.LLSDA6973:
	.byte	0xff
	.byte	0xff
	.byte	0x1
	.uleb128 .LLSDACSE6973-.LLSDACSB6973
.LLSDACSB6973:
	.uleb128 .LEHB51-.LFB6973
	.uleb128 .LEHE51-.LEHB51
	.uleb128 .L1796-.LFB6973
	.uleb128 0
.LLSDACSE6973:
	.text
	.cfi_endproc
	.section	.text.unlikely
	.cfi_startproc
	.cfi_personality 0x9b,DW.ref.__gxx_personality_v0
	.cfi_lsda 0x1b,.LLSDAC6973
	.type	_ZZN7asiopal9TCPClient12BeginConnectERKSt8functionIFvRKSt10shared_ptrINS_8ExecutorEEN4asio19basic_stream_socketINS7_2ip3tcpENS7_21stream_socket_serviceISA_EEEERKSt10error_codeEEENUlSG_E0_C2EOSL_.cold, @function
_ZZN7asiopal9TCPClient12BeginConnectERKSt8functionIFvRKSt10shared_ptrINS_8ExecutorEEN4asio19basic_stream_socketINS7_2ip3tcpENS7_21stream_socket_serviceISA_EEEERKSt10error_codeEEENUlSG_E0_C2EOSL_.cold:
.LFSB6973:
.L1794:
	.cfi_def_cfa_offset 32
	.cfi_offset 3, -24
	.cfi_offset 6, -16
	movq	8(%rbx), %rdi
	testq	%rdi, %rdi
	je	.L1795
	call	_ZNSt16_Sp_counted_baseILN9__gnu_cxx12_Lock_policyE2EE10_M_releaseEv@PLT
.L1795:
	movq	%rbp, %rdi
.LEHB52:
	call	_Unwind_Resume@PLT
.LEHE52:
	.cfi_endproc
.LFE6973:
	.section	.gcc_except_table
.LLSDAC6973:
	.byte	0xff
	.byte	0xff
	.byte	0x1
	.uleb128 .LLSDACSEC6973-.LLSDACSBC6973
.LLSDACSBC6973:
	.uleb128 .LEHB52-.LCOLDB26
	.uleb128 .LEHE52-.LEHB52
	.uleb128 0
	.uleb128 0
.LLSDACSEC6973:
	.section	.text.unlikely
	.text
	.size	_ZZN7asiopal9TCPClient12BeginConnectERKSt8functionIFvRKSt10shared_ptrINS_8ExecutorEEN4asio19basic_stream_socketINS7_2ip3tcpENS7_21stream_socket_serviceISA_EEEERKSt10error_codeEEENUlSG_E0_C2EOSL_, .-_ZZN7asiopal9TCPClient12BeginConnectERKSt8functionIFvRKSt10shared_ptrINS_8ExecutorEEN4asio19basic_stream_socketINS7_2ip3tcpENS7_21stream_socket_serviceISA_EEEERKSt10error_codeEEENUlSG_E0_C2EOSL_
	.section	.text.unlikely
	.size	_ZZN7asiopal9TCPClient12BeginConnectERKSt8functionIFvRKSt10shared_ptrINS_8ExecutorEEN4asio19basic_stream_socketINS7_2ip3tcpENS7_21stream_socket_serviceISA_EEEERKSt10error_codeEEENUlSG_E0_C2EOSL_.cold, .-_ZZN7asiopal9TCPClient12BeginConnectERKSt8functionIFvRKSt10shared_ptrINS_8ExecutorEEN4asio19basic_stream_socketINS7_2ip3tcpENS7_21stream_socket_serviceISA_EEEERKSt10error_codeEEENUlSG_E0_C2EOSL_.cold
.LCOLDE26:
	.text
.LHOTE26:
	.set	_ZZN7asiopal9TCPClient12BeginConnectERKSt8functionIFvRKSt10shared_ptrINS_8ExecutorEEN4asio19basic_stream_socketINS7_2ip3tcpENS7_21stream_socket_serviceISA_EEEERKSt10error_codeEEENUlSG_E0_C1EOSL_,_ZZN7asiopal9TCPClient12BeginConnectERKSt8functionIFvRKSt10shared_ptrINS_8ExecutorEEN4asio19basic_stream_socketINS7_2ip3tcpENS7_21stream_socket_serviceISA_EEEERKSt10error_codeEEENUlSG_E0_C2EOSL_
	.section	.text.unlikely
	.align 2
.LCOLDB27:
	.text
.LHOTB27:
	.align 2
	.p2align 4
	.globl	_ZN7asiopal9TCPClient6CancelEv
	.type	_ZN7asiopal9TCPClient6CancelEv, @function
_ZN7asiopal9TCPClient6CancelEv:
.LFB6941:
	.cfi_startproc
	.cfi_personality 0x9b,DW.ref.__gxx_personality_v0
	.cfi_lsda 0x1b,.LLSDA6941
	endbr64
	pushq	%r15
	.cfi_def_cfa_offset 16
	.cfi_offset 15, -16
	pushq	%r14
	.cfi_def_cfa_offset 24
	.cfi_offset 14, -24
	pushq	%r13
	.cfi_def_cfa_offset 32
	.cfi_offset 13, -32
	pushq	%r12
	.cfi_def_cfa_offset 40
	.cfi_offset 12, -40
	pushq	%rbp
	.cfi_def_cfa_offset 48
	.cfi_offset 6, -48
	pushq	%rbx
	.cfi_def_cfa_offset 56
	.cfi_offset 3, -56
	subq	$72, %rsp
	.cfi_def_cfa_offset 128
	movq	%fs:40, %rax
	movq	%rax, 56(%rsp)
	xorl	%eax, %eax
	cmpb	$0, 17(%rdi)
	jne	.L1833
	movzbl	16(%rdi), %r13d
	movq	%rdi, %rbx
	testb	%r13b, %r13b
	jne	.L1861
.L1802:
	movq	56(%rsp), %rax
	xorq	%fs:40, %rax
	jne	.L1862
	addq	$72, %rsp
	.cfi_remember_state
	.cfi_def_cfa_offset 56
	movl	%r13d, %eax
	popq	%rbx
	.cfi_def_cfa_offset 48
	popq	%rbp
	.cfi_def_cfa_offset 40
	popq	%r12
	.cfi_def_cfa_offset 32
	popq	%r13
	.cfi_def_cfa_offset 24
	popq	%r14
	.cfi_def_cfa_offset 16
	popq	%r15
	.cfi_def_cfa_offset 8
	ret
	.p2align 4,,10
	.p2align 3
.L1861:
	.cfi_restore_state
	cmpl	$-1, 136(%rdi)
	je	.L1863
	movq	144(%rdi), %rax
	testq	%rax, %rax
	je	.L1805
	movq	160(%rdi), %rdx
	addq	$40, %rax
	movl	$96, %ebp
	xorl	%r14d, %r14d
	movq	%rax, %rdi
	movq	%rax, 16(%rsp)
	movq	40(%rdx), %rcx
	movq	%rcx, 24(%rsp)
	call	pthread_mutex_lock@PLT
	movq	144(%rbx), %rdi
	movq	$0, 8(%rsp)
.L1816:
	movq	(%rdi,%rbp), %r15
	testq	%r15, %r15
	je	.L1807
	movq	_ZGVZN4asio15system_categoryEvE8instance@GOTPCREL(%rip), %r12
	movzbl	(%r12), %eax
	testb	%al, %al
	je	.L1864
	.p2align 4,,10
	.p2align 3
.L1810:
	movq	144(%rbx), %rdi
	movq	_ZZN4asio15system_categoryEvE8instance@GOTPCREL(%rip), %rax
	movl	$125, 24(%r15)
	leaq	(%rdi,%rbp), %rsi
	movq	%rax, 32(%r15)
	movq	(%rsi), %rdx
	testq	%rdx, %rdx
	je	.L1812
	movq	(%rdx), %rax
	movq	%rax, (%rsi)
	testq	%rax, %rax
	je	.L1865
	movq	$0, (%rdx)
	movq	$0, (%r15)
	testq	%r14, %r14
	je	.L1866
.L1831:
	movq	%r15, (%r14)
	testq	%rax, %rax
	je	.L1814
.L1815:
	movq	%r15, %r14
	movq	%rax, %r15
	movzbl	(%r12), %eax
	testb	%al, %al
	jne	.L1810
.L1864:
	movq	%r12, %rdi
	call	__cxa_guard_acquire@PLT
	testl	%eax, %eax
	je	.L1810
	movq	_ZZN4asio15system_categoryEvE8instance@GOTPCREL(%rip), %rsi
	movq	_ZN4asio6detail15system_categoryD1Ev@GOTPCREL(%rip), %rdi
	leaq	__dso_handle(%rip), %rdx
	call	__cxa_atexit@PLT
	movq	%r12, %rdi
	call	__cxa_guard_release@PLT
	jmp	.L1810
	.p2align 4,,10
	.p2align 3
.L1812:
	movq	$0, (%r15)
	testq	%r14, %r14
	je	.L1835
	movq	%r15, (%r14)
.L1814:
	movq	%r15, %r14
.L1807:
	addq	$16, %rbp
	cmpq	$144, %rbp
	jne	.L1816
	movq	16(%rsp), %rdi
	call	pthread_mutex_unlock@PLT
	cmpq	$0, 8(%rsp)
	je	.L1805
	movq	24(%rsp), %rax
	movq	40(%rax), %rbp
	cmpb	$0, 40(%rbp)
	je	.L1818
	data16	leaq	_ZN4asio6detail15keyword_tss_ptrINS0_10call_stackINS0_15task_io_serviceENS0_27task_io_service_thread_infoEE7contextEE6value_E@tlsgd(%rip), %rdi
	.value	0x6666
	rex64
	call	__tls_get_addr@PLT
	movq	(%rax), %rax
	testq	%rax, %rax
	jne	.L1821
	jmp	.L1818
	.p2align 4,,10
	.p2align 3
.L1819:
	movq	16(%rax), %rax
	testq	%rax, %rax
	je	.L1818
.L1821:
	cmpq	(%rax), %rbp
	jne	.L1819
	movq	8(%rax), %rax
	testq	%rax, %rax
	je	.L1818
	movq	16(%rax), %rdx
	movq	8(%rsp), %rcx
	testq	%rdx, %rdx
	je	.L1822
	movq	%rcx, (%rdx)
.L1823:
	movq	%r14, 16(%rax)
	.p2align 4,,10
	.p2align 3
.L1805:
	movl	$24, %edi
.LEHB53:
	call	_Znwm@PLT
.LEHE53:
	movq	_ZTVSt19_Sp_counted_deleterIPvN4asio6detail10socket_ops12noop_deleterESaIvELN9__gnu_cxx12_Lock_policyE2EE@GOTPCREL(%rip), %rdx
	movq	240(%rbx), %rdi
	movabsq	$4294967297, %rcx
	movq	$0, 16(%rax)
	movq	%rcx, 8(%rax)
	addq	$16, %rdx
	movq	%rax, 240(%rbx)
	movq	%rdx, (%rax)
	movq	$0, 232(%rbx)
	testq	%rdi, %rdi
	je	.L1828
	call	_ZNSt16_Sp_counted_baseILN9__gnu_cxx12_Lock_policyE2EE10_M_releaseEv@PLT
.L1828:
	movb	$1, 17(%rbx)
	jmp	.L1802
	.p2align 4,,10
	.p2align 3
.L1833:
	xorl	%r13d, %r13d
	jmp	.L1802
	.p2align 4,,10
	.p2align 3
.L1865:
	movq	$0, 8(%rsi)
	movq	$0, (%rdx)
	movq	$0, (%r15)
	testq	%r14, %r14
	jne	.L1831
	.p2align 4,,10
	.p2align 3
.L1835:
	movq	%r15, 8(%rsp)
	jmp	.L1814
	.p2align 4,,10
	.p2align 3
.L1866:
	movq	%r15, 8(%rsp)
	jmp	.L1815
	.p2align 4,,10
	.p2align 3
.L1863:
	call	_ZN4asio15system_categoryEv@PLT
	jmp	.L1805
	.p2align 4,,10
	.p2align 3
.L1818:
	leaq	48(%rbp), %rdi
	movq	%rdi, 32(%rsp)
	call	pthread_mutex_lock@PLT
	movq	200(%rbp), %rax
	movb	$1, 40(%rsp)
	testq	%rax, %rax
	je	.L1824
	movq	8(%rsp), %rcx
	movq	%rcx, (%rax)
.L1825:
	movq	%r14, 200(%rbp)
	leaq	32(%rsp), %rsi
	movq	%rbp, %rdi
	call	_ZN4asio6detail15task_io_service26wake_one_thread_and_unlockERNS0_11scoped_lockINS0_11posix_mutexEEE@PLT
	cmpb	$0, 40(%rsp)
	je	.L1805
	movq	32(%rsp), %rdi
	call	pthread_mutex_unlock@PLT
	jmp	.L1805
	.p2align 4,,10
	.p2align 3
.L1824:
	movq	8(%rsp), %rax
	movq	%rax, 192(%rbp)
	jmp	.L1825
	.p2align 4,,10
	.p2align 3
.L1822:
	movq	%rcx, 8(%rax)
	jmp	.L1823
.L1862:
	call	__stack_chk_fail@PLT
.L1837:
	endbr64
	movq	%rax, %rdi
	jmp	.L1829
	.section	.gcc_except_table
	.align 4
.LLSDA6941:
	.byte	0xff
	.byte	0x9b
	.uleb128 .LLSDATT6941-.LLSDATTD6941
.LLSDATTD6941:
	.byte	0x1
	.uleb128 .LLSDACSE6941-.LLSDACSB6941
.LLSDACSB6941:
	.uleb128 .LEHB53-.LFB6941
	.uleb128 .LEHE53-.LEHB53
	.uleb128 .L1837-.LFB6941
	.uleb128 0x1
.LLSDACSE6941:
	.byte	0x1
	.byte	0
	.align 4
	.long	0

.LLSDATT6941:
	.text
	.cfi_endproc
	.section	.text.unlikely
	.cfi_startproc
	.cfi_personality 0x9b,DW.ref.__gxx_personality_v0
	.cfi_lsda 0x1b,.LLSDAC6941
	.type	_ZN7asiopal9TCPClient6CancelEv.cold, @function
_ZN7asiopal9TCPClient6CancelEv.cold:
.LFSB6941:
.L1829:
	.cfi_def_cfa_offset 128
	.cfi_offset 3, -56
	.cfi_offset 6, -48
	.cfi_offset 12, -40
	.cfi_offset 13, -32
	.cfi_offset 14, -24
	.cfi_offset 15, -16
	call	__cxa_begin_catch@PLT
.LEHB54:
	call	__cxa_rethrow@PLT
.LEHE54:
.L1836:
	endbr64
	movq	%rax, %rbp
	call	__cxa_end_catch@PLT
	movq	%rbp, %rdi
.LEHB55:
	call	_Unwind_Resume@PLT
.LEHE55:
	.cfi_endproc
.LFE6941:
	.section	.gcc_except_table
	.align 4
.LLSDAC6941:
	.byte	0xff
	.byte	0x9b
	.uleb128 .LLSDATTC6941-.LLSDATTDC6941
.LLSDATTDC6941:
	.byte	0x1
	.uleb128 .LLSDACSEC6941-.LLSDACSBC6941
.LLSDACSBC6941:
	.uleb128 .LEHB54-.LCOLDB27
	.uleb128 .LEHE54-.LEHB54
	.uleb128 .L1836-.LCOLDB27
	.uleb128 0
	.uleb128 .LEHB55-.LCOLDB27
	.uleb128 .LEHE55-.LEHB55
	.uleb128 0
	.uleb128 0
.LLSDACSEC6941:
	.byte	0x1
	.byte	0
	.align 4
	.long	0

.LLSDATTC6941:
	.section	.text.unlikely
	.text
	.size	_ZN7asiopal9TCPClient6CancelEv, .-_ZN7asiopal9TCPClient6CancelEv
	.section	.text.unlikely
	.size	_ZN7asiopal9TCPClient6CancelEv.cold, .-_ZN7asiopal9TCPClient6CancelEv.cold
.LCOLDE27:
	.text
.LHOTE27:
	.section	.text.unlikely
	.align 2
.LCOLDB28:
	.text
.LHOTB28:
	.align 2
	.p2align 4
	.type	_ZN4asio6detail10connect_opINS_2ip3tcpENS_21stream_socket_serviceIS3_EENS2_23basic_resolver_iteratorIS3_EEN7asiopal26LoggingConnectionConditionENS0_15wrapped_handlerINS_10io_service6strandEZNS8_9TCPClient19HandleResolveResultERKSt8functionIFvRKSt10shared_ptrINS8_8ExecutorEENS_19basic_stream_socketIS3_S5_EERKSt10error_codeEERKS7_SO_EUlSO_S7_E_NS0_26is_continuation_if_runningEEEEC2EOSY_, @function
_ZN4asio6detail10connect_opINS_2ip3tcpENS_21stream_socket_serviceIS3_EENS2_23basic_resolver_iteratorIS3_EEN7asiopal26LoggingConnectionConditionENS0_15wrapped_handlerINS_10io_service6strandEZNS8_9TCPClient19HandleResolveResultERKSt8functionIFvRKSt10shared_ptrINS8_8ExecutorEENS_19basic_stream_socketIS3_S5_EERKSt10error_codeEERKS7_SO_EUlSO_S7_E_NS0_26is_continuation_if_runningEEEEC2EOSY_:
.LFB8891:
	.cfi_startproc
	.cfi_personality 0x9b,DW.ref.__gxx_personality_v0
	.cfi_lsda 0x1b,.LLSDA8891
	pushq	%r12
	.cfi_def_cfa_offset 16
	.cfi_offset 12, -16
	pushq	%rbp
	.cfi_def_cfa_offset 24
	.cfi_offset 6, -24
	movq	%rdi, %rbp
	subq	$8, %rsp
	.cfi_def_cfa_offset 32
	movq	(%rsi), %rax
	movq	%rax, (%rdi)
	movq	8(%rsi), %rax
	movq	%rax, 8(%rdi)
	testq	%rax, %rax
	je	.L1868
	cmpq	$0, _ZL28__gthrw___pthread_key_createPjPFvPvE@GOTPCREL(%rip)
	je	.L1869
	lock addl	$1, 8(%rax)
.L1868:
	movq	16(%rsi), %rax
	movq	%rax, 16(%rbp)
	movq	24(%rsi), %rax
	movq	%rax, 24(%rbp)
	testq	%rax, %rax
	je	.L1870
	cmpq	$0, _ZL28__gthrw___pthread_key_createPjPFvPvE@GOTPCREL(%rip)
	je	.L1871
	lock addl	$1, 8(%rax)
.L1870:
	movq	32(%rsi), %rax
	movq	%rax, 32(%rbp)
	movq	40(%rsi), %rax
	movq	%rax, 40(%rbp)
	movq	48(%rsi), %rax
	movq	%rax, 48(%rbp)
	testq	%rax, %rax
	je	.L1872
	cmpq	$0, _ZL28__gthrw___pthread_key_createPjPFvPvE@GOTPCREL(%rip)
	je	.L1873
	lock addl	$1, 8(%rax)
.L1872:
	movq	56(%rsi), %rax
	movq	%rax, 56(%rbp)
	movq	64(%rsi), %rax
	movq	%rax, 64(%rbp)
	movq	72(%rsi), %rax
	movq	%rax, 72(%rbp)
	testq	%rax, %rax
	je	.L1874
