	.file	"ThreadPool.cpp"
	.text
	.section	.rodata._ZNK4asio6detail15system_category4nameEv.str1.1,"aMS",@progbits,1
.LC0:
	.string	"asio.system"
	.section	.text._ZNK4asio6detail15system_category4nameEv,"axG",@progbits,_ZNK4asio6detail15system_category4nameEv,comdat
	.align 2
	.p2align 4
	.weak	_ZNK4asio6detail15system_category4nameEv
	.type	_ZNK4asio6detail15system_category4nameEv, @function
_ZNK4asio6detail15system_category4nameEv:
.LFB2670:
	.cfi_startproc
	endbr64
	leaq	.LC0(%rip), %rax
	ret
	.cfi_endproc
.LFE2670:
	.size	_ZNK4asio6detail15system_category4nameEv, .-_ZNK4asio6detail15system_category4nameEv
	.section	.rodata._ZNK4asio5error6detail14netdb_category4nameEv.str1.1,"aMS",@progbits,1
.LC1:
	.string	"asio.netdb"
	.section	.text._ZNK4asio5error6detail14netdb_category4nameEv,"axG",@progbits,_ZNK4asio5error6detail14netdb_category4nameEv,comdat
	.align 2
	.p2align 4
	.weak	_ZNK4asio5error6detail14netdb_category4nameEv
	.type	_ZNK4asio5error6detail14netdb_category4nameEv, @function
_ZNK4asio5error6detail14netdb_category4nameEv:
.LFB2710:
	.cfi_startproc
	endbr64
	leaq	.LC1(%rip), %rax
	ret
	.cfi_endproc
.LFE2710:
	.size	_ZNK4asio5error6detail14netdb_category4nameEv, .-_ZNK4asio5error6detail14netdb_category4nameEv
	.section	.rodata._ZNK4asio5error6detail17addrinfo_category4nameEv.str1.1,"aMS",@progbits,1
.LC2:
	.string	"asio.addrinfo"
	.section	.text._ZNK4asio5error6detail17addrinfo_category4nameEv,"axG",@progbits,_ZNK4asio5error6detail17addrinfo_category4nameEv,comdat
	.align 2
	.p2align 4
	.weak	_ZNK4asio5error6detail17addrinfo_category4nameEv
	.type	_ZNK4asio5error6detail17addrinfo_category4nameEv, @function
_ZNK4asio5error6detail17addrinfo_category4nameEv:
.LFB2716:
	.cfi_startproc
	endbr64
	leaq	.LC2(%rip), %rax
	ret
	.cfi_endproc
.LFE2716:
	.size	_ZNK4asio5error6detail17addrinfo_category4nameEv, .-_ZNK4asio5error6detail17addrinfo_category4nameEv
	.section	.rodata._ZNK4asio5error6detail13misc_category4nameEv.str1.1,"aMS",@progbits,1
.LC3:
	.string	"asio.misc"
	.section	.text._ZNK4asio5error6detail13misc_category4nameEv,"axG",@progbits,_ZNK4asio5error6detail13misc_category4nameEv,comdat
	.align 2
	.p2align 4
	.weak	_ZNK4asio5error6detail13misc_category4nameEv
	.type	_ZNK4asio5error6detail13misc_category4nameEv, @function
_ZNK4asio5error6detail13misc_category4nameEv:
.LFB2722:
	.cfi_startproc
	endbr64
	leaq	.LC3(%rip), %rax
	ret
	.cfi_endproc
.LFE2722:
	.size	_ZNK4asio5error6detail13misc_category4nameEv, .-_ZNK4asio5error6detail13misc_category4nameEv
	.section	.text._ZN4asio10io_service7service12fork_serviceENS0_10fork_eventE,"axG",@progbits,_ZN4asio10io_service7service12fork_serviceENS0_10fork_eventE,comdat
	.align 2
	.p2align 4
	.weak	_ZN4asio10io_service7service12fork_serviceENS0_10fork_eventE
	.type	_ZN4asio10io_service7service12fork_serviceENS0_10fork_eventE, @function
_ZN4asio10io_service7service12fork_serviceENS0_10fork_eventE:
.LFB3512:
	.cfi_startproc
	endbr64
	ret
	.cfi_endproc
.LFE3512:
	.size	_ZN4asio10io_service7service12fork_serviceENS0_10fork_eventE, .-_ZN4asio10io_service7service12fork_serviceENS0_10fork_eventE
	.section	.text._ZN4asio6detail7tss_ptrINS0_10call_stackINS0_15task_io_serviceENS0_27task_io_service_thread_infoEE7contextEED2Ev,"axG",@progbits,_ZN4asio6detail7tss_ptrINS0_10call_stackINS0_15task_io_serviceENS0_27task_io_service_thread_infoEE7contextEED5Ev,comdat
	.align 2
	.p2align 4
	.weak	_ZN4asio6detail7tss_ptrINS0_10call_stackINS0_15task_io_serviceENS0_27task_io_service_thread_infoEE7contextEED2Ev
	.type	_ZN4asio6detail7tss_ptrINS0_10call_stackINS0_15task_io_serviceENS0_27task_io_service_thread_infoEE7contextEED2Ev, @function
_ZN4asio6detail7tss_ptrINS0_10call_stackINS0_15task_io_serviceENS0_27task_io_service_thread_infoEE7contextEED2Ev:
.LFB9429:
	.cfi_startproc
	endbr64
	ret
	.cfi_endproc
.LFE9429:
	.size	_ZN4asio6detail7tss_ptrINS0_10call_stackINS0_15task_io_serviceENS0_27task_io_service_thread_infoEE7contextEED2Ev, .-_ZN4asio6detail7tss_ptrINS0_10call_stackINS0_15task_io_serviceENS0_27task_io_service_thread_infoEE7contextEED2Ev
	.weak	_ZN4asio6detail7tss_ptrINS0_10call_stackINS0_15task_io_serviceENS0_27task_io_service_thread_infoEE7contextEED1Ev
	.set	_ZN4asio6detail7tss_ptrINS0_10call_stackINS0_15task_io_serviceENS0_27task_io_service_thread_infoEE7contextEED1Ev,_ZN4asio6detail7tss_ptrINS0_10call_stackINS0_15task_io_serviceENS0_27task_io_service_thread_infoEE7contextEED2Ev
	.section	.text._ZN4asio6detail10service_idINS0_13epoll_reactorEED2Ev,"axG",@progbits,_ZN4asio6detail10service_idINS0_13epoll_reactorEED5Ev,comdat
	.align 2
	.p2align 4
	.weak	_ZN4asio6detail10service_idINS0_13epoll_reactorEED2Ev
	.type	_ZN4asio6detail10service_idINS0_13epoll_reactorEED2Ev, @function
_ZN4asio6detail10service_idINS0_13epoll_reactorEED2Ev:
.LFB9432:
	.cfi_startproc
	endbr64
	ret
	.cfi_endproc
.LFE9432:
	.size	_ZN4asio6detail10service_idINS0_13epoll_reactorEED2Ev, .-_ZN4asio6detail10service_idINS0_13epoll_reactorEED2Ev
	.weak	_ZN4asio6detail10service_idINS0_13epoll_reactorEED1Ev
	.set	_ZN4asio6detail10service_idINS0_13epoll_reactorEED1Ev,_ZN4asio6detail10service_idINS0_13epoll_reactorEED2Ev
	.section	.text._ZN4asio6detail10service_idINS0_15task_io_serviceEED2Ev,"axG",@progbits,_ZN4asio6detail10service_idINS0_15task_io_serviceEED5Ev,comdat
	.align 2
	.p2align 4
	.weak	_ZN4asio6detail10service_idINS0_15task_io_serviceEED2Ev
	.type	_ZN4asio6detail10service_idINS0_15task_io_serviceEED2Ev, @function
_ZN4asio6detail10service_idINS0_15task_io_serviceEED2Ev:
.LFB9435:
	.cfi_startproc
	endbr64
	ret
	.cfi_endproc
.LFE9435:
	.size	_ZN4asio6detail10service_idINS0_15task_io_serviceEED2Ev, .-_ZN4asio6detail10service_idINS0_15task_io_serviceEED2Ev
	.weak	_ZN4asio6detail10service_idINS0_15task_io_serviceEED1Ev
	.set	_ZN4asio6detail10service_idINS0_15task_io_serviceEED1Ev,_ZN4asio6detail10service_idINS0_15task_io_serviceEED2Ev
	.section	.text._ZN4asio6detail7tss_ptrINS0_10call_stackINS0_14strand_service11strand_implEhE7contextEED2Ev,"axG",@progbits,_ZN4asio6detail7tss_ptrINS0_10call_stackINS0_14strand_service11strand_implEhE7contextEED5Ev,comdat
	.align 2
	.p2align 4
	.weak	_ZN4asio6detail7tss_ptrINS0_10call_stackINS0_14strand_service11strand_implEhE7contextEED2Ev
	.type	_ZN4asio6detail7tss_ptrINS0_10call_stackINS0_14strand_service11strand_implEhE7contextEED2Ev, @function
_ZN4asio6detail7tss_ptrINS0_10call_stackINS0_14strand_service11strand_implEhE7contextEED2Ev:
.LFB9438:
	.cfi_startproc
	endbr64
	ret
	.cfi_endproc
.LFE9438:
	.size	_ZN4asio6detail7tss_ptrINS0_10call_stackINS0_14strand_service11strand_implEhE7contextEED2Ev, .-_ZN4asio6detail7tss_ptrINS0_10call_stackINS0_14strand_service11strand_implEhE7contextEED2Ev
	.weak	_ZN4asio6detail7tss_ptrINS0_10call_stackINS0_14strand_service11strand_implEhE7contextEED1Ev
	.set	_ZN4asio6detail7tss_ptrINS0_10call_stackINS0_14strand_service11strand_implEhE7contextEED1Ev,_ZN4asio6detail7tss_ptrINS0_10call_stackINS0_14strand_service11strand_implEhE7contextEED2Ev
	.section	.text._ZN4asio6detail10service_idINS0_14strand_serviceEED2Ev,"axG",@progbits,_ZN4asio6detail10service_idINS0_14strand_serviceEED5Ev,comdat
	.align 2
	.p2align 4
	.weak	_ZN4asio6detail10service_idINS0_14strand_serviceEED2Ev
	.type	_ZN4asio6detail10service_idINS0_14strand_serviceEED2Ev, @function
_ZN4asio6detail10service_idINS0_14strand_serviceEED2Ev:
.LFB9441:
	.cfi_startproc
	endbr64
	ret
	.cfi_endproc
.LFE9441:
	.size	_ZN4asio6detail10service_idINS0_14strand_serviceEED2Ev, .-_ZN4asio6detail10service_idINS0_14strand_serviceEED2Ev
	.weak	_ZN4asio6detail10service_idINS0_14strand_serviceEED1Ev
	.set	_ZN4asio6detail10service_idINS0_14strand_serviceEED1Ev,_ZN4asio6detail10service_idINS0_14strand_serviceEED2Ev
	.section	.text._ZN4asio6detail10service_idINS_22waitable_timer_serviceINSt6chrono3_V212steady_clockENS_11wait_traitsIS5_EEEEED2Ev,"axG",@progbits,_ZN4asio6detail10service_idINS_22waitable_timer_serviceINSt6chrono3_V212steady_clockENS_11wait_traitsIS5_EEEEED5Ev,comdat
	.align 2
	.p2align 4
	.weak	_ZN4asio6detail10service_idINS_22waitable_timer_serviceINSt6chrono3_V212steady_clockENS_11wait_traitsIS5_EEEEED2Ev
	.type	_ZN4asio6detail10service_idINS_22waitable_timer_serviceINSt6chrono3_V212steady_clockENS_11wait_traitsIS5_EEEEED2Ev, @function
_ZN4asio6detail10service_idINS_22waitable_timer_serviceINSt6chrono3_V212steady_clockENS_11wait_traitsIS5_EEEEED2Ev:
.LFB9444:
	.cfi_startproc
	endbr64
	ret
	.cfi_endproc
.LFE9444:
	.size	_ZN4asio6detail10service_idINS_22waitable_timer_serviceINSt6chrono3_V212steady_clockENS_11wait_traitsIS5_EEEEED2Ev, .-_ZN4asio6detail10service_idINS_22waitable_timer_serviceINSt6chrono3_V212steady_clockENS_11wait_traitsIS5_EEEEED2Ev
	.weak	_ZN4asio6detail10service_idINS_22waitable_timer_serviceINSt6chrono3_V212steady_clockENS_11wait_traitsIS5_EEEEED1Ev
	.set	_ZN4asio6detail10service_idINS_22waitable_timer_serviceINSt6chrono3_V212steady_clockENS_11wait_traitsIS5_EEEEED1Ev,_ZN4asio6detail10service_idINS_22waitable_timer_serviceINSt6chrono3_V212steady_clockENS_11wait_traitsIS5_EEEEED2Ev
	.section	.text._ZN4asio22waitable_timer_serviceINSt6chrono3_V212steady_clockENS_11wait_traitsIS3_EEE16shutdown_serviceEv,"axG",@progbits,_ZN4asio22waitable_timer_serviceINSt6chrono3_V212steady_clockENS_11wait_traitsIS3_EEE16shutdown_serviceEv,comdat
	.align 2
	.p2align 4
	.weak	_ZN4asio22waitable_timer_serviceINSt6chrono3_V212steady_clockENS_11wait_traitsIS3_EEE16shutdown_serviceEv
	.type	_ZN4asio22waitable_timer_serviceINSt6chrono3_V212steady_clockENS_11wait_traitsIS3_EEE16shutdown_serviceEv, @function
_ZN4asio22waitable_timer_serviceINSt6chrono3_V212steady_clockENS_11wait_traitsIS3_EEE16shutdown_serviceEv:
.LFB9483:
	.cfi_startproc
	endbr64
	ret
	.cfi_endproc
.LFE9483:
	.size	_ZN4asio22waitable_timer_serviceINSt6chrono3_V212steady_clockENS_11wait_traitsIS3_EEE16shutdown_serviceEv, .-_ZN4asio22waitable_timer_serviceINSt6chrono3_V212steady_clockENS_11wait_traitsIS3_EEE16shutdown_serviceEv
	.section	.text._ZNK4asio6detail11timer_queueINS0_18chrono_time_traitsINSt6chrono3_V212steady_clockENS_11wait_traitsIS5_EEEEE5emptyEv,"axG",@progbits,_ZNK4asio6detail11timer_queueINS0_18chrono_time_traitsINSt6chrono3_V212steady_clockENS_11wait_traitsIS5_EEEEE5emptyEv,comdat
	.align 2
	.p2align 4
	.weak	_ZNK4asio6detail11timer_queueINS0_18chrono_time_traitsINSt6chrono3_V212steady_clockENS_11wait_traitsIS5_EEEEE5emptyEv
	.type	_ZNK4asio6detail11timer_queueINS0_18chrono_time_traitsINSt6chrono3_V212steady_clockENS_11wait_traitsIS5_EEEEE5emptyEv, @function
_ZNK4asio6detail11timer_queueINS0_18chrono_time_traitsINSt6chrono3_V212steady_clockENS_11wait_traitsIS5_EEEEE5emptyEv:
.LFB9484:
	.cfi_startproc
	endbr64
	cmpq	$0, 16(%rdi)
	sete	%al
	ret
	.cfi_endproc
.LFE9484:
	.size	_ZNK4asio6detail11timer_queueINS0_18chrono_time_traitsINSt6chrono3_V212steady_clockENS_11wait_traitsIS5_EEEEE5emptyEv, .-_ZNK4asio6detail11timer_queueINS0_18chrono_time_traitsINSt6chrono3_V212steady_clockENS_11wait_traitsIS5_EEEEE5emptyEv
	.section	.text._ZN4asio6detail11timer_queueINS0_18chrono_time_traitsINSt6chrono3_V212steady_clockENS_11wait_traitsIS5_EEEEE14get_all_timersERNS0_8op_queueINS0_25task_io_service_operationEEE,"axG",@progbits,_ZN4asio6detail11timer_queueINS0_18chrono_time_traitsINSt6chrono3_V212steady_clockENS_11wait_traitsIS5_EEEEE14get_all_timersERNS0_8op_queueINS0_25task_io_service_operationEEE,comdat
	.align 2
	.p2align 4
	.weak	_ZN4asio6detail11timer_queueINS0_18chrono_time_traitsINSt6chrono3_V212steady_clockENS_11wait_traitsIS5_EEEEE14get_all_timersERNS0_8op_queueINS0_25task_io_service_operationEEE
	.type	_ZN4asio6detail11timer_queueINS0_18chrono_time_traitsINSt6chrono3_V212steady_clockENS_11wait_traitsIS5_EEEEE14get_all_timersERNS0_8op_queueINS0_25task_io_service_operationEEE, @function
_ZN4asio6detail11timer_queueINS0_18chrono_time_traitsINSt6chrono3_V212steady_clockENS_11wait_traitsIS5_EEEEE14get_all_timersERNS0_8op_queueINS0_25task_io_service_operationEEE:
.LFB9488:
	.cfi_startproc
	endbr64
	movq	16(%rdi), %rdx
	testq	%rdx, %rdx
	je	.L16
	pxor	%xmm0, %xmm0
	jmp	.L20
	.p2align 4,,10
	.p2align 3
.L30:
	movq	%rcx, (%r8)
.L19:
	movq	8(%rax), %rcx
	movq	%rcx, 8(%rsi)
	movups	%xmm0, (%rax)
.L17:
	movups	%xmm0, 24(%rax)
	testq	%rdx, %rdx
	je	.L29
.L20:
	movq	%rdx, %rax
	movq	24(%rdx), %rdx
	movq	(%rax), %rcx
	testq	%rcx, %rcx
	je	.L17
	movq	8(%rsi), %r8
	testq	%r8, %r8
	jne	.L30
	movq	%rcx, (%rsi)
	jmp	.L19
	.p2align 4,,10
	.p2align 3
.L29:
	movq	$0, 16(%rdi)
.L16:
	movq	24(%rdi), %rax
	cmpq	32(%rdi), %rax
	je	.L15
	movq	%rax, 32(%rdi)
.L15:
	ret
	.cfi_endproc
.LFE9488:
	.size	_ZN4asio6detail11timer_queueINS0_18chrono_time_traitsINSt6chrono3_V212steady_clockENS_11wait_traitsIS5_EEEEE14get_all_timersERNS0_8op_queueINS0_25task_io_service_operationEEE, .-_ZN4asio6detail11timer_queueINS0_18chrono_time_traitsINSt6chrono3_V212steady_clockENS_11wait_traitsIS5_EEEEE14get_all_timersERNS0_8op_queueINS0_25task_io_service_operationEEE
	.section	.text._ZN4asio6detail11timer_queueINS0_18chrono_time_traitsINSt6chrono3_V212steady_clockENS_11wait_traitsIS5_EEEEED2Ev,"axG",@progbits,_ZN4asio6detail11timer_queueINS0_18chrono_time_traitsINSt6chrono3_V212steady_clockENS_11wait_traitsIS5_EEEEED5Ev,comdat
	.align 2
	.p2align 4
	.weak	_ZN4asio6detail11timer_queueINS0_18chrono_time_traitsINSt6chrono3_V212steady_clockENS_11wait_traitsIS5_EEEEED2Ev
	.type	_ZN4asio6detail11timer_queueINS0_18chrono_time_traitsINSt6chrono3_V212steady_clockENS_11wait_traitsIS5_EEEEED2Ev, @function
_ZN4asio6detail11timer_queueINS0_18chrono_time_traitsINSt6chrono3_V212steady_clockENS_11wait_traitsIS5_EEEEED2Ev:
.LFB9160:
	.cfi_startproc
	endbr64
	movq	_ZTVN4asio6detail11timer_queueINS0_18chrono_time_traitsINSt6chrono3_V212steady_clockENS_11wait_traitsIS5_EEEEEE@GOTPCREL(%rip), %rax
	addq	$16, %rax
	movq	%rax, (%rdi)
	movq	24(%rdi), %rdi
	testq	%rdi, %rdi
	je	.L31
	jmp	_ZdlPv@PLT
	.p2align 4,,10
	.p2align 3
.L31:
	ret
	.cfi_endproc
.LFE9160:
	.size	_ZN4asio6detail11timer_queueINS0_18chrono_time_traitsINSt6chrono3_V212steady_clockENS_11wait_traitsIS5_EEEEED2Ev, .-_ZN4asio6detail11timer_queueINS0_18chrono_time_traitsINSt6chrono3_V212steady_clockENS_11wait_traitsIS5_EEEEED2Ev
	.weak	_ZN4asio6detail11timer_queueINS0_18chrono_time_traitsINSt6chrono3_V212steady_clockENS_11wait_traitsIS5_EEEEED1Ev
	.set	_ZN4asio6detail11timer_queueINS0_18chrono_time_traitsINSt6chrono3_V212steady_clockENS_11wait_traitsIS5_EEEEED1Ev,_ZN4asio6detail11timer_queueINS0_18chrono_time_traitsINSt6chrono3_V212steady_clockENS_11wait_traitsIS5_EEEEED2Ev
	.section	.text._ZN4asio22waitable_timer_serviceINSt6chrono3_V212steady_clockENS_11wait_traitsIS3_EEED0Ev,"axG",@progbits,_ZN4asio22waitable_timer_serviceINSt6chrono3_V212steady_clockENS_11wait_traitsIS3_EEED5Ev,comdat
	.align 2
	.p2align 4
	.weak	_ZN4asio22waitable_timer_serviceINSt6chrono3_V212steady_clockENS_11wait_traitsIS3_EEED0Ev
	.type	_ZN4asio22waitable_timer_serviceINSt6chrono3_V212steady_clockENS_11wait_traitsIS3_EEED0Ev, @function
_ZN4asio22waitable_timer_serviceINSt6chrono3_V212steady_clockENS_11wait_traitsIS3_EEED0Ev:
.LFB9374:
	.cfi_startproc
	endbr64
	movq	_ZTVN4asio22waitable_timer_serviceINSt6chrono3_V212steady_clockENS_11wait_traitsIS3_EEEE@GOTPCREL(%rip), %rax
	pushq	%r12
	.cfi_def_cfa_offset 16
	.cfi_offset 12, -16
	pushq	%rbp
	.cfi_def_cfa_offset 24
	.cfi_offset 6, -24
	movq	%rdi, %rbp
	pushq	%rbx
	.cfi_def_cfa_offset 32
	.cfi_offset 3, -32
	addq	$16, %rax
	movq	88(%rdi), %rbx
	movq	%rax, (%rdi)
	leaq	48(%rbx), %r12
	movq	%r12, %rdi
	call	pthread_mutex_lock@PLT
	movq	104(%rbx), %rax
	testq	%rax, %rax
	je	.L34
	leaq	40(%rbp), %rdx
	cmpq	%rax, %rdx
	jne	.L35
	jmp	.L49
	.p2align 4,,10
	.p2align 3
.L51:
	cmpq	%rax, %rdx
	je	.L50
.L35:
	movq	%rax, %rcx
	movq	8(%rax), %rax
	testq	%rax, %rax
	jne	.L51
.L34:
	movq	%r12, %rdi
	call	pthread_mutex_unlock@PLT
	movq	_ZTVN4asio6detail11timer_queueINS0_18chrono_time_traitsINSt6chrono3_V212steady_clockENS_11wait_traitsIS5_EEEEEE@GOTPCREL(%rip), %rax
	movq	64(%rbp), %rdi
	addq	$16, %rax
	movq	%rax, 40(%rbp)
	testq	%rdi, %rdi
	je	.L36
	call	_ZdlPv@PLT
.L36:
	popq	%rbx
	.cfi_remember_state
	.cfi_def_cfa_offset 24
	movq	%rbp, %rdi
	movl	$96, %esi
	popq	%rbp
	.cfi_def_cfa_offset 16
	popq	%r12
	.cfi_def_cfa_offset 8
	jmp	_ZdlPvm@PLT
	.p2align 4,,10
	.p2align 3
.L50:
	.cfi_restore_state
	movq	48(%rbp), %rax
	movq	%rax, 8(%rcx)
	movq	$0, 48(%rbp)
	jmp	.L34
	.p2align 4,,10
	.p2align 3
.L49:
	movq	48(%rbp), %rax
	movq	%rax, 104(%rbx)
	movq	$0, 48(%rbp)
	jmp	.L34
	.cfi_endproc
.LFE9374:
	.size	_ZN4asio22waitable_timer_serviceINSt6chrono3_V212steady_clockENS_11wait_traitsIS3_EEED0Ev, .-_ZN4asio22waitable_timer_serviceINSt6chrono3_V212steady_clockENS_11wait_traitsIS3_EEED0Ev
	.section	.text._ZN4asio6detail11timer_queueINS0_18chrono_time_traitsINSt6chrono3_V212steady_clockENS_11wait_traitsIS5_EEEEED0Ev,"axG",@progbits,_ZN4asio6detail11timer_queueINS0_18chrono_time_traitsINSt6chrono3_V212steady_clockENS_11wait_traitsIS5_EEEEED5Ev,comdat
	.align 2
	.p2align 4
	.weak	_ZN4asio6detail11timer_queueINS0_18chrono_time_traitsINSt6chrono3_V212steady_clockENS_11wait_traitsIS5_EEEEED0Ev
	.type	_ZN4asio6detail11timer_queueINS0_18chrono_time_traitsINSt6chrono3_V212steady_clockENS_11wait_traitsIS5_EEEEED0Ev, @function
_ZN4asio6detail11timer_queueINS0_18chrono_time_traitsINSt6chrono3_V212steady_clockENS_11wait_traitsIS5_EEEEED0Ev:
.LFB9162:
	.cfi_startproc
	endbr64
	movq	_ZTVN4asio6detail11timer_queueINS0_18chrono_time_traitsINSt6chrono3_V212steady_clockENS_11wait_traitsIS5_EEEEEE@GOTPCREL(%rip), %rax
	pushq	%rbp
	.cfi_def_cfa_offset 16
	.cfi_offset 6, -16
	movq	%rdi, %rbp
	addq	$16, %rax
	movq	%rax, (%rdi)
	movq	24(%rdi), %rdi
	testq	%rdi, %rdi
	je	.L53
	call	_ZdlPv@PLT
.L53:
	movq	%rbp, %rdi
	movl	$48, %esi
	popq	%rbp
	.cfi_def_cfa_offset 8
	jmp	_ZdlPvm@PLT
	.cfi_endproc
.LFE9162:
	.size	_ZN4asio6detail11timer_queueINS0_18chrono_time_traitsINSt6chrono3_V212steady_clockENS_11wait_traitsIS5_EEEEED0Ev, .-_ZN4asio6detail11timer_queueINS0_18chrono_time_traitsINSt6chrono3_V212steady_clockENS_11wait_traitsIS5_EEEEED0Ev
	.section	.text._ZN4asio6detail15system_categoryD2Ev,"axG",@progbits,_ZN4asio6detail15system_categoryD5Ev,comdat
	.align 2
	.p2align 4
	.weak	_ZN4asio6detail15system_categoryD2Ev
	.type	_ZN4asio6detail15system_categoryD2Ev, @function
_ZN4asio6detail15system_categoryD2Ev:
.LFB9408:
	.cfi_startproc
	endbr64
	movq	_ZTVN4asio6detail15system_categoryE@GOTPCREL(%rip), %rax
	addq	$16, %rax
	movq	%rax, (%rdi)
	jmp	_ZNSt3_V214error_categoryD2Ev@PLT
	.cfi_endproc
.LFE9408:
	.size	_ZN4asio6detail15system_categoryD2Ev, .-_ZN4asio6detail15system_categoryD2Ev
	.weak	_ZN4asio6detail15system_categoryD1Ev
	.set	_ZN4asio6detail15system_categoryD1Ev,_ZN4asio6detail15system_categoryD2Ev
	.section	.text._ZN4asio6detail15system_categoryD0Ev,"axG",@progbits,_ZN4asio6detail15system_categoryD5Ev,comdat
	.align 2
	.p2align 4
	.weak	_ZN4asio6detail15system_categoryD0Ev
	.type	_ZN4asio6detail15system_categoryD0Ev, @function
_ZN4asio6detail15system_categoryD0Ev:
.LFB9410:
	.cfi_startproc
	endbr64
	movq	_ZTVN4asio6detail15system_categoryE@GOTPCREL(%rip), %rax
	pushq	%rbp
	.cfi_def_cfa_offset 16
	.cfi_offset 6, -16
	movq	%rdi, %rbp
	addq	$16, %rax
	movq	%rax, (%rdi)
	call	_ZNSt3_V214error_categoryD2Ev@PLT
	movq	%rbp, %rdi
	movl	$8, %esi
	popq	%rbp
	.cfi_def_cfa_offset 8
	jmp	_ZdlPvm@PLT
	.cfi_endproc
.LFE9410:
	.size	_ZN4asio6detail15system_categoryD0Ev, .-_ZN4asio6detail15system_categoryD0Ev
	.section	.text._ZN4asio5error6detail14netdb_categoryD2Ev,"axG",@progbits,_ZN4asio5error6detail14netdb_categoryD5Ev,comdat
	.align 2
	.p2align 4
	.weak	_ZN4asio5error6detail14netdb_categoryD2Ev
	.type	_ZN4asio5error6detail14netdb_categoryD2Ev, @function
_ZN4asio5error6detail14netdb_categoryD2Ev:
.LFB9396:
	.cfi_startproc
	endbr64
	movq	_ZTVN4asio5error6detail14netdb_categoryE@GOTPCREL(%rip), %rax
	addq	$16, %rax
	movq	%rax, (%rdi)
	jmp	_ZNSt3_V214error_categoryD2Ev@PLT
	.cfi_endproc
.LFE9396:
	.size	_ZN4asio5error6detail14netdb_categoryD2Ev, .-_ZN4asio5error6detail14netdb_categoryD2Ev
	.weak	_ZN4asio5error6detail14netdb_categoryD1Ev
	.set	_ZN4asio5error6detail14netdb_categoryD1Ev,_ZN4asio5error6detail14netdb_categoryD2Ev
	.section	.text._ZN4asio5error6detail14netdb_categoryD0Ev,"axG",@progbits,_ZN4asio5error6detail14netdb_categoryD5Ev,comdat
	.align 2
	.p2align 4
	.weak	_ZN4asio5error6detail14netdb_categoryD0Ev
	.type	_ZN4asio5error6detail14netdb_categoryD0Ev, @function
_ZN4asio5error6detail14netdb_categoryD0Ev:
.LFB9398:
	.cfi_startproc
	endbr64
	movq	_ZTVN4asio5error6detail14netdb_categoryE@GOTPCREL(%rip), %rax
	pushq	%rbp
	.cfi_def_cfa_offset 16
	.cfi_offset 6, -16
	movq	%rdi, %rbp
	addq	$16, %rax
	movq	%rax, (%rdi)
	call	_ZNSt3_V214error_categoryD2Ev@PLT
	movq	%rbp, %rdi
	movl	$8, %esi
	popq	%rbp
	.cfi_def_cfa_offset 8
	jmp	_ZdlPvm@PLT
	.cfi_endproc
.LFE9398:
	.size	_ZN4asio5error6detail14netdb_categoryD0Ev, .-_ZN4asio5error6detail14netdb_categoryD0Ev
	.section	.text._ZN4asio5error6detail17addrinfo_categoryD2Ev,"axG",@progbits,_ZN4asio5error6detail17addrinfo_categoryD5Ev,comdat
	.align 2
	.p2align 4
	.weak	_ZN4asio5error6detail17addrinfo_categoryD2Ev
	.type	_ZN4asio5error6detail17addrinfo_categoryD2Ev, @function
_ZN4asio5error6detail17addrinfo_categoryD2Ev:
.LFB9392:
	.cfi_startproc
	endbr64
	movq	_ZTVN4asio5error6detail17addrinfo_categoryE@GOTPCREL(%rip), %rax
	addq	$16, %rax
	movq	%rax, (%rdi)
	jmp	_ZNSt3_V214error_categoryD2Ev@PLT
	.cfi_endproc
.LFE9392:
	.size	_ZN4asio5error6detail17addrinfo_categoryD2Ev, .-_ZN4asio5error6detail17addrinfo_categoryD2Ev
	.weak	_ZN4asio5error6detail17addrinfo_categoryD1Ev
	.set	_ZN4asio5error6detail17addrinfo_categoryD1Ev,_ZN4asio5error6detail17addrinfo_categoryD2Ev
	.section	.text._ZN4asio5error6detail17addrinfo_categoryD0Ev,"axG",@progbits,_ZN4asio5error6detail17addrinfo_categoryD5Ev,comdat
	.align 2
	.p2align 4
	.weak	_ZN4asio5error6detail17addrinfo_categoryD0Ev
	.type	_ZN4asio5error6detail17addrinfo_categoryD0Ev, @function
_ZN4asio5error6detail17addrinfo_categoryD0Ev:
.LFB9394:
	.cfi_startproc
	endbr64
	movq	_ZTVN4asio5error6detail17addrinfo_categoryE@GOTPCREL(%rip), %rax
	pushq	%rbp
	.cfi_def_cfa_offset 16
	.cfi_offset 6, -16
	movq	%rdi, %rbp
	addq	$16, %rax
	movq	%rax, (%rdi)
	call	_ZNSt3_V214error_categoryD2Ev@PLT
	movq	%rbp, %rdi
	movl	$8, %esi
	popq	%rbp
	.cfi_def_cfa_offset 8
	jmp	_ZdlPvm@PLT
	.cfi_endproc
.LFE9394:
	.size	_ZN4asio5error6detail17addrinfo_categoryD0Ev, .-_ZN4asio5error6detail17addrinfo_categoryD0Ev
	.section	.text._ZN4asio5error6detail13misc_categoryD2Ev,"axG",@progbits,_ZN4asio5error6detail13misc_categoryD5Ev,comdat
	.align 2
	.p2align 4
	.weak	_ZN4asio5error6detail13misc_categoryD2Ev
	.type	_ZN4asio5error6detail13misc_categoryD2Ev, @function
_ZN4asio5error6detail13misc_categoryD2Ev:
.LFB9388:
	.cfi_startproc
	endbr64
	movq	_ZTVN4asio5error6detail13misc_categoryE@GOTPCREL(%rip), %rax
	addq	$16, %rax
	movq	%rax, (%rdi)
	jmp	_ZNSt3_V214error_categoryD2Ev@PLT
	.cfi_endproc
.LFE9388:
	.size	_ZN4asio5error6detail13misc_categoryD2Ev, .-_ZN4asio5error6detail13misc_categoryD2Ev
	.weak	_ZN4asio5error6detail13misc_categoryD1Ev
	.set	_ZN4asio5error6detail13misc_categoryD1Ev,_ZN4asio5error6detail13misc_categoryD2Ev
	.section	.text._ZN4asio5error6detail13misc_categoryD0Ev,"axG",@progbits,_ZN4asio5error6detail13misc_categoryD5Ev,comdat
	.align 2
	.p2align 4
	.weak	_ZN4asio5error6detail13misc_categoryD0Ev
	.type	_ZN4asio5error6detail13misc_categoryD0Ev, @function
_ZN4asio5error6detail13misc_categoryD0Ev:
.LFB9390:
	.cfi_startproc
	endbr64
	movq	_ZTVN4asio5error6detail13misc_categoryE@GOTPCREL(%rip), %rax
	pushq	%rbp
	.cfi_def_cfa_offset 16
	.cfi_offset 6, -16
	movq	%rdi, %rbp
	addq	$16, %rax
	movq	%rax, (%rdi)
	call	_ZNSt3_V214error_categoryD2Ev@PLT
	movq	%rbp, %rdi
	movl	$8, %esi
	popq	%rbp
	.cfi_def_cfa_offset 8
	jmp	_ZdlPvm@PLT
	.cfi_endproc
.LFE9390:
	.size	_ZN4asio5error6detail13misc_categoryD0Ev, .-_ZN4asio5error6detail13misc_categoryD0Ev
	.text
	.align 2
	.p2align 4
	.type	_ZNSt6thread11_State_implINS_8_InvokerISt5tupleIJZN7asiopal10ThreadPoolC4ERKN7openpal6LoggerERKSt10shared_ptrINS3_2IOEEjSt8functionIFvvEESG_EUlvE0_EEEEED2Ev, @function
_ZNSt6thread11_State_implINS_8_InvokerISt5tupleIJZN7asiopal10ThreadPoolC4ERKN7openpal6LoggerERKSt10shared_ptrINS3_2IOEEjSt8functionIFvvEESG_EUlvE0_EEEEED2Ev:
.LFB9348:
	.cfi_startproc
	endbr64
	leaq	16+_ZTVNSt6thread11_State_implINS_8_InvokerISt5tupleIJZN7asiopal10ThreadPoolC4ERKN7openpal6LoggerERKSt10shared_ptrINS3_2IOEEjSt8functionIFvvEESG_EUlvE0_EEEEEE(%rip), %rax
	movq	%rax, (%rdi)
	jmp	_ZNSt6thread6_StateD2Ev@PLT
	.cfi_endproc
.LFE9348:
	.size	_ZNSt6thread11_State_implINS_8_InvokerISt5tupleIJZN7asiopal10ThreadPoolC4ERKN7openpal6LoggerERKSt10shared_ptrINS3_2IOEEjSt8functionIFvvEESG_EUlvE0_EEEEED2Ev, .-_ZNSt6thread11_State_implINS_8_InvokerISt5tupleIJZN7asiopal10ThreadPoolC4ERKN7openpal6LoggerERKSt10shared_ptrINS3_2IOEEjSt8functionIFvvEESG_EUlvE0_EEEEED2Ev
	.set	_ZNSt6thread11_State_implINS_8_InvokerISt5tupleIJZN7asiopal10ThreadPoolC4ERKN7openpal6LoggerERKSt10shared_ptrINS3_2IOEEjSt8functionIFvvEESG_EUlvE0_EEEEED1Ev,_ZNSt6thread11_State_implINS_8_InvokerISt5tupleIJZN7asiopal10ThreadPoolC4ERKN7openpal6LoggerERKSt10shared_ptrINS3_2IOEEjSt8functionIFvvEESG_EUlvE0_EEEEED2Ev
	.align 2
	.p2align 4
	.type	_ZNSt6thread11_State_implINS_8_InvokerISt5tupleIJZN7asiopal10ThreadPoolC4ERKN7openpal6LoggerERKSt10shared_ptrINS3_2IOEEjSt8functionIFvvEESG_EUlvE0_EEEEED0Ev, @function
_ZNSt6thread11_State_implINS_8_InvokerISt5tupleIJZN7asiopal10ThreadPoolC4ERKN7openpal6LoggerERKSt10shared_ptrINS3_2IOEEjSt8functionIFvvEESG_EUlvE0_EEEEED0Ev:
.LFB9350:
	.cfi_startproc
	endbr64
	leaq	16+_ZTVNSt6thread11_State_implINS_8_InvokerISt5tupleIJZN7asiopal10ThreadPoolC4ERKN7openpal6LoggerERKSt10shared_ptrINS3_2IOEEjSt8functionIFvvEESG_EUlvE0_EEEEEE(%rip), %rax
	pushq	%rbp
	.cfi_def_cfa_offset 16
	.cfi_offset 6, -16
	movq	%rdi, %rbp
	movq	%rax, (%rdi)
	call	_ZNSt6thread6_StateD2Ev@PLT
	movq	%rbp, %rdi
	movl	$24, %esi
	popq	%rbp
	.cfi_def_cfa_offset 8
	jmp	_ZdlPvm@PLT
	.cfi_endproc
.LFE9350:
	.size	_ZNSt6thread11_State_implINS_8_InvokerISt5tupleIJZN7asiopal10ThreadPoolC4ERKN7openpal6LoggerERKSt10shared_ptrINS3_2IOEEjSt8functionIFvvEESG_EUlvE0_EEEEED0Ev, .-_ZNSt6thread11_State_implINS_8_InvokerISt5tupleIJZN7asiopal10ThreadPoolC4ERKN7openpal6LoggerERKSt10shared_ptrINS3_2IOEEjSt8functionIFvvEESG_EUlvE0_EEEEED0Ev
	.section	.text._ZN4asio22waitable_timer_serviceINSt6chrono3_V212steady_clockENS_11wait_traitsIS3_EEED2Ev,"axG",@progbits,_ZN4asio22waitable_timer_serviceINSt6chrono3_V212steady_clockENS_11wait_traitsIS3_EEED5Ev,comdat
	.align 2
	.p2align 4
	.weak	_ZN4asio22waitable_timer_serviceINSt6chrono3_V212steady_clockENS_11wait_traitsIS3_EEED2Ev
	.type	_ZN4asio22waitable_timer_serviceINSt6chrono3_V212steady_clockENS_11wait_traitsIS3_EEED2Ev, @function
_ZN4asio22waitable_timer_serviceINSt6chrono3_V212steady_clockENS_11wait_traitsIS3_EEED2Ev:
.LFB9372:
	.cfi_startproc
	endbr64
	movq	_ZTVN4asio22waitable_timer_serviceINSt6chrono3_V212steady_clockENS_11wait_traitsIS3_EEEE@GOTPCREL(%rip), %rax
	pushq	%r12
	.cfi_def_cfa_offset 16
	.cfi_offset 12, -16
	pushq	%rbp
	.cfi_def_cfa_offset 24
	.cfi_offset 6, -24
	addq	$16, %rax
	pushq	%rbx
	.cfi_def_cfa_offset 32
	.cfi_offset 3, -32
	movq	88(%rdi), %rbp
	movq	%rdi, %rbx
	movq	%rax, (%rdi)
	leaq	48(%rbp), %r12
	movq	%r12, %rdi
	call	pthread_mutex_lock@PLT
	movq	104(%rbp), %rax
	testq	%rax, %rax
	je	.L74
	leaq	40(%rbx), %rdx
	cmpq	%rax, %rdx
	jne	.L75
	jmp	.L86
	.p2align 4,,10
	.p2align 3
.L88:
	cmpq	%rax, %rdx
	je	.L87
.L75:
	movq	%rax, %rcx
	movq	8(%rax), %rax
	testq	%rax, %rax
	jne	.L88
.L74:
	movq	%r12, %rdi
	call	pthread_mutex_unlock@PLT
	movq	_ZTVN4asio6detail11timer_queueINS0_18chrono_time_traitsINSt6chrono3_V212steady_clockENS_11wait_traitsIS5_EEEEEE@GOTPCREL(%rip), %rax
	movq	64(%rbx), %rdi
	addq	$16, %rax
	movq	%rax, 40(%rbx)
	testq	%rdi, %rdi
	je	.L73
	popq	%rbx
	.cfi_remember_state
	.cfi_def_cfa_offset 24
	popq	%rbp
	.cfi_def_cfa_offset 16
	popq	%r12
	.cfi_def_cfa_offset 8
	jmp	_ZdlPv@PLT
	.p2align 4,,10
	.p2align 3
.L73:
	.cfi_restore_state
	popq	%rbx
	.cfi_remember_state
	.cfi_def_cfa_offset 24
	popq	%rbp
	.cfi_def_cfa_offset 16
	popq	%r12
	.cfi_def_cfa_offset 8
	ret
	.p2align 4,,10
	.p2align 3
.L87:
	.cfi_restore_state
	movq	48(%rbx), %rax
	movq	%rax, 8(%rcx)
	movq	$0, 48(%rbx)
	jmp	.L74
	.p2align 4,,10
	.p2align 3
.L86:
	movq	48(%rbx), %rax
	movq	%rax, 104(%rbp)
	movq	$0, 48(%rbx)
	jmp	.L74
	.cfi_endproc
.LFE9372:
	.size	_ZN4asio22waitable_timer_serviceINSt6chrono3_V212steady_clockENS_11wait_traitsIS3_EEED2Ev, .-_ZN4asio22waitable_timer_serviceINSt6chrono3_V212steady_clockENS_11wait_traitsIS3_EEED2Ev
	.weak	_ZN4asio22waitable_timer_serviceINSt6chrono3_V212steady_clockENS_11wait_traitsIS3_EEED1Ev
	.set	_ZN4asio22waitable_timer_serviceINSt6chrono3_V212steady_clockENS_11wait_traitsIS3_EEED1Ev,_ZN4asio22waitable_timer_serviceINSt6chrono3_V212steady_clockENS_11wait_traitsIS3_EEED2Ev
	.section	.text._ZN4asio6detail13epoll_reactorD2Ev,"axG",@progbits,_ZN4asio6detail13epoll_reactorD5Ev,comdat
	.align 2
	.p2align 4
	.weak	_ZN4asio6detail13epoll_reactorD2Ev
	.type	_ZN4asio6detail13epoll_reactorD2Ev, @function
_ZN4asio6detail13epoll_reactorD2Ev:
.LFB3389:
	.cfi_startproc
	.cfi_personality 0x9b,DW.ref.__gxx_personality_v0
	.cfi_lsda 0x1b,.LLSDA3389
	endbr64
	pushq	%r15
	.cfi_def_cfa_offset 16
	.cfi_offset 15, -16
	pushq	%r14
	.cfi_def_cfa_offset 24
	.cfi_offset 14, -24
	pushq	%r13
	.cfi_def_cfa_offset 32
	.cfi_offset 13, -32
	pushq	%r12
	.cfi_def_cfa_offset 40
	.cfi_offset 12, -40
	pushq	%rbp
	.cfi_def_cfa_offset 48
	.cfi_offset 6, -48
	pushq	%rbx
	.cfi_def_cfa_offset 56
	.cfi_offset 3, -56
	movq	%rdi, %rbx
	subq	$56, %rsp
	.cfi_def_cfa_offset 112
	movq	%fs:40, %rax
	movq	%rax, 40(%rsp)
	xorl	%eax, %eax
	movq	_ZTVN4asio6detail13epoll_reactorE@GOTPCREL(%rip), %rax
	addq	$16, %rax
	movq	%rax, (%rdi)
	movl	96(%rdi), %edi
	cmpl	$-1, %edi
	je	.L90
	call	close@PLT
.L90:
	movl	100(%rbx), %edi
	cmpl	$-1, %edi
	je	.L91
	call	close@PLT
.L91:
	movq	160(%rbx), %rbp
	leaq	16(%rsp), %r14
	testq	%rbp, %rbp
	je	.L102
	.p2align 4,,10
	.p2align 3
.L92:
	movq	%rbp, %r12
	movq	24(%rbp), %rbp
	leaq	80(%r12), %rax
	leaq	128(%r12), %r15
	movq	%rax, (%rsp)
.L97:
	movq	(%r15), %rsi
	testq	%rsi, %rsi
	je	.L99
	movq	%rsi, 8(%rsp)
	call	_ZNSt3_V215system_categoryEv@PLT
	movq	8(%rsp), %rsi
	movq	%rax, %r13
	jmp	.L101
	.p2align 4,,10
	.p2align 3
.L98:
	movq	$0, (%rsi)
	movq	8(%rsi), %rax
	xorl	%ecx, %ecx
	movq	%r14, %rdx
	movl	$0, 16(%rsp)
	xorl	%edi, %edi
	movq	%r13, 24(%rsp)
	call	*%rax
	movq	(%r15), %rsi
	testq	%rsi, %rsi
	je	.L99
.L101:
	movq	(%rsi), %rax
	movq	%rax, (%r15)
	testq	%rax, %rax
	jne	.L98
	movq	$0, 8(%r15)
	jmp	.L98
	.p2align 4,,10
	.p2align 3
.L99:
	subq	$16, %r15
	cmpq	(%rsp), %r15
	jne	.L97
	leaq	40(%r12), %rdi
	call	pthread_mutex_destroy@PLT
	movl	$152, %esi
	movq	%r12, %rdi
	call	_ZdlPvm@PLT
	testq	%rbp, %rbp
	jne	.L92
.L102:
	movq	168(%rbx), %rbp
	testq	%rbp, %rbp
	je	.L93
	leaq	16(%rsp), %r14
	.p2align 4,,10
	.p2align 3
.L94:
	movq	%rbp, %r12
	movq	24(%rbp), %rbp
	leaq	80(%r12), %rax
	leaq	128(%r12), %r15
	movq	%rax, (%rsp)
.L107:
	movq	(%r15), %rsi
	testq	%rsi, %rsi
	je	.L109
	movq	%rsi, 8(%rsp)
	call	_ZNSt3_V215system_categoryEv@PLT
	movq	8(%rsp), %rsi
	movq	%rax, %r13
	jmp	.L111
	.p2align 4,,10
	.p2align 3
.L108:
	movq	$0, (%rsi)
	movq	8(%rsi), %rax
	xorl	%ecx, %ecx
	movq	%r14, %rdx
	movl	$0, 16(%rsp)
	xorl	%edi, %edi
	movq	%r13, 24(%rsp)
	call	*%rax
	movq	(%r15), %rsi
	testq	%rsi, %rsi
	je	.L109
.L111:
	movq	(%rsi), %rax
	movq	%rax, (%r15)
	testq	%rax, %rax
	jne	.L108
	movq	$0, 8(%r15)
	jmp	.L108
	.p2align 4,,10
	.p2align 3
.L109:
	subq	$16, %r15
	cmpq	(%rsp), %r15
	jne	.L107
	leaq	40(%r12), %rdi
	call	pthread_mutex_destroy@PLT
	movl	$152, %esi
	movq	%r12, %rdi
	call	_ZdlPvm@PLT
	testq	%rbp, %rbp
	jne	.L94
.L93:
	leaq	120(%rbx), %rdi
	call	pthread_mutex_destroy@PLT
	movl	92(%rbx), %r8d
	cmpl	$-1, %r8d
	je	.L151
	movl	88(%rbx), %edi
	cmpl	%edi, %r8d
	jne	.L152
.L113:
	call	close@PLT
	jmp	.L114
	.p2align 4,,10
	.p2align 3
.L152:
	movl	%r8d, %edi
	call	close@PLT
.L151:
	movl	88(%rbx), %edi
	cmpl	$-1, %edi
	jne	.L113
.L114:
	leaq	48(%rbx), %rdi
	call	pthread_mutex_destroy@PLT
	movq	40(%rsp), %rax
	xorq	%fs:40, %rax
	jne	.L153
	addq	$56, %rsp
	.cfi_remember_state
	.cfi_def_cfa_offset 56
	popq	%rbx
	.cfi_def_cfa_offset 48
	popq	%rbp
	.cfi_def_cfa_offset 40
	popq	%r12
	.cfi_def_cfa_offset 32
	popq	%r13
	.cfi_def_cfa_offset 24
	popq	%r14
	.cfi_def_cfa_offset 16
	popq	%r15
	.cfi_def_cfa_offset 8
	ret
.L153:
	.cfi_restore_state
	call	__stack_chk_fail@PLT
	.cfi_endproc
.LFE3389:
	.globl	__gxx_personality_v0
	.section	.gcc_except_table._ZN4asio6detail13epoll_reactorD2Ev,"aG",@progbits,_ZN4asio6detail13epoll_reactorD5Ev,comdat
.LLSDA3389:
	.byte	0xff
	.byte	0xff
	.byte	0x1
	.uleb128 .LLSDACSE3389-.LLSDACSB3389
.LLSDACSB3389:
.LLSDACSE3389:
	.section	.text._ZN4asio6detail13epoll_reactorD2Ev,"axG",@progbits,_ZN4asio6detail13epoll_reactorD5Ev,comdat
	.size	_ZN4asio6detail13epoll_reactorD2Ev, .-_ZN4asio6detail13epoll_reactorD2Ev
	.weak	_ZN4asio6detail13epoll_reactorD1Ev
	.set	_ZN4asio6detail13epoll_reactorD1Ev,_ZN4asio6detail13epoll_reactorD2Ev
	.text
	.p2align 4
	.type	_ZN4asio6detail12wait_handlerIZN7asiopal10ThreadPoolC4ERKN7openpal6LoggerERKSt10shared_ptrINS2_2IOEEjSt8functionIFvvEESF_EUlRKSt10error_codeE_E11do_completeEPNS0_15task_io_serviceEPNS0_25task_io_service_operationESI_m, @function
_ZN4asio6detail12wait_handlerIZN7asiopal10ThreadPoolC4ERKN7openpal6LoggerERKSt10shared_ptrINS2_2IOEEjSt8functionIFvvEESF_EUlRKSt10error_codeE_E11do_completeEPNS0_15task_io_serviceEPNS0_25task_io_service_operationESI_m:
.LFB8811:
	.cfi_startproc
	.cfi_personality 0x9b,DW.ref.__gxx_personality_v0
	endbr64
	pushq	%rbp
	.cfi_def_cfa_offset 16
	.cfi_offset 6, -16
	movq	%rsi, %rbp
	pushq	%rbx
	.cfi_def_cfa_offset 24
	.cfi_offset 3, -24
	movq	%rdi, %rbx
	subq	$8, %rsp
	.cfi_def_cfa_offset 32
	data16	leaq	_ZN4asio6detail15keyword_tss_ptrINS0_10call_stackINS0_15task_io_serviceENS0_27task_io_service_thread_infoEE7contextEE6value_E@tlsgd(%rip), %rdi
	.value	0x6666
	rex64
	call	__tls_get_addr@PLT
	movq	(%rax), %rax
	testq	%rax, %rax
	je	.L155
	movq	8(%rax), %rax
	testq	%rax, %rax
	je	.L155
	cmpq	$0, (%rax)
	je	.L168
.L155:
	movq	%rbp, %rdi
	call	_ZdlPv@PLT
.L156:
	testq	%rbx, %rbx
	je	.L154
	sfence
.L154:
	addq	$8, %rsp
	.cfi_remember_state
	.cfi_def_cfa_offset 24
	popq	%rbx
	.cfi_def_cfa_offset 16
	popq	%rbp
	.cfi_def_cfa_offset 8
	ret
	.p2align 4,,10
	.p2align 3
.L168:
	.cfi_restore_state
	movzbl	48(%rbp), %edx
	movb	%dl, 0(%rbp)
	movq	%rbp, (%rax)
	jmp	.L156
	.cfi_endproc
.LFE8811:
	.size	_ZN4asio6detail12wait_handlerIZN7asiopal10ThreadPoolC4ERKN7openpal6LoggerERKSt10shared_ptrINS2_2IOEEjSt8functionIFvvEESF_EUlRKSt10error_codeE_E11do_completeEPNS0_15task_io_serviceEPNS0_25task_io_service_operationESI_m, .-_ZN4asio6detail12wait_handlerIZN7asiopal10ThreadPoolC4ERKN7openpal6LoggerERKSt10shared_ptrINS2_2IOEEjSt8functionIFvvEESF_EUlRKSt10error_codeE_E11do_completeEPNS0_15task_io_serviceEPNS0_25task_io_service_operationESI_m
	.section	.text._ZN4asio6detail13epoll_reactor16shutdown_serviceEv,"axG",@progbits,_ZN4asio6detail13epoll_reactor16shutdown_serviceEv,comdat
	.align 2
	.p2align 4
	.weak	_ZN4asio6detail13epoll_reactor16shutdown_serviceEv
	.type	_ZN4asio6detail13epoll_reactor16shutdown_serviceEv, @function
_ZN4asio6detail13epoll_reactor16shutdown_serviceEv:
.LFB3392:
	.cfi_startproc
	.cfi_personality 0x9b,DW.ref.__gxx_personality_v0
	.cfi_lsda 0x1b,.LLSDA3392
	endbr64
	pushq	%r13
	.cfi_def_cfa_offset 16
	.cfi_offset 13, -16
	pushq	%r12
	.cfi_def_cfa_offset 24
	.cfi_offset 12, -24
	pushq	%rbp
	.cfi_def_cfa_offset 32
	.cfi_offset 6, -32
	leaq	48(%rdi), %rbp
	pushq	%rbx
	.cfi_def_cfa_offset 40
	.cfi_offset 3, -40
	movq	%rdi, %rbx
	movq	%rbp, %rdi
	subq	$72, %rsp
	.cfi_def_cfa_offset 112
	movq	%fs:40, %rax
	movq	%rax, 56(%rsp)
	xorl	%eax, %eax
	call	pthread_mutex_lock@PLT
	movb	$1, 112(%rbx)
	movq	%rbp, %rdi
	call	pthread_mutex_unlock@PLT
	movq	160(%rbx), %rax
	pxor	%xmm0, %xmm0
	movaps	%xmm0, 16(%rsp)
	testq	%rax, %rax
	je	.L267
	xorl	%esi, %esi
	xorl	%edx, %edx
	xorl	%r9d, %r9d
	xorl	%r8d, %r8d
	pxor	%xmm0, %xmm0
	jmp	.L170
	.p2align 4,,10
	.p2align 3
.L174:
	movq	%rcx, (%rdx)
.L175:
	movq	104(%rax), %rdx
	movl	$1, %esi
	movups	%xmm0, 96(%rax)
.L173:
	movq	112(%rax), %rcx
	testq	%rcx, %rcx
	je	.L176
	testq	%rdx, %rdx
	je	.L268
	movq	%rcx, (%rdx)
.L178:
	movq	120(%rax), %rdx
	movl	$1, %esi
	movups	%xmm0, 112(%rax)
.L176:
	movq	128(%rax), %rcx
	testq	%rcx, %rcx
	je	.L179
	testq	%rdx, %rdx
	je	.L269
	movq	%rcx, (%rdx)
.L181:
	movq	136(%rax), %rdx
	movl	$1, %esi
	movups	%xmm0, 128(%rax)
.L179:
	movq	24(%rax), %rcx
	movb	$1, 144(%rax)
	movq	%rcx, 160(%rbx)
	movq	32(%rax), %rcx
	testq	%rcx, %rcx
	je	.L182
	movq	24(%rax), %rdi
	movq	%rdi, 24(%rcx)
.L182:
	movq	24(%rax), %rcx
	testq	%rcx, %rcx
	je	.L183
	movq	32(%rax), %rdi
	movq	%rdi, 32(%rcx)
.L183:
	movq	168(%rbx), %rcx
	movq	$0, 32(%rax)
	movq	%rcx, 24(%rax)
	movq	%rax, 168(%rbx)
	movq	160(%rbx), %rax
	testq	%rax, %rax
	je	.L270
.L170:
	movq	96(%rax), %rcx
	testq	%rcx, %rcx
	je	.L173
	testq	%rdx, %rdx
	jne	.L174
	movq	%rcx, %r8
	movl	$1, %r9d
	jmp	.L175
	.p2align 4,,10
	.p2align 3
.L269:
	movq	%rcx, %r8
	movl	$1, %r9d
	jmp	.L181
	.p2align 4,,10
	.p2align 3
.L268:
	movq	%rcx, %r8
	movl	$1, %r9d
	jmp	.L178
	.p2align 4,,10
	.p2align 3
.L270:
	xorl	%ebp, %ebp
	testb	%r9b, %r9b
	je	.L186
	movq	%r8, 16(%rsp)
	movq	%r8, %rbp
.L186:
	testb	%sil, %sil
	je	.L187
	movq	%rdx, 24(%rsp)
.L187:
	movq	104(%rbx), %rbx
	testq	%rbx, %rbx
	je	.L188
.L172:
	movq	_ZN4asio6detail11timer_queueINS0_18chrono_time_traitsINSt6chrono3_V212steady_clockENS_11wait_traitsIS5_EEEEE14get_all_timersERNS0_8op_queueINS0_25task_io_service_operationEEE@GOTPCREL(%rip), %rbp
	leaq	16(%rsp), %r12
	.p2align 4,,10
	.p2align 3
.L200:
	movq	(%rbx), %rax
	movq	48(%rax), %rax
	cmpq	%rbp, %rax
	jne	.L189
	movq	16(%rbx), %rdx
	testq	%rdx, %rdx
	je	.L191
	movq	24(%rsp), %rsi
	movq	16(%rsp), %r9
	xorl	%edi, %edi
	xorl	%r8d, %r8d
	jmp	.L194
	.p2align 4,,10
	.p2align 3
.L272:
	movq	%rcx, (%rsi)
.L193:
	pxor	%xmm1, %xmm1
	movq	8(%rax), %rsi
	movl	$1, %edi
	movups	%xmm1, (%rax)
.L192:
	pxor	%xmm2, %xmm2
	movups	%xmm2, 24(%rax)
	testq	%rdx, %rdx
	je	.L271
.L194:
	movq	%rdx, %rax
	movq	24(%rdx), %rdx
	movq	(%rax), %rcx
	testq	%rcx, %rcx
	je	.L192
	testq	%rsi, %rsi
	jne	.L272
	movq	%rcx, %r9
	movl	$1, %r8d
	jmp	.L193
	.p2align 4,,10
	.p2align 3
.L271:
	movq	$0, 16(%rbx)
	testb	%r8b, %r8b
	je	.L195
	movq	%r9, 16(%rsp)
.L195:
	testb	%dil, %dil
	je	.L191
	movq	%rsi, 24(%rsp)
.L191:
	movq	24(%rbx), %rax
	cmpq	32(%rbx), %rax
	je	.L198
	movq	%rax, 32(%rbx)
.L198:
	movq	8(%rbx), %rbx
	testq	%rbx, %rbx
	jne	.L200
	movq	16(%rsp), %rbp
.L188:
	testq	%rbp, %rbp
	je	.L169
	pxor	%xmm0, %xmm0
	leaq	32(%rsp), %rbx
	movaps	%xmm0, 16(%rsp)
	call	_ZNSt3_V215system_categoryEv@PLT
	movq	%rax, %r12
	.p2align 4,,10
	.p2align 3
.L201:
	movq	%rbp, %rsi
	movq	0(%rbp), %rbp
	xorl	%ecx, %ecx
	xorl	%edi, %edi
	movq	$0, (%rsi)
	movq	8(%rsi), %rax
	movq	%rbx, %rdx
	movl	$0, 32(%rsp)
	movq	%r12, 40(%rsp)
	call	*%rax
	testq	%rbp, %rbp
	jne	.L201
	movq	16(%rsp), %rsi
	testq	%rsi, %rsi
	movq	%rsi, 8(%rsp)
	je	.L169
	call	_ZNSt3_V215system_categoryEv@PLT
	movq	8(%rsp), %rsi
	movq	%rax, %rbp
	jmp	.L206
	.p2align 4,,10
	.p2align 3
.L203:
	movq	$0, (%rsi)
	movq	8(%rsi), %rax
	xorl	%ecx, %ecx
	movq	%rbx, %rdx
	movl	$0, 32(%rsp)
	xorl	%edi, %edi
	movq	%rbp, 40(%rsp)
	call	*%rax
	movq	16(%rsp), %rsi
	testq	%rsi, %rsi
	je	.L169
.L206:
	movq	(%rsi), %rax
	movq	%rax, 16(%rsp)
	testq	%rax, %rax
	jne	.L203
	movq	$0, 24(%rsp)
	jmp	.L203
	.p2align 4,,10
	.p2align 3
.L189:
	movq	%r12, %rsi
	movq	%rbx, %rdi
.LEHB0:
	call	*%rax
.LEHE0:
	jmp	.L198
.L267:
	movq	104(%rbx), %rbx
	testq	%rbx, %rbx
	jne	.L172
	.p2align 4,,10
	.p2align 3
.L169:
	movq	56(%rsp), %rax
	xorq	%fs:40, %rax
	jne	.L273
	addq	$72, %rsp
	.cfi_remember_state
	.cfi_def_cfa_offset 40
	popq	%rbx
	.cfi_def_cfa_offset 32
	popq	%rbp
	.cfi_def_cfa_offset 24
	popq	%r12
	.cfi_def_cfa_offset 16
	popq	%r13
	.cfi_def_cfa_offset 8
	ret
.L273:
	.cfi_restore_state
	call	__stack_chk_fail@PLT
.L214:
	endbr64
	movq	%rax, %r12
	leaq	32(%rsp), %rbx
.L207:
	movq	16(%rsp), %rbp
	testq	%rbp, %rbp
	jne	.L274
	movq	%r12, %rdi
.LEHB1:
	call	_Unwind_Resume@PLT
.LEHE1:
.L274:
	movq	0(%rbp), %rax
	movq	%rax, 16(%rsp)
	testq	%rax, %rax
	jne	.L209
	movq	$0, 24(%rsp)
.L209:
	movq	$0, 0(%rbp)
	movq	8(%rbp), %r13
	movl	$0, 32(%rsp)
	call	_ZNSt3_V215system_categoryEv@PLT
	xorl	%ecx, %ecx
	movq	%rbx, %rdx
	movq	%rbp, %rsi
	movq	%rax, 40(%rsp)
	xorl	%edi, %edi
	call	*%r13
	jmp	.L207
	.cfi_endproc
.LFE3392:
	.section	.gcc_except_table._ZN4asio6detail13epoll_reactor16shutdown_serviceEv,"aG",@progbits,_ZN4asio6detail13epoll_reactor16shutdown_serviceEv,comdat
.LLSDA3392:
	.byte	0xff
	.byte	0xff
	.byte	0x1
	.uleb128 .LLSDACSE3392-.LLSDACSB3392
.LLSDACSB3392:
	.uleb128 .LEHB0-.LFB3392
	.uleb128 .LEHE0-.LEHB0
	.uleb128 .L214-.LFB3392
	.uleb128 0
	.uleb128 .LEHB1-.LFB3392
	.uleb128 .LEHE1-.LEHB1
	.uleb128 0
	.uleb128 0
.LLSDACSE3392:
	.section	.text._ZN4asio6detail13epoll_reactor16shutdown_serviceEv,"axG",@progbits,_ZN4asio6detail13epoll_reactor16shutdown_serviceEv,comdat
	.size	_ZN4asio6detail13epoll_reactor16shutdown_serviceEv, .-_ZN4asio6detail13epoll_reactor16shutdown_serviceEv
	.section	.text._ZNK4asio6detail11timer_queueINS0_18chrono_time_traitsINSt6chrono3_V212steady_clockENS_11wait_traitsIS5_EEEEE18wait_duration_msecEl,"axG",@progbits,_ZNK4asio6detail11timer_queueINS0_18chrono_time_traitsINSt6chrono3_V212steady_clockENS_11wait_traitsIS5_EEEEE18wait_duration_msecEl,comdat
	.align 2
	.p2align 4
	.weak	_ZNK4asio6detail11timer_queueINS0_18chrono_time_traitsINSt6chrono3_V212steady_clockENS_11wait_traitsIS5_EEEEE18wait_duration_msecEl
	.type	_ZNK4asio6detail11timer_queueINS0_18chrono_time_traitsINSt6chrono3_V212steady_clockENS_11wait_traitsIS5_EEEEE18wait_duration_msecEl, @function
_ZNK4asio6detail11timer_queueINS0_18chrono_time_traitsINSt6chrono3_V212steady_clockENS_11wait_traitsIS5_EEEEE18wait_duration_msecEl:
.LFB9485:
	.cfi_startproc
	endbr64
	movq	32(%rdi), %rax
	cmpq	%rax, 24(%rdi)
	je	.L291
	pushq	%rbp
	.cfi_def_cfa_offset 16
	.cfi_offset 6, -16
	movq	%rsi, %rbp
	pushq	%rbx
	.cfi_def_cfa_offset 24
	.cfi_offset 3, -24
	movq	%rdi, %rbx
	subq	$8, %rsp
	.cfi_def_cfa_offset 32
	call	_ZNSt6chrono3_V212steady_clock3nowEv@PLT
	movq	24(%rbx), %rdx
	movq	(%rdx), %rdx
	testq	%rdx, %rdx
	js	.L277
	testq	%rax, %rax
	js	.L278
.L294:
	movq	%rdx, %rcx
	subq	%rax, %rcx
	testq	%rcx, %rcx
	jle	.L287
	movabsq	$4835703278458516699, %rdx
	movq	%rcx, %rax
	sarq	$63, %rcx
	imulq	%rdx
	sarq	$18, %rdx
	subq	%rcx, %rdx
.L281:
	movl	$1, %r8d
	testq	%rdx, %rdx
	je	.L275
.L280:
	cmpq	%rdx, %rbp
	cmovle	%rbp, %rdx
	movq	%rdx, %r8
.L275:
	addq	$8, %rsp
	.cfi_remember_state
	.cfi_def_cfa_offset 24
	movq	%r8, %rax
	popq	%rbx
	.cfi_def_cfa_offset 16
	popq	%rbp
	.cfi_def_cfa_offset 8
	ret
	.p2align 4,,10
	.p2align 3
.L277:
	.cfi_restore_state
	xorl	%r8d, %r8d
	testq	%rax, %rax
	js	.L294
	addq	$8, %rsp
	.cfi_def_cfa_offset 24
	movq	%r8, %rax
	popq	%rbx
	.cfi_def_cfa_offset 16
	popq	%rbp
	.cfi_def_cfa_offset 8
	ret
	.p2align 4,,10
	.p2align 3
.L291:
	.cfi_restore 3
	.cfi_restore 6
	movq	%rsi, %rax
	ret
	.p2align 4,,10
	.p2align 3
.L278:
	.cfi_def_cfa_offset 32
	.cfi_offset 3, -24
	.cfi_offset 6, -16
	movabsq	$-9223372036854775808, %rcx
	cmpq	%rcx, %rax
	je	.L285
	movq	%rax, %rsi
	subq	$1, %rcx
	negq	%rsi
	subq	%rdx, %rcx
	cmpq	%rcx, %rsi
	jg	.L285
	movabsq	$4835703278458516699, %rcx
	subq	%rax, %rdx
	movq	%rdx, %rax
	mulq	%rcx
	shrq	$18, %rdx
	jmp	.L281
	.p2align 4,,10
	.p2align 3
.L285:
	movabsq	$9223372036854, %rdx
	jmp	.L280
	.p2align 4,,10
	.p2align 3
.L287:
	xorl	%r8d, %r8d
	jmp	.L275
	.cfi_endproc
.LFE9485:
	.size	_ZNK4asio6detail11timer_queueINS0_18chrono_time_traitsINSt6chrono3_V212steady_clockENS_11wait_traitsIS5_EEEEE18wait_duration_msecEl, .-_ZNK4asio6detail11timer_queueINS0_18chrono_time_traitsINSt6chrono3_V212steady_clockENS_11wait_traitsIS5_EEEEE18wait_duration_msecEl
	.section	.text._ZNK4asio6detail11timer_queueINS0_18chrono_time_traitsINSt6chrono3_V212steady_clockENS_11wait_traitsIS5_EEEEE18wait_duration_usecEl,"axG",@progbits,_ZNK4asio6detail11timer_queueINS0_18chrono_time_traitsINSt6chrono3_V212steady_clockENS_11wait_traitsIS5_EEEEE18wait_duration_usecEl,comdat
	.align 2
	.p2align 4
	.weak	_ZNK4asio6detail11timer_queueINS0_18chrono_time_traitsINSt6chrono3_V212steady_clockENS_11wait_traitsIS5_EEEEE18wait_duration_usecEl
	.type	_ZNK4asio6detail11timer_queueINS0_18chrono_time_traitsINSt6chrono3_V212steady_clockENS_11wait_traitsIS5_EEEEE18wait_duration_usecEl, @function
_ZNK4asio6detail11timer_queueINS0_18chrono_time_traitsINSt6chrono3_V212steady_clockENS_11wait_traitsIS5_EEEEE18wait_duration_usecEl:
.LFB9486:
	.cfi_startproc
	endbr64
	movq	32(%rdi), %rax
	cmpq	%rax, 24(%rdi)
	je	.L312
	pushq	%rbp
	.cfi_def_cfa_offset 16
	.cfi_offset 6, -16
	movq	%rsi, %rbp
	pushq	%rbx
	.cfi_def_cfa_offset 24
	.cfi_offset 3, -24
	movq	%rdi, %rbx
	subq	$8, %rsp
	.cfi_def_cfa_offset 32
	call	_ZNSt6chrono3_V212steady_clock3nowEv@PLT
	movq	24(%rbx), %rdx
	movq	(%rdx), %rdx
	testq	%rdx, %rdx
	js	.L298
	testq	%rax, %rax
	js	.L299
.L315:
	movq	%rdx, %rcx
	subq	%rax, %rcx
	testq	%rcx, %rcx
	jle	.L308
	movabsq	$2361183241434822607, %rdx
	movq	%rcx, %rax
	sarq	$63, %rcx
	imulq	%rdx
	sarq	$7, %rdx
	subq	%rcx, %rdx
.L302:
	movl	$1, %r8d
	testq	%rdx, %rdx
	je	.L296
.L301:
	cmpq	%rdx, %rbp
	cmovle	%rbp, %rdx
	movq	%rdx, %r8
.L296:
	addq	$8, %rsp
	.cfi_remember_state
	.cfi_def_cfa_offset 24
	movq	%r8, %rax
	popq	%rbx
	.cfi_def_cfa_offset 16
	popq	%rbp
	.cfi_def_cfa_offset 8
	ret
	.p2align 4,,10
	.p2align 3
.L298:
	.cfi_restore_state
	xorl	%r8d, %r8d
	testq	%rax, %rax
	js	.L315
	addq	$8, %rsp
	.cfi_def_cfa_offset 24
	movq	%r8, %rax
	popq	%rbx
	.cfi_def_cfa_offset 16
	popq	%rbp
	.cfi_def_cfa_offset 8
	ret
	.p2align 4,,10
	.p2align 3
.L312:
	.cfi_restore 3
	.cfi_restore 6
	movq	%rsi, %rax
	ret
	.p2align 4,,10
	.p2align 3
.L299:
	.cfi_def_cfa_offset 32
	.cfi_offset 3, -24
	.cfi_offset 6, -16
	movabsq	$-9223372036854775808, %rcx
	cmpq	%rcx, %rax
	je	.L306
	movq	%rax, %rsi
	subq	$1, %rcx
	negq	%rsi
	subq	%rdx, %rcx
	cmpq	%rcx, %rsi
	jg	.L306
	movabsq	$2361183241434822607, %rcx
	subq	%rax, %rdx
	shrq	$3, %rdx
	movq	%rdx, %rax
	mulq	%rcx
	shrq	$4, %rdx
	jmp	.L302
	.p2align 4,,10
	.p2align 3
.L306:
	movabsq	$9223372036854775, %rdx
	jmp	.L301
	.p2align 4,,10
	.p2align 3
.L308:
	xorl	%r8d, %r8d
	jmp	.L296
	.cfi_endproc
.LFE9486:
	.size	_ZNK4asio6detail11timer_queueINS0_18chrono_time_traitsINSt6chrono3_V212steady_clockENS_11wait_traitsIS5_EEEEE18wait_duration_usecEl, .-_ZNK4asio6detail11timer_queueINS0_18chrono_time_traitsINSt6chrono3_V212steady_clockENS_11wait_traitsIS5_EEEEE18wait_duration_usecEl
	.section	.text._ZN4asio6detail13epoll_reactorD0Ev,"axG",@progbits,_ZN4asio6detail13epoll_reactorD5Ev,comdat
	.align 2
	.p2align 4
	.weak	_ZN4asio6detail13epoll_reactorD0Ev
	.type	_ZN4asio6detail13epoll_reactorD0Ev, @function
_ZN4asio6detail13epoll_reactorD0Ev:
.LFB3391:
	.cfi_startproc
	.cfi_personality 0x9b,DW.ref.__gxx_personality_v0
	.cfi_lsda 0x1b,.LLSDA3391
	endbr64
	pushq	%r15
	.cfi_def_cfa_offset 16
	.cfi_offset 15, -16
	pushq	%r14
	.cfi_def_cfa_offset 24
	.cfi_offset 14, -24
	pushq	%r13
	.cfi_def_cfa_offset 32
	.cfi_offset 13, -32
	pushq	%r12
	.cfi_def_cfa_offset 40
	.cfi_offset 12, -40
	pushq	%rbp
	.cfi_def_cfa_offset 48
	.cfi_offset 6, -48
	movq	%rdi, %rbp
	pushq	%rbx
	.cfi_def_cfa_offset 56
	.cfi_offset 3, -56
	subq	$56, %rsp
	.cfi_def_cfa_offset 112
	movq	%fs:40, %rax
	movq	%rax, 40(%rsp)
	xorl	%eax, %eax
	movq	_ZTVN4asio6detail13epoll_reactorE@GOTPCREL(%rip), %rax
	addq	$16, %rax
	movq	%rax, (%rdi)
	movl	96(%rdi), %edi
	cmpl	$-1, %edi
	je	.L318
	call	close@PLT
.L318:
	movl	100(%rbp), %edi
	cmpl	$-1, %edi
	je	.L319
	call	close@PLT
.L319:
	movq	160(%rbp), %rbx
	leaq	16(%rsp), %r14
	testq	%rbx, %rbx
	je	.L330
	.p2align 4,,10
	.p2align 3
.L320:
	movq	%rbx, %r12
	movq	24(%rbx), %rbx
	leaq	96(%r12), %rax
	leaq	144(%r12), %r15
	movq	%rax, (%rsp)
.L325:
	movq	-16(%r15), %rsi
	subq	$16, %r15
	testq	%rsi, %rsi
	je	.L327
	movq	%rsi, 8(%rsp)
	call	_ZNSt3_V215system_categoryEv@PLT
	movq	8(%rsp), %rsi
	movq	%rax, %r13
	jmp	.L329
	.p2align 4,,10
	.p2align 3
.L326:
	movq	$0, (%rsi)
	movq	8(%rsi), %rax
	xorl	%ecx, %ecx
	movq	%r14, %rdx
	movl	$0, 16(%rsp)
	xorl	%edi, %edi
	movq	%r13, 24(%rsp)
	call	*%rax
	movq	(%r15), %rsi
	testq	%rsi, %rsi
	je	.L327
.L329:
	movq	(%rsi), %rax
	movq	%rax, (%r15)
	testq	%rax, %rax
	jne	.L326
	movq	$0, 8(%r15)
	jmp	.L326
	.p2align 4,,10
	.p2align 3
.L327:
	cmpq	(%rsp), %r15
	jne	.L325
	leaq	40(%r12), %rdi
	call	pthread_mutex_destroy@PLT
	movl	$152, %esi
	movq	%r12, %rdi
	call	_ZdlPvm@PLT
	testq	%rbx, %rbx
	jne	.L320
.L330:
	movq	168(%rbp), %rbx
	testq	%rbx, %rbx
	je	.L321
	leaq	16(%rsp), %r14
	.p2align 4,,10
	.p2align 3
.L322:
	movq	%rbx, %r12
	movq	24(%rbx), %rbx
	leaq	80(%r12), %rax
	leaq	128(%r12), %r15
	movq	%rax, (%rsp)
.L335:
	movq	(%r15), %rsi
	testq	%rsi, %rsi
	je	.L337
	movq	%rsi, 8(%rsp)
	call	_ZNSt3_V215system_categoryEv@PLT
	movq	8(%rsp), %rsi
	movq	%rax, %r13
	jmp	.L339
	.p2align 4,,10
	.p2align 3
.L336:
	movq	$0, (%rsi)
	movq	8(%rsi), %rax
	xorl	%ecx, %ecx
	movq	%r14, %rdx
	movl	$0, 16(%rsp)
	xorl	%edi, %edi
	movq	%r13, 24(%rsp)
	call	*%rax
	movq	(%r15), %rsi
	testq	%rsi, %rsi
	je	.L337
.L339:
	movq	(%rsi), %rax
	movq	%rax, (%r15)
	testq	%rax, %rax
	jne	.L336
	movq	$0, 8(%r15)
	jmp	.L336
	.p2align 4,,10
	.p2align 3
.L337:
	subq	$16, %r15
	cmpq	(%rsp), %r15
	jne	.L335
	leaq	40(%r12), %rdi
	call	pthread_mutex_destroy@PLT
	movl	$152, %esi
	movq	%r12, %rdi
	call	_ZdlPvm@PLT
	testq	%rbx, %rbx
	jne	.L322
.L321:
	leaq	120(%rbp), %rdi
	call	pthread_mutex_destroy@PLT
	movl	92(%rbp), %r8d
	cmpl	$-1, %r8d
	je	.L379
	movl	88(%rbp), %edi
	cmpl	%edi, %r8d
	jne	.L380
.L341:
	call	close@PLT
	jmp	.L342
	.p2align 4,,10
	.p2align 3
.L380:
	movl	%r8d, %edi
	call	close@PLT
.L379:
	movl	88(%rbp), %edi
	cmpl	$-1, %edi
	jne	.L341
.L342:
	leaq	48(%rbp), %rdi
	call	pthread_mutex_destroy@PLT
	movl	$176, %esi
	movq	%rbp, %rdi
	call	_ZdlPvm@PLT
	movq	40(%rsp), %rax
	xorq	%fs:40, %rax
	jne	.L381
	addq	$56, %rsp
	.cfi_remember_state
	.cfi_def_cfa_offset 56
	popq	%rbx
	.cfi_def_cfa_offset 48
	popq	%rbp
	.cfi_def_cfa_offset 40
	popq	%r12
	.cfi_def_cfa_offset 32
	popq	%r13
	.cfi_def_cfa_offset 24
	popq	%r14
	.cfi_def_cfa_offset 16
	popq	%r15
	.cfi_def_cfa_offset 8
	ret
.L381:
	.cfi_restore_state
	call	__stack_chk_fail@PLT
	.cfi_endproc
.LFE3391:
	.section	.gcc_except_table._ZN4asio6detail13epoll_reactorD0Ev,"aG",@progbits,_ZN4asio6detail13epoll_reactorD5Ev,comdat
.LLSDA3391:
	.byte	0xff
	.byte	0xff
	.byte	0x1
	.uleb128 .LLSDACSE3391-.LLSDACSB3391
.LLSDACSB3391:
.LLSDACSE3391:
	.section	.text._ZN4asio6detail13epoll_reactorD0Ev,"axG",@progbits,_ZN4asio6detail13epoll_reactorD5Ev,comdat
	.size	_ZN4asio6detail13epoll_reactorD0Ev, .-_ZN4asio6detail13epoll_reactorD0Ev
	.section	.text._ZN4asio6detail11timer_queueINS0_18chrono_time_traitsINSt6chrono3_V212steady_clockENS_11wait_traitsIS5_EEEEE16get_ready_timersERNS0_8op_queueINS0_25task_io_service_operationEEE,"axG",@progbits,_ZN4asio6detail11timer_queueINS0_18chrono_time_traitsINSt6chrono3_V212steady_clockENS_11wait_traitsIS5_EEEEE16get_ready_timersERNS0_8op_queueINS0_25task_io_service_operationEEE,comdat
	.align 2
	.p2align 4
	.weak	_ZN4asio6detail11timer_queueINS0_18chrono_time_traitsINSt6chrono3_V212steady_clockENS_11wait_traitsIS5_EEEEE16get_ready_timersERNS0_8op_queueINS0_25task_io_service_operationEEE
	.type	_ZN4asio6detail11timer_queueINS0_18chrono_time_traitsINSt6chrono3_V212steady_clockENS_11wait_traitsIS5_EEEEE16get_ready_timersERNS0_8op_queueINS0_25task_io_service_operationEEE, @function
_ZN4asio6detail11timer_queueINS0_18chrono_time_traitsINSt6chrono3_V212steady_clockENS_11wait_traitsIS5_EEEEE16get_ready_timersERNS0_8op_queueINS0_25task_io_service_operationEEE:
.LFB9487:
	.cfi_startproc
	endbr64
	movq	32(%rdi), %rax
	cmpq	%rax, 24(%rdi)
	je	.L415
	pushq	%r15
	.cfi_def_cfa_offset 16
	.cfi_offset 15, -16
	pushq	%r14
	.cfi_def_cfa_offset 24
	.cfi_offset 14, -24
	pushq	%r13
	.cfi_def_cfa_offset 32
	.cfi_offset 13, -32
	movq	%rsi, %r13
	pushq	%r12
	.cfi_def_cfa_offset 40
	.cfi_offset 12, -40
	movq	%rdi, %r12
	pushq	%rbp
	.cfi_def_cfa_offset 48
	.cfi_offset 6, -48
	pushq	%rbx
	.cfi_def_cfa_offset 56
	.cfi_offset 3, -56
	subq	$8, %rsp
	.cfi_def_cfa_offset 64
	call	_ZNSt6chrono3_V212steady_clock3nowEv@PLT
	movq	32(%r12), %rbx
	movq	24(%r12), %rdx
	cmpq	%rdx, %rbx
	je	.L382
	pxor	%xmm0, %xmm0
	.p2align 4,,10
	.p2align 3
.L400:
	cmpq	(%rdx), %rax
	jl	.L382
	movq	8(%rdx), %rcx
	movq	(%rcx), %rsi
	testq	%rsi, %rsi
	je	.L385
	movq	8(%r13), %rdi
	testq	%rdi, %rdi
	je	.L386
	movq	%rsi, (%rdi)
.L387:
	movq	8(%rcx), %rsi
	movq	%rsi, 8(%r13)
	movups	%xmm0, (%rcx)
.L385:
	movq	%rbx, %rdi
	movq	16(%rcx), %r8
	subq	%rdx, %rdi
	movq	%rdi, %rsi
	sarq	$4, %rsi
	cmpq	%rsi, %r8
	jnb	.L419
	subq	$1, %rsi
	subq	$16, %rbx
	cmpq	%rsi, %r8
	je	.L420
	movq	%r8, %r10
	leaq	-16(%rdx,%rdi), %rdi
	salq	$4, %r10
	movdqu	(%rdi), %xmm3
	addq	%rdx, %r10
	movq	(%r10), %r11
	movq	8(%r10), %r9
	movups	%xmm3, (%r10)
	movq	%r11, (%rdi)
	movq	%r9, 8(%rdi)
	movq	8(%r10), %r11
	movq	%r8, 16(%r11)
	movq	%rsi, 16(%r9)
	movq	%rbx, 32(%r12)
	testq	%r8, %r8
	je	.L391
	leaq	-1(%r8), %rdi
	movq	(%r10), %rbp
	shrq	%rdi
	movq	%rdi, %rsi
	salq	$4, %rsi
	addq	%rdx, %rsi
	cmpq	%rbp, (%rsi)
	jg	.L392
.L391:
	movq	%rbx, %rsi
	leaq	1(%r8,%r8), %r9
	subq	%rdx, %rsi
	sarq	$4, %rsi
	cmpq	%rsi, %r9
	jnb	.L389
	movq	(%r10), %rdi
	jmp	.L394
	.p2align 4,,10
	.p2align 3
.L421:
	leaq	16(%rdx,%r14), %r14
	movq	(%r14), %r15
	cmpq	%r15, %rbp
	jl	.L402
	movq	%r8, %r9
	movq	%r15, %rbp
	movq	%r14, %r11
	salq	$4, %r9
	addq	%rdx, %r9
	cmpq	%rbp, %rdi
	jl	.L389
.L422:
	movq	8(%r9), %rbp
	movdqu	(%r11), %xmm1
	movups	%xmm1, (%r9)
	movq	%rdi, (%r11)
	movq	%rbp, 8(%r11)
	movq	8(%r9), %r9
	movq	%r8, 16(%r9)
	leaq	1(%r10,%r10), %r9
	movq	%r10, 16(%rbp)
	cmpq	%rsi, %r9
	jnb	.L389
	movq	%r10, %r8
.L394:
	movq	%r9, %r14
	leaq	1(%r9), %r10
	salq	$4, %r14
	leaq	(%rdx,%r14), %r11
	movq	(%r11), %rbp
	cmpq	%rsi, %r10
	jne	.L421
.L402:
	movq	%r9, %r10
	movq	%r8, %r9
	salq	$4, %r9
	addq	%rdx, %r9
	cmpq	%rbp, %rdi
	jge	.L422
	.p2align 4,,10
	.p2align 3
.L389:
	movq	24(%rcx), %r8
	cmpq	16(%r12), %rcx
	je	.L423
.L396:
	movq	32(%rcx), %rsi
	testq	%rsi, %rsi
	je	.L397
	movq	%r8, 24(%rsi)
	movq	24(%rcx), %r8
.L397:
	testq	%r8, %r8
	je	.L398
	movq	%rsi, 32(%r8)
	movups	%xmm0, 24(%rcx)
	cmpq	%rdx, %rbx
	jne	.L400
.L382:
	addq	$8, %rsp
	.cfi_remember_state
	.cfi_def_cfa_offset 56
	popq	%rbx
	.cfi_def_cfa_offset 48
	popq	%rbp
	.cfi_def_cfa_offset 40
	popq	%r12
	.cfi_def_cfa_offset 32
	popq	%r13
	.cfi_def_cfa_offset 24
	popq	%r14
	.cfi_def_cfa_offset 16
	popq	%r15
	.cfi_def_cfa_offset 8
	ret
	.p2align 4,,10
	.p2align 3
.L424:
	.cfi_restore_state
	movq	8(%r10), %r11
	movq	%rdi, %r8
	movq	%r9, %rdi
.L392:
	movdqu	(%rsi), %xmm2
	movups	%xmm2, (%r10)
	movq	%rbp, (%rsi)
	movq	%r11, 8(%rsi)
	movq	8(%r10), %rsi
	movq	%r8, 16(%rsi)
	movq	%rdi, 16(%r11)
	testq	%rdi, %rdi
	je	.L389
	leaq	-1(%rdi), %r9
	movq	%rdi, %r10
	shrq	%r9
	salq	$4, %r10
	movq	%r9, %rsi
	addq	%rdx, %r10
	salq	$4, %rsi
	movq	(%r10), %rbp
	addq	%rdx, %rsi
	cmpq	%rbp, (%rsi)
	jg	.L424
	movq	24(%rcx), %r8
	cmpq	16(%r12), %rcx
	jne	.L396
	.p2align 4,,10
	.p2align 3
.L423:
	movq	%r8, 16(%r12)
	jmp	.L396
	.p2align 4,,10
	.p2align 3
.L419:
	movq	32(%r12), %rbx
	jmp	.L389
	.p2align 4,,10
	.p2align 3
.L398:
	movups	%xmm0, 24(%rcx)
	cmpq	%rdx, %rbx
	jne	.L400
	jmp	.L382
	.p2align 4,,10
	.p2align 3
.L386:
	movq	%rsi, 0(%r13)
	jmp	.L387
	.p2align 4,,10
	.p2align 3
.L420:
	movq	%rbx, 32(%r12)
	jmp	.L389
	.p2align 4,,10
	.p2align 3
.L415:
	.cfi_def_cfa_offset 8
	.cfi_restore 3
	.cfi_restore 6
	.cfi_restore 12
	.cfi_restore 13
	.cfi_restore 14
	.cfi_restore 15
	ret
	.cfi_endproc
.LFE9487:
	.size	_ZN4asio6detail11timer_queueINS0_18chrono_time_traitsINSt6chrono3_V212steady_clockENS_11wait_traitsIS5_EEEEE16get_ready_timersERNS0_8op_queueINS0_25task_io_service_operationEEE, .-_ZN4asio6detail11timer_queueINS0_18chrono_time_traitsINSt6chrono3_V212steady_clockENS_11wait_traitsIS5_EEEEE16get_ready_timersERNS0_8op_queueINS0_25task_io_service_operationEEE
	.text
	.align 2
	.p2align 4
	.type	_ZN4asio6detail13epoll_reactor12cancel_timerINS0_18chrono_time_traitsINSt6chrono3_V212steady_clockENS_11wait_traitsIS6_EEEEEEmRNS0_11timer_queueIT_EERNSC_14per_timer_dataEm.constprop.0, @function
_ZN4asio6detail13epoll_reactor12cancel_timerINS0_18chrono_time_traitsINSt6chrono3_V212steady_clockENS_11wait_traitsIS6_EEEEEEmRNS0_11timer_queueIT_EERNSC_14per_timer_dataEm.constprop.0:
.LFB9786:
	.cfi_startproc
	pushq	%r15
	.cfi_def_cfa_offset 16
	.cfi_offset 15, -16
	pushq	%r14
	.cfi_def_cfa_offset 24
	.cfi_offset 14, -24
	leaq	48(%rdi), %r14
	pushq	%r13
	.cfi_def_cfa_offset 32
	.cfi_offset 13, -32
	movq	%rdx, %r13
	pushq	%r12
	.cfi_def_cfa_offset 40
	.cfi_offset 12, -40
	pushq	%rbp
	.cfi_def_cfa_offset 48
	.cfi_offset 6, -48
	pushq	%rbx
	.cfi_def_cfa_offset 56
	.cfi_offset 3, -56
	subq	$72, %rsp
	.cfi_def_cfa_offset 128
	movq	%rdi, 16(%rsp)
	movq	%r14, %rdi
	movq	%rsi, 24(%rsp)
	movq	%fs:40, %rax
	movq	%rax, 56(%rsp)
	xorl	%eax, %eax
	call	pthread_mutex_lock@PLT
	cmpq	$0, 32(%r13)
	je	.L508
.L426:
	xorl	%r12d, %r12d
	movq	%r14, 8(%rsp)
	movq	0(%r13), %r15
	movq	%r13, %r14
	movq	$0, (%rsp)
	xorl	%ebx, %ebx
	movq	%r12, %r13
	jmp	.L435
	.p2align 4,,10
	.p2align 3
.L507:
	movq	_ZZN4asio15system_categoryEvE8instance@GOTPCREL(%rip), %rbp
.L430:
	movq	(%r14), %rax
	movl	$125, 24(%r15)
	movq	%rbp, 32(%r15)
	testq	%rax, %rax
	je	.L432
	movq	(%rax), %rdx
	movq	%rdx, (%r14)
	testq	%rdx, %rdx
	je	.L509
.L433:
	movq	$0, (%rax)
	movq	%rdx, %rax
.L432:
	movq	$0, (%r15)
	testq	%rbx, %rbx
	je	.L462
	addq	$1, %r13
	movq	%r15, (%rbx)
	movq	%r15, %rbx
	cmpq	$-1, %r13
	je	.L510
.L463:
	movq	%rax, %r15
.L435:
	testq	%r15, %r15
	je	.L502
	movq	_ZGVZN4asio15system_categoryEvE8instance@GOTPCREL(%rip), %r12
	movzbl	(%r12), %eax
	testb	%al, %al
	jne	.L507
	movq	%r12, %rdi
	call	__cxa_guard_acquire@PLT
	testl	%eax, %eax
	je	.L507
	movq	_ZZN4asio15system_categoryEvE8instance@GOTPCREL(%rip), %rbp
	movq	_ZN4asio6detail15system_categoryD1Ev@GOTPCREL(%rip), %rdi
	leaq	__dso_handle(%rip), %rdx
	movq	%rbp, %rsi
	call	__cxa_atexit@PLT
	movq	%r12, %rdi
	call	__cxa_guard_release@PLT
	jmp	.L430
	.p2align 4,,10
	.p2align 3
.L509:
	movq	$0, 8(%r14)
	jmp	.L433
	.p2align 4,,10
	.p2align 3
.L462:
	addq	$1, %r13
	movq	%r15, (%rsp)
	movq	%r15, %rbx
	cmpq	$-1, %r13
	jne	.L463
.L510:
	movq	%r13, %r12
	movq	%r14, %r13
	movq	8(%rsp), %r14
	testq	%rax, %rax
	je	.L428
.L436:
	movq	%r14, %rdi
	call	pthread_mutex_unlock@PLT
	movq	16(%rsp), %rax
	cmpq	$0, (%rsp)
	movq	40(%rax), %rbx
	je	.L425
	cmpb	$0, 40(%rbx)
	je	.L450
	data16	leaq	_ZN4asio6detail15keyword_tss_ptrINS0_10call_stackINS0_15task_io_serviceENS0_27task_io_service_thread_infoEE7contextEE6value_E@tlsgd(%rip), %rdi
	.value	0x6666
	rex64
	call	__tls_get_addr@PLT
	movq	(%rax), %rax
	testq	%rax, %rax
	jne	.L453
	jmp	.L450
	.p2align 4,,10
	.p2align 3
.L451:
	movq	16(%rax), %rax
	testq	%rax, %rax
	je	.L450
.L453:
	cmpq	(%rax), %rbx
	jne	.L451
	movq	8(%rax), %rax
	testq	%rax, %rax
	je	.L450
	movq	16(%rax), %rdx
	movq	(%rsp), %rcx
	testq	%rdx, %rdx
	je	.L454
	movq	%rcx, (%rdx)
.L455:
	movq	%r15, 16(%rax)
.L425:
	movq	56(%rsp), %rax
	xorq	%fs:40, %rax
	jne	.L511
	addq	$72, %rsp
	.cfi_remember_state
	.cfi_def_cfa_offset 56
	movq	%r12, %rax
	popq	%rbx
	.cfi_def_cfa_offset 48
	popq	%rbp
	.cfi_def_cfa_offset 40
	popq	%r12
	.cfi_def_cfa_offset 32
	popq	%r13
	.cfi_def_cfa_offset 24
	popq	%r14
	.cfi_def_cfa_offset 16
	popq	%r15
	.cfi_def_cfa_offset 8
	ret
	.p2align 4,,10
	.p2align 3
.L450:
	.cfi_restore_state
	leaq	48(%rbx), %rbp
	movq	%rbp, %rdi
	call	pthread_mutex_lock@PLT
	movq	200(%rbx), %rax
	testq	%rax, %rax
	je	.L456
	movq	(%rsp), %rcx
	movq	%rcx, (%rax)
.L457:
	movq	136(%rbx), %rax
	movq	%r15, 200(%rbx)
	orq	$1, %rax
	movq	%rax, 136(%rbx)
	cmpq	$1, %rax
	je	.L458
	movq	%rbp, %rdi
	call	pthread_mutex_unlock@PLT
	leaq	88(%rbx), %rdi
	call	pthread_cond_signal@PLT
	jmp	.L425
	.p2align 4,,10
	.p2align 3
.L502:
	movq	%r13, %r12
	movq	%r14, %r13
	movq	8(%rsp), %r14
.L428:
	movq	24(%rsp), %rcx
	movq	32(%rcx), %rax
	movq	24(%rcx), %rdx
	cmpq	%rdx, %rax
	je	.L438
	movq	%rax, %r9
	movq	16(%r13), %rdi
	subq	%rdx, %r9
	movq	%r9, %rsi
	sarq	$4, %rsi
	cmpq	%rsi, %rdi
	jnb	.L438
	subq	$1, %rsi
	leaq	-16(%rax), %r10
	cmpq	%rsi, %rdi
	je	.L512
	movq	%rdi, %rax
	leaq	-16(%rdx,%r9), %r9
	salq	$4, %rax
	movdqu	(%r9), %xmm3
	addq	%rdx, %rax
	movq	(%rax), %r11
	movq	8(%rax), %rbp
	movups	%xmm3, (%rax)
	movq	%r11, (%r9)
	movq	%rbp, 8(%r9)
	movq	8(%rax), %r11
	movq	%rdi, 16(%r11)
	movq	%rsi, 16(%rbp)
	movq	%r10, 32(%rcx)
	testq	%rdi, %rdi
	je	.L441
	leaq	-1(%rdi), %r9
	movq	(%rax), %rbp
	shrq	%r9
	movq	%r9, %rsi
	salq	$4, %rsi
	addq	%rdx, %rsi
	cmpq	%rbp, (%rsi)
	jg	.L442
.L441:
	subq	%rdx, %r10
	leaq	1(%rdi,%rdi), %r9
	movq	%r10, %rcx
	sarq	$4, %rcx
	cmpq	%rcx, %r9
	jnb	.L438
	movq	(%rax), %r15
	jmp	.L444
	.p2align 4,,10
	.p2align 3
.L513:
	leaq	16(%rdx,%rax), %rax
	movq	(%rax), %r11
	cmpq	%r10, %r11
	jg	.L465
	movq	%r11, %r10
	movq	%rax, %r8
.L443:
	movq	%rdi, %rax
	salq	$4, %rax
	addq	%rdx, %rax
	cmpq	%r10, %r15
	jl	.L438
	movq	8(%rax), %r9
	movdqu	(%r8), %xmm1
	movups	%xmm1, (%rax)
	movq	%r9, 8(%r8)
	movq	%r15, (%r8)
	movq	8(%rax), %rax
	movq	%rdi, 16(%rax)
	movq	%rsi, 16(%r9)
	leaq	1(%rsi,%rsi), %r9
	cmpq	%rcx, %r9
	jnb	.L438
	movq	%rsi, %rdi
.L444:
	movq	%r9, %rax
	leaq	1(%r9), %rsi
	salq	$4, %rax
	leaq	(%rdx,%rax), %r8
	movq	(%r8), %r10
	cmpq	%rcx, %rsi
	jne	.L513
.L465:
	movq	%r9, %rsi
	jmp	.L443
	.p2align 4,,10
	.p2align 3
.L458:
	cmpb	$0, 176(%rbx)
	jne	.L460
	movq	144(%rbx), %rax
	testq	%rax, %rax
	je	.L460
	leaq	88(%rax), %rdx
	movb	$1, 176(%rbx)
	movl	96(%rax), %edi
	leaq	44(%rsp), %rcx
	movq	%rdx, 48(%rsp)
	movl	88(%rax), %edx
	movl	$3, %esi
	movl	$-2147483639, 44(%rsp)
	call	epoll_ctl@PLT
.L460:
	movq	%rbp, %rdi
	call	pthread_mutex_unlock@PLT
	jmp	.L425
	.p2align 4,,10
	.p2align 3
.L508:
	movq	24(%rsp), %rax
	cmpq	16(%rax), %r13
	je	.L426
	movq	%r14, %rdi
	xorl	%r12d, %r12d
	call	pthread_mutex_unlock@PLT
	jmp	.L425
	.p2align 4,,10
	.p2align 3
.L454:
	movq	%rcx, 8(%rax)
	jmp	.L455
	.p2align 4,,10
	.p2align 3
.L512:
	movq	%r10, 32(%rcx)
	.p2align 4,,10
	.p2align 3
.L438:
	movq	24(%rsp), %rcx
	movq	24(%r13), %rax
	cmpq	16(%rcx), %r13
	je	.L514
.L446:
	movq	32(%r13), %rdx
	testq	%rdx, %rdx
	je	.L447
	movq	%rax, 24(%rdx)
	movq	24(%r13), %rax
.L447:
	testq	%rax, %rax
	je	.L448
	movq	%rdx, 32(%rax)
.L448:
	pxor	%xmm0, %xmm0
	movq	%rbx, %r15
	movups	%xmm0, 24(%r13)
	jmp	.L436
	.p2align 4,,10
	.p2align 3
.L456:
	movq	(%rsp), %rax
	movq	%rax, 192(%rbx)
	jmp	.L457
	.p2align 4,,10
	.p2align 3
.L515:
	movq	8(%rax), %r11
	movq	%r9, %rdi
	movq	%rcx, %r9
.L442:
	movdqu	(%rsi), %xmm2
	movups	%xmm2, (%rax)
	movq	%rbp, (%rsi)
	movq	%r11, 8(%rsi)
	movq	8(%rax), %rax
	movq	%rdi, 16(%rax)
	movq	%r9, 16(%r11)
	testq	%r9, %r9
	je	.L438
	leaq	-1(%r9), %rcx
	movq	%r9, %rax
	shrq	%rcx
	salq	$4, %rax
	movq	%rcx, %rsi
	addq	%rdx, %rax
	salq	$4, %rsi
	movq	(%rax), %rbp
	addq	%rdx, %rsi
	cmpq	%rbp, (%rsi)
	jg	.L515
	jmp	.L438
	.p2align 4,,10
	.p2align 3
.L514:
	movq	%rax, 16(%rcx)
	jmp	.L446
.L511:
	call	__stack_chk_fail@PLT
	.cfi_endproc
.LFE9786:
	.size	_ZN4asio6detail13epoll_reactor12cancel_timerINS0_18chrono_time_traitsINSt6chrono3_V212steady_clockENS_11wait_traitsIS6_EEEEEEmRNS0_11timer_queueIT_EERNSC_14per_timer_dataEm.constprop.0, .-_ZN4asio6detail13epoll_reactor12cancel_timerINS0_18chrono_time_traitsINSt6chrono3_V212steady_clockENS_11wait_traitsIS6_EEEEEEmRNS0_11timer_queueIT_EERNSC_14per_timer_dataEm.constprop.0
	.section	.rodata._ZNK4asio6detail15system_category7messageB5cxx11Ei.str1.8,"aMS",@progbits,1
	.align 8
.LC4:
	.string	"basic_string::_M_construct null not valid"
	.section	.text._ZNK4asio6detail15system_category7messageB5cxx11Ei,"axG",@progbits,_ZNK4asio6detail15system_category7messageB5cxx11Ei,comdat
	.align 2
	.p2align 4
	.weak	_ZNK4asio6detail15system_category7messageB5cxx11Ei
	.type	_ZNK4asio6detail15system_category7messageB5cxx11Ei, @function
_ZNK4asio6detail15system_category7messageB5cxx11Ei:
.LFB2671:
	.cfi_startproc
	endbr64
	pushq	%r14
	.cfi_def_cfa_offset 16
	.cfi_offset 14, -16
	pushq	%r13
	.cfi_def_cfa_offset 24
	.cfi_offset 13, -24
	pushq	%r12
	.cfi_def_cfa_offset 32
	.cfi_offset 12, -32
	movq	%rdi, %r12
	pushq	%rbp
	.cfi_def_cfa_offset 40
	.cfi_offset 6, -40
	leaq	16(%rdi), %rbp
	subq	$296, %rsp
	.cfi_def_cfa_offset 336
	movq	%fs:40, %rax
	movq	%rax, 280(%rsp)
	xorl	%eax, %eax
	cmpl	$125, %edx
	je	.L529
	pxor	%xmm0, %xmm0
	movl	%edx, %edi
	leaq	16(%rsp), %rsi
	movl	$256, %edx
	movaps	%xmm0, 16(%rsp)
	movaps	%xmm0, 32(%rsp)
	movaps	%xmm0, 48(%rsp)
	movaps	%xmm0, 64(%rsp)
	movaps	%xmm0, 80(%rsp)
	movaps	%xmm0, 96(%rsp)
	movaps	%xmm0, 112(%rsp)
	movaps	%xmm0, 128(%rsp)
	movaps	%xmm0, 144(%rsp)
	movaps	%xmm0, 160(%rsp)
	movaps	%xmm0, 176(%rsp)
	movaps	%xmm0, 192(%rsp)
	movaps	%xmm0, 208(%rsp)
	movaps	%xmm0, 224(%rsp)
	movaps	%xmm0, 240(%rsp)
	movaps	%xmm0, 256(%rsp)
	call	strerror_r@PLT
	movq	%rbp, (%r12)
	movq	%rax, %r14
	testq	%rax, %rax
	je	.L530
	movq	%rax, %rdi
	call	strlen@PLT
	movq	%rax, 8(%rsp)
	movq	%rax, %r13
	cmpq	$15, %rax
	ja	.L531
	cmpq	$1, %rax
	jne	.L522
	movzbl	(%r14), %edx
	movb	%dl, 16(%r12)
.L523:
	movq	%rax, 8(%r12)
	movb	$0, 0(%rbp,%rax)
.L516:
	movq	280(%rsp), %rax
	xorq	%fs:40, %rax
	jne	.L532
	addq	$296, %rsp
	.cfi_remember_state
	.cfi_def_cfa_offset 40
	movq	%r12, %rax
	popq	%rbp
	.cfi_def_cfa_offset 32
	popq	%r12
	.cfi_def_cfa_offset 24
	popq	%r13
	.cfi_def_cfa_offset 16
	popq	%r14
	.cfi_def_cfa_offset 8
	ret
	.p2align 4,,10
	.p2align 3
.L531:
	.cfi_restore_state
	leaq	8(%rsp), %rsi
	xorl	%edx, %edx
	movq	%r12, %rdi
	call	_ZNSt7__cxx1112basic_stringIcSt11char_traitsIcESaIcEE9_M_createERmm@PLT
	movq	%rax, (%r12)
	movq	%rax, %rbp
	movq	8(%rsp), %rax
	movq	%rax, 16(%r12)
.L521:
	movq	%rbp, %rdi
	movq	%r13, %rdx
	movq	%r14, %rsi
	call	memcpy@PLT
	movq	8(%rsp), %rax
	movq	(%r12), %rbp
	jmp	.L523
	.p2align 4,,10
	.p2align 3
.L529:
	movq	%rbp, (%rdi)
	xorl	%edx, %edx
	leaq	8(%rsp), %rsi
	movq	$18, 8(%rsp)
	call	_ZNSt7__cxx1112basic_stringIcSt11char_traitsIcESaIcEE9_M_createERmm@PLT
	movq	8(%rsp), %rdx
	movdqa	.LC5(%rip), %xmm0
	movq	%rax, (%r12)
	movq	%rdx, 16(%r12)
	movl	$11876, %edx
	movw	%dx, 16(%rax)
	movups	%xmm0, (%rax)
	movq	8(%rsp), %rax
	movq	(%r12), %rdx
	movq	%rax, 8(%r12)
	movb	$0, (%rdx,%rax)
	jmp	.L516
	.p2align 4,,10
	.p2align 3
.L522:
	testq	%rax, %rax
	je	.L523
	jmp	.L521
	.p2align 4,,10
	.p2align 3
.L530:
	leaq	.LC4(%rip), %rdi
	call	_ZSt19__throw_logic_errorPKc@PLT
.L532:
	call	__stack_chk_fail@PLT
	.cfi_endproc
.LFE2671:
	.size	_ZNK4asio6detail15system_category7messageB5cxx11Ei, .-_ZNK4asio6detail15system_category7messageB5cxx11Ei
	.section	.text._ZNK4asio5error6detail17addrinfo_category7messageB5cxx11Ei,"axG",@progbits,_ZNK4asio5error6detail17addrinfo_category7messageB5cxx11Ei,comdat
	.align 2
	.p2align 4
	.weak	_ZNK4asio5error6detail17addrinfo_category7messageB5cxx11Ei
	.type	_ZNK4asio5error6detail17addrinfo_category7messageB5cxx11Ei, @function
_ZNK4asio5error6detail17addrinfo_category7messageB5cxx11Ei:
.LFB2717:
	.cfi_startproc
	endbr64
	pushq	%r12
	.cfi_def_cfa_offset 16
	.cfi_offset 12, -16
	movq	%rdi, %r12
	subq	$16, %rsp
	.cfi_def_cfa_offset 32
	movq	%fs:40, %rax
	movq	%rax, 8(%rsp)
	xorl	%eax, %eax
	leaq	16(%rdi), %rax
	movq	%rax, (%rdi)
	cmpl	$-8, %edx
	je	.L539
	cmpl	$-7, %edx
	je	.L540
	xorl	%edx, %edx
	movq	%rsp, %rsi
	movq	$19, (%rsp)
	call	_ZNSt7__cxx1112basic_stringIcSt11char_traitsIcESaIcEE9_M_createERmm@PLT
	movq	(%rsp), %rdx
	movdqa	.LC8(%rip), %xmm0
	movq	%rax, (%r12)
	movq	%rdx, 16(%r12)
	movl	$28530, %edx
	movw	%dx, 16(%rax)
	movb	$114, 18(%rax)
	movups	%xmm0, (%rax)
	movq	(%rsp), %rax
	movq	(%r12), %rdx
	movq	%rax, 8(%r12)
	movb	$0, (%rdx,%rax)
.L533:
	movq	8(%rsp), %rax
	xorq	%fs:40, %rax
	jne	.L541
	addq	$16, %rsp
	.cfi_remember_state
	.cfi_def_cfa_offset 16
	movq	%r12, %rax
	popq	%r12
	.cfi_def_cfa_offset 8
	ret
	.p2align 4,,10
	.p2align 3
.L540:
	.cfi_restore_state
	xorl	%edx, %edx
	movq	%rsp, %rsi
	movq	$25, (%rsp)
	call	_ZNSt7__cxx1112basic_stringIcSt11char_traitsIcESaIcEE9_M_createERmm@PLT
	movq	(%rsp), %rdx
	movdqa	.LC7(%rip), %xmm0
	movabsq	$7310593918082512243, %rcx
	movq	%rax, (%r12)
	movq	%rdx, 16(%r12)
	movq	%rcx, 16(%rax)
	movb	$100, 24(%rax)
	movups	%xmm0, (%rax)
	movq	(%rsp), %rax
	movq	(%r12), %rdx
	movq	%rax, 8(%r12)
	movb	$0, (%rdx,%rax)
	jmp	.L533
	.p2align 4,,10
	.p2align 3
.L539:
	xorl	%edx, %edx
	movq	%rsp, %rsi
	movq	$17, (%rsp)
	call	_ZNSt7__cxx1112basic_stringIcSt11char_traitsIcESaIcEE9_M_createERmm@PLT
	movq	(%rsp), %rdx
	movdqa	.LC6(%rip), %xmm0
	movq	%rax, (%r12)
	movq	%rdx, 16(%r12)
	movb	$100, 16(%rax)
	movups	%xmm0, (%rax)
	movq	(%rsp), %rax
	movq	(%r12), %rdx
	movq	%rax, 8(%r12)
	movb	$0, (%rdx,%rax)
	jmp	.L533
.L541:
	call	__stack_chk_fail@PLT
	.cfi_endproc
.LFE2717:
	.size	_ZNK4asio5error6detail17addrinfo_category7messageB5cxx11Ei, .-_ZNK4asio5error6detail17addrinfo_category7messageB5cxx11Ei
	.section	.text._ZNK4asio5error6detail13misc_category7messageB5cxx11Ei,"axG",@progbits,_ZNK4asio5error6detail13misc_category7messageB5cxx11Ei,comdat
	.align 2
	.p2align 4
	.weak	_ZNK4asio5error6detail13misc_category7messageB5cxx11Ei
	.type	_ZNK4asio5error6detail13misc_category7messageB5cxx11Ei, @function
_ZNK4asio5error6detail13misc_category7messageB5cxx11Ei:
.LFB2723:
	.cfi_startproc
	endbr64
	pushq	%r12
	.cfi_def_cfa_offset 16
	.cfi_offset 12, -16
	movq	%rdi, %r12
	subq	$16, %rsp
	.cfi_def_cfa_offset 32
	movq	%fs:40, %rax
	movq	%rax, 8(%rsp)
	xorl	%eax, %eax
	leaq	16(%rdi), %rax
	movq	%rax, (%rdi)
	cmpl	$1, %edx
	je	.L550
	cmpl	$2, %edx
	je	.L551
	cmpl	$3, %edx
	je	.L552
	cmpl	$4, %edx
	je	.L553
	movabsq	$8316298233121436513, %rcx
	movl	$28530, %edx
	movq	%rcx, 16(%rdi)
	movl	$1919230051, 8(%rax)
	movw	%dx, 12(%rax)
	movb	$114, 14(%rax)
	movq	$15, 8(%rdi)
	movb	$0, 31(%rdi)
.L542:
	movq	8(%rsp), %rax
	xorq	%fs:40, %rax
	jne	.L554
	addq	$16, %rsp
	.cfi_remember_state
	.cfi_def_cfa_offset 16
	movq	%r12, %rax
	popq	%r12
	.cfi_def_cfa_offset 8
	ret
	.p2align 4,,10
	.p2align 3
.L550:
	.cfi_restore_state
	movabsq	$2340011850872286273, %rcx
	movq	%rcx, 16(%rdi)
	movl	$1852141679, 8(%rax)
	movq	$12, 8(%rdi)
	movb	$0, 28(%rdi)
	jmp	.L542
	.p2align 4,,10
	.p2align 3
.L553:
	movq	%rsp, %rsi
	xorl	%edx, %edx
	movq	$57, (%rsp)
	call	_ZNSt7__cxx1112basic_stringIcSt11char_traitsIcESaIcEE9_M_createERmm@PLT
	movq	(%rsp), %rdx
	movdqa	.LC10(%rip), %xmm0
	movabsq	$7310291504967217959, %rsi
	movq	%rax, (%r12)
	movq	%rdx, 16(%r12)
	movups	%xmm0, (%rax)
	movdqa	.LC11(%rip), %xmm0
	movq	%rsi, 48(%rax)
	movups	%xmm0, 16(%rax)
	movdqa	.LC12(%rip), %xmm0
	movb	$116, 56(%rax)
	movups	%xmm0, 32(%rax)
	movq	(%rsp), %rax
	movq	(%r12), %rdx
	movq	%rax, 8(%r12)
	movb	$0, (%rdx,%rax)
	jmp	.L542
	.p2align 4,,10
	.p2align 3
.L551:
	movabsq	$7358994418594246213, %rcx
	movq	%rcx, 16(%rdi)
	movl	$27753, %ecx
	movw	%cx, 8(%rax)
	movb	$101, 10(%rax)
	movq	$11, 8(%rdi)
	movb	$0, 27(%rdi)
	jmp	.L542
	.p2align 4,,10
	.p2align 3
.L552:
	xorl	%edx, %edx
	movq	%rsp, %rsi
	movq	$17, (%rsp)
	call	_ZNSt7__cxx1112basic_stringIcSt11char_traitsIcESaIcEE9_M_createERmm@PLT
	movq	(%rsp), %rdx
	movdqa	.LC9(%rip), %xmm0
	movq	%rax, (%r12)
	movq	%rdx, 16(%r12)
	movb	$100, 16(%rax)
	movups	%xmm0, (%rax)
	movq	(%rsp), %rax
	movq	(%r12), %rdx
	movq	%rax, 8(%r12)
	movb	$0, (%rdx,%rax)
	jmp	.L542
.L554:
	call	__stack_chk_fail@PLT
	.cfi_endproc
.LFE2723:
	.size	_ZNK4asio5error6detail13misc_category7messageB5cxx11Ei, .-_ZNK4asio5error6detail13misc_category7messageB5cxx11Ei
	.section	.text._ZNK4asio5error6detail14netdb_category7messageB5cxx11Ei,"axG",@progbits,_ZNK4asio5error6detail14netdb_category7messageB5cxx11Ei,comdat
	.align 2
	.p2align 4
	.weak	_ZNK4asio5error6detail14netdb_category7messageB5cxx11Ei
	.type	_ZNK4asio5error6detail14netdb_category7messageB5cxx11Ei, @function
_ZNK4asio5error6detail14netdb_category7messageB5cxx11Ei:
.LFB2711:
	.cfi_startproc
	endbr64
	pushq	%r12
	.cfi_def_cfa_offset 16
	.cfi_offset 12, -16
	movq	%rdi, %r12
	subq	$16, %rsp
	.cfi_def_cfa_offset 32
	movq	%fs:40, %rax
	movq	%rax, 8(%rsp)
	xorl	%eax, %eax
	leaq	16(%rdi), %rax
	movq	%rax, (%rdi)
	cmpl	$1, %edx
	je	.L563
	cmpl	$2, %edx
	je	.L564
	cmpl	$4, %edx
	je	.L565
	cmpl	$3, %edx
	je	.L566
	xorl	%edx, %edx
	movq	%rsp, %rsi
	movq	$16, (%rsp)
	call	_ZNSt7__cxx1112basic_stringIcSt11char_traitsIcESaIcEE9_M_createERmm@PLT
	movq	(%rsp), %rdx
	movdqa	.LC22(%rip), %xmm0
	movq	%rax, (%r12)
	movq	%rdx, 16(%r12)
	movups	%xmm0, (%rax)
	movq	(%rsp), %rax
	movq	(%r12), %rdx
	movq	%rax, 8(%r12)
	movb	$0, (%rdx,%rax)
.L555:
	movq	8(%rsp), %rax
	xorq	%fs:40, %rax
	jne	.L567
	addq	$16, %rsp
	.cfi_remember_state
	.cfi_def_cfa_offset 16
	movq	%r12, %rax
	popq	%r12
	.cfi_def_cfa_offset 8
	ret
	.p2align 4,,10
	.p2align 3
.L563:
	.cfi_restore_state
	movq	%rsp, %rsi
	xorl	%edx, %edx
	movq	$30, (%rsp)
	call	_ZNSt7__cxx1112basic_stringIcSt11char_traitsIcESaIcEE9_M_createERmm@PLT
	movq	(%rsp), %rdx
	movl	$10597, %esi
	movdqa	.LC13(%rip), %xmm0
	movabsq	$8388361603773658465, %rcx
	movq	%rax, (%r12)
	movq	%rdx, 16(%r12)
	movq	%rcx, 16(%rax)
	movl	$1986622561, 24(%rax)
	movw	%si, 28(%rax)
	movups	%xmm0, (%rax)
	movq	(%rsp), %rax
	movq	(%r12), %rdx
	movq	%rax, 8(%r12)
	movb	$0, (%rdx,%rax)
	jmp	.L555
	.p2align 4,,10
	.p2align 3
.L566:
	xorl	%edx, %edx
	movq	%rsp, %rsi
	movq	$55, (%rsp)
	call	_ZNSt7__cxx1112basic_stringIcSt11char_traitsIcESaIcEE9_M_createERmm@PLT
	movq	(%rsp), %rdx
	movdqa	.LC19(%rip), %xmm0
	movq	%rax, (%r12)
	movq	%rdx, 16(%r12)
	movl	$30059, %edx
	movups	%xmm0, (%rax)
	movdqa	.LC20(%rip), %xmm0
	movl	$1869573152, 48(%rax)
	movups	%xmm0, 16(%rax)
	movdqa	.LC21(%rip), %xmm0
	movw	%dx, 52(%rax)
	movb	$112, 54(%rax)
	movups	%xmm0, 32(%rax)
	movq	(%rsp), %rax
	movq	(%r12), %rdx
	movq	%rax, 8(%r12)
	movb	$0, (%rdx,%rax)
	jmp	.L555
	.p2align 4,,10
	.p2align 3
.L564:
	xorl	%edx, %edx
	movq	%rsp, %rsi
	movq	$51, (%rsp)
	call	_ZNSt7__cxx1112basic_stringIcSt11char_traitsIcESaIcEE9_M_createERmm@PLT
	movq	(%rsp), %rdx
	movl	$25972, %ecx
	movdqa	.LC13(%rip), %xmm0
	movq	%rax, (%r12)
	movq	%rdx, 16(%r12)
	movups	%xmm0, (%rax)
	movdqa	.LC14(%rip), %xmm0
	movw	%cx, 48(%rax)
	movups	%xmm0, 16(%rax)
	movdqa	.LC15(%rip), %xmm0
	movb	$114, 50(%rax)
	movups	%xmm0, 32(%rax)
	movq	(%rsp), %rax
	movq	(%r12), %rdx
	movq	%rax, 8(%r12)
	movb	$0, (%rdx,%rax)
	jmp	.L555
	.p2align 4,,10
	.p2align 3
.L565:
	xorl	%edx, %edx
	movq	%rsp, %rsi
	movq	$56, (%rsp)
	call	_ZNSt7__cxx1112basic_stringIcSt11char_traitsIcESaIcEE9_M_createERmm@PLT
	movq	(%rsp), %rdx
	movdqa	.LC16(%rip), %xmm0
	movabsq	$7022344801645520244, %rcx
	movq	%rax, (%r12)
	movq	%rdx, 16(%r12)
	movups	%xmm0, (%rax)
	movdqa	.LC17(%rip), %xmm0
	movq	%rcx, 48(%rax)
	movups	%xmm0, 16(%rax)
	movdqa	.LC18(%rip), %xmm0
	movups	%xmm0, 32(%rax)
	movq	(%rsp), %rax
	movq	(%r12), %rdx
	movq	%rax, 8(%r12)
	movb	$0, (%rdx,%rax)
	jmp	.L555
.L567:
	call	__stack_chk_fail@PLT
	.cfi_endproc
.LFE2711:
	.size	_ZNK4asio5error6detail14netdb_category7messageB5cxx11Ei, .-_ZNK4asio5error6detail14netdb_category7messageB5cxx11Ei
	.section	.text._ZN7openpal6LoggerD2Ev,"axG",@progbits,_ZN7openpal6LoggerD5Ev,comdat
	.align 2
	.p2align 4
	.weak	_ZN7openpal6LoggerD2Ev
	.type	_ZN7openpal6LoggerD2Ev, @function
_ZN7openpal6LoggerD2Ev:
.LFB2005:
	.cfi_startproc
	endbr64
	pushq	%r12
	.cfi_def_cfa_offset 16
	.cfi_offset 12, -16
	pushq	%rbp
	.cfi_def_cfa_offset 24
	.cfi_offset 6, -24
	pushq	%rbx
	.cfi_def_cfa_offset 32
	.cfi_offset 3, -32
	movq	24(%rdi), %rbp
	movq	%rdi, %rbx
	testq	%rbp, %rbp
	je	.L570
	movq	_ZL28__gthrw___pthread_key_createPjPFvPvE@GOTPCREL(%rip), %r12
	testq	%r12, %r12
	je	.L571
	movl	$-1, %eax
	lock xaddl	%eax, 8(%rbp)
	cmpl	$1, %eax
	je	.L584
	.p2align 4,,10
	.p2align 3
.L570:
	movq	8(%rbx), %rbp
	testq	%rbp, %rbp
	je	.L568
	movq	_ZL28__gthrw___pthread_key_createPjPFvPvE@GOTPCREL(%rip), %r12
	testq	%r12, %r12
	je	.L578
	movl	$-1, %eax
	lock xaddl	%eax, 8(%rbp)
	cmpl	$1, %eax
	je	.L585
.L568:
	popq	%rbx
	.cfi_remember_state
	.cfi_def_cfa_offset 24
	popq	%rbp
	.cfi_def_cfa_offset 16
	popq	%r12
	.cfi_def_cfa_offset 8
	ret
	.p2align 4,,10
	.p2align 3
.L571:
	.cfi_restore_state
	movl	8(%rbp), %eax
	leal	-1(%rax), %edx
	movl	%edx, 8(%rbp)
	cmpl	$1, %eax
	jne	.L570
.L584:
	movq	0(%rbp), %rax
	movq	%rbp, %rdi
	call	*16(%rax)
	testq	%r12, %r12
	je	.L574
	movl	$-1, %eax
	lock xaddl	%eax, 12(%rbp)
.L575:
	cmpl	$1, %eax
	jne	.L570
	movq	0(%rbp), %rax
	movq	%rbp, %rdi
	call	*24(%rax)
	jmp	.L570
	.p2align 4,,10
	.p2align 3
.L578:
	movl	8(%rbp), %eax
	leal	-1(%rax), %edx
	movl	%edx, 8(%rbp)
	cmpl	$1, %eax
	jne	.L568
.L585:
	movq	0(%rbp), %rax
	movq	%rbp, %rdi
	call	*16(%rax)
	testq	%r12, %r12
	je	.L581
	movl	$-1, %eax
	lock xaddl	%eax, 12(%rbp)
.L582:
	cmpl	$1, %eax
	jne	.L568
	movq	0(%rbp), %rax
	popq	%rbx
	.cfi_remember_state
	.cfi_def_cfa_offset 24
	movq	%rbp, %rdi
	popq	%rbp
	.cfi_def_cfa_offset 16
	popq	%r12
	.cfi_def_cfa_offset 8
	movq	24(%rax), %rax
	jmp	*%rax
	.p2align 4,,10
	.p2align 3
.L574:
	.cfi_restore_state
	movl	12(%rbp), %eax
	leal	-1(%rax), %edx
	movl	%edx, 12(%rbp)
	jmp	.L575
	.p2align 4,,10
	.p2align 3
.L581:
	movl	12(%rbp), %eax
	leal	-1(%rax), %edx
	movl	%edx, 12(%rbp)
	jmp	.L582
	.cfi_endproc
.LFE2005:
	.size	_ZN7openpal6LoggerD2Ev, .-_ZN7openpal6LoggerD2Ev
	.weak	_ZN7openpal6LoggerD1Ev
	.set	_ZN7openpal6LoggerD1Ev,_ZN7openpal6LoggerD2Ev
	.section	.rodata._ZNSt12system_errorC2ESt10error_codePKc.str1.1,"aMS",@progbits,1
.LC23:
	.string	": "
	.section	.text._ZNSt12system_errorC2ESt10error_codePKc,"axG",@progbits,_ZNSt12system_errorC5ESt10error_codePKc,comdat
	.align 2
	.p2align 4
	.weak	_ZNSt12system_errorC2ESt10error_codePKc
	.type	_ZNSt12system_errorC2ESt10error_codePKc, @function
_ZNSt12system_errorC2ESt10error_codePKc:
.LFB2611:
	.cfi_startproc
	.cfi_personality 0x9b,DW.ref.__gxx_personality_v0
	.cfi_lsda 0x1b,.LLSDA2611
	endbr64
	pushq	%r14
	.cfi_def_cfa_offset 16
	.cfi_offset 14, -16
	movl	%esi, %r8d
	movq	%rcx, %r14
	pushq	%r13
	.cfi_def_cfa_offset 24
	.cfi_offset 13, -24
	movq	%r8, %r13
	pushq	%r12
	.cfi_def_cfa_offset 32
	.cfi_offset 12, -32
	pushq	%rbp
	.cfi_def_cfa_offset 40
	.cfi_offset 6, -40
	movq	%rdx, %rbp
	pushq	%rbx
	.cfi_def_cfa_offset 48
	.cfi_offset 3, -48
	movq	%rdi, %rbx
	subq	$112, %rsp
	.cfi_def_cfa_offset 160
	movq	%fs:40, %rax
	movq	%rax, 104(%rsp)
	xorl	%eax, %eax
	movq	(%rdx), %rax
	leaq	64(%rsp), %r12
	movl	%esi, %edx
	movq	%r12, %rdi
	movq	%rbp, %rsi
.LEHB2:
	call	*32(%rax)
.LEHE2:
	movl	$2, %r8d
	xorl	%edx, %edx
	xorl	%esi, %esi
	leaq	.LC23(%rip), %rcx
	movq	%r12, %rdi
.LEHB3:
	call	_ZNSt7__cxx1112basic_stringIcSt11char_traitsIcESaIcEE10_M_replaceEmmPKcm@PLT
.LEHE3:
	leaq	48(%rsp), %r12
	leaq	16(%rax), %rdx
	movq	%r12, 32(%rsp)
	movq	(%rax), %rcx
	cmpq	%rdx, %rcx
	je	.L606
	movq	%rcx, 32(%rsp)
	movq	16(%rax), %rcx
	movq	%rcx, 48(%rsp)
.L588:
	movq	8(%rax), %rcx
	movb	$0, 16(%rax)
	movq	%r14, %rdi
	movq	%rcx, 40(%rsp)
	movq	%rdx, (%rax)
	movq	$0, 8(%rax)
	call	strlen@PLT
	leaq	32(%rsp), %rdi
	movq	%r14, %rcx
	xorl	%edx, %edx
	movq	%rax, %r8
	xorl	%esi, %esi
.LEHB4:
	call	_ZNSt7__cxx1112basic_stringIcSt11char_traitsIcESaIcEE10_M_replaceEmmPKcm@PLT
.LEHE4:
	leaq	16(%rsp), %r14
	leaq	16(%rax), %rdx
	movq	%r14, (%rsp)
	movq	(%rax), %rcx
	cmpq	%rdx, %rcx
	je	.L607
	movq	%rcx, (%rsp)
	movq	16(%rax), %rcx
	movq	%rcx, 16(%rsp)
.L590:
	movq	8(%rax), %rcx
	movb	$0, 16(%rax)
	movq	%rsp, %rsi
	movq	%rbx, %rdi
	movq	%rcx, 8(%rsp)
	movq	%rdx, (%rax)
	movq	$0, 8(%rax)
.LEHB5:
	call	_ZNSt13runtime_errorC2ERKNSt7__cxx1112basic_stringIcSt11char_traitsIcESaIcEEE@PLT
.LEHE5:
	movq	(%rsp), %rdi
	cmpq	%r14, %rdi
	je	.L591
	call	_ZdlPv@PLT
.L591:
	movq	32(%rsp), %rdi
	cmpq	%r12, %rdi
	je	.L592
	call	_ZdlPv@PLT
.L592:
	movq	64(%rsp), %rdi
	leaq	80(%rsp), %rax
	cmpq	%rax, %rdi
	je	.L593
	call	_ZdlPv@PLT
.L593:
	movq	_ZTVSt12system_error@GOTPCREL(%rip), %rax
	movq	%r13, 16(%rbx)
	movq	%rbp, 24(%rbx)
	addq	$16, %rax
	movq	%rax, (%rbx)
	movq	104(%rsp), %rax
	xorq	%fs:40, %rax
	jne	.L608
	addq	$112, %rsp
	.cfi_remember_state
	.cfi_def_cfa_offset 48
	popq	%rbx
	.cfi_def_cfa_offset 40
	popq	%rbp
	.cfi_def_cfa_offset 32
	popq	%r12
	.cfi_def_cfa_offset 24
	popq	%r13
	.cfi_def_cfa_offset 16
	popq	%r14
	.cfi_def_cfa_offset 8
	ret
	.p2align 4,,10
	.p2align 3
.L606:
	.cfi_restore_state
	movdqu	16(%rax), %xmm0
	movaps	%xmm0, 48(%rsp)
	jmp	.L588
	.p2align 4,,10
	.p2align 3
.L607:
	movdqu	16(%rax), %xmm1
	movaps	%xmm1, 16(%rsp)
	jmp	.L590
.L608:
	call	__stack_chk_fail@PLT
.L603:
	endbr64
	movq	%rax, %rbp
	jmp	.L594
.L601:
	endbr64
	movq	%rax, %rbp
	jmp	.L598
.L602:
	endbr64
	movq	%rax, %rbp
	jmp	.L596
.L594:
	movq	(%rsp), %rdi
	cmpq	%r14, %rdi
	je	.L596
	call	_ZdlPv@PLT
.L596:
	movq	32(%rsp), %rdi
	cmpq	%r12, %rdi
	je	.L598
	call	_ZdlPv@PLT
.L598:
	movq	64(%rsp), %rdi
	leaq	80(%rsp), %rax
	cmpq	%rax, %rdi
	je	.L599
	call	_ZdlPv@PLT
.L599:
	movq	%rbp, %rdi
.LEHB6:
	call	_Unwind_Resume@PLT
.LEHE6:
	.cfi_endproc
.LFE2611:
	.section	.gcc_except_table._ZNSt12system_errorC2ESt10error_codePKc,"aG",@progbits,_ZNSt12system_errorC5ESt10error_codePKc,comdat
.LLSDA2611:
	.byte	0xff
	.byte	0xff
	.byte	0x1
	.uleb128 .LLSDACSE2611-.LLSDACSB2611
.LLSDACSB2611:
	.uleb128 .LEHB2-.LFB2611
	.uleb128 .LEHE2-.LEHB2
	.uleb128 0
	.uleb128 0
	.uleb128 .LEHB3-.LFB2611
	.uleb128 .LEHE3-.LEHB3
	.uleb128 .L601-.LFB2611
	.uleb128 0
	.uleb128 .LEHB4-.LFB2611
	.uleb128 .LEHE4-.LEHB4
	.uleb128 .L602-.LFB2611
	.uleb128 0
	.uleb128 .LEHB5-.LFB2611
	.uleb128 .LEHE5-.LEHB5
	.uleb128 .L603-.LFB2611
	.uleb128 0
	.uleb128 .LEHB6-.LFB2611
	.uleb128 .LEHE6-.LEHB6
	.uleb128 0
	.uleb128 0
.LLSDACSE2611:
	.section	.text._ZNSt12system_errorC2ESt10error_codePKc,"axG",@progbits,_ZNSt12system_errorC5ESt10error_codePKc,comdat
	.size	_ZNSt12system_errorC2ESt10error_codePKc, .-_ZNSt12system_errorC2ESt10error_codePKc
	.weak	_ZNSt12system_errorC1ESt10error_codePKc
	.set	_ZNSt12system_errorC1ESt10error_codePKc,_ZNSt12system_errorC2ESt10error_codePKc
	.section	.text._ZN4asio6detail13epoll_reactor3runEbRNS0_8op_queueINS0_25task_io_service_operationEEE,"axG",@progbits,_ZN4asio6detail13epoll_reactor3runEbRNS0_8op_queueINS0_25task_io_service_operationEEE,comdat
	.align 2
	.p2align 4
	.weak	_ZN4asio6detail13epoll_reactor3runEbRNS0_8op_queueINS0_25task_io_service_operationEEE
	.type	_ZN4asio6detail13epoll_reactor3runEbRNS0_8op_queueINS0_25task_io_service_operationEEE, @function
_ZN4asio6detail13epoll_reactor3runEbRNS0_8op_queueINS0_25task_io_service_operationEEE:
.LFB3402:
	.cfi_startproc
	.cfi_personality 0x9b,DW.ref.__gxx_personality_v0
	.cfi_lsda 0x1b,.LLSDA3402
	endbr64
	pushq	%r15
	.cfi_def_cfa_offset 16
	.cfi_offset 15, -16
	pushq	%r14
	.cfi_def_cfa_offset 24
	.cfi_offset 14, -24
	pushq	%r13
	.cfi_def_cfa_offset 32
	.cfi_offset 13, -32
	pushq	%r12
	.cfi_def_cfa_offset 40
	.cfi_offset 12, -40
	movq	%rdi, %r12
	pushq	%rbp
	.cfi_def_cfa_offset 48
	.cfi_offset 6, -48
	movq	%rdx, %rbp
	pushq	%rbx
	.cfi_def_cfa_offset 56
	.cfi_offset 3, -56
	movl	%esi, %ebx
	subq	$1640, %rsp
	.cfi_def_cfa_offset 1696
	movq	%fs:40, %rax
	movq	%rax, 1624(%rsp)
	xorl	%eax, %eax
	cmpl	$-1, 100(%rdi)
	je	.L610
	movzbl	%sil, %ecx
	negl	%ecx
.L611:
	movl	96(%r12), %edi
	leaq	80(%rsp), %rbx
	movl	$128, %edx
	movq	%rbx, %rsi
.LEHB7:
	call	epoll_wait@PLT
.LEHE7:
	cmpl	$-1, 100(%r12)
	sete	%dil
	testl	%eax, %eax
	jle	.L623
	subl	$1, %eax
	leaq	88(%r12), %rsi
	leaq	100(%r12), %r9
	movq	%rbx, %rdx
	leaq	(%rax,%rax,2), %rax
	movl	$1, %r10d
	leaq	92(%rsp,%rax,4), %rcx
	jmp	.L627
	.p2align 4,,10
	.p2align 3
.L624:
	cmpq	%r9, %rax
	je	.L675
	movl	(%rdx), %r8d
	cmpq	$0, 8(%rbp)
	movq	$0, (%rax)
	movl	%r8d, 16(%rax)
	je	.L626
	movq	8(%rbp), %r8
	movq	%rax, (%r8)
	movq	%rax, 8(%rbp)
.L625:
	addq	$12, %rdx
	cmpq	%rcx, %rdx
	je	.L623
.L627:
	movq	4(%rdx), %rax
	cmpq	%rsi, %rax
	jne	.L624
	cmpl	$-1, 100(%r12)
	cmove	%r10d, %edi
	addq	$12, %rdx
	cmpq	%rcx, %rdx
	jne	.L627
.L623:
	testb	%dil, %dil
	jne	.L713
.L609:
	movq	1624(%rsp), %rax
	xorq	%fs:40, %rax
	jne	.L714
	addq	$1640, %rsp
	.cfi_remember_state
	.cfi_def_cfa_offset 56
	popq	%rbx
	.cfi_def_cfa_offset 48
	popq	%rbp
	.cfi_def_cfa_offset 40
	popq	%r12
	.cfi_def_cfa_offset 32
	popq	%r13
	.cfi_def_cfa_offset 24
	popq	%r14
	.cfi_def_cfa_offset 16
	popq	%r15
	.cfi_def_cfa_offset 8
	ret
	.p2align 4,,10
	.p2align 3
.L675:
	.cfi_restore_state
	movl	$1, %edi
	jmp	.L625
	.p2align 4,,10
	.p2align 3
.L626:
	movq	%rax, %xmm0
	punpcklqdq	%xmm0, %xmm0
	movups	%xmm0, 0(%rbp)
	jmp	.L625
	.p2align 4,,10
	.p2align 3
.L713:
	leaq	48(%r12), %rax
	movq	%rax, %rdi
	movq	%rax, 8(%rsp)
	call	pthread_mutex_lock@PLT
	movq	104(%r12), %rbx
	testq	%rbx, %rbx
	je	.L634
	.p2align 4,,10
	.p2align 3
.L629:
	movq	(%rbx), %rax
	movq	40(%rax), %rax
	cmpq	_ZN4asio6detail11timer_queueINS0_18chrono_time_traitsINSt6chrono3_V212steady_clockENS_11wait_traitsIS5_EEEEE16get_ready_timersERNS0_8op_queueINS0_25task_io_service_operationEEE@GOTPCREL(%rip), %rax
	jne	.L632
	movq	24(%rbx), %rax
	cmpq	%rax, 32(%rbx)
	je	.L635
	call	_ZNSt6chrono3_V212steady_clock3nowEv@PLT
	movq	32(%rbx), %r8
	movq	24(%rbx), %rdx
	movq	%rax, (%rsp)
	cmpq	%rdx, %r8
	je	.L635
	.p2align 4,,10
	.p2align 3
.L651:
	movq	(%rsp), %rax
	cmpq	(%rdx), %rax
	jl	.L635
	movq	8(%rdx), %rax
	movq	(%rax), %rcx
	testq	%rcx, %rcx
	je	.L636
	movq	8(%rbp), %rsi
	testq	%rsi, %rsi
	je	.L637
	movq	%rcx, (%rsi)
.L638:
	movq	8(%rax), %rcx
	pxor	%xmm2, %xmm2
	movq	%rcx, 8(%rbp)
	movups	%xmm2, (%rax)
.L636:
	movq	%r8, %r9
	movq	16(%rax), %rcx
	subq	%rdx, %r9
	movq	%r9, %rsi
	sarq	$4, %rsi
	cmpq	%rsi, %rcx
	jnb	.L715
	subq	$1, %rsi
	subq	$16, %r8
	cmpq	%rsi, %rcx
	je	.L716
	movq	%rcx, %rdi
	leaq	-16(%rdx,%r9), %r9
	salq	$4, %rdi
	movdqu	(%r9), %xmm6
	addq	%rdx, %rdi
	movq	(%rdi), %r11
	movq	8(%rdi), %r10
	movups	%xmm6, (%rdi)
	movq	%r11, (%r9)
	movq	%r10, 8(%r9)
	movq	8(%rdi), %r11
	movq	%rcx, 16(%r11)
	movq	%rsi, 16(%r10)
	movq	%r8, 32(%rbx)
	testq	%rcx, %rcx
	je	.L642
	leaq	-1(%rcx), %r9
	movq	(%rdi), %r13
	shrq	%r9
	movq	%r9, %rsi
	salq	$4, %rsi
	addq	%rdx, %rsi
	cmpq	%r13, (%rsi)
	jg	.L643
.L642:
	movq	%r8, %r11
	leaq	1(%rcx,%rcx), %rsi
	subq	%rdx, %r11
	sarq	$4, %r11
	cmpq	%r11, %rsi
	jnb	.L640
	movq	(%rdi), %r13
	jmp	.L645
	.p2align 4,,10
	.p2align 3
.L717:
	movq	8(%rdi), %r10
	movdqu	(%r9), %xmm1
	movups	%xmm1, (%rdi)
	movq	%r13, (%r9)
	movq	%r10, 8(%r9)
	movq	8(%rdi), %rdi
	movq	%rcx, 16(%rdi)
	leaq	1(%rsi,%rsi), %rdi
	movq	%rsi, 16(%r10)
	cmpq	%r11, %rdi
	jnb	.L640
	movq	%rsi, %rcx
	movq	%rdi, %rsi
.L645:
	movq	%rsi, %rdi
	leaq	1(%rsi), %r14
	salq	$4, %rdi
	leaq	(%rdx,%rdi), %r9
	movq	(%r9), %r10
	cmpq	%r11, %r14
	je	.L644
	leaq	16(%rdx,%rdi), %rdi
	movq	(%rdi), %r15
	cmpq	%r10, %r15
	jg	.L644
	movq	%r15, %r10
	movq	%rdi, %r9
	movq	%r14, %rsi
.L644:
	movq	%rcx, %rdi
	salq	$4, %rdi
	addq	%rdx, %rdi
	cmpq	%r10, %r13
	jge	.L717
	.p2align 4,,10
	.p2align 3
.L640:
	movq	24(%rax), %rcx
	cmpq	16(%rbx), %rax
	je	.L718
.L647:
	movq	32(%rax), %rsi
	testq	%rsi, %rsi
	je	.L648
	movq	%rcx, 24(%rsi)
	movq	24(%rax), %rcx
.L648:
	testq	%rcx, %rcx
	je	.L649
	pxor	%xmm3, %xmm3
	movq	%rsi, 32(%rcx)
	movups	%xmm3, 24(%rax)
	cmpq	%rdx, %r8
	jne	.L651
	.p2align 4,,10
	.p2align 3
.L635:
	movq	8(%rbx), %rbx
	testq	%rbx, %rbx
	jne	.L629
.L634:
	movl	100(%r12), %edi
	cmpl	$-1, %edi
	je	.L631
	movq	104(%r12), %rbx
	pxor	%xmm0, %xmm0
	movaps	%xmm0, 16(%rsp)
	testq	%rbx, %rbx
	je	.L652
	movq	_ZNK4asio6detail11timer_queueINS0_18chrono_time_traitsINSt6chrono3_V212steady_clockENS_11wait_traitsIS5_EEEEE18wait_duration_usecEl@GOTPCREL(%rip), %rbp
	movl	$300000000, %r15d
	movabsq	$2361183241434822607, %r13
	movabsq	$-9223372036854775808, %r14
	jmp	.L662
	.p2align 4,,10
	.p2align 3
.L721:
	testq	%rax, %rax
	js	.L656
.L711:
	subq	%rax, %rdx
	movq	%rdx, %rcx
	testq	%rdx, %rdx
	jle	.L680
	movq	%rdx, %rax
	sarq	$63, %rcx
	imulq	%r13
	sarq	$7, %rdx
	subq	%rcx, %rdx
.L659:
	testq	%rdx, %rdx
	je	.L719
.L658:
	cmpq	%rdx, %r15
	cmovg	%rdx, %r15
.L654:
	movq	8(%rbx), %rbx
	testq	%rbx, %rbx
	je	.L720
.L662:
	movq	(%rbx), %rax
	movq	32(%rax), %rax
	cmpq	%rbp, %rax
	jne	.L653
	movq	24(%rbx), %rax
	cmpq	%rax, 32(%rbx)
	je	.L654
	call	_ZNSt6chrono3_V212steady_clock3nowEv@PLT
	movq	24(%rbx), %rdx
	movq	(%rdx), %rdx
	testq	%rdx, %rdx
	jns	.L721
	testq	%rax, %rax
	js	.L711
.L680:
	movq	8(%rbx), %rbx
	xorl	%r15d, %r15d
	testq	%rbx, %rbx
	jne	.L662
	.p2align 4,,10
	.p2align 3
.L720:
	movq	%r15, %rax
	xorl	%r8d, %r8d
	movl	100(%r12), %edi
	movabsq	$4835703278458516699, %rdx
	imulq	%rdx
	movq	%r15, %rax
	sarq	$63, %rax
	sarq	$18, %rdx
	subq	%rax, %rdx
	testq	%r15, %r15
	movl	$1, %eax
	movq	%rdx, 32(%rsp)
	sete	%r8b
	je	.L664
	imulq	$1000000, %rdx, %rdx
	movq	%r15, %rsi
	subq	%rdx, %rsi
	imulq	$1000, %rsi, %rax
.L664:
	leaq	48(%rsp), %rcx
	leaq	16(%rsp), %rdx
	movl	%r8d, %esi
	movq	%rax, 40(%rsp)
	call	timerfd_settime@PLT
.L631:
	movq	8(%rsp), %rdi
	call	pthread_mutex_unlock@PLT
	jmp	.L609
	.p2align 4,,10
	.p2align 3
.L722:
	movq	8(%rdi), %r11
	movq	%r9, %rcx
	movq	%r10, %r9
.L643:
	movdqu	(%rsi), %xmm4
	movups	%xmm4, (%rdi)
	movq	%r13, (%rsi)
	movq	%r11, 8(%rsi)
	movq	8(%rdi), %rsi
	movq	%rcx, 16(%rsi)
	movq	%r9, 16(%r11)
	testq	%r9, %r9
	je	.L640
	leaq	-1(%r9), %r10
	movq	%r9, %rdi
	shrq	%r10
	salq	$4, %rdi
	movq	%r10, %rsi
	addq	%rdx, %rdi
	salq	$4, %rsi
	movq	(%rdi), %r13
	addq	%rdx, %rsi
	cmpq	%r13, (%rsi)
	jg	.L722
	movq	24(%rax), %rcx
	cmpq	16(%rbx), %rax
	jne	.L647
	.p2align 4,,10
	.p2align 3
.L718:
	movq	%rcx, 16(%rbx)
	jmp	.L647
	.p2align 4,,10
	.p2align 3
.L715:
	movq	32(%rbx), %r8
	jmp	.L640
	.p2align 4,,10
	.p2align 3
.L649:
	pxor	%xmm5, %xmm5
	movups	%xmm5, 24(%rax)
	cmpq	%rdx, %r8
	jne	.L651
	movq	8(%rbx), %rbx
	testq	%rbx, %rbx
	jne	.L629
	jmp	.L634
	.p2align 4,,10
	.p2align 3
.L637:
	movq	%rcx, 0(%rbp)
	jmp	.L638
	.p2align 4,,10
	.p2align 3
.L716:
	movq	%r8, 32(%rbx)
	jmp	.L640
	.p2align 4,,10
	.p2align 3
.L632:
	movq	%rbp, %rsi
	movq	%rbx, %rdi
.LEHB8:
	call	*%rax
	movq	8(%rbx), %rbx
	testq	%rbx, %rbx
	jne	.L629
	jmp	.L634
	.p2align 4,,10
	.p2align 3
.L610:
	leaq	48(%rdi), %r14
	movq	%r14, %rdi
	call	pthread_mutex_lock@PLT
	testb	%bl, %bl
	je	.L668
	movq	104(%r12), %rbx
	testq	%rbx, %rbx
	je	.L669
	movq	_ZNK4asio6detail11timer_queueINS0_18chrono_time_traitsINSt6chrono3_V212steady_clockENS_11wait_traitsIS5_EEEEE18wait_duration_msecEl@GOTPCREL(%rip), %r13
	movl	$300000, %r15d
	jmp	.L622
	.p2align 4,,10
	.p2align 3
.L725:
	testq	%rax, %rax
	js	.L617
.L710:
	subq	%rax, %rdx
	movq	%rdx, %rcx
	testq	%rdx, %rdx
	jle	.L673
	movabsq	$4835703278458516699, %rax
	sarq	$63, %rcx
	imulq	%rdx
	sarq	$18, %rdx
	subq	%rcx, %rdx
.L620:
	testq	%rdx, %rdx
	je	.L723
.L619:
	cmpq	%rdx, %r15
	cmovg	%rdx, %r15
.L615:
	movq	8(%rbx), %rbx
	testq	%rbx, %rbx
	je	.L724
.L622:
	movq	(%rbx), %rax
	movq	24(%rax), %rax
	cmpq	%r13, %rax
	jne	.L614
	movq	24(%rbx), %rax
	cmpq	%rax, 32(%rbx)
	je	.L615
	call	_ZNSt6chrono3_V212steady_clock3nowEv@PLT
	movq	24(%rbx), %rdx
	movq	(%rdx), %rdx
	testq	%rdx, %rdx
	jns	.L725
	testq	%rax, %rax
	js	.L710
.L673:
	movq	8(%rbx), %rbx
	xorl	%r15d, %r15d
	testq	%rbx, %rbx
	jne	.L622
	.p2align 4,,10
	.p2align 3
.L724:
	movl	%r15d, %ecx
	jmp	.L612
.L668:
	xorl	%ecx, %ecx
.L612:
	movq	%r14, %rdi
	movl	%ecx, (%rsp)
	call	pthread_mutex_unlock@PLT
	movl	(%rsp), %ecx
	jmp	.L611
	.p2align 4,,10
	.p2align 3
.L653:
	movq	%r15, %rsi
	movq	%rbx, %rdi
	call	*%rax
.LEHE8:
	movq	%rax, %r15
	jmp	.L654
	.p2align 4,,10
	.p2align 3
.L719:
	movl	$1, %r15d
	jmp	.L654
	.p2align 4,,10
	.p2align 3
.L656:
	cmpq	%r14, %rax
	je	.L678
	movabsq	$9223372036854775807, %rcx
	movq	%rax, %rdi
	negq	%rdi
	subq	%rdx, %rcx
	cmpq	%rcx, %rdi
	jg	.L678
	subq	%rax, %rdx
	shrq	$3, %rdx
	movq	%rdx, %rax
	mulq	%r13
	shrq	$4, %rdx
	jmp	.L659
	.p2align 4,,10
	.p2align 3
.L614:
	movq	%r15, %rsi
	movq	%rbx, %rdi
.LEHB9:
	call	*%rax
.LEHE9:
	movq	%rax, %r15
	jmp	.L615
	.p2align 4,,10
	.p2align 3
.L678:
	movabsq	$9223372036854775, %rdx
	jmp	.L658
	.p2align 4,,10
	.p2align 3
.L723:
	movl	$1, %r15d
	jmp	.L615
	.p2align 4,,10
	.p2align 3
.L617:
	movabsq	$-9223372036854775808, %rcx
	cmpq	%rcx, %rax
	je	.L671
	movq	%rax, %rdi
	subq	$1, %rcx
	negq	%rdi
	subq	%rdx, %rcx
	cmpq	%rcx, %rdi
	jle	.L726
.L671:
	movabsq	$9223372036854, %rdx
	jmp	.L619
.L726:
	subq	%rax, %rdx
	movabsq	$4835703278458516699, %rax
	mulq	%rdx
	shrq	$18, %rdx
	jmp	.L620
.L652:
	movq	$300, 32(%rsp)
	xorl	%r8d, %r8d
	xorl	%eax, %eax
	jmp	.L664
.L669:
	movl	$300000, %ecx
	jmp	.L612
.L714:
	call	__stack_chk_fail@PLT
.L683:
	endbr64
	movq	%rax, %rbp
	jmp	.L665
.L684:
	endbr64
	movq	%rax, %rbp
	jmp	.L666
.L665:
	movq	%r14, %rdi
	call	pthread_mutex_unlock@PLT
	movq	%rbp, %rdi
.LEHB10:
	call	_Unwind_Resume@PLT
.L666:
	movq	8(%rsp), %rdi
	call	pthread_mutex_unlock@PLT
	movq	%rbp, %rdi
	call	_Unwind_Resume@PLT
.LEHE10:
	.cfi_endproc
.LFE3402:
	.section	.gcc_except_table._ZN4asio6detail13epoll_reactor3runEbRNS0_8op_queueINS0_25task_io_service_operationEEE,"aG",@progbits,_ZN4asio6detail13epoll_reactor3runEbRNS0_8op_queueINS0_25task_io_service_operationEEE,comdat
.LLSDA3402:
	.byte	0xff
	.byte	0xff
	.byte	0x1
	.uleb128 .LLSDACSE3402-.LLSDACSB3402
.LLSDACSB3402:
	.uleb128 .LEHB7-.LFB3402
	.uleb128 .LEHE7-.LEHB7
	.uleb128 0
	.uleb128 0
	.uleb128 .LEHB8-.LFB3402
	.uleb128 .LEHE8-.LEHB8
	.uleb128 .L684-.LFB3402
	.uleb128 0
	.uleb128 .LEHB9-.LFB3402
	.uleb128 .LEHE9-.LEHB9
	.uleb128 .L683-.LFB3402
	.uleb128 0
	.uleb128 .LEHB10-.LFB3402
	.uleb128 .LEHE10-.LEHB10
	.uleb128 0
	.uleb128 0
.LLSDACSE3402:
	.section	.text._ZN4asio6detail13epoll_reactor3runEbRNS0_8op_queueINS0_25task_io_service_operationEEE,"axG",@progbits,_ZN4asio6detail13epoll_reactor3runEbRNS0_8op_queueINS0_25task_io_service_operationEEE,comdat
	.size	_ZN4asio6detail13epoll_reactor3runEbRNS0_8op_queueINS0_25task_io_service_operationEEE, .-_ZN4asio6detail13epoll_reactor3runEbRNS0_8op_queueINS0_25task_io_service_operationEEE
	.section	.text._ZN4asio6detail15task_io_service12task_cleanupD2Ev,"axG",@progbits,_ZN4asio6detail15task_io_service12task_cleanupD5Ev,comdat
	.align 2
	.p2align 4
	.weak	_ZN4asio6detail15task_io_service12task_cleanupD2Ev
	.type	_ZN4asio6detail15task_io_service12task_cleanupD2Ev, @function
_ZN4asio6detail15task_io_service12task_cleanupD2Ev:
.LFB3425:
	.cfi_startproc
	endbr64
	pushq	%rbp
	.cfi_def_cfa_offset 16
	.cfi_offset 6, -16
	pushq	%rbx
	.cfi_def_cfa_offset 24
	.cfi_offset 3, -24
	movq	%rdi, %rbx
	subq	$8, %rsp
	.cfi_def_cfa_offset 32
	movq	16(%rdi), %rdx
	movq	24(%rdx), %rax
	testq	%rax, %rax
	jle	.L728
	movq	(%rdi), %rdx
	lock addq	%rax, 184(%rdx)
	movq	16(%rdi), %rdx
.L728:
	movq	8(%rbx), %rbp
	movq	$0, 24(%rdx)
	cmpb	$0, 8(%rbp)
	je	.L739
.L729:
	movq	(%rbx), %rax
	movq	8(%rdx), %rsi
	movb	$1, 176(%rax)
	movq	200(%rax), %rcx
	testq	%rsi, %rsi
	je	.L730
	testq	%rcx, %rcx
	je	.L731
	movq	%rsi, (%rcx)
.L732:
	movq	16(%rdx), %rcx
	pxor	%xmm0, %xmm0
	movq	%rcx, 200(%rax)
	movups	%xmm0, 8(%rdx)
	movq	200(%rax), %rcx
.L730:
	movq	$0, 152(%rax)
	leaq	152(%rax), %rdx
	testq	%rcx, %rcx
	je	.L733
	movq	%rdx, (%rcx)
	movq	%rdx, 200(%rax)
	addq	$8, %rsp
	.cfi_remember_state
	.cfi_def_cfa_offset 24
	popq	%rbx
	.cfi_def_cfa_offset 16
	popq	%rbp
	.cfi_def_cfa_offset 8
	ret
	.p2align 4,,10
	.p2align 3
.L731:
	.cfi_restore_state
	movq	%rsi, 192(%rax)
	jmp	.L732
	.p2align 4,,10
	.p2align 3
.L739:
	movq	0(%rbp), %rdi
	call	pthread_mutex_lock@PLT
	movb	$1, 8(%rbp)
	movq	16(%rbx), %rdx
	jmp	.L729
	.p2align 4,,10
	.p2align 3
.L733:
	movq	%rdx, %xmm0
	punpcklqdq	%xmm0, %xmm0
	movups	%xmm0, 192(%rax)
	addq	$8, %rsp
	.cfi_def_cfa_offset 24
	popq	%rbx
	.cfi_def_cfa_offset 16
	popq	%rbp
	.cfi_def_cfa_offset 8
	ret
	.cfi_endproc
.LFE3425:
	.size	_ZN4asio6detail15task_io_service12task_cleanupD2Ev, .-_ZN4asio6detail15task_io_service12task_cleanupD2Ev
	.weak	_ZN4asio6detail15task_io_service12task_cleanupD1Ev
	.set	_ZN4asio6detail15task_io_service12task_cleanupD1Ev,_ZN4asio6detail15task_io_service12task_cleanupD2Ev
	.section	.text._ZN4asio6detail15task_io_service12work_cleanupD2Ev,"axG",@progbits,_ZN4asio6detail15task_io_service12work_cleanupD5Ev,comdat
	.align 2
	.p2align 4
	.weak	_ZN4asio6detail15task_io_service12work_cleanupD2Ev
	.type	_ZN4asio6detail15task_io_service12work_cleanupD2Ev, @function
_ZN4asio6detail15task_io_service12work_cleanupD2Ev:
.LFB3428:
	.cfi_startproc
	endbr64
	pushq	%r12
	.cfi_def_cfa_offset 16
	.cfi_offset 12, -16
	pushq	%rbp
	.cfi_def_cfa_offset 24
	.cfi_offset 6, -24
	pushq	%rbx
	.cfi_def_cfa_offset 32
	.cfi_offset 3, -32
	movq	%rdi, %rbx
	subq	$32, %rsp
	.cfi_def_cfa_offset 64
	movq	%fs:40, %rax
	movq	%rax, 24(%rsp)
	xorl	%eax, %eax
	movq	16(%rdi), %rax
	movq	24(%rax), %rdx
	cmpq	$1, %rdx
	jg	.L765
	jne	.L766
.L742:
	movq	8(%rax), %rdx
	movq	$0, 24(%rax)
	testq	%rdx, %rdx
	je	.L740
	movq	8(%rbx), %rbp
	cmpb	$0, 8(%rbp)
	je	.L767
.L764:
	movq	(%rbx), %rcx
	movq	200(%rcx), %rsi
	testq	%rsi, %rsi
	je	.L749
	movq	%rdx, (%rsi)
.L750:
	movq	16(%rax), %rdx
	pxor	%xmm0, %xmm0
	movq	%rdx, 200(%rcx)
	movups	%xmm0, 8(%rax)
.L740:
	movq	24(%rsp), %rax
	xorq	%fs:40, %rax
	jne	.L768
	addq	$32, %rsp
	.cfi_remember_state
	.cfi_def_cfa_offset 32
	popq	%rbx
	.cfi_def_cfa_offset 24
	popq	%rbp
	.cfi_def_cfa_offset 16
	popq	%r12
	.cfi_def_cfa_offset 8
	ret
	.p2align 4,,10
	.p2align 3
.L766:
	.cfi_restore_state
	movq	(%rdi), %rbp
	lock subq	$1, 184(%rbp)
	je	.L743
.L763:
	movq	16(%rbx), %rax
	jmp	.L742
	.p2align 4,,10
	.p2align 3
.L767:
	movq	0(%rbp), %rdi
	call	pthread_mutex_lock@PLT
	movq	16(%rbx), %rax
	movb	$1, 8(%rbp)
	movq	8(%rax), %rdx
	testq	%rdx, %rdx
	je	.L740
	jmp	.L764
	.p2align 4,,10
	.p2align 3
.L765:
	movq	(%rdi), %rax
	subq	$1, %rdx
	lock addq	%rdx, 184(%rax)
	movq	16(%rdi), %rax
	jmp	.L742
	.p2align 4,,10
	.p2align 3
.L743:
	leaq	48(%rbp), %r12
	movq	%r12, %rdi
	call	pthread_mutex_lock@PLT
	movb	$1, 208(%rbp)
	leaq	88(%rbp), %rdi
	orq	$1, 136(%rbp)
	call	pthread_cond_broadcast@PLT
	cmpb	$0, 176(%rbp)
	jne	.L744
	movq	144(%rbp), %rax
	testq	%rax, %rax
	je	.L744
	leaq	88(%rax), %rdx
	movb	$1, 176(%rbp)
	movl	96(%rax), %edi
	leaq	12(%rsp), %rcx
	movq	%rdx, 16(%rsp)
	movl	88(%rax), %edx
	movl	$3, %esi
	movl	$-2147483639, 12(%rsp)
	call	epoll_ctl@PLT
.L744:
	movq	%r12, %rdi
	call	pthread_mutex_unlock@PLT
	jmp	.L763
	.p2align 4,,10
	.p2align 3
.L749:
	movq	%rdx, 192(%rcx)
	jmp	.L750
.L768:
	call	__stack_chk_fail@PLT
	.cfi_endproc
.LFE3428:
	.size	_ZN4asio6detail15task_io_service12work_cleanupD2Ev, .-_ZN4asio6detail15task_io_service12work_cleanupD2Ev
	.weak	_ZN4asio6detail15task_io_service12work_cleanupD1Ev
	.set	_ZN4asio6detail15task_io_service12work_cleanupD1Ev,_ZN4asio6detail15task_io_service12work_cleanupD2Ev
	.section	.text._ZN4asio6detail15task_io_service3runERSt10error_code,"axG",@progbits,_ZN4asio6detail15task_io_service3runERSt10error_code,comdat
	.align 2
	.p2align 4
	.weak	_ZN4asio6detail15task_io_service3runERSt10error_code
	.type	_ZN4asio6detail15task_io_service3runERSt10error_code, @function
_ZN4asio6detail15task_io_service3runERSt10error_code:
.LFB3442:
	.cfi_startproc
	.cfi_personality 0x9b,DW.ref.__gxx_personality_v0
	.cfi_lsda 0x1b,.LLSDA3442
	endbr64
	pushq	%r15
	.cfi_def_cfa_offset 16
	.cfi_offset 15, -16
	movq	%rsi, %r15
	pushq	%r14
	.cfi_def_cfa_offset 24
	.cfi_offset 14, -24
	pushq	%r13
	.cfi_def_cfa_offset 32
	.cfi_offset 13, -32
	pushq	%r12
	.cfi_def_cfa_offset 40
	.cfi_offset 12, -40
	pushq	%rbp
	.cfi_def_cfa_offset 48
	.cfi_offset 6, -48
	pushq	%rbx
	.cfi_def_cfa_offset 56
	.cfi_offset 3, -56
	movq	%rdi, %rbx
	leaq	48(%rbx), %rbp
	subq	$184, %rsp
	.cfi_def_cfa_offset 240
	movq	%fs:40, %rax
	movq	%rax, 168(%rsp)
	xorl	%eax, %eax
	call	_ZNSt3_V215system_categoryEv@PLT
	movl	$0, (%r15)
	movq	%rax, 16(%rsp)
	movq	%rax, 8(%r15)
	movq	184(%rbx), %r12
	testq	%r12, %r12
	je	.L879
	pxor	%xmm0, %xmm0
	movq	%rbx, 64(%rsp)
	xorl	%r12d, %r12d
	leaq	88(%rbx), %r13
	leaq	128(%rsp), %r14
	movaps	%xmm0, 128(%rsp)
	movq	$0, 144(%rsp)
	movq	$0, 152(%rsp)
	movq	%r14, 72(%rsp)
	data16	leaq	_ZN4asio6detail15keyword_tss_ptrINS0_10call_stackINS0_15task_io_serviceENS0_27task_io_service_thread_infoEE7contextEE6value_E@tlsgd(%rip), %rdi
	.value	0x6666
	rex64
	call	__tls_get_addr@PLT
	movq	%rbp, %rdi
	movq	%rbp, 48(%rsp)
	movq	(%rax), %rdx
	movq	%rdx, 80(%rsp)
	leaq	64(%rsp), %rdx
	movq	%rdx, (%rax)
	call	pthread_mutex_lock@PLT
	movb	$1, 56(%rsp)
	.p2align 4,,10
	.p2align 3
.L791:
	cmpb	$0, 208(%rbx)
	jne	.L774
.L884:
	movq	192(%rbx), %r8
	testq	%r8, %r8
	je	.L776
	movq	(%r8), %rax
	movq	%rax, 192(%rbx)
	testq	%rax, %rax
	je	.L880
.L777:
	movq	$0, (%r8)
	movq	192(%rbx), %rax
	leaq	152(%rbx), %rcx
	testq	%rax, %rax
	sete	%bpl
	setne	%dl
	cmpq	%rcx, %r8
	jne	.L778
	movq	48(%rsp), %rdi
	movzbl	56(%rsp), %ecx
	movb	%dl, 176(%rbx)
	testq	%rax, %rax
	je	.L779
	cmpb	$0, 40(%rbx)
	je	.L881
.L779:
	testb	%cl, %cl
	jne	.L882
.L782:
	movq	144(%rbx), %rdi
	leaq	48(%rsp), %rax
	movzbl	%bpl, %esi
	leaq	136(%rsp), %rdx
	movq	%rbx, 96(%rsp)
	movq	%rax, 104(%rsp)
	movq	%r14, 112(%rsp)
.LEHB11:
	call	_ZN4asio6detail13epoll_reactor3runEbRNS0_8op_queueINS0_25task_io_service_operationEEE@PLT
.LEHE11:
	movq	112(%rsp), %rdx
	movq	24(%rdx), %rcx
	testq	%rcx, %rcx
	jle	.L784
	movq	96(%rsp), %rax
	lock addq	%rcx, 184(%rax)
	movq	112(%rsp), %rdx
.L784:
	movq	104(%rsp), %rbp
	movq	$0, 24(%rdx)
	cmpb	$0, 8(%rbp)
	je	.L883
.L785:
	movq	96(%rsp), %rax
	movq	8(%rdx), %rsi
	movb	$1, 176(%rax)
	movq	200(%rax), %rcx
	testq	%rsi, %rsi
	je	.L786
	testq	%rcx, %rcx
	je	.L787
	movq	%rsi, (%rcx)
.L788:
	movq	16(%rdx), %rcx
	pxor	%xmm0, %xmm0
	movq	%rcx, 200(%rax)
	movups	%xmm0, 8(%rdx)
	movq	200(%rax), %rcx
.L786:
	movq	$0, 152(%rax)
	leaq	152(%rax), %rdx
	testq	%rcx, %rcx
	je	.L789
	cmpb	$0, 208(%rbx)
	movq	%rdx, (%rcx)
	movq	%rdx, 200(%rax)
	je	.L884
.L774:
	cmpb	$0, 56(%rsp)
	jne	.L885
.L813:
	data16	leaq	_ZN4asio6detail15keyword_tss_ptrINS0_10call_stackINS0_15task_io_serviceENS0_27task_io_service_thread_infoEE7contextEE6value_E@tlsgd(%rip), %rdi
	.value	0x6666
	rex64
	call	__tls_get_addr@PLT
	movq	80(%rsp), %rdx
	leaq	96(%rsp), %rbp
	movq	136(%rsp), %rsi
	movq	%rdx, (%rax)
	testq	%rsi, %rsi
	jne	.L818
	jmp	.L822
	.p2align 4,,10
	.p2align 3
.L821:
	movq	16(%rsp), %rdi
	movq	8(%rsi), %rax
	xorl	%ecx, %ecx
	movq	%rbp, %rdx
	movq	$0, (%rsi)
	movq	%rdi, 104(%rsp)
	xorl	%edi, %edi
	movl	$0, 96(%rsp)
	call	*%rax
	movq	136(%rsp), %rsi
	testq	%rsi, %rsi
	je	.L822
.L818:
	movq	(%rsi), %rax
	movq	%rax, 136(%rsp)
	testq	%rax, %rax
	jne	.L821
	movq	$0, 144(%rsp)
	jmp	.L821
	.p2align 4,,10
	.p2align 3
.L789:
	movq	%rdx, %xmm0
	punpcklqdq	%xmm0, %xmm0
	movups	%xmm0, 192(%rax)
	jmp	.L791
	.p2align 4,,10
	.p2align 3
.L883:
	movq	0(%rbp), %rdi
	call	pthread_mutex_lock@PLT
	movb	$1, 8(%rbp)
	movq	112(%rsp), %rdx
	jmp	.L785
	.p2align 4,,10
	.p2align 3
.L787:
	movq	%rsi, 192(%rax)
	jmp	.L788
	.p2align 4,,10
	.p2align 3
.L882:
	call	pthread_mutex_unlock@PLT
	movb	$0, 56(%rsp)
	jmp	.L782
	.p2align 4,,10
	.p2align 3
.L880:
	movq	$0, 200(%rbx)
	jmp	.L777
	.p2align 4,,10
	.p2align 3
.L881:
	movq	136(%rbx), %rdx
	orq	$1, %rdx
	movq	%rdx, 136(%rbx)
	testb	%cl, %cl
	jne	.L886
.L780:
	cmpq	$1, %rdx
	je	.L782
	movq	%r13, %rdi
	call	pthread_cond_signal@PLT
	jmp	.L782
	.p2align 4,,10
	.p2align 3
.L776:
	movq	136(%rbx), %rax
	andq	$-2, %rax
	.p2align 4,,10
	.p2align 3
.L811:
	addq	$2, %rax
	movq	48(%rsp), %rsi
	movq	%r13, %rdi
	movq	%rax, 136(%rbx)
.LEHB12:
	call	pthread_cond_wait@PLT
.LEHE12:
	movq	136(%rbx), %rax
	subq	$2, %rax
	movq	%rax, 136(%rbx)
	testb	$1, %al
	je	.L811
	jmp	.L791
	.p2align 4,,10
	.p2align 3
.L886:
	movq	%rdx, 8(%rsp)
	call	pthread_mutex_unlock@PLT
	movb	$0, 56(%rsp)
	movq	8(%rsp), %rdx
	jmp	.L780
	.p2align 4,,10
	.p2align 3
.L778:
	movl	16(%r8), %r9d
	testq	%rax, %rax
	je	.L792
	cmpb	$0, 40(%rbx)
	je	.L887
.L792:
	cmpb	$0, 56(%rsp)
	jne	.L888
.L795:
	leaq	48(%rsp), %rax
	movq	%rbx, 96(%rsp)
	movq	%r9, %rcx
	movq	%r15, %rdx
	movq	%rax, 104(%rsp)
	movq	%r8, %rsi
	movq	%rbx, %rdi
	movq	%r14, 112(%rsp)
.LEHB13:
	call	*8(%r8)
.LEHE13:
	movq	112(%rsp), %rax
	movq	24(%rax), %rdx
	cmpq	$1, %rdx
	jg	.L889
	je	.L800
	movq	96(%rsp), %rbp
	lock subq	$1, 184(%rbp)
	je	.L801
.L877:
	movq	112(%rsp), %rax
.L800:
	movq	8(%rax), %rdx
	movq	$0, 24(%rax)
	testq	%rdx, %rdx
	je	.L804
	movq	104(%rsp), %rbp
	movq	96(%rsp), %rcx
	cmpb	$0, 8(%rbp)
	je	.L890
.L829:
	movq	200(%rcx), %rsi
	testq	%rsi, %rsi
	je	.L807
	movq	%rdx, (%rsi)
.L808:
	movq	16(%rax), %rdx
	pxor	%xmm0, %xmm0
	movq	%rdx, 200(%rcx)
	movups	%xmm0, 8(%rax)
.L804:
	xorl	%eax, %eax
	cmpq	$-1, %r12
	setne	%al
	addq	%rax, %r12
	cmpb	$0, 56(%rsp)
	jne	.L791
	movq	48(%rsp), %rdi
	call	pthread_mutex_lock@PLT
	movb	$1, 56(%rsp)
	jmp	.L791
	.p2align 4,,10
	.p2align 3
.L889:
	movq	96(%rsp), %rax
	subq	$1, %rdx
	lock addq	%rdx, 184(%rax)
	movq	112(%rsp), %rax
	jmp	.L800
	.p2align 4,,10
	.p2align 3
.L888:
	movq	48(%rsp), %rdi
	movq	%r9, 24(%rsp)
	movq	%r8, 8(%rsp)
	call	pthread_mutex_unlock@PLT
	movb	$0, 56(%rsp)
	movq	24(%rsp), %r9
	movq	8(%rsp), %r8
	jmp	.L795
	.p2align 4,,10
	.p2align 3
.L822:
	movq	128(%rsp), %rdi
	testq	%rdi, %rdi
	je	.L769
	call	_ZdlPv@PLT
.L769:
	movq	168(%rsp), %rax
	xorq	%fs:40, %rax
	jne	.L891
	addq	$184, %rsp
	.cfi_remember_state
	.cfi_def_cfa_offset 56
	movq	%r12, %rax
	popq	%rbx
	.cfi_def_cfa_offset 48
	popq	%rbp
	.cfi_def_cfa_offset 40
	popq	%r12
	.cfi_def_cfa_offset 32
	popq	%r13
	.cfi_def_cfa_offset 24
	popq	%r14
	.cfi_def_cfa_offset 16
	popq	%r15
	.cfi_def_cfa_offset 8
	ret
	.p2align 4,,10
	.p2align 3
.L890:
	.cfi_restore_state
	movq	0(%rbp), %rdi
	call	pthread_mutex_lock@PLT
	movq	112(%rsp), %rax
	movb	$1, 8(%rbp)
	movq	8(%rax), %rdx
	testq	%rdx, %rdx
	je	.L804
	movq	96(%rsp), %rcx
	jmp	.L829
	.p2align 4,,10
	.p2align 3
.L887:
	movq	136(%rbx), %rax
	orq	$1, %rax
	movq	%rax, 136(%rbx)
	cmpq	$1, %rax
	je	.L793
	cmpb	$0, 56(%rsp)
	jne	.L892
.L794:
	movq	%r13, %rdi
	movq	%r9, 24(%rsp)
	movq	%r8, 8(%rsp)
	call	pthread_cond_signal@PLT
	movq	8(%rsp), %r8
	movq	24(%rsp), %r9
	jmp	.L795
	.p2align 4,,10
	.p2align 3
.L793:
	cmpb	$0, 176(%rbx)
	jne	.L796
	movq	144(%rbx), %rax
	testq	%rax, %rax
	je	.L796
	leaq	88(%rax), %rdx
	leaq	96(%rsp), %rbp
	movl	$3, %esi
	movb	$1, 176(%rbx)
	movl	$-2147483639, 96(%rsp)
	movq	%rbp, %rcx
	movq	%rdx, 100(%rsp)
	movl	88(%rax), %edx
	movl	96(%rax), %edi
	movq	%r9, 24(%rsp)
	movq	%r8, 8(%rsp)
	call	epoll_ctl@PLT
	movq	24(%rsp), %r9
	movq	8(%rsp), %r8
.L796:
	cmpb	$0, 56(%rsp)
	je	.L795
	movq	48(%rsp), %rdi
	movq	%r9, 24(%rsp)
	movq	%r8, 8(%rsp)
	call	pthread_mutex_unlock@PLT
	movb	$0, 56(%rsp)
	movq	8(%rsp), %r8
	movq	24(%rsp), %r9
	jmp	.L795
	.p2align 4,,10
	.p2align 3
.L807:
	movq	%rdx, 192(%rcx)
	jmp	.L808
	.p2align 4,,10
	.p2align 3
.L879:
	movq	%rbp, %rdi
	call	pthread_mutex_lock@PLT
	movb	$1, 208(%rbx)
	leaq	88(%rbx), %rdi
	orq	$1, 136(%rbx)
	call	pthread_cond_broadcast@PLT
	cmpb	$0, 176(%rbx)
	jne	.L771
	movq	144(%rbx), %rax
	testq	%rax, %rax
	je	.L771
	leaq	88(%rax), %rdx
	movb	$1, 176(%rbx)
	leaq	128(%rsp), %rcx
	movl	$3, %esi
	movl	$-2147483639, 128(%rsp)
	movq	%rdx, 132(%rsp)
	movl	88(%rax), %edx
	movl	96(%rax), %edi
	call	epoll_ctl@PLT
.L771:
	movq	%rbp, %rdi
	call	pthread_mutex_unlock@PLT
	jmp	.L769
	.p2align 4,,10
	.p2align 3
.L801:
	leaq	48(%rbp), %r8
	movq	%r8, %rdi
	movq	%r8, 8(%rsp)
	call	pthread_mutex_lock@PLT
	movb	$1, 208(%rbp)
	leaq	88(%rbp), %rdi
	orq	$1, 136(%rbp)
	call	pthread_cond_broadcast@PLT
	cmpb	$0, 176(%rbp)
	movq	8(%rsp), %r8
	jne	.L802
	movq	144(%rbp), %rax
	testq	%rax, %rax
	je	.L802
	leaq	88(%rax), %rdx
	movb	$1, 176(%rbp)
	movl	96(%rax), %edi
	leaq	36(%rsp), %rcx
	movq	%rdx, 40(%rsp)
	movl	88(%rax), %edx
	movl	$3, %esi
	movl	$-2147483639, 36(%rsp)
	call	epoll_ctl@PLT
	movq	8(%rsp), %r8
.L802:
	movq	%r8, %rdi
	call	pthread_mutex_unlock@PLT
	jmp	.L877
	.p2align 4,,10
	.p2align 3
.L885:
	movq	48(%rsp), %rdi
	call	pthread_mutex_unlock@PLT
	jmp	.L813
	.p2align 4,,10
	.p2align 3
.L892:
	movq	48(%rsp), %rdi
	movq	%r9, 24(%rsp)
	movq	%r8, 8(%rsp)
	call	pthread_mutex_unlock@PLT
	movb	$0, 56(%rsp)
	movq	24(%rsp), %r9
	movq	8(%rsp), %r8
	jmp	.L794
.L891:
	call	__stack_chk_fail@PLT
.L833:
	endbr64
	movq	%rax, %rbp
	jmp	.L814
.L832:
	endbr64
	movq	%rax, %rbp
	jmp	.L816
.L831:
	endbr64
	movq	%rax, %rbp
	jmp	.L815
.L814:
	leaq	96(%rsp), %rdi
	call	_ZN4asio6detail15task_io_service12task_cleanupD1Ev@PLT
.L815:
	cmpb	$0, 56(%rsp)
	je	.L824
	movq	48(%rsp), %rdi
	call	pthread_mutex_unlock@PLT
.L824:
	data16	leaq	_ZN4asio6detail15keyword_tss_ptrINS0_10call_stackINS0_15task_io_serviceENS0_27task_io_service_thread_infoEE7contextEE6value_E@tlsgd(%rip), %rdi
	.value	0x6666
	rex64
	call	__tls_get_addr@PLT
	movq	80(%rsp), %rdx
	leaq	96(%rsp), %rbx
	movq	%rdx, (%rax)
.L827:
	movq	136(%rsp), %rsi
	testq	%rsi, %rsi
	jne	.L893
	movq	128(%rsp), %rdi
	testq	%rdi, %rdi
	je	.L828
	call	_ZdlPv@PLT
.L828:
	movq	%rbp, %rdi
.LEHB14:
	call	_Unwind_Resume@PLT
.LEHE14:
.L816:
	leaq	96(%rsp), %rdi
	call	_ZN4asio6detail15task_io_service12work_cleanupD1Ev@PLT
	jmp	.L815
.L893:
	movq	(%rsi), %rax
	movq	%rax, 136(%rsp)
	testq	%rax, %rax
	jne	.L826
	movq	$0, 144(%rsp)
.L826:
	movq	16(%rsp), %rdi
	movq	8(%rsi), %rax
	xorl	%ecx, %ecx
	movq	%rbx, %rdx
	movq	$0, (%rsi)
	movq	%rdi, 104(%rsp)
	xorl	%edi, %edi
	movl	$0, 96(%rsp)
	call	*%rax
	jmp	.L827
	.cfi_endproc
.LFE3442:
	.section	.gcc_except_table._ZN4asio6detail15task_io_service3runERSt10error_code,"aG",@progbits,_ZN4asio6detail15task_io_service3runERSt10error_code,comdat
.LLSDA3442:
	.byte	0xff
	.byte	0xff
	.byte	0x1
	.uleb128 .LLSDACSE3442-.LLSDACSB3442
.LLSDACSB3442:
	.uleb128 .LEHB11-.LFB3442
	.uleb128 .LEHE11-.LEHB11
	.uleb128 .L833-.LFB3442
	.uleb128 0
	.uleb128 .LEHB12-.LFB3442
	.uleb128 .LEHE12-.LEHB12
	.uleb128 .L831-.LFB3442
	.uleb128 0
	.uleb128 .LEHB13-.LFB3442
	.uleb128 .LEHE13-.LEHB13
	.uleb128 .L832-.LFB3442
	.uleb128 0
	.uleb128 .LEHB14-.LFB3442
	.uleb128 .LEHE14-.LEHB14
	.uleb128 0
	.uleb128 0
.LLSDACSE3442:
	.section	.text._ZN4asio6detail15task_io_service3runERSt10error_code,"axG",@progbits,_ZN4asio6detail15task_io_service3runERSt10error_code,comdat
	.size	_ZN4asio6detail15task_io_service3runERSt10error_code, .-_ZN4asio6detail15task_io_service3runERSt10error_code
	.section	.text.unlikely._ZN4asio6detail15throw_exceptionISt12system_errorEEvRKT_,"axG",@progbits,_ZN4asio6detail15throw_exceptionISt12system_errorEEvRKT_,comdat
	.weak	_ZN4asio6detail15throw_exceptionISt12system_errorEEvRKT_
	.type	_ZN4asio6detail15throw_exceptionISt12system_errorEEvRKT_, @function
_ZN4asio6detail15throw_exceptionISt12system_errorEEvRKT_:
.LFB7231:
	.cfi_startproc
	endbr64
	pushq	%rbp
	.cfi_def_cfa_offset 16
	.cfi_offset 6, -16
	pushq	%rbx
	.cfi_def_cfa_offset 24
	.cfi_offset 3, -24
	movq	%rdi, %rbx
	movl	$32, %edi
	pushq	%rax
	.cfi_def_cfa_offset 32
	call	__cxa_allocate_exception@PLT
	movq	%rbx, %rsi
	movq	%rax, %rdi
	movq	%rax, %rbp
	call	_ZNSt13runtime_errorC2ERKS_@PLT
	movq	_ZTVSt12system_error@GOTPCREL(%rip), %rax
	movups	16(%rbx), %xmm0
	movq	%rbp, %rdi
	movq	_ZNSt12system_errorD1Ev@GOTPCREL(%rip), %rdx
	movq	_ZTISt12system_error@GOTPCREL(%rip), %rsi
	addq	$16, %rax
	movups	%xmm0, 16(%rbp)
	movq	%rax, 0(%rbp)
	call	__cxa_throw@PLT
	.cfi_endproc
.LFE7231:
	.size	_ZN4asio6detail15throw_exceptionISt12system_errorEEvRKT_, .-_ZN4asio6detail15throw_exceptionISt12system_errorEEvRKT_
	.section	.rodata.str1.1,"aMS",@progbits,1
.LC24:
	.string	"Starting thread (%d)"
	.section	.rodata.str1.8,"aMS",@progbits,1
	.align 8
.LC25:
	.string	"/home/kimchaer/Desktop/OpenPLC_v3/utils/dnp3_src/cpp/libs/src/asiopal/ThreadPool.cpp(89)"
	.section	.rodata.str1.1
.LC26:
	.string	"Exiting thread (%d)"
	.section	.rodata.str1.8
	.align 8
.LC27:
	.string	"/home/kimchaer/Desktop/OpenPLC_v3/utils/dnp3_src/cpp/libs/src/asiopal/ThreadPool.cpp(93)"
	.section	.text.unlikely,"ax",@progbits
	.align 2
.LCOLDB28:
	.text
.LHOTB28:
	.align 2
	.p2align 4
	.globl	_ZN7asiopal10ThreadPool3RunEi
	.type	_ZN7asiopal10ThreadPool3RunEi, @function
_ZN7asiopal10ThreadPool3RunEi:
.LFB6938:
	.cfi_startproc
	.cfi_personality 0x9b,DW.ref.__gxx_personality_v0
	.cfi_lsda 0x1b,.LLSDA6938
	endbr64
	pushq	%r14
	.cfi_def_cfa_offset 16
	.cfi_offset 14, -16
	pushq	%r13
	.cfi_def_cfa_offset 24
	.cfi_offset 13, -24
	pushq	%r12
	.cfi_def_cfa_offset 32
	.cfi_offset 12, -32
	pushq	%rbp
	.cfi_def_cfa_offset 40
	.cfi_offset 6, -40
	pushq	%rbx
	.cfi_def_cfa_offset 48
	.cfi_offset 3, -48
	subq	$208, %rsp
	.cfi_def_cfa_offset 256
	movq	%fs:40, %rax
	movq	%rax, 200(%rsp)
	xorl	%eax, %eax
	cmpq	$0, 64(%rdi)
	je	.L905
	movq	%rdi, %rbx
	movq	%rsp, %r12
	leaq	48(%rdi), %rdi
	movl	%esi, %r13d
.LEHB15:
	call	*72(%rbx)
	movq	%r12, %rsi
	movq	%rbx, %rdi
	movl	$8, (%rsp)
	call	_ZNK7openpal6Logger9IsEnabledERKNS_10LogFiltersE@PLT
	testb	%al, %al
	jne	.L917
.L898:
	movq	32(%rbx), %rax
	movq	16(%rax), %rbp
	movl	$0, (%rsp)
	call	_ZNSt3_V215system_categoryEv@PLT
	movq	%r12, %rsi
	movq	%rbp, %rdi
	movq	%rax, 8(%rsp)
	call	_ZN4asio6detail15task_io_service3runERSt10error_code@PLT
	movl	(%rsp), %ebp
	testl	%ebp, %ebp
	jne	.L918
	movq	%r12, %rsi
	movq	%rbx, %rdi
	movl	$8, (%rsp)
	call	_ZNK7openpal6Logger9IsEnabledERKNS_10LogFiltersE@PLT
	testb	%al, %al
	jne	.L919
.L904:
	cmpq	$0, 96(%rbx)
	je	.L905
	leaq	80(%rbx), %rdi
	call	*104(%rbx)
	movq	200(%rsp), %rax
	xorq	%fs:40, %rax
	jne	.L920
	addq	$208, %rsp
	.cfi_remember_state
	.cfi_def_cfa_offset 48
	popq	%rbx
	.cfi_def_cfa_offset 40
	popq	%rbp
	.cfi_def_cfa_offset 32
	popq	%r12
	.cfi_def_cfa_offset 24
	popq	%r13
	.cfi_def_cfa_offset 16
	popq	%r14
	.cfi_def_cfa_offset 8
	ret
	.p2align 4,,10
	.p2align 3
.L917:
	.cfi_restore_state
	leaq	80(%rsp), %r14
	movl	%r13d, %r9d
	movl	$120, %ecx
	xorl	%eax, %eax
	movq	%r14, %rdi
	movl	$1, %edx
	movl	$120, %esi
	leaq	.LC24(%rip), %r8
	call	__snprintf_chk@PLT
	movq	%r14, %rcx
	movq	%r12, %rsi
	movq	%rbx, %rdi
	leaq	.LC25(%rip), %rdx
	movl	$8, (%rsp)
	call	_ZN7openpal6Logger3LogERKNS_10LogFiltersEPKcS5_@PLT
	jmp	.L898
	.p2align 4,,10
	.p2align 3
.L919:
	leaq	80(%rsp), %r14
	movl	%r13d, %r9d
	movl	$120, %ecx
	xorl	%eax, %eax
	movq	%r14, %rdi
	movl	$1, %edx
	movl	$120, %esi
	leaq	.LC26(%rip), %r8
	call	__snprintf_chk@PLT
	movq	%r14, %rcx
	movq	%r12, %rsi
	movq	%rbx, %rdi
	leaq	.LC27(%rip), %rdx
	movl	$8, (%rsp)
	call	_ZN7openpal6Logger3LogERKNS_10LogFiltersEPKcS5_@PLT
	jmp	.L904
.L905:
	call	_ZSt25__throw_bad_function_callv@PLT
.L918:
	movq	8(%rsp), %rbx
	leaq	48(%rsp), %r13
	leaq	16(%rsp), %r12
	movl	%ebp, %edx
	movq	%r13, %rdi
	movq	(%rbx), %rax
	movq	%rbx, %rsi
	call	*32(%rax)
.LEHE15:
	movq	%r13, %rsi
	movq	%r12, %rdi
.LEHB16:
	call	_ZNSt13runtime_errorC2ERKNSt7__cxx1112basic_stringIcSt11char_traitsIcESaIcEEE@PLT
.LEHE16:
	movq	48(%rsp), %rdi
	leaq	64(%rsp), %rax
	cmpq	%rax, %rdi
	je	.L900
	call	_ZdlPv@PLT
	jmp	.L900
.L920:
	call	__stack_chk_fail@PLT
.L908:
	endbr64
	movq	%rax, %rbp
	jmp	.L901
	.section	.gcc_except_table,"a",@progbits
.LLSDA6938:
	.byte	0xff
	.byte	0xff
	.byte	0x1
	.uleb128 .LLSDACSE6938-.LLSDACSB6938
.LLSDACSB6938:
	.uleb128 .LEHB15-.LFB6938
	.uleb128 .LEHE15-.LEHB15
	.uleb128 0
	.uleb128 0
	.uleb128 .LEHB16-.LFB6938
	.uleb128 .LEHE16-.LEHB16
	.uleb128 .L908-.LFB6938
	.uleb128 0
.LLSDACSE6938:
	.text
	.cfi_endproc
	.section	.text.unlikely
	.cfi_startproc
	.cfi_personality 0x9b,DW.ref.__gxx_personality_v0
	.cfi_lsda 0x1b,.LLSDAC6938
	.type	_ZN7asiopal10ThreadPool3RunEi.cold, @function
_ZN7asiopal10ThreadPool3RunEi.cold:
.LFSB6938:
.L900:
	.cfi_def_cfa_offset 256
	.cfi_offset 3, -48
	.cfi_offset 6, -40
	.cfi_offset 12, -32
	.cfi_offset 13, -24
	.cfi_offset 14, -16
	movq	_ZTVSt12system_error@GOTPCREL(%rip), %rax
	movq	%r12, %rdi
	movl	%ebp, 32(%rsp)
	movq	%rbx, 40(%rsp)
	addq	$16, %rax
	movq	%rax, 16(%rsp)
.LEHB17:
	call	_ZN4asio6detail15throw_exceptionISt12system_errorEEvRKT_@PLT
.LEHE17:
.L907:
	endbr64
	movq	%r12, %rdi
	movq	%rax, %rbp
	call	_ZNSt12system_errorD1Ev@PLT
.L916:
	movq	%rbp, %rdi
.LEHB18:
	call	_Unwind_Resume@PLT
.LEHE18:
.L901:
	movq	48(%rsp), %rdi
	leaq	64(%rsp), %rax
	cmpq	%rax, %rdi
	je	.L916
	call	_ZdlPv@PLT
	jmp	.L916
	.cfi_endproc
.LFE6938:
	.section	.gcc_except_table
.LLSDAC6938:
	.byte	0xff
	.byte	0xff
	.byte	0x1
	.uleb128 .LLSDACSEC6938-.LLSDACSBC6938
.LLSDACSBC6938:
	.uleb128 .LEHB17-.LCOLDB28
	.uleb128 .LEHE17-.LEHB17
	.uleb128 .L907-.LCOLDB28
	.uleb128 0
	.uleb128 .LEHB18-.LCOLDB28
	.uleb128 .LEHE18-.LEHB18
	.uleb128 0
	.uleb128 0
.LLSDACSEC6938:
	.section	.text.unlikely
	.text
	.size	_ZN7asiopal10ThreadPool3RunEi, .-_ZN7asiopal10ThreadPool3RunEi
	.section	.text.unlikely
	.size	_ZN7asiopal10ThreadPool3RunEi.cold, .-_ZN7asiopal10ThreadPool3RunEi.cold
.LCOLDE28:
	.text
.LHOTE28:
	.align 2
	.p2align 4
	.type	_ZNSt6thread11_State_implINS_8_InvokerISt5tupleIJZN7asiopal10ThreadPoolC4ERKN7openpal6LoggerERKSt10shared_ptrINS3_2IOEEjSt8functionIFvvEESG_EUlvE0_EEEEE6_M_runEv, @function
_ZNSt6thread11_State_implINS_8_InvokerISt5tupleIJZN7asiopal10ThreadPoolC4ERKN7openpal6LoggerERKSt10shared_ptrINS3_2IOEEjSt8functionIFvvEESG_EUlvE0_EEEEE6_M_runEv:
.LFB9481:
	.cfi_startproc
	endbr64
	movl	16(%rdi), %esi
	movq	8(%rdi), %rdi
	jmp	_ZN7asiopal10ThreadPool3RunEi@PLT
	.cfi_endproc
.LFE9481:
	.size	_ZNSt6thread11_State_implINS_8_InvokerISt5tupleIJZN7asiopal10ThreadPoolC4ERKN7openpal6LoggerERKSt10shared_ptrINS3_2IOEEjSt8functionIFvvEESG_EUlvE0_EEEEE6_M_runEv, .-_ZNSt6thread11_State_implINS_8_InvokerISt5tupleIJZN7asiopal10ThreadPoolC4ERKN7openpal6LoggerERKSt10shared_ptrINS3_2IOEEjSt8functionIFvvEESG_EUlvE0_EEEEE6_M_runEv
	.section	.text.unlikely
.LCOLDB29:
	.text
.LHOTB29:
	.p2align 4
	.type	_ZN4asio6detail14do_throw_errorERKSt10error_codePKc.isra.0, @function
_ZN4asio6detail14do_throw_errorERKSt10error_codePKc.isra.0:
.LFB9687:
	.cfi_startproc
	.cfi_personality 0x9b,DW.ref.__gxx_personality_v0
	.cfi_lsda 0x1b,.LLSDA9687
	pushq	%r12
	.cfi_def_cfa_offset 16
	.cfi_offset 12, -16
	movq	%rsi, %r8
	movq	%rdx, %rcx
	movl	%edi, %esi
	pushq	%rbp
	.cfi_def_cfa_offset 24
	.cfi_offset 6, -24
	movq	%r8, %rdx
	subq	$56, %rsp
	.cfi_def_cfa_offset 80
	movq	%fs:40, %rax
	movq	%rax, 40(%rsp)
	xorl	%eax, %eax
	movq	%rsp, %rbp
	movq	%rbp, %rdi
.LEHB19:
	call	_ZNSt12system_errorC1ESt10error_codePKc@PLT
.LEHE19:
	movq	%rbp, %rdi
.LEHB20:
	call	_ZN4asio6detail15throw_exceptionISt12system_errorEEvRKT_@PLT
.LEHE20:
.L925:
	endbr64
	movq	%rax, %r12
	jmp	.L923
	.section	.gcc_except_table
.LLSDA9687:
	.byte	0xff
	.byte	0xff
	.byte	0x1
	.uleb128 .LLSDACSE9687-.LLSDACSB9687
.LLSDACSB9687:
	.uleb128 .LEHB19-.LFB9687
	.uleb128 .LEHE19-.LEHB19
	.uleb128 0
	.uleb128 0
	.uleb128 .LEHB20-.LFB9687
	.uleb128 .LEHE20-.LEHB20
	.uleb128 .L925-.LFB9687
	.uleb128 0
.LLSDACSE9687:
	.text
	.cfi_endproc
	.section	.text.unlikely
	.cfi_startproc
	.cfi_personality 0x9b,DW.ref.__gxx_personality_v0
	.cfi_lsda 0x1b,.LLSDAC9687
	.type	_ZN4asio6detail14do_throw_errorERKSt10error_codePKc.isra.0.cold, @function
_ZN4asio6detail14do_throw_errorERKSt10error_codePKc.isra.0.cold:
.LFSB9687:
.L923:
	.cfi_def_cfa_offset 80
	.cfi_offset 6, -24
	.cfi_offset 12, -16
	movq	%rbp, %rdi
	call	_ZNSt12system_errorD1Ev@PLT
	movq	%r12, %rdi
.LEHB21:
	call	_Unwind_Resume@PLT
.LEHE21:
	.cfi_endproc
.LFE9687:
	.section	.gcc_except_table
.LLSDAC9687:
	.byte	0xff
	.byte	0xff
	.byte	0x1
	.uleb128 .LLSDACSEC9687-.LLSDACSBC9687
.LLSDACSBC9687:
	.uleb128 .LEHB21-.LCOLDB29
	.uleb128 .LEHE21-.LEHB21
	.uleb128 0
	.uleb128 0
.LLSDACSEC9687:
	.section	.text.unlikely
	.text
	.size	_ZN4asio6detail14do_throw_errorERKSt10error_codePKc.isra.0, .-_ZN4asio6detail14do_throw_errorERKSt10error_codePKc.isra.0
	.section	.text.unlikely
	.size	_ZN4asio6detail14do_throw_errorERKSt10error_codePKc.isra.0.cold, .-_ZN4asio6detail14do_throw_errorERKSt10error_codePKc.isra.0.cold
.LCOLDE29:
	.text
.LHOTE29:
	.section	.rodata._ZN4asio6detail13epoll_reactor12fork_serviceENS_10io_service10fork_eventE.str1.1,"aMS",@progbits,1
.LC30:
	.string	"epoll"
.LC31:
	.string	"eventfd_select_interrupter"
.LC32:
	.string	"epoll re-registration"
	.section	.text._ZN4asio6detail13epoll_reactor12fork_serviceENS_10io_service10fork_eventE,"axG",@progbits,_ZN4asio6detail13epoll_reactor12fork_serviceENS_10io_service10fork_eventE,comdat
	.align 2
	.p2align 4
	.weak	_ZN4asio6detail13epoll_reactor12fork_serviceENS_10io_service10fork_eventE
	.type	_ZN4asio6detail13epoll_reactor12fork_serviceENS_10io_service10fork_eventE, @function
_ZN4asio6detail13epoll_reactor12fork_serviceENS_10io_service10fork_eventE:
.LFB3393:
	.cfi_startproc
	.cfi_personality 0x9b,DW.ref.__gxx_personality_v0
	.cfi_lsda 0x1b,.LLSDA3393
	endbr64
	pushq	%r15
	.cfi_def_cfa_offset 16
	.cfi_offset 15, -16
	pushq	%r14
	.cfi_def_cfa_offset 24
	.cfi_offset 14, -24
	pushq	%r13
	.cfi_def_cfa_offset 32
	.cfi_offset 13, -32
	pushq	%r12
	.cfi_def_cfa_offset 40
	.cfi_offset 12, -40
	pushq	%rbp
	.cfi_def_cfa_offset 48
	.cfi_offset 6, -48
	pushq	%rbx
	.cfi_def_cfa_offset 56
	.cfi_offset 3, -56
	subq	$104, %rsp
	.cfi_def_cfa_offset 160
	movq	%fs:40, %rax
	movq	%rax, 88(%rsp)
	xorl	%eax, %eax
	cmpl	$2, %esi
	je	.L1041
.L927:
	movq	88(%rsp), %rax
	xorq	%fs:40, %rax
	jne	.L1042
	addq	$104, %rsp
	.cfi_remember_state
	.cfi_def_cfa_offset 56
	popq	%rbx
	.cfi_def_cfa_offset 48
	popq	%rbp
	.cfi_def_cfa_offset 40
	popq	%r12
	.cfi_def_cfa_offset 32
	popq	%r13
	.cfi_def_cfa_offset 24
	popq	%r14
	.cfi_def_cfa_offset 16
	popq	%r15
	.cfi_def_cfa_offset 8
	ret
	.p2align 4,,10
	.p2align 3
.L1041:
	.cfi_restore_state
	movq	%rdi, %rbx
	movl	96(%rdi), %edi
	cmpl	$-1, %edi
	jne	.L1043
.L929:
	movl	$-1, 96(%rbx)
	movl	$524288, %edi
	call	epoll_create1@PLT
	movl	%eax, %ebp
	cmpl	$-1, %eax
	je	.L1044
.L930:
	movl	100(%rbx), %edi
	movl	%ebp, 96(%rbx)
	cmpl	$-1, %edi
	jne	.L1045
.L936:
	movl	$-1, 100(%rbx)
	movl	$524288, %esi
	movl	$1, %edi
	call	timerfd_create@PLT
	movl	%eax, %ebp
	cmpl	$-1, %eax
	je	.L1046
.L937:
	movl	92(%rbx), %r8d
	movl	88(%rbx), %edi
	movl	%ebp, 100(%rbx)
	leaq	88(%rbx), %r12
	cmpl	$-1, %r8d
	je	.L938
	cmpl	%edi, %r8d
	jne	.L1047
.L939:
.LEHB22:
	call	close@PLT
.L940:
	movq	$-1, 88(%rbx)
	movl	$526336, %esi
	xorl	%edi, %edi
	call	eventfd@PLT
	movl	%eax, 88(%rbx)
	movl	%eax, %edx
	movl	%eax, 92(%rbx)
	cmpl	$-1, %eax
	je	.L1048
.L941:
	movl	96(%rbx), %edi
	leaq	4(%rsp), %rbp
	movl	$1, %esi
	movl	$-2147483639, 4(%rsp)
	movq	%rbp, %rcx
	movq	%r12, 8(%rsp)
	leaq	48(%rsp), %r13
	call	epoll_ctl@PLT
	movl	92(%rbx), %edi
	movl	$8, %edx
	movq	%r13, %rsi
	movq	$1, 48(%rsp)
	call	write@PLT
.LEHE22:
	movl	100(%rbx), %edx
	cmpl	$-1, %edx
	jne	.L1049
.L949:
	movl	88(%rbx), %edx
	movl	96(%rbx), %edi
	movq	%r13, %rcx
	movl	$3, %esi
	movl	$-2147483639, 48(%rsp)
	movq	%r12, 52(%rsp)
	call	epoll_ctl@PLT
.L963:
	leaq	120(%rbx), %r14
	movq	%r14, %rdi
	call	pthread_mutex_lock@PLT
	movq	160(%rbx), %r15
	testq	%r15, %r15
	jne	.L964
	jmp	.L970
	.p2align 4,,10
	.p2align 3
.L965:
	movq	24(%r15), %r15
	testq	%r15, %r15
	je	.L970
.L964:
	movl	92(%r15), %eax
	movl	88(%r15), %edx
	movq	%rbp, %rcx
	movl	$1, %esi
	movl	96(%rbx), %edi
	movq	%r15, 8(%rsp)
	movl	%eax, 4(%rsp)
	call	epoll_ctl@PLT
	testl	%eax, %eax
	je	.L965
	movq	_ZGVZN4asio15system_categoryEvE8instance@GOTPCREL(%rip), %r12
	movzbl	(%r12), %eax
	testb	%al, %al
	je	.L966
.L1040:
	movq	_ZZN4asio15system_categoryEvE8instance@GOTPCREL(%rip), %r13
.L967:
	call	__errno_location@PLT
	movl	(%rax), %eax
	testl	%eax, %eax
	je	.L965
	leaq	.LC32(%rip), %rdx
	movl	%eax, %edi
	movq	%r13, %rsi
.LEHB23:
	call	_ZN4asio6detail14do_throw_errorERKSt10error_codePKc.isra.0
.LEHE23:
	.p2align 4,,10
	.p2align 3
.L1047:
	movl	%r8d, %edi
.LEHB24:
	call	close@PLT
	movl	88(%rbx), %edi
.L938:
	cmpl	$-1, %edi
	je	.L940
	jmp	.L939
	.p2align 4,,10
	.p2align 3
.L1049:
	movl	96(%rbx), %edi
	leaq	100(%rbx), %rax
	movq	%rbp, %rcx
	movl	$1, %esi
	movl	$9, 4(%rsp)
	movq	%rax, 8(%rsp)
	call	epoll_ctl@PLT
	movl	100(%rbx), %edi
	cmpl	$-1, %edi
	je	.L949
	movq	104(%rbx), %r14
	pxor	%xmm0, %xmm0
	movaps	%xmm0, 16(%rsp)
	testq	%r14, %r14
	je	.L950
	movq	_ZNK4asio6detail11timer_queueINS0_18chrono_time_traitsINSt6chrono3_V212steady_clockENS_11wait_traitsIS5_EEEEE18wait_duration_usecEl@GOTPCREL(%rip), %r12
	movl	$300000000, %r15d
	jmp	.L960
	.p2align 4,,10
	.p2align 3
.L1052:
	testq	%rax, %rax
	js	.L954
.L1039:
	subq	%rax, %rdx
	movq	%rdx, %rdi
	testq	%rdx, %rdx
	jle	.L978
	movabsq	$2361183241434822607, %rax
	sarq	$63, %rdi
	imulq	%rdx
	sarq	$7, %rdx
	subq	%rdi, %rdx
.L957:
	testq	%rdx, %rdx
	je	.L1050
.L956:
	cmpq	%rdx, %r15
	cmovg	%rdx, %r15
.L952:
	movq	8(%r14), %r14
	testq	%r14, %r14
	je	.L1051
.L960:
	movq	(%r14), %rax
	movq	32(%rax), %rax
	cmpq	%r12, %rax
	jne	.L951
	movq	24(%r14), %rax
	cmpq	%rax, 32(%r14)
	je	.L952
	call	_ZNSt6chrono3_V212steady_clock3nowEv@PLT
	movq	24(%r14), %rdx
	movq	(%rdx), %rdx
	testq	%rdx, %rdx
	jns	.L1052
	testq	%rax, %rax
	js	.L1039
.L978:
	movq	8(%r14), %r14
	xorl	%r15d, %r15d
	testq	%r14, %r14
	jne	.L960
	.p2align 4,,10
	.p2align 3
.L1051:
	movq	%r15, %rax
	xorl	%r8d, %r8d
	movl	100(%rbx), %edi
	movabsq	$4835703278458516699, %rdx
	imulq	%rdx
	movq	%r15, %rax
	sarq	$63, %rax
	sarq	$18, %rdx
	subq	%rax, %rdx
	testq	%r15, %r15
	movl	$1, %eax
	movq	%rdx, 32(%rsp)
	sete	%r8b
	je	.L962
	imulq	$1000000, %rdx, %rdx
	movq	%r15, %rsi
	subq	%rdx, %rsi
	imulq	$1000, %rsi, %rax
.L962:
	leaq	16(%rsp), %rdx
	movq	%r13, %rcx
	movl	%r8d, %esi
	movq	%rax, 40(%rsp)
	call	timerfd_settime@PLT
	jmp	.L963
	.p2align 4,,10
	.p2align 3
.L1045:
	call	close@PLT
	jmp	.L936
	.p2align 4,,10
	.p2align 3
.L1043:
	call	close@PLT
	jmp	.L929
	.p2align 4,,10
	.p2align 3
.L966:
	movq	%r12, %rdi
	call	__cxa_guard_acquire@PLT
	testl	%eax, %eax
	je	.L1040
	movq	_ZZN4asio15system_categoryEvE8instance@GOTPCREL(%rip), %r13
	movq	_ZN4asio6detail15system_categoryD1Ev@GOTPCREL(%rip), %rdi
	leaq	__dso_handle(%rip), %rdx
	movq	%r13, %rsi
	call	__cxa_atexit@PLT
	movq	%r12, %rdi
	call	__cxa_guard_release@PLT
	jmp	.L967
	.p2align 4,,10
	.p2align 3
.L970:
	movq	%r14, %rdi
	call	pthread_mutex_unlock@PLT
	jmp	.L927
	.p2align 4,,10
	.p2align 3
.L951:
	movq	%r15, %rsi
	movq	%r14, %rdi
	call	*%rax
	movq	%rax, %r15
	jmp	.L952
	.p2align 4,,10
	.p2align 3
.L1050:
	movl	$1, %r15d
	jmp	.L952
	.p2align 4,,10
	.p2align 3
.L954:
	movabsq	$-9223372036854775808, %rcx
	cmpq	%rcx, %rax
	je	.L976
	movabsq	$9223372036854775807, %rdi
	movq	%rax, %r8
	negq	%r8
	subq	%rdx, %rdi
	cmpq	%rdi, %r8
	jg	.L976
	subq	%rax, %rdx
	movabsq	$2361183241434822607, %rax
	shrq	$3, %rdx
	mulq	%rdx
	shrq	$4, %rdx
	jmp	.L957
	.p2align 4,,10
	.p2align 3
.L976:
	movabsq	$9223372036854775, %rdx
	jmp	.L956
	.p2align 4,,10
	.p2align 3
.L1048:
	call	__errno_location@PLT
	cmpl	$22, (%rax)
	movq	%rax, %rbp
	je	.L1053
.L943:
	leaq	80(%rsp), %rdi
	call	pipe@PLT
	testl	%eax, %eax
	je	.L972
	movq	_ZGVZN4asio15system_categoryEvE8instance@GOTPCREL(%rip), %r14
	movzbl	(%r14), %eax
	testb	%al, %al
	je	.L945
.L1038:
	movq	_ZZN4asio15system_categoryEvE8instance@GOTPCREL(%rip), %r13
.L946:
	movl	0(%rbp), %eax
	testl	%eax, %eax
	jne	.L1054
.L944:
	movl	88(%rbx), %edx
	jmp	.L941
	.p2align 4,,10
	.p2align 3
.L1046:
	call	__errno_location@PLT
	cmpl	$22, (%rax)
	jne	.L937
	xorl	%esi, %esi
	movl	$1, %edi
	call	timerfd_create@PLT
	movl	%eax, %ebp
	cmpl	$-1, %eax
	je	.L937
	movl	%eax, %edi
	movl	$1, %edx
	movl	$2, %esi
	xorl	%eax, %eax
	call	fcntl@PLT
	jmp	.L937
	.p2align 4,,10
	.p2align 3
.L1044:
	call	__errno_location@PLT
	movq	%rax, %r14
	movl	(%rax), %eax
	subl	$22, %eax
	andl	$-17, %eax
	jne	.L931
	movl	$20000, %edi
	call	epoll_create@PLT
	movl	%eax, %r12d
	cmpl	$-1, %eax
	je	.L931
	movl	%eax, %edi
	movl	$1, %edx
	movl	$2, %esi
	xorl	%eax, %eax
	call	fcntl@PLT
	movl	%r12d, %ebp
	jmp	.L930
.L931:
	movq	_ZGVZN4asio15system_categoryEvE8instance@GOTPCREL(%rip), %r12
	movzbl	(%r12), %eax
	testb	%al, %al
	je	.L932
.L1037:
	movq	_ZZN4asio15system_categoryEvE8instance@GOTPCREL(%rip), %r13
.L933:
	movl	(%r14), %eax
	testl	%eax, %eax
	je	.L930
	leaq	.LC30(%rip), %rdx
	movl	%eax, %edi
	movq	%r13, %rsi
	call	_ZN4asio6detail14do_throw_errorERKSt10error_codePKc.isra.0
	.p2align 4,,10
	.p2align 3
.L972:
	movl	80(%rsp), %edi
	movl	$2048, %edx
	movl	$4, %esi
	xorl	%eax, %eax
	movl	%edi, 88(%rbx)
	call	fcntl@PLT
	movl	88(%rbx), %edi
	movl	$1, %edx
	xorl	%eax, %eax
	movl	$2, %esi
	call	fcntl@PLT
	movl	84(%rsp), %edi
	movl	$2048, %edx
	xorl	%eax, %eax
	movl	$4, %esi
	movl	%edi, 92(%rbx)
	call	fcntl@PLT
	movl	92(%rbx), %edi
	movl	$1, %edx
	xorl	%eax, %eax
	movl	$2, %esi
	call	fcntl@PLT
	jmp	.L944
.L932:
	movq	%r12, %rdi
	call	__cxa_guard_acquire@PLT
	testl	%eax, %eax
	je	.L1037
	movq	_ZZN4asio15system_categoryEvE8instance@GOTPCREL(%rip), %r13
	movq	_ZN4asio6detail15system_categoryD1Ev@GOTPCREL(%rip), %rdi
	leaq	__dso_handle(%rip), %rdx
	movq	%r13, %rsi
	call	__cxa_atexit@PLT
	movq	%r12, %rdi
	call	__cxa_guard_release@PLT
	jmp	.L933
.L1053:
	xorl	%edi, %edi
	xorl	%esi, %esi
	call	eventfd@PLT
	movl	%eax, 88(%rbx)
	movl	%eax, %edi
	movl	%eax, 92(%rbx)
	cmpl	$-1, %eax
	je	.L943
	movl	$2048, %edx
	movl	$4, %esi
	xorl	%eax, %eax
	call	fcntl@PLT
	movl	88(%rbx), %edi
	movl	$1, %edx
	xorl	%eax, %eax
	movl	$2, %esi
	call	fcntl@PLT
	movl	88(%rbx), %edx
	cmpl	$-1, %edx
	jne	.L941
	jmp	.L943
	.p2align 4,,10
	.p2align 3
.L950:
	movq	$300, 32(%rsp)
	xorl	%r8d, %r8d
	xorl	%eax, %eax
	jmp	.L962
.L945:
	movq	%r14, %rdi
	call	__cxa_guard_acquire@PLT
	testl	%eax, %eax
	je	.L1038
	movq	_ZZN4asio15system_categoryEvE8instance@GOTPCREL(%rip), %r13
	movq	_ZN4asio6detail15system_categoryD1Ev@GOTPCREL(%rip), %rdi
	leaq	__dso_handle(%rip), %rdx
	movq	%r13, %rsi
	call	__cxa_atexit@PLT
	movq	%r14, %rdi
	call	__cxa_guard_release@PLT
	jmp	.L946
.L1042:
	call	__stack_chk_fail@PLT
.L1054:
	leaq	.LC31(%rip), %rdx
	movl	%eax, %edi
	movq	%r13, %rsi
	call	_ZN4asio6detail14do_throw_errorERKSt10error_codePKc.isra.0
.L981:
	endbr64
	movq	%rax, %rbp
.L971:
	movq	%r14, %rdi
	call	pthread_mutex_unlock@PLT
	movq	%rbp, %rdi
	call	_Unwind_Resume@PLT
.LEHE24:
	.cfi_endproc
.LFE3393:
	.section	.gcc_except_table
.LLSDA3393:
	.byte	0xff
	.byte	0xff
	.byte	0x1
	.uleb128 .LLSDACSE3393-.LLSDACSB3393
.LLSDACSB3393:
	.uleb128 .LEHB22-.LFB3393
	.uleb128 .LEHE22-.LEHB22
	.uleb128 0
	.uleb128 0
	.uleb128 .LEHB23-.LFB3393
	.uleb128 .LEHE23-.LEHB23
	.uleb128 .L981-.LFB3393
	.uleb128 0
	.uleb128 .LEHB24-.LFB3393
	.uleb128 .LEHE24-.LEHB24
	.uleb128 0
	.uleb128 0
.LLSDACSE3393:
	.section	.text._ZN4asio6detail13epoll_reactor12fork_serviceENS_10io_service10fork_eventE,"axG",@progbits,_ZN4asio6detail13epoll_reactor12fork_serviceENS_10io_service10fork_eventE,comdat
	.size	_ZN4asio6detail13epoll_reactor12fork_serviceENS_10io_service10fork_eventE, .-_ZN4asio6detail13epoll_reactor12fork_serviceENS_10io_service10fork_eventE
	.text
	.align 2
	.p2align 4
	.globl	_ZN7asiopal10ThreadPool8ShutdownEv
	.type	_ZN7asiopal10ThreadPool8ShutdownEv, @function
_ZN7asiopal10ThreadPool8ShutdownEv:
.LFB6937:
	.cfi_startproc
	endbr64
	cmpb	$0, 112(%rdi)
	je	.L1064
	ret
	.p2align 4,,10
	.p2align 3
.L1064:
	pushq	%rbp
	.cfi_def_cfa_offset 16
	.cfi_offset 6, -16
	movq	%rdi, %rbp
	pushq	%rbx
	.cfi_def_cfa_offset 24
	.cfi_offset 3, -24
	subq	$8, %rsp
	.cfi_def_cfa_offset 32
	cmpb	$0, 136(%rdi)
	movb	$1, 112(%rdi)
	jne	.L1065
.L1057:
	movq	184(%rbp), %rbx
	movq	192(%rbp), %rbp
	cmpq	%rbp, %rbx
	je	.L1055
	.p2align 4,,10
	.p2align 3
.L1058:
	movq	(%rbx), %rdi
	addq	$8, %rbx
	call	_ZNSt6thread4joinEv@PLT
	cmpq	%rbx, %rbp
	jne	.L1058
.L1055:
	addq	$8, %rsp
	.cfi_remember_state
	.cfi_def_cfa_offset 24
	popq	%rbx
	.cfi_def_cfa_offset 16
	popq	%rbp
	.cfi_def_cfa_offset 8
	ret
	.p2align 4,,10
	.p2align 3
.L1065:
	.cfi_restore_state
	movq	120(%rdi), %rax
	leaq	144(%rdi), %rdx
	movq	88(%rax), %rdi
	leaq	40(%rax), %rsi
	call	_ZN4asio6detail13epoll_reactor12cancel_timerINS0_18chrono_time_traitsINSt6chrono3_V212steady_clockENS_11wait_traitsIS6_EEEEEEmRNS0_11timer_queueIT_EERNSC_14per_timer_dataEm.constprop.0
	movb	$0, 136(%rbp)
	jmp	.L1057
	.cfi_endproc
.LFE6937:
	.size	_ZN7asiopal10ThreadPool8ShutdownEv, .-_ZN7asiopal10ThreadPool8ShutdownEv
	.align 2
	.p2align 4
	.globl	_ZN7asiopal10ThreadPoolD2Ev
	.type	_ZN7asiopal10ThreadPoolD2Ev, @function
_ZN7asiopal10ThreadPoolD2Ev:
.LFB6935:
	.cfi_startproc
	.cfi_personality 0x9b,DW.ref.__gxx_personality_v0
	.cfi_lsda 0x1b,.LLSDA6935
	endbr64
	pushq	%r13
	.cfi_def_cfa_offset 16
	.cfi_offset 13, -16
	pushq	%r12
	.cfi_def_cfa_offset 24
	.cfi_offset 12, -24
	pushq	%rbp
	.cfi_def_cfa_offset 32
	.cfi_offset 6, -32
	pushq	%rbx
	.cfi_def_cfa_offset 40
	.cfi_offset 3, -40
	movq	%rdi, %rbx
	subq	$40, %rsp
	.cfi_def_cfa_offset 80
	movq	%fs:40, %rax
	movq	%rax, 24(%rsp)
	xorl	%eax, %eax
	call	_ZN7asiopal10ThreadPool8ShutdownEv@PLT
	movq	184(%rbx), %r12
	movq	192(%rbx), %rbp
	cmpq	%rbp, %r12
	je	.L1067
	movq	%r12, %r13
	.p2align 4,,10
	.p2align 3
.L1070:
	movq	0(%r13), %rdi
	testq	%rdi, %rdi
	je	.L1068
	cmpq	$0, (%rdi)
	jne	.L1072
	movl	$8, %esi
	call	_ZdlPvm@PLT
.L1068:
	addq	$8, %r13
	cmpq	%r13, %rbp
	jne	.L1070
	movq	184(%rbx), %rbp
	movq	%r12, 192(%rbx)
	cmpq	%rbp, %r12
	je	.L1067
	.p2align 4,,10
	.p2align 3
.L1073:
	movq	0(%rbp), %rdi
	testq	%rdi, %rdi
	je	.L1071
	cmpq	$0, (%rdi)
	jne	.L1072
	movl	$8, %esi
	call	_ZdlPvm@PLT
.L1071:
	addq	$8, %rbp
	cmpq	%rbp, %r12
	jne	.L1073
	movq	184(%rbx), %rbp
.L1067:
	testq	%rbp, %rbp
	je	.L1074
	movq	%rbp, %rdi
	call	_ZdlPv@PLT
.L1074:
	call	_ZNSt3_V215system_categoryEv@PLT
	cmpb	$0, 136(%rbx)
	movq	120(%rbx), %r12
	movq	%rax, %rbp
	je	.L1075
	movq	88(%r12), %rdi
	leaq	144(%rbx), %rdx
	leaq	40(%r12), %rsi
	call	_ZN4asio6detail13epoll_reactor12cancel_timerINS0_18chrono_time_traitsINSt6chrono3_V212steady_clockENS_11wait_traitsIS6_EEEEEEmRNS0_11timer_queueIT_EERNSC_14per_timer_dataEm.constprop.0
	movb	$0, 136(%rbx)
.L1075:
	movq	144(%rbx), %rsi
	movq	%rsp, %r12
	testq	%rsi, %rsi
	jne	.L1076
	jmp	.L1080
	.p2align 4,,10
	.p2align 3
.L1079:
	movq	$0, (%rsi)
	movq	8(%rsi), %rax
	xorl	%ecx, %ecx
	movq	%r12, %rdx
	movl	$0, (%rsp)
	xorl	%edi, %edi
	movq	%rbp, 8(%rsp)
	call	*%rax
	movq	144(%rbx), %rsi
	testq	%rsi, %rsi
	je	.L1080
.L1076:
	movq	(%rsi), %rax
	movq	%rax, 144(%rbx)
	testq	%rax, %rax
	jne	.L1079
	movq	$0, 152(%rbx)
	jmp	.L1079
	.p2align 4,,10
	.p2align 3
.L1080:
	movq	96(%rbx), %rax
	testq	%rax, %rax
	je	.L1078
	leaq	80(%rbx), %rdi
	movl	$3, %edx
	movq	%rdi, %rsi
	call	*%rax
.L1078:
	movq	64(%rbx), %rax
	testq	%rax, %rax
	je	.L1082
	leaq	48(%rbx), %rdi
	movl	$3, %edx
	movq	%rdi, %rsi
	call	*%rax
.L1082:
	movq	40(%rbx), %rbp
	testq	%rbp, %rbp
	je	.L1084
	movq	_ZL28__gthrw___pthread_key_createPjPFvPvE@GOTPCREL(%rip), %r12
	testq	%r12, %r12
	je	.L1085
	movl	$-1, %eax
	lock xaddl	%eax, 8(%rbp)
	cmpl	$1, %eax
	je	.L1129
	.p2align 4,,10
	.p2align 3
.L1084:
	movq	24(%rbx), %rbp
	testq	%rbp, %rbp
	je	.L1091
	movq	_ZL28__gthrw___pthread_key_createPjPFvPvE@GOTPCREL(%rip), %r12
	testq	%r12, %r12
	je	.L1092
	movl	$-1, %eax
	lock xaddl	%eax, 8(%rbp)
	cmpl	$1, %eax
	je	.L1130
	.p2align 4,,10
	.p2align 3
.L1091:
	movq	8(%rbx), %rbp
	testq	%rbp, %rbp
	je	.L1066
	movq	_ZL28__gthrw___pthread_key_createPjPFvPvE@GOTPCREL(%rip), %r12
	testq	%r12, %r12
	je	.L1099
	movl	$-1, %eax
	lock xaddl	%eax, 8(%rbp)
	cmpl	$1, %eax
	je	.L1131
	.p2align 4,,10
	.p2align 3
.L1066:
	movq	24(%rsp), %rax
	xorq	%fs:40, %rax
	jne	.L1132
	addq	$40, %rsp
	.cfi_remember_state
	.cfi_def_cfa_offset 40
	popq	%rbx
	.cfi_def_cfa_offset 32
	popq	%rbp
	.cfi_def_cfa_offset 24
	popq	%r12
	.cfi_def_cfa_offset 16
	popq	%r13
	.cfi_def_cfa_offset 8
	ret
	.p2align 4,,10
	.p2align 3
.L1092:
	.cfi_restore_state
	movl	8(%rbp), %eax
	leal	-1(%rax), %edx
	movl	%edx, 8(%rbp)
	cmpl	$1, %eax
	jne	.L1091
.L1130:
	movq	0(%rbp), %rax
	movq	%rbp, %rdi
	call	*16(%rax)
	testq	%r12, %r12
	je	.L1095
	movl	$-1, %eax
	lock xaddl	%eax, 12(%rbp)
.L1096:
	cmpl	$1, %eax
	jne	.L1091
	movq	0(%rbp), %rax
	movq	%rbp, %rdi
	call	*24(%rax)
	jmp	.L1091
	.p2align 4,,10
	.p2align 3
.L1085:
	movl	8(%rbp), %eax
	leal	-1(%rax), %edx
	movl	%edx, 8(%rbp)
	cmpl	$1, %eax
	jne	.L1084
.L1129:
	movq	0(%rbp), %rax
	movq	%rbp, %rdi
	call	*16(%rax)
	testq	%r12, %r12
	je	.L1088
	movl	$-1, %eax
	lock xaddl	%eax, 12(%rbp)
.L1089:
	cmpl	$1, %eax
	jne	.L1084
	movq	0(%rbp), %rax
	movq	%rbp, %rdi
	call	*24(%rax)
	jmp	.L1084
	.p2align 4,,10
	.p2align 3
.L1099:
	movl	8(%rbp), %eax
	leal	-1(%rax), %edx
	movl	%edx, 8(%rbp)
	cmpl	$1, %eax
	jne	.L1066
.L1131:
	movq	0(%rbp), %rax
	movq	%rbp, %rdi
	call	*16(%rax)
	testq	%r12, %r12
	je	.L1102
	movl	$-1, %eax
	lock xaddl	%eax, 12(%rbp)
.L1103:
	cmpl	$1, %eax
	jne	.L1066
	movq	0(%rbp), %rax
	movq	%rbp, %rdi
	call	*24(%rax)
	jmp	.L1066
	.p2align 4,,10
	.p2align 3
.L1088:
	movl	12(%rbp), %eax
	leal	-1(%rax), %edx
	movl	%edx, 12(%rbp)
	jmp	.L1089
	.p2align 4,,10
	.p2align 3
.L1095:
	movl	12(%rbp), %eax
	leal	-1(%rax), %edx
	movl	%edx, 12(%rbp)
	jmp	.L1096
	.p2align 4,,10
	.p2align 3
.L1102:
	movl	12(%rbp), %eax
	leal	-1(%rax), %edx
	movl	%edx, 12(%rbp)
	jmp	.L1103
.L1072:
	call	_ZSt9terminatev@PLT
.L1132:
	call	__stack_chk_fail@PLT
	.cfi_endproc
.LFE6935:
	.section	.gcc_except_table
.LLSDA6935:
	.byte	0xff
	.byte	0xff
	.byte	0x1
	.uleb128 .LLSDACSE6935-.LLSDACSB6935
.LLSDACSB6935:
.LLSDACSE6935:
	.text
	.size	_ZN7asiopal10ThreadPoolD2Ev, .-_ZN7asiopal10ThreadPoolD2Ev
	.globl	_ZN7asiopal10ThreadPoolD1Ev
	.set	_ZN7asiopal10ThreadPoolD1Ev,_ZN7asiopal10ThreadPoolD2Ev
	.section	.text._ZN4asio6detail11object_poolINS0_13epoll_reactor16descriptor_stateEED2Ev,"axG",@progbits,_ZN4asio6detail11object_poolINS0_13epoll_reactor16descriptor_stateEED5Ev,comdat
	.align 2
	.p2align 4
	.weak	_ZN4asio6detail11object_poolINS0_13epoll_reactor16descriptor_stateEED2Ev
	.type	_ZN4asio6detail11object_poolINS0_13epoll_reactor16descriptor_stateEED2Ev, @function
_ZN4asio6detail11object_poolINS0_13epoll_reactor16descriptor_stateEED2Ev:
.LFB7295:
	.cfi_startproc
	.cfi_personality 0x9b,DW.ref.__gxx_personality_v0
	.cfi_lsda 0x1b,.LLSDA7295
	endbr64
	pushq	%r15
	.cfi_def_cfa_offset 16
	.cfi_offset 15, -16
	pushq	%r14
	.cfi_def_cfa_offset 24
	.cfi_offset 14, -24
	pushq	%r13
	.cfi_def_cfa_offset 32
	.cfi_offset 13, -32
	pushq	%r12
	.cfi_def_cfa_offset 40
	.cfi_offset 12, -40
	pushq	%rbp
	.cfi_def_cfa_offset 48
	.cfi_offset 6, -48
	pushq	%rbx
	.cfi_def_cfa_offset 56
	.cfi_offset 3, -56
	subq	$56, %rsp
	.cfi_def_cfa_offset 112
	movq	(%rdi), %rbx
	movq	%rdi, 8(%rsp)
	movq	%fs:40, %rdx
	movq	%rdx, 40(%rsp)
	xorl	%edx, %edx
	testq	%rbx, %rbx
	je	.L1134
	leaq	16(%rsp), %r13
	.p2align 4,,10
	.p2align 3
.L1140:
	movq	%rbx, %r12
	movq	24(%rbx), %rbx
	leaq	128(%r12), %r15
	leaq	80(%r12), %r14
.L1139:
	movq	(%r15), %rsi
	testq	%rsi, %rsi
	movq	%rsi, (%rsp)
	je	.L1135
	call	_ZNSt3_V215system_categoryEv@PLT
	movq	(%rsp), %rsi
	movq	%rax, %rbp
	jmp	.L1138
	.p2align 4,,10
	.p2align 3
.L1136:
	movq	$0, (%rsi)
	movq	8(%rsi), %rax
	xorl	%ecx, %ecx
	movq	%r13, %rdx
	movl	$0, 16(%rsp)
	xorl	%edi, %edi
	movq	%rbp, 24(%rsp)
	call	*%rax
	movq	(%r15), %rsi
	testq	%rsi, %rsi
	je	.L1135
.L1138:
	movq	(%rsi), %rax
	movq	%rax, (%r15)
	testq	%rax, %rax
	jne	.L1136
	movq	$0, 8(%r15)
	jmp	.L1136
	.p2align 4,,10
	.p2align 3
.L1135:
	subq	$16, %r15
	cmpq	%r14, %r15
	jne	.L1139
	leaq	40(%r12), %rdi
	call	pthread_mutex_destroy@PLT
	movl	$152, %esi
	movq	%r12, %rdi
	call	_ZdlPvm@PLT
	testq	%rbx, %rbx
	jne	.L1140
.L1134:
	movq	8(%rsp), %rax
	movq	8(%rax), %r13
	testq	%r13, %r13
	je	.L1133
	leaq	16(%rsp), %r14
	.p2align 4,,10
	.p2align 3
.L1147:
	movq	%r13, %r12
	movq	24(%r13), %r13
	leaq	80(%r12), %rax
	leaq	128(%r12), %r15
	movq	%rax, (%rsp)
.L1146:
	movq	(%r15), %rbp
	testq	%rbp, %rbp
	je	.L1142
	call	_ZNSt3_V215system_categoryEv@PLT
	movq	%rax, %rbx
	jmp	.L1145
	.p2align 4,,10
	.p2align 3
.L1143:
	movq	$0, 0(%rbp)
	movq	8(%rbp), %rax
	xorl	%ecx, %ecx
	xorl	%edi, %edi
	movq	%rbp, %rsi
	movl	$0, 16(%rsp)
	movq	%r14, %rdx
	movq	%rbx, 24(%rsp)
	call	*%rax
	movq	(%r15), %rbp
	testq	%rbp, %rbp
	je	.L1142
.L1145:
	movq	0(%rbp), %rax
	movq	%rax, (%r15)
	testq	%rax, %rax
	jne	.L1143
	movq	$0, 8(%r15)
	jmp	.L1143
	.p2align 4,,10
	.p2align 3
.L1142:
	subq	$16, %r15
	cmpq	(%rsp), %r15
	jne	.L1146
	leaq	40(%r12), %rdi
	call	pthread_mutex_destroy@PLT
	movl	$152, %esi
	movq	%r12, %rdi
	call	_ZdlPvm@PLT
	testq	%r13, %r13
	jne	.L1147
.L1133:
	movq	40(%rsp), %rax
	xorq	%fs:40, %rax
	jne	.L1180
	addq	$56, %rsp
	.cfi_remember_state
	.cfi_def_cfa_offset 56
	popq	%rbx
	.cfi_def_cfa_offset 48
	popq	%rbp
	.cfi_def_cfa_offset 40
	popq	%r12
	.cfi_def_cfa_offset 32
	popq	%r13
	.cfi_def_cfa_offset 24
	popq	%r14
	.cfi_def_cfa_offset 16
	popq	%r15
	.cfi_def_cfa_offset 8
	ret
.L1180:
	.cfi_restore_state
	call	__stack_chk_fail@PLT
	.cfi_endproc
.LFE7295:
	.section	.gcc_except_table
.LLSDA7295:
	.byte	0xff
	.byte	0xff
	.byte	0x1
	.uleb128 .LLSDACSE7295-.LLSDACSB7295
.LLSDACSB7295:
.LLSDACSE7295:
	.section	.text._ZN4asio6detail11object_poolINS0_13epoll_reactor16descriptor_stateEED2Ev,"axG",@progbits,_ZN4asio6detail11object_poolINS0_13epoll_reactor16descriptor_stateEED5Ev,comdat
	.size	_ZN4asio6detail11object_poolINS0_13epoll_reactor16descriptor_stateEED2Ev, .-_ZN4asio6detail11object_poolINS0_13epoll_reactor16descriptor_stateEED2Ev
	.weak	_ZN4asio6detail11object_poolINS0_13epoll_reactor16descriptor_stateEED1Ev
	.set	_ZN4asio6detail11object_poolINS0_13epoll_reactor16descriptor_stateEED1Ev,_ZN4asio6detail11object_poolINS0_13epoll_reactor16descriptor_stateEED2Ev
	.section	.text._ZNSt16_Sp_counted_baseILN9__gnu_cxx12_Lock_policyE2EE10_M_releaseEv,"axG",@progbits,_ZNSt16_Sp_counted_baseILN9__gnu_cxx12_Lock_policyE2EE10_M_releaseEv,comdat
	.align 2
	.p2align 4
	.weak	_ZNSt16_Sp_counted_baseILN9__gnu_cxx12_Lock_policyE2EE10_M_releaseEv
	.type	_ZNSt16_Sp_counted_baseILN9__gnu_cxx12_Lock_policyE2EE10_M_releaseEv, @function
_ZNSt16_Sp_counted_baseILN9__gnu_cxx12_Lock_policyE2EE10_M_releaseEv:
.LFB7855:
	.cfi_startproc
	endbr64
	pushq	%rbp
	.cfi_def_cfa_offset 16
	.cfi_offset 6, -16
	movq	%rdi, %rbp
	pushq	%rbx
	.cfi_def_cfa_offset 24
	.cfi_offset 3, -24
	subq	$8, %rsp
	.cfi_def_cfa_offset 32
	movq	_ZL28__gthrw___pthread_key_createPjPFvPvE@GOTPCREL(%rip), %rbx
	testq	%rbx, %rbx
	je	.L1182
	movl	$-1, %eax
	lock xaddl	%eax, 8(%rdi)
	cmpl	$1, %eax
	je	.L1190
.L1181:
	addq	$8, %rsp
	.cfi_remember_state
	.cfi_def_cfa_offset 24
	popq	%rbx
	.cfi_def_cfa_offset 16
	popq	%rbp
	.cfi_def_cfa_offset 8
	ret
	.p2align 4,,10
	.p2align 3
.L1182:
	.cfi_restore_state
	movl	8(%rdi), %eax
	leal	-1(%rax), %edx
	movl	%edx, 8(%rdi)
	cmpl	$1, %eax
	jne	.L1181
.L1190:
	movq	0(%rbp), %rax
	movq	%rbp, %rdi
	call	*16(%rax)
	testq	%rbx, %rbx
	je	.L1186
	movl	$-1, %eax
	lock xaddl	%eax, 12(%rbp)
.L1187:
	cmpl	$1, %eax
	jne	.L1181
	movq	0(%rbp), %rax
	movq	%rbp, %rdi
	movq	24(%rax), %rax
	addq	$8, %rsp
	.cfi_remember_state
	.cfi_def_cfa_offset 24
	popq	%rbx
	.cfi_def_cfa_offset 16
	popq	%rbp
	.cfi_def_cfa_offset 8
	jmp	*%rax
	.p2align 4,,10
	.p2align 3
.L1186:
	.cfi_restore_state
	movl	12(%rbp), %eax
	leal	-1(%rax), %edx
	movl	%edx, 12(%rbp)
	jmp	.L1187
	.cfi_endproc
.LFE7855:
	.size	_ZNSt16_Sp_counted_baseILN9__gnu_cxx12_Lock_policyE2EE10_M_releaseEv, .-_ZNSt16_Sp_counted_baseILN9__gnu_cxx12_Lock_policyE2EE10_M_releaseEv
	.section	.rodata._ZN4asio6detail16service_registry6createINS0_13epoll_reactorEEEPNS_10io_service7serviceERS4_.str1.1,"aMS",@progbits,1
.LC33:
	.string	"mutex"
	.section	.text._ZN4asio6detail16service_registry6createINS0_13epoll_reactorEEEPNS_10io_service7serviceERS4_,"axG",@progbits,_ZN4asio6detail16service_registry6createINS0_13epoll_reactorEEEPNS_10io_service7serviceERS4_,comdat
	.align 2
	.p2align 4
	.weak	_ZN4asio6detail16service_registry6createINS0_13epoll_reactorEEEPNS_10io_service7serviceERS4_
	.type	_ZN4asio6detail16service_registry6createINS0_13epoll_reactorEEEPNS_10io_service7serviceERS4_, @function
_ZN4asio6detail16service_registry6createINS0_13epoll_reactorEEEPNS_10io_service7serviceERS4_:
.LFB8231:
	.cfi_startproc
	.cfi_personality 0x9b,DW.ref.__gxx_personality_v0
	.cfi_lsda 0x1b,.LLSDA8231
	endbr64
	pushq	%r15
	.cfi_def_cfa_offset 16
	.cfi_offset 15, -16
	pushq	%r14
	.cfi_def_cfa_offset 24
	.cfi_offset 14, -24
	pushq	%r13
	.cfi_def_cfa_offset 32
	.cfi_offset 13, -32
	pushq	%r12
	.cfi_def_cfa_offset 40
	.cfi_offset 12, -40
	pushq	%rbp
	.cfi_def_cfa_offset 48
	.cfi_offset 6, -48
	pushq	%rbx
	.cfi_def_cfa_offset 56
	.cfi_offset 3, -56
	movq	%rdi, %rbx
	movl	$176, %edi
	subq	$72, %rsp
	.cfi_def_cfa_offset 128
	movq	%fs:40, %rax
	movq	%rax, 56(%rsp)
	xorl	%eax, %eax
.LEHB25:
	call	_Znwm@PLT
.LEHE25:
	xorl	%esi, %esi
	movq	%rbx, 24(%rax)
	movq	%rax, %r12
	movq	$0, 8(%rax)
	leaq	48(%r12), %r13
	movq	$0, 16(%rax)
	movq	%r13, %rdi
	movq	$0, 32(%rax)
	movq	_ZTVN4asio6detail13epoll_reactorE@GOTPCREL(%rip), %rax
	addq	$16, %rax
	movq	%rax, (%r12)
	movq	8(%rbx), %rax
	movq	%rax, 40(%r12)
	call	pthread_mutex_init@PLT
	movq	_ZGVZN4asio15system_categoryEvE8instance@GOTPCREL(%rip), %rbp
	movl	%eax, %ebx
	movzbl	0(%rbp), %eax
	testb	%al, %al
	je	.L1192
.L1273:
	movq	_ZZN4asio15system_categoryEvE8instance@GOTPCREL(%rip), %r14
.L1193:
	testl	%ebx, %ebx
	jne	.L1274
	movl	$526336, %esi
	xorl	%edi, %edi
	leaq	88(%r12), %rbx
	call	eventfd@PLT
	movl	%eax, 88(%r12)
	movl	%eax, 92(%r12)
	cmpl	$-1, %eax
	je	.L1275
.L1197:
	movl	$524288, %edi
	call	epoll_create1@PLT
	movl	%eax, %r15d
	cmpl	$-1, %eax
	je	.L1276
.L1206:
	movl	$524288, %esi
	movl	$1, %edi
	movl	%r15d, 96(%r12)
	call	timerfd_create@PLT
	movl	%eax, %r15d
	cmpl	$-1, %eax
	je	.L1277
.L1212:
	movl	%r15d, 100(%r12)
	leaq	120(%r12), %r15
	xorl	%esi, %esi
	movq	%r15, %rdi
	movb	$0, 112(%r12)
	movq	$0, 104(%r12)
	call	pthread_mutex_init@PLT
	movl	%eax, %ecx
	movzbl	0(%rbp), %eax
	testb	%al, %al
	je	.L1278
.L1216:
	testl	%ecx, %ecx
	jne	.L1279
	movl	88(%r12), %edx
	movl	96(%r12), %edi
	leaq	36(%rsp), %r14
	pxor	%xmm0, %xmm0
	movl	$1, %esi
	movq	%r14, %rcx
	movq	%rbx, 40(%rsp)
	movl	$-2147483639, 36(%rsp)
	movups	%xmm0, 160(%r12)
	call	epoll_ctl@PLT
	movl	92(%r12), %edi
	leaq	24(%rsp), %rsi
	movl	$8, %edx
	movq	$1, 24(%rsp)
.LEHB26:
	call	write@PLT
.LEHE26:
	movl	100(%r12), %edx
	cmpl	$-1, %edx
	je	.L1191
	movl	96(%r12), %edi
	leaq	100(%r12), %rax
	movq	%r14, %rcx
	movl	$1, %esi
	movl	$9, 36(%rsp)
	movq	%rax, 40(%rsp)
	call	epoll_ctl@PLT
.L1191:
	movq	56(%rsp), %rax
	xorq	%fs:40, %rax
	jne	.L1280
	addq	$72, %rsp
	.cfi_remember_state
	.cfi_def_cfa_offset 56
	movq	%r12, %rax
	popq	%rbx
	.cfi_def_cfa_offset 48
	popq	%rbp
	.cfi_def_cfa_offset 40
	popq	%r12
	.cfi_def_cfa_offset 32
	popq	%r13
	.cfi_def_cfa_offset 24
	popq	%r14
	.cfi_def_cfa_offset 16
	popq	%r15
	.cfi_def_cfa_offset 8
	ret
	.p2align 4,,10
	.p2align 3
.L1276:
	.cfi_restore_state
	call	__errno_location@PLT
	movq	%rax, %r8
	movl	(%rax), %eax
	subl	$22, %eax
	andl	$-17, %eax
	jne	.L1207
	movl	$20000, %edi
	movq	%r8, (%rsp)
	call	epoll_create@PLT
	movq	(%rsp), %r8
	cmpl	$-1, %eax
	movl	%eax, 12(%rsp)
	movl	%eax, %edi
	jne	.L1281
.L1207:
	movzbl	0(%rbp), %eax
	testb	%al, %al
	je	.L1282
.L1209:
	movl	(%r8), %eax
	testl	%eax, %eax
	je	.L1206
	leaq	.LC30(%rip), %rdx
	movl	%eax, %edi
	movq	%r14, %rsi
.LEHB27:
	call	_ZN4asio6detail14do_throw_errorERKSt10error_codePKc.isra.0
.LEHE27:
	.p2align 4,,10
	.p2align 3
.L1275:
	call	__errno_location@PLT
	cmpl	$22, (%rax)
	movq	%rax, %r15
	je	.L1283
.L1199:
	leaq	48(%rsp), %rdi
	call	pipe@PLT
	testl	%eax, %eax
	jne	.L1284
	movl	48(%rsp), %edi
	movl	$2048, %edx
	movl	$4, %esi
	xorl	%eax, %eax
	movl	%edi, 88(%r12)
.LEHB28:
	call	fcntl@PLT
	movl	88(%r12), %edi
	movl	$1, %edx
	movl	$2, %esi
	xorl	%eax, %eax
	call	fcntl@PLT
	movl	52(%rsp), %edi
	movl	$2048, %edx
	movl	$4, %esi
	xorl	%eax, %eax
	movl	%edi, 92(%r12)
	call	fcntl@PLT
	movl	92(%r12), %edi
	movl	$1, %edx
	movl	$2, %esi
	xorl	%eax, %eax
	call	fcntl@PLT
.LEHE28:
	jmp	.L1197
	.p2align 4,,10
	.p2align 3
.L1277:
	call	__errno_location@PLT
	cmpl	$22, (%rax)
	jne	.L1212
	xorl	%esi, %esi
	movl	$1, %edi
	call	timerfd_create@PLT
	cmpl	$-1, %eax
	je	.L1212
	movl	%eax, %r15d
	movl	%eax, %edi
	movl	$1, %edx
	movl	$2, %esi
	xorl	%eax, %eax
.LEHB29:
	call	fcntl@PLT
	jmp	.L1212
	.p2align 4,,10
	.p2align 3
.L1192:
	movq	%rbp, %rdi
	call	__cxa_guard_acquire@PLT
	testl	%eax, %eax
	je	.L1273
	movq	_ZZN4asio15system_categoryEvE8instance@GOTPCREL(%rip), %r14
	movq	_ZN4asio6detail15system_categoryD1Ev@GOTPCREL(%rip), %rdi
	leaq	__dso_handle(%rip), %rdx
	movq	%r14, %rsi
	call	__cxa_atexit@PLT
	movq	%rbp, %rdi
	call	__cxa_guard_release@PLT
	jmp	.L1193
	.p2align 4,,10
	.p2align 3
.L1278:
	movq	%rbp, %rdi
	movl	%ecx, (%rsp)
	call	__cxa_guard_acquire@PLT
	movl	(%rsp), %ecx
	testl	%eax, %eax
	je	.L1216
	movq	_ZN4asio6detail15system_categoryD1Ev@GOTPCREL(%rip), %rdi
	leaq	__dso_handle(%rip), %rdx
	movq	%r14, %rsi
	call	__cxa_atexit@PLT
	movq	%rbp, %rdi
	call	__cxa_guard_release@PLT
	movl	(%rsp), %ecx
	jmp	.L1216
	.p2align 4,,10
	.p2align 3
.L1281:
	movl	$1, %edx
	movl	$2, %esi
	xorl	%eax, %eax
	call	fcntl@PLT
.LEHE29:
	movl	12(%rsp), %r15d
	jmp	.L1206
	.p2align 4,,10
	.p2align 3
.L1284:
	movzbl	0(%rbp), %eax
	testb	%al, %al
	je	.L1285
.L1203:
	movl	(%r15), %eax
	testl	%eax, %eax
	je	.L1197
	leaq	.LC31(%rip), %rdx
	movl	%eax, %edi
	movq	%r14, %rsi
.LEHB30:
	call	_ZN4asio6detail14do_throw_errorERKSt10error_codePKc.isra.0
	.p2align 4,,10
	.p2align 3
.L1282:
	movq	%rbp, %rdi
	movq	%r8, (%rsp)
	call	__cxa_guard_acquire@PLT
	movq	(%rsp), %r8
	testl	%eax, %eax
	je	.L1209
	movq	_ZN4asio6detail15system_categoryD1Ev@GOTPCREL(%rip), %rdi
	leaq	__dso_handle(%rip), %rdx
	movq	%r14, %rsi
	call	__cxa_atexit@PLT
	movq	%rbp, %rdi
	call	__cxa_guard_release@PLT
	movq	(%rsp), %r8
	jmp	.L1209
	.p2align 4,,10
	.p2align 3
.L1283:
	xorl	%edi, %edi
	xorl	%esi, %esi
	call	eventfd@PLT
	movl	%eax, 88(%r12)
	movl	%eax, %edi
	movl	%eax, 92(%r12)
	cmpl	$-1, %eax
	je	.L1199
	movl	$2048, %edx
	movl	$4, %esi
	xorl	%eax, %eax
	call	fcntl@PLT
	movl	88(%r12), %edi
	movl	$1, %edx
	movl	$2, %esi
	xorl	%eax, %eax
	call	fcntl@PLT
.LEHE30:
	cmpl	$-1, 88(%r12)
	jne	.L1197
	jmp	.L1199
	.p2align 4,,10
	.p2align 3
.L1285:
	movq	%rbp, %rdi
	call	__cxa_guard_acquire@PLT
	testl	%eax, %eax
	je	.L1203
	movq	_ZN4asio6detail15system_categoryD1Ev@GOTPCREL(%rip), %rdi
	leaq	__dso_handle(%rip), %rdx
	movq	%r14, %rsi
	call	__cxa_atexit@PLT
	movq	%rbp, %rdi
	call	__cxa_guard_release@PLT
	jmp	.L1203
.L1274:
	movl	%ebx, %edi
	leaq	.LC33(%rip), %rdx
	movq	%r14, %rsi
.LEHB31:
	call	_ZN4asio6detail14do_throw_errorERKSt10error_codePKc.isra.0
.LEHE31:
.L1280:
	call	__stack_chk_fail@PLT
.L1279:
	leaq	.LC33(%rip), %rdx
	movl	%ecx, %edi
	movq	%r14, %rsi
.LEHB32:
	call	_ZN4asio6detail14do_throw_errorERKSt10error_codePKc.isra.0
.LEHE32:
.L1230:
	endbr64
	movq	%rax, %rbp
	jmp	.L1225
.L1231:
	endbr64
	movq	%rax, %rbx
	jmp	.L1224
.L1220:
	leaq	160(%r12), %rdi
	call	_ZN4asio6detail11object_poolINS0_13epoll_reactor16descriptor_stateEED1Ev@PLT
	movq	%r15, %rdi
	call	pthread_mutex_destroy@PLT
.L1221:
	movl	92(%r12), %r8d
	movl	88(%r12), %edi
	cmpl	$-1, %r8d
	je	.L1222
	cmpl	%edi, %r8d
	je	.L1222
	movl	%r8d, %edi
	call	close@PLT
	movl	88(%r12), %edi
.L1222:
	cmpl	$-1, %edi
	je	.L1224
	call	close@PLT
.L1224:
	movq	%r13, %rdi
	movq	%rbx, %rbp
	call	pthread_mutex_destroy@PLT
.L1225:
	movq	%r12, %rdi
	movl	$176, %esi
	call	_ZdlPvm@PLT
	movq	%rbp, %rdi
.LEHB33:
	call	_Unwind_Resume@PLT
.LEHE33:
.L1232:
	endbr64
	movq	%rax, %rbx
	jmp	.L1221
.L1233:
	endbr64
	movq	%rax, %rbx
	jmp	.L1220
	.cfi_endproc
.LFE8231:
	.section	.gcc_except_table
.LLSDA8231:
	.byte	0xff
	.byte	0xff
	.byte	0x1
	.uleb128 .LLSDACSE8231-.LLSDACSB8231
.LLSDACSB8231:
	.uleb128 .LEHB25-.LFB8231
	.uleb128 .LEHE25-.LEHB25
	.uleb128 0
	.uleb128 0
	.uleb128 .LEHB26-.LFB8231
	.uleb128 .LEHE26-.LEHB26
	.uleb128 .L1233-.LFB8231
	.uleb128 0
	.uleb128 .LEHB27-.LFB8231
	.uleb128 .LEHE27-.LEHB27
	.uleb128 .L1232-.LFB8231
	.uleb128 0
	.uleb128 .LEHB28-.LFB8231
	.uleb128 .LEHE28-.LEHB28
	.uleb128 .L1231-.LFB8231
	.uleb128 0
	.uleb128 .LEHB29-.LFB8231
	.uleb128 .LEHE29-.LEHB29
	.uleb128 .L1232-.LFB8231
	.uleb128 0
	.uleb128 .LEHB30-.LFB8231
	.uleb128 .LEHE30-.LEHB30
	.uleb128 .L1231-.LFB8231
	.uleb128 0
	.uleb128 .LEHB31-.LFB8231
	.uleb128 .LEHE31-.LEHB31
	.uleb128 .L1230-.LFB8231
	.uleb128 0
	.uleb128 .LEHB32-.LFB8231
	.uleb128 .LEHE32-.LEHB32
	.uleb128 .L1232-.LFB8231
	.uleb128 0
	.uleb128 .LEHB33-.LFB8231
	.uleb128 .LEHE33-.LEHB33
	.uleb128 0
	.uleb128 0
.LLSDACSE8231:
	.section	.text._ZN4asio6detail16service_registry6createINS0_13epoll_reactorEEEPNS_10io_service7serviceERS4_,"axG",@progbits,_ZN4asio6detail16service_registry6createINS0_13epoll_reactorEEEPNS_10io_service7serviceERS4_,comdat
	.size	_ZN4asio6detail16service_registry6createINS0_13epoll_reactorEEEPNS_10io_service7serviceERS4_, .-_ZN4asio6detail16service_registry6createINS0_13epoll_reactorEEEPNS_10io_service7serviceERS4_
	.section	.rodata._ZNSt6vectorISt10unique_ptrISt6threadSt14default_deleteIS1_EESaIS4_EE17_M_realloc_insertIJS4_EEEvN9__gnu_cxx17__normal_iteratorIPS4_S6_EEDpOT_.str1.1,"aMS",@progbits,1
.LC34:
	.string	"vector::_M_realloc_insert"
	.section	.text._ZNSt6vectorISt10unique_ptrISt6threadSt14default_deleteIS1_EESaIS4_EE17_M_realloc_insertIJS4_EEEvN9__gnu_cxx17__normal_iteratorIPS4_S6_EEDpOT_,"axG",@progbits,_ZNSt6vectorISt10unique_ptrISt6threadSt14default_deleteIS1_EESaIS4_EE17_M_realloc_insertIJS4_EEEvN9__gnu_cxx17__normal_iteratorIPS4_S6_EEDpOT_,comdat
	.align 2
	.p2align 4
	.weak	_ZNSt6vectorISt10unique_ptrISt6threadSt14default_deleteIS1_EESaIS4_EE17_M_realloc_insertIJS4_EEEvN9__gnu_cxx17__normal_iteratorIPS4_S6_EEDpOT_
	.type	_ZNSt6vectorISt10unique_ptrISt6threadSt14default_deleteIS1_EESaIS4_EE17_M_realloc_insertIJS4_EEEvN9__gnu_cxx17__normal_iteratorIPS4_S6_EEDpOT_, @function
_ZNSt6vectorISt10unique_ptrISt6threadSt14default_deleteIS1_EESaIS4_EE17_M_realloc_insertIJS4_EEEvN9__gnu_cxx17__normal_iteratorIPS4_S6_EEDpOT_:
.LFB8494:
	.cfi_startproc
	endbr64
	pushq	%r15
	.cfi_def_cfa_offset 16
	.cfi_offset 15, -16
	pushq	%r14
	.cfi_def_cfa_offset 24
	.cfi_offset 14, -24
	pushq	%r13
	.cfi_def_cfa_offset 32
	.cfi_offset 13, -32
	pushq	%r12
	.cfi_def_cfa_offset 40
	.cfi_offset 12, -40
	pushq	%rbp
	.cfi_def_cfa_offset 48
	.cfi_offset 6, -48
	pushq	%rbx
	.cfi_def_cfa_offset 56
	.cfi_offset 3, -56
	movq	%rdx, %rbx
	movabsq	$1152921504606846975, %rdx
	subq	$40, %rsp
	.cfi_def_cfa_offset 96
	movq	8(%rdi), %r14
	movq	(%rdi), %r13
	movq	%rdi, 16(%rsp)
	movq	%r14, %rax
	subq	%r13, %rax
	sarq	$3, %rax
	cmpq	%rdx, %rax
	je	.L1314
	movq	%rsi, %r15
	movq	%rsi, %rbp
	subq	%r13, %rsi
	testq	%rax, %rax
	je	.L1300
	leaq	(%rax,%rax), %rcx
	movq	%rcx, 8(%rsp)
	cmpq	%rcx, %rax
	jbe	.L1315
	movabsq	$9223372036854775800, %rax
	movq	%rax, 8(%rsp)
.L1288:
	movq	8(%rsp), %rdi
	movq	%rsi, 24(%rsp)
	call	_Znwm@PLT
	movq	24(%rsp), %rsi
	movq	%rax, (%rsp)
.L1299:
	movq	(%rbx), %rax
	movq	(%rsp), %r12
	movq	$0, (%rbx)
	movq	%rax, (%r12,%rsi)
	cmpq	%r13, %r15
	je	.L1290
	movq	%r13, %rbx
	.p2align 4,,10
	.p2align 3
.L1293:
	movq	(%rbx), %rdx
	movq	$0, (%rbx)
	movq	%rdx, (%r12)
	movq	(%rbx), %rdi
	testq	%rdi, %rdi
	je	.L1291
	cmpq	$0, (%rdi)
	jne	.L1316
	movl	$8, %esi
	call	_ZdlPvm@PLT
.L1291:
	addq	$8, %rbx
	addq	$8, %r12
	cmpq	%rbx, %r15
	jne	.L1293
.L1290:
	leaq	8(%r12), %rbx
	cmpq	%r14, %r15
	je	.L1294
	subq	%r15, %r14
	leaq	-8(%r14), %r9
	movq	%r9, %rdi
	shrq	$3, %rdi
	addq	$1, %rdi
	testq	%r9, %r9
	je	.L1303
	movq	%rdi, %rsi
	xorl	%edx, %edx
	shrq	%rsi
	salq	$4, %rsi
	.p2align 4,,10
	.p2align 3
.L1296:
	movdqu	(%r15,%rdx), %xmm1
	movups	%xmm1, 8(%r12,%rdx)
	addq	$16, %rdx
	cmpq	%rdx, %rsi
	jne	.L1296
	movq	%rdi, %rax
	andq	$-2, %rax
	leaq	0(,%rax,8), %r8
	leaq	(%rbx,%r8), %rdx
	leaq	(%r15,%r8), %rbp
	cmpq	%rax, %rdi
	je	.L1297
.L1295:
	movq	0(%rbp), %rax
	movq	%rax, (%rdx)
.L1297:
	leaq	8(%rbx,%r9), %rbx
.L1294:
	testq	%r13, %r13
	je	.L1298
	movq	%r13, %rdi
	call	_ZdlPv@PLT
.L1298:
	movq	(%rsp), %rax
	movq	16(%rsp), %rcx
	movq	%rbx, %xmm2
	movq	%rax, %xmm0
	addq	8(%rsp), %rax
	punpcklqdq	%xmm2, %xmm0
	movq	%rax, 16(%rcx)
	movups	%xmm0, (%rcx)
	addq	$40, %rsp
	.cfi_remember_state
	.cfi_def_cfa_offset 56
	popq	%rbx
	.cfi_def_cfa_offset 48
	popq	%rbp
	.cfi_def_cfa_offset 40
	popq	%r12
	.cfi_def_cfa_offset 32
	popq	%r13
	.cfi_def_cfa_offset 24
	popq	%r14
	.cfi_def_cfa_offset 16
	popq	%r15
	.cfi_def_cfa_offset 8
	ret
	.p2align 4,,10
	.p2align 3
.L1315:
	.cfi_restore_state
	testq	%rcx, %rcx
	jne	.L1289
	movq	$0, (%rsp)
	jmp	.L1299
	.p2align 4,,10
	.p2align 3
.L1300:
	movq	$8, 8(%rsp)
	jmp	.L1288
.L1303:
	movq	%rbx, %rdx
	jmp	.L1295
.L1316:
	call	_ZSt9terminatev@PLT
.L1289:
	movq	8(%rsp), %rax
	cmpq	%rdx, %rax
	cmova	%rdx, %rax
	salq	$3, %rax
	movq	%rax, 8(%rsp)
	jmp	.L1288
.L1314:
	leaq	.LC34(%rip), %rdi
	call	_ZSt20__throw_length_errorPKc@PLT
	.cfi_endproc
.LFE8494:
	.size	_ZNSt6vectorISt10unique_ptrISt6threadSt14default_deleteIS1_EESaIS4_EE17_M_realloc_insertIJS4_EEEvN9__gnu_cxx17__normal_iteratorIPS4_S6_EEDpOT_, .-_ZNSt6vectorISt10unique_ptrISt6threadSt14default_deleteIS1_EESaIS4_EE17_M_realloc_insertIJS4_EEEvN9__gnu_cxx17__normal_iteratorIPS4_S6_EEDpOT_
	.section	.text._ZN4asio6detail16service_registry6createINS_22waitable_timer_serviceINSt6chrono3_V212steady_clockENS_11wait_traitsIS6_EEEEEEPNS_10io_service7serviceERSA_,"axG",@progbits,_ZN4asio6detail16service_registry6createINS_22waitable_timer_serviceINSt6chrono3_V212steady_clockENS_11wait_traitsIS6_EEEEEEPNS_10io_service7serviceERSA_,comdat
	.align 2
	.p2align 4
	.weak	_ZN4asio6detail16service_registry6createINS_22waitable_timer_serviceINSt6chrono3_V212steady_clockENS_11wait_traitsIS6_EEEEEEPNS_10io_service7serviceERSA_
	.type	_ZN4asio6detail16service_registry6createINS_22waitable_timer_serviceINSt6chrono3_V212steady_clockENS_11wait_traitsIS6_EEEEEEPNS_10io_service7serviceERSA_, @function
_ZN4asio6detail16service_registry6createINS_22waitable_timer_serviceINSt6chrono3_V212steady_clockENS_11wait_traitsIS6_EEEEEEPNS_10io_service7serviceERSA_:
.LFB8805:
	.cfi_startproc
	.cfi_personality 0x9b,DW.ref.__gxx_personality_v0
	.cfi_lsda 0x1b,.LLSDA8805
	endbr64
	pushq	%r15
	.cfi_def_cfa_offset 16
	.cfi_offset 15, -16
	pushq	%r14
	.cfi_def_cfa_offset 24
	.cfi_offset 14, -24
	pushq	%r13
	.cfi_def_cfa_offset 32
	.cfi_offset 13, -32
	pushq	%r12
	.cfi_def_cfa_offset 40
	.cfi_offset 12, -40
	pushq	%rbp
	.cfi_def_cfa_offset 48
	.cfi_offset 6, -48
	pushq	%rbx
	.cfi_def_cfa_offset 56
	.cfi_offset 3, -56
	movq	%rdi, %rbx
	movl	$96, %edi
	subq	$72, %rsp
	.cfi_def_cfa_offset 128
	movq	%fs:40, %rax
	movq	%rax, 56(%rsp)
	xorl	%eax, %eax
.LEHB34:
	call	_Znwm@PLT
.LEHE34:
	movq	%rbx, 24(%rax)
	movq	%rax, %r12
	movq	(%rbx), %rbx
	movq	$0, 8(%rax)
	leaq	40(%r12), %r13
	movq	$0, 16(%rax)
	leaq	8(%rbx), %rbp
	movq	$0, 32(%rax)
	movq	_ZTVN4asio22waitable_timer_serviceINSt6chrono3_V212steady_clockENS_11wait_traitsIS3_EEEE@GOTPCREL(%rip), %rax
	movq	%rbp, %rdi
	movq	$0, 48(%r12)
	movq	$0, 56(%r12)
	addq	$16, %rax
	movq	%rax, (%r12)
	movq	_ZTVN4asio6detail11timer_queueINS0_18chrono_time_traitsINSt6chrono3_V212steady_clockENS_11wait_traitsIS5_EEEEEE@GOTPCREL(%rip), %rax
	movq	$0, 64(%r12)
	movq	$0, 72(%r12)
	addq	$16, %rax
	movq	%rax, 40(%r12)
	movq	$0, 80(%r12)
	call	pthread_mutex_lock@PLT
	movq	56(%rbx), %r15
	testq	%r15, %r15
	je	.L1318
	.p2align 4,,10
	.p2align 3
.L1321:
	movq	8(%r15), %rax
	testq	%rax, %rax
	je	.L1319
	movq	8(%rax), %rdi
	movq	_ZTSN4asio6detail14typeid_wrapperINS0_13epoll_reactorEEE@GOTPCREL(%rip), %rsi
	cmpq	%rsi, %rdi
	je	.L1320
	cmpb	$42, (%rdi)
	je	.L1319
	call	strcmp@PLT
	testl	%eax, %eax
	jne	.L1319
.L1320:
	movq	%rbp, %rdi
	call	pthread_mutex_unlock@PLT
	movq	40(%r15), %rbx
	movq	%r15, 88(%r12)
	leaq	48(%rbx), %rbp
	movq	%rbp, %rdi
	call	pthread_mutex_lock@PLT
	cmpb	$0, 209(%rbx)
	je	.L1392
.L1339:
	movq	%rbp, %rdi
	call	pthread_mutex_unlock@PLT
.L1343:
	movq	88(%r12), %rbx
	leaq	48(%rbx), %rbp
	movq	%rbp, %rdi
	call	pthread_mutex_lock@PLT
	movq	104(%rbx), %rax
	movq	%rbp, %rdi
	movq	%rax, 48(%r12)
	movq	%r13, 104(%rbx)
	call	pthread_mutex_unlock@PLT
	movq	56(%rsp), %rax
	xorq	%fs:40, %rax
	jne	.L1393
	addq	$72, %rsp
	.cfi_remember_state
	.cfi_def_cfa_offset 56
	movq	%r12, %rax
	popq	%rbx
	.cfi_def_cfa_offset 48
	popq	%rbp
	.cfi_def_cfa_offset 40
	popq	%r12
	.cfi_def_cfa_offset 32
	popq	%r13
	.cfi_def_cfa_offset 24
	popq	%r14
	.cfi_def_cfa_offset 16
	popq	%r15
	.cfi_def_cfa_offset 8
	ret
	.p2align 4,,10
	.p2align 3
.L1319:
	.cfi_restore_state
	movq	32(%r15), %r15
	testq	%r15, %r15
	jne	.L1321
.L1318:
	movq	%rbp, %rdi
	call	pthread_mutex_unlock@PLT
	movq	48(%rbx), %rdi
.LEHB35:
	call	_ZN4asio6detail16service_registry6createINS0_13epoll_reactorEEEPNS_10io_service7serviceERS4_@PLT
.LEHE35:
	movq	%rax, %r14
	movq	_ZTIN4asio6detail14typeid_wrapperINS0_13epoll_reactorEEE@GOTPCREL(%rip), %rax
	movq	%rbp, %rdi
	movq	$0, 16(%r14)
	movq	%rax, 8(%r14)
	call	pthread_mutex_lock@PLT
	movq	56(%rbx), %rax
	movq	%rax, 8(%rsp)
	testq	%rax, %rax
	je	.L1322
	movq	%rax, %r15
	.p2align 4,,10
	.p2align 3
.L1325:
	movq	8(%r15), %rax
	testq	%rax, %rax
	je	.L1323
	movq	8(%rax), %rdi
	movq	_ZTSN4asio6detail14typeid_wrapperINS0_13epoll_reactorEEE@GOTPCREL(%rip), %rsi
	cmpq	%rsi, %rdi
	je	.L1324
	cmpb	$42, (%rdi)
	je	.L1323
	call	strcmp@PLT
	testl	%eax, %eax
	jne	.L1323
.L1324:
	movq	(%r14), %rax
	movq	%r14, %rdi
	call	*8(%rax)
	jmp	.L1320
	.p2align 4,,10
	.p2align 3
.L1392:
	cmpq	$0, 144(%rbx)
	jne	.L1339
	movq	24(%rbx), %rax
	movq	(%rax), %r14
	leaq	8(%r14), %r15
	movq	%r14, 16(%rsp)
	movq	%r15, %rdi
	call	pthread_mutex_lock@PLT
	movq	56(%r14), %r14
	testq	%r14, %r14
	je	.L1327
	.p2align 4,,10
	.p2align 3
.L1330:
	movq	8(%r14), %rax
	testq	%rax, %rax
	je	.L1328
	movq	8(%rax), %rdi
	movq	_ZTSN4asio6detail14typeid_wrapperINS0_13epoll_reactorEEE@GOTPCREL(%rip), %rsi
	cmpq	%rsi, %rdi
	je	.L1329
	cmpb	$42, (%rdi)
	je	.L1328
	call	strcmp@PLT
	testl	%eax, %eax
	jne	.L1328
.L1329:
	movq	%r15, %rdi
	call	pthread_mutex_unlock@PLT
	movq	200(%rbx), %rcx
	movq	%r14, 144(%rbx)
	leaq	152(%rbx), %rax
	movq	$0, 152(%rbx)
	testq	%rcx, %rcx
	je	.L1335
	movq	%rax, (%rcx)
	movq	%rax, 200(%rbx)
.L1336:
	movq	136(%rbx), %rax
	orq	$1, %rax
	movq	%rax, 136(%rbx)
	cmpq	$1, %rax
	je	.L1337
	movq	%rbp, %rdi
	call	pthread_mutex_unlock@PLT
	leaq	88(%rbx), %rdi
	call	pthread_cond_signal@PLT
	jmp	.L1343
	.p2align 4,,10
	.p2align 3
.L1323:
	movq	32(%r15), %r15
	testq	%r15, %r15
	jne	.L1325
.L1322:
	movq	8(%rsp), %rax
	movq	%r14, %r15
	movq	%rax, 32(%r14)
	movq	%r14, 56(%rbx)
	jmp	.L1320
	.p2align 4,,10
	.p2align 3
.L1337:
	cmpb	$0, 176(%rbx)
	jne	.L1339
	movb	$1, 176(%rbx)
	movl	88(%r14), %edx
	leaq	88(%r14), %rax
	leaq	44(%rsp), %rcx
	movl	96(%r14), %edi
	movl	$3, %esi
	movq	%rax, 48(%rsp)
	movl	$-2147483639, 44(%rsp)
	call	epoll_ctl@PLT
	jmp	.L1339
	.p2align 4,,10
	.p2align 3
.L1328:
	movq	32(%r14), %r14
	testq	%r14, %r14
	jne	.L1330
.L1327:
	movq	%r15, %rdi
	call	pthread_mutex_unlock@PLT
	movq	16(%rsp), %r14
	movq	48(%r14), %rdi
.LEHB36:
	call	_ZN4asio6detail16service_registry6createINS0_13epoll_reactorEEEPNS_10io_service7serviceERS4_@PLT
.LEHE36:
	movq	%rax, %r8
	movq	_ZTIN4asio6detail14typeid_wrapperINS0_13epoll_reactorEEE@GOTPCREL(%rip), %rax
	movq	%r15, %rdi
	movq	$0, 16(%r8)
	movq	%rax, 8(%r8)
	movq	%r8, 8(%rsp)
	call	pthread_mutex_lock@PLT
	movq	56(%r14), %r14
	movq	8(%rsp), %r8
	testq	%r14, %r14
	movq	%r14, 24(%rsp)
	je	.L1331
	.p2align 4,,10
	.p2align 3
.L1334:
	movq	8(%r14), %rax
	testq	%rax, %rax
	je	.L1332
	movq	8(%rax), %rdi
	movq	_ZTSN4asio6detail14typeid_wrapperINS0_13epoll_reactorEEE@GOTPCREL(%rip), %rsi
	cmpq	%rsi, %rdi
	je	.L1333
	cmpb	$42, (%rdi)
	je	.L1332
	movq	%r8, 8(%rsp)
	call	strcmp@PLT
	movq	8(%rsp), %r8
	testl	%eax, %eax
	jne	.L1332
.L1333:
	movq	(%r8), %rax
	movq	%r8, %rdi
	call	*8(%rax)
	jmp	.L1329
	.p2align 4,,10
	.p2align 3
.L1332:
	movq	32(%r14), %r14
	testq	%r14, %r14
	jne	.L1334
.L1331:
	movq	24(%rsp), %rax
	movq	%r8, %r14
	movq	%rax, 32(%r8)
	movq	16(%rsp), %rax
	movq	%r8, 56(%rax)
	jmp	.L1329
	.p2align 4,,10
	.p2align 3
.L1335:
	movq	%rax, %xmm0
	punpcklqdq	%xmm0, %xmm0
	movups	%xmm0, 192(%rbx)
	jmp	.L1336
.L1393:
	call	__stack_chk_fail@PLT
.L1345:
	endbr64
	movq	%rax, %rbp
	jmp	.L1341
.L1346:
	endbr64
	movq	%rax, %rbx
.L1340:
	movq	%rbp, %rdi
	movq	%rbx, %rbp
	call	pthread_mutex_unlock@PLT
.L1341:
	movq	_ZTVN4asio6detail11timer_queueINS0_18chrono_time_traitsINSt6chrono3_V212steady_clockENS_11wait_traitsIS5_EEEEEE@GOTPCREL(%rip), %rax
	movq	64(%r12), %rdi
	addq	$16, %rax
	movq	%rax, 40(%r12)
	testq	%rdi, %rdi
	je	.L1342
	call	_ZdlPv@PLT
.L1342:
	movq	%r12, %rdi
	movl	$96, %esi
	call	_ZdlPvm@PLT
	movq	%rbp, %rdi
.LEHB37:
	call	_Unwind_Resume@PLT
.LEHE37:
	.cfi_endproc
.LFE8805:
	.section	.gcc_except_table
.LLSDA8805:
	.byte	0xff
	.byte	0xff
	.byte	0x1
	.uleb128 .LLSDACSE8805-.LLSDACSB8805
.LLSDACSB8805:
	.uleb128 .LEHB34-.LFB8805
	.uleb128 .LEHE34-.LEHB34
	.uleb128 0
	.uleb128 0
	.uleb128 .LEHB35-.LFB8805
	.uleb128 .LEHE35-.LEHB35
	.uleb128 .L1345-.LFB8805
	.uleb128 0
	.uleb128 .LEHB36-.LFB8805
	.uleb128 .LEHE36-.LEHB36
	.uleb128 .L1346-.LFB8805
	.uleb128 0
	.uleb128 .LEHB37-.LFB8805
	.uleb128 .LEHE37-.LEHB37
	.uleb128 0
	.uleb128 0
.LLSDACSE8805:
	.section	.text._ZN4asio6detail16service_registry6createINS_22waitable_timer_serviceINSt6chrono3_V212steady_clockENS_11wait_traitsIS6_EEEEEEPNS_10io_service7serviceERSA_,"axG",@progbits,_ZN4asio6detail16service_registry6createINS_22waitable_timer_serviceINSt6chrono3_V212steady_clockENS_11wait_traitsIS6_EEEEEEPNS_10io_service7serviceERSA_,comdat
	.size	_ZN4asio6detail16service_registry6createINS_22waitable_timer_serviceINSt6chrono3_V212steady_clockENS_11wait_traitsIS6_EEEEEEPNS_10io_service7serviceERSA_, .-_ZN4asio6detail16service_registry6createINS_22waitable_timer_serviceINSt6chrono3_V212steady_clockENS_11wait_traitsIS6_EEEEEEPNS_10io_service7serviceERSA_
	.section	.text._ZNSt6vectorIN4asio6detail11timer_queueINS1_18chrono_time_traitsINSt6chrono3_V212steady_clockENS0_11wait_traitsIS6_EEEEE10heap_entryESaISB_EE17_M_realloc_insertIJRKSB_EEEvN9__gnu_cxx17__normal_iteratorIPSB_SD_EEDpOT_,"axG",@progbits,_ZNSt6vectorIN4asio6detail11timer_queueINS1_18chrono_time_traitsINSt6chrono3_V212steady_clockENS0_11wait_traitsIS6_EEEEE10heap_entryESaISB_EE17_M_realloc_insertIJRKSB_EEEvN9__gnu_cxx17__normal_iteratorIPSB_SD_EEDpOT_,comdat
	.align 2
	.p2align 4
	.weak	_ZNSt6vectorIN4asio6detail11timer_queueINS1_18chrono_time_traitsINSt6chrono3_V212steady_clockENS0_11wait_traitsIS6_EEEEE10heap_entryESaISB_EE17_M_realloc_insertIJRKSB_EEEvN9__gnu_cxx17__normal_iteratorIPSB_SD_EEDpOT_
	.type	_ZNSt6vectorIN4asio6detail11timer_queueINS1_18chrono_time_traitsINSt6chrono3_V212steady_clockENS0_11wait_traitsIS6_EEEEE10heap_entryESaISB_EE17_M_realloc_insertIJRKSB_EEEvN9__gnu_cxx17__normal_iteratorIPSB_SD_EEDpOT_, @function
_ZNSt6vectorIN4asio6detail11timer_queueINS1_18chrono_time_traitsINSt6chrono3_V212steady_clockENS0_11wait_traitsIS6_EEEEE10heap_entryESaISB_EE17_M_realloc_insertIJRKSB_EEEvN9__gnu_cxx17__normal_iteratorIPSB_SD_EEDpOT_:
.LFB9172:
	.cfi_startproc
	endbr64
	pushq	%r15
	.cfi_def_cfa_offset 16
	.cfi_offset 15, -16
	pushq	%r14
	.cfi_def_cfa_offset 24
	.cfi_offset 14, -24
	pushq	%r13
	.cfi_def_cfa_offset 32
	.cfi_offset 13, -32
	pushq	%r12
	.cfi_def_cfa_offset 40
	.cfi_offset 12, -40
	pushq	%rbp
	.cfi_def_cfa_offset 48
	.cfi_offset 6, -48
	pushq	%rbx
	.cfi_def_cfa_offset 56
	.cfi_offset 3, -56
	movq	%rsi, %rbx
	movabsq	$576460752303423487, %rsi
	subq	$24, %rsp
	.cfi_def_cfa_offset 80
	movq	8(%rdi), %rbp
	movq	(%rdi), %r14
	movq	%rbp, %rax
	subq	%r14, %rax
	sarq	$4, %rax
	cmpq	%rsi, %rax
	je	.L1413
	movq	%rbx, %rcx
	movq	%rdi, %r12
	subq	%r14, %rcx
	testq	%rax, %rax
	je	.L1404
	movabsq	$9223372036854775792, %r15
	leaq	(%rax,%rax), %rdi
	cmpq	%rdi, %rax
	jbe	.L1414
.L1396:
	movq	%r15, %rdi
	movq	%rdx, 8(%rsp)
	movq	%rcx, (%rsp)
	call	_Znwm@PLT
	movq	(%rsp), %rcx
	movq	8(%rsp), %rdx
	movq	%rax, %r13
	addq	%rax, %r15
	leaq	16(%rax), %rax
.L1403:
	movq	8(%rdx), %rsi
	movq	(%rdx), %rdx
	addq	%r13, %rcx
	movq	%rdx, (%rcx)
	movq	%rsi, 8(%rcx)
	cmpq	%r14, %rbx
	je	.L1398
	movq	%r13, %rcx
	movq	%r14, %rdx
	.p2align 4,,10
	.p2align 3
.L1399:
	movq	(%rdx), %rax
	movq	8(%rdx), %rsi
	addq	$16, %rdx
	addq	$16, %rcx
	movq	%rax, -16(%rcx)
	movq	%rsi, -8(%rcx)
	cmpq	%rdx, %rbx
	jne	.L1399
	movq	%rbx, %rax
	subq	%r14, %rax
	leaq	16(%r13,%rax), %rax
.L1398:
	cmpq	%rbp, %rbx
	je	.L1400
	movq	%rbx, %rdx
	movq	%rax, %rcx
	.p2align 4,,10
	.p2align 3
.L1401:
	movq	8(%rdx), %rsi
	movq	(%rdx), %rdi
	addq	$16, %rdx
	addq	$16, %rcx
	movq	%rdi, -16(%rcx)
	movq	%rsi, -8(%rcx)
	cmpq	%rbp, %rdx
	jne	.L1401
	subq	%rbx, %rdx
	addq	%rdx, %rax
.L1400:
	testq	%r14, %r14
	je	.L1402
	movq	%r14, %rdi
	movq	%rax, (%rsp)
	call	_ZdlPv@PLT
	movq	(%rsp), %rax
.L1402:
	movq	%r13, %xmm0
	movq	%rax, %xmm1
	movq	%r15, 16(%r12)
	punpcklqdq	%xmm1, %xmm0
	movups	%xmm0, (%r12)
	addq	$24, %rsp
	.cfi_remember_state
	.cfi_def_cfa_offset 56
	popq	%rbx
	.cfi_def_cfa_offset 48
	popq	%rbp
	.cfi_def_cfa_offset 40
	popq	%r12
	.cfi_def_cfa_offset 32
	popq	%r13
	.cfi_def_cfa_offset 24
	popq	%r14
	.cfi_def_cfa_offset 16
	popq	%r15
	.cfi_def_cfa_offset 8
	ret
	.p2align 4,,10
	.p2align 3
.L1414:
	.cfi_restore_state
	testq	%rdi, %rdi
	jne	.L1397
	movl	$16, %eax
	xorl	%r15d, %r15d
	xorl	%r13d, %r13d
	jmp	.L1403
	.p2align 4,,10
	.p2align 3
.L1404:
	movl	$16, %r15d
	jmp	.L1396
.L1397:
	cmpq	%rsi, %rdi
	cmovbe	%rdi, %rsi
	movq	%rsi, %r15
	salq	$4, %r15
	jmp	.L1396
.L1413:
	leaq	.LC34(%rip), %rdi
	call	_ZSt20__throw_length_errorPKc@PLT
	.cfi_endproc
.LFE9172:
	.size	_ZNSt6vectorIN4asio6detail11timer_queueINS1_18chrono_time_traitsINSt6chrono3_V212steady_clockENS0_11wait_traitsIS6_EEEEE10heap_entryESaISB_EE17_M_realloc_insertIJRKSB_EEEvN9__gnu_cxx17__normal_iteratorIPSB_SD_EEDpOT_, .-_ZNSt6vectorIN4asio6detail11timer_queueINS1_18chrono_time_traitsINSt6chrono3_V212steady_clockENS0_11wait_traitsIS6_EEEEE10heap_entryESaISB_EE17_M_realloc_insertIJRKSB_EEEvN9__gnu_cxx17__normal_iteratorIPSB_SD_EEDpOT_
	.section	.text._ZN4asio6detail13epoll_reactor14schedule_timerINS0_18chrono_time_traitsINSt6chrono3_V212steady_clockENS_11wait_traitsIS6_EEEEEEvRNS0_11timer_queueIT_EERKNSB_9time_typeERNSC_14per_timer_dataEPNS0_7wait_opE,"axG",@progbits,_ZN4asio6detail13epoll_reactor14schedule_timerINS0_18chrono_time_traitsINSt6chrono3_V212steady_clockENS_11wait_traitsIS6_EEEEEEvRNS0_11timer_queueIT_EERKNSB_9time_typeERNSC_14per_timer_dataEPNS0_7wait_opE,comdat
	.align 2
	.p2align 4
	.weak	_ZN4asio6detail13epoll_reactor14schedule_timerINS0_18chrono_time_traitsINSt6chrono3_V212steady_clockENS_11wait_traitsIS6_EEEEEEvRNS0_11timer_queueIT_EERKNSB_9time_typeERNSC_14per_timer_dataEPNS0_7wait_opE
	.type	_ZN4asio6detail13epoll_reactor14schedule_timerINS0_18chrono_time_traitsINSt6chrono3_V212steady_clockENS_11wait_traitsIS6_EEEEEEvRNS0_11timer_queueIT_EERKNSB_9time_typeERNSC_14per_timer_dataEPNS0_7wait_opE, @function
_ZN4asio6detail13epoll_reactor14schedule_timerINS0_18chrono_time_traitsINSt6chrono3_V212steady_clockENS_11wait_traitsIS6_EEEEEEvRNS0_11timer_queueIT_EERKNSB_9time_typeERNSC_14per_timer_dataEPNS0_7wait_opE:
.LFB8635:
	.cfi_startproc
	.cfi_personality 0x9b,DW.ref.__gxx_personality_v0
	.cfi_lsda 0x1b,.LLSDA8635
	endbr64
	pushq	%r15
	.cfi_def_cfa_offset 16
	.cfi_offset 15, -16
	movq	%rdx, %r15
	pushq	%r14
	.cfi_def_cfa_offset 24
	.cfi_offset 14, -24
	movq	%rsi, %r14
	pushq	%r13
	.cfi_def_cfa_offset 32
	.cfi_offset 13, -32
	movq	%r8, %r13
	pushq	%r12
	.cfi_def_cfa_offset 40
	.cfi_offset 12, -40
	leaq	48(%rdi), %r12
	pushq	%rbp
	.cfi_def_cfa_offset 48
	.cfi_offset 6, -48
	movq	%rdi, %rbp
	movq	%r12, %rdi
	pushq	%rbx
	.cfi_def_cfa_offset 56
	.cfi_offset 3, -56
	movq	%rcx, %rbx
	subq	$88, %rsp
	.cfi_def_cfa_offset 144
	movq	%fs:40, %rax
	movq	%rax, 72(%rsp)
	xorl	%eax, %eax
	call	pthread_mutex_lock@PLT
	cmpb	$0, 112(%rbp)
	jne	.L1484
	cmpq	$0, 32(%rbx)
	je	.L1485
.L1429:
	movq	40(%rbp), %rax
	movq	8(%rbx), %rdx
	movq	$0, 0(%r13)
	movq	16(%rbx), %rcx
	addq	$184, %rax
	testq	%rdx, %rdx
	je	.L1437
	movq	%r13, (%rdx)
	movq	%r13, 8(%rbx)
	testq	%rcx, %rcx
	jne	.L1483
	cmpq	(%rbx), %r13
	je	.L1440
.L1483:
	lock addq	$1, (%rax)
.L1439:
	movq	%r12, %rdi
	call	pthread_mutex_unlock@PLT
	movq	72(%rsp), %rax
	xorq	%fs:40, %rax
	jne	.L1486
	addq	$88, %rsp
	.cfi_remember_state
	.cfi_def_cfa_offset 56
	popq	%rbx
	.cfi_def_cfa_offset 48
	popq	%rbp
	.cfi_def_cfa_offset 40
	popq	%r12
	.cfi_def_cfa_offset 32
	popq	%r13
	.cfi_def_cfa_offset 24
	popq	%r14
	.cfi_def_cfa_offset 16
	popq	%r15
	.cfi_def_cfa_offset 8
	ret
	.p2align 4,,10
	.p2align 3
.L1484:
	.cfi_restore_state
	movq	40(%rbp), %rbx
	cmpb	$0, 40(%rbx)
	je	.L1417
	data16	leaq	_ZN4asio6detail15keyword_tss_ptrINS0_10call_stackINS0_15task_io_serviceENS0_27task_io_service_thread_infoEE7contextEE6value_E@tlsgd(%rip), %rdi
	.value	0x6666
	rex64
	call	__tls_get_addr@PLT
	movq	(%rax), %rax
	testq	%rax, %rax
	jne	.L1420
	jmp	.L1417
	.p2align 4,,10
	.p2align 3
.L1418:
	movq	16(%rax), %rax
	testq	%rax, %rax
	je	.L1417
.L1420:
	cmpq	(%rax), %rbx
	jne	.L1418
	movq	8(%rax), %rax
	testq	%rax, %rax
	je	.L1417
	addq	$1, 24(%rax)
	cmpq	$0, 16(%rax)
	movq	$0, 0(%r13)
	je	.L1421
	movq	16(%rax), %rdx
	movq	%r13, (%rdx)
	movq	%r13, 16(%rax)
	jmp	.L1439
	.p2align 4,,10
	.p2align 3
.L1417:
	lock addq	$1, 184(%rbx)
	leaq	48(%rbx), %rbp
	movq	%rbp, %rdi
	call	pthread_mutex_lock@PLT
	cmpq	$0, 200(%rbx)
	movq	$0, 0(%r13)
	je	.L1423
	movq	200(%rbx), %rax
	movq	%r13, (%rax)
	movq	%r13, 200(%rbx)
.L1424:
	movq	136(%rbx), %rax
	orq	$1, %rax
	movq	%rax, 136(%rbx)
	cmpq	$1, %rax
	je	.L1425
	movq	%rbp, %rdi
	call	pthread_mutex_unlock@PLT
	leaq	88(%rbx), %rdi
	call	pthread_cond_signal@PLT
	jmp	.L1439
	.p2align 4,,10
	.p2align 3
.L1437:
	movq	%r13, %xmm0
	punpcklqdq	%xmm0, %xmm0
	movups	%xmm0, (%rbx)
	testq	%rcx, %rcx
	jne	.L1483
.L1440:
	lock addq	$1, (%rax)
	movl	100(%rbp), %edi
	cmpl	$-1, %edi
	je	.L1442
	movq	104(%rbp), %rbx
	pxor	%xmm0, %xmm0
	movaps	%xmm0, (%rsp)
	testq	%rbx, %rbx
	je	.L1443
	movq	_ZNK4asio6detail11timer_queueINS0_18chrono_time_traitsINSt6chrono3_V212steady_clockENS_11wait_traitsIS5_EEEEE18wait_duration_usecEl@GOTPCREL(%rip), %r13
	movl	$300000000, %r15d
	movabsq	$2361183241434822607, %r14
	jmp	.L1453
	.p2align 4,,10
	.p2align 3
.L1489:
	testq	%rax, %rax
	js	.L1447
.L1482:
	movq	%rdx, %rcx
	subq	%rax, %rcx
	testq	%rcx, %rcx
	jle	.L1461
	movq	%rcx, %rax
	sarq	$63, %rcx
	imulq	%r14
	sarq	$7, %rdx
	subq	%rcx, %rdx
.L1450:
	testq	%rdx, %rdx
	je	.L1487
.L1449:
	cmpq	%rdx, %r15
	cmovg	%rdx, %r15
.L1445:
	movq	8(%rbx), %rbx
	testq	%rbx, %rbx
	je	.L1488
.L1453:
	movq	(%rbx), %rax
	movq	32(%rax), %rax
	cmpq	%r13, %rax
	jne	.L1444
	movq	24(%rbx), %rax
	cmpq	%rax, 32(%rbx)
	je	.L1445
	call	_ZNSt6chrono3_V212steady_clock3nowEv@PLT
	movq	24(%rbx), %rdx
	movq	(%rdx), %rdx
	testq	%rdx, %rdx
	jns	.L1489
	testq	%rax, %rax
	js	.L1482
.L1461:
	movq	8(%rbx), %rbx
	xorl	%r15d, %r15d
	testq	%rbx, %rbx
	jne	.L1453
	.p2align 4,,10
	.p2align 3
.L1488:
	movq	%r15, %rax
	xorl	%r8d, %r8d
	movl	100(%rbp), %edi
	movabsq	$4835703278458516699, %rdx
	imulq	%rdx
	movq	%r15, %rax
	sarq	$63, %rax
	sarq	$18, %rdx
	subq	%rax, %rdx
	testq	%r15, %r15
	movl	$1, %eax
	movq	%rdx, 16(%rsp)
	sete	%r8b
	je	.L1455
	imulq	$1000000, %rdx, %rdx
	movq	%r15, %rsi
	subq	%rdx, %rsi
	imulq	$1000, %rsi, %rax
.L1455:
	leaq	32(%rsp), %rcx
	movq	%rsp, %rdx
	movl	%r8d, %esi
	movq	%rax, 24(%rsp)
	call	timerfd_settime@PLT
	jmp	.L1439
	.p2align 4,,10
	.p2align 3
.L1485:
	movq	16(%r14), %r9
	cmpq	%r9, %rbx
	je	.L1429
	movq	32(%r14), %rsi
	movq	24(%r14), %r8
	movq	%rbx, 40(%rsp)
	movq	%rsi, %rax
	subq	%r8, %rax
	sarq	$4, %rax
	movq	%rax, 16(%rbx)
	movq	(%r15), %rax
	movq	%rax, 32(%rsp)
	cmpq	40(%r14), %rsi
	je	.L1430
	movq	%rax, (%rsi)
	addq	$16, %rsi
	movq	%rbx, -8(%rsi)
	movq	%rsi, 32(%r14)
.L1431:
	movq	%rsi, %rax
	subq	%r8, %rax
	sarq	$4, %rax
	subq	$1, %rax
	je	.L1435
	movq	-16(%rsi), %r10
	jmp	.L1436
	.p2align 4,,10
	.p2align 3
.L1490:
	movq	8(%rcx), %rdi
	movdqu	(%rdx), %xmm1
	movups	%xmm1, (%rcx)
	movq	%r10, (%rdx)
	movq	%rdi, 8(%rdx)
	movq	8(%rcx), %rdx
	movq	%rsi, 16(%rdx)
	movq	%rax, 16(%rdi)
	testq	%rax, %rax
	je	.L1435
.L1436:
	movq	%rax, %rsi
	leaq	-1(%rax), %rax
	shrq	%rax
	movq	%rsi, %rcx
	movq	%rax, %rdx
	salq	$4, %rcx
	salq	$4, %rdx
	addq	%r8, %rcx
	addq	%r8, %rdx
	cmpq	%r10, (%rdx)
	jg	.L1490
.L1435:
	movq	%r9, 24(%rbx)
	movq	$0, 32(%rbx)
	testq	%r9, %r9
	je	.L1434
	movq	%rbx, 32(%r9)
.L1434:
	movq	%rbx, 16(%r14)
	jmp	.L1429
	.p2align 4,,10
	.p2align 3
.L1442:
	movl	88(%rbp), %edx
	movl	96(%rbp), %edi
	leaq	88(%rbp), %rax
	leaq	32(%rsp), %rcx
	movl	$3, %esi
	movl	$-2147483639, 32(%rsp)
	movq	%rax, 36(%rsp)
	call	epoll_ctl@PLT
	jmp	.L1439
	.p2align 4,,10
	.p2align 3
.L1423:
	movq	%r13, %xmm0
	punpcklqdq	%xmm0, %xmm0
	movups	%xmm0, 192(%rbx)
	jmp	.L1424
	.p2align 4,,10
	.p2align 3
.L1444:
	movq	%r15, %rsi
	movq	%rbx, %rdi
.LEHB38:
	call	*%rax
	movq	%rax, %r15
	jmp	.L1445
	.p2align 4,,10
	.p2align 3
.L1487:
	movl	$1, %r15d
	jmp	.L1445
	.p2align 4,,10
	.p2align 3
.L1425:
	cmpb	$0, 176(%rbx)
	jne	.L1427
	movq	144(%rbx), %rax
	testq	%rax, %rax
	je	.L1427
	movb	$1, 176(%rbx)
	leaq	88(%rax), %rdx
	leaq	32(%rsp), %rcx
	movl	$3, %esi
	movl	$-2147483639, 32(%rsp)
	movq	%rdx, 36(%rsp)
	movl	88(%rax), %edx
	movl	96(%rax), %edi
	call	epoll_ctl@PLT
.L1427:
	movq	%rbp, %rdi
	call	pthread_mutex_unlock@PLT
	jmp	.L1439
	.p2align 4,,10
	.p2align 3
.L1447:
	movabsq	$-9223372036854775808, %rsi
	cmpq	%rsi, %rax
	je	.L1459
	movabsq	$9223372036854775807, %rcx
	movq	%rax, %rdi
	negq	%rdi
	subq	%rdx, %rcx
	cmpq	%rcx, %rdi
	jg	.L1459
	subq	%rax, %rdx
	shrq	$3, %rdx
	movq	%rdx, %rax
	mulq	%r14
	shrq	$4, %rdx
	jmp	.L1450
	.p2align 4,,10
	.p2align 3
.L1459:
	movabsq	$9223372036854775, %rdx
	jmp	.L1449
	.p2align 4,,10
	.p2align 3
.L1421:
	movq	%r13, %xmm0
	punpcklqdq	%xmm0, %xmm0
	movups	%xmm0, 8(%rax)
	jmp	.L1439
	.p2align 4,,10
	.p2align 3
.L1430:
	leaq	32(%rsp), %rdx
	leaq	24(%r14), %rdi
	call	_ZNSt6vectorIN4asio6detail11timer_queueINS1_18chrono_time_traitsINSt6chrono3_V212steady_clockENS0_11wait_traitsIS6_EEEEE10heap_entryESaISB_EE17_M_realloc_insertIJRKSB_EEEvN9__gnu_cxx17__normal_iteratorIPSB_SD_EEDpOT_@PLT
.LEHE38:
	movq	24(%r14), %r8
	movq	32(%r14), %rsi
	movq	16(%r14), %r9
	jmp	.L1431
	.p2align 4,,10
	.p2align 3
.L1443:
	movq	$300, 16(%rsp)
	xorl	%r8d, %r8d
	xorl	%eax, %eax
	jmp	.L1455
.L1486:
	call	__stack_chk_fail@PLT
.L1464:
	endbr64
	movq	%rax, %rbp
.L1456:
	movq	%r12, %rdi
	call	pthread_mutex_unlock@PLT
	movq	%rbp, %rdi
.LEHB39:
	call	_Unwind_Resume@PLT
.LEHE39:
	.cfi_endproc
.LFE8635:
	.section	.gcc_except_table
.LLSDA8635:
	.byte	0xff
	.byte	0xff
	.byte	0x1
	.uleb128 .LLSDACSE8635-.LLSDACSB8635
.LLSDACSB8635:
	.uleb128 .LEHB38-.LFB8635
	.uleb128 .LEHE38-.LEHB38
	.uleb128 .L1464-.LFB8635
	.uleb128 0
	.uleb128 .LEHB39-.LFB8635
	.uleb128 .LEHE39-.LEHB39
	.uleb128 0
	.uleb128 0
.LLSDACSE8635:
	.section	.text._ZN4asio6detail13epoll_reactor14schedule_timerINS0_18chrono_time_traitsINSt6chrono3_V212steady_clockENS_11wait_traitsIS6_EEEEEEvRNS0_11timer_queueIT_EERKNSB_9time_typeERNSC_14per_timer_dataEPNS0_7wait_opE,"axG",@progbits,_ZN4asio6detail13epoll_reactor14schedule_timerINS0_18chrono_time_traitsINSt6chrono3_V212steady_clockENS_11wait_traitsIS6_EEEEEEvRNS0_11timer_queueIT_EERKNSB_9time_typeERNSC_14per_timer_dataEPNS0_7wait_opE,comdat
	.size	_ZN4asio6detail13epoll_reactor14schedule_timerINS0_18chrono_time_traitsINSt6chrono3_V212steady_clockENS_11wait_traitsIS6_EEEEEEvRNS0_11timer_queueIT_EERKNSB_9time_typeERNSC_14per_timer_dataEPNS0_7wait_opE, .-_ZN4asio6detail13epoll_reactor14schedule_timerINS0_18chrono_time_traitsINSt6chrono3_V212steady_clockENS_11wait_traitsIS6_EEEEEEvRNS0_11timer_queueIT_EERKNSB_9time_typeERNSC_14per_timer_dataEPNS0_7wait_opE
	.section	.rodata.str1.8
	.align 8
.LC35:
	.string	"Concurrency was set to 0, defaulting to 1 thread"
	.align 8
.LC36:
	.string	"/home/kimchaer/Desktop/OpenPLC_v3/utils/dnp3_src/cpp/libs/src/asiopal/ThreadPool.cpp(51)"
	.section	.text.unlikely
	.align 2
.LCOLDB37:
	.text
.LHOTB37:
	.align 2
	.p2align 4
	.globl	_ZN7asiopal10ThreadPoolC2ERKN7openpal6LoggerERKSt10shared_ptrINS_2IOEEjSt8functionIFvvEESC_
	.type	_ZN7asiopal10ThreadPoolC2ERKN7openpal6LoggerERKSt10shared_ptrINS_2IOEEjSt8functionIFvvEESC_, @function
_ZN7asiopal10ThreadPoolC2ERKN7openpal6LoggerERKSt10shared_ptrINS_2IOEEjSt8functionIFvvEESC_:
.LFB6932:
	.cfi_startproc
	.cfi_personality 0x9b,DW.ref.__gxx_personality_v0
	.cfi_lsda 0x1b,.LLSDA6932
	endbr64
	pushq	%r15
	.cfi_def_cfa_offset 16
	.cfi_offset 15, -16
	pushq	%r14
	.cfi_def_cfa_offset 24
	.cfi_offset 14, -24
	movl	%ecx, %r14d
	pushq	%r13
	.cfi_def_cfa_offset 32
	.cfi_offset 13, -32
	movq	%r8, %r13
	pushq	%r12
	.cfi_def_cfa_offset 40
	.cfi_offset 12, -40
	movq	%r9, %r12
	pushq	%rbp
	.cfi_def_cfa_offset 48
	.cfi_offset 6, -48
	movq	%rdi, %rbp
	pushq	%rbx
	.cfi_def_cfa_offset 56
	.cfi_offset 3, -56
	movq	%rdx, %rbx
	subq	$72, %rsp
	.cfi_def_cfa_offset 128
	movq	%fs:40, %rax
	movq	%rax, 56(%rsp)
	xorl	%eax, %eax
	movq	(%rsi), %rax
	movq	%rax, (%rdi)
	movq	8(%rsi), %rax
	movq	%rax, 8(%rdi)
	testq	%rax, %rax
	je	.L1492
	cmpq	$0, _ZL28__gthrw___pthread_key_createPjPFvPvE@GOTPCREL(%rip)
	je	.L1493
	lock addl	$1, 8(%rax)
.L1492:
	movq	16(%rsi), %rax
	movq	%rax, 16(%rbp)
	movq	24(%rsi), %rax
	movq	%rax, 24(%rbp)
	testq	%rax, %rax
	je	.L1494
	cmpq	$0, _ZL28__gthrw___pthread_key_createPjPFvPvE@GOTPCREL(%rip)
	je	.L1495
	lock addl	$1, 8(%rax)
.L1494:
	movq	(%rbx), %rax
	movq	%rax, 32(%rbp)
	movq	8(%rbx), %rax
	movq	%rax, 40(%rbp)
	testq	%rax, %rax
	je	.L1496
	cmpq	$0, _ZL28__gthrw___pthread_key_createPjPFvPvE@GOTPCREL(%rip)
	je	.L1497
	lock addl	$1, 8(%rax)
.L1496:
	leaq	48(%rbp), %rax
	movq	$0, 64(%rbp)
	movq	%rax, 16(%rsp)
	movq	%rax, %rdi
	movq	16(%r13), %rax
	testq	%rax, %rax
	je	.L1498
	movl	$2, %edx
	movq	%r13, %rsi
.LEHB40:
	call	*%rax
.LEHE40:
	movdqu	16(%r13), %xmm1
	movups	%xmm1, 64(%rbp)
.L1498:
	leaq	80(%rbp), %rax
	movq	$0, 96(%rbp)
	movq	%rax, 24(%rsp)
	movq	16(%r12), %rax
	testq	%rax, %rax
	je	.L1500
	movl	$2, %edx
	movq	%r12, %rsi
	leaq	80(%rbp), %rdi
.LEHB41:
	call	*%rax
.LEHE41:
	movdqu	16(%r12), %xmm2
	movups	%xmm2, 96(%rbp)
.L1500:
	movq	(%rbx), %rax
	movb	$0, 112(%rbp)
	movq	8(%rax), %r12
	leaq	8(%r12), %r13
	movq	%r13, %rdi
	call	pthread_mutex_lock@PLT
	movq	56(%r12), %rbx
	testq	%rbx, %rbx
	je	.L1504
	.p2align 4,,10
	.p2align 3
.L1505:
	movq	8(%rbx), %rax
	testq	%rax, %rax
	je	.L1509
	movq	8(%rax), %rdi
	movq	_ZTSN4asio6detail14typeid_wrapperINS_22waitable_timer_serviceINSt6chrono3_V212steady_clockENS_11wait_traitsIS5_EEEEEE@GOTPCREL(%rip), %rsi
	cmpq	%rsi, %rdi
	je	.L1510
	cmpb	$42, (%rdi)
	je	.L1509
	call	strcmp@PLT
	testl	%eax, %eax
	jne	.L1509
.L1510:
	movq	%r13, %rdi
	call	pthread_mutex_unlock@PLT
	pxor	%xmm0, %xmm0
	movq	%rbx, 120(%rbp)
	leaq	184(%rbp), %rax
	movq	$0, 128(%rbp)
	movb	$0, 136(%rbp)
	movq	%rax, 8(%rsp)
	movq	$0, 200(%rbp)
	movups	%xmm0, 144(%rbp)
	movups	%xmm0, 168(%rbp)
	movups	%xmm0, 184(%rbp)
	testl	%r14d, %r14d
	je	.L1515
	call	_ZNSt3_V215system_categoryEv@PLT
	leaq	128(%rbp), %r13
	movq	%rax, %r15
.L1516:
	movabsq	$9223372036854775807, %rax
	movq	%rax, 128(%rbp)
	data16	leaq	_ZN4asio6detail15keyword_tss_ptrINS0_10call_stackINS0_15task_io_serviceENS0_27task_io_service_thread_infoEE7contextEE6value_E@tlsgd(%rip), %rdi
	.value	0x6666
	rex64
	call	__tls_get_addr@PLT
	movq	(%rax), %rax
	testq	%rax, %rax
	je	.L1519
	movq	8(%rax), %rax
	testq	%rax, %rax
	je	.L1519
	movq	(%rax), %r12
	testq	%r12, %r12
	je	.L1519
	movq	$0, (%rax)
	movzbl	(%r12), %eax
	cmpb	$47, %al
	jbe	.L1520
	movb	%al, 48(%r12)
	jmp	.L1521
	.p2align 4,,10
	.p2align 3
.L1509:
	movq	32(%rbx), %rbx
	testq	%rbx, %rbx
	jne	.L1505
.L1504:
	movq	%r13, %rdi
	call	pthread_mutex_unlock@PLT
	movq	48(%r12), %rdi
.LEHB42:
	call	_ZN4asio6detail16service_registry6createINS_22waitable_timer_serviceINSt6chrono3_V212steady_clockENS_11wait_traitsIS6_EEEEEEPNS_10io_service7serviceERSA_@PLT
.LEHE42:
	movq	%rax, %r15
	movq	_ZTIN4asio6detail14typeid_wrapperINS_22waitable_timer_serviceINSt6chrono3_V212steady_clockENS_11wait_traitsIS5_EEEEEE@GOTPCREL(%rip), %rax
	movq	%r13, %rdi
	movq	$0, 16(%r15)
	movq	%rax, 8(%r15)
	call	pthread_mutex_lock@PLT
	movq	56(%r12), %rax
	movq	%rax, 8(%rsp)
	testq	%rax, %rax
	je	.L1511
	movq	%rax, %rbx
	.p2align 4,,10
	.p2align 3
.L1514:
	movq	8(%rbx), %rax
	testq	%rax, %rax
	je	.L1512
	movq	8(%rax), %rdi
	movq	_ZTSN4asio6detail14typeid_wrapperINS_22waitable_timer_serviceINSt6chrono3_V212steady_clockENS_11wait_traitsIS5_EEEEEE@GOTPCREL(%rip), %rsi
	cmpq	%rsi, %rdi
	je	.L1513
	cmpb	$42, (%rdi)
	je	.L1512
	call	strcmp@PLT
	testl	%eax, %eax
	jne	.L1512
.L1513:
	movq	(%r15), %rax
	movq	%r15, %rdi
	call	*8(%rax)
	jmp	.L1510
	.p2align 4,,10
	.p2align 3
.L1520:
	movq	%r12, %rdi
	call	_ZdlPv@PLT
.L1519:
	movl	$49, %edi
.LEHB43:
	call	_Znwm@PLT
.LEHE43:
	movb	$48, 48(%rax)
	movq	%rax, %r12
.L1521:
	leaq	_ZN4asio6detail12wait_handlerIZN7asiopal10ThreadPoolC4ERKN7openpal6LoggerERKSt10shared_ptrINS2_2IOEEjSt8functionIFvvEESF_EUlRKSt10error_codeE_E11do_completeEPNS0_15task_io_serviceEPNS0_25task_io_service_operationESI_m(%rip), %rax
	movq	88(%rbx), %rdi
	movq	%r12, %r8
	movq	$0, (%r12)
	movq	%rax, 8(%r12)
	leaq	144(%rbp), %rcx
	leaq	40(%rbx), %rsi
	movq	%r13, %rdx
	movl	$0, 16(%r12)
	movl	$0, 24(%r12)
	movq	%r15, 32(%r12)
	movb	$1, 136(%rbp)
.LEHB44:
	call	_ZN4asio6detail13epoll_reactor14schedule_timerINS0_18chrono_time_traitsINSt6chrono3_V212steady_clockENS_11wait_traitsIS6_EEEEEEvRNS0_11timer_queueIT_EERKNSB_9time_typeERNSC_14per_timer_dataEPNS0_7wait_opE@PLT
.LEHE44:
	xorl	%ebx, %ebx
	leaq	16+_ZTVNSt6thread11_State_implINS_8_InvokerISt5tupleIJZN7asiopal10ThreadPoolC4ERKN7openpal6LoggerERKSt10shared_ptrINS3_2IOEEjSt8functionIFvvEESG_EUlvE0_EEEEEE(%rip), %r15
	jmp	.L1522
	.p2align 4,,10
	.p2align 3
.L1528:
	movq	$0, 32(%rsp)
	addq	$8, %rsi
	movq	%r12, -8(%rsi)
	movq	%rsi, 192(%rbp)
.L1533:
	movq	32(%rsp), %rdi
	testq	%rdi, %rdi
	je	.L1534
	cmpq	$0, (%rdi)
	jne	.L1538
	movl	$8, %esi
	call	_ZdlPvm@PLT
.L1534:
	addl	$1, %ebx
	cmpl	%r14d, %ebx
	je	.L1646
.L1522:
	movl	$8, %edi
.LEHB45:
	call	_Znwm@PLT
.LEHE45:
	movq	$0, (%rax)
	movl	$24, %edi
	movq	%rax, %r12
.LEHB46:
	call	_Znwm@PLT
.LEHE46:
	movq	%r15, (%rax)
	leaq	32(%rsp), %r13
	movq	pthread_create@GOTPCREL(%rip), %rdx
	movq	%r12, %rdi
	movq	%rbp, 8(%rax)
	movq	%r13, %rsi
	movl	%ebx, 16(%rax)
	movq	%rax, 32(%rsp)
.LEHB47:
	call	_ZNSt6thread15_M_start_threadESt10unique_ptrINS_6_StateESt14default_deleteIS1_EEPFvvE@PLT
.LEHE47:
	movq	32(%rsp), %rdi
	testq	%rdi, %rdi
	je	.L1527
	movq	(%rdi), %rax
	call	*8(%rax)
.L1527:
	movq	%r12, 32(%rsp)
	movq	192(%rbp), %rsi
	cmpq	200(%rbp), %rsi
	jne	.L1528
	movq	8(%rsp), %rdi
	movq	%r13, %rdx
.LEHB48:
	call	_ZNSt6vectorISt10unique_ptrISt6threadSt14default_deleteIS1_EESaIS4_EE17_M_realloc_insertIJS4_EEEvN9__gnu_cxx17__normal_iteratorIPS4_S6_EEDpOT_@PLT
.LEHE48:
	jmp	.L1533
	.p2align 4,,10
	.p2align 3
.L1646:
	movq	56(%rsp), %rax
	xorq	%fs:40, %rax
	jne	.L1647
	addq	$72, %rsp
	.cfi_remember_state
	.cfi_def_cfa_offset 56
	popq	%rbx
	.cfi_def_cfa_offset 48
	popq	%rbp
	.cfi_def_cfa_offset 40
	popq	%r12
	.cfi_def_cfa_offset 32
	popq	%r13
	.cfi_def_cfa_offset 24
	popq	%r14
	.cfi_def_cfa_offset 16
	popq	%r15
	.cfi_def_cfa_offset 8
	ret
	.p2align 4,,10
	.p2align 3
.L1515:
	.cfi_restore_state
	leaq	32(%rsp), %r13
	movq	%rbp, %rdi
	movl	$4, 32(%rsp)
	movq	%r13, %rsi
.LEHB49:
	call	_ZNK7openpal6Logger9IsEnabledERKNS_10LogFiltersE@PLT
	testb	%al, %al
	jne	.L1517
.L1645:
	call	_ZNSt3_V215system_categoryEv@PLT
	movzbl	136(%rbp), %r12d
	movq	120(%rbp), %rbx
	leaq	128(%rbp), %r13
	movq	%rax, %r15
	testb	%r12b, %r12b
	je	.L1552
	movq	88(%rbx), %rdi
	leaq	40(%rbx), %rsi
	leaq	144(%rbp), %rdx
	movl	$1, %r14d
	call	_ZN4asio6detail13epoll_reactor12cancel_timerINS0_18chrono_time_traitsINSt6chrono3_V212steady_clockENS_11wait_traitsIS6_EEEEEEmRNS0_11timer_queueIT_EERNSC_14per_timer_dataEm.constprop.0
	movb	$0, 136(%rbp)
	movq	120(%rbp), %rbx
	jmp	.L1516
	.p2align 4,,10
	.p2align 3
.L1495:
	addl	$1, 8(%rax)
	jmp	.L1494
	.p2align 4,,10
	.p2align 3
.L1493:
	addl	$1, 8(%rax)
	jmp	.L1492
	.p2align 4,,10
	.p2align 3
.L1497:
	addl	$1, 8(%rax)
	jmp	.L1496
	.p2align 4,,10
	.p2align 3
.L1512:
	movq	32(%rbx), %rbx
	testq	%rbx, %rbx
	jne	.L1514
.L1511:
	movq	8(%rsp), %rax
	movq	%r15, %rbx
	movq	%rax, 32(%r15)
	movq	%r15, 56(%r12)
	jmp	.L1510
	.p2align 4,,10
	.p2align 3
.L1517:
	leaq	.LC35(%rip), %rcx
	leaq	.LC36(%rip), %rdx
	movq	%r13, %rsi
	movq	%rbp, %rdi
	movl	$4, 32(%rsp)
	call	_ZN7openpal6Logger3LogERKNS_10LogFiltersEPKcS5_@PLT
.LEHE49:
	jmp	.L1645
	.p2align 4,,10
	.p2align 3
.L1552:
	movl	$1, %r14d
	jmp	.L1516
.L1538:
	call	_ZSt9terminatev@PLT
.L1647:
	call	__stack_chk_fail@PLT
.L1553:
	endbr64
	movq	%rax, %r12
	jmp	.L1547
.L1554:
	endbr64
	movq	%rax, %rbx
	jmp	.L1526
.L1557:
	endbr64
	movq	%rax, %r12
	jmp	.L1506
.L1556:
	endbr64
	movq	%rax, %r12
	jmp	.L1501
.L1558:
	endbr64
	movq	%rax, %rbx
	jmp	.L1523
.L1555:
	endbr64
	movq	%rax, %rbx
	jmp	.L1536
.L1560:
	endbr64
	movq	%rax, %rbx
	jmp	.L1530
.L1559:
	endbr64
	movq	%rax, %rbx
	jmp	.L1532
	.section	.gcc_except_table
.LLSDA6932:
	.byte	0xff
	.byte	0xff
	.byte	0x1
	.uleb128 .LLSDACSE6932-.LLSDACSB6932
.LLSDACSB6932:
	.uleb128 .LEHB40-.LFB6932
	.uleb128 .LEHE40-.LEHB40
	.uleb128 .L1556-.LFB6932
	.uleb128 0
	.uleb128 .LEHB41-.LFB6932
	.uleb128 .LEHE41-.LEHB41
	.uleb128 .L1557-.LFB6932
	.uleb128 0
	.uleb128 .LEHB42-.LFB6932
	.uleb128 .LEHE42-.LEHB42
	.uleb128 .L1553-.LFB6932
	.uleb128 0
	.uleb128 .LEHB43-.LFB6932
	.uleb128 .LEHE43-.LEHB43
	.uleb128 .L1554-.LFB6932
	.uleb128 0
	.uleb128 .LEHB44-.LFB6932
	.uleb128 .LEHE44-.LEHB44
	.uleb128 .L1558-.LFB6932
	.uleb128 0
	.uleb128 .LEHB45-.LFB6932
	.uleb128 .LEHE45-.LEHB45
	.uleb128 .L1554-.LFB6932
	.uleb128 0
	.uleb128 .LEHB46-.LFB6932
	.uleb128 .LEHE46-.LEHB46
	.uleb128 .L1559-.LFB6932
	.uleb128 0
	.uleb128 .LEHB47-.LFB6932
	.uleb128 .LEHE47-.LEHB47
	.uleb128 .L1560-.LFB6932
	.uleb128 0
	.uleb128 .LEHB48-.LFB6932
	.uleb128 .LEHE48-.LEHB48
	.uleb128 .L1555-.LFB6932
	.uleb128 0
	.uleb128 .LEHB49-.LFB6932
	.uleb128 .LEHE49-.LEHB49
	.uleb128 .L1554-.LFB6932
	.uleb128 0
.LLSDACSE6932:
	.text
	.cfi_endproc
	.section	.text.unlikely
	.cfi_startproc
	.cfi_personality 0x9b,DW.ref.__gxx_personality_v0
	.cfi_lsda 0x1b,.LLSDAC6932
	.type	_ZN7asiopal10ThreadPoolC2ERKN7openpal6LoggerERKSt10shared_ptrINS_2IOEEjSt8functionIFvvEESC_.cold, @function
_ZN7asiopal10ThreadPoolC2ERKN7openpal6LoggerERKSt10shared_ptrINS_2IOEEjSt8functionIFvvEESC_.cold:
.LFSB6932:
.L1648:
	.cfi_def_cfa_offset 128
	.cfi_offset 3, -56
	.cfi_offset 6, -48
	.cfi_offset 12, -40
	.cfi_offset 13, -32
	.cfi_offset 14, -24
	.cfi_offset 15, -16
	movq	(%rsi), %rax
	movq	%rax, 144(%rbp)
	testq	%rax, %rax
	jne	.L1545
	movq	$0, 152(%rbp)
.L1545:
	movq	$0, (%rsi)
	movq	8(%rsi), %rax
	xorl	%ecx, %ecx
	movq	%r13, %rdx
	movl	$0, 32(%rsp)
	xorl	%edi, %edi
	movq	%r12, 40(%rsp)
	call	*%rax
.L1546:
	movq	144(%rbp), %rsi
	testq	%rsi, %rsi
	jne	.L1648
	movq	%rbx, %r12
.L1547:
	movq	96(%rbp), %rax
	testq	%rax, %rax
	je	.L1508
	movq	24(%rsp), %rsi
	movl	$3, %edx
	movq	%rsi, %rdi
	call	*%rax
.L1508:
	movq	64(%rbp), %rax
	testq	%rax, %rax
	je	.L1503
	movq	16(%rsp), %rsi
	movl	$3, %edx
	movq	%rsi, %rdi
	call	*%rax
	jmp	.L1503
.L1530:
	movq	32(%rsp), %rdi
	testq	%rdi, %rdi
	je	.L1532
	movq	(%rdi), %rax
	call	*8(%rax)
.L1532:
	movl	$8, %esi
	movq	%r12, %rdi
	call	_ZdlPvm@PLT
.L1526:
	movq	192(%rbp), %r13
	movq	184(%rbp), %r12
.L1541:
	cmpq	%r12, %r13
	jne	.L1649
	movq	184(%rbp), %rdi
	testq	%rdi, %rdi
	je	.L1542
	call	_ZdlPv@PLT
.L1542:
	call	_ZNSt3_V215system_categoryEv@PLT
	cmpb	$0, 136(%rbp)
	movq	120(%rbp), %r13
	movq	%rax, %r12
	jne	.L1650
.L1543:
	leaq	32(%rsp), %r13
	jmp	.L1546
.L1506:
	movq	96(%rbp), %rax
	testq	%rax, %rax
	je	.L1508
	leaq	80(%rbp), %rsi
	movl	$3, %edx
	movq	%rsi, %rdi
	call	*%rax
	jmp	.L1508
.L1501:
	movq	64(%rbp), %rax
	testq	%rax, %rax
	je	.L1503
	movq	16(%rsp), %rsi
	movl	$3, %edx
	movq	%rsi, %rdi
	call	*%rax
.L1503:
	movq	40(%rbp), %rdi
	testq	%rdi, %rdi
	je	.L1550
	call	_ZNSt16_Sp_counted_baseILN9__gnu_cxx12_Lock_policyE2EE10_M_releaseEv@PLT
.L1550:
	movq	%rbp, %rdi
	call	_ZN7openpal6LoggerD1Ev@PLT
	movq	%r12, %rdi
.LEHB50:
	call	_Unwind_Resume@PLT
.LEHE50:
.L1523:
	data16	leaq	_ZN4asio6detail15keyword_tss_ptrINS0_10call_stackINS0_15task_io_serviceENS0_27task_io_service_thread_infoEE7contextEE6value_E@tlsgd(%rip), %rdi
	.value	0x6666
	rex64
	call	__tls_get_addr@PLT
	movq	(%rax), %rax
	testq	%rax, %rax
	je	.L1524
	movq	8(%rax), %rax
	testq	%rax, %rax
	je	.L1524
	cmpq	$0, (%rax)
	jne	.L1524
	movzbl	48(%r12), %edx
	movb	%dl, (%r12)
	movq	%r12, (%rax)
	jmp	.L1526
.L1536:
	movq	32(%rsp), %rdi
	testq	%rdi, %rdi
	je	.L1526
	cmpq	$0, (%rdi)
	jne	.L1538
	movl	$8, %esi
	call	_ZdlPvm@PLT
	jmp	.L1526
.L1524:
	movq	%r12, %rdi
	call	_ZdlPv@PLT
	jmp	.L1526
.L1649:
	movq	(%r12), %rdi
	testq	%rdi, %rdi
	je	.L1540
	cmpq	$0, (%rdi)
	jne	.L1538
	movl	$8, %esi
	call	_ZdlPvm@PLT
.L1540:
	addq	$8, %r12
	jmp	.L1541
.L1650:
	movq	88(%r13), %rdi
	leaq	144(%rbp), %rdx
	leaq	40(%r13), %rsi
	call	_ZN4asio6detail13epoll_reactor12cancel_timerINS0_18chrono_time_traitsINSt6chrono3_V212steady_clockENS_11wait_traitsIS6_EEEEEEmRNS0_11timer_queueIT_EERNSC_14per_timer_dataEm.constprop.0
	movb	$0, 136(%rbp)
	jmp	.L1543
	.cfi_endproc
.LFE6932:
	.section	.gcc_except_table
.LLSDAC6932:
	.byte	0xff
	.byte	0xff
	.byte	0x1
	.uleb128 .LLSDACSEC6932-.LLSDACSBC6932
.LLSDACSBC6932:
	.uleb128 .LEHB50-.LCOLDB37
	.uleb128 .LEHE50-.LEHB50
	.uleb128 0
	.uleb128 0
.LLSDACSEC6932:
	.section	.text.unlikely
	.text
	.size	_ZN7asiopal10ThreadPoolC2ERKN7openpal6LoggerERKSt10shared_ptrINS_2IOEEjSt8functionIFvvEESC_, .-_ZN7asiopal10ThreadPoolC2ERKN7openpal6LoggerERKSt10shared_ptrINS_2IOEEjSt8functionIFvvEESC_
	.section	.text.unlikely
	.size	_ZN7asiopal10ThreadPoolC2ERKN7openpal6LoggerERKSt10shared_ptrINS_2IOEEjSt8functionIFvvEESC_.cold, .-_ZN7asiopal10ThreadPoolC2ERKN7openpal6LoggerERKSt10shared_ptrINS_2IOEEjSt8functionIFvvEESC_.cold
.LCOLDE37:
	.text
.LHOTE37:
	.globl	_ZN7asiopal10ThreadPoolC1ERKN7openpal6LoggerERKSt10shared_ptrINS_2IOEEjSt8functionIFvvEESC_
	.set	_ZN7asiopal10ThreadPoolC1ERKN7openpal6LoggerERKSt10shared_ptrINS_2IOEEjSt8functionIFvvEESC_,_ZN7asiopal10ThreadPoolC2ERKN7openpal6LoggerERKSt10shared_ptrINS_2IOEEjSt8functionIFvvEESC_
	.section	.text.startup,"ax",@progbits
	.p2align 4
	.type	_GLOBAL__sub_I_ThreadPool.cpp, @function
_GLOBAL__sub_I_ThreadPool.cpp:
.LFB9564:
	.cfi_startproc
	endbr64
	pushq	%rbp
	.cfi_def_cfa_offset 16
	.cfi_offset 6, -16
	movq	_ZGVZN4asio15system_categoryEvE8instance@GOTPCREL(%rip), %rbp
	movzbl	0(%rbp), %eax
	testb	%al, %al
	je	.L1683
.L1653:
	movq	_ZGVZN4asio5error18get_netdb_categoryEvE8instance@GOTPCREL(%rip), %rbp
	movzbl	0(%rbp), %eax
	testb	%al, %al
	je	.L1684
.L1656:
	movq	_ZGVZN4asio5error21get_addrinfo_categoryEvE8instance@GOTPCREL(%rip), %rbp
	movzbl	0(%rbp), %eax
	testb	%al, %al
	je	.L1685
.L1659:
	movq	_ZGVZN4asio5error17get_misc_categoryEvE8instance@GOTPCREL(%rip), %rbp
	movzbl	0(%rbp), %eax
	testb	%al, %al
	je	.L1686
.L1662:
	movq	_ZGVN4asio6detail10call_stackINS0_15task_io_serviceENS0_27task_io_service_thread_infoEE4top_E@GOTPCREL(%rip), %rax
	cmpb	$0, (%rax)
	je	.L1687
.L1664:
	movq	_ZGVN4asio6detail12service_baseINS0_13epoll_reactorEE2idE@GOTPCREL(%rip), %rax
	cmpb	$0, (%rax)
	je	.L1688
.L1665:
	movq	_ZGVN4asio6detail12service_baseINS0_15task_io_serviceEE2idE@GOTPCREL(%rip), %rax
	cmpb	$0, (%rax)
	je	.L1689
.L1666:
	movq	_ZGVN4asio6detail10call_stackINS0_14strand_service11strand_implEhE4top_E@GOTPCREL(%rip), %rax
	cmpb	$0, (%rax)
	je	.L1690
.L1667:
	movq	_ZGVN4asio6detail12service_baseINS0_14strand_serviceEE2idE@GOTPCREL(%rip), %rax
	cmpb	$0, (%rax)
	je	.L1691
.L1668:
	movq	_ZGVN4asio6detail12service_baseINS_22waitable_timer_serviceINSt6chrono3_V212steady_clockENS_11wait_traitsIS5_EEEEE2idE@GOTPCREL(%rip), %rax
	cmpb	$0, (%rax)
	je	.L1692
	popq	%rbp
	.cfi_remember_state
	.cfi_def_cfa_offset 8
	ret
.L1683:
	.cfi_restore_state
	movq	%rbp, %rdi
	call	__cxa_guard_acquire@PLT
	testl	%eax, %eax
	je	.L1653
	movq	_ZZN4asio15system_categoryEvE8instance@GOTPCREL(%rip), %rsi
	movq	_ZN4asio6detail15system_categoryD1Ev@GOTPCREL(%rip), %rdi
	leaq	__dso_handle(%rip), %rdx
	call	__cxa_atexit@PLT
	movq	%rbp, %rdi
	call	__cxa_guard_release@PLT
	jmp	.L1653
.L1692:
	movb	$1, (%rax)
	leaq	__dso_handle(%rip), %rdx
	movq	_ZN4asio6detail12service_baseINS_22waitable_timer_serviceINSt6chrono3_V212steady_clockENS_11wait_traitsIS5_EEEEE2idE@GOTPCREL(%rip), %rsi
	movq	_ZN4asio6detail10service_idINS_22waitable_timer_serviceINSt6chrono3_V212steady_clockENS_11wait_traitsIS5_EEEEED1Ev@GOTPCREL(%rip), %rdi
	popq	%rbp
	.cfi_remember_state
	.cfi_def_cfa_offset 8
	jmp	__cxa_atexit@PLT
.L1691:
	.cfi_restore_state
	movb	$1, (%rax)
	movq	_ZN4asio6detail12service_baseINS0_14strand_serviceEE2idE@GOTPCREL(%rip), %rsi
	leaq	__dso_handle(%rip), %rdx
	movq	_ZN4asio6detail10service_idINS0_14strand_serviceEED1Ev@GOTPCREL(%rip), %rdi
	call	__cxa_atexit@PLT
	jmp	.L1668
.L1690:
	movb	$1, (%rax)
	movq	_ZN4asio6detail10call_stackINS0_14strand_service11strand_implEhE4top_E@GOTPCREL(%rip), %rsi
	leaq	__dso_handle(%rip), %rdx
	movq	_ZN4asio6detail7tss_ptrINS0_10call_stackINS0_14strand_service11strand_implEhE7contextEED1Ev@GOTPCREL(%rip), %rdi
	call	__cxa_atexit@PLT
	jmp	.L1667
.L1689:
	movb	$1, (%rax)
	movq	_ZN4asio6detail12service_baseINS0_15task_io_serviceEE2idE@GOTPCREL(%rip), %rsi
	leaq	__dso_handle(%rip), %rdx
	movq	_ZN4asio6detail10service_idINS0_15task_io_serviceEED1Ev@GOTPCREL(%rip), %rdi
	call	__cxa_atexit@PLT
	jmp	.L1666
.L1688:
	movb	$1, (%rax)
	movq	_ZN4asio6detail12service_baseINS0_13epoll_reactorEE2idE@GOTPCREL(%rip), %rsi
	leaq	__dso_handle(%rip), %rdx
	movq	_ZN4asio6detail10service_idINS0_13epoll_reactorEED1Ev@GOTPCREL(%rip), %rdi
	call	__cxa_atexit@PLT
	jmp	.L1665
.L1687:
	movb	$1, (%rax)
	movq	_ZN4asio6detail10call_stackINS0_15task_io_serviceENS0_27task_io_service_thread_infoEE4top_E@GOTPCREL(%rip), %rsi
	leaq	__dso_handle(%rip), %rdx
	movq	_ZN4asio6detail7tss_ptrINS0_10call_stackINS0_15task_io_serviceENS0_27task_io_service_thread_infoEE7contextEED1Ev@GOTPCREL(%rip), %rdi
	call	__cxa_atexit@PLT
	jmp	.L1664
.L1686:
	movq	%rbp, %rdi
	call	__cxa_guard_acquire@PLT
	testl	%eax, %eax
	je	.L1662
	movq	_ZZN4asio5error17get_misc_categoryEvE8instance@GOTPCREL(%rip), %rsi
	movq	_ZN4asio5error6detail13misc_categoryD1Ev@GOTPCREL(%rip), %rdi
	leaq	__dso_handle(%rip), %rdx
	call	__cxa_atexit@PLT
	movq	%rbp, %rdi
	call	__cxa_guard_release@PLT
	jmp	.L1662
.L1685:
	movq	%rbp, %rdi
	call	__cxa_guard_acquire@PLT
	testl	%eax, %eax
	je	.L1659
	movq	_ZZN4asio5error21get_addrinfo_categoryEvE8instance@GOTPCREL(%rip), %rsi
	movq	_ZN4asio5error6detail17addrinfo_categoryD1Ev@GOTPCREL(%rip), %rdi
	leaq	__dso_handle(%rip), %rdx
	call	__cxa_atexit@PLT
	movq	%rbp, %rdi
	call	__cxa_guard_release@PLT
	jmp	.L1659
.L1684:
	movq	%rbp, %rdi
	call	__cxa_guard_acquire@PLT
	testl	%eax, %eax
	je	.L1656
	movq	_ZZN4asio5error18get_netdb_categoryEvE8instance@GOTPCREL(%rip), %rsi
	movq	_ZN4asio5error6detail14netdb_categoryD1Ev@GOTPCREL(%rip), %rdi
	leaq	__dso_handle(%rip), %rdx
	call	__cxa_atexit@PLT
	movq	%rbp, %rdi
	call	__cxa_guard_release@PLT
	jmp	.L1656
	.cfi_endproc
.LFE9564:
	.size	_GLOBAL__sub_I_ThreadPool.cpp, .-_GLOBAL__sub_I_ThreadPool.cpp
	.section	.init_array,"aw"
	.align 8
	.quad	_GLOBAL__sub_I_ThreadPool.cpp
	.weak	_ZTSN4asio6detail11noncopyableE
	.section	.rodata._ZTSN4asio6detail11noncopyableE,"aG",@progbits,_ZTSN4asio6detail11noncopyableE,comdat
	.align 16
	.type	_ZTSN4asio6detail11noncopyableE, @object
	.size	_ZTSN4asio6detail11noncopyableE, 28
_ZTSN4asio6detail11noncopyableE:
	.string	"N4asio6detail11noncopyableE"
	.weak	_ZTIN4asio6detail11noncopyableE
	.section	.data.rel.ro._ZTIN4asio6detail11noncopyableE,"awG",@progbits,_ZTIN4asio6detail11noncopyableE,comdat
	.align 8
	.type	_ZTIN4asio6detail11noncopyableE, @object
	.size	_ZTIN4asio6detail11noncopyableE, 16
_ZTIN4asio6detail11noncopyableE:
	.quad	_ZTVN10__cxxabiv117__class_type_infoE+16
	.quad	_ZTSN4asio6detail11noncopyableE
	.weak	_ZGVN4asio6detail12service_baseINS_22waitable_timer_serviceINSt6chrono3_V212steady_clockENS_11wait_traitsIS5_EEEEE2idE
	.section	.bss._ZGVN4asio6detail12service_baseINS_22waitable_timer_serviceINSt6chrono3_V212steady_clockENS_11wait_traitsIS5_EEEEE2idE,"awG",@nobits,_ZGVN4asio6detail12service_baseINS_22waitable_timer_serviceINSt6chrono3_V212steady_clockENS_11wait_traitsIS5_EEEEE2idE,comdat
	.align 8
	.type	_ZGVN4asio6detail12service_baseINS_22waitable_timer_serviceINSt6chrono3_V212steady_clockENS_11wait_traitsIS5_EEEEE2idE, @gnu_unique_object
	.size	_ZGVN4asio6detail12service_baseINS_22waitable_timer_serviceINSt6chrono3_V212steady_clockENS_11wait_traitsIS5_EEEEE2idE, 8
_ZGVN4asio6detail12service_baseINS_22waitable_timer_serviceINSt6chrono3_V212steady_clockENS_11wait_traitsIS5_EEEEE2idE:
	.zero	8
	.weak	_ZGVN4asio6detail12service_baseINS0_14strand_serviceEE2idE
	.section	.bss._ZGVN4asio6detail12service_baseINS0_14strand_serviceEE2idE,"awG",@nobits,_ZGVN4asio6detail12service_baseINS0_14strand_serviceEE2idE,comdat
	.align 8
	.type	_ZGVN4asio6detail12service_baseINS0_14strand_serviceEE2idE, @gnu_unique_object
	.size	_ZGVN4asio6detail12service_baseINS0_14strand_serviceEE2idE, 8
_ZGVN4asio6detail12service_baseINS0_14strand_serviceEE2idE:
	.zero	8
	.weak	_ZGVN4asio6detail10call_stackINS0_14strand_service11strand_implEhE4top_E
	.section	.bss._ZGVN4asio6detail10call_stackINS0_14strand_service11strand_implEhE4top_E,"awG",@nobits,_ZGVN4asio6detail10call_stackINS0_14strand_service11strand_implEhE4top_E,comdat
	.align 8
	.type	_ZGVN4asio6detail10call_stackINS0_14strand_service11strand_implEhE4top_E, @gnu_unique_object
	.size	_ZGVN4asio6detail10call_stackINS0_14strand_service11strand_implEhE4top_E, 8
_ZGVN4asio6detail10call_stackINS0_14strand_service11strand_implEhE4top_E:
	.zero	8
	.weak	_ZGVN4asio6detail12service_baseINS0_15task_io_serviceEE2idE
	.section	.bss._ZGVN4asio6detail12service_baseINS0_15task_io_serviceEE2idE,"awG",@nobits,_ZGVN4asio6detail12service_baseINS0_15task_io_serviceEE2idE,comdat
	.align 8
	.type	_ZGVN4asio6detail12service_baseINS0_15task_io_serviceEE2idE, @gnu_unique_object
	.size	_ZGVN4asio6detail12service_baseINS0_15task_io_serviceEE2idE, 8
_ZGVN4asio6detail12service_baseINS0_15task_io_serviceEE2idE:
	.zero	8
	.weak	_ZGVN4asio6detail12service_baseINS0_13epoll_reactorEE2idE
	.section	.bss._ZGVN4asio6detail12service_baseINS0_13epoll_reactorEE2idE,"awG",@nobits,_ZGVN4asio6detail12service_baseINS0_13epoll_reactorEE2idE,comdat
	.align 8
	.type	_ZGVN4asio6detail12service_baseINS0_13epoll_reactorEE2idE, @gnu_unique_object
	.size	_ZGVN4asio6detail12service_baseINS0_13epoll_reactorEE2idE, 8
_ZGVN4asio6detail12service_baseINS0_13epoll_reactorEE2idE:
	.zero	8
	.weak	_ZGVN4asio6detail10call_stackINS0_15task_io_serviceENS0_27task_io_service_thread_infoEE4top_E
	.section	.bss._ZGVN4asio6detail10call_stackINS0_15task_io_serviceENS0_27task_io_service_thread_infoEE4top_E,"awG",@nobits,_ZGVN4asio6detail10call_stackINS0_15task_io_serviceENS0_27task_io_service_thread_infoEE4top_E,comdat
	.align 8
	.type	_ZGVN4asio6detail10call_stackINS0_15task_io_serviceENS0_27task_io_service_thread_infoEE4top_E, @gnu_unique_object
	.size	_ZGVN4asio6detail10call_stackINS0_15task_io_serviceENS0_27task_io_service_thread_infoEE4top_E, 8
_ZGVN4asio6detail10call_stackINS0_15task_io_serviceENS0_27task_io_service_thread_infoEE4top_E:
	.zero	8
	.weak	_ZN4asio6detail12service_baseINS_22waitable_timer_serviceINSt6chrono3_V212steady_clockENS_11wait_traitsIS5_EEEEE2idE
	.section	.bss._ZN4asio6detail12service_baseINS_22waitable_timer_serviceINSt6chrono3_V212steady_clockENS_11wait_traitsIS5_EEEEE2idE,"awG",@nobits,_ZN4asio6detail12service_baseINS_22waitable_timer_serviceINSt6chrono3_V212steady_clockENS_11wait_traitsIS5_EEEEE2idE,comdat
	.type	_ZN4asio6detail12service_baseINS_22waitable_timer_serviceINSt6chrono3_V212steady_clockENS_11wait_traitsIS5_EEEEE2idE, @gnu_unique_object
	.size	_ZN4asio6detail12service_baseINS_22waitable_timer_serviceINSt6chrono3_V212steady_clockENS_11wait_traitsIS5_EEEEE2idE, 1
_ZN4asio6detail12service_baseINS_22waitable_timer_serviceINSt6chrono3_V212steady_clockENS_11wait_traitsIS5_EEEEE2idE:
	.zero	1
	.weak	_ZN4asio6detail12service_baseINS0_14strand_serviceEE2idE
	.section	.bss._ZN4asio6detail12service_baseINS0_14strand_serviceEE2idE,"awG",@nobits,_ZN4asio6detail12service_baseINS0_14strand_serviceEE2idE,comdat
	.type	_ZN4asio6detail12service_baseINS0_14strand_serviceEE2idE, @gnu_unique_object
	.size	_ZN4asio6detail12service_baseINS0_14strand_serviceEE2idE, 1
_ZN4asio6detail12service_baseINS0_14strand_serviceEE2idE:
	.zero	1
	.weak	_ZN4asio6detail10call_stackINS0_14strand_service11strand_implEhE4top_E
	.section	.bss._ZN4asio6detail10call_stackINS0_14strand_service11strand_implEhE4top_E,"awG",@nobits,_ZN4asio6detail10call_stackINS0_14strand_service11strand_implEhE4top_E,comdat
	.type	_ZN4asio6detail10call_stackINS0_14strand_service11strand_implEhE4top_E, @gnu_unique_object
	.size	_ZN4asio6detail10call_stackINS0_14strand_service11strand_implEhE4top_E, 1
_ZN4asio6detail10call_stackINS0_14strand_service11strand_implEhE4top_E:
	.zero	1
	.weak	_ZN4asio6detail12service_baseINS0_15task_io_serviceEE2idE
	.section	.bss._ZN4asio6detail12service_baseINS0_15task_io_serviceEE2idE,"awG",@nobits,_ZN4asio6detail12service_baseINS0_15task_io_serviceEE2idE,comdat
	.type	_ZN4asio6detail12service_baseINS0_15task_io_serviceEE2idE, @gnu_unique_object
	.size	_ZN4asio6detail12service_baseINS0_15task_io_serviceEE2idE, 1
_ZN4asio6detail12service_baseINS0_15task_io_serviceEE2idE:
	.zero	1
	.weak	_ZN4asio6detail12service_baseINS0_13epoll_reactorEE2idE
	.section	.bss._ZN4asio6detail12service_baseINS0_13epoll_reactorEE2idE,"awG",@nobits,_ZN4asio6detail12service_baseINS0_13epoll_reactorEE2idE,comdat
	.type	_ZN4asio6detail12service_baseINS0_13epoll_reactorEE2idE, @gnu_unique_object
	.size	_ZN4asio6detail12service_baseINS0_13epoll_reactorEE2idE, 1
_ZN4asio6detail12service_baseINS0_13epoll_reactorEE2idE:
	.zero	1
	.weak	_ZN4asio6detail10call_stackINS0_15task_io_serviceENS0_27task_io_service_thread_infoEE4top_E
	.section	.bss._ZN4asio6detail10call_stackINS0_15task_io_serviceENS0_27task_io_service_thread_infoEE4top_E,"awG",@nobits,_ZN4asio6detail10call_stackINS0_15task_io_serviceENS0_27task_io_service_thread_infoEE4top_E,comdat
	.type	_ZN4asio6detail10call_stackINS0_15task_io_serviceENS0_27task_io_service_thread_infoEE4top_E, @gnu_unique_object
	.size	_ZN4asio6detail10call_stackINS0_15task_io_serviceENS0_27task_io_service_thread_infoEE4top_E, 1
_ZN4asio6detail10call_stackINS0_15task_io_serviceENS0_27task_io_service_thread_infoEE4top_E:
	.zero	1
	.weak	_ZTSN4asio6detail15system_categoryE
	.section	.rodata._ZTSN4asio6detail15system_categoryE,"aG",@progbits,_ZTSN4asio6detail15system_categoryE,comdat
	.align 32
	.type	_ZTSN4asio6detail15system_categoryE, @object
	.size	_ZTSN4asio6detail15system_categoryE, 32
_ZTSN4asio6detail15system_categoryE:
	.string	"N4asio6detail15system_categoryE"
	.weak	_ZTIN4asio6detail15system_categoryE
	.section	.data.rel.ro._ZTIN4asio6detail15system_categoryE,"awG",@progbits,_ZTIN4asio6detail15system_categoryE,comdat
	.align 8
	.type	_ZTIN4asio6detail15system_categoryE, @object
	.size	_ZTIN4asio6detail15system_categoryE, 24
_ZTIN4asio6detail15system_categoryE:
	.quad	_ZTVN10__cxxabiv120__si_class_type_infoE+16
	.quad	_ZTSN4asio6detail15system_categoryE
	.quad	_ZTINSt3_V214error_categoryE
	.weak	_ZTSN4asio10io_service7serviceE
	.section	.rodata._ZTSN4asio10io_service7serviceE,"aG",@progbits,_ZTSN4asio10io_service7serviceE,comdat
	.align 16
	.type	_ZTSN4asio10io_service7serviceE, @object
	.size	_ZTSN4asio10io_service7serviceE, 28
_ZTSN4asio10io_service7serviceE:
	.string	"N4asio10io_service7serviceE"
	.weak	_ZTIN4asio10io_service7serviceE
	.section	.data.rel.ro._ZTIN4asio10io_service7serviceE,"awG",@progbits,_ZTIN4asio10io_service7serviceE,comdat
	.align 8
	.type	_ZTIN4asio10io_service7serviceE, @object
	.size	_ZTIN4asio10io_service7serviceE, 40
_ZTIN4asio10io_service7serviceE:
	.quad	_ZTVN10__cxxabiv121__vmi_class_type_infoE+16
	.quad	_ZTSN4asio10io_service7serviceE
	.long	0
	.long	1
	.quad	_ZTIN4asio6detail11noncopyableE
	.quad	0
	.weak	_ZTSN4asio5error6detail14netdb_categoryE
	.section	.rodata._ZTSN4asio5error6detail14netdb_categoryE,"aG",@progbits,_ZTSN4asio5error6detail14netdb_categoryE,comdat
	.align 32
	.type	_ZTSN4asio5error6detail14netdb_categoryE, @object
	.size	_ZTSN4asio5error6detail14netdb_categoryE, 37
_ZTSN4asio5error6detail14netdb_categoryE:
	.string	"N4asio5error6detail14netdb_categoryE"
	.weak	_ZTIN4asio5error6detail14netdb_categoryE
	.section	.data.rel.ro._ZTIN4asio5error6detail14netdb_categoryE,"awG",@progbits,_ZTIN4asio5error6detail14netdb_categoryE,comdat
	.align 8
	.type	_ZTIN4asio5error6detail14netdb_categoryE, @object
	.size	_ZTIN4asio5error6detail14netdb_categoryE, 24
_ZTIN4asio5error6detail14netdb_categoryE:
	.quad	_ZTVN10__cxxabiv120__si_class_type_infoE+16
	.quad	_ZTSN4asio5error6detail14netdb_categoryE
	.quad	_ZTINSt3_V214error_categoryE
	.weak	_ZTSN4asio5error6detail17addrinfo_categoryE
	.section	.rodata._ZTSN4asio5error6detail17addrinfo_categoryE,"aG",@progbits,_ZTSN4asio5error6detail17addrinfo_categoryE,comdat
	.align 32
	.type	_ZTSN4asio5error6detail17addrinfo_categoryE, @object
	.size	_ZTSN4asio5error6detail17addrinfo_categoryE, 40
_ZTSN4asio5error6detail17addrinfo_categoryE:
	.string	"N4asio5error6detail17addrinfo_categoryE"
	.weak	_ZTIN4asio5error6detail17addrinfo_categoryE
	.section	.data.rel.ro._ZTIN4asio5error6detail17addrinfo_categoryE,"awG",@progbits,_ZTIN4asio5error6detail17addrinfo_categoryE,comdat
	.align 8
	.type	_ZTIN4asio5error6detail17addrinfo_categoryE, @object
	.size	_ZTIN4asio5error6detail17addrinfo_categoryE, 24
_ZTIN4asio5error6detail17addrinfo_categoryE:
	.quad	_ZTVN10__cxxabiv120__si_class_type_infoE+16
	.quad	_ZTSN4asio5error6detail17addrinfo_categoryE
	.quad	_ZTINSt3_V214error_categoryE
	.weak	_ZTSN4asio5error6detail13misc_categoryE
	.section	.rodata._ZTSN4asio5error6detail13misc_categoryE,"aG",@progbits,_ZTSN4asio5error6detail13misc_categoryE,comdat
	.align 32
	.type	_ZTSN4asio5error6detail13misc_categoryE, @object
	.size	_ZTSN4asio5error6detail13misc_categoryE, 36
_ZTSN4asio5error6detail13misc_categoryE:
	.string	"N4asio5error6detail13misc_categoryE"
	.weak	_ZTIN4asio5error6detail13misc_categoryE
	.section	.data.rel.ro._ZTIN4asio5error6detail13misc_categoryE,"awG",@progbits,_ZTIN4asio5error6detail13misc_categoryE,comdat
	.align 8
	.type	_ZTIN4asio5error6detail13misc_categoryE, @object
	.size	_ZTIN4asio5error6detail13misc_categoryE, 24
_ZTIN4asio5error6detail13misc_categoryE:
	.quad	_ZTVN10__cxxabiv120__si_class_type_infoE+16
	.quad	_ZTSN4asio5error6detail13misc_categoryE
	.quad	_ZTINSt3_V214error_categoryE
	.weak	_ZTSN4asio6detail16timer_queue_baseE
	.section	.rodata._ZTSN4asio6detail16timer_queue_baseE,"aG",@progbits,_ZTSN4asio6detail16timer_queue_baseE,comdat
	.align 32
	.type	_ZTSN4asio6detail16timer_queue_baseE, @object
	.size	_ZTSN4asio6detail16timer_queue_baseE, 33
_ZTSN4asio6detail16timer_queue_baseE:
	.string	"N4asio6detail16timer_queue_baseE"
	.weak	_ZTIN4asio6detail16timer_queue_baseE
	.section	.data.rel.ro._ZTIN4asio6detail16timer_queue_baseE,"awG",@progbits,_ZTIN4asio6detail16timer_queue_baseE,comdat
	.align 8
	.type	_ZTIN4asio6detail16timer_queue_baseE, @object
	.size	_ZTIN4asio6detail16timer_queue_baseE, 40
_ZTIN4asio6detail16timer_queue_baseE:
	.quad	_ZTVN10__cxxabiv121__vmi_class_type_infoE+16
	.quad	_ZTSN4asio6detail16timer_queue_baseE
	.long	0
	.long	1
	.quad	_ZTIN4asio6detail11noncopyableE
	.quad	0
	.weak	_ZTSN4asio6detail12service_baseINS0_13epoll_reactorEEE
	.section	.rodata._ZTSN4asio6detail12service_baseINS0_13epoll_reactorEEE,"aG",@progbits,_ZTSN4asio6detail12service_baseINS0_13epoll_reactorEEE,comdat
	.align 32
	.type	_ZTSN4asio6detail12service_baseINS0_13epoll_reactorEEE, @object
	.size	_ZTSN4asio6detail12service_baseINS0_13epoll_reactorEEE, 51
_ZTSN4asio6detail12service_baseINS0_13epoll_reactorEEE:
	.string	"N4asio6detail12service_baseINS0_13epoll_reactorEEE"
	.weak	_ZTIN4asio6detail12service_baseINS0_13epoll_reactorEEE
	.section	.data.rel.ro._ZTIN4asio6detail12service_baseINS0_13epoll_reactorEEE,"awG",@progbits,_ZTIN4asio6detail12service_baseINS0_13epoll_reactorEEE,comdat
	.align 8
	.type	_ZTIN4asio6detail12service_baseINS0_13epoll_reactorEEE, @object
	.size	_ZTIN4asio6detail12service_baseINS0_13epoll_reactorEEE, 24
_ZTIN4asio6detail12service_baseINS0_13epoll_reactorEEE:
	.quad	_ZTVN10__cxxabiv120__si_class_type_infoE+16
	.quad	_ZTSN4asio6detail12service_baseINS0_13epoll_reactorEEE
	.quad	_ZTIN4asio10io_service7serviceE
	.weak	_ZTSN4asio6detail13epoll_reactorE
	.section	.rodata._ZTSN4asio6detail13epoll_reactorE,"aG",@progbits,_ZTSN4asio6detail13epoll_reactorE,comdat
	.align 16
	.type	_ZTSN4asio6detail13epoll_reactorE, @object
	.size	_ZTSN4asio6detail13epoll_reactorE, 30
_ZTSN4asio6detail13epoll_reactorE:
	.string	"N4asio6detail13epoll_reactorE"
	.weak	_ZTIN4asio6detail13epoll_reactorE
	.section	.data.rel.ro._ZTIN4asio6detail13epoll_reactorE,"awG",@progbits,_ZTIN4asio6detail13epoll_reactorE,comdat
	.align 8
	.type	_ZTIN4asio6detail13epoll_reactorE, @object
	.size	_ZTIN4asio6detail13epoll_reactorE, 24
_ZTIN4asio6detail13epoll_reactorE:
	.quad	_ZTVN10__cxxabiv120__si_class_type_infoE+16
	.quad	_ZTSN4asio6detail13epoll_reactorE
	.quad	_ZTIN4asio6detail12service_baseINS0_13epoll_reactorEEE
	.weak	_ZTSN4asio6detail12service_baseINS_22waitable_timer_serviceINSt6chrono3_V212steady_clockENS_11wait_traitsIS5_EEEEEE
	.section	.rodata._ZTSN4asio6detail12service_baseINS_22waitable_timer_serviceINSt6chrono3_V212steady_clockENS_11wait_traitsIS5_EEEEEE,"aG",@progbits,_ZTSN4asio6detail12service_baseINS_22waitable_timer_serviceINSt6chrono3_V212steady_clockENS_11wait_traitsIS5_EEEEEE,comdat
	.align 32
	.type	_ZTSN4asio6detail12service_baseINS_22waitable_timer_serviceINSt6chrono3_V212steady_clockENS_11wait_traitsIS5_EEEEEE, @object
	.size	_ZTSN4asio6detail12service_baseINS_22waitable_timer_serviceINSt6chrono3_V212steady_clockENS_11wait_traitsIS5_EEEEEE, 112
_ZTSN4asio6detail12service_baseINS_22waitable_timer_serviceINSt6chrono3_V212steady_clockENS_11wait_traitsIS5_EEEEEE:
	.string	"N4asio6detail12service_baseINS_22waitable_timer_serviceINSt6chrono3_V212steady_clockENS_11wait_traitsIS5_EEEEEE"
	.weak	_ZTIN4asio6detail12service_baseINS_22waitable_timer_serviceINSt6chrono3_V212steady_clockENS_11wait_traitsIS5_EEEEEE
	.section	.data.rel.ro._ZTIN4asio6detail12service_baseINS_22waitable_timer_serviceINSt6chrono3_V212steady_clockENS_11wait_traitsIS5_EEEEEE,"awG",@progbits,_ZTIN4asio6detail12service_baseINS_22waitable_timer_serviceINSt6chrono3_V212steady_clockENS_11wait_traitsIS5_EEEEEE,comdat
	.align 8
	.type	_ZTIN4asio6detail12service_baseINS_22waitable_timer_serviceINSt6chrono3_V212steady_clockENS_11wait_traitsIS5_EEEEEE, @object
	.size	_ZTIN4asio6detail12service_baseINS_22waitable_timer_serviceINSt6chrono3_V212steady_clockENS_11wait_traitsIS5_EEEEEE, 24
_ZTIN4asio6detail12service_baseINS_22waitable_timer_serviceINSt6chrono3_V212steady_clockENS_11wait_traitsIS5_EEEEEE:
	.quad	_ZTVN10__cxxabiv120__si_class_type_infoE+16
	.quad	_ZTSN4asio6detail12service_baseINS_22waitable_timer_serviceINSt6chrono3_V212steady_clockENS_11wait_traitsIS5_EEEEEE
	.quad	_ZTIN4asio10io_service7serviceE
	.weak	_ZTSN4asio6detail11timer_queueINS0_18chrono_time_traitsINSt6chrono3_V212steady_clockENS_11wait_traitsIS5_EEEEEE
	.section	.rodata._ZTSN4asio6detail11timer_queueINS0_18chrono_time_traitsINSt6chrono3_V212steady_clockENS_11wait_traitsIS5_EEEEEE,"aG",@progbits,_ZTSN4asio6detail11timer_queueINS0_18chrono_time_traitsINSt6chrono3_V212steady_clockENS_11wait_traitsIS5_EEEEEE,comdat
	.align 32
	.type	_ZTSN4asio6detail11timer_queueINS0_18chrono_time_traitsINSt6chrono3_V212steady_clockENS_11wait_traitsIS5_EEEEEE, @object
	.size	_ZTSN4asio6detail11timer_queueINS0_18chrono_time_traitsINSt6chrono3_V212steady_clockENS_11wait_traitsIS5_EEEEEE, 108
_ZTSN4asio6detail11timer_queueINS0_18chrono_time_traitsINSt6chrono3_V212steady_clockENS_11wait_traitsIS5_EEEEEE:
	.string	"N4asio6detail11timer_queueINS0_18chrono_time_traitsINSt6chrono3_V212steady_clockENS_11wait_traitsIS5_EEEEEE"
	.weak	_ZTIN4asio6detail11timer_queueINS0_18chrono_time_traitsINSt6chrono3_V212steady_clockENS_11wait_traitsIS5_EEEEEE
	.section	.data.rel.ro._ZTIN4asio6detail11timer_queueINS0_18chrono_time_traitsINSt6chrono3_V212steady_clockENS_11wait_traitsIS5_EEEEEE,"awG",@progbits,_ZTIN4asio6detail11timer_queueINS0_18chrono_time_traitsINSt6chrono3_V212steady_clockENS_11wait_traitsIS5_EEEEEE,comdat
	.align 8
	.type	_ZTIN4asio6detail11timer_queueINS0_18chrono_time_traitsINSt6chrono3_V212steady_clockENS_11wait_traitsIS5_EEEEEE, @object
	.size	_ZTIN4asio6detail11timer_queueINS0_18chrono_time_traitsINSt6chrono3_V212steady_clockENS_11wait_traitsIS5_EEEEEE, 24
_ZTIN4asio6detail11timer_queueINS0_18chrono_time_traitsINSt6chrono3_V212steady_clockENS_11wait_traitsIS5_EEEEEE:
	.quad	_ZTVN10__cxxabiv120__si_class_type_infoE+16
	.quad	_ZTSN4asio6detail11timer_queueINS0_18chrono_time_traitsINSt6chrono3_V212steady_clockENS_11wait_traitsIS5_EEEEEE
	.quad	_ZTIN4asio6detail16timer_queue_baseE
	.weak	_ZTSN4asio22waitable_timer_serviceINSt6chrono3_V212steady_clockENS_11wait_traitsIS3_EEEE
	.section	.rodata._ZTSN4asio22waitable_timer_serviceINSt6chrono3_V212steady_clockENS_11wait_traitsIS3_EEEE,"aG",@progbits,_ZTSN4asio22waitable_timer_serviceINSt6chrono3_V212steady_clockENS_11wait_traitsIS3_EEEE,comdat
	.align 32
	.type	_ZTSN4asio22waitable_timer_serviceINSt6chrono3_V212steady_clockENS_11wait_traitsIS3_EEEE, @object
	.size	_ZTSN4asio22waitable_timer_serviceINSt6chrono3_V212steady_clockENS_11wait_traitsIS3_EEEE, 85
_ZTSN4asio22waitable_timer_serviceINSt6chrono3_V212steady_clockENS_11wait_traitsIS3_EEEE:
	.string	"N4asio22waitable_timer_serviceINSt6chrono3_V212steady_clockENS_11wait_traitsIS3_EEEE"
	.weak	_ZTIN4asio22waitable_timer_serviceINSt6chrono3_V212steady_clockENS_11wait_traitsIS3_EEEE
	.section	.data.rel.ro._ZTIN4asio22waitable_timer_serviceINSt6chrono3_V212steady_clockENS_11wait_traitsIS3_EEEE,"awG",@progbits,_ZTIN4asio22waitable_timer_serviceINSt6chrono3_V212steady_clockENS_11wait_traitsIS3_EEEE,comdat
	.align 8
	.type	_ZTIN4asio22waitable_timer_serviceINSt6chrono3_V212steady_clockENS_11wait_traitsIS3_EEEE, @object
	.size	_ZTIN4asio22waitable_timer_serviceINSt6chrono3_V212steady_clockENS_11wait_traitsIS3_EEEE, 24
_ZTIN4asio22waitable_timer_serviceINSt6chrono3_V212steady_clockENS_11wait_traitsIS3_EEEE:
	.quad	_ZTVN10__cxxabiv120__si_class_type_infoE+16
	.quad	_ZTSN4asio22waitable_timer_serviceINSt6chrono3_V212steady_clockENS_11wait_traitsIS3_EEEE
	.quad	_ZTIN4asio6detail12service_baseINS_22waitable_timer_serviceINSt6chrono3_V212steady_clockENS_11wait_traitsIS5_EEEEEE
	.weak	_ZTSN4asio6detail14typeid_wrapperINS0_13epoll_reactorEEE
	.section	.rodata._ZTSN4asio6detail14typeid_wrapperINS0_13epoll_reactorEEE,"aG",@progbits,_ZTSN4asio6detail14typeid_wrapperINS0_13epoll_reactorEEE,comdat
	.align 32
	.type	_ZTSN4asio6detail14typeid_wrapperINS0_13epoll_reactorEEE, @object
	.size	_ZTSN4asio6detail14typeid_wrapperINS0_13epoll_reactorEEE, 53
_ZTSN4asio6detail14typeid_wrapperINS0_13epoll_reactorEEE:
	.string	"N4asio6detail14typeid_wrapperINS0_13epoll_reactorEEE"
	.weak	_ZTIN4asio6detail14typeid_wrapperINS0_13epoll_reactorEEE
	.section	.data.rel.ro._ZTIN4asio6detail14typeid_wrapperINS0_13epoll_reactorEEE,"awG",@progbits,_ZTIN4asio6detail14typeid_wrapperINS0_13epoll_reactorEEE,comdat
	.align 8
	.type	_ZTIN4asio6detail14typeid_wrapperINS0_13epoll_reactorEEE, @object
	.size	_ZTIN4asio6detail14typeid_wrapperINS0_13epoll_reactorEEE, 16
_ZTIN4asio6detail14typeid_wrapperINS0_13epoll_reactorEEE:
	.quad	_ZTVN10__cxxabiv117__class_type_infoE+16
	.quad	_ZTSN4asio6detail14typeid_wrapperINS0_13epoll_reactorEEE
	.section	.data.rel.ro,"aw"
	.align 8
	.type	_ZTINSt6thread11_State_implINS_8_InvokerISt5tupleIJZN7asiopal10ThreadPoolC4ERKN7openpal6LoggerERKSt10shared_ptrINS3_2IOEEjSt8functionIFvvEESG_EUlvE0_EEEEEE, @object
	.size	_ZTINSt6thread11_State_implINS_8_InvokerISt5tupleIJZN7asiopal10ThreadPoolC4ERKN7openpal6LoggerERKSt10shared_ptrINS3_2IOEEjSt8functionIFvvEESG_EUlvE0_EEEEEE, 24
_ZTINSt6thread11_State_implINS_8_InvokerISt5tupleIJZN7asiopal10ThreadPoolC4ERKN7openpal6LoggerERKSt10shared_ptrINS3_2IOEEjSt8functionIFvvEESG_EUlvE0_EEEEEE:
	.quad	_ZTVN10__cxxabiv120__si_class_type_infoE+16
	.quad	_ZTSNSt6thread11_State_implINS_8_InvokerISt5tupleIJZN7asiopal10ThreadPoolC4ERKN7openpal6LoggerERKSt10shared_ptrINS3_2IOEEjSt8functionIFvvEESG_EUlvE0_EEEEEE
	.quad	_ZTINSt6thread6_StateE
	.section	.rodata
	.align 32
	.type	_ZTSNSt6thread11_State_implINS_8_InvokerISt5tupleIJZN7asiopal10ThreadPoolC4ERKN7openpal6LoggerERKSt10shared_ptrINS3_2IOEEjSt8functionIFvvEESG_EUlvE0_EEEEEE, @object
	.size	_ZTSNSt6thread11_State_implINS_8_InvokerISt5tupleIJZN7asiopal10ThreadPoolC4ERKN7openpal6LoggerERKSt10shared_ptrINS3_2IOEEjSt8functionIFvvEESG_EUlvE0_EEEEEE, 153
_ZTSNSt6thread11_State_implINS_8_InvokerISt5tupleIJZN7asiopal10ThreadPoolC4ERKN7openpal6LoggerERKSt10shared_ptrINS3_2IOEEjSt8functionIFvvEESG_EUlvE0_EEEEEE:
	.string	"*NSt6thread11_State_implINS_8_InvokerISt5tupleIJZN7asiopal10ThreadPoolC4ERKN7openpal6LoggerERKSt10shared_ptrINS3_2IOEEjSt8functionIFvvEESG_EUlvE0_EEEEEE"
	.weak	_ZTSN4asio6detail14typeid_wrapperINS_22waitable_timer_serviceINSt6chrono3_V212steady_clockENS_11wait_traitsIS5_EEEEEE
	.section	.rodata._ZTSN4asio6detail14typeid_wrapperINS_22waitable_timer_serviceINSt6chrono3_V212steady_clockENS_11wait_traitsIS5_EEEEEE,"aG",@progbits,_ZTSN4asio6detail14typeid_wrapperINS_22waitable_timer_serviceINSt6chrono3_V212steady_clockENS_11wait_traitsIS5_EEEEEE,comdat
	.align 32
	.type	_ZTSN4asio6detail14typeid_wrapperINS_22waitable_timer_serviceINSt6chrono3_V212steady_clockENS_11wait_traitsIS5_EEEEEE, @object
	.size	_ZTSN4asio6detail14typeid_wrapperINS_22waitable_timer_serviceINSt6chrono3_V212steady_clockENS_11wait_traitsIS5_EEEEEE, 114
_ZTSN4asio6detail14typeid_wrapperINS_22waitable_timer_serviceINSt6chrono3_V212steady_clockENS_11wait_traitsIS5_EEEEEE:
	.string	"N4asio6detail14typeid_wrapperINS_22waitable_timer_serviceINSt6chrono3_V212steady_clockENS_11wait_traitsIS5_EEEEEE"
	.weak	_ZTIN4asio6detail14typeid_wrapperINS_22waitable_timer_serviceINSt6chrono3_V212steady_clockENS_11wait_traitsIS5_EEEEEE
	.section	.data.rel.ro._ZTIN4asio6detail14typeid_wrapperINS_22waitable_timer_serviceINSt6chrono3_V212steady_clockENS_11wait_traitsIS5_EEEEEE,"awG",@progbits,_ZTIN4asio6detail14typeid_wrapperINS_22waitable_timer_serviceINSt6chrono3_V212steady_clockENS_11wait_traitsIS5_EEEEEE,comdat
	.align 8
	.type	_ZTIN4asio6detail14typeid_wrapperINS_22waitable_timer_serviceINSt6chrono3_V212steady_clockENS_11wait_traitsIS5_EEEEEE, @object
	.size	_ZTIN4asio6detail14typeid_wrapperINS_22waitable_timer_serviceINSt6chrono3_V212steady_clockENS_11wait_traitsIS5_EEEEEE, 16
_ZTIN4asio6detail14typeid_wrapperINS_22waitable_timer_serviceINSt6chrono3_V212steady_clockENS_11wait_traitsIS5_EEEEEE:
	.quad	_ZTVN10__cxxabiv117__class_type_infoE+16
	.quad	_ZTSN4asio6detail14typeid_wrapperINS_22waitable_timer_serviceINSt6chrono3_V212steady_clockENS_11wait_traitsIS5_EEEEEE
	.weak	_ZTVN4asio6detail15system_categoryE
	.section	.data.rel.ro._ZTVN4asio6detail15system_categoryE,"awG",@progbits,_ZTVN4asio6detail15system_categoryE,comdat
	.align 8
	.type	_ZTVN4asio6detail15system_categoryE, @object
	.size	_ZTVN4asio6detail15system_categoryE, 80
_ZTVN4asio6detail15system_categoryE:
	.quad	0
	.quad	_ZTIN4asio6detail15system_categoryE
	.quad	_ZN4asio6detail15system_categoryD1Ev
	.quad	_ZN4asio6detail15system_categoryD0Ev
	.quad	_ZNK4asio6detail15system_category4nameEv
	.quad	_ZNKSt3_V214error_category10_M_messageB5cxx11Ei
	.quad	_ZNK4asio6detail15system_category7messageB5cxx11Ei
	.quad	_ZNKSt3_V214error_category23default_error_conditionEi
	.quad	_ZNKSt3_V214error_category10equivalentEiRKSt15error_condition
	.quad	_ZNKSt3_V214error_category10equivalentERKSt10error_codei
	.weak	_ZTVN4asio5error6detail14netdb_categoryE
	.section	.data.rel.ro._ZTVN4asio5error6detail14netdb_categoryE,"awG",@progbits,_ZTVN4asio5error6detail14netdb_categoryE,comdat
	.align 8
	.type	_ZTVN4asio5error6detail14netdb_categoryE, @object
	.size	_ZTVN4asio5error6detail14netdb_categoryE, 80
_ZTVN4asio5error6detail14netdb_categoryE:
	.quad	0
	.quad	_ZTIN4asio5error6detail14netdb_categoryE
	.quad	_ZN4asio5error6detail14netdb_categoryD1Ev
	.quad	_ZN4asio5error6detail14netdb_categoryD0Ev
	.quad	_ZNK4asio5error6detail14netdb_category4nameEv
	.quad	_ZNKSt3_V214error_category10_M_messageB5cxx11Ei
	.quad	_ZNK4asio5error6detail14netdb_category7messageB5cxx11Ei
	.quad	_ZNKSt3_V214error_category23default_error_conditionEi
	.quad	_ZNKSt3_V214error_category10equivalentEiRKSt15error_condition
	.quad	_ZNKSt3_V214error_category10equivalentERKSt10error_codei
	.weak	_ZTVN4asio5error6detail17addrinfo_categoryE
	.section	.data.rel.ro._ZTVN4asio5error6detail17addrinfo_categoryE,"awG",@progbits,_ZTVN4asio5error6detail17addrinfo_categoryE,comdat
	.align 8
	.type	_ZTVN4asio5error6detail17addrinfo_categoryE, @object
	.size	_ZTVN4asio5error6detail17addrinfo_categoryE, 80
_ZTVN4asio5error6detail17addrinfo_categoryE:
	.quad	0
	.quad	_ZTIN4asio5error6detail17addrinfo_categoryE
	.quad	_ZN4asio5error6detail17addrinfo_categoryD1Ev
	.quad	_ZN4asio5error6detail17addrinfo_categoryD0Ev
	.quad	_ZNK4asio5error6detail17addrinfo_category4nameEv
	.quad	_ZNKSt3_V214error_category10_M_messageB5cxx11Ei
	.quad	_ZNK4asio5error6detail17addrinfo_category7messageB5cxx11Ei
	.quad	_ZNKSt3_V214error_category23default_error_conditionEi
	.quad	_ZNKSt3_V214error_category10equivalentEiRKSt15error_condition
	.quad	_ZNKSt3_V214error_category10equivalentERKSt10error_codei
	.weak	_ZTVN4asio5error6detail13misc_categoryE
	.section	.data.rel.ro._ZTVN4asio5error6detail13misc_categoryE,"awG",@progbits,_ZTVN4asio5error6detail13misc_categoryE,comdat
	.align 8
	.type	_ZTVN4asio5error6detail13misc_categoryE, @object
	.size	_ZTVN4asio5error6detail13misc_categoryE, 80
_ZTVN4asio5error6detail13misc_categoryE:
	.quad	0
	.quad	_ZTIN4asio5error6detail13misc_categoryE
	.quad	_ZN4asio5error6detail13misc_categoryD1Ev
	.quad	_ZN4asio5error6detail13misc_categoryD0Ev
	.quad	_ZNK4asio5error6detail13misc_category4nameEv
	.quad	_ZNKSt3_V214error_category10_M_messageB5cxx11Ei
	.quad	_ZNK4asio5error6detail13misc_category7messageB5cxx11Ei
	.quad	_ZNKSt3_V214error_category23default_error_conditionEi
	.quad	_ZNKSt3_V214error_category10equivalentEiRKSt15error_condition
	.quad	_ZNKSt3_V214error_category10equivalentERKSt10error_codei
	.weak	_ZTVN4asio6detail13epoll_reactorE
	.section	.data.rel.ro._ZTVN4asio6detail13epoll_reactorE,"awG",@progbits,_ZTVN4asio6detail13epoll_reactorE,comdat
	.align 8
	.type	_ZTVN4asio6detail13epoll_reactorE, @object
	.size	_ZTVN4asio6detail13epoll_reactorE, 48
_ZTVN4asio6detail13epoll_reactorE:
	.quad	0
	.quad	_ZTIN4asio6detail13epoll_reactorE
	.quad	_ZN4asio6detail13epoll_reactorD1Ev
	.quad	_ZN4asio6detail13epoll_reactorD0Ev
	.quad	_ZN4asio6detail13epoll_reactor16shutdown_serviceEv
	.quad	_ZN4asio6detail13epoll_reactor12fork_serviceENS_10io_service10fork_eventE
	.weak	_ZTVN4asio6detail11timer_queueINS0_18chrono_time_traitsINSt6chrono3_V212steady_clockENS_11wait_traitsIS5_EEEEEE
	.section	.data.rel.ro._ZTVN4asio6detail11timer_queueINS0_18chrono_time_traitsINSt6chrono3_V212steady_clockENS_11wait_traitsIS5_EEEEEE,"awG",@progbits,_ZTVN4asio6detail11timer_queueINS0_18chrono_time_traitsINSt6chrono3_V212steady_clockENS_11wait_traitsIS5_EEEEEE,comdat
	.align 8
	.type	_ZTVN4asio6detail11timer_queueINS0_18chrono_time_traitsINSt6chrono3_V212steady_clockENS_11wait_traitsIS5_EEEEEE, @object
	.size	_ZTVN4asio6detail11timer_queueINS0_18chrono_time_traitsINSt6chrono3_V212steady_clockENS_11wait_traitsIS5_EEEEEE, 72
_ZTVN4asio6detail11timer_queueINS0_18chrono_time_traitsINSt6chrono3_V212steady_clockENS_11wait_traitsIS5_EEEEEE:
	.quad	0
	.quad	_ZTIN4asio6detail11timer_queueINS0_18chrono_time_traitsINSt6chrono3_V212steady_clockENS_11wait_traitsIS5_EEEEEE
	.quad	_ZN4asio6detail11timer_queueINS0_18chrono_time_traitsINSt6chrono3_V212steady_clockENS_11wait_traitsIS5_EEEEED1Ev
	.quad	_ZN4asio6detail11timer_queueINS0_18chrono_time_traitsINSt6chrono3_V212steady_clockENS_11wait_traitsIS5_EEEEED0Ev
	.quad	_ZNK4asio6detail11timer_queueINS0_18chrono_time_traitsINSt6chrono3_V212steady_clockENS_11wait_traitsIS5_EEEEE5emptyEv
	.quad	_ZNK4asio6detail11timer_queueINS0_18chrono_time_traitsINSt6chrono3_V212steady_clockENS_11wait_traitsIS5_EEEEE18wait_duration_msecEl
	.quad	_ZNK4asio6detail11timer_queueINS0_18chrono_time_traitsINSt6chrono3_V212steady_clockENS_11wait_traitsIS5_EEEEE18wait_duration_usecEl
	.quad	_ZN4asio6detail11timer_queueINS0_18chrono_time_traitsINSt6chrono3_V212steady_clockENS_11wait_traitsIS5_EEEEE16get_ready_timersERNS0_8op_queueINS0_25task_io_service_operationEEE
	.quad	_ZN4asio6detail11timer_queueINS0_18chrono_time_traitsINSt6chrono3_V212steady_clockENS_11wait_traitsIS5_EEEEE14get_all_timersERNS0_8op_queueINS0_25task_io_service_operationEEE
	.weak	_ZTVN4asio22waitable_timer_serviceINSt6chrono3_V212steady_clockENS_11wait_traitsIS3_EEEE
	.section	.data.rel.ro._ZTVN4asio22waitable_timer_serviceINSt6chrono3_V212steady_clockENS_11wait_traitsIS3_EEEE,"awG",@progbits,_ZTVN4asio22waitable_timer_serviceINSt6chrono3_V212steady_clockENS_11wait_traitsIS3_EEEE,comdat
	.align 8
	.type	_ZTVN4asio22waitable_timer_serviceINSt6chrono3_V212steady_clockENS_11wait_traitsIS3_EEEE, @object
	.size	_ZTVN4asio22waitable_timer_serviceINSt6chrono3_V212steady_clockENS_11wait_traitsIS3_EEEE, 48
_ZTVN4asio22waitable_timer_serviceINSt6chrono3_V212steady_clockENS_11wait_traitsIS3_EEEE:
	.quad	0
	.quad	_ZTIN4asio22waitable_timer_serviceINSt6chrono3_V212steady_clockENS_11wait_traitsIS3_EEEE
	.quad	_ZN4asio22waitable_timer_serviceINSt6chrono3_V212steady_clockENS_11wait_traitsIS3_EEED1Ev
	.quad	_ZN4asio22waitable_timer_serviceINSt6chrono3_V212steady_clockENS_11wait_traitsIS3_EEED0Ev
	.quad	_ZN4asio22waitable_timer_serviceINSt6chrono3_V212steady_clockENS_11wait_traitsIS3_EEE16shutdown_serviceEv
	.quad	_ZN4asio10io_service7service12fork_serviceENS0_10fork_eventE
	.section	.data.rel.ro.local,"aw"
	.align 8
	.type	_ZTVNSt6thread11_State_implINS_8_InvokerISt5tupleIJZN7asiopal10ThreadPoolC4ERKN7openpal6LoggerERKSt10shared_ptrINS3_2IOEEjSt8functionIFvvEESG_EUlvE0_EEEEEE, @object
	.size	_ZTVNSt6thread11_State_implINS_8_InvokerISt5tupleIJZN7asiopal10ThreadPoolC4ERKN7openpal6LoggerERKSt10shared_ptrINS3_2IOEEjSt8functionIFvvEESG_EUlvE0_EEEEEE, 40
_ZTVNSt6thread11_State_implINS_8_InvokerISt5tupleIJZN7asiopal10ThreadPoolC4ERKN7openpal6LoggerERKSt10shared_ptrINS3_2IOEEjSt8functionIFvvEESG_EUlvE0_EEEEEE:
	.quad	0
	.quad	_ZTINSt6thread11_State_implINS_8_InvokerISt5tupleIJZN7asiopal10ThreadPoolC4ERKN7openpal6LoggerERKSt10shared_ptrINS3_2IOEEjSt8functionIFvvEESG_EUlvE0_EEEEEE
	.quad	_ZNSt6thread11_State_implINS_8_InvokerISt5tupleIJZN7asiopal10ThreadPoolC4ERKN7openpal6LoggerERKSt10shared_ptrINS3_2IOEEjSt8functionIFvvEESG_EUlvE0_EEEEED1Ev
	.quad	_ZNSt6thread11_State_implINS_8_InvokerISt5tupleIJZN7asiopal10ThreadPoolC4ERKN7openpal6LoggerERKSt10shared_ptrINS3_2IOEEjSt8functionIFvvEESG_EUlvE0_EEEEED0Ev
	.quad	_ZNSt6thread11_State_implINS_8_InvokerISt5tupleIJZN7asiopal10ThreadPoolC4ERKN7openpal6LoggerERKSt10shared_ptrINS3_2IOEEjSt8functionIFvvEESG_EUlvE0_EEEEE6_M_runEv
	.weak	_ZGVZN4asio5error17get_misc_categoryEvE8instance
	.section	.bss._ZGVZN4asio5error17get_misc_categoryEvE8instance,"awG",@nobits,_ZGVZN4asio5error17get_misc_categoryEvE8instance,comdat
	.align 8
	.type	_ZGVZN4asio5error17get_misc_categoryEvE8instance, @gnu_unique_object
	.size	_ZGVZN4asio5error17get_misc_categoryEvE8instance, 8
_ZGVZN4asio5error17get_misc_categoryEvE8instance:
	.zero	8
	.weak	_ZZN4asio5error17get_misc_categoryEvE8instance
	.section	.data.rel._ZZN4asio5error17get_misc_categoryEvE8instance,"awG",@progbits,_ZZN4asio5error17get_misc_categoryEvE8instance,comdat
	.align 8
	.type	_ZZN4asio5error17get_misc_categoryEvE8instance, @gnu_unique_object
	.size	_ZZN4asio5error17get_misc_categoryEvE8instance, 8
_ZZN4asio5error17get_misc_categoryEvE8instance:
	.quad	_ZTVN4asio5error6detail13misc_categoryE+16
	.weak	_ZGVZN4asio5error21get_addrinfo_categoryEvE8instance
	.section	.bss._ZGVZN4asio5error21get_addrinfo_categoryEvE8instance,"awG",@nobits,_ZGVZN4asio5error21get_addrinfo_categoryEvE8instance,comdat
	.align 8
	.type	_ZGVZN4asio5error21get_addrinfo_categoryEvE8instance, @gnu_unique_object
	.size	_ZGVZN4asio5error21get_addrinfo_categoryEvE8instance, 8
_ZGVZN4asio5error21get_addrinfo_categoryEvE8instance:
	.zero	8
	.weak	_ZZN4asio5error21get_addrinfo_categoryEvE8instance
	.section	.data.rel._ZZN4asio5error21get_addrinfo_categoryEvE8instance,"awG",@progbits,_ZZN4asio5error21get_addrinfo_categoryEvE8instance,comdat
	.align 8
	.type	_ZZN4asio5error21get_addrinfo_categoryEvE8instance, @gnu_unique_object
	.size	_ZZN4asio5error21get_addrinfo_categoryEvE8instance, 8
_ZZN4asio5error21get_addrinfo_categoryEvE8instance:
	.quad	_ZTVN4asio5error6detail17addrinfo_categoryE+16
	.weak	_ZGVZN4asio5error18get_netdb_categoryEvE8instance
	.section	.bss._ZGVZN4asio5error18get_netdb_categoryEvE8instance,"awG",@nobits,_ZGVZN4asio5error18get_netdb_categoryEvE8instance,comdat
	.align 8
	.type	_ZGVZN4asio5error18get_netdb_categoryEvE8instance, @gnu_unique_object
	.size	_ZGVZN4asio5error18get_netdb_categoryEvE8instance, 8
_ZGVZN4asio5error18get_netdb_categoryEvE8instance:
	.zero	8
	.weak	_ZZN4asio5error18get_netdb_categoryEvE8instance
	.section	.data.rel._ZZN4asio5error18get_netdb_categoryEvE8instance,"awG",@progbits,_ZZN4asio5error18get_netdb_categoryEvE8instance,comdat
	.align 8
	.type	_ZZN4asio5error18get_netdb_categoryEvE8instance, @gnu_unique_object
	.size	_ZZN4asio5error18get_netdb_categoryEvE8instance, 8
_ZZN4asio5error18get_netdb_categoryEvE8instance:
	.quad	_ZTVN4asio5error6detail14netdb_categoryE+16
	.weak	_ZGVZN4asio15system_categoryEvE8instance
	.section	.bss._ZGVZN4asio15system_categoryEvE8instance,"awG",@nobits,_ZGVZN4asio15system_categoryEvE8instance,comdat
	.align 8
	.type	_ZGVZN4asio15system_categoryEvE8instance, @gnu_unique_object
	.size	_ZGVZN4asio15system_categoryEvE8instance, 8
_ZGVZN4asio15system_categoryEvE8instance:
	.zero	8
	.weak	_ZZN4asio15system_categoryEvE8instance
	.section	.data.rel._ZZN4asio15system_categoryEvE8instance,"awG",@progbits,_ZZN4asio15system_categoryEvE8instance,comdat
	.align 8
	.type	_ZZN4asio15system_categoryEvE8instance, @gnu_unique_object
	.size	_ZZN4asio15system_categoryEvE8instance, 8
_ZZN4asio15system_categoryEvE8instance:
	.quad	_ZTVN4asio6detail15system_categoryE+16
	.weak	_ZN4asio6detail15keyword_tss_ptrINS0_10call_stackINS0_15task_io_serviceENS0_27task_io_service_thread_infoEE7contextEE6value_E
	.section	.tbss._ZN4asio6detail15keyword_tss_ptrINS0_10call_stackINS0_15task_io_serviceENS0_27task_io_service_thread_infoEE7contextEE6value_E,"awTG",@nobits,_ZN4asio6detail15keyword_tss_ptrINS0_10call_stackINS0_15task_io_serviceENS0_27task_io_service_thread_infoEE7contextEE6value_E,comdat
	.align 8
	.type	_ZN4asio6detail15keyword_tss_ptrINS0_10call_stackINS0_15task_io_serviceENS0_27task_io_service_thread_infoEE7contextEE6value_E, @gnu_unique_object
	.size	_ZN4asio6detail15keyword_tss_ptrINS0_10call_stackINS0_15task_io_serviceENS0_27task_io_service_thread_infoEE7contextEE6value_E, 8
_ZN4asio6detail15keyword_tss_ptrINS0_10call_stackINS0_15task_io_serviceENS0_27task_io_service_thread_infoEE7contextEE6value_E:
	.zero	8
	.weakref	_ZL28__gthrw___pthread_key_createPjPFvPvE,__pthread_key_create
	.section	.rodata.cst16,"aM",@progbits,16
	.align 16
.LC5:
	.quad	8028075772644520015
	.quad	7310593917846626414
	.align 16
.LC6:
	.quad	2334381286471394643
	.quad	7959390400869068654
	.align 16
.LC7:
	.quad	8367816086596579155
	.quad	2338616625292734585
	.align 16
.LC8:
	.quad	7234013753529430881
	.quad	8243030355803531634
	.align 16
.LC9:
	.quad	2338615488418245701
	.quad	7959390400869068654
	.align 16
.LC10:
	.quad	7166182912791242836
	.quad	7214892426067994994
	.align 16
.LC11:
	.quad	2338616625293649263
	.quad	8031165433303558502
	.align 16
.LC12:
	.quad	7810775711721485344
	.quad	7812726531955123045
	.align 16
.LC13:
	.quad	8390045716486254408
	.quad	2891421386351273504
	.align 16
.LC14:
	.quad	7526769937477431150
	.quad	8532478930943832687
	.align 16
.LC15:
	.quad	2340027324477221221
	.quad	7020021577750243169
	.align 16
.LC16:
	.quad	8243123821706831956
	.quad	7809653110584451193
	.align 16
.LC17:
	.quad	2338623170819155049
	.quad	2338324160631043177
	.align 16
.LC18:
	.quad	7311138144931573614
	.quad	7019250824563089696
	.align 16
.LC19:
	.quad	7309955097514876993
	.quad	7809911847770287971
	.align 16
.LC20:
	.quad	2338053693894893669
	.quad	7234314212361855855
	.align 16
.LC21:
	.quad	2334956330985808928
	.quad	7310293695322153316
	.align 16
.LC22:
	.quad	8387231026764149601
	.quad	8245935278387126884
	.hidden	DW.ref.__gxx_personality_v0
	.weak	DW.ref.__gxx_personality_v0
	.section	.data.rel.local.DW.ref.__gxx_personality_v0,"awG",@progbits,DW.ref.__gxx_personality_v0,comdat
	.align 8
	.type	DW.ref.__gxx_personality_v0, @object
	.size	DW.ref.__gxx_personality_v0, 8
DW.ref.__gxx_personality_v0:
	.quad	__gxx_personality_v0
	.hidden	__dso_handle
	.ident	"GCC: (Ubuntu 9.4.0-1ubuntu1~20.04.1) 9.4.0"
	.section	.note.GNU-stack,"",@progbits
	.section	.note.gnu.property,"a"
	.align 8
	.long	 1f - 0f
	.long	 4f - 1f
	.long	 5
0:
	.string	 "GNU"
1:
	.align 8
	.long	 0xc0000002
	.long	 3f - 2f
2:
	.long	 0x3
3:
	.align 8
4:
