	.file	"Timer.cpp"
	.text
	.section	.rodata._ZNK4asio6detail15system_category4nameEv.str1.1,"aMS",@progbits,1
.LC0:
	.string	"asio.system"
	.section	.text._ZNK4asio6detail15system_category4nameEv,"axG",@progbits,_ZNK4asio6detail15system_category4nameEv,comdat
	.align 2
	.p2align 4
	.weak	_ZNK4asio6detail15system_category4nameEv
	.type	_ZNK4asio6detail15system_category4nameEv, @function
_ZNK4asio6detail15system_category4nameEv:
.LFB2223:
	.cfi_startproc
	endbr64
	leaq	.LC0(%rip), %rax
	ret
	.cfi_endproc
.LFE2223:
	.size	_ZNK4asio6detail15system_category4nameEv, .-_ZNK4asio6detail15system_category4nameEv
	.section	.rodata._ZNK4asio5error6detail14netdb_category4nameEv.str1.1,"aMS",@progbits,1
.LC1:
	.string	"asio.netdb"
	.section	.text._ZNK4asio5error6detail14netdb_category4nameEv,"axG",@progbits,_ZNK4asio5error6detail14netdb_category4nameEv,comdat
	.align 2
	.p2align 4
	.weak	_ZNK4asio5error6detail14netdb_category4nameEv
	.type	_ZNK4asio5error6detail14netdb_category4nameEv, @function
_ZNK4asio5error6detail14netdb_category4nameEv:
.LFB2263:
	.cfi_startproc
	endbr64
	leaq	.LC1(%rip), %rax
	ret
	.cfi_endproc
.LFE2263:
	.size	_ZNK4asio5error6detail14netdb_category4nameEv, .-_ZNK4asio5error6detail14netdb_category4nameEv
	.section	.rodata._ZNK4asio5error6detail17addrinfo_category4nameEv.str1.1,"aMS",@progbits,1
.LC2:
	.string	"asio.addrinfo"
	.section	.text._ZNK4asio5error6detail17addrinfo_category4nameEv,"axG",@progbits,_ZNK4asio5error6detail17addrinfo_category4nameEv,comdat
	.align 2
	.p2align 4
	.weak	_ZNK4asio5error6detail17addrinfo_category4nameEv
	.type	_ZNK4asio5error6detail17addrinfo_category4nameEv, @function
_ZNK4asio5error6detail17addrinfo_category4nameEv:
.LFB2269:
	.cfi_startproc
	endbr64
	leaq	.LC2(%rip), %rax
	ret
	.cfi_endproc
.LFE2269:
	.size	_ZNK4asio5error6detail17addrinfo_category4nameEv, .-_ZNK4asio5error6detail17addrinfo_category4nameEv
	.section	.rodata._ZNK4asio5error6detail13misc_category4nameEv.str1.1,"aMS",@progbits,1
.LC3:
	.string	"asio.misc"
	.section	.text._ZNK4asio5error6detail13misc_category4nameEv,"axG",@progbits,_ZNK4asio5error6detail13misc_category4nameEv,comdat
	.align 2
	.p2align 4
	.weak	_ZNK4asio5error6detail13misc_category4nameEv
	.type	_ZNK4asio5error6detail13misc_category4nameEv, @function
_ZNK4asio5error6detail13misc_category4nameEv:
.LFB2275:
	.cfi_startproc
	endbr64
	leaq	.LC3(%rip), %rax
	ret
	.cfi_endproc
.LFE2275:
	.size	_ZNK4asio5error6detail13misc_category4nameEv, .-_ZNK4asio5error6detail13misc_category4nameEv
	.section	.text._ZN4asio10io_service7service12fork_serviceENS0_10fork_eventE,"axG",@progbits,_ZN4asio10io_service7service12fork_serviceENS0_10fork_eventE,comdat
	.align 2
	.p2align 4
	.weak	_ZN4asio10io_service7service12fork_serviceENS0_10fork_eventE
	.type	_ZN4asio10io_service7service12fork_serviceENS0_10fork_eventE, @function
_ZN4asio10io_service7service12fork_serviceENS0_10fork_eventE:
.LFB3236:
	.cfi_startproc
	endbr64
	ret
	.cfi_endproc
.LFE3236:
	.size	_ZN4asio10io_service7service12fork_serviceENS0_10fork_eventE, .-_ZN4asio10io_service7service12fork_serviceENS0_10fork_eventE
	.section	.text._ZN4asio6detail7tss_ptrINS0_10call_stackINS0_15task_io_serviceENS0_27task_io_service_thread_infoEE7contextEED2Ev,"axG",@progbits,_ZN4asio6detail7tss_ptrINS0_10call_stackINS0_15task_io_serviceENS0_27task_io_service_thread_infoEE7contextEED5Ev,comdat
	.align 2
	.p2align 4
	.weak	_ZN4asio6detail7tss_ptrINS0_10call_stackINS0_15task_io_serviceENS0_27task_io_service_thread_infoEE7contextEED2Ev
	.type	_ZN4asio6detail7tss_ptrINS0_10call_stackINS0_15task_io_serviceENS0_27task_io_service_thread_infoEE7contextEED2Ev, @function
_ZN4asio6detail7tss_ptrINS0_10call_stackINS0_15task_io_serviceENS0_27task_io_service_thread_infoEE7contextEED2Ev:
.LFB7656:
	.cfi_startproc
	endbr64
	ret
	.cfi_endproc
.LFE7656:
	.size	_ZN4asio6detail7tss_ptrINS0_10call_stackINS0_15task_io_serviceENS0_27task_io_service_thread_infoEE7contextEED2Ev, .-_ZN4asio6detail7tss_ptrINS0_10call_stackINS0_15task_io_serviceENS0_27task_io_service_thread_infoEE7contextEED2Ev
	.weak	_ZN4asio6detail7tss_ptrINS0_10call_stackINS0_15task_io_serviceENS0_27task_io_service_thread_infoEE7contextEED1Ev
	.set	_ZN4asio6detail7tss_ptrINS0_10call_stackINS0_15task_io_serviceENS0_27task_io_service_thread_infoEE7contextEED1Ev,_ZN4asio6detail7tss_ptrINS0_10call_stackINS0_15task_io_serviceENS0_27task_io_service_thread_infoEE7contextEED2Ev
	.section	.text._ZN4asio6detail10service_idINS0_13epoll_reactorEED2Ev,"axG",@progbits,_ZN4asio6detail10service_idINS0_13epoll_reactorEED5Ev,comdat
	.align 2
	.p2align 4
	.weak	_ZN4asio6detail10service_idINS0_13epoll_reactorEED2Ev
	.type	_ZN4asio6detail10service_idINS0_13epoll_reactorEED2Ev, @function
_ZN4asio6detail10service_idINS0_13epoll_reactorEED2Ev:
.LFB7659:
	.cfi_startproc
	endbr64
	ret
	.cfi_endproc
.LFE7659:
	.size	_ZN4asio6detail10service_idINS0_13epoll_reactorEED2Ev, .-_ZN4asio6detail10service_idINS0_13epoll_reactorEED2Ev
	.weak	_ZN4asio6detail10service_idINS0_13epoll_reactorEED1Ev
	.set	_ZN4asio6detail10service_idINS0_13epoll_reactorEED1Ev,_ZN4asio6detail10service_idINS0_13epoll_reactorEED2Ev
	.section	.text._ZN4asio6detail10service_idINS0_15task_io_serviceEED2Ev,"axG",@progbits,_ZN4asio6detail10service_idINS0_15task_io_serviceEED5Ev,comdat
	.align 2
	.p2align 4
	.weak	_ZN4asio6detail10service_idINS0_15task_io_serviceEED2Ev
	.type	_ZN4asio6detail10service_idINS0_15task_io_serviceEED2Ev, @function
_ZN4asio6detail10service_idINS0_15task_io_serviceEED2Ev:
.LFB7662:
	.cfi_startproc
	endbr64
	ret
	.cfi_endproc
.LFE7662:
	.size	_ZN4asio6detail10service_idINS0_15task_io_serviceEED2Ev, .-_ZN4asio6detail10service_idINS0_15task_io_serviceEED2Ev
	.weak	_ZN4asio6detail10service_idINS0_15task_io_serviceEED1Ev
	.set	_ZN4asio6detail10service_idINS0_15task_io_serviceEED1Ev,_ZN4asio6detail10service_idINS0_15task_io_serviceEED2Ev
	.section	.text._ZN4asio6detail7tss_ptrINS0_10call_stackINS0_14strand_service11strand_implEhE7contextEED2Ev,"axG",@progbits,_ZN4asio6detail7tss_ptrINS0_10call_stackINS0_14strand_service11strand_implEhE7contextEED5Ev,comdat
	.align 2
	.p2align 4
	.weak	_ZN4asio6detail7tss_ptrINS0_10call_stackINS0_14strand_service11strand_implEhE7contextEED2Ev
	.type	_ZN4asio6detail7tss_ptrINS0_10call_stackINS0_14strand_service11strand_implEhE7contextEED2Ev, @function
_ZN4asio6detail7tss_ptrINS0_10call_stackINS0_14strand_service11strand_implEhE7contextEED2Ev:
.LFB7665:
	.cfi_startproc
	endbr64
	ret
	.cfi_endproc
.LFE7665:
	.size	_ZN4asio6detail7tss_ptrINS0_10call_stackINS0_14strand_service11strand_implEhE7contextEED2Ev, .-_ZN4asio6detail7tss_ptrINS0_10call_stackINS0_14strand_service11strand_implEhE7contextEED2Ev
	.weak	_ZN4asio6detail7tss_ptrINS0_10call_stackINS0_14strand_service11strand_implEhE7contextEED1Ev
	.set	_ZN4asio6detail7tss_ptrINS0_10call_stackINS0_14strand_service11strand_implEhE7contextEED1Ev,_ZN4asio6detail7tss_ptrINS0_10call_stackINS0_14strand_service11strand_implEhE7contextEED2Ev
	.section	.text._ZN4asio6detail10service_idINS0_14strand_serviceEED2Ev,"axG",@progbits,_ZN4asio6detail10service_idINS0_14strand_serviceEED5Ev,comdat
	.align 2
	.p2align 4
	.weak	_ZN4asio6detail10service_idINS0_14strand_serviceEED2Ev
	.type	_ZN4asio6detail10service_idINS0_14strand_serviceEED2Ev, @function
_ZN4asio6detail10service_idINS0_14strand_serviceEED2Ev:
.LFB7668:
	.cfi_startproc
	endbr64
	ret
	.cfi_endproc
.LFE7668:
	.size	_ZN4asio6detail10service_idINS0_14strand_serviceEED2Ev, .-_ZN4asio6detail10service_idINS0_14strand_serviceEED2Ev
	.weak	_ZN4asio6detail10service_idINS0_14strand_serviceEED1Ev
	.set	_ZN4asio6detail10service_idINS0_14strand_serviceEED1Ev,_ZN4asio6detail10service_idINS0_14strand_serviceEED2Ev
	.section	.text._ZN4asio6detail10service_idINS_22waitable_timer_serviceINSt6chrono3_V212steady_clockENS_11wait_traitsIS5_EEEEED2Ev,"axG",@progbits,_ZN4asio6detail10service_idINS_22waitable_timer_serviceINSt6chrono3_V212steady_clockENS_11wait_traitsIS5_EEEEED5Ev,comdat
	.align 2
	.p2align 4
	.weak	_ZN4asio6detail10service_idINS_22waitable_timer_serviceINSt6chrono3_V212steady_clockENS_11wait_traitsIS5_EEEEED2Ev
	.type	_ZN4asio6detail10service_idINS_22waitable_timer_serviceINSt6chrono3_V212steady_clockENS_11wait_traitsIS5_EEEEED2Ev, @function
_ZN4asio6detail10service_idINS_22waitable_timer_serviceINSt6chrono3_V212steady_clockENS_11wait_traitsIS5_EEEEED2Ev:
.LFB7671:
	.cfi_startproc
	endbr64
	ret
	.cfi_endproc
.LFE7671:
	.size	_ZN4asio6detail10service_idINS_22waitable_timer_serviceINSt6chrono3_V212steady_clockENS_11wait_traitsIS5_EEEEED2Ev, .-_ZN4asio6detail10service_idINS_22waitable_timer_serviceINSt6chrono3_V212steady_clockENS_11wait_traitsIS5_EEEEED2Ev
	.weak	_ZN4asio6detail10service_idINS_22waitable_timer_serviceINSt6chrono3_V212steady_clockENS_11wait_traitsIS5_EEEEED1Ev
	.set	_ZN4asio6detail10service_idINS_22waitable_timer_serviceINSt6chrono3_V212steady_clockENS_11wait_traitsIS5_EEEEED1Ev,_ZN4asio6detail10service_idINS_22waitable_timer_serviceINSt6chrono3_V212steady_clockENS_11wait_traitsIS5_EEEEED2Ev
	.section	.text._ZN4asio22waitable_timer_serviceINSt6chrono3_V212steady_clockENS_11wait_traitsIS3_EEE16shutdown_serviceEv,"axG",@progbits,_ZN4asio22waitable_timer_serviceINSt6chrono3_V212steady_clockENS_11wait_traitsIS3_EEE16shutdown_serviceEv,comdat
	.align 2
	.p2align 4
	.weak	_ZN4asio22waitable_timer_serviceINSt6chrono3_V212steady_clockENS_11wait_traitsIS3_EEE16shutdown_serviceEv
	.type	_ZN4asio22waitable_timer_serviceINSt6chrono3_V212steady_clockENS_11wait_traitsIS3_EEE16shutdown_serviceEv, @function
_ZN4asio22waitable_timer_serviceINSt6chrono3_V212steady_clockENS_11wait_traitsIS3_EEE16shutdown_serviceEv:
.LFB7681:
	.cfi_startproc
	endbr64
	ret
	.cfi_endproc
.LFE7681:
	.size	_ZN4asio22waitable_timer_serviceINSt6chrono3_V212steady_clockENS_11wait_traitsIS3_EEE16shutdown_serviceEv, .-_ZN4asio22waitable_timer_serviceINSt6chrono3_V212steady_clockENS_11wait_traitsIS3_EEE16shutdown_serviceEv
	.section	.text._ZNK4asio6detail11timer_queueINS0_18chrono_time_traitsINSt6chrono3_V212steady_clockENS_11wait_traitsIS5_EEEEE5emptyEv,"axG",@progbits,_ZNK4asio6detail11timer_queueINS0_18chrono_time_traitsINSt6chrono3_V212steady_clockENS_11wait_traitsIS5_EEEEE5emptyEv,comdat
	.align 2
	.p2align 4
	.weak	_ZNK4asio6detail11timer_queueINS0_18chrono_time_traitsINSt6chrono3_V212steady_clockENS_11wait_traitsIS5_EEEEE5emptyEv
	.type	_ZNK4asio6detail11timer_queueINS0_18chrono_time_traitsINSt6chrono3_V212steady_clockENS_11wait_traitsIS5_EEEEE5emptyEv, @function
_ZNK4asio6detail11timer_queueINS0_18chrono_time_traitsINSt6chrono3_V212steady_clockENS_11wait_traitsIS5_EEEEE5emptyEv:
.LFB7682:
	.cfi_startproc
	endbr64
	cmpq	$0, 16(%rdi)
	sete	%al
	ret
	.cfi_endproc
.LFE7682:
	.size	_ZNK4asio6detail11timer_queueINS0_18chrono_time_traitsINSt6chrono3_V212steady_clockENS_11wait_traitsIS5_EEEEE5emptyEv, .-_ZNK4asio6detail11timer_queueINS0_18chrono_time_traitsINSt6chrono3_V212steady_clockENS_11wait_traitsIS5_EEEEE5emptyEv
	.section	.text._ZN4asio6detail11timer_queueINS0_18chrono_time_traitsINSt6chrono3_V212steady_clockENS_11wait_traitsIS5_EEEEE14get_all_timersERNS0_8op_queueINS0_25task_io_service_operationEEE,"axG",@progbits,_ZN4asio6detail11timer_queueINS0_18chrono_time_traitsINSt6chrono3_V212steady_clockENS_11wait_traitsIS5_EEEEE14get_all_timersERNS0_8op_queueINS0_25task_io_service_operationEEE,comdat
	.align 2
	.p2align 4
	.weak	_ZN4asio6detail11timer_queueINS0_18chrono_time_traitsINSt6chrono3_V212steady_clockENS_11wait_traitsIS5_EEEEE14get_all_timersERNS0_8op_queueINS0_25task_io_service_operationEEE
	.type	_ZN4asio6detail11timer_queueINS0_18chrono_time_traitsINSt6chrono3_V212steady_clockENS_11wait_traitsIS5_EEEEE14get_all_timersERNS0_8op_queueINS0_25task_io_service_operationEEE, @function
_ZN4asio6detail11timer_queueINS0_18chrono_time_traitsINSt6chrono3_V212steady_clockENS_11wait_traitsIS5_EEEEE14get_all_timersERNS0_8op_queueINS0_25task_io_service_operationEEE:
.LFB7686:
	.cfi_startproc
	endbr64
	movq	16(%rdi), %rdx
	testq	%rdx, %rdx
	je	.L16
	pxor	%xmm0, %xmm0
	jmp	.L20
	.p2align 4,,10
	.p2align 3
.L30:
	movq	%rcx, (%r8)
.L19:
	movq	8(%rax), %rcx
	movq	%rcx, 8(%rsi)
	movups	%xmm0, (%rax)
.L17:
	movups	%xmm0, 24(%rax)
	testq	%rdx, %rdx
	je	.L29
.L20:
	movq	%rdx, %rax
	movq	24(%rdx), %rdx
	movq	(%rax), %rcx
	testq	%rcx, %rcx
	je	.L17
	movq	8(%rsi), %r8
	testq	%r8, %r8
	jne	.L30
	movq	%rcx, (%rsi)
	jmp	.L19
	.p2align 4,,10
	.p2align 3
.L29:
	movq	$0, 16(%rdi)
.L16:
	movq	24(%rdi), %rax
	cmpq	32(%rdi), %rax
	je	.L15
	movq	%rax, 32(%rdi)
.L15:
	ret
	.cfi_endproc
.LFE7686:
	.size	_ZN4asio6detail11timer_queueINS0_18chrono_time_traitsINSt6chrono3_V212steady_clockENS_11wait_traitsIS5_EEEEE14get_all_timersERNS0_8op_queueINS0_25task_io_service_operationEEE, .-_ZN4asio6detail11timer_queueINS0_18chrono_time_traitsINSt6chrono3_V212steady_clockENS_11wait_traitsIS5_EEEEE14get_all_timersERNS0_8op_queueINS0_25task_io_service_operationEEE
	.section	.text._ZN4asio6detail15system_categoryD2Ev,"axG",@progbits,_ZN4asio6detail15system_categoryD5Ev,comdat
	.align 2
	.p2align 4
	.weak	_ZN4asio6detail15system_categoryD2Ev
	.type	_ZN4asio6detail15system_categoryD2Ev, @function
_ZN4asio6detail15system_categoryD2Ev:
.LFB7635:
	.cfi_startproc
	endbr64
	movq	_ZTVN4asio6detail15system_categoryE@GOTPCREL(%rip), %rax
	addq	$16, %rax
	movq	%rax, (%rdi)
	jmp	_ZNSt3_V214error_categoryD2Ev@PLT
	.cfi_endproc
.LFE7635:
	.size	_ZN4asio6detail15system_categoryD2Ev, .-_ZN4asio6detail15system_categoryD2Ev
	.weak	_ZN4asio6detail15system_categoryD1Ev
	.set	_ZN4asio6detail15system_categoryD1Ev,_ZN4asio6detail15system_categoryD2Ev
	.section	.text._ZN4asio5error6detail14netdb_categoryD2Ev,"axG",@progbits,_ZN4asio5error6detail14netdb_categoryD5Ev,comdat
	.align 2
	.p2align 4
	.weak	_ZN4asio5error6detail14netdb_categoryD2Ev
	.type	_ZN4asio5error6detail14netdb_categoryD2Ev, @function
_ZN4asio5error6detail14netdb_categoryD2Ev:
.LFB7623:
	.cfi_startproc
	endbr64
	movq	_ZTVN4asio5error6detail14netdb_categoryE@GOTPCREL(%rip), %rax
	addq	$16, %rax
	movq	%rax, (%rdi)
	jmp	_ZNSt3_V214error_categoryD2Ev@PLT
	.cfi_endproc
.LFE7623:
	.size	_ZN4asio5error6detail14netdb_categoryD2Ev, .-_ZN4asio5error6detail14netdb_categoryD2Ev
	.weak	_ZN4asio5error6detail14netdb_categoryD1Ev
	.set	_ZN4asio5error6detail14netdb_categoryD1Ev,_ZN4asio5error6detail14netdb_categoryD2Ev
	.section	.text._ZN4asio5error6detail17addrinfo_categoryD2Ev,"axG",@progbits,_ZN4asio5error6detail17addrinfo_categoryD5Ev,comdat
	.align 2
	.p2align 4
	.weak	_ZN4asio5error6detail17addrinfo_categoryD2Ev
	.type	_ZN4asio5error6detail17addrinfo_categoryD2Ev, @function
_ZN4asio5error6detail17addrinfo_categoryD2Ev:
.LFB7619:
	.cfi_startproc
	endbr64
	movq	_ZTVN4asio5error6detail17addrinfo_categoryE@GOTPCREL(%rip), %rax
	addq	$16, %rax
	movq	%rax, (%rdi)
	jmp	_ZNSt3_V214error_categoryD2Ev@PLT
	.cfi_endproc
.LFE7619:
	.size	_ZN4asio5error6detail17addrinfo_categoryD2Ev, .-_ZN4asio5error6detail17addrinfo_categoryD2Ev
	.weak	_ZN4asio5error6detail17addrinfo_categoryD1Ev
	.set	_ZN4asio5error6detail17addrinfo_categoryD1Ev,_ZN4asio5error6detail17addrinfo_categoryD2Ev
	.section	.text._ZN4asio5error6detail13misc_categoryD2Ev,"axG",@progbits,_ZN4asio5error6detail13misc_categoryD5Ev,comdat
	.align 2
	.p2align 4
	.weak	_ZN4asio5error6detail13misc_categoryD2Ev
	.type	_ZN4asio5error6detail13misc_categoryD2Ev, @function
_ZN4asio5error6detail13misc_categoryD2Ev:
.LFB7615:
	.cfi_startproc
	endbr64
	movq	_ZTVN4asio5error6detail13misc_categoryE@GOTPCREL(%rip), %rax
	addq	$16, %rax
	movq	%rax, (%rdi)
	jmp	_ZNSt3_V214error_categoryD2Ev@PLT
	.cfi_endproc
.LFE7615:
	.size	_ZN4asio5error6detail13misc_categoryD2Ev, .-_ZN4asio5error6detail13misc_categoryD2Ev
	.weak	_ZN4asio5error6detail13misc_categoryD1Ev
	.set	_ZN4asio5error6detail13misc_categoryD1Ev,_ZN4asio5error6detail13misc_categoryD2Ev
	.section	.text._ZN4asio6detail11timer_queueINS0_18chrono_time_traitsINSt6chrono3_V212steady_clockENS_11wait_traitsIS5_EEEEED2Ev,"axG",@progbits,_ZN4asio6detail11timer_queueINS0_18chrono_time_traitsINSt6chrono3_V212steady_clockENS_11wait_traitsIS5_EEEEED5Ev,comdat
	.align 2
	.p2align 4
	.weak	_ZN4asio6detail11timer_queueINS0_18chrono_time_traitsINSt6chrono3_V212steady_clockENS_11wait_traitsIS5_EEEEED2Ev
	.type	_ZN4asio6detail11timer_queueINS0_18chrono_time_traitsINSt6chrono3_V212steady_clockENS_11wait_traitsIS5_EEEEED2Ev, @function
_ZN4asio6detail11timer_queueINS0_18chrono_time_traitsINSt6chrono3_V212steady_clockENS_11wait_traitsIS5_EEEEED2Ev:
.LFB7509:
	.cfi_startproc
	endbr64
	movq	_ZTVN4asio6detail11timer_queueINS0_18chrono_time_traitsINSt6chrono3_V212steady_clockENS_11wait_traitsIS5_EEEEEE@GOTPCREL(%rip), %rax
	addq	$16, %rax
	movq	%rax, (%rdi)
	movq	24(%rdi), %rdi
	testq	%rdi, %rdi
	je	.L35
	jmp	_ZdlPv@PLT
	.p2align 4,,10
	.p2align 3
.L35:
	ret
	.cfi_endproc
.LFE7509:
	.size	_ZN4asio6detail11timer_queueINS0_18chrono_time_traitsINSt6chrono3_V212steady_clockENS_11wait_traitsIS5_EEEEED2Ev, .-_ZN4asio6detail11timer_queueINS0_18chrono_time_traitsINSt6chrono3_V212steady_clockENS_11wait_traitsIS5_EEEEED2Ev
	.weak	_ZN4asio6detail11timer_queueINS0_18chrono_time_traitsINSt6chrono3_V212steady_clockENS_11wait_traitsIS5_EEEEED1Ev
	.set	_ZN4asio6detail11timer_queueINS0_18chrono_time_traitsINSt6chrono3_V212steady_clockENS_11wait_traitsIS5_EEEEED1Ev,_ZN4asio6detail11timer_queueINS0_18chrono_time_traitsINSt6chrono3_V212steady_clockENS_11wait_traitsIS5_EEEEED2Ev
	.section	.text._ZN4asio6detail15system_categoryD0Ev,"axG",@progbits,_ZN4asio6detail15system_categoryD5Ev,comdat
	.align 2
	.p2align 4
	.weak	_ZN4asio6detail15system_categoryD0Ev
	.type	_ZN4asio6detail15system_categoryD0Ev, @function
_ZN4asio6detail15system_categoryD0Ev:
.LFB7637:
	.cfi_startproc
	endbr64
	movq	_ZTVN4asio6detail15system_categoryE@GOTPCREL(%rip), %rax
	pushq	%rbp
	.cfi_def_cfa_offset 16
	.cfi_offset 6, -16
	movq	%rdi, %rbp
	addq	$16, %rax
	movq	%rax, (%rdi)
	call	_ZNSt3_V214error_categoryD2Ev@PLT
	movq	%rbp, %rdi
	movl	$8, %esi
	popq	%rbp
	.cfi_def_cfa_offset 8
	jmp	_ZdlPvm@PLT
	.cfi_endproc
.LFE7637:
	.size	_ZN4asio6detail15system_categoryD0Ev, .-_ZN4asio6detail15system_categoryD0Ev
	.section	.text._ZN4asio5error6detail14netdb_categoryD0Ev,"axG",@progbits,_ZN4asio5error6detail14netdb_categoryD5Ev,comdat
	.align 2
	.p2align 4
	.weak	_ZN4asio5error6detail14netdb_categoryD0Ev
	.type	_ZN4asio5error6detail14netdb_categoryD0Ev, @function
_ZN4asio5error6detail14netdb_categoryD0Ev:
.LFB7625:
	.cfi_startproc
	endbr64
	movq	_ZTVN4asio5error6detail14netdb_categoryE@GOTPCREL(%rip), %rax
	pushq	%rbp
	.cfi_def_cfa_offset 16
	.cfi_offset 6, -16
	movq	%rdi, %rbp
	addq	$16, %rax
	movq	%rax, (%rdi)
	call	_ZNSt3_V214error_categoryD2Ev@PLT
	movq	%rbp, %rdi
	movl	$8, %esi
	popq	%rbp
	.cfi_def_cfa_offset 8
	jmp	_ZdlPvm@PLT
	.cfi_endproc
.LFE7625:
	.size	_ZN4asio5error6detail14netdb_categoryD0Ev, .-_ZN4asio5error6detail14netdb_categoryD0Ev
	.section	.text._ZN4asio5error6detail17addrinfo_categoryD0Ev,"axG",@progbits,_ZN4asio5error6detail17addrinfo_categoryD5Ev,comdat
	.align 2
	.p2align 4
	.weak	_ZN4asio5error6detail17addrinfo_categoryD0Ev
	.type	_ZN4asio5error6detail17addrinfo_categoryD0Ev, @function
_ZN4asio5error6detail17addrinfo_categoryD0Ev:
.LFB7621:
	.cfi_startproc
	endbr64
	movq	_ZTVN4asio5error6detail17addrinfo_categoryE@GOTPCREL(%rip), %rax
	pushq	%rbp
	.cfi_def_cfa_offset 16
	.cfi_offset 6, -16
	movq	%rdi, %rbp
	addq	$16, %rax
	movq	%rax, (%rdi)
	call	_ZNSt3_V214error_categoryD2Ev@PLT
	movq	%rbp, %rdi
	movl	$8, %esi
	popq	%rbp
	.cfi_def_cfa_offset 8
	jmp	_ZdlPvm@PLT
	.cfi_endproc
.LFE7621:
	.size	_ZN4asio5error6detail17addrinfo_categoryD0Ev, .-_ZN4asio5error6detail17addrinfo_categoryD0Ev
	.section	.text._ZN4asio5error6detail13misc_categoryD0Ev,"axG",@progbits,_ZN4asio5error6detail13misc_categoryD5Ev,comdat
	.align 2
	.p2align 4
	.weak	_ZN4asio5error6detail13misc_categoryD0Ev
	.type	_ZN4asio5error6detail13misc_categoryD0Ev, @function
_ZN4asio5error6detail13misc_categoryD0Ev:
.LFB7617:
	.cfi_startproc
	endbr64
	movq	_ZTVN4asio5error6detail13misc_categoryE@GOTPCREL(%rip), %rax
	pushq	%rbp
	.cfi_def_cfa_offset 16
	.cfi_offset 6, -16
	movq	%rdi, %rbp
	addq	$16, %rax
	movq	%rax, (%rdi)
	call	_ZNSt3_V214error_categoryD2Ev@PLT
	movq	%rbp, %rdi
	movl	$8, %esi
	popq	%rbp
	.cfi_def_cfa_offset 8
	jmp	_ZdlPvm@PLT
	.cfi_endproc
.LFE7617:
	.size	_ZN4asio5error6detail13misc_categoryD0Ev, .-_ZN4asio5error6detail13misc_categoryD0Ev
	.section	.text._ZN4asio6detail11timer_queueINS0_18chrono_time_traitsINSt6chrono3_V212steady_clockENS_11wait_traitsIS5_EEEEED0Ev,"axG",@progbits,_ZN4asio6detail11timer_queueINS0_18chrono_time_traitsINSt6chrono3_V212steady_clockENS_11wait_traitsIS5_EEEEED5Ev,comdat
	.align 2
	.p2align 4
	.weak	_ZN4asio6detail11timer_queueINS0_18chrono_time_traitsINSt6chrono3_V212steady_clockENS_11wait_traitsIS5_EEEEED0Ev
	.type	_ZN4asio6detail11timer_queueINS0_18chrono_time_traitsINSt6chrono3_V212steady_clockENS_11wait_traitsIS5_EEEEED0Ev, @function
_ZN4asio6detail11timer_queueINS0_18chrono_time_traitsINSt6chrono3_V212steady_clockENS_11wait_traitsIS5_EEEEED0Ev:
.LFB7511:
	.cfi_startproc
	endbr64
	movq	_ZTVN4asio6detail11timer_queueINS0_18chrono_time_traitsINSt6chrono3_V212steady_clockENS_11wait_traitsIS5_EEEEEE@GOTPCREL(%rip), %rax
	pushq	%rbp
	.cfi_def_cfa_offset 16
	.cfi_offset 6, -16
	movq	%rdi, %rbp
	addq	$16, %rax
	movq	%rax, (%rdi)
	movq	24(%rdi), %rdi
	testq	%rdi, %rdi
	je	.L46
	call	_ZdlPv@PLT
.L46:
	movq	%rbp, %rdi
	movl	$48, %esi
	popq	%rbp
	.cfi_def_cfa_offset 8
	jmp	_ZdlPvm@PLT
	.cfi_endproc
.LFE7511:
	.size	_ZN4asio6detail11timer_queueINS0_18chrono_time_traitsINSt6chrono3_V212steady_clockENS_11wait_traitsIS5_EEEEED0Ev, .-_ZN4asio6detail11timer_queueINS0_18chrono_time_traitsINSt6chrono3_V212steady_clockENS_11wait_traitsIS5_EEEEED0Ev
	.section	.text._ZN4asio22waitable_timer_serviceINSt6chrono3_V212steady_clockENS_11wait_traitsIS3_EEED0Ev,"axG",@progbits,_ZN4asio22waitable_timer_serviceINSt6chrono3_V212steady_clockENS_11wait_traitsIS3_EEED5Ev,comdat
	.align 2
	.p2align 4
	.weak	_ZN4asio22waitable_timer_serviceINSt6chrono3_V212steady_clockENS_11wait_traitsIS3_EEED0Ev
	.type	_ZN4asio22waitable_timer_serviceINSt6chrono3_V212steady_clockENS_11wait_traitsIS3_EEED0Ev, @function
_ZN4asio22waitable_timer_serviceINSt6chrono3_V212steady_clockENS_11wait_traitsIS3_EEED0Ev:
.LFB7601:
	.cfi_startproc
	endbr64
	movq	_ZTVN4asio22waitable_timer_serviceINSt6chrono3_V212steady_clockENS_11wait_traitsIS3_EEEE@GOTPCREL(%rip), %rax
	pushq	%r12
	.cfi_def_cfa_offset 16
	.cfi_offset 12, -16
	pushq	%rbp
	.cfi_def_cfa_offset 24
	.cfi_offset 6, -24
	movq	%rdi, %rbp
	pushq	%rbx
	.cfi_def_cfa_offset 32
	.cfi_offset 3, -32
	addq	$16, %rax
	movq	88(%rdi), %rbx
	movq	%rax, (%rdi)
	leaq	48(%rbx), %r12
	movq	%r12, %rdi
	call	pthread_mutex_lock@PLT
	movq	104(%rbx), %rax
	testq	%rax, %rax
	je	.L52
	leaq	40(%rbp), %rdx
	cmpq	%rax, %rdx
	jne	.L53
	jmp	.L67
	.p2align 4,,10
	.p2align 3
.L69:
	cmpq	%rax, %rdx
	je	.L68
.L53:
	movq	%rax, %rcx
	movq	8(%rax), %rax
	testq	%rax, %rax
	jne	.L69
.L52:
	movq	%r12, %rdi
	call	pthread_mutex_unlock@PLT
	movq	_ZTVN4asio6detail11timer_queueINS0_18chrono_time_traitsINSt6chrono3_V212steady_clockENS_11wait_traitsIS5_EEEEEE@GOTPCREL(%rip), %rax
	movq	64(%rbp), %rdi
	addq	$16, %rax
	movq	%rax, 40(%rbp)
	testq	%rdi, %rdi
	je	.L54
	call	_ZdlPv@PLT
.L54:
	popq	%rbx
	.cfi_remember_state
	.cfi_def_cfa_offset 24
	movq	%rbp, %rdi
	movl	$96, %esi
	popq	%rbp
	.cfi_def_cfa_offset 16
	popq	%r12
	.cfi_def_cfa_offset 8
	jmp	_ZdlPvm@PLT
	.p2align 4,,10
	.p2align 3
.L68:
	.cfi_restore_state
	movq	48(%rbp), %rax
	movq	%rax, 8(%rcx)
	movq	$0, 48(%rbp)
	jmp	.L52
	.p2align 4,,10
	.p2align 3
.L67:
	movq	48(%rbp), %rax
	movq	%rax, 104(%rbx)
	movq	$0, 48(%rbp)
	jmp	.L52
	.cfi_endproc
.LFE7601:
	.size	_ZN4asio22waitable_timer_serviceINSt6chrono3_V212steady_clockENS_11wait_traitsIS3_EEED0Ev, .-_ZN4asio22waitable_timer_serviceINSt6chrono3_V212steady_clockENS_11wait_traitsIS3_EEED0Ev
	.text
	.align 2
	.p2align 4
	.globl	_ZN7asiopal5Timer9ExpiresAtEv
	.type	_ZN7asiopal5Timer9ExpiresAtEv, @function
_ZN7asiopal5Timer9ExpiresAtEv:
.LFB6309:
	.cfi_startproc
	endbr64
	movabsq	$4835703278458516699, %rdx
	subq	$24, %rsp
	.cfi_def_cfa_offset 32
	movq	16(%rdi), %rcx
	movq	%fs:40, %rax
	movq	%rax, 8(%rsp)
	xorl	%eax, %eax
	movq	%rsp, %rdi
	movq	%rcx, %rax
	sarq	$63, %rcx
	imulq	%rdx
	sarq	$18, %rdx
	movq	%rdx, %rsi
	subq	%rcx, %rsi
	call	_ZN7openpal18MonotonicTimestampC1El@PLT
	movq	(%rsp), %rax
	movq	8(%rsp), %rcx
	xorq	%fs:40, %rcx
	jne	.L73
	addq	$24, %rsp
	.cfi_remember_state
	.cfi_def_cfa_offset 8
	ret
.L73:
	.cfi_restore_state
	call	__stack_chk_fail@PLT
	.cfi_endproc
.LFE6309:
	.size	_ZN7asiopal5Timer9ExpiresAtEv, .-_ZN7asiopal5Timer9ExpiresAtEv
	.section	.text._ZN4asio22waitable_timer_serviceINSt6chrono3_V212steady_clockENS_11wait_traitsIS3_EEED2Ev,"axG",@progbits,_ZN4asio22waitable_timer_serviceINSt6chrono3_V212steady_clockENS_11wait_traitsIS3_EEED5Ev,comdat
	.align 2
	.p2align 4
	.weak	_ZN4asio22waitable_timer_serviceINSt6chrono3_V212steady_clockENS_11wait_traitsIS3_EEED2Ev
	.type	_ZN4asio22waitable_timer_serviceINSt6chrono3_V212steady_clockENS_11wait_traitsIS3_EEED2Ev, @function
_ZN4asio22waitable_timer_serviceINSt6chrono3_V212steady_clockENS_11wait_traitsIS3_EEED2Ev:
.LFB7599:
	.cfi_startproc
	endbr64
	movq	_ZTVN4asio22waitable_timer_serviceINSt6chrono3_V212steady_clockENS_11wait_traitsIS3_EEEE@GOTPCREL(%rip), %rax
	pushq	%r12
	.cfi_def_cfa_offset 16
	.cfi_offset 12, -16
	pushq	%rbp
	.cfi_def_cfa_offset 24
	.cfi_offset 6, -24
	addq	$16, %rax
	pushq	%rbx
	.cfi_def_cfa_offset 32
	.cfi_offset 3, -32
	movq	88(%rdi), %rbp
	movq	%rdi, %rbx
	movq	%rax, (%rdi)
	leaq	48(%rbp), %r12
	movq	%r12, %rdi
	call	pthread_mutex_lock@PLT
	movq	104(%rbp), %rax
	testq	%rax, %rax
	je	.L75
	leaq	40(%rbx), %rdx
	cmpq	%rax, %rdx
	jne	.L76
	jmp	.L87
	.p2align 4,,10
	.p2align 3
.L89:
	cmpq	%rax, %rdx
	je	.L88
.L76:
	movq	%rax, %rcx
	movq	8(%rax), %rax
	testq	%rax, %rax
	jne	.L89
.L75:
	movq	%r12, %rdi
	call	pthread_mutex_unlock@PLT
	movq	_ZTVN4asio6detail11timer_queueINS0_18chrono_time_traitsINSt6chrono3_V212steady_clockENS_11wait_traitsIS5_EEEEEE@GOTPCREL(%rip), %rax
	movq	64(%rbx), %rdi
	addq	$16, %rax
	movq	%rax, 40(%rbx)
	testq	%rdi, %rdi
	je	.L74
	popq	%rbx
	.cfi_remember_state
	.cfi_def_cfa_offset 24
	popq	%rbp
	.cfi_def_cfa_offset 16
	popq	%r12
	.cfi_def_cfa_offset 8
	jmp	_ZdlPv@PLT
	.p2align 4,,10
	.p2align 3
.L74:
	.cfi_restore_state
	popq	%rbx
	.cfi_remember_state
	.cfi_def_cfa_offset 24
	popq	%rbp
	.cfi_def_cfa_offset 16
	popq	%r12
	.cfi_def_cfa_offset 8
	ret
	.p2align 4,,10
	.p2align 3
.L88:
	.cfi_restore_state
	movq	48(%rbx), %rax
	movq	%rax, 8(%rcx)
	movq	$0, 48(%rbx)
	jmp	.L75
	.p2align 4,,10
	.p2align 3
.L87:
	movq	48(%rbx), %rax
	movq	%rax, 104(%rbp)
	movq	$0, 48(%rbx)
	jmp	.L75
	.cfi_endproc
.LFE7599:
	.size	_ZN4asio22waitable_timer_serviceINSt6chrono3_V212steady_clockENS_11wait_traitsIS3_EEED2Ev, .-_ZN4asio22waitable_timer_serviceINSt6chrono3_V212steady_clockENS_11wait_traitsIS3_EEED2Ev
	.weak	_ZN4asio22waitable_timer_serviceINSt6chrono3_V212steady_clockENS_11wait_traitsIS3_EEED1Ev
	.set	_ZN4asio22waitable_timer_serviceINSt6chrono3_V212steady_clockENS_11wait_traitsIS3_EEED1Ev,_ZN4asio22waitable_timer_serviceINSt6chrono3_V212steady_clockENS_11wait_traitsIS3_EEED2Ev
	.section	.text._ZN4asio6detail13epoll_reactorD2Ev,"axG",@progbits,_ZN4asio6detail13epoll_reactorD5Ev,comdat
	.align 2
	.p2align 4
	.weak	_ZN4asio6detail13epoll_reactorD2Ev
	.type	_ZN4asio6detail13epoll_reactorD2Ev, @function
_ZN4asio6detail13epoll_reactorD2Ev:
.LFB3113:
	.cfi_startproc
	.cfi_personality 0x9b,DW.ref.__gxx_personality_v0
	.cfi_lsda 0x1b,.LLSDA3113
	endbr64
	pushq	%r15
	.cfi_def_cfa_offset 16
	.cfi_offset 15, -16
	pushq	%r14
	.cfi_def_cfa_offset 24
	.cfi_offset 14, -24
	pushq	%r13
	.cfi_def_cfa_offset 32
	.cfi_offset 13, -32
	pushq	%r12
	.cfi_def_cfa_offset 40
	.cfi_offset 12, -40
	pushq	%rbp
	.cfi_def_cfa_offset 48
	.cfi_offset 6, -48
	pushq	%rbx
	.cfi_def_cfa_offset 56
	.cfi_offset 3, -56
	movq	%rdi, %rbx
	subq	$56, %rsp
	.cfi_def_cfa_offset 112
	movq	%fs:40, %rax
	movq	%rax, 40(%rsp)
	xorl	%eax, %eax
	movq	_ZTVN4asio6detail13epoll_reactorE@GOTPCREL(%rip), %rax
	addq	$16, %rax
	movq	%rax, (%rdi)
	movl	96(%rdi), %edi
	cmpl	$-1, %edi
	je	.L91
	call	close@PLT
.L91:
	movl	100(%rbx), %edi
	cmpl	$-1, %edi
	je	.L92
	call	close@PLT
.L92:
	movq	160(%rbx), %rbp
	leaq	16(%rsp), %r14
	testq	%rbp, %rbp
	je	.L103
	.p2align 4,,10
	.p2align 3
.L93:
	movq	%rbp, %r12
	movq	24(%rbp), %rbp
	leaq	80(%r12), %rax
	leaq	128(%r12), %r15
	movq	%rax, (%rsp)
.L98:
	movq	(%r15), %rsi
	testq	%rsi, %rsi
	je	.L100
	movq	%rsi, 8(%rsp)
	call	_ZNSt3_V215system_categoryEv@PLT
	movq	8(%rsp), %rsi
	movq	%rax, %r13
	jmp	.L102
	.p2align 4,,10
	.p2align 3
.L99:
	movq	$0, (%rsi)
	movq	8(%rsi), %rax
	xorl	%ecx, %ecx
	movq	%r14, %rdx
	movl	$0, 16(%rsp)
	xorl	%edi, %edi
	movq	%r13, 24(%rsp)
	call	*%rax
	movq	(%r15), %rsi
	testq	%rsi, %rsi
	je	.L100
.L102:
	movq	(%rsi), %rax
	movq	%rax, (%r15)
	testq	%rax, %rax
	jne	.L99
	movq	$0, 8(%r15)
	jmp	.L99
	.p2align 4,,10
	.p2align 3
.L100:
	subq	$16, %r15
	cmpq	(%rsp), %r15
	jne	.L98
	leaq	40(%r12), %rdi
	call	pthread_mutex_destroy@PLT
	movl	$152, %esi
	movq	%r12, %rdi
	call	_ZdlPvm@PLT
	testq	%rbp, %rbp
	jne	.L93
.L103:
	movq	168(%rbx), %rbp
	testq	%rbp, %rbp
	je	.L94
	leaq	16(%rsp), %r14
	.p2align 4,,10
	.p2align 3
.L95:
	movq	%rbp, %r12
	movq	24(%rbp), %rbp
	leaq	80(%r12), %rax
	leaq	128(%r12), %r15
	movq	%rax, (%rsp)
.L108:
	movq	(%r15), %rsi
	testq	%rsi, %rsi
	je	.L110
	movq	%rsi, 8(%rsp)
	call	_ZNSt3_V215system_categoryEv@PLT
	movq	8(%rsp), %rsi
	movq	%rax, %r13
	jmp	.L112
	.p2align 4,,10
	.p2align 3
.L109:
	movq	$0, (%rsi)
	movq	8(%rsi), %rax
	xorl	%ecx, %ecx
	movq	%r14, %rdx
	movl	$0, 16(%rsp)
	xorl	%edi, %edi
	movq	%r13, 24(%rsp)
	call	*%rax
	movq	(%r15), %rsi
	testq	%rsi, %rsi
	je	.L110
.L112:
	movq	(%rsi), %rax
	movq	%rax, (%r15)
	testq	%rax, %rax
	jne	.L109
	movq	$0, 8(%r15)
	jmp	.L109
	.p2align 4,,10
	.p2align 3
.L110:
	subq	$16, %r15
	cmpq	(%rsp), %r15
	jne	.L108
	leaq	40(%r12), %rdi
	call	pthread_mutex_destroy@PLT
	movl	$152, %esi
	movq	%r12, %rdi
	call	_ZdlPvm@PLT
	testq	%rbp, %rbp
	jne	.L95
.L94:
	leaq	120(%rbx), %rdi
	call	pthread_mutex_destroy@PLT
	movl	92(%rbx), %r8d
	cmpl	$-1, %r8d
	je	.L152
	movl	88(%rbx), %edi
	cmpl	%edi, %r8d
	jne	.L153
.L114:
	call	close@PLT
	jmp	.L115
	.p2align 4,,10
	.p2align 3
.L153:
	movl	%r8d, %edi
	call	close@PLT
.L152:
	movl	88(%rbx), %edi
	cmpl	$-1, %edi
	jne	.L114
.L115:
	leaq	48(%rbx), %rdi
	call	pthread_mutex_destroy@PLT
	movq	40(%rsp), %rax
	xorq	%fs:40, %rax
	jne	.L154
	addq	$56, %rsp
	.cfi_remember_state
	.cfi_def_cfa_offset 56
	popq	%rbx
	.cfi_def_cfa_offset 48
	popq	%rbp
	.cfi_def_cfa_offset 40
	popq	%r12
	.cfi_def_cfa_offset 32
	popq	%r13
	.cfi_def_cfa_offset 24
	popq	%r14
	.cfi_def_cfa_offset 16
	popq	%r15
	.cfi_def_cfa_offset 8
	ret
.L154:
	.cfi_restore_state
	call	__stack_chk_fail@PLT
	.cfi_endproc
.LFE3113:
	.globl	__gxx_personality_v0
	.section	.gcc_except_table._ZN4asio6detail13epoll_reactorD2Ev,"aG",@progbits,_ZN4asio6detail13epoll_reactorD5Ev,comdat
.LLSDA3113:
	.byte	0xff
	.byte	0xff
	.byte	0x1
	.uleb128 .LLSDACSE3113-.LLSDACSB3113
.LLSDACSB3113:
.LLSDACSE3113:
	.section	.text._ZN4asio6detail13epoll_reactorD2Ev,"axG",@progbits,_ZN4asio6detail13epoll_reactorD5Ev,comdat
	.size	_ZN4asio6detail13epoll_reactorD2Ev, .-_ZN4asio6detail13epoll_reactorD2Ev
	.weak	_ZN4asio6detail13epoll_reactorD1Ev
	.set	_ZN4asio6detail13epoll_reactorD1Ev,_ZN4asio6detail13epoll_reactorD2Ev
	.section	.text._ZN4asio6detail13epoll_reactor16shutdown_serviceEv,"axG",@progbits,_ZN4asio6detail13epoll_reactor16shutdown_serviceEv,comdat
	.align 2
	.p2align 4
	.weak	_ZN4asio6detail13epoll_reactor16shutdown_serviceEv
	.type	_ZN4asio6detail13epoll_reactor16shutdown_serviceEv, @function
_ZN4asio6detail13epoll_reactor16shutdown_serviceEv:
.LFB3116:
	.cfi_startproc
	.cfi_personality 0x9b,DW.ref.__gxx_personality_v0
	.cfi_lsda 0x1b,.LLSDA3116
	endbr64
	pushq	%r13
	.cfi_def_cfa_offset 16
	.cfi_offset 13, -16
	pushq	%r12
	.cfi_def_cfa_offset 24
	.cfi_offset 12, -24
	pushq	%rbp
	.cfi_def_cfa_offset 32
	.cfi_offset 6, -32
	leaq	48(%rdi), %rbp
	pushq	%rbx
	.cfi_def_cfa_offset 40
	.cfi_offset 3, -40
	movq	%rdi, %rbx
	movq	%rbp, %rdi
	subq	$72, %rsp
	.cfi_def_cfa_offset 112
	movq	%fs:40, %rax
	movq	%rax, 56(%rsp)
	xorl	%eax, %eax
	call	pthread_mutex_lock@PLT
	movb	$1, 112(%rbx)
	movq	%rbp, %rdi
	call	pthread_mutex_unlock@PLT
	movq	160(%rbx), %rax
	pxor	%xmm0, %xmm0
	movaps	%xmm0, 16(%rsp)
	testq	%rax, %rax
	je	.L253
	xorl	%esi, %esi
	xorl	%edx, %edx
	xorl	%r9d, %r9d
	xorl	%r8d, %r8d
	pxor	%xmm0, %xmm0
	jmp	.L156
	.p2align 4,,10
	.p2align 3
.L160:
	movq	%rcx, (%rdx)
.L161:
	movq	104(%rax), %rdx
	movl	$1, %esi
	movups	%xmm0, 96(%rax)
.L159:
	movq	112(%rax), %rcx
	testq	%rcx, %rcx
	je	.L162
	testq	%rdx, %rdx
	je	.L254
	movq	%rcx, (%rdx)
.L164:
	movq	120(%rax), %rdx
	movl	$1, %esi
	movups	%xmm0, 112(%rax)
.L162:
	movq	128(%rax), %rcx
	testq	%rcx, %rcx
	je	.L165
	testq	%rdx, %rdx
	je	.L255
	movq	%rcx, (%rdx)
.L167:
	movq	136(%rax), %rdx
	movl	$1, %esi
	movups	%xmm0, 128(%rax)
.L165:
	movq	24(%rax), %rcx
	movb	$1, 144(%rax)
	movq	%rcx, 160(%rbx)
	movq	32(%rax), %rcx
	testq	%rcx, %rcx
	je	.L168
	movq	24(%rax), %rdi
	movq	%rdi, 24(%rcx)
.L168:
	movq	24(%rax), %rcx
	testq	%rcx, %rcx
	je	.L169
	movq	32(%rax), %rdi
	movq	%rdi, 32(%rcx)
.L169:
	movq	168(%rbx), %rcx
	movq	$0, 32(%rax)
	movq	%rcx, 24(%rax)
	movq	%rax, 168(%rbx)
	movq	160(%rbx), %rax
	testq	%rax, %rax
	je	.L256
.L156:
	movq	96(%rax), %rcx
	testq	%rcx, %rcx
	je	.L159
	testq	%rdx, %rdx
	jne	.L160
	movq	%rcx, %r8
	movl	$1, %r9d
	jmp	.L161
	.p2align 4,,10
	.p2align 3
.L255:
	movq	%rcx, %r8
	movl	$1, %r9d
	jmp	.L167
	.p2align 4,,10
	.p2align 3
.L254:
	movq	%rcx, %r8
	movl	$1, %r9d
	jmp	.L164
	.p2align 4,,10
	.p2align 3
.L256:
	xorl	%ebp, %ebp
	testb	%r9b, %r9b
	je	.L172
	movq	%r8, 16(%rsp)
	movq	%r8, %rbp
.L172:
	testb	%sil, %sil
	je	.L173
	movq	%rdx, 24(%rsp)
.L173:
	movq	104(%rbx), %rbx
	testq	%rbx, %rbx
	je	.L174
.L158:
	movq	_ZN4asio6detail11timer_queueINS0_18chrono_time_traitsINSt6chrono3_V212steady_clockENS_11wait_traitsIS5_EEEEE14get_all_timersERNS0_8op_queueINS0_25task_io_service_operationEEE@GOTPCREL(%rip), %rbp
	leaq	16(%rsp), %r12
	.p2align 4,,10
	.p2align 3
.L186:
	movq	(%rbx), %rax
	movq	48(%rax), %rax
	cmpq	%rbp, %rax
	jne	.L175
	movq	16(%rbx), %rdx
	testq	%rdx, %rdx
	je	.L177
	movq	24(%rsp), %rsi
	movq	16(%rsp), %r9
	xorl	%edi, %edi
	xorl	%r8d, %r8d
	jmp	.L180
	.p2align 4,,10
	.p2align 3
.L258:
	movq	%rcx, (%rsi)
.L179:
	pxor	%xmm1, %xmm1
	movq	8(%rax), %rsi
	movl	$1, %edi
	movups	%xmm1, (%rax)
.L178:
	pxor	%xmm2, %xmm2
	movups	%xmm2, 24(%rax)
	testq	%rdx, %rdx
	je	.L257
.L180:
	movq	%rdx, %rax
	movq	24(%rdx), %rdx
	movq	(%rax), %rcx
	testq	%rcx, %rcx
	je	.L178
	testq	%rsi, %rsi
	jne	.L258
	movq	%rcx, %r9
	movl	$1, %r8d
	jmp	.L179
	.p2align 4,,10
	.p2align 3
.L257:
	movq	$0, 16(%rbx)
	testb	%r8b, %r8b
	je	.L181
	movq	%r9, 16(%rsp)
.L181:
	testb	%dil, %dil
	je	.L177
	movq	%rsi, 24(%rsp)
.L177:
	movq	24(%rbx), %rax
	cmpq	32(%rbx), %rax
	je	.L184
	movq	%rax, 32(%rbx)
.L184:
	movq	8(%rbx), %rbx
	testq	%rbx, %rbx
	jne	.L186
	movq	16(%rsp), %rbp
.L174:
	testq	%rbp, %rbp
	je	.L155
	pxor	%xmm0, %xmm0
	leaq	32(%rsp), %rbx
	movaps	%xmm0, 16(%rsp)
	call	_ZNSt3_V215system_categoryEv@PLT
	movq	%rax, %r12
	.p2align 4,,10
	.p2align 3
.L187:
	movq	%rbp, %rsi
	movq	0(%rbp), %rbp
	xorl	%ecx, %ecx
	xorl	%edi, %edi
	movq	$0, (%rsi)
	movq	8(%rsi), %rax
	movq	%rbx, %rdx
	movl	$0, 32(%rsp)
	movq	%r12, 40(%rsp)
	call	*%rax
	testq	%rbp, %rbp
	jne	.L187
	movq	16(%rsp), %rsi
	testq	%rsi, %rsi
	movq	%rsi, 8(%rsp)
	je	.L155
	call	_ZNSt3_V215system_categoryEv@PLT
	movq	8(%rsp), %rsi
	movq	%rax, %rbp
	jmp	.L192
	.p2align 4,,10
	.p2align 3
.L189:
	movq	$0, (%rsi)
	movq	8(%rsi), %rax
	xorl	%ecx, %ecx
	movq	%rbx, %rdx
	movl	$0, 32(%rsp)
	xorl	%edi, %edi
	movq	%rbp, 40(%rsp)
	call	*%rax
	movq	16(%rsp), %rsi
	testq	%rsi, %rsi
	je	.L155
.L192:
	movq	(%rsi), %rax
	movq	%rax, 16(%rsp)
	testq	%rax, %rax
	jne	.L189
	movq	$0, 24(%rsp)
	jmp	.L189
	.p2align 4,,10
	.p2align 3
.L175:
	movq	%r12, %rsi
	movq	%rbx, %rdi
.LEHB0:
	call	*%rax
.LEHE0:
	jmp	.L184
.L253:
	movq	104(%rbx), %rbx
	testq	%rbx, %rbx
	jne	.L158
	.p2align 4,,10
	.p2align 3
.L155:
	movq	56(%rsp), %rax
	xorq	%fs:40, %rax
	jne	.L259
	addq	$72, %rsp
	.cfi_remember_state
	.cfi_def_cfa_offset 40
	popq	%rbx
	.cfi_def_cfa_offset 32
	popq	%rbp
	.cfi_def_cfa_offset 24
	popq	%r12
	.cfi_def_cfa_offset 16
	popq	%r13
	.cfi_def_cfa_offset 8
	ret
.L259:
	.cfi_restore_state
	call	__stack_chk_fail@PLT
.L200:
	endbr64
	movq	%rax, %r12
	leaq	32(%rsp), %rbx
.L193:
	movq	16(%rsp), %rbp
	testq	%rbp, %rbp
	jne	.L260
	movq	%r12, %rdi
.LEHB1:
	call	_Unwind_Resume@PLT
.LEHE1:
.L260:
	movq	0(%rbp), %rax
	movq	%rax, 16(%rsp)
	testq	%rax, %rax
	jne	.L195
	movq	$0, 24(%rsp)
.L195:
	movq	$0, 0(%rbp)
	movq	8(%rbp), %r13
	movl	$0, 32(%rsp)
	call	_ZNSt3_V215system_categoryEv@PLT
	xorl	%ecx, %ecx
	movq	%rbx, %rdx
	movq	%rbp, %rsi
	movq	%rax, 40(%rsp)
	xorl	%edi, %edi
	call	*%r13
	jmp	.L193
	.cfi_endproc
.LFE3116:
	.section	.gcc_except_table._ZN4asio6detail13epoll_reactor16shutdown_serviceEv,"aG",@progbits,_ZN4asio6detail13epoll_reactor16shutdown_serviceEv,comdat
.LLSDA3116:
	.byte	0xff
	.byte	0xff
	.byte	0x1
	.uleb128 .LLSDACSE3116-.LLSDACSB3116
.LLSDACSB3116:
	.uleb128 .LEHB0-.LFB3116
	.uleb128 .LEHE0-.LEHB0
	.uleb128 .L200-.LFB3116
	.uleb128 0
	.uleb128 .LEHB1-.LFB3116
	.uleb128 .LEHE1-.LEHB1
	.uleb128 0
	.uleb128 0
.LLSDACSE3116:
	.section	.text._ZN4asio6detail13epoll_reactor16shutdown_serviceEv,"axG",@progbits,_ZN4asio6detail13epoll_reactor16shutdown_serviceEv,comdat
	.size	_ZN4asio6detail13epoll_reactor16shutdown_serviceEv, .-_ZN4asio6detail13epoll_reactor16shutdown_serviceEv
	.section	.text._ZNK4asio6detail11timer_queueINS0_18chrono_time_traitsINSt6chrono3_V212steady_clockENS_11wait_traitsIS5_EEEEE18wait_duration_msecEl,"axG",@progbits,_ZNK4asio6detail11timer_queueINS0_18chrono_time_traitsINSt6chrono3_V212steady_clockENS_11wait_traitsIS5_EEEEE18wait_duration_msecEl,comdat
	.align 2
	.p2align 4
	.weak	_ZNK4asio6detail11timer_queueINS0_18chrono_time_traitsINSt6chrono3_V212steady_clockENS_11wait_traitsIS5_EEEEE18wait_duration_msecEl
	.type	_ZNK4asio6detail11timer_queueINS0_18chrono_time_traitsINSt6chrono3_V212steady_clockENS_11wait_traitsIS5_EEEEE18wait_duration_msecEl, @function
_ZNK4asio6detail11timer_queueINS0_18chrono_time_traitsINSt6chrono3_V212steady_clockENS_11wait_traitsIS5_EEEEE18wait_duration_msecEl:
.LFB7683:
	.cfi_startproc
	endbr64
	movq	32(%rdi), %rax
	cmpq	%rax, 24(%rdi)
	je	.L277
	pushq	%rbp
	.cfi_def_cfa_offset 16
	.cfi_offset 6, -16
	movq	%rsi, %rbp
	pushq	%rbx
	.cfi_def_cfa_offset 24
	.cfi_offset 3, -24
	movq	%rdi, %rbx
	subq	$8, %rsp
	.cfi_def_cfa_offset 32
	call	_ZNSt6chrono3_V212steady_clock3nowEv@PLT
	movq	24(%rbx), %rdx
	movq	(%rdx), %rdx
	testq	%rdx, %rdx
	js	.L263
	testq	%rax, %rax
	js	.L264
.L280:
	movq	%rdx, %rcx
	subq	%rax, %rcx
	testq	%rcx, %rcx
	jle	.L273
	movabsq	$4835703278458516699, %rdx
	movq	%rcx, %rax
	sarq	$63, %rcx
	imulq	%rdx
	sarq	$18, %rdx
	subq	%rcx, %rdx
.L267:
	movl	$1, %r8d
	testq	%rdx, %rdx
	je	.L261
.L266:
	cmpq	%rdx, %rbp
	cmovle	%rbp, %rdx
	movq	%rdx, %r8
.L261:
	addq	$8, %rsp
	.cfi_remember_state
	.cfi_def_cfa_offset 24
	movq	%r8, %rax
	popq	%rbx
	.cfi_def_cfa_offset 16
	popq	%rbp
	.cfi_def_cfa_offset 8
	ret
	.p2align 4,,10
	.p2align 3
.L263:
	.cfi_restore_state
	xorl	%r8d, %r8d
	testq	%rax, %rax
	js	.L280
	addq	$8, %rsp
	.cfi_def_cfa_offset 24
	movq	%r8, %rax
	popq	%rbx
	.cfi_def_cfa_offset 16
	popq	%rbp
	.cfi_def_cfa_offset 8
	ret
	.p2align 4,,10
	.p2align 3
.L277:
	.cfi_restore 3
	.cfi_restore 6
	movq	%rsi, %rax
	ret
	.p2align 4,,10
	.p2align 3
.L264:
	.cfi_def_cfa_offset 32
	.cfi_offset 3, -24
	.cfi_offset 6, -16
	movabsq	$-9223372036854775808, %rcx
	cmpq	%rcx, %rax
	je	.L271
	movq	%rax, %rsi
	subq	$1, %rcx
	negq	%rsi
	subq	%rdx, %rcx
	cmpq	%rcx, %rsi
	jg	.L271
	movabsq	$4835703278458516699, %rcx
	subq	%rax, %rdx
	movq	%rdx, %rax
	mulq	%rcx
	shrq	$18, %rdx
	jmp	.L267
	.p2align 4,,10
	.p2align 3
.L271:
	movabsq	$9223372036854, %rdx
	jmp	.L266
	.p2align 4,,10
	.p2align 3
.L273:
	xorl	%r8d, %r8d
	jmp	.L261
	.cfi_endproc
.LFE7683:
	.size	_ZNK4asio6detail11timer_queueINS0_18chrono_time_traitsINSt6chrono3_V212steady_clockENS_11wait_traitsIS5_EEEEE18wait_duration_msecEl, .-_ZNK4asio6detail11timer_queueINS0_18chrono_time_traitsINSt6chrono3_V212steady_clockENS_11wait_traitsIS5_EEEEE18wait_duration_msecEl
	.section	.text._ZNK4asio6detail11timer_queueINS0_18chrono_time_traitsINSt6chrono3_V212steady_clockENS_11wait_traitsIS5_EEEEE18wait_duration_usecEl,"axG",@progbits,_ZNK4asio6detail11timer_queueINS0_18chrono_time_traitsINSt6chrono3_V212steady_clockENS_11wait_traitsIS5_EEEEE18wait_duration_usecEl,comdat
	.align 2
	.p2align 4
	.weak	_ZNK4asio6detail11timer_queueINS0_18chrono_time_traitsINSt6chrono3_V212steady_clockENS_11wait_traitsIS5_EEEEE18wait_duration_usecEl
	.type	_ZNK4asio6detail11timer_queueINS0_18chrono_time_traitsINSt6chrono3_V212steady_clockENS_11wait_traitsIS5_EEEEE18wait_duration_usecEl, @function
_ZNK4asio6detail11timer_queueINS0_18chrono_time_traitsINSt6chrono3_V212steady_clockENS_11wait_traitsIS5_EEEEE18wait_duration_usecEl:
.LFB7684:
	.cfi_startproc
	endbr64
	movq	32(%rdi), %rax
	cmpq	%rax, 24(%rdi)
	je	.L298
	pushq	%rbp
	.cfi_def_cfa_offset 16
	.cfi_offset 6, -16
	movq	%rsi, %rbp
	pushq	%rbx
	.cfi_def_cfa_offset 24
	.cfi_offset 3, -24
	movq	%rdi, %rbx
	subq	$8, %rsp
	.cfi_def_cfa_offset 32
	call	_ZNSt6chrono3_V212steady_clock3nowEv@PLT
	movq	24(%rbx), %rdx
	movq	(%rdx), %rdx
	testq	%rdx, %rdx
	js	.L284
	testq	%rax, %rax
	js	.L285
.L301:
	movq	%rdx, %rcx
	subq	%rax, %rcx
	testq	%rcx, %rcx
	jle	.L294
	movabsq	$2361183241434822607, %rdx
	movq	%rcx, %rax
	sarq	$63, %rcx
	imulq	%rdx
	sarq	$7, %rdx
	subq	%rcx, %rdx
.L288:
	movl	$1, %r8d
	testq	%rdx, %rdx
	je	.L282
.L287:
	cmpq	%rdx, %rbp
	cmovle	%rbp, %rdx
	movq	%rdx, %r8
.L282:
	addq	$8, %rsp
	.cfi_remember_state
	.cfi_def_cfa_offset 24
	movq	%r8, %rax
	popq	%rbx
	.cfi_def_cfa_offset 16
	popq	%rbp
	.cfi_def_cfa_offset 8
	ret
	.p2align 4,,10
	.p2align 3
.L284:
	.cfi_restore_state
	xorl	%r8d, %r8d
	testq	%rax, %rax
	js	.L301
	addq	$8, %rsp
	.cfi_def_cfa_offset 24
	movq	%r8, %rax
	popq	%rbx
	.cfi_def_cfa_offset 16
	popq	%rbp
	.cfi_def_cfa_offset 8
	ret
	.p2align 4,,10
	.p2align 3
.L298:
	.cfi_restore 3
	.cfi_restore 6
	movq	%rsi, %rax
	ret
	.p2align 4,,10
	.p2align 3
.L285:
	.cfi_def_cfa_offset 32
	.cfi_offset 3, -24
	.cfi_offset 6, -16
	movabsq	$-9223372036854775808, %rcx
	cmpq	%rcx, %rax
	je	.L292
	movq	%rax, %rsi
	subq	$1, %rcx
	negq	%rsi
	subq	%rdx, %rcx
	cmpq	%rcx, %rsi
	jg	.L292
	movabsq	$2361183241434822607, %rcx
	subq	%rax, %rdx
	shrq	$3, %rdx
	movq	%rdx, %rax
	mulq	%rcx
	shrq	$4, %rdx
	jmp	.L288
	.p2align 4,,10
	.p2align 3
.L292:
	movabsq	$9223372036854775, %rdx
	jmp	.L287
	.p2align 4,,10
	.p2align 3
.L294:
	xorl	%r8d, %r8d
	jmp	.L282
	.cfi_endproc
.LFE7684:
	.size	_ZNK4asio6detail11timer_queueINS0_18chrono_time_traitsINSt6chrono3_V212steady_clockENS_11wait_traitsIS5_EEEEE18wait_duration_usecEl, .-_ZNK4asio6detail11timer_queueINS0_18chrono_time_traitsINSt6chrono3_V212steady_clockENS_11wait_traitsIS5_EEEEE18wait_duration_usecEl
	.text
	.align 2
	.p2align 4
	.type	_ZN4asio6detail13epoll_reactor12cancel_timerINS0_18chrono_time_traitsINSt6chrono3_V212steady_clockENS_11wait_traitsIS6_EEEEEEmRNS0_11timer_queueIT_EERNSC_14per_timer_dataEm.constprop.0, @function
_ZN4asio6detail13epoll_reactor12cancel_timerINS0_18chrono_time_traitsINSt6chrono3_V212steady_clockENS_11wait_traitsIS6_EEEEEEmRNS0_11timer_queueIT_EERNSC_14per_timer_dataEm.constprop.0:
.LFB7848:
	.cfi_startproc
	pushq	%r15
	.cfi_def_cfa_offset 16
	.cfi_offset 15, -16
	pushq	%r14
	.cfi_def_cfa_offset 24
	.cfi_offset 14, -24
	leaq	48(%rdi), %r14
	pushq	%r13
	.cfi_def_cfa_offset 32
	.cfi_offset 13, -32
	movq	%rdx, %r13
	pushq	%r12
	.cfi_def_cfa_offset 40
	.cfi_offset 12, -40
	pushq	%rbp
	.cfi_def_cfa_offset 48
	.cfi_offset 6, -48
	pushq	%rbx
	.cfi_def_cfa_offset 56
	.cfi_offset 3, -56
	subq	$72, %rsp
	.cfi_def_cfa_offset 128
	movq	%rdi, 16(%rsp)
	movq	%r14, %rdi
	movq	%rsi, 24(%rsp)
	movq	%fs:40, %rax
	movq	%rax, 56(%rsp)
	xorl	%eax, %eax
	call	pthread_mutex_lock@PLT
	cmpq	$0, 32(%r13)
	je	.L386
.L304:
	xorl	%r12d, %r12d
	movq	%r14, 8(%rsp)
	movq	0(%r13), %r15
	movq	%r13, %r14
	movq	$0, (%rsp)
	xorl	%ebx, %ebx
	movq	%r12, %r13
	jmp	.L313
	.p2align 4,,10
	.p2align 3
.L385:
	movq	_ZZN4asio15system_categoryEvE8instance@GOTPCREL(%rip), %rbp
.L308:
	movq	(%r14), %rax
	movl	$125, 24(%r15)
	movq	%rbp, 32(%r15)
	testq	%rax, %rax
	je	.L310
	movq	(%rax), %rdx
	movq	%rdx, (%r14)
	testq	%rdx, %rdx
	je	.L387
.L311:
	movq	$0, (%rax)
	movq	%rdx, %rax
.L310:
	movq	$0, (%r15)
	testq	%rbx, %rbx
	je	.L340
	addq	$1, %r13
	movq	%r15, (%rbx)
	movq	%r15, %rbx
	cmpq	$-1, %r13
	je	.L388
.L341:
	movq	%rax, %r15
.L313:
	testq	%r15, %r15
	je	.L380
	movq	_ZGVZN4asio15system_categoryEvE8instance@GOTPCREL(%rip), %r12
	movzbl	(%r12), %eax
	testb	%al, %al
	jne	.L385
	movq	%r12, %rdi
	call	__cxa_guard_acquire@PLT
	testl	%eax, %eax
	je	.L385
	movq	_ZZN4asio15system_categoryEvE8instance@GOTPCREL(%rip), %rbp
	movq	_ZN4asio6detail15system_categoryD1Ev@GOTPCREL(%rip), %rdi
	leaq	__dso_handle(%rip), %rdx
	movq	%rbp, %rsi
	call	__cxa_atexit@PLT
	movq	%r12, %rdi
	call	__cxa_guard_release@PLT
	jmp	.L308
	.p2align 4,,10
	.p2align 3
.L387:
	movq	$0, 8(%r14)
	jmp	.L311
	.p2align 4,,10
	.p2align 3
.L340:
	addq	$1, %r13
	movq	%r15, (%rsp)
	movq	%r15, %rbx
	cmpq	$-1, %r13
	jne	.L341
.L388:
	movq	%r13, %r12
	movq	%r14, %r13
	movq	8(%rsp), %r14
	testq	%rax, %rax
	je	.L306
.L314:
	movq	%r14, %rdi
	call	pthread_mutex_unlock@PLT
	movq	16(%rsp), %rax
	cmpq	$0, (%rsp)
	movq	40(%rax), %rbx
	je	.L303
	cmpb	$0, 40(%rbx)
	je	.L328
	data16	leaq	_ZN4asio6detail15keyword_tss_ptrINS0_10call_stackINS0_15task_io_serviceENS0_27task_io_service_thread_infoEE7contextEE6value_E@tlsgd(%rip), %rdi
	.value	0x6666
	rex64
	call	__tls_get_addr@PLT
	movq	(%rax), %rax
	testq	%rax, %rax
	jne	.L331
	jmp	.L328
	.p2align 4,,10
	.p2align 3
.L329:
	movq	16(%rax), %rax
	testq	%rax, %rax
	je	.L328
.L331:
	cmpq	(%rax), %rbx
	jne	.L329
	movq	8(%rax), %rax
	testq	%rax, %rax
	je	.L328
	movq	16(%rax), %rdx
	movq	(%rsp), %rcx
	testq	%rdx, %rdx
	je	.L332
	movq	%rcx, (%rdx)
.L333:
	movq	%r15, 16(%rax)
.L303:
	movq	56(%rsp), %rax
	xorq	%fs:40, %rax
	jne	.L389
	addq	$72, %rsp
	.cfi_remember_state
	.cfi_def_cfa_offset 56
	movq	%r12, %rax
	popq	%rbx
	.cfi_def_cfa_offset 48
	popq	%rbp
	.cfi_def_cfa_offset 40
	popq	%r12
	.cfi_def_cfa_offset 32
	popq	%r13
	.cfi_def_cfa_offset 24
	popq	%r14
	.cfi_def_cfa_offset 16
	popq	%r15
	.cfi_def_cfa_offset 8
	ret
	.p2align 4,,10
	.p2align 3
.L328:
	.cfi_restore_state
	leaq	48(%rbx), %rbp
	movq	%rbp, %rdi
	call	pthread_mutex_lock@PLT
	movq	200(%rbx), %rax
	testq	%rax, %rax
	je	.L334
	movq	(%rsp), %rcx
	movq	%rcx, (%rax)
.L335:
	movq	136(%rbx), %rax
	movq	%r15, 200(%rbx)
	orq	$1, %rax
	movq	%rax, 136(%rbx)
	cmpq	$1, %rax
	je	.L336
	movq	%rbp, %rdi
	call	pthread_mutex_unlock@PLT
	leaq	88(%rbx), %rdi
	call	pthread_cond_signal@PLT
	jmp	.L303
	.p2align 4,,10
	.p2align 3
.L380:
	movq	%r13, %r12
	movq	%r14, %r13
	movq	8(%rsp), %r14
.L306:
	movq	24(%rsp), %rcx
	movq	32(%rcx), %rax
	movq	24(%rcx), %rdx
	cmpq	%rdx, %rax
	je	.L316
	movq	%rax, %r9
	movq	16(%r13), %rdi
	subq	%rdx, %r9
	movq	%r9, %rsi
	sarq	$4, %rsi
	cmpq	%rsi, %rdi
	jnb	.L316
	subq	$1, %rsi
	leaq	-16(%rax), %r10
	cmpq	%rsi, %rdi
	je	.L390
	movq	%rdi, %rax
	leaq	-16(%rdx,%r9), %r9
	salq	$4, %rax
	movdqu	(%r9), %xmm3
	addq	%rdx, %rax
	movq	(%rax), %r11
	movq	8(%rax), %rbp
	movups	%xmm3, (%rax)
	movq	%r11, (%r9)
	movq	%rbp, 8(%r9)
	movq	8(%rax), %r11
	movq	%rdi, 16(%r11)
	movq	%rsi, 16(%rbp)
	movq	%r10, 32(%rcx)
	testq	%rdi, %rdi
	je	.L319
	leaq	-1(%rdi), %r9
	movq	(%rax), %rbp
	shrq	%r9
	movq	%r9, %rsi
	salq	$4, %rsi
	addq	%rdx, %rsi
	cmpq	%rbp, (%rsi)
	jg	.L320
.L319:
	subq	%rdx, %r10
	leaq	1(%rdi,%rdi), %r9
	movq	%r10, %rcx
	sarq	$4, %rcx
	cmpq	%rcx, %r9
	jnb	.L316
	movq	(%rax), %r15
	jmp	.L322
	.p2align 4,,10
	.p2align 3
.L391:
	leaq	16(%rdx,%rax), %rax
	movq	(%rax), %r11
	cmpq	%r10, %r11
	jg	.L343
	movq	%r11, %r10
	movq	%rax, %r8
.L321:
	movq	%rdi, %rax
	salq	$4, %rax
	addq	%rdx, %rax
	cmpq	%r10, %r15
	jl	.L316
	movq	8(%rax), %r9
	movdqu	(%r8), %xmm1
	movups	%xmm1, (%rax)
	movq	%r9, 8(%r8)
	movq	%r15, (%r8)
	movq	8(%rax), %rax
	movq	%rdi, 16(%rax)
	movq	%rsi, 16(%r9)
	leaq	1(%rsi,%rsi), %r9
	cmpq	%rcx, %r9
	jnb	.L316
	movq	%rsi, %rdi
.L322:
	movq	%r9, %rax
	leaq	1(%r9), %rsi
	salq	$4, %rax
	leaq	(%rdx,%rax), %r8
	movq	(%r8), %r10
	cmpq	%rcx, %rsi
	jne	.L391
.L343:
	movq	%r9, %rsi
	jmp	.L321
	.p2align 4,,10
	.p2align 3
.L336:
	cmpb	$0, 176(%rbx)
	jne	.L338
	movq	144(%rbx), %rax
	testq	%rax, %rax
	je	.L338
	leaq	88(%rax), %rdx
	movb	$1, 176(%rbx)
	movl	96(%rax), %edi
	leaq	44(%rsp), %rcx
	movq	%rdx, 48(%rsp)
	movl	88(%rax), %edx
	movl	$3, %esi
	movl	$-2147483639, 44(%rsp)
	call	epoll_ctl@PLT
.L338:
	movq	%rbp, %rdi
	call	pthread_mutex_unlock@PLT
	jmp	.L303
	.p2align 4,,10
	.p2align 3
.L386:
	movq	24(%rsp), %rax
	cmpq	16(%rax), %r13
	je	.L304
	movq	%r14, %rdi
	xorl	%r12d, %r12d
	call	pthread_mutex_unlock@PLT
	jmp	.L303
	.p2align 4,,10
	.p2align 3
.L332:
	movq	%rcx, 8(%rax)
	jmp	.L333
	.p2align 4,,10
	.p2align 3
.L390:
	movq	%r10, 32(%rcx)
	.p2align 4,,10
	.p2align 3
.L316:
	movq	24(%rsp), %rcx
	movq	24(%r13), %rax
	cmpq	16(%rcx), %r13
	je	.L392
.L324:
	movq	32(%r13), %rdx
	testq	%rdx, %rdx
	je	.L325
	movq	%rax, 24(%rdx)
	movq	24(%r13), %rax
.L325:
	testq	%rax, %rax
	je	.L326
	movq	%rdx, 32(%rax)
.L326:
	pxor	%xmm0, %xmm0
	movq	%rbx, %r15
	movups	%xmm0, 24(%r13)
	jmp	.L314
	.p2align 4,,10
	.p2align 3
.L334:
	movq	(%rsp), %rax
	movq	%rax, 192(%rbx)
	jmp	.L335
	.p2align 4,,10
	.p2align 3
.L393:
	movq	8(%rax), %r11
	movq	%r9, %rdi
	movq	%rcx, %r9
.L320:
	movdqu	(%rsi), %xmm2
	movups	%xmm2, (%rax)
	movq	%rbp, (%rsi)
	movq	%r11, 8(%rsi)
	movq	8(%rax), %rax
	movq	%rdi, 16(%rax)
	movq	%r9, 16(%r11)
	testq	%r9, %r9
	je	.L316
	leaq	-1(%r9), %rcx
	movq	%r9, %rax
	shrq	%rcx
	salq	$4, %rax
	movq	%rcx, %rsi
	addq	%rdx, %rax
	salq	$4, %rsi
	movq	(%rax), %rbp
	addq	%rdx, %rsi
	cmpq	%rbp, (%rsi)
	jg	.L393
	jmp	.L316
	.p2align 4,,10
	.p2align 3
.L392:
	movq	%rax, 16(%rcx)
	jmp	.L324
.L389:
	call	__stack_chk_fail@PLT
	.cfi_endproc
.LFE7848:
	.size	_ZN4asio6detail13epoll_reactor12cancel_timerINS0_18chrono_time_traitsINSt6chrono3_V212steady_clockENS_11wait_traitsIS6_EEEEEEmRNS0_11timer_queueIT_EERNSC_14per_timer_dataEm.constprop.0, .-_ZN4asio6detail13epoll_reactor12cancel_timerINS0_18chrono_time_traitsINSt6chrono3_V212steady_clockENS_11wait_traitsIS6_EEEEEEmRNS0_11timer_queueIT_EERNSC_14per_timer_dataEm.constprop.0
	.section	.text._ZN7asiopal5TimerD0Ev,"axG",@progbits,_ZN7asiopal5TimerD5Ev,comdat
	.align 2
	.p2align 4
	.weak	_ZN7asiopal5TimerD0Ev
	.type	_ZN7asiopal5TimerD0Ev, @function
_ZN7asiopal5TimerD0Ev:
.LFB7589:
	.cfi_startproc
	.cfi_personality 0x9b,DW.ref.__gxx_personality_v0
	.cfi_lsda 0x1b,.LLSDA7589
	endbr64
	pushq	%r12
	.cfi_def_cfa_offset 16
	.cfi_offset 12, -16
	pushq	%rbp
	.cfi_def_cfa_offset 24
	.cfi_offset 6, -24
	movq	%rdi, %rbp
	pushq	%rbx
	.cfi_def_cfa_offset 32
	.cfi_offset 3, -32
	subq	$32, %rsp
	.cfi_def_cfa_offset 64
	movq	8(%rdi), %rbx
	movq	%fs:40, %rax
	movq	%rax, 24(%rsp)
	xorl	%eax, %eax
	movq	_ZTVN7asiopal5TimerE@GOTPCREL(%rip), %rax
	addq	$16, %rax
	movq	%rax, (%rdi)
	call	_ZNSt3_V215system_categoryEv@PLT
	cmpb	$0, 24(%rbp)
	movq	%rax, %r12
	je	.L395
	movq	88(%rbx), %rdi
	leaq	32(%rbp), %rdx
	leaq	40(%rbx), %rsi
	call	_ZN4asio6detail13epoll_reactor12cancel_timerINS0_18chrono_time_traitsINSt6chrono3_V212steady_clockENS_11wait_traitsIS6_EEEEEEmRNS0_11timer_queueIT_EERNSC_14per_timer_dataEm.constprop.0
	movb	$0, 24(%rbp)
.L395:
	movq	32(%rbp), %rsi
	testq	%rsi, %rsi
	je	.L396
	movq	%rsp, %rbx
	jmp	.L399
	.p2align 4,,10
	.p2align 3
.L397:
	movq	$0, (%rsi)
	movq	8(%rsi), %rax
	xorl	%ecx, %ecx
	movq	%rbx, %rdx
	movl	$0, (%rsp)
	xorl	%edi, %edi
	movq	%r12, 8(%rsp)
	call	*%rax
	movq	32(%rbp), %rsi
	testq	%rsi, %rsi
	je	.L396
.L399:
	movq	(%rsi), %rax
	movq	%rax, 32(%rbp)
	testq	%rax, %rax
	jne	.L397
	movq	$0, 40(%rbp)
	jmp	.L397
	.p2align 4,,10
	.p2align 3
.L396:
	movl	$72, %esi
	movq	%rbp, %rdi
	call	_ZdlPvm@PLT
	movq	24(%rsp), %rax
	xorq	%fs:40, %rax
	jne	.L412
	addq	$32, %rsp
	.cfi_remember_state
	.cfi_def_cfa_offset 32
	popq	%rbx
	.cfi_def_cfa_offset 24
	popq	%rbp
	.cfi_def_cfa_offset 16
	popq	%r12
	.cfi_def_cfa_offset 8
	ret
.L412:
	.cfi_restore_state
	call	__stack_chk_fail@PLT
	.cfi_endproc
.LFE7589:
	.section	.gcc_except_table._ZN7asiopal5TimerD0Ev,"aG",@progbits,_ZN7asiopal5TimerD5Ev,comdat
.LLSDA7589:
	.byte	0xff
	.byte	0xff
	.byte	0x1
	.uleb128 .LLSDACSE7589-.LLSDACSB7589
.LLSDACSB7589:
.LLSDACSE7589:
	.section	.text._ZN7asiopal5TimerD0Ev,"axG",@progbits,_ZN7asiopal5TimerD5Ev,comdat
	.size	_ZN7asiopal5TimerD0Ev, .-_ZN7asiopal5TimerD0Ev
	.section	.text._ZN7asiopal5TimerD2Ev,"axG",@progbits,_ZN7asiopal5TimerD5Ev,comdat
	.align 2
	.p2align 4
	.weak	_ZN7asiopal5TimerD2Ev
	.type	_ZN7asiopal5TimerD2Ev, @function
_ZN7asiopal5TimerD2Ev:
.LFB7587:
	.cfi_startproc
	.cfi_personality 0x9b,DW.ref.__gxx_personality_v0
	.cfi_lsda 0x1b,.LLSDA7587
	endbr64
	pushq	%r12
	.cfi_def_cfa_offset 16
	.cfi_offset 12, -16
	pushq	%rbp
	.cfi_def_cfa_offset 24
	.cfi_offset 6, -24
	pushq	%rbx
	.cfi_def_cfa_offset 32
	.cfi_offset 3, -32
	movq	%rdi, %rbx
	subq	$32, %rsp
	.cfi_def_cfa_offset 64
	movq	8(%rdi), %rbp
	movq	%fs:40, %rax
	movq	%rax, 24(%rsp)
	xorl	%eax, %eax
	movq	_ZTVN7asiopal5TimerE@GOTPCREL(%rip), %rax
	addq	$16, %rax
	movq	%rax, (%rdi)
	call	_ZNSt3_V215system_categoryEv@PLT
	cmpb	$0, 24(%rbx)
	movq	%rax, %r12
	je	.L414
	movq	88(%rbp), %rdi
	leaq	32(%rbx), %rdx
	leaq	40(%rbp), %rsi
	call	_ZN4asio6detail13epoll_reactor12cancel_timerINS0_18chrono_time_traitsINSt6chrono3_V212steady_clockENS_11wait_traitsIS6_EEEEEEmRNS0_11timer_queueIT_EERNSC_14per_timer_dataEm.constprop.0
	movb	$0, 24(%rbx)
.L414:
	movq	32(%rbx), %rsi
	testq	%rsi, %rsi
	je	.L413
	movq	%rsp, %rbp
	jmp	.L418
	.p2align 4,,10
	.p2align 3
.L416:
	movq	$0, (%rsi)
	movq	8(%rsi), %rax
	xorl	%ecx, %ecx
	movq	%rbp, %rdx
	movl	$0, (%rsp)
	xorl	%edi, %edi
	movq	%r12, 8(%rsp)
	call	*%rax
	movq	32(%rbx), %rsi
	testq	%rsi, %rsi
	je	.L413
.L418:
	movq	(%rsi), %rax
	movq	%rax, 32(%rbx)
	testq	%rax, %rax
	jne	.L416
	movq	$0, 40(%rbx)
	jmp	.L416
	.p2align 4,,10
	.p2align 3
.L413:
	movq	24(%rsp), %rax
	xorq	%fs:40, %rax
	jne	.L431
	addq	$32, %rsp
	.cfi_remember_state
	.cfi_def_cfa_offset 32
	popq	%rbx
	.cfi_def_cfa_offset 24
	popq	%rbp
	.cfi_def_cfa_offset 16
	popq	%r12
	.cfi_def_cfa_offset 8
	ret
.L431:
	.cfi_restore_state
	call	__stack_chk_fail@PLT
	.cfi_endproc
.LFE7587:
	.section	.gcc_except_table._ZN7asiopal5TimerD2Ev,"aG",@progbits,_ZN7asiopal5TimerD5Ev,comdat
.LLSDA7587:
	.byte	0xff
	.byte	0xff
	.byte	0x1
	.uleb128 .LLSDACSE7587-.LLSDACSB7587
.LLSDACSB7587:
.LLSDACSE7587:
	.section	.text._ZN7asiopal5TimerD2Ev,"axG",@progbits,_ZN7asiopal5TimerD5Ev,comdat
	.size	_ZN7asiopal5TimerD2Ev, .-_ZN7asiopal5TimerD2Ev
	.weak	_ZN7asiopal5TimerD1Ev
	.set	_ZN7asiopal5TimerD1Ev,_ZN7asiopal5TimerD2Ev
	.section	.text._ZN4asio6detail13epoll_reactorD0Ev,"axG",@progbits,_ZN4asio6detail13epoll_reactorD5Ev,comdat
	.align 2
	.p2align 4
	.weak	_ZN4asio6detail13epoll_reactorD0Ev
	.type	_ZN4asio6detail13epoll_reactorD0Ev, @function
_ZN4asio6detail13epoll_reactorD0Ev:
.LFB3115:
	.cfi_startproc
	.cfi_personality 0x9b,DW.ref.__gxx_personality_v0
	.cfi_lsda 0x1b,.LLSDA3115
	endbr64
	pushq	%r15
	.cfi_def_cfa_offset 16
	.cfi_offset 15, -16
	pushq	%r14
	.cfi_def_cfa_offset 24
	.cfi_offset 14, -24
	pushq	%r13
	.cfi_def_cfa_offset 32
	.cfi_offset 13, -32
	pushq	%r12
	.cfi_def_cfa_offset 40
	.cfi_offset 12, -40
	pushq	%rbp
	.cfi_def_cfa_offset 48
	.cfi_offset 6, -48
	movq	%rdi, %rbp
	pushq	%rbx
	.cfi_def_cfa_offset 56
	.cfi_offset 3, -56
	subq	$56, %rsp
	.cfi_def_cfa_offset 112
	movq	%fs:40, %rax
	movq	%rax, 40(%rsp)
	xorl	%eax, %eax
	movq	_ZTVN4asio6detail13epoll_reactorE@GOTPCREL(%rip), %rax
	addq	$16, %rax
	movq	%rax, (%rdi)
	movl	96(%rdi), %edi
	cmpl	$-1, %edi
	je	.L433
	call	close@PLT
.L433:
	movl	100(%rbp), %edi
	cmpl	$-1, %edi
	je	.L434
	call	close@PLT
.L434:
	movq	160(%rbp), %rbx
	leaq	16(%rsp), %r14
	testq	%rbx, %rbx
	je	.L445
	.p2align 4,,10
	.p2align 3
.L435:
	movq	%rbx, %r12
	movq	24(%rbx), %rbx
	leaq	96(%r12), %rax
	leaq	144(%r12), %r15
	movq	%rax, (%rsp)
.L440:
	movq	-16(%r15), %rsi
	subq	$16, %r15
	testq	%rsi, %rsi
	je	.L442
	movq	%rsi, 8(%rsp)
	call	_ZNSt3_V215system_categoryEv@PLT
	movq	8(%rsp), %rsi
	movq	%rax, %r13
	jmp	.L444
	.p2align 4,,10
	.p2align 3
.L441:
	movq	$0, (%rsi)
	movq	8(%rsi), %rax
	xorl	%ecx, %ecx
	movq	%r14, %rdx
	movl	$0, 16(%rsp)
	xorl	%edi, %edi
	movq	%r13, 24(%rsp)
	call	*%rax
	movq	(%r15), %rsi
	testq	%rsi, %rsi
	je	.L442
.L444:
	movq	(%rsi), %rax
	movq	%rax, (%r15)
	testq	%rax, %rax
	jne	.L441
	movq	$0, 8(%r15)
	jmp	.L441
	.p2align 4,,10
	.p2align 3
.L442:
	cmpq	(%rsp), %r15
	jne	.L440
	leaq	40(%r12), %rdi
	call	pthread_mutex_destroy@PLT
	movl	$152, %esi
	movq	%r12, %rdi
	call	_ZdlPvm@PLT
	testq	%rbx, %rbx
	jne	.L435
.L445:
	movq	168(%rbp), %rbx
	testq	%rbx, %rbx
	je	.L436
	leaq	16(%rsp), %r14
	.p2align 4,,10
	.p2align 3
.L437:
	movq	%rbx, %r12
	movq	24(%rbx), %rbx
	leaq	80(%r12), %rax
	leaq	128(%r12), %r15
	movq	%rax, (%rsp)
.L450:
	movq	(%r15), %rsi
	testq	%rsi, %rsi
	je	.L452
	movq	%rsi, 8(%rsp)
	call	_ZNSt3_V215system_categoryEv@PLT
	movq	8(%rsp), %rsi
	movq	%rax, %r13
	jmp	.L454
	.p2align 4,,10
	.p2align 3
.L451:
	movq	$0, (%rsi)
	movq	8(%rsi), %rax
	xorl	%ecx, %ecx
	movq	%r14, %rdx
	movl	$0, 16(%rsp)
	xorl	%edi, %edi
	movq	%r13, 24(%rsp)
	call	*%rax
	movq	(%r15), %rsi
	testq	%rsi, %rsi
	je	.L452
.L454:
	movq	(%rsi), %rax
	movq	%rax, (%r15)
	testq	%rax, %rax
	jne	.L451
	movq	$0, 8(%r15)
	jmp	.L451
	.p2align 4,,10
	.p2align 3
.L452:
	subq	$16, %r15
	cmpq	(%rsp), %r15
	jne	.L450
	leaq	40(%r12), %rdi
	call	pthread_mutex_destroy@PLT
	movl	$152, %esi
	movq	%r12, %rdi
	call	_ZdlPvm@PLT
	testq	%rbx, %rbx
	jne	.L437
.L436:
	leaq	120(%rbp), %rdi
	call	pthread_mutex_destroy@PLT
	movl	92(%rbp), %r8d
	cmpl	$-1, %r8d
	je	.L494
	movl	88(%rbp), %edi
	cmpl	%edi, %r8d
	jne	.L495
.L456:
	call	close@PLT
	jmp	.L457
	.p2align 4,,10
	.p2align 3
.L495:
	movl	%r8d, %edi
	call	close@PLT
.L494:
	movl	88(%rbp), %edi
	cmpl	$-1, %edi
	jne	.L456
.L457:
	leaq	48(%rbp), %rdi
	call	pthread_mutex_destroy@PLT
	movl	$176, %esi
	movq	%rbp, %rdi
	call	_ZdlPvm@PLT
	movq	40(%rsp), %rax
	xorq	%fs:40, %rax
	jne	.L496
	addq	$56, %rsp
	.cfi_remember_state
	.cfi_def_cfa_offset 56
	popq	%rbx
	.cfi_def_cfa_offset 48
	popq	%rbp
	.cfi_def_cfa_offset 40
	popq	%r12
	.cfi_def_cfa_offset 32
	popq	%r13
	.cfi_def_cfa_offset 24
	popq	%r14
	.cfi_def_cfa_offset 16
	popq	%r15
	.cfi_def_cfa_offset 8
	ret
.L496:
	.cfi_restore_state
	call	__stack_chk_fail@PLT
	.cfi_endproc
.LFE3115:
	.section	.gcc_except_table._ZN4asio6detail13epoll_reactorD0Ev,"aG",@progbits,_ZN4asio6detail13epoll_reactorD5Ev,comdat
.LLSDA3115:
	.byte	0xff
	.byte	0xff
	.byte	0x1
	.uleb128 .LLSDACSE3115-.LLSDACSB3115
.LLSDACSB3115:
.LLSDACSE3115:
	.section	.text._ZN4asio6detail13epoll_reactorD0Ev,"axG",@progbits,_ZN4asio6detail13epoll_reactorD5Ev,comdat
	.size	_ZN4asio6detail13epoll_reactorD0Ev, .-_ZN4asio6detail13epoll_reactorD0Ev
	.section	.text._ZN4asio6detail11timer_queueINS0_18chrono_time_traitsINSt6chrono3_V212steady_clockENS_11wait_traitsIS5_EEEEE16get_ready_timersERNS0_8op_queueINS0_25task_io_service_operationEEE,"axG",@progbits,_ZN4asio6detail11timer_queueINS0_18chrono_time_traitsINSt6chrono3_V212steady_clockENS_11wait_traitsIS5_EEEEE16get_ready_timersERNS0_8op_queueINS0_25task_io_service_operationEEE,comdat
	.align 2
	.p2align 4
	.weak	_ZN4asio6detail11timer_queueINS0_18chrono_time_traitsINSt6chrono3_V212steady_clockENS_11wait_traitsIS5_EEEEE16get_ready_timersERNS0_8op_queueINS0_25task_io_service_operationEEE
	.type	_ZN4asio6detail11timer_queueINS0_18chrono_time_traitsINSt6chrono3_V212steady_clockENS_11wait_traitsIS5_EEEEE16get_ready_timersERNS0_8op_queueINS0_25task_io_service_operationEEE, @function
_ZN4asio6detail11timer_queueINS0_18chrono_time_traitsINSt6chrono3_V212steady_clockENS_11wait_traitsIS5_EEEEE16get_ready_timersERNS0_8op_queueINS0_25task_io_service_operationEEE:
.LFB7685:
	.cfi_startproc
	endbr64
	movq	32(%rdi), %rax
	cmpq	%rax, 24(%rdi)
	je	.L530
	pushq	%r15
	.cfi_def_cfa_offset 16
	.cfi_offset 15, -16
	pushq	%r14
	.cfi_def_cfa_offset 24
	.cfi_offset 14, -24
	pushq	%r13
	.cfi_def_cfa_offset 32
	.cfi_offset 13, -32
	movq	%rsi, %r13
	pushq	%r12
	.cfi_def_cfa_offset 40
	.cfi_offset 12, -40
	movq	%rdi, %r12
	pushq	%rbp
	.cfi_def_cfa_offset 48
	.cfi_offset 6, -48
	pushq	%rbx
	.cfi_def_cfa_offset 56
	.cfi_offset 3, -56
	subq	$8, %rsp
	.cfi_def_cfa_offset 64
	call	_ZNSt6chrono3_V212steady_clock3nowEv@PLT
	movq	32(%r12), %rbx
	movq	24(%r12), %rdx
	cmpq	%rdx, %rbx
	je	.L497
	pxor	%xmm0, %xmm0
	.p2align 4,,10
	.p2align 3
.L515:
	cmpq	(%rdx), %rax
	jl	.L497
	movq	8(%rdx), %rcx
	movq	(%rcx), %rsi
	testq	%rsi, %rsi
	je	.L500
	movq	8(%r13), %rdi
	testq	%rdi, %rdi
	je	.L501
	movq	%rsi, (%rdi)
.L502:
	movq	8(%rcx), %rsi
	movq	%rsi, 8(%r13)
	movups	%xmm0, (%rcx)
.L500:
	movq	%rbx, %rdi
	movq	16(%rcx), %r8
	subq	%rdx, %rdi
	movq	%rdi, %rsi
	sarq	$4, %rsi
	cmpq	%rsi, %r8
	jnb	.L534
	subq	$1, %rsi
	subq	$16, %rbx
	cmpq	%rsi, %r8
	je	.L535
	movq	%r8, %r10
	leaq	-16(%rdx,%rdi), %rdi
	salq	$4, %r10
	movdqu	(%rdi), %xmm3
	addq	%rdx, %r10
	movq	(%r10), %r11
	movq	8(%r10), %r9
	movups	%xmm3, (%r10)
	movq	%r11, (%rdi)
	movq	%r9, 8(%rdi)
	movq	8(%r10), %r11
	movq	%r8, 16(%r11)
	movq	%rsi, 16(%r9)
	movq	%rbx, 32(%r12)
	testq	%r8, %r8
	je	.L506
	leaq	-1(%r8), %rdi
	movq	(%r10), %rbp
	shrq	%rdi
	movq	%rdi, %rsi
	salq	$4, %rsi
	addq	%rdx, %rsi
	cmpq	%rbp, (%rsi)
	jg	.L507
.L506:
	movq	%rbx, %rsi
	leaq	1(%r8,%r8), %r9
	subq	%rdx, %rsi
	sarq	$4, %rsi
	cmpq	%rsi, %r9
	jnb	.L504
	movq	(%r10), %rdi
	jmp	.L509
	.p2align 4,,10
	.p2align 3
.L536:
	leaq	16(%rdx,%r14), %r14
	movq	(%r14), %r15
	cmpq	%r15, %rbp
	jl	.L517
	movq	%r8, %r9
	movq	%r15, %rbp
	movq	%r14, %r11
	salq	$4, %r9
	addq	%rdx, %r9
	cmpq	%rbp, %rdi
	jl	.L504
.L537:
	movq	8(%r9), %rbp
	movdqu	(%r11), %xmm1
	movups	%xmm1, (%r9)
	movq	%rdi, (%r11)
	movq	%rbp, 8(%r11)
	movq	8(%r9), %r9
	movq	%r8, 16(%r9)
	leaq	1(%r10,%r10), %r9
	movq	%r10, 16(%rbp)
	cmpq	%rsi, %r9
	jnb	.L504
	movq	%r10, %r8
.L509:
	movq	%r9, %r14
	leaq	1(%r9), %r10
	salq	$4, %r14
	leaq	(%rdx,%r14), %r11
	movq	(%r11), %rbp
	cmpq	%rsi, %r10
	jne	.L536
.L517:
	movq	%r9, %r10
	movq	%r8, %r9
	salq	$4, %r9
	addq	%rdx, %r9
	cmpq	%rbp, %rdi
	jge	.L537
	.p2align 4,,10
	.p2align 3
.L504:
	movq	24(%rcx), %r8
	cmpq	16(%r12), %rcx
	je	.L538
.L511:
	movq	32(%rcx), %rsi
	testq	%rsi, %rsi
	je	.L512
	movq	%r8, 24(%rsi)
	movq	24(%rcx), %r8
.L512:
	testq	%r8, %r8
	je	.L513
	movq	%rsi, 32(%r8)
	movups	%xmm0, 24(%rcx)
	cmpq	%rdx, %rbx
	jne	.L515
.L497:
	addq	$8, %rsp
	.cfi_remember_state
	.cfi_def_cfa_offset 56
	popq	%rbx
	.cfi_def_cfa_offset 48
	popq	%rbp
	.cfi_def_cfa_offset 40
	popq	%r12
	.cfi_def_cfa_offset 32
	popq	%r13
	.cfi_def_cfa_offset 24
	popq	%r14
	.cfi_def_cfa_offset 16
	popq	%r15
	.cfi_def_cfa_offset 8
	ret
	.p2align 4,,10
	.p2align 3
.L539:
	.cfi_restore_state
	movq	8(%r10), %r11
	movq	%rdi, %r8
	movq	%r9, %rdi
.L507:
	movdqu	(%rsi), %xmm2
	movups	%xmm2, (%r10)
	movq	%rbp, (%rsi)
	movq	%r11, 8(%rsi)
	movq	8(%r10), %rsi
	movq	%r8, 16(%rsi)
	movq	%rdi, 16(%r11)
	testq	%rdi, %rdi
	je	.L504
	leaq	-1(%rdi), %r9
	movq	%rdi, %r10
	shrq	%r9
	salq	$4, %r10
	movq	%r9, %rsi
	addq	%rdx, %r10
	salq	$4, %rsi
	movq	(%r10), %rbp
	addq	%rdx, %rsi
	cmpq	%rbp, (%rsi)
	jg	.L539
	movq	24(%rcx), %r8
	cmpq	16(%r12), %rcx
	jne	.L511
	.p2align 4,,10
	.p2align 3
.L538:
	movq	%r8, 16(%r12)
	jmp	.L511
	.p2align 4,,10
	.p2align 3
.L534:
	movq	32(%r12), %rbx
	jmp	.L504
	.p2align 4,,10
	.p2align 3
.L513:
	movups	%xmm0, 24(%rcx)
	cmpq	%rdx, %rbx
	jne	.L515
	jmp	.L497
	.p2align 4,,10
	.p2align 3
.L501:
	movq	%rsi, 0(%r13)
	jmp	.L502
	.p2align 4,,10
	.p2align 3
.L535:
	movq	%rbx, 32(%r12)
	jmp	.L504
	.p2align 4,,10
	.p2align 3
.L530:
	.cfi_def_cfa_offset 8
	.cfi_restore 3
	.cfi_restore 6
	.cfi_restore 12
	.cfi_restore 13
	.cfi_restore 14
	.cfi_restore 15
	ret
	.cfi_endproc
.LFE7685:
	.size	_ZN4asio6detail11timer_queueINS0_18chrono_time_traitsINSt6chrono3_V212steady_clockENS_11wait_traitsIS5_EEEEE16get_ready_timersERNS0_8op_queueINS0_25task_io_service_operationEEE, .-_ZN4asio6detail11timer_queueINS0_18chrono_time_traitsINSt6chrono3_V212steady_clockENS_11wait_traitsIS5_EEEEE16get_ready_timersERNS0_8op_queueINS0_25task_io_service_operationEEE
	.section	.rodata._ZNK4asio6detail15system_category7messageB5cxx11Ei.str1.8,"aMS",@progbits,1
	.align 8
.LC4:
	.string	"basic_string::_M_construct null not valid"
	.section	.text._ZNK4asio6detail15system_category7messageB5cxx11Ei,"axG",@progbits,_ZNK4asio6detail15system_category7messageB5cxx11Ei,comdat
	.align 2
	.p2align 4
	.weak	_ZNK4asio6detail15system_category7messageB5cxx11Ei
	.type	_ZNK4asio6detail15system_category7messageB5cxx11Ei, @function
_ZNK4asio6detail15system_category7messageB5cxx11Ei:
.LFB2224:
	.cfi_startproc
	endbr64
	pushq	%r14
	.cfi_def_cfa_offset 16
	.cfi_offset 14, -16
	pushq	%r13
	.cfi_def_cfa_offset 24
	.cfi_offset 13, -24
	pushq	%r12
	.cfi_def_cfa_offset 32
	.cfi_offset 12, -32
	movq	%rdi, %r12
	pushq	%rbp
	.cfi_def_cfa_offset 40
	.cfi_offset 6, -40
	leaq	16(%rdi), %rbp
	subq	$296, %rsp
	.cfi_def_cfa_offset 336
	movq	%fs:40, %rax
	movq	%rax, 280(%rsp)
	xorl	%eax, %eax
	cmpl	$125, %edx
	je	.L553
	pxor	%xmm0, %xmm0
	movl	%edx, %edi
	leaq	16(%rsp), %rsi
	movl	$256, %edx
	movaps	%xmm0, 16(%rsp)
	movaps	%xmm0, 32(%rsp)
	movaps	%xmm0, 48(%rsp)
	movaps	%xmm0, 64(%rsp)
	movaps	%xmm0, 80(%rsp)
	movaps	%xmm0, 96(%rsp)
	movaps	%xmm0, 112(%rsp)
	movaps	%xmm0, 128(%rsp)
	movaps	%xmm0, 144(%rsp)
	movaps	%xmm0, 160(%rsp)
	movaps	%xmm0, 176(%rsp)
	movaps	%xmm0, 192(%rsp)
	movaps	%xmm0, 208(%rsp)
	movaps	%xmm0, 224(%rsp)
	movaps	%xmm0, 240(%rsp)
	movaps	%xmm0, 256(%rsp)
	call	strerror_r@PLT
	movq	%rbp, (%r12)
	movq	%rax, %r14
	testq	%rax, %rax
	je	.L554
	movq	%rax, %rdi
	call	strlen@PLT
	movq	%rax, 8(%rsp)
	movq	%rax, %r13
	cmpq	$15, %rax
	ja	.L555
	cmpq	$1, %rax
	jne	.L546
	movzbl	(%r14), %edx
	movb	%dl, 16(%r12)
.L547:
	movq	%rax, 8(%r12)
	movb	$0, 0(%rbp,%rax)
.L540:
	movq	280(%rsp), %rax
	xorq	%fs:40, %rax
	jne	.L556
	addq	$296, %rsp
	.cfi_remember_state
	.cfi_def_cfa_offset 40
	movq	%r12, %rax
	popq	%rbp
	.cfi_def_cfa_offset 32
	popq	%r12
	.cfi_def_cfa_offset 24
	popq	%r13
	.cfi_def_cfa_offset 16
	popq	%r14
	.cfi_def_cfa_offset 8
	ret
	.p2align 4,,10
	.p2align 3
.L555:
	.cfi_restore_state
	leaq	8(%rsp), %rsi
	xorl	%edx, %edx
	movq	%r12, %rdi
	call	_ZNSt7__cxx1112basic_stringIcSt11char_traitsIcESaIcEE9_M_createERmm@PLT
	movq	%rax, (%r12)
	movq	%rax, %rbp
	movq	8(%rsp), %rax
	movq	%rax, 16(%r12)
.L545:
	movq	%rbp, %rdi
	movq	%r13, %rdx
	movq	%r14, %rsi
	call	memcpy@PLT
	movq	8(%rsp), %rax
	movq	(%r12), %rbp
	jmp	.L547
	.p2align 4,,10
	.p2align 3
.L553:
	movq	%rbp, (%rdi)
	xorl	%edx, %edx
	leaq	8(%rsp), %rsi
	movq	$18, 8(%rsp)
	call	_ZNSt7__cxx1112basic_stringIcSt11char_traitsIcESaIcEE9_M_createERmm@PLT
	movq	8(%rsp), %rdx
	movdqa	.LC5(%rip), %xmm0
	movq	%rax, (%r12)
	movq	%rdx, 16(%r12)
	movl	$11876, %edx
	movw	%dx, 16(%rax)
	movups	%xmm0, (%rax)
	movq	8(%rsp), %rax
	movq	(%r12), %rdx
	movq	%rax, 8(%r12)
	movb	$0, (%rdx,%rax)
	jmp	.L540
	.p2align 4,,10
	.p2align 3
.L546:
	testq	%rax, %rax
	je	.L547
	jmp	.L545
	.p2align 4,,10
	.p2align 3
.L554:
	leaq	.LC4(%rip), %rdi
	call	_ZSt19__throw_logic_errorPKc@PLT
.L556:
	call	__stack_chk_fail@PLT
	.cfi_endproc
.LFE2224:
	.size	_ZNK4asio6detail15system_category7messageB5cxx11Ei, .-_ZNK4asio6detail15system_category7messageB5cxx11Ei
	.section	.text._ZNK4asio5error6detail17addrinfo_category7messageB5cxx11Ei,"axG",@progbits,_ZNK4asio5error6detail17addrinfo_category7messageB5cxx11Ei,comdat
	.align 2
	.p2align 4
	.weak	_ZNK4asio5error6detail17addrinfo_category7messageB5cxx11Ei
	.type	_ZNK4asio5error6detail17addrinfo_category7messageB5cxx11Ei, @function
_ZNK4asio5error6detail17addrinfo_category7messageB5cxx11Ei:
.LFB2270:
	.cfi_startproc
	endbr64
	pushq	%r12
	.cfi_def_cfa_offset 16
	.cfi_offset 12, -16
	movq	%rdi, %r12
	subq	$16, %rsp
	.cfi_def_cfa_offset 32
	movq	%fs:40, %rax
	movq	%rax, 8(%rsp)
	xorl	%eax, %eax
	leaq	16(%rdi), %rax
	movq	%rax, (%rdi)
	cmpl	$-8, %edx
	je	.L563
	cmpl	$-7, %edx
	je	.L564
	xorl	%edx, %edx
	movq	%rsp, %rsi
	movq	$19, (%rsp)
	call	_ZNSt7__cxx1112basic_stringIcSt11char_traitsIcESaIcEE9_M_createERmm@PLT
	movq	(%rsp), %rdx
	movdqa	.LC8(%rip), %xmm0
	movq	%rax, (%r12)
	movq	%rdx, 16(%r12)
	movl	$28530, %edx
	movw	%dx, 16(%rax)
	movb	$114, 18(%rax)
	movups	%xmm0, (%rax)
	movq	(%rsp), %rax
	movq	(%r12), %rdx
	movq	%rax, 8(%r12)
	movb	$0, (%rdx,%rax)
.L557:
	movq	8(%rsp), %rax
	xorq	%fs:40, %rax
	jne	.L565
	addq	$16, %rsp
	.cfi_remember_state
	.cfi_def_cfa_offset 16
	movq	%r12, %rax
	popq	%r12
	.cfi_def_cfa_offset 8
	ret
	.p2align 4,,10
	.p2align 3
.L564:
	.cfi_restore_state
	xorl	%edx, %edx
	movq	%rsp, %rsi
	movq	$25, (%rsp)
	call	_ZNSt7__cxx1112basic_stringIcSt11char_traitsIcESaIcEE9_M_createERmm@PLT
	movq	(%rsp), %rdx
	movdqa	.LC7(%rip), %xmm0
	movabsq	$7310593918082512243, %rcx
	movq	%rax, (%r12)
	movq	%rdx, 16(%r12)
	movq	%rcx, 16(%rax)
	movb	$100, 24(%rax)
	movups	%xmm0, (%rax)
	movq	(%rsp), %rax
	movq	(%r12), %rdx
	movq	%rax, 8(%r12)
	movb	$0, (%rdx,%rax)
	jmp	.L557
	.p2align 4,,10
	.p2align 3
.L563:
	xorl	%edx, %edx
	movq	%rsp, %rsi
	movq	$17, (%rsp)
	call	_ZNSt7__cxx1112basic_stringIcSt11char_traitsIcESaIcEE9_M_createERmm@PLT
	movq	(%rsp), %rdx
	movdqa	.LC6(%rip), %xmm0
	movq	%rax, (%r12)
	movq	%rdx, 16(%r12)
	movb	$100, 16(%rax)
	movups	%xmm0, (%rax)
	movq	(%rsp), %rax
	movq	(%r12), %rdx
	movq	%rax, 8(%r12)
	movb	$0, (%rdx,%rax)
	jmp	.L557
.L565:
	call	__stack_chk_fail@PLT
	.cfi_endproc
.LFE2270:
	.size	_ZNK4asio5error6detail17addrinfo_category7messageB5cxx11Ei, .-_ZNK4asio5error6detail17addrinfo_category7messageB5cxx11Ei
	.section	.text._ZNK4asio5error6detail14netdb_category7messageB5cxx11Ei,"axG",@progbits,_ZNK4asio5error6detail14netdb_category7messageB5cxx11Ei,comdat
	.align 2
	.p2align 4
	.weak	_ZNK4asio5error6detail14netdb_category7messageB5cxx11Ei
	.type	_ZNK4asio5error6detail14netdb_category7messageB5cxx11Ei, @function
_ZNK4asio5error6detail14netdb_category7messageB5cxx11Ei:
.LFB2264:
	.cfi_startproc
	endbr64
	pushq	%r12
	.cfi_def_cfa_offset 16
	.cfi_offset 12, -16
	movq	%rdi, %r12
	subq	$16, %rsp
	.cfi_def_cfa_offset 32
	movq	%fs:40, %rax
	movq	%rax, 8(%rsp)
	xorl	%eax, %eax
	leaq	16(%rdi), %rax
	movq	%rax, (%rdi)
	cmpl	$1, %edx
	je	.L574
	cmpl	$2, %edx
	je	.L575
	cmpl	$4, %edx
	je	.L576
	cmpl	$3, %edx
	je	.L577
	xorl	%edx, %edx
	movq	%rsp, %rsi
	movq	$16, (%rsp)
	call	_ZNSt7__cxx1112basic_stringIcSt11char_traitsIcESaIcEE9_M_createERmm@PLT
	movq	(%rsp), %rdx
	movdqa	.LC18(%rip), %xmm0
	movq	%rax, (%r12)
	movq	%rdx, 16(%r12)
	movups	%xmm0, (%rax)
	movq	(%rsp), %rax
	movq	(%r12), %rdx
	movq	%rax, 8(%r12)
	movb	$0, (%rdx,%rax)
.L566:
	movq	8(%rsp), %rax
	xorq	%fs:40, %rax
	jne	.L578
	addq	$16, %rsp
	.cfi_remember_state
	.cfi_def_cfa_offset 16
	movq	%r12, %rax
	popq	%r12
	.cfi_def_cfa_offset 8
	ret
	.p2align 4,,10
	.p2align 3
.L574:
	.cfi_restore_state
	movq	%rsp, %rsi
	xorl	%edx, %edx
	movq	$30, (%rsp)
	call	_ZNSt7__cxx1112basic_stringIcSt11char_traitsIcESaIcEE9_M_createERmm@PLT
	movq	(%rsp), %rdx
	movl	$10597, %esi
	movdqa	.LC9(%rip), %xmm0
	movabsq	$8388361603773658465, %rcx
	movq	%rax, (%r12)
	movq	%rdx, 16(%r12)
	movq	%rcx, 16(%rax)
	movl	$1986622561, 24(%rax)
	movw	%si, 28(%rax)
	movups	%xmm0, (%rax)
	movq	(%rsp), %rax
	movq	(%r12), %rdx
	movq	%rax, 8(%r12)
	movb	$0, (%rdx,%rax)
	jmp	.L566
	.p2align 4,,10
	.p2align 3
.L577:
	xorl	%edx, %edx
	movq	%rsp, %rsi
	movq	$55, (%rsp)
	call	_ZNSt7__cxx1112basic_stringIcSt11char_traitsIcESaIcEE9_M_createERmm@PLT
	movq	(%rsp), %rdx
	movdqa	.LC15(%rip), %xmm0
	movq	%rax, (%r12)
	movq	%rdx, 16(%r12)
	movl	$30059, %edx
	movups	%xmm0, (%rax)
	movdqa	.LC16(%rip), %xmm0
	movl	$1869573152, 48(%rax)
	movups	%xmm0, 16(%rax)
	movdqa	.LC17(%rip), %xmm0
	movw	%dx, 52(%rax)
	movb	$112, 54(%rax)
	movups	%xmm0, 32(%rax)
	movq	(%rsp), %rax
	movq	(%r12), %rdx
	movq	%rax, 8(%r12)
	movb	$0, (%rdx,%rax)
	jmp	.L566
	.p2align 4,,10
	.p2align 3
.L575:
	xorl	%edx, %edx
	movq	%rsp, %rsi
	movq	$51, (%rsp)
	call	_ZNSt7__cxx1112basic_stringIcSt11char_traitsIcESaIcEE9_M_createERmm@PLT
	movq	(%rsp), %rdx
	movl	$25972, %ecx
	movdqa	.LC9(%rip), %xmm0
	movq	%rax, (%r12)
	movq	%rdx, 16(%r12)
	movups	%xmm0, (%rax)
	movdqa	.LC10(%rip), %xmm0
	movw	%cx, 48(%rax)
	movups	%xmm0, 16(%rax)
	movdqa	.LC11(%rip), %xmm0
	movb	$114, 50(%rax)
	movups	%xmm0, 32(%rax)
	movq	(%rsp), %rax
	movq	(%r12), %rdx
	movq	%rax, 8(%r12)
	movb	$0, (%rdx,%rax)
	jmp	.L566
	.p2align 4,,10
	.p2align 3
.L576:
	xorl	%edx, %edx
	movq	%rsp, %rsi
	movq	$56, (%rsp)
	call	_ZNSt7__cxx1112basic_stringIcSt11char_traitsIcESaIcEE9_M_createERmm@PLT
	movq	(%rsp), %rdx
	movdqa	.LC12(%rip), %xmm0
	movabsq	$7022344801645520244, %rcx
	movq	%rax, (%r12)
	movq	%rdx, 16(%r12)
	movups	%xmm0, (%rax)
	movdqa	.LC13(%rip), %xmm0
	movq	%rcx, 48(%rax)
	movups	%xmm0, 16(%rax)
	movdqa	.LC14(%rip), %xmm0
	movups	%xmm0, 32(%rax)
	movq	(%rsp), %rax
	movq	(%r12), %rdx
	movq	%rax, 8(%r12)
	movb	$0, (%rdx,%rax)
	jmp	.L566
.L578:
	call	__stack_chk_fail@PLT
	.cfi_endproc
.LFE2264:
	.size	_ZNK4asio5error6detail14netdb_category7messageB5cxx11Ei, .-_ZNK4asio5error6detail14netdb_category7messageB5cxx11Ei
	.section	.text._ZNK4asio5error6detail13misc_category7messageB5cxx11Ei,"axG",@progbits,_ZNK4asio5error6detail13misc_category7messageB5cxx11Ei,comdat
	.align 2
	.p2align 4
	.weak	_ZNK4asio5error6detail13misc_category7messageB5cxx11Ei
	.type	_ZNK4asio5error6detail13misc_category7messageB5cxx11Ei, @function
_ZNK4asio5error6detail13misc_category7messageB5cxx11Ei:
.LFB2276:
	.cfi_startproc
	endbr64
	pushq	%r12
	.cfi_def_cfa_offset 16
	.cfi_offset 12, -16
	movq	%rdi, %r12
	subq	$16, %rsp
	.cfi_def_cfa_offset 32
	movq	%fs:40, %rax
	movq	%rax, 8(%rsp)
	xorl	%eax, %eax
	leaq	16(%rdi), %rax
	movq	%rax, (%rdi)
	cmpl	$1, %edx
	je	.L587
	cmpl	$2, %edx
	je	.L588
	cmpl	$3, %edx
	je	.L589
	cmpl	$4, %edx
	je	.L590
	movabsq	$8316298233121436513, %rcx
	movl	$28530, %edx
	movq	%rcx, 16(%rdi)
	movl	$1919230051, 8(%rax)
	movw	%dx, 12(%rax)
	movb	$114, 14(%rax)
	movq	$15, 8(%rdi)
	movb	$0, 31(%rdi)
.L579:
	movq	8(%rsp), %rax
	xorq	%fs:40, %rax
	jne	.L591
	addq	$16, %rsp
	.cfi_remember_state
	.cfi_def_cfa_offset 16
	movq	%r12, %rax
	popq	%r12
	.cfi_def_cfa_offset 8
	ret
	.p2align 4,,10
	.p2align 3
.L587:
	.cfi_restore_state
	movabsq	$2340011850872286273, %rcx
	movq	%rcx, 16(%rdi)
	movl	$1852141679, 8(%rax)
	movq	$12, 8(%rdi)
	movb	$0, 28(%rdi)
	jmp	.L579
	.p2align 4,,10
	.p2align 3
.L590:
	movq	%rsp, %rsi
	xorl	%edx, %edx
	movq	$57, (%rsp)
	call	_ZNSt7__cxx1112basic_stringIcSt11char_traitsIcESaIcEE9_M_createERmm@PLT
	movq	(%rsp), %rdx
	movdqa	.LC20(%rip), %xmm0
	movabsq	$7310291504967217959, %rsi
	movq	%rax, (%r12)
	movq	%rdx, 16(%r12)
	movups	%xmm0, (%rax)
	movdqa	.LC21(%rip), %xmm0
	movq	%rsi, 48(%rax)
	movups	%xmm0, 16(%rax)
	movdqa	.LC22(%rip), %xmm0
	movb	$116, 56(%rax)
	movups	%xmm0, 32(%rax)
	movq	(%rsp), %rax
	movq	(%r12), %rdx
	movq	%rax, 8(%r12)
	movb	$0, (%rdx,%rax)
	jmp	.L579
	.p2align 4,,10
	.p2align 3
.L588:
	movabsq	$7358994418594246213, %rcx
	movq	%rcx, 16(%rdi)
	movl	$27753, %ecx
	movw	%cx, 8(%rax)
	movb	$101, 10(%rax)
	movq	$11, 8(%rdi)
	movb	$0, 27(%rdi)
	jmp	.L579
	.p2align 4,,10
	.p2align 3
.L589:
	xorl	%edx, %edx
	movq	%rsp, %rsi
	movq	$17, (%rsp)
	call	_ZNSt7__cxx1112basic_stringIcSt11char_traitsIcESaIcEE9_M_createERmm@PLT
	movq	(%rsp), %rdx
	movdqa	.LC19(%rip), %xmm0
	movq	%rax, (%r12)
	movq	%rdx, 16(%r12)
	movb	$100, 16(%rax)
	movups	%xmm0, (%rax)
	movq	(%rsp), %rax
	movq	(%r12), %rdx
	movq	%rax, 8(%r12)
	movb	$0, (%rdx,%rax)
	jmp	.L579
.L591:
	call	__stack_chk_fail@PLT
	.cfi_endproc
.LFE2276:
	.size	_ZNK4asio5error6detail13misc_category7messageB5cxx11Ei, .-_ZNK4asio5error6detail13misc_category7messageB5cxx11Ei
	.section	.rodata._ZNSt12system_errorC2ESt10error_codePKc.str1.1,"aMS",@progbits,1
.LC23:
	.string	": "
	.section	.text._ZNSt12system_errorC2ESt10error_codePKc,"axG",@progbits,_ZNSt12system_errorC5ESt10error_codePKc,comdat
	.align 2
	.p2align 4
	.weak	_ZNSt12system_errorC2ESt10error_codePKc
	.type	_ZNSt12system_errorC2ESt10error_codePKc, @function
_ZNSt12system_errorC2ESt10error_codePKc:
.LFB2164:
	.cfi_startproc
	.cfi_personality 0x9b,DW.ref.__gxx_personality_v0
	.cfi_lsda 0x1b,.LLSDA2164
	endbr64
	pushq	%r14
	.cfi_def_cfa_offset 16
	.cfi_offset 14, -16
	movl	%esi, %r8d
	movq	%rcx, %r14
	pushq	%r13
	.cfi_def_cfa_offset 24
	.cfi_offset 13, -24
	movq	%r8, %r13
	pushq	%r12
	.cfi_def_cfa_offset 32
	.cfi_offset 12, -32
	pushq	%rbp
	.cfi_def_cfa_offset 40
	.cfi_offset 6, -40
	movq	%rdx, %rbp
	pushq	%rbx
	.cfi_def_cfa_offset 48
	.cfi_offset 3, -48
	movq	%rdi, %rbx
	subq	$112, %rsp
	.cfi_def_cfa_offset 160
	movq	%fs:40, %rax
	movq	%rax, 104(%rsp)
	xorl	%eax, %eax
	movq	(%rdx), %rax
	leaq	64(%rsp), %r12
	movl	%esi, %edx
	movq	%r12, %rdi
	movq	%rbp, %rsi
.LEHB2:
	call	*32(%rax)
.LEHE2:
	movl	$2, %r8d
	xorl	%edx, %edx
	xorl	%esi, %esi
	leaq	.LC23(%rip), %rcx
	movq	%r12, %rdi
.LEHB3:
	call	_ZNSt7__cxx1112basic_stringIcSt11char_traitsIcESaIcEE10_M_replaceEmmPKcm@PLT
.LEHE3:
	leaq	48(%rsp), %r12
	leaq	16(%rax), %rdx
	movq	%r12, 32(%rsp)
	movq	(%rax), %rcx
	cmpq	%rdx, %rcx
	je	.L612
	movq	%rcx, 32(%rsp)
	movq	16(%rax), %rcx
	movq	%rcx, 48(%rsp)
.L594:
	movq	8(%rax), %rcx
	movb	$0, 16(%rax)
	movq	%r14, %rdi
	movq	%rcx, 40(%rsp)
	movq	%rdx, (%rax)
	movq	$0, 8(%rax)
	call	strlen@PLT
	leaq	32(%rsp), %rdi
	movq	%r14, %rcx
	xorl	%edx, %edx
	movq	%rax, %r8
	xorl	%esi, %esi
.LEHB4:
	call	_ZNSt7__cxx1112basic_stringIcSt11char_traitsIcESaIcEE10_M_replaceEmmPKcm@PLT
.LEHE4:
	leaq	16(%rsp), %r14
	leaq	16(%rax), %rdx
	movq	%r14, (%rsp)
	movq	(%rax), %rcx
	cmpq	%rdx, %rcx
	je	.L613
	movq	%rcx, (%rsp)
	movq	16(%rax), %rcx
	movq	%rcx, 16(%rsp)
.L596:
	movq	8(%rax), %rcx
	movb	$0, 16(%rax)
	movq	%rsp, %rsi
	movq	%rbx, %rdi
	movq	%rcx, 8(%rsp)
	movq	%rdx, (%rax)
	movq	$0, 8(%rax)
.LEHB5:
	call	_ZNSt13runtime_errorC2ERKNSt7__cxx1112basic_stringIcSt11char_traitsIcESaIcEEE@PLT
.LEHE5:
	movq	(%rsp), %rdi
	cmpq	%r14, %rdi
	je	.L597
	call	_ZdlPv@PLT
.L597:
	movq	32(%rsp), %rdi
	cmpq	%r12, %rdi
	je	.L598
	call	_ZdlPv@PLT
.L598:
	movq	64(%rsp), %rdi
	leaq	80(%rsp), %rax
	cmpq	%rax, %rdi
	je	.L599
	call	_ZdlPv@PLT
.L599:
	movq	_ZTVSt12system_error@GOTPCREL(%rip), %rax
	movq	%r13, 16(%rbx)
	movq	%rbp, 24(%rbx)
	addq	$16, %rax
	movq	%rax, (%rbx)
	movq	104(%rsp), %rax
	xorq	%fs:40, %rax
	jne	.L614
	addq	$112, %rsp
	.cfi_remember_state
	.cfi_def_cfa_offset 48
	popq	%rbx
	.cfi_def_cfa_offset 40
	popq	%rbp
	.cfi_def_cfa_offset 32
	popq	%r12
	.cfi_def_cfa_offset 24
	popq	%r13
	.cfi_def_cfa_offset 16
	popq	%r14
	.cfi_def_cfa_offset 8
	ret
	.p2align 4,,10
	.p2align 3
.L612:
	.cfi_restore_state
	movdqu	16(%rax), %xmm0
	movaps	%xmm0, 48(%rsp)
	jmp	.L594
	.p2align 4,,10
	.p2align 3
.L613:
	movdqu	16(%rax), %xmm1
	movaps	%xmm1, 16(%rsp)
	jmp	.L596
.L614:
	call	__stack_chk_fail@PLT
.L609:
	endbr64
	movq	%rax, %rbp
	jmp	.L600
.L607:
	endbr64
	movq	%rax, %rbp
	jmp	.L604
.L608:
	endbr64
	movq	%rax, %rbp
	jmp	.L602
.L600:
	movq	(%rsp), %rdi
	cmpq	%r14, %rdi
	je	.L602
	call	_ZdlPv@PLT
.L602:
	movq	32(%rsp), %rdi
	cmpq	%r12, %rdi
	je	.L604
	call	_ZdlPv@PLT
.L604:
	movq	64(%rsp), %rdi
	leaq	80(%rsp), %rax
	cmpq	%rax, %rdi
	je	.L605
	call	_ZdlPv@PLT
.L605:
	movq	%rbp, %rdi
.LEHB6:
	call	_Unwind_Resume@PLT
.LEHE6:
	.cfi_endproc
.LFE2164:
	.section	.gcc_except_table._ZNSt12system_errorC2ESt10error_codePKc,"aG",@progbits,_ZNSt12system_errorC5ESt10error_codePKc,comdat
.LLSDA2164:
	.byte	0xff
	.byte	0xff
	.byte	0x1
	.uleb128 .LLSDACSE2164-.LLSDACSB2164
.LLSDACSB2164:
	.uleb128 .LEHB2-.LFB2164
	.uleb128 .LEHE2-.LEHB2
	.uleb128 0
	.uleb128 0
	.uleb128 .LEHB3-.LFB2164
	.uleb128 .LEHE3-.LEHB3
	.uleb128 .L607-.LFB2164
	.uleb128 0
	.uleb128 .LEHB4-.LFB2164
	.uleb128 .LEHE4-.LEHB4
	.uleb128 .L608-.LFB2164
	.uleb128 0
	.uleb128 .LEHB5-.LFB2164
	.uleb128 .LEHE5-.LEHB5
	.uleb128 .L609-.LFB2164
	.uleb128 0
	.uleb128 .LEHB6-.LFB2164
	.uleb128 .LEHE6-.LEHB6
	.uleb128 0
	.uleb128 0
.LLSDACSE2164:
	.section	.text._ZNSt12system_errorC2ESt10error_codePKc,"axG",@progbits,_ZNSt12system_errorC5ESt10error_codePKc,comdat
	.size	_ZNSt12system_errorC2ESt10error_codePKc, .-_ZNSt12system_errorC2ESt10error_codePKc
	.weak	_ZNSt12system_errorC1ESt10error_codePKc
	.set	_ZNSt12system_errorC1ESt10error_codePKc,_ZNSt12system_errorC2ESt10error_codePKc
	.section	.text.unlikely,"ax",@progbits
	.type	_ZN4asio6detail14do_throw_errorERKSt10error_codePKc.isra.0, @function
_ZN4asio6detail14do_throw_errorERKSt10error_codePKc.isra.0:
.LFB7810:
	.cfi_startproc
	.cfi_personality 0x9b,DW.ref.__gxx_personality_v0
	.cfi_lsda 0x1b,.LLSDA7810
	pushq	%r12
	.cfi_def_cfa_offset 16
	.cfi_offset 12, -16
	movq	%rsi, %r8
	movq	%rdx, %rcx
	movl	%edi, %esi
	pushq	%rbp
	.cfi_def_cfa_offset 24
	.cfi_offset 6, -24
	movq	%r8, %rdx
	subq	$56, %rsp
	.cfi_def_cfa_offset 80
	movq	%fs:40, %rax
	movq	%rax, 40(%rsp)
	xorl	%eax, %eax
	movq	%rsp, %r12
	movq	%r12, %rdi
.LEHB7:
	call	_ZNSt12system_errorC1ESt10error_codePKc@PLT
.LEHE7:
	movl	$32, %edi
	call	__cxa_allocate_exception@PLT
	movq	%r12, %rsi
	movq	%rax, %rdi
	movq	%rax, %rbp
	call	_ZNSt13runtime_errorC2ERKS_@PLT
	movq	_ZTVSt12system_error@GOTPCREL(%rip), %rax
	movq	%rbp, %rdi
	movaps	16(%rsp), %xmm0
	movq	_ZNSt12system_errorD1Ev@GOTPCREL(%rip), %rdx
	movq	_ZTISt12system_error@GOTPCREL(%rip), %rsi
	addq	$16, %rax
	movups	%xmm0, 16(%rbp)
	movq	%rax, 0(%rbp)
.LEHB8:
	call	__cxa_throw@PLT
.LEHE8:
.L618:
	endbr64
	movq	%rax, %rbp
.L616:
	movq	%r12, %rdi
	call	_ZNSt12system_errorD1Ev@PLT
	movq	%rbp, %rdi
.LEHB9:
	call	_Unwind_Resume@PLT
.LEHE9:
	.cfi_endproc
.LFE7810:
	.section	.gcc_except_table,"a",@progbits
.LLSDA7810:
	.byte	0xff
	.byte	0xff
	.byte	0x1
	.uleb128 .LLSDACSE7810-.LLSDACSB7810
.LLSDACSB7810:
	.uleb128 .LEHB7-.LFB7810
	.uleb128 .LEHE7-.LEHB7
	.uleb128 0
	.uleb128 0
	.uleb128 .LEHB8-.LFB7810
	.uleb128 .LEHE8-.LEHB8
	.uleb128 .L618-.LFB7810
	.uleb128 0
	.uleb128 .LEHB9-.LFB7810
	.uleb128 .LEHE9-.LEHB9
	.uleb128 0
	.uleb128 0
.LLSDACSE7810:
	.section	.text.unlikely
	.size	_ZN4asio6detail14do_throw_errorERKSt10error_codePKc.isra.0, .-_ZN4asio6detail14do_throw_errorERKSt10error_codePKc.isra.0
	.section	.rodata._ZN4asio6detail13epoll_reactor12fork_serviceENS_10io_service10fork_eventE.str1.1,"aMS",@progbits,1
.LC24:
	.string	"epoll"
.LC25:
	.string	"eventfd_select_interrupter"
.LC26:
	.string	"epoll re-registration"
	.section	.text._ZN4asio6detail13epoll_reactor12fork_serviceENS_10io_service10fork_eventE,"axG",@progbits,_ZN4asio6detail13epoll_reactor12fork_serviceENS_10io_service10fork_eventE,comdat
	.align 2
	.p2align 4
	.weak	_ZN4asio6detail13epoll_reactor12fork_serviceENS_10io_service10fork_eventE
	.type	_ZN4asio6detail13epoll_reactor12fork_serviceENS_10io_service10fork_eventE, @function
_ZN4asio6detail13epoll_reactor12fork_serviceENS_10io_service10fork_eventE:
.LFB3117:
	.cfi_startproc
	.cfi_personality 0x9b,DW.ref.__gxx_personality_v0
	.cfi_lsda 0x1b,.LLSDA3117
	endbr64
	pushq	%r15
	.cfi_def_cfa_offset 16
	.cfi_offset 15, -16
	pushq	%r14
	.cfi_def_cfa_offset 24
	.cfi_offset 14, -24
	pushq	%r13
	.cfi_def_cfa_offset 32
	.cfi_offset 13, -32
	pushq	%r12
	.cfi_def_cfa_offset 40
	.cfi_offset 12, -40
	pushq	%rbp
	.cfi_def_cfa_offset 48
	.cfi_offset 6, -48
	pushq	%rbx
	.cfi_def_cfa_offset 56
	.cfi_offset 3, -56
	subq	$104, %rsp
	.cfi_def_cfa_offset 160
	movq	%fs:40, %rax
	movq	%rax, 88(%rsp)
	xorl	%eax, %eax
	cmpl	$2, %esi
	je	.L734
.L620:
	movq	88(%rsp), %rax
	xorq	%fs:40, %rax
	jne	.L735
	addq	$104, %rsp
	.cfi_remember_state
	.cfi_def_cfa_offset 56
	popq	%rbx
	.cfi_def_cfa_offset 48
	popq	%rbp
	.cfi_def_cfa_offset 40
	popq	%r12
	.cfi_def_cfa_offset 32
	popq	%r13
	.cfi_def_cfa_offset 24
	popq	%r14
	.cfi_def_cfa_offset 16
	popq	%r15
	.cfi_def_cfa_offset 8
	ret
	.p2align 4,,10
	.p2align 3
.L734:
	.cfi_restore_state
	movq	%rdi, %rbx
	movl	96(%rdi), %edi
	cmpl	$-1, %edi
	jne	.L736
.L622:
	movl	$-1, 96(%rbx)
	movl	$524288, %edi
	call	epoll_create1@PLT
	movl	%eax, %ebp
	cmpl	$-1, %eax
	je	.L737
.L623:
	movl	100(%rbx), %edi
	movl	%ebp, 96(%rbx)
	cmpl	$-1, %edi
	jne	.L738
.L629:
	movl	$-1, 100(%rbx)
	movl	$524288, %esi
	movl	$1, %edi
	call	timerfd_create@PLT
	movl	%eax, %ebp
	cmpl	$-1, %eax
	je	.L739
.L630:
	movl	92(%rbx), %r8d
	movl	88(%rbx), %edi
	movl	%ebp, 100(%rbx)
	leaq	88(%rbx), %r12
	cmpl	$-1, %r8d
	je	.L631
	cmpl	%edi, %r8d
	jne	.L740
.L632:
.LEHB10:
	call	close@PLT
.L633:
	movq	$-1, 88(%rbx)
	movl	$526336, %esi
	xorl	%edi, %edi
	call	eventfd@PLT
	movl	%eax, 88(%rbx)
	movl	%eax, %edx
	movl	%eax, 92(%rbx)
	cmpl	$-1, %eax
	je	.L741
.L634:
	movl	96(%rbx), %edi
	leaq	4(%rsp), %rbp
	movl	$1, %esi
	movl	$-2147483639, 4(%rsp)
	movq	%rbp, %rcx
	movq	%r12, 8(%rsp)
	leaq	48(%rsp), %r13
	call	epoll_ctl@PLT
	movl	92(%rbx), %edi
	movl	$8, %edx
	movq	%r13, %rsi
	movq	$1, 48(%rsp)
	call	write@PLT
.LEHE10:
	movl	100(%rbx), %edx
	cmpl	$-1, %edx
	jne	.L742
.L642:
	movl	88(%rbx), %edx
	movl	96(%rbx), %edi
	movq	%r13, %rcx
	movl	$3, %esi
	movl	$-2147483639, 48(%rsp)
	movq	%r12, 52(%rsp)
	call	epoll_ctl@PLT
.L656:
	leaq	120(%rbx), %r14
	movq	%r14, %rdi
	call	pthread_mutex_lock@PLT
	movq	160(%rbx), %r15
	testq	%r15, %r15
	jne	.L657
	jmp	.L663
	.p2align 4,,10
	.p2align 3
.L658:
	movq	24(%r15), %r15
	testq	%r15, %r15
	je	.L663
.L657:
	movl	92(%r15), %eax
	movl	88(%r15), %edx
	movq	%rbp, %rcx
	movl	$1, %esi
	movl	96(%rbx), %edi
	movq	%r15, 8(%rsp)
	movl	%eax, 4(%rsp)
	call	epoll_ctl@PLT
	testl	%eax, %eax
	je	.L658
	movq	_ZGVZN4asio15system_categoryEvE8instance@GOTPCREL(%rip), %r12
	movzbl	(%r12), %eax
	testb	%al, %al
	je	.L659
.L733:
	movq	_ZZN4asio15system_categoryEvE8instance@GOTPCREL(%rip), %r13
.L660:
	call	__errno_location@PLT
	movl	(%rax), %eax
	testl	%eax, %eax
	je	.L658
	leaq	.LC26(%rip), %rdx
	movl	%eax, %edi
	movq	%r13, %rsi
.LEHB11:
	call	_ZN4asio6detail14do_throw_errorERKSt10error_codePKc.isra.0
.LEHE11:
	.p2align 4,,10
	.p2align 3
.L740:
	movl	%r8d, %edi
.LEHB12:
	call	close@PLT
	movl	88(%rbx), %edi
.L631:
	cmpl	$-1, %edi
	je	.L633
	jmp	.L632
	.p2align 4,,10
	.p2align 3
.L742:
	movl	96(%rbx), %edi
	leaq	100(%rbx), %rax
	movq	%rbp, %rcx
	movl	$1, %esi
	movl	$9, 4(%rsp)
	movq	%rax, 8(%rsp)
	call	epoll_ctl@PLT
	movl	100(%rbx), %edi
	cmpl	$-1, %edi
	je	.L642
	movq	104(%rbx), %r14
	pxor	%xmm0, %xmm0
	movaps	%xmm0, 16(%rsp)
	testq	%r14, %r14
	je	.L643
	movq	_ZNK4asio6detail11timer_queueINS0_18chrono_time_traitsINSt6chrono3_V212steady_clockENS_11wait_traitsIS5_EEEEE18wait_duration_usecEl@GOTPCREL(%rip), %r12
	movl	$300000000, %r15d
	jmp	.L653
	.p2align 4,,10
	.p2align 3
.L745:
	testq	%rax, %rax
	js	.L647
.L732:
	subq	%rax, %rdx
	movq	%rdx, %rdi
	testq	%rdx, %rdx
	jle	.L671
	movabsq	$2361183241434822607, %rax
	sarq	$63, %rdi
	imulq	%rdx
	sarq	$7, %rdx
	subq	%rdi, %rdx
.L650:
	testq	%rdx, %rdx
	je	.L743
.L649:
	cmpq	%rdx, %r15
	cmovg	%rdx, %r15
.L645:
	movq	8(%r14), %r14
	testq	%r14, %r14
	je	.L744
.L653:
	movq	(%r14), %rax
	movq	32(%rax), %rax
	cmpq	%r12, %rax
	jne	.L644
	movq	24(%r14), %rax
	cmpq	%rax, 32(%r14)
	je	.L645
	call	_ZNSt6chrono3_V212steady_clock3nowEv@PLT
	movq	24(%r14), %rdx
	movq	(%rdx), %rdx
	testq	%rdx, %rdx
	jns	.L745
	testq	%rax, %rax
	js	.L732
.L671:
	movq	8(%r14), %r14
	xorl	%r15d, %r15d
	testq	%r14, %r14
	jne	.L653
	.p2align 4,,10
	.p2align 3
.L744:
	movq	%r15, %rax
	xorl	%r8d, %r8d
	movl	100(%rbx), %edi
	movabsq	$4835703278458516699, %rdx
	imulq	%rdx
	movq	%r15, %rax
	sarq	$63, %rax
	sarq	$18, %rdx
	subq	%rax, %rdx
	testq	%r15, %r15
	movl	$1, %eax
	movq	%rdx, 32(%rsp)
	sete	%r8b
	je	.L655
	imulq	$1000000, %rdx, %rdx
	movq	%r15, %rsi
	subq	%rdx, %rsi
	imulq	$1000, %rsi, %rax
.L655:
	leaq	16(%rsp), %rdx
	movq	%r13, %rcx
	movl	%r8d, %esi
	movq	%rax, 40(%rsp)
	call	timerfd_settime@PLT
	jmp	.L656
	.p2align 4,,10
	.p2align 3
.L738:
	call	close@PLT
	jmp	.L629
	.p2align 4,,10
	.p2align 3
.L736:
	call	close@PLT
	jmp	.L622
	.p2align 4,,10
	.p2align 3
.L659:
	movq	%r12, %rdi
	call	__cxa_guard_acquire@PLT
	testl	%eax, %eax
	je	.L733
	movq	_ZZN4asio15system_categoryEvE8instance@GOTPCREL(%rip), %r13
	movq	_ZN4asio6detail15system_categoryD1Ev@GOTPCREL(%rip), %rdi
	leaq	__dso_handle(%rip), %rdx
	movq	%r13, %rsi
	call	__cxa_atexit@PLT
	movq	%r12, %rdi
	call	__cxa_guard_release@PLT
	jmp	.L660
	.p2align 4,,10
	.p2align 3
.L663:
	movq	%r14, %rdi
	call	pthread_mutex_unlock@PLT
	jmp	.L620
	.p2align 4,,10
	.p2align 3
.L644:
	movq	%r15, %rsi
	movq	%r14, %rdi
	call	*%rax
	movq	%rax, %r15
	jmp	.L645
	.p2align 4,,10
	.p2align 3
.L743:
	movl	$1, %r15d
	jmp	.L645
	.p2align 4,,10
	.p2align 3
.L647:
	movabsq	$-9223372036854775808, %rcx
	cmpq	%rcx, %rax
	je	.L669
	movabsq	$9223372036854775807, %rdi
	movq	%rax, %r8
	negq	%r8
	subq	%rdx, %rdi
	cmpq	%rdi, %r8
	jg	.L669
	subq	%rax, %rdx
	movabsq	$2361183241434822607, %rax
	shrq	$3, %rdx
	mulq	%rdx
	shrq	$4, %rdx
	jmp	.L650
	.p2align 4,,10
	.p2align 3
.L669:
	movabsq	$9223372036854775, %rdx
	jmp	.L649
	.p2align 4,,10
	.p2align 3
.L741:
	call	__errno_location@PLT
	cmpl	$22, (%rax)
	movq	%rax, %rbp
	je	.L746
.L636:
	leaq	80(%rsp), %rdi
	call	pipe@PLT
	testl	%eax, %eax
	je	.L665
	movq	_ZGVZN4asio15system_categoryEvE8instance@GOTPCREL(%rip), %r14
	movzbl	(%r14), %eax
	testb	%al, %al
	je	.L638
.L731:
	movq	_ZZN4asio15system_categoryEvE8instance@GOTPCREL(%rip), %r13
.L639:
	movl	0(%rbp), %eax
	testl	%eax, %eax
	jne	.L747
.L637:
	movl	88(%rbx), %edx
	jmp	.L634
	.p2align 4,,10
	.p2align 3
.L739:
	call	__errno_location@PLT
	cmpl	$22, (%rax)
	jne	.L630
	xorl	%esi, %esi
	movl	$1, %edi
	call	timerfd_create@PLT
	movl	%eax, %ebp
	cmpl	$-1, %eax
	je	.L630
	movl	%eax, %edi
	movl	$1, %edx
	movl	$2, %esi
	xorl	%eax, %eax
	call	fcntl@PLT
	jmp	.L630
	.p2align 4,,10
	.p2align 3
.L737:
	call	__errno_location@PLT
	movq	%rax, %r14
	movl	(%rax), %eax
	subl	$22, %eax
	andl	$-17, %eax
	jne	.L624
	movl	$20000, %edi
	call	epoll_create@PLT
	movl	%eax, %r12d
	cmpl	$-1, %eax
	je	.L624
	movl	%eax, %edi
	movl	$1, %edx
	movl	$2, %esi
	xorl	%eax, %eax
	call	fcntl@PLT
	movl	%r12d, %ebp
	jmp	.L623
.L624:
	movq	_ZGVZN4asio15system_categoryEvE8instance@GOTPCREL(%rip), %r12
	movzbl	(%r12), %eax
	testb	%al, %al
	je	.L625
.L730:
	movq	_ZZN4asio15system_categoryEvE8instance@GOTPCREL(%rip), %r13
.L626:
	movl	(%r14), %eax
	testl	%eax, %eax
	je	.L623
	leaq	.LC24(%rip), %rdx
	movl	%eax, %edi
	movq	%r13, %rsi
	call	_ZN4asio6detail14do_throw_errorERKSt10error_codePKc.isra.0
	.p2align 4,,10
	.p2align 3
.L665:
	movl	80(%rsp), %edi
	movl	$2048, %edx
	movl	$4, %esi
	xorl	%eax, %eax
	movl	%edi, 88(%rbx)
	call	fcntl@PLT
	movl	88(%rbx), %edi
	movl	$1, %edx
	xorl	%eax, %eax
	movl	$2, %esi
	call	fcntl@PLT
	movl	84(%rsp), %edi
	movl	$2048, %edx
	xorl	%eax, %eax
	movl	$4, %esi
	movl	%edi, 92(%rbx)
	call	fcntl@PLT
	movl	92(%rbx), %edi
	movl	$1, %edx
	xorl	%eax, %eax
	movl	$2, %esi
	call	fcntl@PLT
	jmp	.L637
.L625:
	movq	%r12, %rdi
	call	__cxa_guard_acquire@PLT
	testl	%eax, %eax
	je	.L730
	movq	_ZZN4asio15system_categoryEvE8instance@GOTPCREL(%rip), %r13
	movq	_ZN4asio6detail15system_categoryD1Ev@GOTPCREL(%rip), %rdi
	leaq	__dso_handle(%rip), %rdx
	movq	%r13, %rsi
	call	__cxa_atexit@PLT
	movq	%r12, %rdi
	call	__cxa_guard_release@PLT
	jmp	.L626
.L746:
	xorl	%edi, %edi
	xorl	%esi, %esi
	call	eventfd@PLT
	movl	%eax, 88(%rbx)
	movl	%eax, %edi
	movl	%eax, 92(%rbx)
	cmpl	$-1, %eax
	je	.L636
	movl	$2048, %edx
	movl	$4, %esi
	xorl	%eax, %eax
	call	fcntl@PLT
	movl	88(%rbx), %edi
	movl	$1, %edx
	xorl	%eax, %eax
	movl	$2, %esi
	call	fcntl@PLT
	movl	88(%rbx), %edx
	cmpl	$-1, %edx
	jne	.L634
	jmp	.L636
	.p2align 4,,10
	.p2align 3
.L643:
	movq	$300, 32(%rsp)
	xorl	%r8d, %r8d
	xorl	%eax, %eax
	jmp	.L655
.L638:
	movq	%r14, %rdi
	call	__cxa_guard_acquire@PLT
	testl	%eax, %eax
	je	.L731
	movq	_ZZN4asio15system_categoryEvE8instance@GOTPCREL(%rip), %r13
	movq	_ZN4asio6detail15system_categoryD1Ev@GOTPCREL(%rip), %rdi
	leaq	__dso_handle(%rip), %rdx
	movq	%r13, %rsi
	call	__cxa_atexit@PLT
	movq	%r14, %rdi
	call	__cxa_guard_release@PLT
	jmp	.L639
.L735:
	call	__stack_chk_fail@PLT
.L747:
	leaq	.LC25(%rip), %rdx
	movl	%eax, %edi
	movq	%r13, %rsi
	call	_ZN4asio6detail14do_throw_errorERKSt10error_codePKc.isra.0
.L674:
	endbr64
	movq	%rax, %rbp
.L664:
	movq	%r14, %rdi
	call	pthread_mutex_unlock@PLT
	movq	%rbp, %rdi
	call	_Unwind_Resume@PLT
.LEHE12:
	.cfi_endproc
.LFE3117:
	.section	.gcc_except_table
.LLSDA3117:
	.byte	0xff
	.byte	0xff
	.byte	0x1
	.uleb128 .LLSDACSE3117-.LLSDACSB3117
.LLSDACSB3117:
	.uleb128 .LEHB10-.LFB3117
	.uleb128 .LEHE10-.LEHB10
	.uleb128 0
	.uleb128 0
	.uleb128 .LEHB11-.LFB3117
	.uleb128 .LEHE11-.LEHB11
	.uleb128 .L674-.LFB3117
	.uleb128 0
	.uleb128 .LEHB12-.LFB3117
	.uleb128 .LEHE12-.LEHB12
	.uleb128 0
	.uleb128 0
.LLSDACSE3117:
	.section	.text._ZN4asio6detail13epoll_reactor12fork_serviceENS_10io_service10fork_eventE,"axG",@progbits,_ZN4asio6detail13epoll_reactor12fork_serviceENS_10io_service10fork_eventE,comdat
	.size	_ZN4asio6detail13epoll_reactor12fork_serviceENS_10io_service10fork_eventE, .-_ZN4asio6detail13epoll_reactor12fork_serviceENS_10io_service10fork_eventE
	.text
	.align 2
	.p2align 4
	.globl	_ZN7asiopal5Timer6CancelEv
	.type	_ZN7asiopal5Timer6CancelEv, @function
_ZN7asiopal5Timer6CancelEv:
.LFB6308:
	.cfi_startproc
	endbr64
	cmpb	$0, 24(%rdi)
	jne	.L754
	ret
	.p2align 4,,10
	.p2align 3
.L754:
	pushq	%rbx
	.cfi_def_cfa_offset 16
	.cfi_offset 3, -16
	movq	8(%rdi), %rax
	movq	%rdi, %rbx
	leaq	32(%rdi), %rdx
	movq	88(%rax), %rdi
	leaq	40(%rax), %rsi
	call	_ZN4asio6detail13epoll_reactor12cancel_timerINS0_18chrono_time_traitsINSt6chrono3_V212steady_clockENS_11wait_traitsIS6_EEEEEEmRNS0_11timer_queueIT_EERNSC_14per_timer_dataEm.constprop.0
	movb	$0, 24(%rbx)
	popq	%rbx
	.cfi_def_cfa_offset 8
	ret
	.cfi_endproc
.LFE6308:
	.size	_ZN7asiopal5Timer6CancelEv, .-_ZN7asiopal5Timer6CancelEv
	.section	.text._ZN4asio6detail11object_poolINS0_13epoll_reactor16descriptor_stateEED2Ev,"axG",@progbits,_ZN4asio6detail11object_poolINS0_13epoll_reactor16descriptor_stateEED5Ev,comdat
	.align 2
	.p2align 4
	.weak	_ZN4asio6detail11object_poolINS0_13epoll_reactor16descriptor_stateEED2Ev
	.type	_ZN4asio6detail11object_poolINS0_13epoll_reactor16descriptor_stateEED2Ev, @function
_ZN4asio6detail11object_poolINS0_13epoll_reactor16descriptor_stateEED2Ev:
.LFB6627:
	.cfi_startproc
	.cfi_personality 0x9b,DW.ref.__gxx_personality_v0
	.cfi_lsda 0x1b,.LLSDA6627
	endbr64
	pushq	%r15
	.cfi_def_cfa_offset 16
	.cfi_offset 15, -16
	pushq	%r14
	.cfi_def_cfa_offset 24
	.cfi_offset 14, -24
	pushq	%r13
	.cfi_def_cfa_offset 32
	.cfi_offset 13, -32
	pushq	%r12
	.cfi_def_cfa_offset 40
	.cfi_offset 12, -40
	pushq	%rbp
	.cfi_def_cfa_offset 48
	.cfi_offset 6, -48
	pushq	%rbx
	.cfi_def_cfa_offset 56
	.cfi_offset 3, -56
	subq	$56, %rsp
	.cfi_def_cfa_offset 112
	movq	(%rdi), %rbx
	movq	%rdi, 8(%rsp)
	movq	%fs:40, %rdx
	movq	%rdx, 40(%rsp)
	xorl	%edx, %edx
	testq	%rbx, %rbx
	je	.L756
	leaq	16(%rsp), %r13
	.p2align 4,,10
	.p2align 3
.L762:
	movq	%rbx, %r12
	movq	24(%rbx), %rbx
	leaq	128(%r12), %r15
	leaq	80(%r12), %r14
.L761:
	movq	(%r15), %rsi
	testq	%rsi, %rsi
	movq	%rsi, (%rsp)
	je	.L757
	call	_ZNSt3_V215system_categoryEv@PLT
	movq	(%rsp), %rsi
	movq	%rax, %rbp
	jmp	.L760
	.p2align 4,,10
	.p2align 3
.L758:
	movq	$0, (%rsi)
	movq	8(%rsi), %rax
	xorl	%ecx, %ecx
	movq	%r13, %rdx
	movl	$0, 16(%rsp)
	xorl	%edi, %edi
	movq	%rbp, 24(%rsp)
	call	*%rax
	movq	(%r15), %rsi
	testq	%rsi, %rsi
	je	.L757
.L760:
	movq	(%rsi), %rax
	movq	%rax, (%r15)
	testq	%rax, %rax
	jne	.L758
	movq	$0, 8(%r15)
	jmp	.L758
	.p2align 4,,10
	.p2align 3
.L757:
	subq	$16, %r15
	cmpq	%r14, %r15
	jne	.L761
	leaq	40(%r12), %rdi
	call	pthread_mutex_destroy@PLT
	movl	$152, %esi
	movq	%r12, %rdi
	call	_ZdlPvm@PLT
	testq	%rbx, %rbx
	jne	.L762
.L756:
	movq	8(%rsp), %rax
	movq	8(%rax), %r13
	testq	%r13, %r13
	je	.L755
	leaq	16(%rsp), %r14
	.p2align 4,,10
	.p2align 3
.L769:
	movq	%r13, %r12
	movq	24(%r13), %r13
	leaq	80(%r12), %rax
	leaq	128(%r12), %r15
	movq	%rax, (%rsp)
.L768:
	movq	(%r15), %rbp
	testq	%rbp, %rbp
	je	.L764
	call	_ZNSt3_V215system_categoryEv@PLT
	movq	%rax, %rbx
	jmp	.L767
	.p2align 4,,10
	.p2align 3
.L765:
	movq	$0, 0(%rbp)
	movq	8(%rbp), %rax
	xorl	%ecx, %ecx
	xorl	%edi, %edi
	movq	%rbp, %rsi
	movl	$0, 16(%rsp)
	movq	%r14, %rdx
	movq	%rbx, 24(%rsp)
	call	*%rax
	movq	(%r15), %rbp
	testq	%rbp, %rbp
	je	.L764
.L767:
	movq	0(%rbp), %rax
	movq	%rax, (%r15)
	testq	%rax, %rax
	jne	.L765
	movq	$0, 8(%r15)
	jmp	.L765
	.p2align 4,,10
	.p2align 3
.L764:
	subq	$16, %r15
	cmpq	(%rsp), %r15
	jne	.L768
	leaq	40(%r12), %rdi
	call	pthread_mutex_destroy@PLT
	movl	$152, %esi
	movq	%r12, %rdi
	call	_ZdlPvm@PLT
	testq	%r13, %r13
	jne	.L769
.L755:
	movq	40(%rsp), %rax
	xorq	%fs:40, %rax
	jne	.L802
	addq	$56, %rsp
	.cfi_remember_state
	.cfi_def_cfa_offset 56
	popq	%rbx
	.cfi_def_cfa_offset 48
	popq	%rbp
	.cfi_def_cfa_offset 40
	popq	%r12
	.cfi_def_cfa_offset 32
	popq	%r13
	.cfi_def_cfa_offset 24
	popq	%r14
	.cfi_def_cfa_offset 16
	popq	%r15
	.cfi_def_cfa_offset 8
	ret
.L802:
	.cfi_restore_state
	call	__stack_chk_fail@PLT
	.cfi_endproc
.LFE6627:
	.section	.gcc_except_table
.LLSDA6627:
	.byte	0xff
	.byte	0xff
	.byte	0x1
	.uleb128 .LLSDACSE6627-.LLSDACSB6627
.LLSDACSB6627:
.LLSDACSE6627:
	.section	.text._ZN4asio6detail11object_poolINS0_13epoll_reactor16descriptor_stateEED2Ev,"axG",@progbits,_ZN4asio6detail11object_poolINS0_13epoll_reactor16descriptor_stateEED5Ev,comdat
	.size	_ZN4asio6detail11object_poolINS0_13epoll_reactor16descriptor_stateEED2Ev, .-_ZN4asio6detail11object_poolINS0_13epoll_reactor16descriptor_stateEED2Ev
	.weak	_ZN4asio6detail11object_poolINS0_13epoll_reactor16descriptor_stateEED1Ev
	.set	_ZN4asio6detail11object_poolINS0_13epoll_reactor16descriptor_stateEED1Ev,_ZN4asio6detail11object_poolINS0_13epoll_reactor16descriptor_stateEED2Ev
	.section	.rodata._ZN4asio6detail16service_registry6createINS0_13epoll_reactorEEEPNS_10io_service7serviceERS4_.str1.1,"aMS",@progbits,1
.LC27:
	.string	"mutex"
	.section	.text._ZN4asio6detail16service_registry6createINS0_13epoll_reactorEEEPNS_10io_service7serviceERS4_,"axG",@progbits,_ZN4asio6detail16service_registry6createINS0_13epoll_reactorEEEPNS_10io_service7serviceERS4_,comdat
	.align 2
	.p2align 4
	.weak	_ZN4asio6detail16service_registry6createINS0_13epoll_reactorEEEPNS_10io_service7serviceERS4_
	.type	_ZN4asio6detail16service_registry6createINS0_13epoll_reactorEEEPNS_10io_service7serviceERS4_, @function
_ZN4asio6detail16service_registry6createINS0_13epoll_reactorEEEPNS_10io_service7serviceERS4_:
.LFB7200:
	.cfi_startproc
	.cfi_personality 0x9b,DW.ref.__gxx_personality_v0
	.cfi_lsda 0x1b,.LLSDA7200
	endbr64
	pushq	%r15
	.cfi_def_cfa_offset 16
	.cfi_offset 15, -16
	pushq	%r14
	.cfi_def_cfa_offset 24
	.cfi_offset 14, -24
	pushq	%r13
	.cfi_def_cfa_offset 32
	.cfi_offset 13, -32
	pushq	%r12
	.cfi_def_cfa_offset 40
	.cfi_offset 12, -40
	pushq	%rbp
	.cfi_def_cfa_offset 48
	.cfi_offset 6, -48
	pushq	%rbx
	.cfi_def_cfa_offset 56
	.cfi_offset 3, -56
	movq	%rdi, %rbx
	movl	$176, %edi
	subq	$72, %rsp
	.cfi_def_cfa_offset 128
	movq	%fs:40, %rax
	movq	%rax, 56(%rsp)
	xorl	%eax, %eax
.LEHB13:
	call	_Znwm@PLT
.LEHE13:
	xorl	%esi, %esi
	movq	%rbx, 24(%rax)
	movq	%rax, %r12
	movq	$0, 8(%rax)
	leaq	48(%r12), %r13
	movq	$0, 16(%rax)
	movq	%r13, %rdi
	movq	$0, 32(%rax)
	movq	_ZTVN4asio6detail13epoll_reactorE@GOTPCREL(%rip), %rax
	addq	$16, %rax
	movq	%rax, (%r12)
	movq	8(%rbx), %rax
	movq	%rax, 40(%r12)
	call	pthread_mutex_init@PLT
	movq	_ZGVZN4asio15system_categoryEvE8instance@GOTPCREL(%rip), %rbp
	movl	%eax, %ebx
	movzbl	0(%rbp), %eax
	testb	%al, %al
	je	.L804
.L885:
	movq	_ZZN4asio15system_categoryEvE8instance@GOTPCREL(%rip), %r14
.L805:
	testl	%ebx, %ebx
	jne	.L886
	movl	$526336, %esi
	xorl	%edi, %edi
	leaq	88(%r12), %rbx
	call	eventfd@PLT
	movl	%eax, 88(%r12)
	movl	%eax, 92(%r12)
	cmpl	$-1, %eax
	je	.L887
.L809:
	movl	$524288, %edi
	call	epoll_create1@PLT
	movl	%eax, %r15d
	cmpl	$-1, %eax
	je	.L888
.L818:
	movl	$524288, %esi
	movl	$1, %edi
	movl	%r15d, 96(%r12)
	call	timerfd_create@PLT
	movl	%eax, %r15d
	cmpl	$-1, %eax
	je	.L889
.L824:
	movl	%r15d, 100(%r12)
	leaq	120(%r12), %r15
	xorl	%esi, %esi
	movq	%r15, %rdi
	movb	$0, 112(%r12)
	movq	$0, 104(%r12)
	call	pthread_mutex_init@PLT
	movl	%eax, %ecx
	movzbl	0(%rbp), %eax
	testb	%al, %al
	je	.L890
.L828:
	testl	%ecx, %ecx
	jne	.L891
	movl	88(%r12), %edx
	movl	96(%r12), %edi
	leaq	36(%rsp), %r14
	pxor	%xmm0, %xmm0
	movl	$1, %esi
	movq	%r14, %rcx
	movq	%rbx, 40(%rsp)
	movl	$-2147483639, 36(%rsp)
	movups	%xmm0, 160(%r12)
	call	epoll_ctl@PLT
	movl	92(%r12), %edi
	leaq	24(%rsp), %rsi
	movl	$8, %edx
	movq	$1, 24(%rsp)
.LEHB14:
	call	write@PLT
.LEHE14:
	movl	100(%r12), %edx
	cmpl	$-1, %edx
	je	.L803
	movl	96(%r12), %edi
	leaq	100(%r12), %rax
	movq	%r14, %rcx
	movl	$1, %esi
	movl	$9, 36(%rsp)
	movq	%rax, 40(%rsp)
	call	epoll_ctl@PLT
.L803:
	movq	56(%rsp), %rax
	xorq	%fs:40, %rax
	jne	.L892
	addq	$72, %rsp
	.cfi_remember_state
	.cfi_def_cfa_offset 56
	movq	%r12, %rax
	popq	%rbx
	.cfi_def_cfa_offset 48
	popq	%rbp
	.cfi_def_cfa_offset 40
	popq	%r12
	.cfi_def_cfa_offset 32
	popq	%r13
	.cfi_def_cfa_offset 24
	popq	%r14
	.cfi_def_cfa_offset 16
	popq	%r15
	.cfi_def_cfa_offset 8
	ret
	.p2align 4,,10
	.p2align 3
.L889:
	.cfi_restore_state
	call	__errno_location@PLT
	cmpl	$22, (%rax)
	jne	.L824
	xorl	%esi, %esi
	movl	$1, %edi
	call	timerfd_create@PLT
	cmpl	$-1, %eax
	je	.L824
	movl	%eax, %r15d
	movl	%eax, %edi
	movl	$1, %edx
	movl	$2, %esi
	xorl	%eax, %eax
.LEHB15:
	call	fcntl@PLT
	jmp	.L824
	.p2align 4,,10
	.p2align 3
.L888:
	call	__errno_location@PLT
	movq	%rax, %r8
	movl	(%rax), %eax
	subl	$22, %eax
	andl	$-17, %eax
	jne	.L819
	movl	$20000, %edi
	movq	%r8, (%rsp)
	call	epoll_create@PLT
	movq	(%rsp), %r8
	cmpl	$-1, %eax
	movl	%eax, 12(%rsp)
	movl	%eax, %edi
	jne	.L893
.L819:
	movzbl	0(%rbp), %eax
	testb	%al, %al
	je	.L894
.L821:
	movl	(%r8), %eax
	testl	%eax, %eax
	je	.L818
	leaq	.LC24(%rip), %rdx
	movl	%eax, %edi
	movq	%r14, %rsi
	call	_ZN4asio6detail14do_throw_errorERKSt10error_codePKc.isra.0
.LEHE15:
	.p2align 4,,10
	.p2align 3
.L887:
	call	__errno_location@PLT
	cmpl	$22, (%rax)
	movq	%rax, %r15
	je	.L895
.L811:
	leaq	48(%rsp), %rdi
	call	pipe@PLT
	testl	%eax, %eax
	jne	.L896
	movl	48(%rsp), %edi
	movl	$2048, %edx
	movl	$4, %esi
	xorl	%eax, %eax
	movl	%edi, 88(%r12)
.LEHB16:
	call	fcntl@PLT
	movl	88(%r12), %edi
	movl	$1, %edx
	movl	$2, %esi
	xorl	%eax, %eax
	call	fcntl@PLT
	movl	52(%rsp), %edi
	movl	$2048, %edx
	movl	$4, %esi
	xorl	%eax, %eax
	movl	%edi, 92(%r12)
	call	fcntl@PLT
	movl	92(%r12), %edi
	movl	$1, %edx
	movl	$2, %esi
	xorl	%eax, %eax
	call	fcntl@PLT
.LEHE16:
	jmp	.L809
	.p2align 4,,10
	.p2align 3
.L804:
	movq	%rbp, %rdi
	call	__cxa_guard_acquire@PLT
	testl	%eax, %eax
	je	.L885
	movq	_ZZN4asio15system_categoryEvE8instance@GOTPCREL(%rip), %r14
	movq	_ZN4asio6detail15system_categoryD1Ev@GOTPCREL(%rip), %rdi
	leaq	__dso_handle(%rip), %rdx
	movq	%r14, %rsi
	call	__cxa_atexit@PLT
	movq	%rbp, %rdi
	call	__cxa_guard_release@PLT
	jmp	.L805
	.p2align 4,,10
	.p2align 3
.L890:
	movq	%rbp, %rdi
	movl	%ecx, (%rsp)
	call	__cxa_guard_acquire@PLT
	movl	(%rsp), %ecx
	testl	%eax, %eax
	je	.L828
	movq	_ZN4asio6detail15system_categoryD1Ev@GOTPCREL(%rip), %rdi
	leaq	__dso_handle(%rip), %rdx
	movq	%r14, %rsi
	call	__cxa_atexit@PLT
	movq	%rbp, %rdi
	call	__cxa_guard_release@PLT
	movl	(%rsp), %ecx
	jmp	.L828
	.p2align 4,,10
	.p2align 3
.L893:
	movl	$1, %edx
	movl	$2, %esi
	xorl	%eax, %eax
.LEHB17:
	call	fcntl@PLT
.LEHE17:
	movl	12(%rsp), %r15d
	jmp	.L818
	.p2align 4,,10
	.p2align 3
.L896:
	movzbl	0(%rbp), %eax
	testb	%al, %al
	je	.L897
.L815:
	movl	(%r15), %eax
	testl	%eax, %eax
	je	.L809
	leaq	.LC25(%rip), %rdx
	movl	%eax, %edi
	movq	%r14, %rsi
.LEHB18:
	call	_ZN4asio6detail14do_throw_errorERKSt10error_codePKc.isra.0
	.p2align 4,,10
	.p2align 3
.L894:
	movq	%rbp, %rdi
	movq	%r8, (%rsp)
	call	__cxa_guard_acquire@PLT
	movq	(%rsp), %r8
	testl	%eax, %eax
	je	.L821
	movq	_ZN4asio6detail15system_categoryD1Ev@GOTPCREL(%rip), %rdi
	leaq	__dso_handle(%rip), %rdx
	movq	%r14, %rsi
	call	__cxa_atexit@PLT
	movq	%rbp, %rdi
	call	__cxa_guard_release@PLT
	movq	(%rsp), %r8
	jmp	.L821
	.p2align 4,,10
	.p2align 3
.L895:
	xorl	%edi, %edi
	xorl	%esi, %esi
	call	eventfd@PLT
	movl	%eax, 88(%r12)
	movl	%eax, %edi
	movl	%eax, 92(%r12)
	cmpl	$-1, %eax
	je	.L811
	movl	$2048, %edx
	movl	$4, %esi
	xorl	%eax, %eax
	call	fcntl@PLT
	movl	88(%r12), %edi
	movl	$1, %edx
	movl	$2, %esi
	xorl	%eax, %eax
	call	fcntl@PLT
.LEHE18:
	cmpl	$-1, 88(%r12)
	jne	.L809
	jmp	.L811
	.p2align 4,,10
	.p2align 3
.L897:
	movq	%rbp, %rdi
	call	__cxa_guard_acquire@PLT
	testl	%eax, %eax
	je	.L815
	movq	_ZN4asio6detail15system_categoryD1Ev@GOTPCREL(%rip), %rdi
	leaq	__dso_handle(%rip), %rdx
	movq	%r14, %rsi
	call	__cxa_atexit@PLT
	movq	%rbp, %rdi
	call	__cxa_guard_release@PLT
	jmp	.L815
.L892:
	call	__stack_chk_fail@PLT
.L845:
	endbr64
	movq	%rax, %rbx
	jmp	.L832
.L891:
	leaq	.LC27(%rip), %rdx
	movl	%ecx, %edi
	movq	%r14, %rsi
.LEHB19:
	call	_ZN4asio6detail14do_throw_errorERKSt10error_codePKc.isra.0
.LEHE19:
.L832:
	leaq	160(%r12), %rdi
	call	_ZN4asio6detail11object_poolINS0_13epoll_reactor16descriptor_stateEED1Ev@PLT
	movq	%r15, %rdi
	call	pthread_mutex_destroy@PLT
.L833:
	movl	92(%r12), %r8d
	movl	88(%r12), %edi
	cmpl	$-1, %r8d
	je	.L834
	cmpl	%edi, %r8d
	je	.L834
	movl	%r8d, %edi
	call	close@PLT
	movl	88(%r12), %edi
.L834:
	cmpl	$-1, %edi
	je	.L836
	call	close@PLT
.L836:
	movq	%r13, %rdi
	movq	%rbx, %rbp
	call	pthread_mutex_destroy@PLT
.L837:
	movq	%r12, %rdi
	movl	$176, %esi
	call	_ZdlPvm@PLT
	movq	%rbp, %rdi
.LEHB20:
	call	_Unwind_Resume@PLT
.LEHE20:
.L843:
	endbr64
	movq	%rax, %rbx
	jmp	.L836
.L844:
	endbr64
	movq	%rax, %rbx
	jmp	.L833
.L886:
	movl	%ebx, %edi
	leaq	.LC27(%rip), %rdx
	movq	%r14, %rsi
.LEHB21:
	call	_ZN4asio6detail14do_throw_errorERKSt10error_codePKc.isra.0
.LEHE21:
.L842:
	endbr64
	movq	%rax, %rbp
	jmp	.L837
	.cfi_endproc
.LFE7200:
	.section	.gcc_except_table
.LLSDA7200:
	.byte	0xff
	.byte	0xff
	.byte	0x1
	.uleb128 .LLSDACSE7200-.LLSDACSB7200
.LLSDACSB7200:
	.uleb128 .LEHB13-.LFB7200
	.uleb128 .LEHE13-.LEHB13
	.uleb128 0
	.uleb128 0
	.uleb128 .LEHB14-.LFB7200
	.uleb128 .LEHE14-.LEHB14
	.uleb128 .L845-.LFB7200
	.uleb128 0
	.uleb128 .LEHB15-.LFB7200
	.uleb128 .LEHE15-.LEHB15
	.uleb128 .L844-.LFB7200
	.uleb128 0
	.uleb128 .LEHB16-.LFB7200
	.uleb128 .LEHE16-.LEHB16
	.uleb128 .L843-.LFB7200
	.uleb128 0
	.uleb128 .LEHB17-.LFB7200
	.uleb128 .LEHE17-.LEHB17
	.uleb128 .L844-.LFB7200
	.uleb128 0
	.uleb128 .LEHB18-.LFB7200
	.uleb128 .LEHE18-.LEHB18
	.uleb128 .L843-.LFB7200
	.uleb128 0
	.uleb128 .LEHB19-.LFB7200
	.uleb128 .LEHE19-.LEHB19
	.uleb128 .L844-.LFB7200
	.uleb128 0
	.uleb128 .LEHB20-.LFB7200
	.uleb128 .LEHE20-.LEHB20
	.uleb128 0
	.uleb128 0
	.uleb128 .LEHB21-.LFB7200
	.uleb128 .LEHE21-.LEHB21
	.uleb128 .L842-.LFB7200
	.uleb128 0
.LLSDACSE7200:
	.section	.text._ZN4asio6detail16service_registry6createINS0_13epoll_reactorEEEPNS_10io_service7serviceERS4_,"axG",@progbits,_ZN4asio6detail16service_registry6createINS0_13epoll_reactorEEEPNS_10io_service7serviceERS4_,comdat
	.size	_ZN4asio6detail16service_registry6createINS0_13epoll_reactorEEEPNS_10io_service7serviceERS4_, .-_ZN4asio6detail16service_registry6createINS0_13epoll_reactorEEEPNS_10io_service7serviceERS4_
	.section	.text._ZN4asio6detail16service_registry6createINS_22waitable_timer_serviceINSt6chrono3_V212steady_clockENS_11wait_traitsIS6_EEEEEEPNS_10io_service7serviceERSA_,"axG",@progbits,_ZN4asio6detail16service_registry6createINS_22waitable_timer_serviceINSt6chrono3_V212steady_clockENS_11wait_traitsIS6_EEEEEEPNS_10io_service7serviceERSA_,comdat
	.align 2
	.p2align 4
	.weak	_ZN4asio6detail16service_registry6createINS_22waitable_timer_serviceINSt6chrono3_V212steady_clockENS_11wait_traitsIS6_EEEEEEPNS_10io_service7serviceERSA_
	.type	_ZN4asio6detail16service_registry6createINS_22waitable_timer_serviceINSt6chrono3_V212steady_clockENS_11wait_traitsIS6_EEEEEEPNS_10io_service7serviceERSA_, @function
_ZN4asio6detail16service_registry6createINS_22waitable_timer_serviceINSt6chrono3_V212steady_clockENS_11wait_traitsIS6_EEEEEEPNS_10io_service7serviceERSA_:
.LFB7420:
	.cfi_startproc
	.cfi_personality 0x9b,DW.ref.__gxx_personality_v0
	.cfi_lsda 0x1b,.LLSDA7420
	endbr64
	pushq	%r15
	.cfi_def_cfa_offset 16
	.cfi_offset 15, -16
	pushq	%r14
	.cfi_def_cfa_offset 24
	.cfi_offset 14, -24
	pushq	%r13
	.cfi_def_cfa_offset 32
	.cfi_offset 13, -32
	pushq	%r12
	.cfi_def_cfa_offset 40
	.cfi_offset 12, -40
	pushq	%rbp
	.cfi_def_cfa_offset 48
	.cfi_offset 6, -48
	pushq	%rbx
	.cfi_def_cfa_offset 56
	.cfi_offset 3, -56
	movq	%rdi, %rbx
	movl	$96, %edi
	subq	$72, %rsp
	.cfi_def_cfa_offset 128
	movq	%fs:40, %rax
	movq	%rax, 56(%rsp)
	xorl	%eax, %eax
.LEHB22:
	call	_Znwm@PLT
.LEHE22:
	movq	%rbx, 24(%rax)
	movq	%rax, %r12
	movq	(%rbx), %rbx
	movq	$0, 8(%rax)
	leaq	40(%r12), %r13
	movq	$0, 16(%rax)
	leaq	8(%rbx), %rbp
	movq	$0, 32(%rax)
	movq	_ZTVN4asio22waitable_timer_serviceINSt6chrono3_V212steady_clockENS_11wait_traitsIS3_EEEE@GOTPCREL(%rip), %rax
	movq	%rbp, %rdi
	movq	$0, 48(%r12)
	movq	$0, 56(%r12)
	addq	$16, %rax
	movq	%rax, (%r12)
	movq	_ZTVN4asio6detail11timer_queueINS0_18chrono_time_traitsINSt6chrono3_V212steady_clockENS_11wait_traitsIS5_EEEEEE@GOTPCREL(%rip), %rax
	movq	$0, 64(%r12)
	movq	$0, 72(%r12)
	addq	$16, %rax
	movq	%rax, 40(%r12)
	movq	$0, 80(%r12)
	call	pthread_mutex_lock@PLT
	movq	56(%rbx), %r15
	testq	%r15, %r15
	je	.L899
	.p2align 4,,10
	.p2align 3
.L902:
	movq	8(%r15), %rax
	testq	%rax, %rax
	je	.L900
	movq	8(%rax), %rdi
	movq	_ZTSN4asio6detail14typeid_wrapperINS0_13epoll_reactorEEE@GOTPCREL(%rip), %rsi
	cmpq	%rsi, %rdi
	je	.L901
	cmpb	$42, (%rdi)
	je	.L900
	call	strcmp@PLT
	testl	%eax, %eax
	jne	.L900
.L901:
	movq	%rbp, %rdi
	call	pthread_mutex_unlock@PLT
	movq	40(%r15), %rbx
	movq	%r15, 88(%r12)
	leaq	48(%rbx), %rbp
	movq	%rbp, %rdi
	call	pthread_mutex_lock@PLT
	cmpb	$0, 209(%rbx)
	je	.L973
.L920:
	movq	%rbp, %rdi
	call	pthread_mutex_unlock@PLT
.L924:
	movq	88(%r12), %rbx
	leaq	48(%rbx), %rbp
	movq	%rbp, %rdi
	call	pthread_mutex_lock@PLT
	movq	104(%rbx), %rax
	movq	%rbp, %rdi
	movq	%rax, 48(%r12)
	movq	%r13, 104(%rbx)
	call	pthread_mutex_unlock@PLT
	movq	56(%rsp), %rax
	xorq	%fs:40, %rax
	jne	.L974
	addq	$72, %rsp
	.cfi_remember_state
	.cfi_def_cfa_offset 56
	movq	%r12, %rax
	popq	%rbx
	.cfi_def_cfa_offset 48
	popq	%rbp
	.cfi_def_cfa_offset 40
	popq	%r12
	.cfi_def_cfa_offset 32
	popq	%r13
	.cfi_def_cfa_offset 24
	popq	%r14
	.cfi_def_cfa_offset 16
	popq	%r15
	.cfi_def_cfa_offset 8
	ret
	.p2align 4,,10
	.p2align 3
.L900:
	.cfi_restore_state
	movq	32(%r15), %r15
	testq	%r15, %r15
	jne	.L902
.L899:
	movq	%rbp, %rdi
	call	pthread_mutex_unlock@PLT
	movq	48(%rbx), %rdi
.LEHB23:
	call	_ZN4asio6detail16service_registry6createINS0_13epoll_reactorEEEPNS_10io_service7serviceERS4_@PLT
.LEHE23:
	movq	%rax, %r14
	movq	_ZTIN4asio6detail14typeid_wrapperINS0_13epoll_reactorEEE@GOTPCREL(%rip), %rax
	movq	%rbp, %rdi
	movq	$0, 16(%r14)
	movq	%rax, 8(%r14)
	call	pthread_mutex_lock@PLT
	movq	56(%rbx), %rax
	movq	%rax, 8(%rsp)
	testq	%rax, %rax
	je	.L903
	movq	%rax, %r15
	.p2align 4,,10
	.p2align 3
.L906:
	movq	8(%r15), %rax
	testq	%rax, %rax
	je	.L904
	movq	8(%rax), %rdi
	movq	_ZTSN4asio6detail14typeid_wrapperINS0_13epoll_reactorEEE@GOTPCREL(%rip), %rsi
	cmpq	%rsi, %rdi
	je	.L905
	cmpb	$42, (%rdi)
	je	.L904
	call	strcmp@PLT
	testl	%eax, %eax
	jne	.L904
.L905:
	movq	(%r14), %rax
	movq	%r14, %rdi
	call	*8(%rax)
	jmp	.L901
	.p2align 4,,10
	.p2align 3
.L973:
	cmpq	$0, 144(%rbx)
	jne	.L920
	movq	24(%rbx), %rax
	movq	(%rax), %r14
	leaq	8(%r14), %r15
	movq	%r14, 16(%rsp)
	movq	%r15, %rdi
	call	pthread_mutex_lock@PLT
	movq	56(%r14), %r14
	testq	%r14, %r14
	je	.L908
	.p2align 4,,10
	.p2align 3
.L911:
	movq	8(%r14), %rax
	testq	%rax, %rax
	je	.L909
	movq	8(%rax), %rdi
	movq	_ZTSN4asio6detail14typeid_wrapperINS0_13epoll_reactorEEE@GOTPCREL(%rip), %rsi
	cmpq	%rsi, %rdi
	je	.L910
	cmpb	$42, (%rdi)
	je	.L909
	call	strcmp@PLT
	testl	%eax, %eax
	jne	.L909
.L910:
	movq	%r15, %rdi
	call	pthread_mutex_unlock@PLT
	movq	200(%rbx), %rcx
	movq	%r14, 144(%rbx)
	leaq	152(%rbx), %rax
	movq	$0, 152(%rbx)
	testq	%rcx, %rcx
	je	.L916
	movq	%rax, (%rcx)
	movq	%rax, 200(%rbx)
.L917:
	movq	136(%rbx), %rax
	orq	$1, %rax
	movq	%rax, 136(%rbx)
	cmpq	$1, %rax
	je	.L918
	movq	%rbp, %rdi
	call	pthread_mutex_unlock@PLT
	leaq	88(%rbx), %rdi
	call	pthread_cond_signal@PLT
	jmp	.L924
	.p2align 4,,10
	.p2align 3
.L904:
	movq	32(%r15), %r15
	testq	%r15, %r15
	jne	.L906
.L903:
	movq	8(%rsp), %rax
	movq	%r14, %r15
	movq	%rax, 32(%r14)
	movq	%r14, 56(%rbx)
	jmp	.L901
	.p2align 4,,10
	.p2align 3
.L918:
	cmpb	$0, 176(%rbx)
	jne	.L920
	movb	$1, 176(%rbx)
	movl	88(%r14), %edx
	leaq	88(%r14), %rax
	leaq	44(%rsp), %rcx
	movl	96(%r14), %edi
	movl	$3, %esi
	movq	%rax, 48(%rsp)
	movl	$-2147483639, 44(%rsp)
	call	epoll_ctl@PLT
	jmp	.L920
	.p2align 4,,10
	.p2align 3
.L909:
	movq	32(%r14), %r14
	testq	%r14, %r14
	jne	.L911
.L908:
	movq	%r15, %rdi
	call	pthread_mutex_unlock@PLT
	movq	16(%rsp), %r14
	movq	48(%r14), %rdi
.LEHB24:
	call	_ZN4asio6detail16service_registry6createINS0_13epoll_reactorEEEPNS_10io_service7serviceERS4_@PLT
.LEHE24:
	movq	%rax, %r8
	movq	_ZTIN4asio6detail14typeid_wrapperINS0_13epoll_reactorEEE@GOTPCREL(%rip), %rax
	movq	%r15, %rdi
	movq	$0, 16(%r8)
	movq	%rax, 8(%r8)
	movq	%r8, 8(%rsp)
	call	pthread_mutex_lock@PLT
	movq	56(%r14), %r14
	movq	8(%rsp), %r8
	testq	%r14, %r14
	movq	%r14, 24(%rsp)
	je	.L912
	.p2align 4,,10
	.p2align 3
.L915:
	movq	8(%r14), %rax
	testq	%rax, %rax
	je	.L913
	movq	8(%rax), %rdi
	movq	_ZTSN4asio6detail14typeid_wrapperINS0_13epoll_reactorEEE@GOTPCREL(%rip), %rsi
	cmpq	%rsi, %rdi
	je	.L914
	cmpb	$42, (%rdi)
	je	.L913
	movq	%r8, 8(%rsp)
	call	strcmp@PLT
	movq	8(%rsp), %r8
	testl	%eax, %eax
	jne	.L913
.L914:
	movq	(%r8), %rax
	movq	%r8, %rdi
	call	*8(%rax)
	jmp	.L910
	.p2align 4,,10
	.p2align 3
.L913:
	movq	32(%r14), %r14
	testq	%r14, %r14
	jne	.L915
.L912:
	movq	24(%rsp), %rax
	movq	%r8, %r14
	movq	%rax, 32(%r8)
	movq	16(%rsp), %rax
	movq	%r8, 56(%rax)
	jmp	.L910
	.p2align 4,,10
	.p2align 3
.L916:
	movq	%rax, %xmm0
	punpcklqdq	%xmm0, %xmm0
	movups	%xmm0, 192(%rbx)
	jmp	.L917
.L974:
	call	__stack_chk_fail@PLT
.L926:
	endbr64
	movq	%rax, %rbp
	jmp	.L922
.L927:
	endbr64
	movq	%rax, %rbx
.L921:
	movq	%rbp, %rdi
	movq	%rbx, %rbp
	call	pthread_mutex_unlock@PLT
.L922:
	movq	_ZTVN4asio6detail11timer_queueINS0_18chrono_time_traitsINSt6chrono3_V212steady_clockENS_11wait_traitsIS5_EEEEEE@GOTPCREL(%rip), %rax
	movq	64(%r12), %rdi
	addq	$16, %rax
	movq	%rax, 40(%r12)
	testq	%rdi, %rdi
	je	.L923
	call	_ZdlPv@PLT
.L923:
	movq	%r12, %rdi
	movl	$96, %esi
	call	_ZdlPvm@PLT
	movq	%rbp, %rdi
.LEHB25:
	call	_Unwind_Resume@PLT
.LEHE25:
	.cfi_endproc
.LFE7420:
	.section	.gcc_except_table
.LLSDA7420:
	.byte	0xff
	.byte	0xff
	.byte	0x1
	.uleb128 .LLSDACSE7420-.LLSDACSB7420
.LLSDACSB7420:
	.uleb128 .LEHB22-.LFB7420
	.uleb128 .LEHE22-.LEHB22
	.uleb128 0
	.uleb128 0
	.uleb128 .LEHB23-.LFB7420
	.uleb128 .LEHE23-.LEHB23
	.uleb128 .L926-.LFB7420
	.uleb128 0
	.uleb128 .LEHB24-.LFB7420
	.uleb128 .LEHE24-.LEHB24
	.uleb128 .L927-.LFB7420
	.uleb128 0
	.uleb128 .LEHB25-.LFB7420
	.uleb128 .LEHE25-.LEHB25
	.uleb128 0
	.uleb128 0
.LLSDACSE7420:
	.section	.text._ZN4asio6detail16service_registry6createINS_22waitable_timer_serviceINSt6chrono3_V212steady_clockENS_11wait_traitsIS6_EEEEEEPNS_10io_service7serviceERSA_,"axG",@progbits,_ZN4asio6detail16service_registry6createINS_22waitable_timer_serviceINSt6chrono3_V212steady_clockENS_11wait_traitsIS6_EEEEEEPNS_10io_service7serviceERSA_,comdat
	.size	_ZN4asio6detail16service_registry6createINS_22waitable_timer_serviceINSt6chrono3_V212steady_clockENS_11wait_traitsIS6_EEEEEEPNS_10io_service7serviceERSA_, .-_ZN4asio6detail16service_registry6createINS_22waitable_timer_serviceINSt6chrono3_V212steady_clockENS_11wait_traitsIS6_EEEEEEPNS_10io_service7serviceERSA_
	.text
	.align 2
	.p2align 4
	.globl	_ZN7asiopal5TimerC2ERN4asio10io_serviceE
	.type	_ZN7asiopal5TimerC2ERN4asio10io_serviceE, @function
_ZN7asiopal5TimerC2ERN4asio10io_serviceE:
.LFB6317:
	.cfi_startproc
	endbr64
	pushq	%r15
	.cfi_def_cfa_offset 16
	.cfi_offset 15, -16
	pushq	%r14
	.cfi_def_cfa_offset 24
	.cfi_offset 14, -24
	pushq	%r13
	.cfi_def_cfa_offset 32
	.cfi_offset 13, -32
	pushq	%r12
	.cfi_def_cfa_offset 40
	.cfi_offset 12, -40
	pushq	%rbp
	.cfi_def_cfa_offset 48
	.cfi_offset 6, -48
	movq	%rdi, %rbp
	pushq	%rbx
	.cfi_def_cfa_offset 56
	.cfi_offset 3, -56
	subq	$8, %rsp
	.cfi_def_cfa_offset 64
	movq	_ZTVN7asiopal5TimerE@GOTPCREL(%rip), %rax
	movq	(%rsi), %r13
	addq	$16, %rax
	leaq	8(%r13), %r14
	movq	%rax, (%rdi)
	movq	%r14, %rdi
	call	pthread_mutex_lock@PLT
	movq	56(%r13), %rbx
	testq	%rbx, %rbx
	je	.L976
	.p2align 4,,10
	.p2align 3
.L979:
	movq	8(%rbx), %rax
	testq	%rax, %rax
	je	.L977
	movq	8(%rax), %rdi
	movq	_ZTSN4asio6detail14typeid_wrapperINS_22waitable_timer_serviceINSt6chrono3_V212steady_clockENS_11wait_traitsIS5_EEEEEE@GOTPCREL(%rip), %rsi
	cmpq	%rsi, %rdi
	je	.L978
	cmpb	$42, (%rdi)
	je	.L977
	call	strcmp@PLT
	testl	%eax, %eax
	jne	.L977
.L978:
	movq	%r14, %rdi
	call	pthread_mutex_unlock@PLT
	pxor	%xmm0, %xmm0
	movq	%rbx, 8(%rbp)
	movq	$0, 16(%rbp)
	movb	$0, 24(%rbp)
	movups	%xmm0, 32(%rbp)
	movups	%xmm0, 56(%rbp)
	addq	$8, %rsp
	.cfi_remember_state
	.cfi_def_cfa_offset 56
	popq	%rbx
	.cfi_def_cfa_offset 48
	popq	%rbp
	.cfi_def_cfa_offset 40
	popq	%r12
	.cfi_def_cfa_offset 32
	popq	%r13
	.cfi_def_cfa_offset 24
	popq	%r14
	.cfi_def_cfa_offset 16
	popq	%r15
	.cfi_def_cfa_offset 8
	ret
	.p2align 4,,10
	.p2align 3
.L977:
	.cfi_restore_state
	movq	32(%rbx), %rbx
	testq	%rbx, %rbx
	jne	.L979
.L976:
	movq	%r14, %rdi
	call	pthread_mutex_unlock@PLT
	movq	48(%r13), %rdi
	call	_ZN4asio6detail16service_registry6createINS_22waitable_timer_serviceINSt6chrono3_V212steady_clockENS_11wait_traitsIS6_EEEEEEPNS_10io_service7serviceERSA_@PLT
	movq	%r14, %rdi
	movq	%rax, %r12
	movq	_ZTIN4asio6detail14typeid_wrapperINS_22waitable_timer_serviceINSt6chrono3_V212steady_clockENS_11wait_traitsIS5_EEEEEE@GOTPCREL(%rip), %rax
	movq	$0, 16(%r12)
	movq	%rax, 8(%r12)
	call	pthread_mutex_lock@PLT
	movq	56(%r13), %r15
	testq	%r15, %r15
	je	.L980
	movq	%r15, %rbx
	.p2align 4,,10
	.p2align 3
.L983:
	movq	8(%rbx), %rax
	testq	%rax, %rax
	je	.L981
	movq	8(%rax), %rdi
	movq	_ZTSN4asio6detail14typeid_wrapperINS_22waitable_timer_serviceINSt6chrono3_V212steady_clockENS_11wait_traitsIS5_EEEEEE@GOTPCREL(%rip), %rsi
	cmpq	%rsi, %rdi
	je	.L982
	cmpb	$42, (%rdi)
	je	.L981
	call	strcmp@PLT
	testl	%eax, %eax
	jne	.L981
.L982:
	movq	(%r12), %rax
	movq	%r12, %rdi
	call	*8(%rax)
	jmp	.L978
	.p2align 4,,10
	.p2align 3
.L981:
	movq	32(%rbx), %rbx
	testq	%rbx, %rbx
	jne	.L983
.L980:
	movq	%r15, 32(%r12)
	movq	%r12, %rbx
	movq	%r12, 56(%r13)
	jmp	.L978
	.cfi_endproc
.LFE6317:
	.size	_ZN7asiopal5TimerC2ERN4asio10io_serviceE, .-_ZN7asiopal5TimerC2ERN4asio10io_serviceE
	.globl	_ZN7asiopal5TimerC1ERN4asio10io_serviceE
	.set	_ZN7asiopal5TimerC1ERN4asio10io_serviceE,_ZN7asiopal5TimerC2ERN4asio10io_serviceE
	.section	.text.startup,"ax",@progbits
	.p2align 4
	.type	_GLOBAL__sub_I_Timer.cpp, @function
_GLOBAL__sub_I_Timer.cpp:
.LFB7726:
	.cfi_startproc
	endbr64
	pushq	%rbp
	.cfi_def_cfa_offset 16
	.cfi_offset 6, -16
	movq	_ZGVZN4asio15system_categoryEvE8instance@GOTPCREL(%rip), %rbp
	movzbl	0(%rbp), %eax
	testb	%al, %al
	je	.L1038
.L1008:
	movq	_ZGVZN4asio5error18get_netdb_categoryEvE8instance@GOTPCREL(%rip), %rbp
	movzbl	0(%rbp), %eax
	testb	%al, %al
	je	.L1039
.L1011:
	movq	_ZGVZN4asio5error21get_addrinfo_categoryEvE8instance@GOTPCREL(%rip), %rbp
	movzbl	0(%rbp), %eax
	testb	%al, %al
	je	.L1040
.L1014:
	movq	_ZGVZN4asio5error17get_misc_categoryEvE8instance@GOTPCREL(%rip), %rbp
	movzbl	0(%rbp), %eax
	testb	%al, %al
	je	.L1041
.L1017:
	movq	_ZGVN4asio6detail10call_stackINS0_15task_io_serviceENS0_27task_io_service_thread_infoEE4top_E@GOTPCREL(%rip), %rax
	cmpb	$0, (%rax)
	je	.L1042
.L1019:
	movq	_ZGVN4asio6detail12service_baseINS0_13epoll_reactorEE2idE@GOTPCREL(%rip), %rax
	cmpb	$0, (%rax)
	je	.L1043
.L1020:
	movq	_ZGVN4asio6detail12service_baseINS0_15task_io_serviceEE2idE@GOTPCREL(%rip), %rax
	cmpb	$0, (%rax)
	je	.L1044
.L1021:
	movq	_ZGVN4asio6detail10call_stackINS0_14strand_service11strand_implEhE4top_E@GOTPCREL(%rip), %rax
	cmpb	$0, (%rax)
	je	.L1045
.L1022:
	movq	_ZGVN4asio6detail12service_baseINS0_14strand_serviceEE2idE@GOTPCREL(%rip), %rax
	cmpb	$0, (%rax)
	je	.L1046
.L1023:
	movq	_ZGVN4asio6detail12service_baseINS_22waitable_timer_serviceINSt6chrono3_V212steady_clockENS_11wait_traitsIS5_EEEEE2idE@GOTPCREL(%rip), %rax
	cmpb	$0, (%rax)
	je	.L1047
	popq	%rbp
	.cfi_remember_state
	.cfi_def_cfa_offset 8
	ret
.L1038:
	.cfi_restore_state
	movq	%rbp, %rdi
	call	__cxa_guard_acquire@PLT
	testl	%eax, %eax
	je	.L1008
	movq	_ZZN4asio15system_categoryEvE8instance@GOTPCREL(%rip), %rsi
	movq	_ZN4asio6detail15system_categoryD1Ev@GOTPCREL(%rip), %rdi
	leaq	__dso_handle(%rip), %rdx
	call	__cxa_atexit@PLT
	movq	%rbp, %rdi
	call	__cxa_guard_release@PLT
	jmp	.L1008
.L1047:
	movb	$1, (%rax)
	leaq	__dso_handle(%rip), %rdx
	movq	_ZN4asio6detail12service_baseINS_22waitable_timer_serviceINSt6chrono3_V212steady_clockENS_11wait_traitsIS5_EEEEE2idE@GOTPCREL(%rip), %rsi
	movq	_ZN4asio6detail10service_idINS_22waitable_timer_serviceINSt6chrono3_V212steady_clockENS_11wait_traitsIS5_EEEEED1Ev@GOTPCREL(%rip), %rdi
	popq	%rbp
	.cfi_remember_state
	.cfi_def_cfa_offset 8
	jmp	__cxa_atexit@PLT
.L1046:
	.cfi_restore_state
	movb	$1, (%rax)
	movq	_ZN4asio6detail12service_baseINS0_14strand_serviceEE2idE@GOTPCREL(%rip), %rsi
	leaq	__dso_handle(%rip), %rdx
	movq	_ZN4asio6detail10service_idINS0_14strand_serviceEED1Ev@GOTPCREL(%rip), %rdi
	call	__cxa_atexit@PLT
	jmp	.L1023
.L1045:
	movb	$1, (%rax)
	movq	_ZN4asio6detail10call_stackINS0_14strand_service11strand_implEhE4top_E@GOTPCREL(%rip), %rsi
	leaq	__dso_handle(%rip), %rdx
	movq	_ZN4asio6detail7tss_ptrINS0_10call_stackINS0_14strand_service11strand_implEhE7contextEED1Ev@GOTPCREL(%rip), %rdi
	call	__cxa_atexit@PLT
	jmp	.L1022
.L1044:
	movb	$1, (%rax)
	movq	_ZN4asio6detail12service_baseINS0_15task_io_serviceEE2idE@GOTPCREL(%rip), %rsi
	leaq	__dso_handle(%rip), %rdx
	movq	_ZN4asio6detail10service_idINS0_15task_io_serviceEED1Ev@GOTPCREL(%rip), %rdi
	call	__cxa_atexit@PLT
	jmp	.L1021
.L1043:
	movb	$1, (%rax)
	movq	_ZN4asio6detail12service_baseINS0_13epoll_reactorEE2idE@GOTPCREL(%rip), %rsi
	leaq	__dso_handle(%rip), %rdx
	movq	_ZN4asio6detail10service_idINS0_13epoll_reactorEED1Ev@GOTPCREL(%rip), %rdi
	call	__cxa_atexit@PLT
	jmp	.L1020
.L1042:
	movb	$1, (%rax)
	movq	_ZN4asio6detail10call_stackINS0_15task_io_serviceENS0_27task_io_service_thread_infoEE4top_E@GOTPCREL(%rip), %rsi
	leaq	__dso_handle(%rip), %rdx
	movq	_ZN4asio6detail7tss_ptrINS0_10call_stackINS0_15task_io_serviceENS0_27task_io_service_thread_infoEE7contextEED1Ev@GOTPCREL(%rip), %rdi
	call	__cxa_atexit@PLT
	jmp	.L1019
.L1041:
	movq	%rbp, %rdi
	call	__cxa_guard_acquire@PLT
	testl	%eax, %eax
	je	.L1017
	movq	_ZZN4asio5error17get_misc_categoryEvE8instance@GOTPCREL(%rip), %rsi
	movq	_ZN4asio5error6detail13misc_categoryD1Ev@GOTPCREL(%rip), %rdi
	leaq	__dso_handle(%rip), %rdx
	call	__cxa_atexit@PLT
	movq	%rbp, %rdi
	call	__cxa_guard_release@PLT
	jmp	.L1017
.L1040:
	movq	%rbp, %rdi
	call	__cxa_guard_acquire@PLT
	testl	%eax, %eax
	je	.L1014
	movq	_ZZN4asio5error21get_addrinfo_categoryEvE8instance@GOTPCREL(%rip), %rsi
	movq	_ZN4asio5error6detail17addrinfo_categoryD1Ev@GOTPCREL(%rip), %rdi
	leaq	__dso_handle(%rip), %rdx
	call	__cxa_atexit@PLT
	movq	%rbp, %rdi
	call	__cxa_guard_release@PLT
	jmp	.L1014
.L1039:
	movq	%rbp, %rdi
	call	__cxa_guard_acquire@PLT
	testl	%eax, %eax
	je	.L1011
	movq	_ZZN4asio5error18get_netdb_categoryEvE8instance@GOTPCREL(%rip), %rsi
	movq	_ZN4asio5error6detail14netdb_categoryD1Ev@GOTPCREL(%rip), %rdi
	leaq	__dso_handle(%rip), %rdx
	call	__cxa_atexit@PLT
	movq	%rbp, %rdi
	call	__cxa_guard_release@PLT
	jmp	.L1011
	.cfi_endproc
.LFE7726:
	.size	_GLOBAL__sub_I_Timer.cpp, .-_GLOBAL__sub_I_Timer.cpp
	.section	.init_array,"aw"
	.align 8
	.quad	_GLOBAL__sub_I_Timer.cpp
	.weak	_ZTSN7openpal10UncopyableE
	.section	.rodata._ZTSN7openpal10UncopyableE,"aG",@progbits,_ZTSN7openpal10UncopyableE,comdat
	.align 16
	.type	_ZTSN7openpal10UncopyableE, @object
	.size	_ZTSN7openpal10UncopyableE, 23
_ZTSN7openpal10UncopyableE:
	.string	"N7openpal10UncopyableE"
	.weak	_ZTIN7openpal10UncopyableE
	.section	.data.rel.ro._ZTIN7openpal10UncopyableE,"awG",@progbits,_ZTIN7openpal10UncopyableE,comdat
	.align 8
	.type	_ZTIN7openpal10UncopyableE, @object
	.size	_ZTIN7openpal10UncopyableE, 16
_ZTIN7openpal10UncopyableE:
	.quad	_ZTVN10__cxxabiv117__class_type_infoE+16
	.quad	_ZTSN7openpal10UncopyableE
	.weak	_ZTSN4asio6detail11noncopyableE
	.section	.rodata._ZTSN4asio6detail11noncopyableE,"aG",@progbits,_ZTSN4asio6detail11noncopyableE,comdat
	.align 16
	.type	_ZTSN4asio6detail11noncopyableE, @object
	.size	_ZTSN4asio6detail11noncopyableE, 28
_ZTSN4asio6detail11noncopyableE:
	.string	"N4asio6detail11noncopyableE"
	.weak	_ZTIN4asio6detail11noncopyableE
	.section	.data.rel.ro._ZTIN4asio6detail11noncopyableE,"awG",@progbits,_ZTIN4asio6detail11noncopyableE,comdat
	.align 8
	.type	_ZTIN4asio6detail11noncopyableE, @object
	.size	_ZTIN4asio6detail11noncopyableE, 16
_ZTIN4asio6detail11noncopyableE:
	.quad	_ZTVN10__cxxabiv117__class_type_infoE+16
	.quad	_ZTSN4asio6detail11noncopyableE
	.weak	_ZGVN4asio6detail12service_baseINS_22waitable_timer_serviceINSt6chrono3_V212steady_clockENS_11wait_traitsIS5_EEEEE2idE
	.section	.bss._ZGVN4asio6detail12service_baseINS_22waitable_timer_serviceINSt6chrono3_V212steady_clockENS_11wait_traitsIS5_EEEEE2idE,"awG",@nobits,_ZGVN4asio6detail12service_baseINS_22waitable_timer_serviceINSt6chrono3_V212steady_clockENS_11wait_traitsIS5_EEEEE2idE,comdat
	.align 8
	.type	_ZGVN4asio6detail12service_baseINS_22waitable_timer_serviceINSt6chrono3_V212steady_clockENS_11wait_traitsIS5_EEEEE2idE, @gnu_unique_object
	.size	_ZGVN4asio6detail12service_baseINS_22waitable_timer_serviceINSt6chrono3_V212steady_clockENS_11wait_traitsIS5_EEEEE2idE, 8
_ZGVN4asio6detail12service_baseINS_22waitable_timer_serviceINSt6chrono3_V212steady_clockENS_11wait_traitsIS5_EEEEE2idE:
	.zero	8
	.weak	_ZGVN4asio6detail12service_baseINS0_14strand_serviceEE2idE
	.section	.bss._ZGVN4asio6detail12service_baseINS0_14strand_serviceEE2idE,"awG",@nobits,_ZGVN4asio6detail12service_baseINS0_14strand_serviceEE2idE,comdat
	.align 8
	.type	_ZGVN4asio6detail12service_baseINS0_14strand_serviceEE2idE, @gnu_unique_object
	.size	_ZGVN4asio6detail12service_baseINS0_14strand_serviceEE2idE, 8
_ZGVN4asio6detail12service_baseINS0_14strand_serviceEE2idE:
	.zero	8
	.weak	_ZGVN4asio6detail10call_stackINS0_14strand_service11strand_implEhE4top_E
	.section	.bss._ZGVN4asio6detail10call_stackINS0_14strand_service11strand_implEhE4top_E,"awG",@nobits,_ZGVN4asio6detail10call_stackINS0_14strand_service11strand_implEhE4top_E,comdat
	.align 8
	.type	_ZGVN4asio6detail10call_stackINS0_14strand_service11strand_implEhE4top_E, @gnu_unique_object
	.size	_ZGVN4asio6detail10call_stackINS0_14strand_service11strand_implEhE4top_E, 8
_ZGVN4asio6detail10call_stackINS0_14strand_service11strand_implEhE4top_E:
	.zero	8
	.weak	_ZGVN4asio6detail12service_baseINS0_15task_io_serviceEE2idE
	.section	.bss._ZGVN4asio6detail12service_baseINS0_15task_io_serviceEE2idE,"awG",@nobits,_ZGVN4asio6detail12service_baseINS0_15task_io_serviceEE2idE,comdat
	.align 8
	.type	_ZGVN4asio6detail12service_baseINS0_15task_io_serviceEE2idE, @gnu_unique_object
	.size	_ZGVN4asio6detail12service_baseINS0_15task_io_serviceEE2idE, 8
_ZGVN4asio6detail12service_baseINS0_15task_io_serviceEE2idE:
	.zero	8
	.weak	_ZGVN4asio6detail12service_baseINS0_13epoll_reactorEE2idE
	.section	.bss._ZGVN4asio6detail12service_baseINS0_13epoll_reactorEE2idE,"awG",@nobits,_ZGVN4asio6detail12service_baseINS0_13epoll_reactorEE2idE,comdat
	.align 8
	.type	_ZGVN4asio6detail12service_baseINS0_13epoll_reactorEE2idE, @gnu_unique_object
	.size	_ZGVN4asio6detail12service_baseINS0_13epoll_reactorEE2idE, 8
_ZGVN4asio6detail12service_baseINS0_13epoll_reactorEE2idE:
	.zero	8
	.weak	_ZGVN4asio6detail10call_stackINS0_15task_io_serviceENS0_27task_io_service_thread_infoEE4top_E
	.section	.bss._ZGVN4asio6detail10call_stackINS0_15task_io_serviceENS0_27task_io_service_thread_infoEE4top_E,"awG",@nobits,_ZGVN4asio6detail10call_stackINS0_15task_io_serviceENS0_27task_io_service_thread_infoEE4top_E,comdat
	.align 8
	.type	_ZGVN4asio6detail10call_stackINS0_15task_io_serviceENS0_27task_io_service_thread_infoEE4top_E, @gnu_unique_object
	.size	_ZGVN4asio6detail10call_stackINS0_15task_io_serviceENS0_27task_io_service_thread_infoEE4top_E, 8
_ZGVN4asio6detail10call_stackINS0_15task_io_serviceENS0_27task_io_service_thread_infoEE4top_E:
	.zero	8
	.weak	_ZN4asio6detail12service_baseINS_22waitable_timer_serviceINSt6chrono3_V212steady_clockENS_11wait_traitsIS5_EEEEE2idE
	.section	.bss._ZN4asio6detail12service_baseINS_22waitable_timer_serviceINSt6chrono3_V212steady_clockENS_11wait_traitsIS5_EEEEE2idE,"awG",@nobits,_ZN4asio6detail12service_baseINS_22waitable_timer_serviceINSt6chrono3_V212steady_clockENS_11wait_traitsIS5_EEEEE2idE,comdat
	.type	_ZN4asio6detail12service_baseINS_22waitable_timer_serviceINSt6chrono3_V212steady_clockENS_11wait_traitsIS5_EEEEE2idE, @gnu_unique_object
	.size	_ZN4asio6detail12service_baseINS_22waitable_timer_serviceINSt6chrono3_V212steady_clockENS_11wait_traitsIS5_EEEEE2idE, 1
_ZN4asio6detail12service_baseINS_22waitable_timer_serviceINSt6chrono3_V212steady_clockENS_11wait_traitsIS5_EEEEE2idE:
	.zero	1
	.weak	_ZN4asio6detail12service_baseINS0_14strand_serviceEE2idE
	.section	.bss._ZN4asio6detail12service_baseINS0_14strand_serviceEE2idE,"awG",@nobits,_ZN4asio6detail12service_baseINS0_14strand_serviceEE2idE,comdat
	.type	_ZN4asio6detail12service_baseINS0_14strand_serviceEE2idE, @gnu_unique_object
	.size	_ZN4asio6detail12service_baseINS0_14strand_serviceEE2idE, 1
_ZN4asio6detail12service_baseINS0_14strand_serviceEE2idE:
	.zero	1
	.weak	_ZN4asio6detail10call_stackINS0_14strand_service11strand_implEhE4top_E
	.section	.bss._ZN4asio6detail10call_stackINS0_14strand_service11strand_implEhE4top_E,"awG",@nobits,_ZN4asio6detail10call_stackINS0_14strand_service11strand_implEhE4top_E,comdat
	.type	_ZN4asio6detail10call_stackINS0_14strand_service11strand_implEhE4top_E, @gnu_unique_object
	.size	_ZN4asio6detail10call_stackINS0_14strand_service11strand_implEhE4top_E, 1
_ZN4asio6detail10call_stackINS0_14strand_service11strand_implEhE4top_E:
	.zero	1
	.weak	_ZN4asio6detail12service_baseINS0_15task_io_serviceEE2idE
	.section	.bss._ZN4asio6detail12service_baseINS0_15task_io_serviceEE2idE,"awG",@nobits,_ZN4asio6detail12service_baseINS0_15task_io_serviceEE2idE,comdat
	.type	_ZN4asio6detail12service_baseINS0_15task_io_serviceEE2idE, @gnu_unique_object
	.size	_ZN4asio6detail12service_baseINS0_15task_io_serviceEE2idE, 1
_ZN4asio6detail12service_baseINS0_15task_io_serviceEE2idE:
	.zero	1
	.weak	_ZN4asio6detail12service_baseINS0_13epoll_reactorEE2idE
	.section	.bss._ZN4asio6detail12service_baseINS0_13epoll_reactorEE2idE,"awG",@nobits,_ZN4asio6detail12service_baseINS0_13epoll_reactorEE2idE,comdat
	.type	_ZN4asio6detail12service_baseINS0_13epoll_reactorEE2idE, @gnu_unique_object
	.size	_ZN4asio6detail12service_baseINS0_13epoll_reactorEE2idE, 1
_ZN4asio6detail12service_baseINS0_13epoll_reactorEE2idE:
	.zero	1
	.weak	_ZN4asio6detail10call_stackINS0_15task_io_serviceENS0_27task_io_service_thread_infoEE4top_E
	.section	.bss._ZN4asio6detail10call_stackINS0_15task_io_serviceENS0_27task_io_service_thread_infoEE4top_E,"awG",@nobits,_ZN4asio6detail10call_stackINS0_15task_io_serviceENS0_27task_io_service_thread_infoEE4top_E,comdat
	.type	_ZN4asio6detail10call_stackINS0_15task_io_serviceENS0_27task_io_service_thread_infoEE4top_E, @gnu_unique_object
	.size	_ZN4asio6detail10call_stackINS0_15task_io_serviceENS0_27task_io_service_thread_infoEE4top_E, 1
_ZN4asio6detail10call_stackINS0_15task_io_serviceENS0_27task_io_service_thread_infoEE4top_E:
	.zero	1
	.weak	_ZTSN4asio6detail15system_categoryE
	.section	.rodata._ZTSN4asio6detail15system_categoryE,"aG",@progbits,_ZTSN4asio6detail15system_categoryE,comdat
	.align 32
	.type	_ZTSN4asio6detail15system_categoryE, @object
	.size	_ZTSN4asio6detail15system_categoryE, 32
_ZTSN4asio6detail15system_categoryE:
	.string	"N4asio6detail15system_categoryE"
	.weak	_ZTIN4asio6detail15system_categoryE
	.section	.data.rel.ro._ZTIN4asio6detail15system_categoryE,"awG",@progbits,_ZTIN4asio6detail15system_categoryE,comdat
	.align 8
	.type	_ZTIN4asio6detail15system_categoryE, @object
	.size	_ZTIN4asio6detail15system_categoryE, 24
_ZTIN4asio6detail15system_categoryE:
	.quad	_ZTVN10__cxxabiv120__si_class_type_infoE+16
	.quad	_ZTSN4asio6detail15system_categoryE
	.quad	_ZTINSt3_V214error_categoryE
	.weak	_ZTSN4asio10io_service7serviceE
	.section	.rodata._ZTSN4asio10io_service7serviceE,"aG",@progbits,_ZTSN4asio10io_service7serviceE,comdat
	.align 16
	.type	_ZTSN4asio10io_service7serviceE, @object
	.size	_ZTSN4asio10io_service7serviceE, 28
_ZTSN4asio10io_service7serviceE:
	.string	"N4asio10io_service7serviceE"
	.weak	_ZTIN4asio10io_service7serviceE
	.section	.data.rel.ro._ZTIN4asio10io_service7serviceE,"awG",@progbits,_ZTIN4asio10io_service7serviceE,comdat
	.align 8
	.type	_ZTIN4asio10io_service7serviceE, @object
	.size	_ZTIN4asio10io_service7serviceE, 40
_ZTIN4asio10io_service7serviceE:
	.quad	_ZTVN10__cxxabiv121__vmi_class_type_infoE+16
	.quad	_ZTSN4asio10io_service7serviceE
	.long	0
	.long	1
	.quad	_ZTIN4asio6detail11noncopyableE
	.quad	0
	.weak	_ZTSN4asio5error6detail14netdb_categoryE
	.section	.rodata._ZTSN4asio5error6detail14netdb_categoryE,"aG",@progbits,_ZTSN4asio5error6detail14netdb_categoryE,comdat
	.align 32
	.type	_ZTSN4asio5error6detail14netdb_categoryE, @object
	.size	_ZTSN4asio5error6detail14netdb_categoryE, 37
_ZTSN4asio5error6detail14netdb_categoryE:
	.string	"N4asio5error6detail14netdb_categoryE"
	.weak	_ZTIN4asio5error6detail14netdb_categoryE
	.section	.data.rel.ro._ZTIN4asio5error6detail14netdb_categoryE,"awG",@progbits,_ZTIN4asio5error6detail14netdb_categoryE,comdat
	.align 8
	.type	_ZTIN4asio5error6detail14netdb_categoryE, @object
	.size	_ZTIN4asio5error6detail14netdb_categoryE, 24
_ZTIN4asio5error6detail14netdb_categoryE:
	.quad	_ZTVN10__cxxabiv120__si_class_type_infoE+16
	.quad	_ZTSN4asio5error6detail14netdb_categoryE
	.quad	_ZTINSt3_V214error_categoryE
	.weak	_ZTSN4asio5error6detail17addrinfo_categoryE
	.section	.rodata._ZTSN4asio5error6detail17addrinfo_categoryE,"aG",@progbits,_ZTSN4asio5error6detail17addrinfo_categoryE,comdat
	.align 32
	.type	_ZTSN4asio5error6detail17addrinfo_categoryE, @object
	.size	_ZTSN4asio5error6detail17addrinfo_categoryE, 40
_ZTSN4asio5error6detail17addrinfo_categoryE:
	.string	"N4asio5error6detail17addrinfo_categoryE"
	.weak	_ZTIN4asio5error6detail17addrinfo_categoryE
	.section	.data.rel.ro._ZTIN4asio5error6detail17addrinfo_categoryE,"awG",@progbits,_ZTIN4asio5error6detail17addrinfo_categoryE,comdat
	.align 8
	.type	_ZTIN4asio5error6detail17addrinfo_categoryE, @object
	.size	_ZTIN4asio5error6detail17addrinfo_categoryE, 24
_ZTIN4asio5error6detail17addrinfo_categoryE:
	.quad	_ZTVN10__cxxabiv120__si_class_type_infoE+16
	.quad	_ZTSN4asio5error6detail17addrinfo_categoryE
	.quad	_ZTINSt3_V214error_categoryE
	.weak	_ZTSN4asio5error6detail13misc_categoryE
	.section	.rodata._ZTSN4asio5error6detail13misc_categoryE,"aG",@progbits,_ZTSN4asio5error6detail13misc_categoryE,comdat
	.align 32
	.type	_ZTSN4asio5error6detail13misc_categoryE, @object
	.size	_ZTSN4asio5error6detail13misc_categoryE, 36
_ZTSN4asio5error6detail13misc_categoryE:
	.string	"N4asio5error6detail13misc_categoryE"
	.weak	_ZTIN4asio5error6detail13misc_categoryE
	.section	.data.rel.ro._ZTIN4asio5error6detail13misc_categoryE,"awG",@progbits,_ZTIN4asio5error6detail13misc_categoryE,comdat
	.align 8
	.type	_ZTIN4asio5error6detail13misc_categoryE, @object
	.size	_ZTIN4asio5error6detail13misc_categoryE, 24
_ZTIN4asio5error6detail13misc_categoryE:
	.quad	_ZTVN10__cxxabiv120__si_class_type_infoE+16
	.quad	_ZTSN4asio5error6detail13misc_categoryE
	.quad	_ZTINSt3_V214error_categoryE
	.weak	_ZTSN4asio6detail16timer_queue_baseE
	.section	.rodata._ZTSN4asio6detail16timer_queue_baseE,"aG",@progbits,_ZTSN4asio6detail16timer_queue_baseE,comdat
	.align 32
	.type	_ZTSN4asio6detail16timer_queue_baseE, @object
	.size	_ZTSN4asio6detail16timer_queue_baseE, 33
_ZTSN4asio6detail16timer_queue_baseE:
	.string	"N4asio6detail16timer_queue_baseE"
	.weak	_ZTIN4asio6detail16timer_queue_baseE
	.section	.data.rel.ro._ZTIN4asio6detail16timer_queue_baseE,"awG",@progbits,_ZTIN4asio6detail16timer_queue_baseE,comdat
	.align 8
	.type	_ZTIN4asio6detail16timer_queue_baseE, @object
	.size	_ZTIN4asio6detail16timer_queue_baseE, 40
_ZTIN4asio6detail16timer_queue_baseE:
	.quad	_ZTVN10__cxxabiv121__vmi_class_type_infoE+16
	.quad	_ZTSN4asio6detail16timer_queue_baseE
	.long	0
	.long	1
	.quad	_ZTIN4asio6detail11noncopyableE
	.quad	0
	.weak	_ZTSN4asio6detail12service_baseINS0_13epoll_reactorEEE
	.section	.rodata._ZTSN4asio6detail12service_baseINS0_13epoll_reactorEEE,"aG",@progbits,_ZTSN4asio6detail12service_baseINS0_13epoll_reactorEEE,comdat
	.align 32
	.type	_ZTSN4asio6detail12service_baseINS0_13epoll_reactorEEE, @object
	.size	_ZTSN4asio6detail12service_baseINS0_13epoll_reactorEEE, 51
_ZTSN4asio6detail12service_baseINS0_13epoll_reactorEEE:
	.string	"N4asio6detail12service_baseINS0_13epoll_reactorEEE"
	.weak	_ZTIN4asio6detail12service_baseINS0_13epoll_reactorEEE
	.section	.data.rel.ro._ZTIN4asio6detail12service_baseINS0_13epoll_reactorEEE,"awG",@progbits,_ZTIN4asio6detail12service_baseINS0_13epoll_reactorEEE,comdat
	.align 8
	.type	_ZTIN4asio6detail12service_baseINS0_13epoll_reactorEEE, @object
	.size	_ZTIN4asio6detail12service_baseINS0_13epoll_reactorEEE, 24
_ZTIN4asio6detail12service_baseINS0_13epoll_reactorEEE:
	.quad	_ZTVN10__cxxabiv120__si_class_type_infoE+16
	.quad	_ZTSN4asio6detail12service_baseINS0_13epoll_reactorEEE
	.quad	_ZTIN4asio10io_service7serviceE
	.weak	_ZTSN4asio6detail13epoll_reactorE
	.section	.rodata._ZTSN4asio6detail13epoll_reactorE,"aG",@progbits,_ZTSN4asio6detail13epoll_reactorE,comdat
	.align 16
	.type	_ZTSN4asio6detail13epoll_reactorE, @object
	.size	_ZTSN4asio6detail13epoll_reactorE, 30
_ZTSN4asio6detail13epoll_reactorE:
	.string	"N4asio6detail13epoll_reactorE"
	.weak	_ZTIN4asio6detail13epoll_reactorE
	.section	.data.rel.ro._ZTIN4asio6detail13epoll_reactorE,"awG",@progbits,_ZTIN4asio6detail13epoll_reactorE,comdat
	.align 8
	.type	_ZTIN4asio6detail13epoll_reactorE, @object
	.size	_ZTIN4asio6detail13epoll_reactorE, 24
_ZTIN4asio6detail13epoll_reactorE:
	.quad	_ZTVN10__cxxabiv120__si_class_type_infoE+16
	.quad	_ZTSN4asio6detail13epoll_reactorE
	.quad	_ZTIN4asio6detail12service_baseINS0_13epoll_reactorEEE
	.weak	_ZTSN4asio6detail12service_baseINS_22waitable_timer_serviceINSt6chrono3_V212steady_clockENS_11wait_traitsIS5_EEEEEE
	.section	.rodata._ZTSN4asio6detail12service_baseINS_22waitable_timer_serviceINSt6chrono3_V212steady_clockENS_11wait_traitsIS5_EEEEEE,"aG",@progbits,_ZTSN4asio6detail12service_baseINS_22waitable_timer_serviceINSt6chrono3_V212steady_clockENS_11wait_traitsIS5_EEEEEE,comdat
	.align 32
	.type	_ZTSN4asio6detail12service_baseINS_22waitable_timer_serviceINSt6chrono3_V212steady_clockENS_11wait_traitsIS5_EEEEEE, @object
	.size	_ZTSN4asio6detail12service_baseINS_22waitable_timer_serviceINSt6chrono3_V212steady_clockENS_11wait_traitsIS5_EEEEEE, 112
_ZTSN4asio6detail12service_baseINS_22waitable_timer_serviceINSt6chrono3_V212steady_clockENS_11wait_traitsIS5_EEEEEE:
	.string	"N4asio6detail12service_baseINS_22waitable_timer_serviceINSt6chrono3_V212steady_clockENS_11wait_traitsIS5_EEEEEE"
	.weak	_ZTIN4asio6detail12service_baseINS_22waitable_timer_serviceINSt6chrono3_V212steady_clockENS_11wait_traitsIS5_EEEEEE
	.section	.data.rel.ro._ZTIN4asio6detail12service_baseINS_22waitable_timer_serviceINSt6chrono3_V212steady_clockENS_11wait_traitsIS5_EEEEEE,"awG",@progbits,_ZTIN4asio6detail12service_baseINS_22waitable_timer_serviceINSt6chrono3_V212steady_clockENS_11wait_traitsIS5_EEEEEE,comdat
	.align 8
	.type	_ZTIN4asio6detail12service_baseINS_22waitable_timer_serviceINSt6chrono3_V212steady_clockENS_11wait_traitsIS5_EEEEEE, @object
	.size	_ZTIN4asio6detail12service_baseINS_22waitable_timer_serviceINSt6chrono3_V212steady_clockENS_11wait_traitsIS5_EEEEEE, 24
_ZTIN4asio6detail12service_baseINS_22waitable_timer_serviceINSt6chrono3_V212steady_clockENS_11wait_traitsIS5_EEEEEE:
	.quad	_ZTVN10__cxxabiv120__si_class_type_infoE+16
	.quad	_ZTSN4asio6detail12service_baseINS_22waitable_timer_serviceINSt6chrono3_V212steady_clockENS_11wait_traitsIS5_EEEEEE
	.quad	_ZTIN4asio10io_service7serviceE
	.weak	_ZTSN4asio6detail11timer_queueINS0_18chrono_time_traitsINSt6chrono3_V212steady_clockENS_11wait_traitsIS5_EEEEEE
	.section	.rodata._ZTSN4asio6detail11timer_queueINS0_18chrono_time_traitsINSt6chrono3_V212steady_clockENS_11wait_traitsIS5_EEEEEE,"aG",@progbits,_ZTSN4asio6detail11timer_queueINS0_18chrono_time_traitsINSt6chrono3_V212steady_clockENS_11wait_traitsIS5_EEEEEE,comdat
	.align 32
	.type	_ZTSN4asio6detail11timer_queueINS0_18chrono_time_traitsINSt6chrono3_V212steady_clockENS_11wait_traitsIS5_EEEEEE, @object
	.size	_ZTSN4asio6detail11timer_queueINS0_18chrono_time_traitsINSt6chrono3_V212steady_clockENS_11wait_traitsIS5_EEEEEE, 108
_ZTSN4asio6detail11timer_queueINS0_18chrono_time_traitsINSt6chrono3_V212steady_clockENS_11wait_traitsIS5_EEEEEE:
	.string	"N4asio6detail11timer_queueINS0_18chrono_time_traitsINSt6chrono3_V212steady_clockENS_11wait_traitsIS5_EEEEEE"
	.weak	_ZTIN4asio6detail11timer_queueINS0_18chrono_time_traitsINSt6chrono3_V212steady_clockENS_11wait_traitsIS5_EEEEEE
	.section	.data.rel.ro._ZTIN4asio6detail11timer_queueINS0_18chrono_time_traitsINSt6chrono3_V212steady_clockENS_11wait_traitsIS5_EEEEEE,"awG",@progbits,_ZTIN4asio6detail11timer_queueINS0_18chrono_time_traitsINSt6chrono3_V212steady_clockENS_11wait_traitsIS5_EEEEEE,comdat
	.align 8
	.type	_ZTIN4asio6detail11timer_queueINS0_18chrono_time_traitsINSt6chrono3_V212steady_clockENS_11wait_traitsIS5_EEEEEE, @object
	.size	_ZTIN4asio6detail11timer_queueINS0_18chrono_time_traitsINSt6chrono3_V212steady_clockENS_11wait_traitsIS5_EEEEEE, 24
_ZTIN4asio6detail11timer_queueINS0_18chrono_time_traitsINSt6chrono3_V212steady_clockENS_11wait_traitsIS5_EEEEEE:
	.quad	_ZTVN10__cxxabiv120__si_class_type_infoE+16
	.quad	_ZTSN4asio6detail11timer_queueINS0_18chrono_time_traitsINSt6chrono3_V212steady_clockENS_11wait_traitsIS5_EEEEEE
	.quad	_ZTIN4asio6detail16timer_queue_baseE
	.weak	_ZTSN4asio22waitable_timer_serviceINSt6chrono3_V212steady_clockENS_11wait_traitsIS3_EEEE
	.section	.rodata._ZTSN4asio22waitable_timer_serviceINSt6chrono3_V212steady_clockENS_11wait_traitsIS3_EEEE,"aG",@progbits,_ZTSN4asio22waitable_timer_serviceINSt6chrono3_V212steady_clockENS_11wait_traitsIS3_EEEE,comdat
	.align 32
	.type	_ZTSN4asio22waitable_timer_serviceINSt6chrono3_V212steady_clockENS_11wait_traitsIS3_EEEE, @object
	.size	_ZTSN4asio22waitable_timer_serviceINSt6chrono3_V212steady_clockENS_11wait_traitsIS3_EEEE, 85
_ZTSN4asio22waitable_timer_serviceINSt6chrono3_V212steady_clockENS_11wait_traitsIS3_EEEE:
	.string	"N4asio22waitable_timer_serviceINSt6chrono3_V212steady_clockENS_11wait_traitsIS3_EEEE"
	.weak	_ZTIN4asio22waitable_timer_serviceINSt6chrono3_V212steady_clockENS_11wait_traitsIS3_EEEE
	.section	.data.rel.ro._ZTIN4asio22waitable_timer_serviceINSt6chrono3_V212steady_clockENS_11wait_traitsIS3_EEEE,"awG",@progbits,_ZTIN4asio22waitable_timer_serviceINSt6chrono3_V212steady_clockENS_11wait_traitsIS3_EEEE,comdat
	.align 8
	.type	_ZTIN4asio22waitable_timer_serviceINSt6chrono3_V212steady_clockENS_11wait_traitsIS3_EEEE, @object
	.size	_ZTIN4asio22waitable_timer_serviceINSt6chrono3_V212steady_clockENS_11wait_traitsIS3_EEEE, 24
_ZTIN4asio22waitable_timer_serviceINSt6chrono3_V212steady_clockENS_11wait_traitsIS3_EEEE:
	.quad	_ZTVN10__cxxabiv120__si_class_type_infoE+16
	.quad	_ZTSN4asio22waitable_timer_serviceINSt6chrono3_V212steady_clockENS_11wait_traitsIS3_EEEE
	.quad	_ZTIN4asio6detail12service_baseINS_22waitable_timer_serviceINSt6chrono3_V212steady_clockENS_11wait_traitsIS5_EEEEEE
	.weak	_ZTSN7openpal6ITimerE
	.section	.rodata._ZTSN7openpal6ITimerE,"aG",@progbits,_ZTSN7openpal6ITimerE,comdat
	.align 16
	.type	_ZTSN7openpal6ITimerE, @object
	.size	_ZTSN7openpal6ITimerE, 18
_ZTSN7openpal6ITimerE:
	.string	"N7openpal6ITimerE"
	.weak	_ZTIN7openpal6ITimerE
	.section	.data.rel.ro._ZTIN7openpal6ITimerE,"awG",@progbits,_ZTIN7openpal6ITimerE,comdat
	.align 8
	.type	_ZTIN7openpal6ITimerE, @object
	.size	_ZTIN7openpal6ITimerE, 16
_ZTIN7openpal6ITimerE:
	.quad	_ZTVN10__cxxabiv117__class_type_infoE+16
	.quad	_ZTSN7openpal6ITimerE
	.weak	_ZTSN7asiopal5TimerE
	.section	.rodata._ZTSN7asiopal5TimerE,"aG",@progbits,_ZTSN7asiopal5TimerE,comdat
	.align 16
	.type	_ZTSN7asiopal5TimerE, @object
	.size	_ZTSN7asiopal5TimerE, 17
_ZTSN7asiopal5TimerE:
	.string	"N7asiopal5TimerE"
	.weak	_ZTIN7asiopal5TimerE
	.section	.data.rel.ro._ZTIN7asiopal5TimerE,"awG",@progbits,_ZTIN7asiopal5TimerE,comdat
	.align 8
	.type	_ZTIN7asiopal5TimerE, @object
	.size	_ZTIN7asiopal5TimerE, 56
_ZTIN7asiopal5TimerE:
	.quad	_ZTVN10__cxxabiv121__vmi_class_type_infoE+16
	.quad	_ZTSN7asiopal5TimerE
	.long	0
	.long	2
	.quad	_ZTIN7openpal6ITimerE
	.quad	2
	.quad	_ZTIN7openpal10UncopyableE
	.quad	0
	.weak	_ZTSN4asio6detail14typeid_wrapperINS0_13epoll_reactorEEE
	.section	.rodata._ZTSN4asio6detail14typeid_wrapperINS0_13epoll_reactorEEE,"aG",@progbits,_ZTSN4asio6detail14typeid_wrapperINS0_13epoll_reactorEEE,comdat
	.align 32
	.type	_ZTSN4asio6detail14typeid_wrapperINS0_13epoll_reactorEEE, @object
	.size	_ZTSN4asio6detail14typeid_wrapperINS0_13epoll_reactorEEE, 53
_ZTSN4asio6detail14typeid_wrapperINS0_13epoll_reactorEEE:
	.string	"N4asio6detail14typeid_wrapperINS0_13epoll_reactorEEE"
	.weak	_ZTIN4asio6detail14typeid_wrapperINS0_13epoll_reactorEEE
	.section	.data.rel.ro._ZTIN4asio6detail14typeid_wrapperINS0_13epoll_reactorEEE,"awG",@progbits,_ZTIN4asio6detail14typeid_wrapperINS0_13epoll_reactorEEE,comdat
	.align 8
	.type	_ZTIN4asio6detail14typeid_wrapperINS0_13epoll_reactorEEE, @object
	.size	_ZTIN4asio6detail14typeid_wrapperINS0_13epoll_reactorEEE, 16
_ZTIN4asio6detail14typeid_wrapperINS0_13epoll_reactorEEE:
	.quad	_ZTVN10__cxxabiv117__class_type_infoE+16
	.quad	_ZTSN4asio6detail14typeid_wrapperINS0_13epoll_reactorEEE
	.weak	_ZTSN4asio6detail14typeid_wrapperINS_22waitable_timer_serviceINSt6chrono3_V212steady_clockENS_11wait_traitsIS5_EEEEEE
	.section	.rodata._ZTSN4asio6detail14typeid_wrapperINS_22waitable_timer_serviceINSt6chrono3_V212steady_clockENS_11wait_traitsIS5_EEEEEE,"aG",@progbits,_ZTSN4asio6detail14typeid_wrapperINS_22waitable_timer_serviceINSt6chrono3_V212steady_clockENS_11wait_traitsIS5_EEEEEE,comdat
	.align 32
	.type	_ZTSN4asio6detail14typeid_wrapperINS_22waitable_timer_serviceINSt6chrono3_V212steady_clockENS_11wait_traitsIS5_EEEEEE, @object
	.size	_ZTSN4asio6detail14typeid_wrapperINS_22waitable_timer_serviceINSt6chrono3_V212steady_clockENS_11wait_traitsIS5_EEEEEE, 114
_ZTSN4asio6detail14typeid_wrapperINS_22waitable_timer_serviceINSt6chrono3_V212steady_clockENS_11wait_traitsIS5_EEEEEE:
	.string	"N4asio6detail14typeid_wrapperINS_22waitable_timer_serviceINSt6chrono3_V212steady_clockENS_11wait_traitsIS5_EEEEEE"
	.weak	_ZTIN4asio6detail14typeid_wrapperINS_22waitable_timer_serviceINSt6chrono3_V212steady_clockENS_11wait_traitsIS5_EEEEEE
	.section	.data.rel.ro._ZTIN4asio6detail14typeid_wrapperINS_22waitable_timer_serviceINSt6chrono3_V212steady_clockENS_11wait_traitsIS5_EEEEEE,"awG",@progbits,_ZTIN4asio6detail14typeid_wrapperINS_22waitable_timer_serviceINSt6chrono3_V212steady_clockENS_11wait_traitsIS5_EEEEEE,comdat
	.align 8
	.type	_ZTIN4asio6detail14typeid_wrapperINS_22waitable_timer_serviceINSt6chrono3_V212steady_clockENS_11wait_traitsIS5_EEEEEE, @object
	.size	_ZTIN4asio6detail14typeid_wrapperINS_22waitable_timer_serviceINSt6chrono3_V212steady_clockENS_11wait_traitsIS5_EEEEEE, 16
_ZTIN4asio6detail14typeid_wrapperINS_22waitable_timer_serviceINSt6chrono3_V212steady_clockENS_11wait_traitsIS5_EEEEEE:
	.quad	_ZTVN10__cxxabiv117__class_type_infoE+16
	.quad	_ZTSN4asio6detail14typeid_wrapperINS_22waitable_timer_serviceINSt6chrono3_V212steady_clockENS_11wait_traitsIS5_EEEEEE
	.weak	_ZTVN4asio6detail15system_categoryE
	.section	.data.rel.ro._ZTVN4asio6detail15system_categoryE,"awG",@progbits,_ZTVN4asio6detail15system_categoryE,comdat
	.align 8
	.type	_ZTVN4asio6detail15system_categoryE, @object
	.size	_ZTVN4asio6detail15system_categoryE, 80
_ZTVN4asio6detail15system_categoryE:
	.quad	0
	.quad	_ZTIN4asio6detail15system_categoryE
	.quad	_ZN4asio6detail15system_categoryD1Ev
	.quad	_ZN4asio6detail15system_categoryD0Ev
	.quad	_ZNK4asio6detail15system_category4nameEv
	.quad	_ZNKSt3_V214error_category10_M_messageB5cxx11Ei
	.quad	_ZNK4asio6detail15system_category7messageB5cxx11Ei
	.quad	_ZNKSt3_V214error_category23default_error_conditionEi
	.quad	_ZNKSt3_V214error_category10equivalentEiRKSt15error_condition
	.quad	_ZNKSt3_V214error_category10equivalentERKSt10error_codei
	.weak	_ZTVN4asio5error6detail14netdb_categoryE
	.section	.data.rel.ro._ZTVN4asio5error6detail14netdb_categoryE,"awG",@progbits,_ZTVN4asio5error6detail14netdb_categoryE,comdat
	.align 8
	.type	_ZTVN4asio5error6detail14netdb_categoryE, @object
	.size	_ZTVN4asio5error6detail14netdb_categoryE, 80
_ZTVN4asio5error6detail14netdb_categoryE:
	.quad	0
	.quad	_ZTIN4asio5error6detail14netdb_categoryE
	.quad	_ZN4asio5error6detail14netdb_categoryD1Ev
	.quad	_ZN4asio5error6detail14netdb_categoryD0Ev
	.quad	_ZNK4asio5error6detail14netdb_category4nameEv
	.quad	_ZNKSt3_V214error_category10_M_messageB5cxx11Ei
	.quad	_ZNK4asio5error6detail14netdb_category7messageB5cxx11Ei
	.quad	_ZNKSt3_V214error_category23default_error_conditionEi
	.quad	_ZNKSt3_V214error_category10equivalentEiRKSt15error_condition
	.quad	_ZNKSt3_V214error_category10equivalentERKSt10error_codei
	.weak	_ZTVN4asio5error6detail17addrinfo_categoryE
	.section	.data.rel.ro._ZTVN4asio5error6detail17addrinfo_categoryE,"awG",@progbits,_ZTVN4asio5error6detail17addrinfo_categoryE,comdat
	.align 8
	.type	_ZTVN4asio5error6detail17addrinfo_categoryE, @object
	.size	_ZTVN4asio5error6detail17addrinfo_categoryE, 80
_ZTVN4asio5error6detail17addrinfo_categoryE:
	.quad	0
	.quad	_ZTIN4asio5error6detail17addrinfo_categoryE
	.quad	_ZN4asio5error6detail17addrinfo_categoryD1Ev
	.quad	_ZN4asio5error6detail17addrinfo_categoryD0Ev
	.quad	_ZNK4asio5error6detail17addrinfo_category4nameEv
	.quad	_ZNKSt3_V214error_category10_M_messageB5cxx11Ei
	.quad	_ZNK4asio5error6detail17addrinfo_category7messageB5cxx11Ei
	.quad	_ZNKSt3_V214error_category23default_error_conditionEi
	.quad	_ZNKSt3_V214error_category10equivalentEiRKSt15error_condition
	.quad	_ZNKSt3_V214error_category10equivalentERKSt10error_codei
	.weak	_ZTVN4asio5error6detail13misc_categoryE
	.section	.data.rel.ro._ZTVN4asio5error6detail13misc_categoryE,"awG",@progbits,_ZTVN4asio5error6detail13misc_categoryE,comdat
	.align 8
	.type	_ZTVN4asio5error6detail13misc_categoryE, @object
	.size	_ZTVN4asio5error6detail13misc_categoryE, 80
_ZTVN4asio5error6detail13misc_categoryE:
	.quad	0
	.quad	_ZTIN4asio5error6detail13misc_categoryE
	.quad	_ZN4asio5error6detail13misc_categoryD1Ev
	.quad	_ZN4asio5error6detail13misc_categoryD0Ev
	.quad	_ZNK4asio5error6detail13misc_category4nameEv
	.quad	_ZNKSt3_V214error_category10_M_messageB5cxx11Ei
	.quad	_ZNK4asio5error6detail13misc_category7messageB5cxx11Ei
	.quad	_ZNKSt3_V214error_category23default_error_conditionEi
	.quad	_ZNKSt3_V214error_category10equivalentEiRKSt15error_condition
	.quad	_ZNKSt3_V214error_category10equivalentERKSt10error_codei
	.weak	_ZTVN4asio6detail13epoll_reactorE
	.section	.data.rel.ro._ZTVN4asio6detail13epoll_reactorE,"awG",@progbits,_ZTVN4asio6detail13epoll_reactorE,comdat
	.align 8
	.type	_ZTVN4asio6detail13epoll_reactorE, @object
	.size	_ZTVN4asio6detail13epoll_reactorE, 48
_ZTVN4asio6detail13epoll_reactorE:
	.quad	0
	.quad	_ZTIN4asio6detail13epoll_reactorE
	.quad	_ZN4asio6detail13epoll_reactorD1Ev
	.quad	_ZN4asio6detail13epoll_reactorD0Ev
	.quad	_ZN4asio6detail13epoll_reactor16shutdown_serviceEv
	.quad	_ZN4asio6detail13epoll_reactor12fork_serviceENS_10io_service10fork_eventE
	.weak	_ZTVN4asio6detail11timer_queueINS0_18chrono_time_traitsINSt6chrono3_V212steady_clockENS_11wait_traitsIS5_EEEEEE
	.section	.data.rel.ro._ZTVN4asio6detail11timer_queueINS0_18chrono_time_traitsINSt6chrono3_V212steady_clockENS_11wait_traitsIS5_EEEEEE,"awG",@progbits,_ZTVN4asio6detail11timer_queueINS0_18chrono_time_traitsINSt6chrono3_V212steady_clockENS_11wait_traitsIS5_EEEEEE,comdat
	.align 8
	.type	_ZTVN4asio6detail11timer_queueINS0_18chrono_time_traitsINSt6chrono3_V212steady_clockENS_11wait_traitsIS5_EEEEEE, @object
	.size	_ZTVN4asio6detail11timer_queueINS0_18chrono_time_traitsINSt6chrono3_V212steady_clockENS_11wait_traitsIS5_EEEEEE, 72
_ZTVN4asio6detail11timer_queueINS0_18chrono_time_traitsINSt6chrono3_V212steady_clockENS_11wait_traitsIS5_EEEEEE:
	.quad	0
	.quad	_ZTIN4asio6detail11timer_queueINS0_18chrono_time_traitsINSt6chrono3_V212steady_clockENS_11wait_traitsIS5_EEEEEE
	.quad	_ZN4asio6detail11timer_queueINS0_18chrono_time_traitsINSt6chrono3_V212steady_clockENS_11wait_traitsIS5_EEEEED1Ev
	.quad	_ZN4asio6detail11timer_queueINS0_18chrono_time_traitsINSt6chrono3_V212steady_clockENS_11wait_traitsIS5_EEEEED0Ev
	.quad	_ZNK4asio6detail11timer_queueINS0_18chrono_time_traitsINSt6chrono3_V212steady_clockENS_11wait_traitsIS5_EEEEE5emptyEv
	.quad	_ZNK4asio6detail11timer_queueINS0_18chrono_time_traitsINSt6chrono3_V212steady_clockENS_11wait_traitsIS5_EEEEE18wait_duration_msecEl
	.quad	_ZNK4asio6detail11timer_queueINS0_18chrono_time_traitsINSt6chrono3_V212steady_clockENS_11wait_traitsIS5_EEEEE18wait_duration_usecEl
	.quad	_ZN4asio6detail11timer_queueINS0_18chrono_time_traitsINSt6chrono3_V212steady_clockENS_11wait_traitsIS5_EEEEE16get_ready_timersERNS0_8op_queueINS0_25task_io_service_operationEEE
	.quad	_ZN4asio6detail11timer_queueINS0_18chrono_time_traitsINSt6chrono3_V212steady_clockENS_11wait_traitsIS5_EEEEE14get_all_timersERNS0_8op_queueINS0_25task_io_service_operationEEE
	.weak	_ZTVN4asio22waitable_timer_serviceINSt6chrono3_V212steady_clockENS_11wait_traitsIS3_EEEE
	.section	.data.rel.ro._ZTVN4asio22waitable_timer_serviceINSt6chrono3_V212steady_clockENS_11wait_traitsIS3_EEEE,"awG",@progbits,_ZTVN4asio22waitable_timer_serviceINSt6chrono3_V212steady_clockENS_11wait_traitsIS3_EEEE,comdat
	.align 8
	.type	_ZTVN4asio22waitable_timer_serviceINSt6chrono3_V212steady_clockENS_11wait_traitsIS3_EEEE, @object
	.size	_ZTVN4asio22waitable_timer_serviceINSt6chrono3_V212steady_clockENS_11wait_traitsIS3_EEEE, 48
_ZTVN4asio22waitable_timer_serviceINSt6chrono3_V212steady_clockENS_11wait_traitsIS3_EEEE:
	.quad	0
	.quad	_ZTIN4asio22waitable_timer_serviceINSt6chrono3_V212steady_clockENS_11wait_traitsIS3_EEEE
	.quad	_ZN4asio22waitable_timer_serviceINSt6chrono3_V212steady_clockENS_11wait_traitsIS3_EEED1Ev
	.quad	_ZN4asio22waitable_timer_serviceINSt6chrono3_V212steady_clockENS_11wait_traitsIS3_EEED0Ev
	.quad	_ZN4asio22waitable_timer_serviceINSt6chrono3_V212steady_clockENS_11wait_traitsIS3_EEE16shutdown_serviceEv
	.quad	_ZN4asio10io_service7service12fork_serviceENS0_10fork_eventE
	.weak	_ZTVN7asiopal5TimerE
	.section	.data.rel.ro._ZTVN7asiopal5TimerE,"awG",@progbits,_ZTVN7asiopal5TimerE,comdat
	.align 8
	.type	_ZTVN7asiopal5TimerE, @object
	.size	_ZTVN7asiopal5TimerE, 48
_ZTVN7asiopal5TimerE:
	.quad	0
	.quad	_ZTIN7asiopal5TimerE
	.quad	_ZN7asiopal5TimerD1Ev
	.quad	_ZN7asiopal5TimerD0Ev
	.quad	_ZN7asiopal5Timer6CancelEv
	.quad	_ZN7asiopal5Timer9ExpiresAtEv
	.weak	_ZGVZN4asio5error17get_misc_categoryEvE8instance
	.section	.bss._ZGVZN4asio5error17get_misc_categoryEvE8instance,"awG",@nobits,_ZGVZN4asio5error17get_misc_categoryEvE8instance,comdat
	.align 8
	.type	_ZGVZN4asio5error17get_misc_categoryEvE8instance, @gnu_unique_object
	.size	_ZGVZN4asio5error17get_misc_categoryEvE8instance, 8
_ZGVZN4asio5error17get_misc_categoryEvE8instance:
	.zero	8
	.weak	_ZZN4asio5error17get_misc_categoryEvE8instance
	.section	.data.rel._ZZN4asio5error17get_misc_categoryEvE8instance,"awG",@progbits,_ZZN4asio5error17get_misc_categoryEvE8instance,comdat
	.align 8
	.type	_ZZN4asio5error17get_misc_categoryEvE8instance, @gnu_unique_object
	.size	_ZZN4asio5error17get_misc_categoryEvE8instance, 8
_ZZN4asio5error17get_misc_categoryEvE8instance:
	.quad	_ZTVN4asio5error6detail13misc_categoryE+16
	.weak	_ZGVZN4asio5error21get_addrinfo_categoryEvE8instance
	.section	.bss._ZGVZN4asio5error21get_addrinfo_categoryEvE8instance,"awG",@nobits,_ZGVZN4asio5error21get_addrinfo_categoryEvE8instance,comdat
	.align 8
	.type	_ZGVZN4asio5error21get_addrinfo_categoryEvE8instance, @gnu_unique_object
	.size	_ZGVZN4asio5error21get_addrinfo_categoryEvE8instance, 8
_ZGVZN4asio5error21get_addrinfo_categoryEvE8instance:
	.zero	8
	.weak	_ZZN4asio5error21get_addrinfo_categoryEvE8instance
	.section	.data.rel._ZZN4asio5error21get_addrinfo_categoryEvE8instance,"awG",@progbits,_ZZN4asio5error21get_addrinfo_categoryEvE8instance,comdat
	.align 8
	.type	_ZZN4asio5error21get_addrinfo_categoryEvE8instance, @gnu_unique_object
	.size	_ZZN4asio5error21get_addrinfo_categoryEvE8instance, 8
_ZZN4asio5error21get_addrinfo_categoryEvE8instance:
	.quad	_ZTVN4asio5error6detail17addrinfo_categoryE+16
	.weak	_ZGVZN4asio5error18get_netdb_categoryEvE8instance
	.section	.bss._ZGVZN4asio5error18get_netdb_categoryEvE8instance,"awG",@nobits,_ZGVZN4asio5error18get_netdb_categoryEvE8instance,comdat
	.align 8
	.type	_ZGVZN4asio5error18get_netdb_categoryEvE8instance, @gnu_unique_object
	.size	_ZGVZN4asio5error18get_netdb_categoryEvE8instance, 8
_ZGVZN4asio5error18get_netdb_categoryEvE8instance:
	.zero	8
	.weak	_ZZN4asio5error18get_netdb_categoryEvE8instance
	.section	.data.rel._ZZN4asio5error18get_netdb_categoryEvE8instance,"awG",@progbits,_ZZN4asio5error18get_netdb_categoryEvE8instance,comdat
	.align 8
	.type	_ZZN4asio5error18get_netdb_categoryEvE8instance, @gnu_unique_object
	.size	_ZZN4asio5error18get_netdb_categoryEvE8instance, 8
_ZZN4asio5error18get_netdb_categoryEvE8instance:
	.quad	_ZTVN4asio5error6detail14netdb_categoryE+16
	.weak	_ZGVZN4asio15system_categoryEvE8instance
	.section	.bss._ZGVZN4asio15system_categoryEvE8instance,"awG",@nobits,_ZGVZN4asio15system_categoryEvE8instance,comdat
	.align 8
	.type	_ZGVZN4asio15system_categoryEvE8instance, @gnu_unique_object
	.size	_ZGVZN4asio15system_categoryEvE8instance, 8
_ZGVZN4asio15system_categoryEvE8instance:
	.zero	8
	.weak	_ZZN4asio15system_categoryEvE8instance
	.section	.data.rel._ZZN4asio15system_categoryEvE8instance,"awG",@progbits,_ZZN4asio15system_categoryEvE8instance,comdat
	.align 8
	.type	_ZZN4asio15system_categoryEvE8instance, @gnu_unique_object
	.size	_ZZN4asio15system_categoryEvE8instance, 8
_ZZN4asio15system_categoryEvE8instance:
	.quad	_ZTVN4asio6detail15system_categoryE+16
	.weak	_ZN4asio6detail15keyword_tss_ptrINS0_10call_stackINS0_15task_io_serviceENS0_27task_io_service_thread_infoEE7contextEE6value_E
	.section	.tbss._ZN4asio6detail15keyword_tss_ptrINS0_10call_stackINS0_15task_io_serviceENS0_27task_io_service_thread_infoEE7contextEE6value_E,"awTG",@nobits,_ZN4asio6detail15keyword_tss_ptrINS0_10call_stackINS0_15task_io_serviceENS0_27task_io_service_thread_infoEE7contextEE6value_E,comdat
	.align 8
	.type	_ZN4asio6detail15keyword_tss_ptrINS0_10call_stackINS0_15task_io_serviceENS0_27task_io_service_thread_infoEE7contextEE6value_E, @gnu_unique_object
	.size	_ZN4asio6detail15keyword_tss_ptrINS0_10call_stackINS0_15task_io_serviceENS0_27task_io_service_thread_infoEE7contextEE6value_E, 8
_ZN4asio6detail15keyword_tss_ptrINS0_10call_stackINS0_15task_io_serviceENS0_27task_io_service_thread_infoEE7contextEE6value_E:
	.zero	8
	.section	.rodata.cst16,"aM",@progbits,16
	.align 16
.LC5:
	.quad	8028075772644520015
	.quad	7310593917846626414
	.align 16
.LC6:
	.quad	2334381286471394643
	.quad	7959390400869068654
	.align 16
.LC7:
	.quad	8367816086596579155
	.quad	2338616625292734585
	.align 16
.LC8:
	.quad	7234013753529430881
	.quad	8243030355803531634
	.align 16
.LC9:
	.quad	8390045716486254408
	.quad	2891421386351273504
	.align 16
.LC10:
	.quad	7526769937477431150
	.quad	8532478930943832687
	.align 16
.LC11:
	.quad	2340027324477221221
	.quad	7020021577750243169
	.align 16
.LC12:
	.quad	8243123821706831956
	.quad	7809653110584451193
	.align 16
.LC13:
	.quad	2338623170819155049
	.quad	2338324160631043177
	.align 16
.LC14:
	.quad	7311138144931573614
	.quad	7019250824563089696
	.align 16
.LC15:
	.quad	7309955097514876993
	.quad	7809911847770287971
	.align 16
.LC16:
	.quad	2338053693894893669
	.quad	7234314212361855855
	.align 16
.LC17:
	.quad	2334956330985808928
	.quad	7310293695322153316
	.align 16
.LC18:
	.quad	8387231026764149601
	.quad	8245935278387126884
	.align 16
.LC19:
	.quad	2338615488418245701
	.quad	7959390400869068654
	.align 16
.LC20:
	.quad	7166182912791242836
	.quad	7214892426067994994
	.align 16
.LC21:
	.quad	2338616625293649263
	.quad	8031165433303558502
	.align 16
.LC22:
	.quad	7810775711721485344
	.quad	7812726531955123045
	.hidden	DW.ref.__gxx_personality_v0
	.weak	DW.ref.__gxx_personality_v0
	.section	.data.rel.local.DW.ref.__gxx_personality_v0,"awG",@progbits,DW.ref.__gxx_personality_v0,comdat
	.align 8
	.type	DW.ref.__gxx_personality_v0, @object
	.size	DW.ref.__gxx_personality_v0, 8
DW.ref.__gxx_personality_v0:
	.quad	__gxx_personality_v0
	.hidden	__dso_handle
	.ident	"GCC: (Ubuntu 9.4.0-1ubuntu1~20.04.1) 9.4.0"
	.section	.note.GNU-stack,"",@progbits
	.section	.note.gnu.property,"a"
	.align 8
	.long	 1f - 0f
	.long	 4f - 1f
	.long	 5
0:
	.string	 "GNU"
1:
	.align 8
	.long	 0xc0000002
	.long	 3f - 2f
2:
	.long	 0x3
3:
	.align 8
4:
